
========================================================================

** ELF Header Information

    File Name: bin\tdm_loopback.axf

    Machine class: ELFCLASS32 (32-bit)
    Data encoding: ELFDATA2LSB (Little endian)
    Header version: EV_CURRENT (Current version)
    Operating System ABI: none
    ABI Version: 0
    File Type: ET_EXEC (Executable) (2)
    Machine: EM_ARM (ARM)

    Image Entry point: 0x00018235
    Flags: EF_ARM_HASENTRY + EF_ARM_ABI_FLOAT_HARD (0x05000402)

    ARM ELF revision: 5 (ABI version 2)

    Conforms to Hard float procedure-call standard

    Built with
    Component: ARM Compiler 5.06 update 6 (build 750) Tool: armasm [4d35ec]
    Component: ARM Compiler 5.06 update 6 (build 750) Tool: armlink [4d35ed]

    Header size: 52 bytes (0x34)
    Program header entry size: 32 bytes (0x20)
    Section header entry size: 40 bytes (0x28)

    Program header entries: 1
    Section header entries: 17

    Program header offset: 1803964 (0x001b86bc)
    Section header offset: 1803996 (0x001b86dc)

    Section header string table index: 16

========================================================================

** Program header #0 (PT_LOAD) [PF_X + PF_W + PF_R + PF_ARM_ENTRY]
    Size : 117596 bytes (14668 bytes in file)
    Virtual address: 0x00018000 (Alignment 8)


========================================================================

** Section #1 'MCU_MRAM' (SHT_PROGBITS) [SHF_ALLOC + SHF_EXECINSTR]
    Size   : 13612 bytes (alignment 4)
    Address: 0x00018000

    $d
    RESET
    __Vectors
        0x00018000:    100018d8    ....    DCD    268441816
        0x00018004:    00018201    ....    DCD    98817
        0x00018008:    0001821f    ....    DCD    98847
        0x0001800c:    00018335    5...    DCD    99125
        0x00018010:    00018221    !...    DCD    98849
        0x00018014:    00018223    #...    DCD    98851
        0x00018018:    00018225    %...    DCD    98853
        0x0001801c:    00000000    ....    DCD    0
        0x00018020:    00000000    ....    DCD    0
        0x00018024:    00000000    ....    DCD    0
        0x00018028:    00000000    ....    DCD    0
        0x0001802c:    00018227    '...    DCD    98855
        0x00018030:    00018229    )...    DCD    98857
        0x00018034:    00000000    ....    DCD    0
        0x00018038:    0001822b    +...    DCD    98859
        0x0001803c:    0001822d    -...    DCD    98861
        0x00018040:    0001822f    /...    DCD    98863
        0x00018044:    0001822f    /...    DCD    98863
        0x00018048:    0001822f    /...    DCD    98863
        0x0001804c:    0001822f    /...    DCD    98863
        0x00018050:    0001822f    /...    DCD    98863
        0x00018054:    0001822f    /...    DCD    98863
        0x00018058:    0001822f    /...    DCD    98863
        0x0001805c:    0001822f    /...    DCD    98863
        0x00018060:    0001822f    /...    DCD    98863
        0x00018064:    0001822f    /...    DCD    98863
        0x00018068:    0001822f    /...    DCD    98863
        0x0001806c:    0001822f    /...    DCD    98863
        0x00018070:    0001822f    /...    DCD    98863
        0x00018074:    0001822f    /...    DCD    98863
        0x00018078:    0001822f    /...    DCD    98863
        0x0001807c:    0001822f    /...    DCD    98863
        0x00018080:    0001822f    /...    DCD    98863
        0x00018084:    0001822f    /...    DCD    98863
        0x00018088:    0001822f    /...    DCD    98863
        0x0001808c:    0001822f    /...    DCD    98863
        0x00018090:    0001822f    /...    DCD    98863
        0x00018094:    0001822f    /...    DCD    98863
        0x00018098:    0001822f    /...    DCD    98863
        0x0001809c:    0001822f    /...    DCD    98863
        0x000180a0:    0001822f    /...    DCD    98863
        0x000180a4:    0001822f    /...    DCD    98863
        0x000180a8:    0001822f    /...    DCD    98863
        0x000180ac:    0001822f    /...    DCD    98863
        0x000180b0:    0001822f    /...    DCD    98863
        0x000180b4:    0001822f    /...    DCD    98863
        0x000180b8:    0001822f    /...    DCD    98863
        0x000180bc:    0001822f    /...    DCD    98863
        0x000180c0:    0001822f    /...    DCD    98863
        0x000180c4:    0001822f    /...    DCD    98863
        0x000180c8:    0001822f    /...    DCD    98863
        0x000180cc:    0001822f    /...    DCD    98863
        0x000180d0:    0001822f    /...    DCD    98863
        0x000180d4:    0001822f    /...    DCD    98863
        0x000180d8:    0001822f    /...    DCD    98863
        0x000180dc:    0001822f    /...    DCD    98863
        0x000180e0:    0001822f    /...    DCD    98863
        0x000180e4:    0001822f    /...    DCD    98863
        0x000180e8:    0001822f    /...    DCD    98863
        0x000180ec:    0001822f    /...    DCD    98863
        0x000180f0:    00018729    )...    DCD    100137
        0x000180f4:    0001822f    /...    DCD    98863
        0x000180f8:    0001822f    /...    DCD    98863
        0x000180fc:    0001822f    /...    DCD    98863
        0x00018100:    0001822f    /...    DCD    98863
        0x00018104:    0001822f    /...    DCD    98863
        0x00018108:    0001822f    /...    DCD    98863
        0x0001810c:    0001822f    /...    DCD    98863
        0x00018110:    0001822f    /...    DCD    98863
        0x00018114:    0001822f    /...    DCD    98863
        0x00018118:    0001822f    /...    DCD    98863
        0x0001811c:    0001822f    /...    DCD    98863
        0x00018120:    0001822f    /...    DCD    98863
        0x00018124:    0001822f    /...    DCD    98863
        0x00018128:    0001822f    /...    DCD    98863
        0x0001812c:    0001822f    /...    DCD    98863
        0x00018130:    0001822f    /...    DCD    98863
        0x00018134:    0001822f    /...    DCD    98863
        0x00018138:    0001822f    /...    DCD    98863
        0x0001813c:    0001822f    /...    DCD    98863
        0x00018140:    0001822f    /...    DCD    98863
        0x00018144:    0001822f    /...    DCD    98863
        0x00018148:    0001822f    /...    DCD    98863
        0x0001814c:    0001822f    /...    DCD    98863
        0x00018150:    0001822f    /...    DCD    98863
        0x00018154:    0001822f    /...    DCD    98863
        0x00018158:    0001822f    /...    DCD    98863
        0x0001815c:    0001822f    /...    DCD    98863
        0x00018160:    0001822f    /...    DCD    98863
        0x00018164:    0001822f    /...    DCD    98863
        0x00018168:    0001822f    /...    DCD    98863
        0x0001816c:    0001822f    /...    DCD    98863
        0x00018170:    0001822f    /...    DCD    98863
        0x00018174:    0001822f    /...    DCD    98863
        0x00018178:    0001822f    /...    DCD    98863
        0x0001817c:    0001822f    /...    DCD    98863
        0x00018180:    0001822f    /...    DCD    98863
        0x00018184:    0001822f    /...    DCD    98863
        0x00018188:    0001822f    /...    DCD    98863
        0x0001818c:    0001822f    /...    DCD    98863
    __Patchable
        0x00018190:    00000000    ....    DCD    0
        0x00018194:    00000000    ....    DCD    0
        0x00018198:    00000000    ....    DCD    0
        0x0001819c:    00000000    ....    DCD    0
        0x000181a0:    00000000    ....    DCD    0
        0x000181a4:    00000000    ....    DCD    0
        0x000181a8:    00000000    ....    DCD    0
        0x000181ac:    00000000    ....    DCD    0
        0x000181b0:    00000000    ....    DCD    0
        0x000181b4:    00000000    ....    DCD    0
        0x000181b8:    00000000    ....    DCD    0
        0x000181bc:    00000000    ....    DCD    0
        0x000181c0:    00000000    ....    DCD    0
        0x000181c4:    00000000    ....    DCD    0
        0x000181c8:    00000000    ....    DCD    0
        0x000181cc:    00000000    ....    DCD    0
        0x000181d0:    00000000    ....    DCD    0
        0x000181d4:    00000000    ....    DCD    0
        0x000181d8:    00000000    ....    DCD    0
        0x000181dc:    00000000    ....    DCD    0
        0x000181e0:    00000000    ....    DCD    0
        0x000181e4:    00000000    ....    DCD    0
        0x000181e8:    00000000    ....    DCD    0
        0x000181ec:    00000000    ....    DCD    0
        0x000181f0:    00000000    ....    DCD    0
        0x000181f4:    00000000    ....    DCD    0
        0x000181f8:    00000000    ....    DCD    0
        0x000181fc:    00000000    ....    DCD    0
    $t
    $v0
    Reset_Handler
        0x00018200:    f64e5088    N..P    MOV      r0,#0xed88
        0x00018204:    f2ce0000    ....    MOVT     r0,#0xe000
        0x00018208:    6801        .h      LDR      r1,[r0,#0]
        0x0001820a:    f4410170    A.p.    ORR      r1,r1,#0xf00000
        0x0001820e:    6001        .`      STR      r1,[r0,#0]
        0x00018210:    f3bf8f4f    ..O.    DSB      
        0x00018214:    f3bf8f6f    ..o.    ISB      
        0x00018218:    4805        .H      LDR      r0,[pc,#20] ; [0x18230] = 0x18235
        0x0001821a:    4700        .G      BX       r0
        0x0001821c:    e7fe        ..      B        0x1821c ; Reset_Handler + 28
    NMI_Handler
        0x0001821e:    e7fe        ..      B        NMI_Handler ; 0x1821e
    MemManage_Handler
        0x00018220:    e7fe        ..      B        MemManage_Handler ; 0x18220
    BusFault_Handler
        0x00018222:    e7fe        ..      B        BusFault_Handler ; 0x18222
    UsageFault_Handler
        0x00018224:    e7fe        ..      B        UsageFault_Handler ; 0x18224
    SVC_Handler
        0x00018226:    e7fe        ..      B        SVC_Handler ; 0x18226
    DebugMon_Handler
        0x00018228:    e7fe        ..      B        DebugMon_Handler ; 0x18228
    PendSV_Handler
        0x0001822a:    e7fe        ..      B        PendSV_Handler ; 0x1822a
    SysTick_Handler
        0x0001822c:    e7fe        ..      B        SysTick_Handler ; 0x1822c
    am_cryptosec_isr
    am_default_isr
    am_adc_isr
    am_audadc0_isr
    am_brownout_isr
    am_cachecpu_isr
    am_clkgen_isr
    am_ctimer_isr
    am_disp_isr
    am_dsi_isr
    am_dspi2s1_isr
    am_dspi2s2_isr
    am_dspi2s3_isr
    am_gpio0_001f_isr
    am_gpio0_203f_isr
    am_gpio0_405f_isr
    am_gpio0_607f_isr
    am_gpio1_001f_isr
    am_gpio1_203f_isr
    am_gpio1_405f_isr
    am_gpio1_607f_isr
    am_gpu_isr
    am_iomaster0_isr
    am_iomaster1_isr
    am_iomaster2_isr
    am_iomaster3_isr
    am_iomaster4_isr
    am_iomaster5_isr
    am_iomaster6_isr
    am_iomaster7_isr
    am_ioslave_acc_isr
    am_ioslave_ios_isr
    am_mspi0_isr
    am_mspi1_isr
    am_mspi2_isr
    am_pdm0_isr
    am_pdm1_isr
    am_pdm2_isr
    am_pdm3_isr
    am_rtc_isr
    am_sdio_isr
    am_stimer_cmpr0_isr
    am_stimer_cmpr1_isr
    am_stimer_cmpr2_isr
    am_stimer_cmpr3_isr
    am_stimer_cmpr4_isr
    am_stimer_cmpr5_isr
    am_stimer_cmpr6_isr
    am_stimer_cmpr7_isr
    am_stimerof_isr
    am_timer00_isr
    am_timer01_isr
    am_timer02_isr
    am_timer03_isr
    am_timer04_isr
    am_timer05_isr
    am_timer06_isr
    am_timer07_isr
    am_timer08_isr
    am_timer09_isr
    am_timer10_isr
    am_timer11_isr
    am_timer12_isr
    am_timer13_isr
    am_timer14_isr
    am_timer15_isr
    am_uart1_isr
    am_uart2_isr
    am_uart3_isr
    am_uart_isr
    am_usb_isr
    am_vcomp_isr
    am_watchdog_isr
        0x0001822e:    e7fe        ..      B        am_cryptosec_isr ; 0x1822e
    $d
        0x00018230:    00018235    5...    DCD    98869
    $t
    !!!main
    __main
        0x00018234:    f000f802    ....    BL       __scatterload ; 0x1823c
        0x00018238:    f000f86c    ..l.    BL       __rt_entry ; 0x18314
    !!!scatter
    __scatterload
    __scatterload_rt2
    __scatterload_rt2_thumb_only
        0x0001823c:    a00a        ..      ADR      r0,{pc}+0x2c ; 0x18268
        0x0001823e:    e8900c00    ....    LDM      r0,{r10,r11}
        0x00018242:    4482        .D      ADD      r10,r10,r0
        0x00018244:    4483        .D      ADD      r11,r11,r0
        0x00018246:    f1aa0701    ....    SUB      r7,r10,#1
    __scatterload_null
        0x0001824a:    45da        .E      CMP      r10,r11
        0x0001824c:    d101        ..      BNE      0x18252 ; __scatterload_null + 8
        0x0001824e:    f000f861    ..a.    BL       __rt_entry ; 0x18314
        0x00018252:    f2af0e09    ....    ADR      lr,{pc}-7 ; 0x1824b
        0x00018256:    e8ba000f    ....    LDM      r10!,{r0-r3}
        0x0001825a:    f0130f01    ....    TST      r3,#1
        0x0001825e:    bf18        ..      IT       NE
        0x00018260:    1afb        ..      SUBNE    r3,r7,r3
        0x00018262:    f0430301    C...    ORR      r3,r3,#1
        0x00018266:    4718        .G      BX       r3
    $d
        0x00018268:    00003294    .2..    DCD    12948
        0x0001826c:    000032c4    .2..    DCD    12996
    $t
    !!dczerorl2
    __decompress
    __decompress1
        0x00018270:    440a        .D      ADD      r2,r2,r1
        0x00018272:    f04f0c00    O...    MOV      r12,#0
        0x00018276:    f8103b01    ...;    LDRB     r3,[r0],#1
        0x0001827a:    f0130407    ....    ANDS     r4,r3,#7
        0x0001827e:    bf08        ..      IT       EQ
        0x00018280:    f8104b01    ...K    LDRBEQ   r4,[r0],#1
        0x00018284:    111d        ..      ASRS     r5,r3,#4
        0x00018286:    bf08        ..      IT       EQ
        0x00018288:    f8105b01    ...[    LDRBEQ   r5,[r0],#1
        0x0001828c:    1e64        d.      SUBS     r4,r4,#1
        0x0001828e:    d005        ..      BEQ      0x1829c ; __decompress + 44
        0x00018290:    f8106b01    ...k    LDRB     r6,[r0],#1
        0x00018294:    1e64        d.      SUBS     r4,r4,#1
        0x00018296:    f8016b01    ...k    STRB     r6,[r1],#1
        0x0001829a:    d1f9        ..      BNE      0x18290 ; __decompress + 32
        0x0001829c:    f0130f08    ....    TST      r3,#8
        0x000182a0:    bf1e        ..      ITTT     NE
        0x000182a2:    f8104b01    ...K    LDRBNE   r4,[r0],#1
        0x000182a6:    1cad        ..      ADDNE    r5,r5,#2
        0x000182a8:    1b0c        ..      SUBNE    r4,r1,r4
        0x000182aa:    d109        ..      BNE      0x182c0 ; __decompress + 80
        0x000182ac:    1e6d        m.      SUBS     r5,r5,#1
        0x000182ae:    bf58        X.      IT       PL
        0x000182b0:    f801cb01    ....    STRBPL   r12,[r1],#1
        0x000182b4:    d5fa        ..      BPL      0x182ac ; __decompress + 60
        0x000182b6:    e005        ..      B        0x182c4 ; __decompress + 84
        0x000182b8:    f8146b01    ...k    LDRB     r6,[r4],#1
        0x000182bc:    f8016b01    ...k    STRB     r6,[r1],#1
        0x000182c0:    1e6d        m.      SUBS     r5,r5,#1
        0x000182c2:    d5f9        ..      BPL      0x182b8 ; __decompress + 72
        0x000182c4:    4291        .B      CMP      r1,r2
        0x000182c6:    d3d6        ..      BCC      0x18276 ; __decompress + 6
        0x000182c8:    4770        pG      BX       lr
        0x000182ca:    0000        ..      MOVS     r0,r0
    !!handler_copy
    __scatterload_copy
        0x000182cc:    3a10        .:      SUBS     r2,r2,#0x10
        0x000182ce:    bf24        $.      ITT      CS
        0x000182d0:    c878        x.      LDMCS    r0!,{r3-r6}
        0x000182d2:    c178        x.      STMCS    r1!,{r3-r6}
        0x000182d4:    d8fa        ..      BHI      __scatterload_copy ; 0x182cc
        0x000182d6:    0752        R.      LSLS     r2,r2,#29
        0x000182d8:    bf24        $.      ITT      CS
        0x000182da:    c830        0.      LDMCS    r0!,{r4,r5}
        0x000182dc:    c130        0.      STMCS    r1!,{r4,r5}
        0x000182de:    bf44        D.      ITT      MI
        0x000182e0:    6804        .h      LDRMI    r4,[r0,#0]
        0x000182e2:    600c        .`      STRMI    r4,[r1,#0]
        0x000182e4:    4770        pG      BX       lr
        0x000182e6:    0000        ..      MOVS     r0,r0
    !!handler_zi
    __scatterload_zeroinit
        0x000182e8:    2300        .#      MOVS     r3,#0
        0x000182ea:    2400        .$      MOVS     r4,#0
        0x000182ec:    2500        .%      MOVS     r5,#0
        0x000182ee:    2600        .&      MOVS     r6,#0
        0x000182f0:    3a10        .:      SUBS     r2,r2,#0x10
        0x000182f2:    bf28        (.      IT       CS
        0x000182f4:    c178        x.      STMCS    r1!,{r3-r6}
        0x000182f6:    d8fb        ..      BHI      0x182f0 ; __scatterload_zeroinit + 8
        0x000182f8:    0752        R.      LSLS     r2,r2,#29
        0x000182fa:    bf28        (.      IT       CS
        0x000182fc:    c130        0.      STMCS    r1!,{r4,r5}
        0x000182fe:    bf48        H.      IT       MI
        0x00018300:    600b        .`      STRMI    r3,[r1,#0]
        0x00018302:    4770        pG      BX       lr
    .ARM.Collect$$libinit$$00000000
    __rt_lib_init
        0x00018304:    b51f        ..      PUSH     {r0-r4,lr}
    .ARM.Collect$$libinit$$00000001
    __rt_lib_init_fp_1
        0x00018306:    f002ff86    ....    BL       _fp_init ; 0x1b216
    .ARM.Collect$$libinit$$00000004
    .ARM.Collect$$libinit$$0000000A
    .ARM.Collect$$libinit$$0000000C
    .ARM.Collect$$libinit$$0000000D
    __rt_lib_init_heap_1
    __rt_lib_init_preinit_1
    __rt_lib_init_rand_2
    __rt_lib_init_user_alloc_1
        0x0001830a:    f000f90e    ....    BL       _rand_init ; 0x1852a
    .ARM.Collect$$libinit$$0000000E
    .ARM.Collect$$libinit$$00000011
    .ARM.Collect$$libinit$$00000013
    .ARM.Collect$$libinit$$00000015
    .ARM.Collect$$libinit$$00000017
    .ARM.Collect$$libinit$$00000019
    .ARM.Collect$$libinit$$0000001B
    .ARM.Collect$$libinit$$0000001D
    .ARM.Collect$$libinit$$0000001F
    .ARM.Collect$$libinit$$00000021
    .ARM.Collect$$libinit$$00000023
    .ARM.Collect$$libinit$$00000025
    .ARM.Collect$$libinit$$0000002C
    .ARM.Collect$$libinit$$0000002E
    .ARM.Collect$$libinit$$00000030
    .ARM.Collect$$libinit$$00000032
    .ARM.Collect$$libinit$$00000033
    __rt_lib_init_alloca_1
    __rt_lib_init_argv_1
    __rt_lib_init_atexit_1
    __rt_lib_init_clock_1
    __rt_lib_init_cpp_1
    __rt_lib_init_exceptions_1
    __rt_lib_init_fp_trap_1
    __rt_lib_init_getenv_1
    __rt_lib_init_lc_collate_1
    __rt_lib_init_lc_ctype_1
    __rt_lib_init_lc_monetary_1
    __rt_lib_init_lc_numeric_1
    __rt_lib_init_lc_time_1
    __rt_lib_init_rand_1
    __rt_lib_init_return
    __rt_lib_init_signal_1
    __rt_lib_init_stdio_1
        0x0001830e:    bd1f        ..      POP      {r0-r4,pc}
    .ARM.Collect$$libshutdown$$00000000
    __rt_lib_shutdown
        0x00018310:    b510        ..      PUSH     {r4,lr}
    .ARM.Collect$$libshutdown$$00000002
    .ARM.Collect$$libshutdown$$00000004
    .ARM.Collect$$libshutdown$$00000007
    .ARM.Collect$$libshutdown$$0000000A
    .ARM.Collect$$libshutdown$$0000000C
    .ARM.Collect$$libshutdown$$0000000F
    .ARM.Collect$$libshutdown$$00000010
    __rt_lib_shutdown_cpp_1
    __rt_lib_shutdown_fp_trap_1
    __rt_lib_shutdown_heap_1
    __rt_lib_shutdown_return
    __rt_lib_shutdown_signal_1
    __rt_lib_shutdown_stdio_1
    __rt_lib_shutdown_user_alloc_1
        0x00018312:    bd10        ..      POP      {r4,pc}
    .ARM.Collect$$rtentry$$00000000
    .ARM.Collect$$rtentry$$00000002
    .ARM.Collect$$rtentry$$00000004
    __rt_entry
    __rt_entry_presh_1
    __rt_entry_sh
        0x00018314:    f000f915    ....    BL       __user_setup_stackheap ; 0x18542
        0x00018318:    4611        .F      MOV      r1,r2
    .ARM.Collect$$rtentry$$00000009
    .ARM.Collect$$rtentry$$0000000A
    __rt_entry_li
    __rt_entry_postsh_1
        0x0001831a:    f7fffff3    ....    BL       __rt_lib_init ; 0x18304
    .ARM.Collect$$rtentry$$0000000C
    .ARM.Collect$$rtentry$$0000000D
    __rt_entry_main
    __rt_entry_postli_1
        0x0001831e:    f002faf7    ....    BL       main ; 0x1a910
        0x00018322:    f000f933    ..3.    BL       exit ; 0x1858c
    .ARM.Collect$$rtexit$$00000000
    __rt_exit
        0x00018326:    b403        ..      PUSH     {r0,r1}
    .ARM.Collect$$rtexit$$00000002
    .ARM.Collect$$rtexit$$00000003
    __rt_exit_ls
    __rt_exit_prels_1
        0x00018328:    f7fffff2    ....    BL       __rt_lib_shutdown ; 0x18310
    .ARM.Collect$$rtexit$$00000004
    __rt_exit_exit
        0x0001832c:    bc03        ..      POP      {r0,r1}
        0x0001832e:    f000f93b    ..;.    BL       _sys_exit ; 0x185a8
        0x00018332:    0000        ..      MOVS     r0,r0
    .emb_text
    $v0
    HardFault_Handler
        0x00018334:    f01e0f04    ....    TST      lr,#4
        0x00018338:    bf0c        ..      ITE      EQ
        0x0001833a:    f3ef8008    ....    MRSEQ    r0,MSP
        0x0001833e:    f3ef8009    ....    MRSNE    r0,PSP
        0x00018342:    4904        .I      LDR      r1,[pc,#16] ; [0x18354] = 0x10000138
        0x00018344:    f5017100    ...q    ADD      r1,r1,#0x200
        0x00018348:    f0210103    !...    BIC      r1,r1,#3
        0x0001834c:    468d        .F      MOV      sp,r1
        0x0001834e:    f001bbf1    ....    B.W      am_util_faultisr_collect_data ; 0x19b34
        0x00018352:    bf00        ..      NOP      
    $d
        0x00018354:    10000138    8...    DCD    268435768
    $t
    getStackedReg
        0x00018358:    0080        ..      LSLS     r0,r0,#2
        0x0001835a:    1840        @.      ADDS     r0,r0,r1
        0x0001835c:    6800        .h      LDR      r0,[r0,#0]
        0x0001835e:    4770        pG      BX       lr
    .emb_text
    $v0
    am_hal_interrupt_master_enable
        0x00018360:    f3ef8010    ....    MRS      r0,PRIMASK
        0x00018364:    b662        b.      CPSIE    i
        0x00018366:    4770        pG      BX       lr
    am_hal_interrupt_master_disable
        0x00018368:    f3ef8010    ....    MRS      r0,PRIMASK
        0x0001836c:    b672        r.      CPSID    i
        0x0001836e:    4770        pG      BX       lr
    am_hal_interrupt_master_set
        0x00018370:    f3808810    ....    MSR      PRIMASK,r0
        0x00018374:    4770        pG      BX       lr
        0x00018376:    0000        ..      MOVS     r0,r0
    .emb_text
    rand
        0x00018378:    490b        .I      LDR      r1,[pc,#44] ; [0x183a8] = 0x1000086c
        0x0001837a:    f8d1c000    ....    LDR      r12,[r1,#0]
        0x0001837e:    684a        Jh      LDR      r2,[r1,#4]
        0x00018380:    f85c3b04    \..;    LDR      r3,[r12],#4
        0x00018384:    6810        .h      LDR      r0,[r2,#0]
        0x00018386:    4418        .D      ADD      r0,r0,r3
        0x00018388:    f8420b04    B...    STR      r0,[r2],#4
        0x0001838c:    458c        .E      CMP      r12,r1
        0x0001838e:    bf28        (.      IT       CS
        0x00018390:    f1a10cdc    ....    SUBCS    r12,r1,#0xdc
        0x00018394:    428a        .B      CMP      r2,r1
        0x00018396:    bf28        (.      IT       CS
        0x00018398:    f1a102dc    ....    SUBCS    r2,r1,#0xdc
        0x0001839c:    f8c1c000    ....    STR      r12,[r1,#0]
        0x000183a0:    604a        J`      STR      r2,[r1,#4]
        0x000183a2:    f0204000     ..@    BIC      r0,r0,#0x80000000
        0x000183a6:    4770        pG      BX       lr
    $d
        0x000183a8:    1000086c    l...    DCD    268437612
    $t
    .text
    $v0
    __user_initial_stackheap
        0x000183ac:    4802        .H      LDR      r0,[pc,#8] ; [0x183b8] = 0x100008d8
        0x000183ae:    4903        .I      LDR      r1,[pc,#12] ; [0x183bc] = 0x100018d8
        0x000183b0:    4a01        .J      LDR      r2,[pc,#4] ; [0x183b8] = 0x100008d8
        0x000183b2:    4b03        .K      LDR      r3,[pc,#12] ; [0x183c0] = 0x100008d8
        0x000183b4:    4770        pG      BX       lr
    $d
        0x000183b6:    0000        ..      DCW    0
        0x000183b8:    100008d8    ....    DCD    268437720
        0x000183bc:    100018d8    ....    DCD    268441816
        0x000183c0:    100008d8    ....    DCD    268437720
    $t
    .text
    __aeabi_uldivmod
    _ll_udiv
        0x000183c4:    ea530c02    S...    ORRS     r12,r3,r2
        0x000183c8:    f0008069    ..i.    BEQ.W    0x1849e ; __aeabi_uldivmod + 218
        0x000183cc:    e92d4bf0    -..K    PUSH     {r4-r9,r11,lr}
        0x000183d0:    f04f0600    O...    MOV      r6,#0
        0x000183d4:    2b00        .+      CMP      r3,#0
        0x000183d6:    bf1f        ..      ITTTT    NE
        0x000183d8:    fab3f583    ....    CLZNE    r5,r3
        0x000183dc:    fa03f405    ....    LSLNE    r4,r3,r5
        0x000183e0:    fa24f605    $...    LSRNE    r6,r4,r5
        0x000183e4:    405e        ^@      EORNE    r6,r6,r3
        0x000183e6:    bf12        ..      ITEE     NE
        0x000183e8:    4316        .C      ORRNE    r6,r6,r2
        0x000183ea:    fab2f582    ....    CLZEQ    r5,r2
        0x000183ee:    fa02f405    ....    LSLEQ    r4,r2,r5
        0x000183f2:    f1c50520    .. .    RSB      r5,r5,#0x20
        0x000183f6:    bf1e        ..      ITTT     NE
        0x000183f8:    fa22fc05    "...    LSRNE    r12,r2,r5
        0x000183fc:    ea44040c    D...    ORRNE    r4,r4,r12
        0x00018400:    3520         5      ADDNE    r5,r5,#0x20
        0x00018402:    ea564c04    V..L    ORRS     r12,r6,r4,LSL #16
        0x00018406:    ea4f4414    O..D    LSR      r4,r4,#16
        0x0001840a:    bf18        ..      IT       NE
        0x0001840c:    1c64        d.      ADDNE    r4,r4,#1
        0x0001840e:    f04f0800    O...    MOV      r8,#0
        0x00018412:    f04f0900    O...    MOV      r9,#0
        0x00018416:    4290        .B      CMP      r0,r2
        0x00018418:    eb710c03    q...    SBCS     r12,r1,r3
        0x0001841c:    d339        9.      BCC      0x18492 ; __aeabi_uldivmod + 206
        0x0001841e:    2900        .)      CMP      r1,#0
        0x00018420:    bf19        ..      ITTEE    NE
        0x00018422:    fab1f781    ....    CLZNE    r7,r1
        0x00018426:    fa01f607    ....    LSLNE    r6,r1,r7
        0x0001842a:    fab0f780    ....    CLZEQ    r7,r0
        0x0001842e:    fa00f607    ....    LSLEQ    r6,r0,r7
        0x00018432:    f1c70720    .. .    RSB      r7,r7,#0x20
        0x00018436:    bf1e        ..      ITTT     NE
        0x00018438:    fa20fc07     ...    LSRNE    r12,r0,r7
        0x0001843c:    ea46060c    F...    ORRNE    r6,r6,r12
        0x00018440:    3720         7      ADDNE    r7,r7,#0x20
        0x00018442:    fbb6fcf4    ....    UDIV     r12,r6,r4
        0x00018446:    eba70705    ....    SUB      r7,r7,r5
        0x0001844a:    3f10        .?      SUBS     r7,r7,#0x10
        0x0001844c:    f0070b1f    ....    AND      r11,r7,#0x1f
        0x00018450:    f1cb0620    .. .    RSB      r6,r11,#0x20
        0x00018454:    fa0cfb0b    ....    LSL      r11,r12,r11
        0x00018458:    fa2cf606    ,...    LSR      r6,r12,r6
        0x0001845c:    bf44        D.      ITT      MI
        0x0001845e:    46b3        .F      MOVMI    r11,r6
        0x00018460:    2600        .&      MOVMI    r6,#0
        0x00018462:    2f20         /      CMP      r7,#0x20
        0x00018464:    bfa4        ..      ITT      GE
        0x00018466:    465e        ^F      MOVGE    r6,r11
        0x00018468:    f04f0b00    O...    MOVGE    r11,#0
        0x0001846c:    ea5b0c06    [...    ORRS     r12,r11,r6
        0x00018470:    bf08        ..      IT       EQ
        0x00018472:    f04f0b01    O...    MOVEQ    r11,#1
        0x00018476:    eb19090b    ....    ADDS     r9,r9,r11
        0x0001847a:    fbab7c02    ...|    UMULL    r7,r12,r11,r2
        0x0001847e:    eb480806    H...    ADC      r8,r8,r6
        0x00018482:    1bc0        ..      SUBS     r0,r0,r7
        0x00018484:    fb06cc02    ....    MLA      r12,r6,r2,r12
        0x00018488:    fb0bcc03    ....    MLA      r12,r11,r3,r12
        0x0001848c:    eb71010c    q...    SBCS     r1,r1,r12
        0x00018490:    e7c1        ..      B        0x18416 ; __aeabi_uldivmod + 82
        0x00018492:    460b        .F      MOV      r3,r1
        0x00018494:    4602        .F      MOV      r2,r0
        0x00018496:    4641        AF      MOV      r1,r8
        0x00018498:    4648        HF      MOV      r0,r9
        0x0001849a:    e8bd8bf0    ....    POP      {r4-r9,r11,pc}
        0x0001849e:    b513        ..      PUSH     {r0,r1,r4,lr}
        0x000184a0:    f04f0000    O...    MOV      r0,#0
        0x000184a4:    f04f0100    O...    MOV      r1,#0
        0x000184a8:    f3af8000    ....    NOP.W    
        0x000184ac:    e8bd401c    ...@    POP      {r2-r4,lr}
        0x000184b0:    4770        pG      BX       lr
    .text
    __aeabi_llsl
    _ll_shift_l
        0x000184b2:    f1b20320    .. .    SUBS     r3,r2,#0x20
        0x000184b6:    d50a        ..      BPL      0x184ce ; __aeabi_llsl + 28
        0x000184b8:    f1c20320    .. .    RSB      r3,r2,#0x20
        0x000184bc:    fa01f102    ....    LSL      r1,r1,r2
        0x000184c0:    fa20f303     ...    LSR      r3,r0,r3
        0x000184c4:    fa00f002    ....    LSL      r0,r0,r2
        0x000184c8:    ea410103    A...    ORR      r1,r1,r3
        0x000184cc:    4770        pG      BX       lr
        0x000184ce:    fa00f103    ....    LSL      r1,r0,r3
        0x000184d2:    f04f0000    O...    MOV      r0,#0
        0x000184d6:    4770        pG      BX       lr
    .text
    __aeabi_llsr
    _ll_ushift_r
        0x000184d8:    f1b20320    .. .    SUBS     r3,r2,#0x20
        0x000184dc:    d50a        ..      BPL      0x184f4 ; __aeabi_llsr + 28
        0x000184de:    f1c20320    .. .    RSB      r3,r2,#0x20
        0x000184e2:    fa20f002     ...    LSR      r0,r0,r2
        0x000184e6:    fa01f303    ....    LSL      r3,r1,r3
        0x000184ea:    fa21f102    !...    LSR      r1,r1,r2
        0x000184ee:    ea400003    @...    ORR      r0,r0,r3
        0x000184f2:    4770        pG      BX       lr
        0x000184f4:    fa21f003    !...    LSR      r0,r1,r3
        0x000184f8:    f04f0100    O...    MOV      r1,#0
        0x000184fc:    4770        pG      BX       lr
        0x000184fe:    0000        ..      MOVS     r0,r0
    .text
    srand
        0x00018500:    490b        .I      LDR      r1,[pc,#44] ; [0x18530] = 0x1000080c
        0x00018502:    b510        ..      PUSH     {r4,lr}
        0x00018504:    f1a1027c    ..|.    SUB      r2,r1,#0x7c
        0x00018508:    4c0a        .L      LDR      r4,[pc,#40] ; [0x18534] = 0x66d619e1
        0x0001850a:    e9c21237    ..7.    STRD     r1,r2,[r2,#0xdc]
        0x0001850e:    2137        7!      MOVS     r1,#0x37
        0x00018510:    e006        ..      B        0x18520 ; srand + 32
        0x00018512:    eb004310    ...C    ADD      r3,r0,r0,LSR #16
        0x00018516:    f8423021    B.!0    STR      r3,[r2,r1,LSL #2]
        0x0001851a:    4b07        .K      LDR      r3,[pc,#28] ; [0x18538] = 0x10dcd
        0x0001851c:    fb004003    ...@    MLA      r0,r0,r3,r4
        0x00018520:    1e0b        ..      SUBS     r3,r1,#0
        0x00018522:    f1a10101    ....    SUB      r1,r1,#1
        0x00018526:    dcf4        ..      BGT      0x18512 ; srand + 18
        0x00018528:    bd10        ..      POP      {r4,pc}
    _rand_init
        0x0001852a:    2001        .       MOVS     r0,#1
        0x0001852c:    e7e8        ..      B        srand ; 0x18500
    $d
        0x0001852e:    0000        ..      DCW    0
        0x00018530:    1000080c    ....    DCD    268437516
        0x00018534:    66d619e1    ...f    DCD    1725307361
        0x00018538:    00010dcd    ....    DCD    69069
    $t
    .text
    __use_two_region_memory
        0x0001853c:    4770        pG      BX       lr
    __rt_heap_escrow$2region
        0x0001853e:    4770        pG      BX       lr
    __rt_heap_expand$2region
        0x00018540:    4770        pG      BX       lr
    .text
    __user_setup_stackheap
        0x00018542:    4675        uF      MOV      r5,lr
        0x00018544:    f000f82c    ..,.    BL       __user_libspace ; 0x185a0
        0x00018548:    46ae        .F      MOV      lr,r5
        0x0001854a:    0005        ..      MOVS     r5,r0
        0x0001854c:    4669        iF      MOV      r1,sp
        0x0001854e:    4653        SF      MOV      r3,r10
        0x00018550:    f0200007     ...    BIC      r0,r0,#7
        0x00018554:    4685        .F      MOV      sp,r0
        0x00018556:    b018        ..      ADD      sp,sp,#0x60
        0x00018558:    b520         .      PUSH     {r5,lr}
        0x0001855a:    f7ffff27    ..'.    BL       __user_initial_stackheap ; 0x183ac
        0x0001855e:    e8bd4020    .. @    POP      {r5,lr}
        0x00018562:    f04f0600    O...    MOV      r6,#0
        0x00018566:    f04f0700    O...    MOV      r7,#0
        0x0001856a:    f04f0800    O...    MOV      r8,#0
        0x0001856e:    f04f0b00    O...    MOV      r11,#0
        0x00018572:    f0210107    !...    BIC      r1,r1,#7
        0x00018576:    46ac        .F      MOV      r12,r5
        0x00018578:    e8ac09c0    ....    STM      r12!,{r6-r8,r11}
        0x0001857c:    e8ac09c0    ....    STM      r12!,{r6-r8,r11}
        0x00018580:    e8ac09c0    ....    STM      r12!,{r6-r8,r11}
        0x00018584:    e8ac09c0    ....    STM      r12!,{r6-r8,r11}
        0x00018588:    468d        .F      MOV      sp,r1
        0x0001858a:    4770        pG      BX       lr
    .text
    exit
        0x0001858c:    b510        ..      PUSH     {r4,lr}
        0x0001858e:    4604        .F      MOV      r4,r0
        0x00018590:    f3af8000    ....    NOP.W    
        0x00018594:    4620         F      MOV      r0,r4
        0x00018596:    e8bd4010    ...@    POP      {r4,lr}
        0x0001859a:    f7ffbec4    ....    B.W      __rt_exit ; 0x18326
        0x0001859e:    0000        ..      MOVS     r0,r0
    .text
    __user_libspace
    __user_perproc_libspace
    __user_perthread_libspace
        0x000185a0:    4800        .H      LDR      r0,[pc,#0] ; [0x185a4] = 0x10000874
        0x000185a2:    4770        pG      BX       lr
    $d
        0x000185a4:    10000874    t...    DCD    268437620
    $t
    .text
    _sys_exit
        0x000185a8:    4901        .I      LDR      r1,[pc,#4] ; [0x185b0] = 0x20026
        0x000185aa:    2018        .       MOVS     r0,#0x18
        0x000185ac:    beab        ..      BKPT     #0xab
        0x000185ae:    e7fe        ..      B        0x185ae ; _sys_exit + 6
    $d
        0x000185b0:    00020026    &...    DCD    131110
    $t
    .text
    __I$use$semihosting
    __use_no_semihosting_swi
        0x000185b4:    4770        pG      BX       lr
    i.__ARM_common_memcpy4_5
    .text
    __ARM_common_memcpy4_5
    __semihosting_library_function
        0x000185b6:    680a        .h      LDR      r2,[r1,#0]
        0x000185b8:    6002        .`      STR      r2,[r0,#0]
        0x000185ba:    790b        .y      LDRB     r3,[r1,#4]
        0x000185bc:    7103        .q      STRB     r3,[r0,#4]
        0x000185be:    4770        pG      BX       lr
    i.am_bsp_i2s_pins_disable
    am_bsp_i2s_pins_disable
        0x000185c0:    2800        .(      CMP      r0,#0
        0x000185c2:    bf18        ..      IT       NE
        0x000185c4:    4770        pG      BXNE     lr
        0x000185c6:    b538        8.      PUSH     {r3-r5,lr}
        0x000185c8:    4c13        .L      LDR      r4,[pc,#76] ; [0x18618] = 0x1b2f8
        0x000185ca:    2900        .)      CMP      r1,#0
        0x000185cc:    6821        !h      LDR      r1,[r4,#0]
        0x000185ce:    9100        ..      STR      r1,[sp,#0]
        0x000185d0:    f04f000c    O...    MOV      r0,#0xc
        0x000185d4:    d00d        ..      BEQ      0x185f2 ; am_bsp_i2s_pins_disable + 50
        0x000185d6:    f000fbd3    ....    BL       am_hal_gpio_pinconfig ; 0x18d80
        0x000185da:    6821        !h      LDR      r1,[r4,#0]
        0x000185dc:    9100        ..      STR      r1,[sp,#0]
        0x000185de:    202f        /       MOVS     r0,#0x2f
        0x000185e0:    f000fbce    ....    BL       am_hal_gpio_pinconfig ; 0x18d80
        0x000185e4:    6821        !h      LDR      r1,[r4,#0]
        0x000185e6:    9100        ..      STR      r1,[sp,#0]
        0x000185e8:    e8bd4038    ..8@    POP      {r3-r5,lr}
        0x000185ec:    2031        1       MOVS     r0,#0x31
        0x000185ee:    f000bbc7    ....    B.W      am_hal_gpio_pinconfig ; 0x18d80
        0x000185f2:    f000fbc5    ....    BL       am_hal_gpio_pinconfig ; 0x18d80
        0x000185f6:    6821        !h      LDR      r1,[r4,#0]
        0x000185f8:    9100        ..      STR      r1,[sp,#0]
        0x000185fa:    202f        /       MOVS     r0,#0x2f
        0x000185fc:    f000fbc0    ....    BL       am_hal_gpio_pinconfig ; 0x18d80
        0x00018600:    6821        !h      LDR      r1,[r4,#0]
        0x00018602:    9100        ..      STR      r1,[sp,#0]
        0x00018604:    2031        1       MOVS     r0,#0x31
        0x00018606:    f000fbbb    ....    BL       am_hal_gpio_pinconfig ; 0x18d80
        0x0001860a:    6821        !h      LDR      r1,[r4,#0]
        0x0001860c:    9100        ..      STR      r1,[sp,#0]
        0x0001860e:    e8bd4038    ..8@    POP      {r3-r5,lr}
        0x00018612:    200e        .       MOVS     r0,#0xe
        0x00018614:    f000bbb4    ....    B.W      am_hal_gpio_pinconfig ; 0x18d80
    $d
        0x00018618:    0001b2f8    ....    DCD    111352
    $t
    i.am_bsp_i2s_pins_enable
    am_bsp_i2s_pins_enable
        0x0001861c:    2800        .(      CMP      r0,#0
        0x0001861e:    bf18        ..      IT       NE
        0x00018620:    4770        pG      BXNE     lr
        0x00018622:    b538        8.      PUSH     {r3-r5,lr}
        0x00018624:    4c16        .L      LDR      r4,[pc,#88] ; [0x18680] = 0x100000bc
        0x00018626:    4d17        .M      LDR      r5,[pc,#92] ; [0x18684] = 0x100000c0
        0x00018628:    b189        ..      CBZ      r1,0x1864e ; am_bsp_i2s_pins_enable + 50
        0x0001862a:    4817        .H      LDR      r0,[pc,#92] ; [0x18688] = 0x100000b4
        0x0001862c:    6801        .h      LDR      r1,[r0,#0]
        0x0001862e:    9100        ..      STR      r1,[sp,#0]
        0x00018630:    200c        .       MOVS     r0,#0xc
        0x00018632:    f000fba5    ....    BL       am_hal_gpio_pinconfig ; 0x18d80
        0x00018636:    6821        !h      LDR      r1,[r4,#0]
        0x00018638:    9100        ..      STR      r1,[sp,#0]
        0x0001863a:    202f        /       MOVS     r0,#0x2f
        0x0001863c:    f000fba0    ....    BL       am_hal_gpio_pinconfig ; 0x18d80
        0x00018640:    6829        )h      LDR      r1,[r5,#0]
        0x00018642:    9100        ..      STR      r1,[sp,#0]
        0x00018644:    e8bd4038    ..8@    POP      {r3-r5,lr}
        0x00018648:    2031        1       MOVS     r0,#0x31
        0x0001864a:    f000bb99    ....    B.W      am_hal_gpio_pinconfig ; 0x18d80
        0x0001864e:    480f        .H      LDR      r0,[pc,#60] ; [0x1868c] = 0x100000b8
        0x00018650:    6801        .h      LDR      r1,[r0,#0]
        0x00018652:    9100        ..      STR      r1,[sp,#0]
        0x00018654:    200c        .       MOVS     r0,#0xc
        0x00018656:    f000fb93    ....    BL       am_hal_gpio_pinconfig ; 0x18d80
        0x0001865a:    6821        !h      LDR      r1,[r4,#0]
        0x0001865c:    9100        ..      STR      r1,[sp,#0]
        0x0001865e:    202f        /       MOVS     r0,#0x2f
        0x00018660:    f000fb8e    ....    BL       am_hal_gpio_pinconfig ; 0x18d80
        0x00018664:    6829        )h      LDR      r1,[r5,#0]
        0x00018666:    9100        ..      STR      r1,[sp,#0]
        0x00018668:    2031        1       MOVS     r0,#0x31
        0x0001866a:    f000fb89    ....    BL       am_hal_gpio_pinconfig ; 0x18d80
        0x0001866e:    4808        .H      LDR      r0,[pc,#32] ; [0x18690] = 0x100000c4
        0x00018670:    6801        .h      LDR      r1,[r0,#0]
        0x00018672:    9100        ..      STR      r1,[sp,#0]
        0x00018674:    e8bd4038    ..8@    POP      {r3-r5,lr}
        0x00018678:    200e        .       MOVS     r0,#0xe
        0x0001867a:    f000bb81    ....    B.W      am_hal_gpio_pinconfig ; 0x18d80
    $d
        0x0001867e:    0000        ..      DCW    0
        0x00018680:    100000bc    ....    DCD    268435644
        0x00018684:    100000c0    ....    DCD    268435648
        0x00018688:    100000b4    ....    DCD    268435636
        0x0001868c:    100000b8    ....    DCD    268435640
        0x00018690:    100000c4    ....    DCD    268435652
    $t
    i.am_bsp_itm_printf_enable
    am_bsp_itm_printf_enable
        0x00018694:    b570        p.      PUSH     {r4-r6,lr}
        0x00018696:    4e1e        .N      LDR      r6,[pc,#120] ; [0x18710] = 0x40021000
        0x00018698:    2400        .$      MOVS     r4,#0
        0x0001869a:    b082        ..      SUB      sp,sp,#8
        0x0001869c:    68b0        .h      LDR      r0,[r6,#8]
        0x0001869e:    4625        %F      MOV      r5,r4
        0x000186a0:    f4101f80    ....    TST      r0,#0x100000
        0x000186a4:    d103        ..      BNE      0x186ae ; am_bsp_itm_printf_enable + 26
        0x000186a6:    2501        .%      MOVS     r5,#1
        0x000186a8:    2012        .       MOVS     r0,#0x12
        0x000186aa:    f001f9ab    ....    BL       am_hal_pwrctrl_periph_enable ; 0x19a04
        0x000186ae:    68b0        .h      LDR      r0,[r6,#8]
        0x000186b0:    f4101f80    ....    TST      r0,#0x100000
        0x000186b4:    d010        ..      BEQ      0x186d8 ; am_bsp_itm_printf_enable + 68
        0x000186b6:    4817        .H      LDR      r0,[pc,#92] ; [0x18714] = 0x400c0a7c
        0x000186b8:    6800        .h      LDR      r0,[r0,#0]
        0x000186ba:    f0100f01    ....    TST      r0,#1
        0x000186be:    d00b        ..      BEQ      0x186d8 ; am_bsp_itm_printf_enable + 68
        0x000186c0:    4668        hF      MOV      r0,sp
        0x000186c2:    f000fa0f    ....    BL       am_hal_dcu_get ; 0x18ae4
        0x000186c6:    9800        ..      LDR      r0,[sp,#0]
        0x000186c8:    f0100f10    ....    TST      r0,#0x10
        0x000186cc:    d107        ..      BNE      0x186de ; am_bsp_itm_printf_enable + 74
        0x000186ce:    2110        .!      MOVS     r1,#0x10
        0x000186d0:    2001        .       MOVS     r0,#1
        0x000186d2:    f000fa4f    ..O.    BL       am_hal_dcu_update ; 0x18b74
        0x000186d6:    b110        ..      CBZ      r0,0x186de ; am_bsp_itm_printf_enable + 74
        0x000186d8:    f04f34ff    O..4    MOV      r4,#0xffffffff
        0x000186dc:    e010        ..      B        0x18700 ; am_bsp_itm_printf_enable + 108
        0x000186de:    490e        .I      LDR      r1,[pc,#56] ; [0x18718] = 0x100000a0
        0x000186e0:    2001        .       MOVS     r0,#1
        0x000186e2:    7008        .p      STRB     r0,[r1,#0]
        0x000186e4:    f000ff4c    ..L.    BL       am_hal_itm_enable ; 0x19580
        0x000186e8:    480c        .H      LDR      r0,[pc,#48] ; [0x1871c] = 0xf4240
        0x000186ea:    f001f9e5    ....    BL       am_hal_tpiu_enable ; 0x19ab8
        0x000186ee:    480c        .H      LDR      r0,[pc,#48] ; [0x18720] = 0x100000b0
        0x000186f0:    6801        .h      LDR      r1,[r0,#0]
        0x000186f2:    9101        ..      STR      r1,[sp,#4]
        0x000186f4:    2018        .       MOVS     r0,#0x18
        0x000186f6:    f000fb43    ..C.    BL       am_hal_gpio_pinconfig ; 0x18d80
        0x000186fa:    480a        .H      LDR      r0,[pc,#40] ; [0x18724] = 0x195c9
        0x000186fc:    f001fcd8    ....    BL       am_util_stdio_printf_init ; 0x1a0b0
        0x00018700:    2d00        .-      CMP      r5,#0
        0x00018702:    bf1c        ..      ITT      NE
        0x00018704:    2012        .       MOVNE    r0,#0x12
        0x00018706:    f001f8e7    ....    BLNE     am_hal_pwrctrl_periph_disable ; 0x198d8
        0x0001870a:    4620         F      MOV      r0,r4
        0x0001870c:    b002        ..      ADD      sp,sp,#8
        0x0001870e:    bd70        p.      POP      {r4-r6,pc}
    $d
        0x00018710:    40021000    ...@    DCD    1073876992
        0x00018714:    400c0a7c    |..@    DCD    1074530940
        0x00018718:    100000a0    ....    DCD    268435616
        0x0001871c:    000f4240    @B..    DCD    1000000
        0x00018720:    100000b0    ....    DCD    268435632
        0x00018724:    000195c9    ....    DCD    103881
    $t
    i.am_dspi2s0_isr
    am_dspi2s0_isr
        0x00018728:    b538        8.      PUSH     {r3-r5,lr}
        0x0001872a:    4c0e        .L      LDR      r4,[pc,#56] ; [0x18764] = 0x10000000
        0x0001872c:    2201        ."      MOVS     r2,#1
        0x0001872e:    4669        iF      MOV      r1,sp
        0x00018730:    6860        `h      LDR      r0,[r4,#4]
        0x00018732:    f000fe9f    ....    BL       am_hal_i2s_interrupt_status_get ; 0x19474
        0x00018736:    9900        ..      LDR      r1,[sp,#0]
        0x00018738:    6860        `h      LDR      r0,[r4,#4]
        0x0001873a:    f000fda5    ....    BL       am_hal_i2s_interrupt_clear ; 0x19288
        0x0001873e:    f1040268    ..h.    ADD      r2,r4,#0x68
        0x00018742:    9900        ..      LDR      r1,[sp,#0]
        0x00018744:    6860        `h      LDR      r0,[r4,#4]
        0x00018746:    f000fdb5    ....    BL       am_hal_i2s_interrupt_service ; 0x192b4
        0x0001874a:    9800        ..      LDR      r0,[sp,#0]
        0x0001874c:    4906        .I      LDR      r1,[pc,#24] ; [0x18768] = 0x1000011c
        0x0001874e:    f0100f08    ....    TST      r0,#8
        0x00018752:    f04f0201    O...    MOV      r2,#1
        0x00018756:    bf18        ..      IT       NE
        0x00018758:    600a        .`      STRNE    r2,[r1,#0]
        0x0001875a:    f0100f10    ....    TST      r0,#0x10
        0x0001875e:    bf18        ..      IT       NE
        0x00018760:    604a        J`      STRNE    r2,[r1,#4]
        0x00018762:    bd38        8.      POP      {r3-r5,pc}
    $d
        0x00018764:    10000000    ....    DCD    268435456
        0x00018768:    1000011c    ....    DCD    268435740
    $t
    i.am_gpu_power_enable
    am_gpu_power_enable
        0x0001876c:    4770        pG      BX       lr
        0x0001876e:    0000        ..      MOVS     r0,r0
    i.am_hal_clkgen_control
    am_hal_clkgen_control
        0x00018770:    e92d41f0    -..A    PUSH     {r4-r8,lr}
        0x00018774:    281f        .(      CMP      r0,#0x1f
        0x00018776:    d271        q.      BCS      0x1885c ; am_hal_clkgen_control + 236
        0x00018778:    e8dff000    ....    TBB      [pc,r0]
    $d
        0x0001877c:    291e1016    ...)    DCD    689836054
        0x00018780:    56ce5031    1P.V    DCD    1456361521
        0x00018784:    d2d2d265    e...    DCD    3537031781
        0x00018788:    d2d2d2d2    ....    DCD    3537031890
        0x0001878c:    71d2d2d2    ...q    DCD    1909641938
        0x00018790:    8f867f78    x...    DCD    2407956344
        0x00018794:    ada69f98    ....    DCD    2913378200
        0x00018798:    00c6bdb4    ....    DCD    13024692
    $t
        0x0001879c:    f04f2040    O.@     MOV      r0,#0x40004000
        0x000187a0:    68c1        .h      LDR      r1,[r0,#0xc]
        0x000187a2:    f0410180    A...    ORR      r1,r1,#0x80
        0x000187a6:    e004        ..      B        0x187b2 ; am_hal_clkgen_control + 66
        0x000187a8:    f04f2040    O.@     MOV      r0,#0x40004000
        0x000187ac:    68c1        .h      LDR      r1,[r0,#0xc]
        0x000187ae:    f0210180    !...    BIC      r1,r1,#0x80
        0x000187b2:    60c1        .`      STR      r1,[r0,#0xc]
        0x000187b4:    f000b901    ....    B.W      0x189ba ; am_hal_clkgen_control + 586
        0x000187b8:    2900        .)      CMP      r1,#0
        0x000187ba:    bf0c        ..      ITE      EQ
        0x000187bc:    4880        .H      LDREQ    r0,[pc,#512] ; [0x189c0] = 0xa5b801
        0x000187be:    6808        .h      LDRNE    r0,[r1,#0]
        0x000187c0:    f0400001    @...    ORR      r0,r0,#1
        0x000187c4:    f04f2140    O.@!    MOV      r1,#0x40004000
        0x000187c8:    6208        .b      STR      r0,[r1,#0x20]
        0x000187ca:    f000b8f6    ....    B.W      0x189ba ; am_hal_clkgen_control + 586
        0x000187ce:    f04f2040    O.@     MOV      r0,#0x40004000
        0x000187d2:    6a01        .j      LDR      r1,[r0,#0x20]
        0x000187d4:    f0210101    !...    BIC      r1,r1,#1
        0x000187d8:    6201        .b      STR      r1,[r0,#0x20]
        0x000187da:    f000b8ee    ....    B.W      0x189ba ; am_hal_clkgen_control + 586
        0x000187de:    f04f2040    O.@     MOV      r0,#0x40004000
        0x000187e2:    6c82        .l      LDR      r2,[r0,#0x48]
        0x000187e4:    f0220201    "...    BIC      r2,r2,#1
        0x000187e8:    6482        .d      STR      r2,[r0,#0x48]
        0x000187ea:    6cc2        .l      LDR      r2,[r0,#0x4c]
        0x000187ec:    f0420207    B...    ORR      r2,r2,#7
        0x000187f0:    64c2        .d      STR      r2,[r0,#0x4c]
        0x000187f2:    6d02        .m      LDR      r2,[r0,#0x50]
        0x000187f4:    f0220203    "...    BIC      r2,r2,#3
        0x000187f8:    1c92        ..      ADDS     r2,r2,#2
        0x000187fa:    6502        .e      STR      r2,[r0,#0x50]
        0x000187fc:    2900        .)      CMP      r1,#0
        0x000187fe:    bf1b        ..      ITTET    NE
        0x00018800:    6809        .h      LDRNE    r1,[r1,#0]
        0x00018802:    2900        .)      CMPNE    r1,#0
        0x00018804:    4a6f        oJ      LDREQ    r2,[pc,#444] ; [0x189c4] = 0x189374
        0x00018806:    f44f1200    O...    MOVNE    r2,#0x200000
        0x0001880a:    6d01        .m      LDR      r1,[r0,#0x50]
        0x0001880c:    f362019e    b...    BFI      r1,r2,#2,#29
        0x00018810:    6501        .e      STR      r1,[r0,#0x50]
        0x00018812:    6c81        .l      LDR      r1,[r0,#0x48]
        0x00018814:    f0410101    A...    ORR      r1,r1,#1
        0x00018818:    6481        .d      STR      r1,[r0,#0x48]
        0x0001881a:    e0ce        ..      B        0x189ba ; am_hal_clkgen_control + 586
        0x0001881c:    f04f2040    O.@     MOV      r0,#0x40004000
        0x00018820:    6c81        .l      LDR      r1,[r0,#0x48]
        0x00018822:    f0210101    !...    BIC      r1,r1,#1
        0x00018826:    e7f7        ..      B        0x18818 ; am_hal_clkgen_control + 168
        0x00018828:    f04f2040    O.@     MOV      r0,#0x40004000
        0x0001882c:    6c41        Al      LDR      r1,[r0,#0x44]
        0x0001882e:    f0110f20    .. .    TST      r1,#0x20
        0x00018832:    d170        p.      BNE      0x18916 ; am_hal_clkgen_control + 422
        0x00018834:    6c41        Al      LDR      r1,[r0,#0x44]
        0x00018836:    f0410120    A. .    ORR      r1,r1,#0x20
        0x0001883a:    6441        Ad      STR      r1,[r0,#0x44]
        0x0001883c:    f04f000a    O...    MOV      r0,#0xa
        0x00018840:    f000fa0a    ....    BL       am_hal_delay_us ; 0x18c58
        0x00018844:    e0b9        ..      B        0x189ba ; am_hal_clkgen_control + 586
        0x00018846:    f04f2040    O.@     MOV      r0,#0x40004000
        0x0001884a:    6c41        Al      LDR      r1,[r0,#0x44]
        0x0001884c:    f0110f20    .. .    TST      r1,#0x20
        0x00018850:    d061        a.      BEQ      0x18916 ; am_hal_clkgen_control + 422
        0x00018852:    6c41        Al      LDR      r1,[r0,#0x44]
        0x00018854:    f0210120    !. .    BIC      r1,r1,#0x20
        0x00018858:    6441        Ad      STR      r1,[r0,#0x44]
        0x0001885a:    e0ae        ..      B        0x189ba ; am_hal_clkgen_control + 586
        0x0001885c:    e060        `.      B        0x18920 ; am_hal_clkgen_control + 432
        0x0001885e:    f04f2040    O.@     MOV      r0,#0x40004000
        0x00018862:    f8501f84    P...    LDR      r1,[r0,#0x84]!
        0x00018866:    f0410180    A...    ORR      r1,r1,#0x80
        0x0001886a:    e053        S.      B        0x18914 ; am_hal_clkgen_control + 420
        0x0001886c:    f04f2040    O.@     MOV      r0,#0x40004000
        0x00018870:    f8501f84    P...    LDR      r1,[r0,#0x84]!
        0x00018874:    f0210180    !...    BIC      r1,r1,#0x80
        0x00018878:    e04c        L.      B        0x18914 ; am_hal_clkgen_control + 420
        0x0001887a:    f04f2040    O.@     MOV      r0,#0x40004000
        0x0001887e:    f8501f84    P...    LDR      r1,[r0,#0x84]!
        0x00018882:    f0210130    !.0.    BIC      r1,r1,#0x30
        0x00018886:    e045        E.      B        0x18914 ; am_hal_clkgen_control + 420
        0x00018888:    f04f2040    O.@     MOV      r0,#0x40004000
        0x0001888c:    f8501f84    P...    LDR      r1,[r0,#0x84]!
        0x00018890:    f0210130    !.0.    BIC      r1,r1,#0x30
        0x00018894:    f1010110    ....    ADD      r1,r1,#0x10
        0x00018898:    e03c        <.      B        0x18914 ; am_hal_clkgen_control + 420
        0x0001889a:    f04f2040    O.@     MOV      r0,#0x40004000
        0x0001889e:    f8501f84    P...    LDR      r1,[r0,#0x84]!
        0x000188a2:    f0210130    !.0.    BIC      r1,r1,#0x30
        0x000188a6:    f1010120    .. .    ADD      r1,r1,#0x20
        0x000188aa:    e033        3.      B        0x18914 ; am_hal_clkgen_control + 420
        0x000188ac:    f04f2040    O.@     MOV      r0,#0x40004000
        0x000188b0:    f8501f84    P...    LDR      r1,[r0,#0x84]!
        0x000188b4:    f0410130    A.0.    ORR      r1,r1,#0x30
        0x000188b8:    e02c        ,.      B        0x18914 ; am_hal_clkgen_control + 420
        0x000188ba:    f04f2040    O.@     MOV      r0,#0x40004000
        0x000188be:    f8501f84    P...    LDR      r1,[r0,#0x84]!
        0x000188c2:    f0410108    A...    ORR      r1,r1,#8
        0x000188c6:    e025        %.      B        0x18914 ; am_hal_clkgen_control + 420
        0x000188c8:    f04f2040    O.@     MOV      r0,#0x40004000
        0x000188cc:    f8501f84    P...    LDR      r1,[r0,#0x84]!
        0x000188d0:    f0210108    !...    BIC      r1,r1,#8
        0x000188d4:    e01e        ..      B        0x18914 ; am_hal_clkgen_control + 420
        0x000188d6:    f04f2040    O.@     MOV      r0,#0x40004000
        0x000188da:    f8501f84    P...    LDR      r1,[r0,#0x84]!
        0x000188de:    f0210103    !...    BIC      r1,r1,#3
        0x000188e2:    e017        ..      B        0x18914 ; am_hal_clkgen_control + 420
        0x000188e4:    f04f2040    O.@     MOV      r0,#0x40004000
        0x000188e8:    f8501f84    P...    LDR      r1,[r0,#0x84]!
        0x000188ec:    f0210103    !...    BIC      r1,r1,#3
        0x000188f0:    f1010101    ....    ADD      r1,r1,#1
        0x000188f4:    e00e        ..      B        0x18914 ; am_hal_clkgen_control + 420
        0x000188f6:    f04f2040    O.@     MOV      r0,#0x40004000
        0x000188fa:    f8501f84    P...    LDR      r1,[r0,#0x84]!
        0x000188fe:    f0210103    !...    BIC      r1,r1,#3
        0x00018902:    f1010102    ....    ADD      r1,r1,#2
        0x00018906:    e005        ..      B        0x18914 ; am_hal_clkgen_control + 420
        0x00018908:    f04f2040    O.@     MOV      r0,#0x40004000
        0x0001890c:    f8501f84    P...    LDR      r1,[r0,#0x84]!
        0x00018910:    f0410103    A...    ORR      r1,r1,#3
        0x00018914:    6001        .`      STR      r1,[r0,#0]
        0x00018916:    e050        P.      B        0x189ba ; am_hal_clkgen_control + 586
        0x00018918:    b111        ..      CBZ      r1,0x18920 ; am_hal_clkgen_control + 432
        0x0001891a:    6808        .h      LDR      r0,[r1,#0]
        0x0001891c:    2801        .(      CMP      r0,#1
        0x0001891e:    d002        ..      BEQ      0x18926 ; am_hal_clkgen_control + 438
        0x00018920:    2006        .       MOVS     r0,#6
        0x00018922:    e8bd81f0    ....    POP      {r4-r8,pc}
        0x00018926:    f04f2440    O.@$    MOV      r4,#0x40004000
        0x0001892a:    6a20         j      LDR      r0,[r4,#0x20]
        0x0001892c:    f0200001     ...    BIC      r0,r0,#1
        0x00018930:    6220         b      STR      r0,[r4,#0x20]
        0x00018932:    6ce0        .l      LDR      r0,[r4,#0x4c]
        0x00018934:    f0400007    @...    ORR      r0,r0,#7
        0x00018938:    64e0        .d      STR      r0,[r4,#0x4c]
        0x0001893a:    684a        Jh      LDR      r2,[r1,#4]
        0x0001893c:    4b22        "K      LDR      r3,[pc,#136] ; [0x189c8] = 0xb71b00
        0x0001893e:    1e50        P.      SUBS     r0,r2,#1
        0x00018940:    fbb0f0f3    ....    UDIV     r0,r0,r3
        0x00018944:    2804        .(      CMP      r0,#4
        0x00018946:    bf3c        <.      ITT      CC
        0x00018948:    2004        .       MOVCC    r0,#4
        0x0001894a:    2302        .#      MOVCC    r3,#2
        0x0001894c:    d304        ..      BCC      0x18958 ; am_hal_clkgen_control + 488
        0x0001894e:    2808        .(      CMP      r0,#8
        0x00018950:    bf3c        <.      ITT      CC
        0x00018952:    2008        .       MOVCC    r0,#8
        0x00018954:    2303        .#      MOVCC    r3,#3
        0x00018956:    d225        %.      BCS      0x189a4 ; am_hal_clkgen_control + 564
        0x00018958:    f8d4c050    ..P.    LDR      r12,[r4,#0x50]
        0x0001895c:    f3630c01    c...    BFI      r12,r3,#0,#2
        0x00018960:    f8c4c050    ..P.    STR      r12,[r4,#0x50]
        0x00018964:    688d        .h      LDR      r5,[r1,#8]
        0x00018966:    f44f2300    O..#    MOV      r3,#0x80000
        0x0001896a:    fba56703    ...g    UMULL    r6,r7,r5,r3
        0x0001896e:    f04f0c00    O...    MOV      r12,#0
        0x00018972:    fb0c7303    ...s    MLA      r3,r12,r3,r7
        0x00018976:    fb05330c    ...3    MLA      r3,r5,r12,r3
        0x0001897a:    4661        aF      MOV      r1,r12
        0x0001897c:    fba6c500    ....    UMULL    r12,r5,r6,r0
        0x00018980:    fb035000    ...P    MLA      r0,r3,r0,r5
        0x00018984:    fb060301    ....    MLA      r3,r6,r1,r0
        0x00018988:    0850        P.      LSRS     r0,r2,#1
        0x0001898a:    eb10000c    ....    ADDS     r0,r0,r12
        0x0001898e:    4159        YA      ADCS     r1,r1,r3
        0x00018990:    2300        .#      MOVS     r3,#0
        0x00018992:    f7fffd17    ....    BL       __aeabi_uldivmod ; 0x183c4
        0x00018996:    f06f4260    o.`B    MVN      r2,#0xe0000000
        0x0001899a:    2300        .#      MOVS     r3,#0
        0x0001899c:    1a12        ..      SUBS     r2,r2,r0
        0x0001899e:    eb730101    s...    SBCS     r1,r3,r1
        0x000189a2:    d202        ..      BCS      0x189aa ; am_hal_clkgen_control + 570
        0x000189a4:    2005        .       MOVS     r0,#5
        0x000189a6:    e8bd81f0    ....    POP      {r4-r8,pc}
        0x000189aa:    6d21        !m      LDR      r1,[r4,#0x50]
        0x000189ac:    f360019e    `...    BFI      r1,r0,#2,#29
        0x000189b0:    6521        !e      STR      r1,[r4,#0x50]
        0x000189b2:    6ca0        .l      LDR      r0,[r4,#0x48]
        0x000189b4:    f0400001    @...    ORR      r0,r0,#1
        0x000189b8:    64a0        .d      STR      r0,[r4,#0x48]
        0x000189ba:    2000        .       MOVS     r0,#0
        0x000189bc:    e8bd81f0    ....    POP      {r4-r8,pc}
    $d
        0x000189c0:    00a5b801    ....    DCD    10860545
        0x000189c4:    00189374    t...    DCD    1610612
        0x000189c8:    00b71b00    ....    DCD    12000000
    $t
    i.am_hal_daxi_config
    am_hal_daxi_config
        0x000189cc:    b570        p.      PUSH     {r4-r6,lr}
        0x000189ce:    b082        ..      SUB      sp,sp,#8
        0x000189d0:    4605        .F      MOV      r5,r0
        0x000189d2:    f7fffcc9    ....    BL       am_hal_interrupt_master_disable ; 0x18368
        0x000189d6:    9000        ..      STR      r0,[sp,#0]
        0x000189d8:    f7fffcc6    ....    BL       am_hal_interrupt_master_disable ; 0x18368
        0x000189dc:    f04f4490    O..D    MOV      r4,#0x48000000
        0x000189e0:    9001        ..      STR      r0,[sp,#4]
        0x000189e2:    6d20         m      LDR      r0,[r4,#0x50]
        0x000189e4:    4e1d        .N      LDR      r6,[pc,#116] ; [0x18a5c] = 0x47ff0000
        0x000189e6:    f0100f04    ....    TST      r0,#4
        0x000189ea:    d10b        ..      BNE      0x18a04 ; am_hal_daxi_config + 56
        0x000189ec:    f3bf8f4f    ..O.    DSB      
        0x000189f0:    6d60        `m      LDR      r0,[r4,#0x54]
        0x000189f2:    f0400001    @...    ORR      r0,r0,#1
        0x000189f6:    6560        `e      STR      r0,[r4,#0x54]
        0x000189f8:    6830        0h      LDR      r0,[r6,#0]
        0x000189fa:    6d60        `m      LDR      r0,[r4,#0x54]
        0x000189fc:    f0400002    @...    ORR      r0,r0,#2
        0x00018a00:    6560        `e      STR      r0,[r4,#0x54]
        0x00018a02:    6830        0h      LDR      r0,[r6,#0]
        0x00018a04:    6d60        `m      LDR      r0,[r4,#0x54]
        0x00018a06:    f0100f04    ....    TST      r0,#4
        0x00018a0a:    d0fb        ..      BEQ      0x18a04 ; am_hal_daxi_config + 56
        0x00018a0c:    9801        ..      LDR      r0,[sp,#4]
        0x00018a0e:    f7fffcaf    ....    BL       am_hal_interrupt_master_set ; 0x18370
        0x00018a12:    2d00        .-      CMP      r5,#0
        0x00018a14:    bf04        ..      ITT      EQ
        0x00018a16:    2006        .       MOVEQ    r0,#6
        0x00018a18:    6520         e      STREQ    r0,[r4,#0x50]
        0x00018a1a:    d018        ..      BEQ      0x18a4e ; am_hal_daxi_config + 130
        0x00018a1c:    7928        (y      LDRB     r0,[r5,#4]
        0x00018a1e:    7869        ix      LDRB     r1,[r5,#1]
        0x00018a20:    2202        ."      MOVS     r2,#2
        0x00018a22:    f0000001    ....    AND      r0,r0,#1
        0x00018a26:    ea020141    ..A.    AND      r1,r2,r1,LSL #1
        0x00018a2a:    4308        .C      ORRS     r0,r0,r1
        0x00018a2c:    78e9        .x      LDRB     r1,[r5,#3]
        0x00018a2e:    f44f6270    O.pb    MOV      r2,#0xf00
        0x00018a32:    ea022101    ...!    AND      r1,r2,r1,LSL #8
        0x00018a36:    4308        .C      ORRS     r0,r0,r1
        0x00018a38:    78a9        .x      LDRB     r1,[r5,#2]
        0x00018a3a:    f44f12f8    O...    MOV      r2,#0x1f0000
        0x00018a3e:    ea024101    ...A    AND      r1,r2,r1,LSL #16
        0x00018a42:    4308        .C      ORRS     r0,r0,r1
        0x00018a44:    6520         e      STR      r0,[r4,#0x50]
        0x00018a46:    4629        )F      MOV      r1,r5
        0x00018a48:    4805        .H      LDR      r0,[pc,#20] ; [0x18a60] = 0x100000c8
        0x00018a4a:    f7fffdb4    ....    BL       __ARM_common_memcpy4_5 ; 0x185b6
        0x00018a4e:    6830        0h      LDR      r0,[r6,#0]
        0x00018a50:    9800        ..      LDR      r0,[sp,#0]
        0x00018a52:    f7fffc8d    ....    BL       am_hal_interrupt_master_set ; 0x18370
        0x00018a56:    b002        ..      ADD      sp,sp,#8
        0x00018a58:    2000        .       MOVS     r0,#0
        0x00018a5a:    bd70        p.      POP      {r4-r6,pc}
    $d
        0x00018a5c:    47ff0000    ...G    DCD    1207894016
        0x00018a60:    100000c8    ....    DCD    268435656
    $t
    i.am_hal_daxi_control
    am_hal_daxi_control
        0x00018a64:    b538        8.      PUSH     {r3-r5,lr}
        0x00018a66:    4d1d        .M      LDR      r5,[pc,#116] ; [0x18adc] = 0x47ff0000
        0x00018a68:    f04f4490    O..D    MOV      r4,#0x48000000
        0x00018a6c:    b348        H.      CBZ      r0,0x18ac2 ; am_hal_daxi_control + 94
        0x00018a6e:    2801        .(      CMP      r0,#1
        0x00018a70:    d00c        ..      BEQ      0x18a8c ; am_hal_daxi_control + 40
        0x00018a72:    2802        .(      CMP      r0,#2
        0x00018a74:    bf08        ..      IT       EQ
        0x00018a76:    2000        .       MOVEQ    r0,#0
        0x00018a78:    d004        ..      BEQ      0x18a84 ; am_hal_daxi_control + 32
        0x00018a7a:    2803        .(      CMP      r0,#3
        0x00018a7c:    bf16        ..      ITET     NE
        0x00018a7e:    2006        .       MOVNE    r0,#6
        0x00018a80:    4817        .H      LDREQ    r0,[pc,#92] ; [0x18ae0] = 0x100000c8
        0x00018a82:    bd38        8.      POPNE    {r3-r5,pc}
        0x00018a84:    f7ffffa2    ....    BL       am_hal_daxi_config ; 0x189cc
        0x00018a88:    2000        .       MOVS     r0,#0
        0x00018a8a:    bd38        8.      POP      {r3-r5,pc}
        0x00018a8c:    f7fffc6c    ..l.    BL       am_hal_interrupt_master_disable ; 0x18368
        0x00018a90:    9000        ..      STR      r0,[sp,#0]
        0x00018a92:    6d20         m      LDR      r0,[r4,#0x50]
        0x00018a94:    f0100f04    ....    TST      r0,#4
        0x00018a98:    d10b        ..      BNE      0x18ab2 ; am_hal_daxi_control + 78
        0x00018a9a:    f3bf8f4f    ..O.    DSB      
        0x00018a9e:    6d60        `m      LDR      r0,[r4,#0x54]
        0x00018aa0:    f0400001    @...    ORR      r0,r0,#1
        0x00018aa4:    6560        `e      STR      r0,[r4,#0x54]
        0x00018aa6:    6828        (h      LDR      r0,[r5,#0]
        0x00018aa8:    6d60        `m      LDR      r0,[r4,#0x54]
        0x00018aaa:    f0400002    @...    ORR      r0,r0,#2
        0x00018aae:    6560        `e      STR      r0,[r4,#0x54]
        0x00018ab0:    6828        (h      LDR      r0,[r5,#0]
        0x00018ab2:    6d60        `m      LDR      r0,[r4,#0x54]
        0x00018ab4:    f0100f04    ....    TST      r0,#4
        0x00018ab8:    d0fb        ..      BEQ      0x18ab2 ; am_hal_daxi_control + 78
        0x00018aba:    9800        ..      LDR      r0,[sp,#0]
        0x00018abc:    f7fffc58    ..X.    BL       am_hal_interrupt_master_set ; 0x18370
        0x00018ac0:    e7e2        ..      B        0x18a88 ; am_hal_daxi_control + 36
        0x00018ac2:    6d20         m      LDR      r0,[r4,#0x50]
        0x00018ac4:    f0100f04    ....    TST      r0,#4
        0x00018ac8:    d1de        ..      BNE      0x18a88 ; am_hal_daxi_control + 36
        0x00018aca:    f3bf8f4f    ..O.    DSB      
        0x00018ace:    6d60        `m      LDR      r0,[r4,#0x54]
        0x00018ad0:    f0400002    @...    ORR      r0,r0,#2
        0x00018ad4:    6560        `e      STR      r0,[r4,#0x54]
        0x00018ad6:    6828        (h      LDR      r0,[r5,#0]
        0x00018ad8:    e7d6        ..      B        0x18a88 ; am_hal_daxi_control + 36
    $d
        0x00018ada:    0000        ..      DCW    0
        0x00018adc:    47ff0000    ...G    DCD    1207894016
        0x00018ae0:    100000c8    ....    DCD    268435656
    $t
    i.am_hal_dcu_get
    am_hal_dcu_get
        0x00018ae4:    e92d43f0    -..C    PUSH     {r4-r9,lr}
        0x00018ae8:    4680        .F      MOV      r8,r0
        0x00018aea:    481f        .H      LDR      r0,[pc,#124] ; [0x18b68] = 0x40021000
        0x00018aec:    b083        ..      SUB      sp,sp,#0xc
        0x00018aee:    6880        .h      LDR      r0,[r0,#8]
        0x00018af0:    f4101f80    ....    TST      r0,#0x100000
        0x00018af4:    d023        #.      BEQ      0x18b3e ; am_hal_dcu_get + 90
        0x00018af6:    481d        .H      LDR      r0,[pc,#116] ; [0x18b6c] = 0x400c0a7c
        0x00018af8:    6800        .h      LDR      r0,[r0,#0]
        0x00018afa:    f0100f01    ....    TST      r0,#1
        0x00018afe:    d01e        ..      BEQ      0x18b3e ; am_hal_dcu_get + 90
        0x00018b00:    f8df906c    ..l.    LDR      r9,[pc,#108] ; [0x18b70] = 0x100000d0
        0x00018b04:    4668        hF      MOV      r0,sp
        0x00018b06:    2202        ."      MOVS     r2,#2
        0x00018b08:    f8d91004    ....    LDR      r1,[r9,#4]
        0x00018b0c:    f001fe94    ....    BL       copy_words ; 0x1a838
        0x00018b10:    e9dd0100    ....    LDRD     r0,r1,[sp,#0]
        0x00018b14:    2400        .$      MOVS     r4,#0
        0x00018b16:    4627        'F      MOV      r7,r4
        0x00018b18:    2605        .&      MOVS     r6,#5
        0x00018b1a:    4625        %F      MOV      r5,r4
        0x00018b1c:    f8d92000    ...     LDR      r2,[r9,#0]
        0x00018b20:    f7fffcda    ....    BL       __aeabi_llsr ; 0x184d8
        0x00018b24:    2214        ."      MOVS     r2,#0x14
        0x00018b26:    f04f0c01    O...    MOV      r12,#1
        0x00018b2a:    bf00        ..      NOP      
        0x00018b2c:    f0000307    ....    AND      r3,r0,#7
        0x00018b30:    4073        s@      EORS     r3,r3,r6
        0x00018b32:    ea840904    ....    EOR      r9,r4,r4
        0x00018b36:    ea530309    S...    ORRS     r3,r3,r9
        0x00018b3a:    d109        ..      BNE      0x18b50 ; am_hal_dcu_get + 108
        0x00018b3c:    e003        ..      B        0x18b46 ; am_hal_dcu_get + 98
        0x00018b3e:    b003        ..      ADD      sp,sp,#0xc
        0x00018b40:    2007        .       MOVS     r0,#7
        0x00018b42:    e8bd83f0    ....    POP      {r4-r9,pc}
        0x00018b46:    f1c20314    ....    RSB      r3,r2,#0x14
        0x00018b4a:    fa0cf303    ....    LSL      r3,r12,r3
        0x00018b4e:    431d        .C      ORRS     r5,r5,r3
        0x00018b50:    08c0        ..      LSRS     r0,r0,#3
        0x00018b52:    ea407041    @.Ap    ORR      r0,r0,r1,LSL #29
        0x00018b56:    08c9        ..      LSRS     r1,r1,#3
        0x00018b58:    1e52        R.      SUBS     r2,r2,#1
        0x00018b5a:    d1e7        ..      BNE      0x18b2c ; am_hal_dcu_get + 72
        0x00018b5c:    f8c85000    ...P    STR      r5,[r8,#0]
        0x00018b60:    b003        ..      ADD      sp,sp,#0xc
        0x00018b62:    4638        8F      MOV      r0,r7
        0x00018b64:    e8bd83f0    ....    POP      {r4-r9,pc}
    $d
        0x00018b68:    40021000    ...@    DCD    1073876992
        0x00018b6c:    400c0a7c    |..@    DCD    1074530940
        0x00018b70:    100000d0    ....    DCD    268435664
    $t
    i.am_hal_dcu_update
    am_hal_dcu_update
        0x00018b74:    e92d4ff0    -..O    PUSH     {r4-r11,lr}
        0x00018b78:    4681        .F      MOV      r9,r0
        0x00018b7a:    4834        4H      LDR      r0,[pc,#208] ; [0x18c4c] = 0x40021000
        0x00018b7c:    b085        ..      SUB      sp,sp,#0x14
        0x00018b7e:    6880        .h      LDR      r0,[r0,#8]
        0x00018b80:    f4101f80    ....    TST      r0,#0x100000
        0x00018b84:    d02a        *.      BEQ      0x18bdc ; am_hal_dcu_update + 104
        0x00018b86:    f8dfa0c8    ....    LDR      r10,[pc,#200] ; [0x18c50] = 0x400c0a7c
        0x00018b8a:    f8da0000    ....    LDR      r0,[r10,#0]
        0x00018b8e:    f0100f01    ....    TST      r0,#1
        0x00018b92:    d023        #.      BEQ      0x18bdc ; am_hal_dcu_update + 104
        0x00018b94:    f8df80bc    ....    LDR      r8,[pc,#188] ; [0x18c54] = 0x100000d0
        0x00018b98:    2700        .'      MOVS     r7,#0
        0x00018b9a:    084d        M.      LSRS     r5,r1,#1
        0x00018b9c:    f8d8b000    ....    LDR      r11,[r8,#0]
        0x00018ba0:    463e        >F      MOV      r6,r7
        0x00018ba2:    2414        .$      MOVS     r4,#0x14
        0x00018ba4:    f0150f01    ....    TST      r5,#1
        0x00018ba8:    d006        ..      BEQ      0x18bb8 ; am_hal_dcu_update + 68
        0x00018baa:    465a        ZF      MOV      r2,r11
        0x00018bac:    2007        .       MOVS     r0,#7
        0x00018bae:    2100        .!      MOVS     r1,#0
        0x00018bb0:    f7fffc7f    ....    BL       __aeabi_llsl ; 0x184b2
        0x00018bb4:    4307        .C      ORRS     r7,r7,r0
        0x00018bb6:    430e        .C      ORRS     r6,r6,r1
        0x00018bb8:    086d        m.      LSRS     r5,r5,#1
        0x00018bba:    1e64        d.      SUBS     r4,r4,#1
        0x00018bbc:    f10b0b03    ....    ADD      r11,r11,#3
        0x00018bc0:    2c00        .,      CMP      r4,#0
        0x00018bc2:    dcef        ..      BGT      0x18ba4 ; am_hal_dcu_update + 48
        0x00018bc4:    2202        ."      MOVS     r2,#2
        0x00018bc6:    a802        ..      ADD      r0,sp,#8
        0x00018bc8:    f8d81008    ....    LDR      r1,[r8,#8]
        0x00018bcc:    f001fe34    ..4.    BL       copy_words ; 0x1a838
        0x00018bd0:    e9dd1002    ....    LDRD     r1,r0,[sp,#8]
        0x00018bd4:    4039        9@      ANDS     r1,r1,r7
        0x00018bd6:    4030        0@      ANDS     r0,r0,r6
        0x00018bd8:    4308        .C      ORRS     r0,r0,r1
        0x00018bda:    d003        ..      BEQ      0x18be4 ; am_hal_dcu_update + 112
        0x00018bdc:    b005        ..      ADD      sp,sp,#0x14
        0x00018bde:    2007        .       MOVS     r0,#7
        0x00018be0:    e8bd8ff0    ....    POP      {r4-r11,pc}
        0x00018be4:    2202        ."      MOVS     r2,#2
        0x00018be6:    4668        hF      MOV      r0,sp
        0x00018be8:    f8d81004    ....    LDR      r1,[r8,#4]
        0x00018bec:    f001fe24    ..$.    BL       copy_words ; 0x1a838
        0x00018bf0:    f1b90f00    ....    CMP      r9,#0
        0x00018bf4:    d00d        ..      BEQ      0x18c12 ; am_hal_dcu_update + 158
        0x00018bf6:    e9dd1000    ....    LDRD     r1,r0,[sp,#0]
        0x00018bfa:    ea210207    !...    BIC      r2,r1,r7
        0x00018bfe:    e9d83104    ...1    LDRD     r3,r1,[r8,#0x10]
        0x00018c02:    403b        ;@      ANDS     r3,r3,r7
        0x00018c04:    43b0        .C      BICS     r0,r0,r6
        0x00018c06:    4031        1@      ANDS     r1,r1,r6
        0x00018c08:    431a        .C      ORRS     r2,r2,r3
        0x00018c0a:    4308        .C      ORRS     r0,r0,r1
        0x00018c0c:    e9cd2000    ...     STRD     r2,r0,[sp,#0]
        0x00018c10:    e00c        ..      B        0x18c2c ; am_hal_dcu_update + 184
        0x00018c12:    e9dd0100    ....    LDRD     r0,r1,[sp,#0]
        0x00018c16:    ea210206    !...    BIC      r2,r1,r6
        0x00018c1a:    e9d83106    ...1    LDRD     r3,r1,[r8,#0x18]
        0x00018c1e:    43b8        .C      BICS     r0,r0,r7
        0x00018c20:    403b        ;@      ANDS     r3,r3,r7
        0x00018c22:    4031        1@      ANDS     r1,r1,r6
        0x00018c24:    4318        .C      ORRS     r0,r0,r3
        0x00018c26:    4311        .C      ORRS     r1,r1,r2
        0x00018c28:    e9cd0100    ....    STRD     r0,r1,[sp,#0]
        0x00018c2c:    2202        ."      MOVS     r2,#2
        0x00018c2e:    4669        iF      MOV      r1,sp
        0x00018c30:    f8d80004    ....    LDR      r0,[r8,#4]
        0x00018c34:    f001fe00    ....    BL       copy_words ; 0x1a838
        0x00018c38:    f8da0000    ....    LDR      r0,[r10,#0]
        0x00018c3c:    f0100f01    ....    TST      r0,#1
        0x00018c40:    d0fa        ..      BEQ      0x18c38 ; am_hal_dcu_update + 196
        0x00018c42:    b005        ..      ADD      sp,sp,#0x14
        0x00018c44:    2000        .       MOVS     r0,#0
        0x00018c46:    e8bd8ff0    ....    POP      {r4-r11,pc}
    $d
        0x00018c4a:    0000        ..      DCW    0
        0x00018c4c:    40021000    ...@    DCD    1073876992
        0x00018c50:    400c0a7c    |..@    DCD    1074530940
        0x00018c54:    100000d0    ....    DCD    268435664
    $t
    i.am_hal_delay_us
    am_hal_delay_us
        0x00018c58:    4908        .I      LDR      r1,[pc,#32] ; [0x18c7c] = 0x40021000
        0x00018c5a:    0140        @.      LSLS     r0,r0,#5
        0x00018c5c:    6809        .h      LDR      r1,[r1,#0]
        0x00018c5e:    f3c101c1    ....    UBFX     r1,r1,#3,#2
        0x00018c62:    2902        .)      CMP      r1,#2
        0x00018c64:    bf06        ..      ITTE     EQ
        0x00018c66:    0040        @.      LSLEQ    r0,r0,#1
        0x00018c68:    2115        .!      MOVEQ    r1,#0x15
        0x00018c6a:    210f        .!      MOVNE    r1,#0xf
        0x00018c6c:    4288        .B      CMP      r0,r1
        0x00018c6e:    bf98        ..      IT       LS
        0x00018c70:    4770        pG      BXLS     lr
        0x00018c72:    1a40        @.      SUBS     r0,r0,r1
        0x00018c74:    4902        .I      LDR      r1,[pc,#8] ; [0x18c80] = 0x1b2d0
        0x00018c76:    6a49        Ij      LDR      r1,[r1,#0x24]
        0x00018c78:    4708        .G      BX       r1
    $d
        0x00018c7a:    0000        ..      DCW    0
        0x00018c7c:    40021000    ...@    DCD    1073876992
        0x00018c80:    0001b2d0    ....    DCD    111312
    $t
    i.am_hal_delay_us_status_change
    am_hal_delay_us_status_change
        0x00018c84:    e92d47f0    -..G    PUSH     {r4-r10,lr}
        0x00018c88:    f8df8048    ..H.    LDR      r8,[pc,#72] ; [0x18cd4] = 0x40021000
        0x00018c8c:    f8df9048    ..H.    LDR      r9,[pc,#72] ; [0x18cd8] = 0x1b2d0
        0x00018c90:    461d        .F      MOV      r5,r3
        0x00018c92:    4616        .F      MOV      r6,r2
        0x00018c94:    460f        .F      MOV      r7,r1
        0x00018c96:    4604        .F      MOV      r4,r0
        0x00018c98:    6838        8h      LDR      r0,[r7,#0]
        0x00018c9a:    4030        0@      ANDS     r0,r0,r6
        0x00018c9c:    42a8        .B      CMP      r0,r5
        0x00018c9e:    d102        ..      BNE      0x18ca6 ; am_hal_delay_us_status_change + 34
        0x00018ca0:    2000        .       MOVS     r0,#0
        0x00018ca2:    e8bd87f0    ....    POP      {r4-r10,pc}
        0x00018ca6:    1e64        d.      SUBS     r4,r4,#1
        0x00018ca8:    d311        ..      BCC      0x18cce ; am_hal_delay_us_status_change + 74
        0x00018caa:    f8d81000    ....    LDR      r1,[r8,#0]
        0x00018cae:    2020                MOVS     r0,#0x20
        0x00018cb0:    f3c101c1    ....    UBFX     r1,r1,#3,#2
        0x00018cb4:    2902        .)      CMP      r1,#2
        0x00018cb6:    bf06        ..      ITTE     EQ
        0x00018cb8:    2040        @       MOVEQ    r0,#0x40
        0x00018cba:    f04f0c15    O...    MOVEQ    r12,#0x15
        0x00018cbe:    f04f0c0f    O...    MOVNE    r12,#0xf
        0x00018cc2:    eba0000c    ....    SUB      r0,r0,r12
        0x00018cc6:    f8d91024    ..$.    LDR      r1,[r9,#0x24]
        0x00018cca:    4788        .G      BLX      r1
        0x00018ccc:    e7e4        ..      B        0x18c98 ; am_hal_delay_us_status_change + 20
        0x00018cce:    2004        .       MOVS     r0,#4
        0x00018cd0:    e8bd87f0    ....    POP      {r4-r10,pc}
    $d
        0x00018cd4:    40021000    ...@    DCD    1073876992
        0x00018cd8:    0001b2d0    ....    DCD    111312
    $t
    i.am_hal_delay_us_status_check
    am_hal_delay_us_status_check
        0x00018cdc:    e92d47f0    -..G    PUSH     {r4-r10,lr}
        0x00018ce0:    f8df9054    ..T.    LDR      r9,[pc,#84] ; [0x18d38] = 0x40021000
        0x00018ce4:    f8dfa054    ..T.    LDR      r10,[pc,#84] ; [0x18d3c] = 0x1b2d0
        0x00018ce8:    f8dd8020    .. .    LDR      r8,[sp,#0x20]
        0x00018cec:    461c        .F      MOV      r4,r3
        0x00018cee:    4615        .F      MOV      r5,r2
        0x00018cf0:    460e        .F      MOV      r6,r1
        0x00018cf2:    4607        .F      MOV      r7,r0
        0x00018cf4:    6830        0h      LDR      r0,[r6,#0]
        0x00018cf6:    f1b80f00    ....    CMP      r8,#0
        0x00018cfa:    ea000005    ....    AND      r0,r0,r5
        0x00018cfe:    d002        ..      BEQ      0x18d06 ; am_hal_delay_us_status_check + 42
        0x00018d00:    42a0        .B      CMP      r0,r4
        0x00018d02:    d002        ..      BEQ      0x18d0a ; am_hal_delay_us_status_check + 46
        0x00018d04:    e004        ..      B        0x18d10 ; am_hal_delay_us_status_check + 52
        0x00018d06:    42a0        .B      CMP      r0,r4
        0x00018d08:    d002        ..      BEQ      0x18d10 ; am_hal_delay_us_status_check + 52
        0x00018d0a:    2000        .       MOVS     r0,#0
        0x00018d0c:    e8bd87f0    ....    POP      {r4-r10,pc}
        0x00018d10:    1e7f        ..      SUBS     r7,r7,#1
        0x00018d12:    d30e        ..      BCC      0x18d32 ; am_hal_delay_us_status_check + 86
        0x00018d14:    f8d91000    ....    LDR      r1,[r9,#0]
        0x00018d18:    2020                MOVS     r0,#0x20
        0x00018d1a:    f3c101c1    ....    UBFX     r1,r1,#3,#2
        0x00018d1e:    2902        .)      CMP      r1,#2
        0x00018d20:    bf06        ..      ITTE     EQ
        0x00018d22:    2040        @       MOVEQ    r0,#0x40
        0x00018d24:    2115        .!      MOVEQ    r1,#0x15
        0x00018d26:    210f        .!      MOVNE    r1,#0xf
        0x00018d28:    1a40        @.      SUBS     r0,r0,r1
        0x00018d2a:    f8da1024    ..$.    LDR      r1,[r10,#0x24]
        0x00018d2e:    4788        .G      BLX      r1
        0x00018d30:    e7e0        ..      B        0x18cf4 ; am_hal_delay_us_status_check + 24
        0x00018d32:    2004        .       MOVS     r0,#4
        0x00018d34:    e8bd87f0    ....    POP      {r4-r10,pc}
    $d
        0x00018d38:    40021000    ...@    DCD    1073876992
        0x00018d3c:    0001b2d0    ....    DCD    111312
    $t
    i.am_hal_fault_status_get
    am_hal_fault_status_get
        0x00018d40:    2800        .(      CMP      r0,#0
        0x00018d42:    bf04        ..      ITT      EQ
        0x00018d44:    2006        .       MOVEQ    r0,#6
        0x00018d46:    4770        pG      BXEQ     lr
        0x00018d48:    f04f4190    O..A    MOV      r1,#0x48000000
        0x00018d4c:    f8d1208c    ...     LDR      r2,[r1,#0x8c]
        0x00018d50:    f0020301    ....    AND      r3,r2,#1
        0x00018d54:    7003        .p      STRB     r3,[r0,#0]
        0x00018d56:    f3c20340    ..@.    UBFX     r3,r2,#1,#1
        0x00018d5a:    7203        .r      STRB     r3,[r0,#8]
        0x00018d5c:    f3c20280    ....    UBFX     r2,r2,#2,#1
        0x00018d60:    7402        .t      STRB     r2,[r0,#0x10]
        0x00018d62:    f8d12084    ...     LDR      r2,[r1,#0x84]
        0x00018d66:    60c2        .`      STR      r2,[r0,#0xc]
        0x00018d68:    6842        Bh      LDR      r2,[r0,#4]
        0x00018d6a:    f8513f80    Q..?    LDR      r3,[r1,#0x80]!
        0x00018d6e:    431a        .C      ORRS     r2,r2,r3
        0x00018d70:    6042        B`      STR      r2,[r0,#4]
        0x00018d72:    6942        Bi      LDR      r2,[r0,#0x14]
        0x00018d74:    6889        .h      LDR      r1,[r1,#8]
        0x00018d76:    4311        .C      ORRS     r1,r1,r2
        0x00018d78:    6141        Aa      STR      r1,[r0,#0x14]
        0x00018d7a:    2000        .       MOVS     r0,#0
        0x00018d7c:    4770        pG      BX       lr
        0x00018d7e:    0000        ..      MOVS     r0,r0
    i.am_hal_gpio_pinconfig
    am_hal_gpio_pinconfig
        0x00018d80:    b533        3.      PUSH     {r0,r1,r4,r5,lr}
        0x00018d82:    4d1b        .M      LDR      r5,[pc,#108] ; [0x18df0] = 0x40010000
        0x00018d84:    b081        ..      SUB      sp,sp,#4
        0x00018d86:    4604        .F      MOV      r4,r0
        0x00018d88:    2880        .(      CMP      r0,#0x80
        0x00018d8a:    d209        ..      BCS      0x18da0 ; am_hal_gpio_pinconfig + 32
        0x00018d8c:    4819        .H      LDR      r0,[pc,#100] ; [0x18df4] = 0x1b2fc
        0x00018d8e:    0961        a.      LSRS     r1,r4,#5
        0x00018d90:    f004031f    ....    AND      r3,r4,#0x1f
        0x00018d94:    f8502021    P.!     LDR      r2,[r0,r1,LSL #2]
        0x00018d98:    2001        .       MOVS     r0,#1
        0x00018d9a:    4098        .@      LSLS     r0,r0,r3
        0x00018d9c:    4202        .B      TST      r2,r0
        0x00018d9e:    d002        ..      BEQ      0x18da6 ; am_hal_gpio_pinconfig + 38
        0x00018da0:    b003        ..      ADD      sp,sp,#0xc
        0x00018da2:    2005        .       MOVS     r0,#5
        0x00018da4:    bd30        0.      POP      {r4,r5,pc}
        0x00018da6:    9a02        ..      LDR      r2,[sp,#8]
        0x00018da8:    f3c22281    ..."    UBFX     r2,r2,#10,#2
        0x00018dac:    2a01        .*      CMP      r2,#1
        0x00018dae:    d907        ..      BLS      0x18dc0 ; am_hal_gpio_pinconfig + 64
        0x00018db0:    4a11        .J      LDR      r2,[pc,#68] ; [0x18df8] = 0x1b30c
        0x00018db2:    f8521021    R.!.    LDR      r1,[r2,r1,LSL #2]
        0x00018db6:    4201        .B      TST      r1,r0
        0x00018db8:    bf02        ..      ITTT     EQ
        0x00018dba:    2007        .       MOVEQ    r0,#7
        0x00018dbc:    b003        ..      ADDEQ    sp,sp,#0xc
        0x00018dbe:    bd30        0.      POPEQ    {r4,r5,pc}
        0x00018dc0:    f7fffad2    ....    BL       am_hal_interrupt_master_disable ; 0x18368
        0x00018dc4:    9000        ..      STR      r0,[sp,#0]
        0x00018dc6:    2073        s       MOVS     r0,#0x73
        0x00018dc8:    f8c50200    ....    STR      r0,[r5,#0x200]
        0x00018dcc:    9800        ..      LDR      r0,[sp,#0]
        0x00018dce:    f7fffacf    ....    BL       am_hal_interrupt_master_set ; 0x18370
        0x00018dd2:    9802        ..      LDR      r0,[sp,#8]
        0x00018dd4:    f8450024    E.$.    STR      r0,[r5,r4,LSL #2]
        0x00018dd8:    f7fffac6    ....    BL       am_hal_interrupt_master_disable ; 0x18368
        0x00018ddc:    9000        ..      STR      r0,[sp,#0]
        0x00018dde:    2000        .       MOVS     r0,#0
        0x00018de0:    f8c50200    ....    STR      r0,[r5,#0x200]
        0x00018de4:    9800        ..      LDR      r0,[sp,#0]
        0x00018de6:    f7fffac3    ....    BL       am_hal_interrupt_master_set ; 0x18370
        0x00018dea:    b003        ..      ADD      sp,sp,#0xc
        0x00018dec:    2000        .       MOVS     r0,#0
        0x00018dee:    bd30        0.      POP      {r4,r5,pc}
    $d
        0x00018df0:    40010000    ...@    DCD    1073807360
        0x00018df4:    0001b2fc    ....    DCD    111356
        0x00018df8:    0001b30c    ....    DCD    111372
    $t
    i.am_hal_i2s_configure
    am_hal_i2s_configure
        0x00018dfc:    e92d41f0    -..A    PUSH     {r4-r8,lr}
        0x00018e00:    460e        .F      MOV      r6,r1
        0x00018e02:    2700        .'      MOVS     r7,#0
        0x00018e04:    6841        Ah      LDR      r1,[r0,#4]
        0x00018e06:    2800        .(      CMP      r0,#0
        0x00018e08:    bf18        ..      IT       NE
        0x00018e0a:    2e00        ..      CMPNE    r6,#0
        0x00018e0c:    d027        '.      BEQ      0x18e5e ; am_hal_i2s_configure + 98
        0x00018e0e:    bb31        1.      CBNZ     r1,0x18e5e ; am_hal_i2s_configure + 98
        0x00018e10:    6800        .h      LDR      r0,[r0,#0]
        0x00018e12:    f0107f80    ....    TST      r0,#0x1000000
        0x00018e16:    d004        ..      BEQ      0x18e22 ; am_hal_i2s_configure + 38
        0x00018e18:    4a70        pJ      LDR      r2,[pc,#448] ; [0x18fdc] = 0x125125
        0x00018e1a:    f020417f     ..A    BIC      r1,r0,#0xff000000
        0x00018e1e:    4291        .B      CMP      r1,r2
        0x00018e20:    d002        ..      BEQ      0x18e28 ; am_hal_i2s_configure + 44
        0x00018e22:    2002        .       MOVS     r0,#2
        0x00018e24:    e8bd81f0    ....    POP      {r4-r8,pc}
        0x00018e28:    f0107f00    ....    TST      r0,#0x2000000
        0x00018e2c:    bf1c        ..      ITT      NE
        0x00018e2e:    2007        .       MOVNE    r0,#7
        0x00018e30:    e8bd81f0    ....    POPNE    {r4-r8,pc}
        0x00018e34:    e9d64803    ...H    LDRD     r4,r8,[r6,#0xc]
        0x00018e38:    6860        `h      LDR      r0,[r4,#4]
        0x00018e3a:    2808        .(      CMP      r0,#8
        0x00018e3c:    bf9c        ..      ITT      LS
        0x00018e3e:    68a1        .h      LDRLS    r1,[r4,#8]
        0x00018e40:    2908        .)      CMPLS    r1,#8
        0x00018e42:    d80c        ..      BHI      0x18e5e ; am_hal_i2s_configure + 98
        0x00018e44:    b158        X.      CBZ      r0,0x18e5e ; am_hal_i2s_configure + 98
        0x00018e46:    4408        .D      ADD      r0,r0,r1
        0x00018e48:    2808        .(      CMP      r0,#8
        0x00018e4a:    d808        ..      BHI      0x18e5e ; am_hal_i2s_configure + 98
        0x00018e4c:    7d20         }      LDRB     r0,[r4,#0x14]
        0x00018e4e:    2800        .(      CMP      r0,#0
        0x00018e50:    bf18        ..      IT       NE
        0x00018e52:    2802        .(      CMPNE    r0,#2
        0x00018e54:    d007        ..      BEQ      0x18e66 ; am_hal_i2s_configure + 106
        0x00018e56:    2804        .(      CMP      r0,#4
        0x00018e58:    bf18        ..      IT       NE
        0x00018e5a:    2805        .(      CMPNE    r0,#5
        0x00018e5c:    d003        ..      BEQ      0x18e66 ; am_hal_i2s_configure + 106
        0x00018e5e:    f04f0006    O...    MOV      r0,#6
        0x00018e62:    e8bd81f0    ....    POP      {r4-r8,pc}
        0x00018e66:    7d60        `}      LDRB     r0,[r4,#0x15]
        0x00018e68:    2800        .(      CMP      r0,#0
        0x00018e6a:    bf18        ..      IT       NE
        0x00018e6c:    2802        .(      CMPNE    r0,#2
        0x00018e6e:    d003        ..      BEQ      0x18e78 ; am_hal_i2s_configure + 124
        0x00018e70:    2804        .(      CMP      r0,#4
        0x00018e72:    bf18        ..      IT       NE
        0x00018e74:    2805        .(      CMPNE    r0,#5
        0x00018e76:    d1f2        ..      BNE      0x18e5e ; am_hal_i2s_configure + 98
        0x00018e78:    7b20         {      LDRB     r0,[r4,#0xc]
        0x00018e7a:    2800        .(      CMP      r0,#0
        0x00018e7c:    bf18        ..      IT       NE
        0x00018e7e:    2802        .(      CMPNE    r0,#2
        0x00018e80:    d003        ..      BEQ      0x18e8a ; am_hal_i2s_configure + 142
        0x00018e82:    2804        .(      CMP      r0,#4
        0x00018e84:    bf18        ..      IT       NE
        0x00018e86:    2805        .(      CMPNE    r0,#5
        0x00018e88:    d1e9        ..      BNE      0x18e5e ; am_hal_i2s_configure + 98
        0x00018e8a:    7b60        `{      LDRB     r0,[r4,#0xd]
        0x00018e8c:    2800        .(      CMP      r0,#0
        0x00018e8e:    bf18        ..      IT       NE
        0x00018e90:    2802        .(      CMPNE    r0,#2
        0x00018e92:    d003        ..      BEQ      0x18e9c ; am_hal_i2s_configure + 160
        0x00018e94:    2804        .(      CMP      r0,#4
        0x00018e96:    bf18        ..      IT       NE
        0x00018e98:    2805        .(      CMPNE    r0,#5
        0x00018e9a:    d1e0        ..      BNE      0x18e5e ; am_hal_i2s_configure + 98
        0x00018e9c:    4d50        PM      LDR      r5,[pc,#320] ; [0x18fe0] = 0x40208000
        0x00018e9e:    6ca8        .l      LDR      r0,[r5,#0x48]
        0x00018ea0:    f0400020    @. .    ORR      r0,r0,#0x20
        0x00018ea4:    64a8        .d      STR      r0,[r5,#0x48]
        0x00018ea6:    6ca8        .l      LDR      r0,[r5,#0x48]
        0x00018ea8:    f0400002    @...    ORR      r0,r0,#2
        0x00018eac:    64a8        .d      STR      r0,[r5,#0x48]
        0x00018eae:    f04f00c8    O...    MOV      r0,#0xc8
        0x00018eb2:    f7fffed1    ....    BL       am_hal_delay_us ; 0x18c58
        0x00018eb6:    7870        px      LDRB     r0,[r6,#1]
        0x00018eb8:    2801        .(      CMP      r0,#1
        0x00018eba:    bf16        ..      ITET     NE
        0x00018ebc:    2802        .(      CMPNE    r0,#2
        0x00018ebe:    2101        .!      MOVEQ    r1,#1
        0x00018ec0:    2100        .!      MOVNE    r1,#0
        0x00018ec2:    7822        "x      LDRB     r2,[r4,#0]
        0x00018ec4:    4847        GH      LDR      r0,[pc,#284] ; [0x18fe4] = 0x1b2b8
        0x00018ec6:    7b23        #{      LDRB     r3,[r4,#0xc]
        0x00018ec8:    2a00        .*      CMP      r2,#0
        0x00018eca:    6862        bh      LDR      r2,[r4,#4]
        0x00018ecc:    f8503023    P.#0    LDR      r3,[r0,r3,LSL #2]
        0x00018ed0:    fb02f203    ....    MUL      r2,r2,r3
        0x00018ed4:    d006        ..      BEQ      0x18ee4 ; am_hal_i2s_configure + 232
        0x00018ed6:    f894c00d    ....    LDRB     r12,[r4,#0xd]
        0x00018eda:    68a3        .h      LDR      r3,[r4,#8]
        0x00018edc:    f850c02c    P.,.    LDR      r12,[r0,r12,LSL #2]
        0x00018ee0:    fb03220c    ..."    MLA      r2,r3,r12,r2
        0x00018ee4:    0112        ..      LSLS     r2,r2,#4
        0x00018ee6:    3a10        .:      SUBS     r2,r2,#0x10
        0x00018ee8:    b292        ..      UXTH     r2,r2
        0x00018eea:    4311        .C      ORRS     r1,r1,r2
        0x00018eec:    f898200c    ...     LDRB     r2,[r8,#0xc]
        0x00018ef0:    f44f3380    O..3    MOV      r3,#0x10000
        0x00018ef4:    ea034202    ...B    AND      r2,r3,r2,LSL #16
        0x00018ef8:    4311        .C      ORRS     r1,r1,r2
        0x00018efa:    f898200e    ...     LDRB     r2,[r8,#0xe]
        0x00018efe:    005b        [.      LSLS     r3,r3,#1
        0x00018f00:    ea034242    ..BB    AND      r2,r3,r2,LSL #17
        0x00018f04:    4311        .C      ORRS     r1,r1,r2
        0x00018f06:    7832        2x      LDRB     r2,[r6,#0]
        0x00018f08:    005b        [.      LSLS     r3,r3,#1
        0x00018f0a:    ea034282    ...B    AND      r2,r3,r2,LSL #18
        0x00018f0e:    4311        .C      ORRS     r1,r1,r2
        0x00018f10:    f898200d    ...     LDRB     r2,[r8,#0xd]
        0x00018f14:    005b        [.      LSLS     r3,r3,#1
        0x00018f16:    ea0342c2    ...B    AND      r2,r3,r2,LSL #19
        0x00018f1a:    4311        .C      ORRS     r1,r1,r2
        0x00018f1c:    7b22        "{      LDRB     r2,[r4,#0xc]
        0x00018f1e:    f8100022    ..".    LDRB     r0,[r0,r2,LSL #2]
        0x00018f22:    0500        ..      LSLS     r0,r0,#20
        0x00018f24:    f5a01080    ....    SUB      r0,r0,#0x100000
        0x00018f28:    f000607f    ...`    AND      r0,r0,#0xff00000
        0x00018f2c:    4308        .C      ORRS     r0,r0,r1
        0x00018f2e:    6468        hd      STR      r0,[r5,#0x44]
        0x00018f30:    7d20         }      LDRB     r0,[r4,#0x14]
        0x00018f32:    7da1        .}      LDRB     r1,[r4,#0x16]
        0x00018f34:    2208        ."      MOVS     r2,#8
        0x00018f36:    f0000007    ....    AND      r0,r0,#7
        0x00018f3a:    ea0201c1    ....    AND      r1,r2,r1,LSL #3
        0x00018f3e:    4308        .C      ORRS     r0,r0,r1
        0x00018f40:    7b21        !{      LDRB     r1,[r4,#0xc]
        0x00018f42:    22e0        ."      MOVS     r2,#0xe0
        0x00018f44:    ea021141    ..A.    AND      r1,r2,r1,LSL #5
        0x00018f48:    4308        .C      ORRS     r0,r0,r1
        0x00018f4a:    7921        !y      LDRB     r1,[r4,#4]
        0x00018f4c:    02d2        ..      LSLS     r2,r2,#11
        0x00018f4e:    0209        ..      LSLS     r1,r1,#8
        0x00018f50:    f5a17180    ...q    SUB      r1,r1,#0x100
        0x00018f54:    f40141fe    ...A    AND      r1,r1,#0x7f00
        0x00018f58:    4308        .C      ORRS     r0,r0,r1
        0x00018f5a:    7d61        a}      LDRB     r1,[r4,#0x15]
        0x00018f5c:    ea024101    ...A    AND      r1,r2,r1,LSL #16
        0x00018f60:    4308        .C      ORRS     r0,r0,r1
        0x00018f62:    8a21        !.      LDRH     r1,[r4,#0x10]
        0x00018f64:    f44f12c0    O...    MOV      r2,#0x180000
        0x00018f68:    ea0241c1    ...A    AND      r1,r2,r1,LSL #19
        0x00018f6c:    4308        .C      ORRS     r0,r0,r1
        0x00018f6e:    7b61        a{      LDRB     r1,[r4,#0xd]
        0x00018f70:    f44f0260    O.`.    MOV      r2,#0xe00000
        0x00018f74:    ea025141    ..AQ    AND      r1,r2,r1,LSL #21
        0x00018f78:    4308        .C      ORRS     r0,r0,r1
        0x00018f7a:    7a21        !z      LDRB     r1,[r4,#8]
        0x00018f7c:    f04f42fe    O..B    MOV      r2,#0x7f000000
        0x00018f80:    1e49        I.      SUBS     r1,r1,#1
        0x00018f82:    ea026101    ...a    AND      r1,r2,r1,LSL #24
        0x00018f86:    4308        .C      ORRS     r0,r0,r1
        0x00018f88:    7821        !x      LDRB     r1,[r4,#0]
        0x00018f8a:    ea4070c1    @..p    ORR      r0,r0,r1,LSL #31
        0x00018f8e:    6428        (d      STR      r0,[r5,#0x40]
        0x00018f90:    7831        1x      LDRB     r1,[r6,#0]
        0x00018f92:    2002        .       MOVS     r0,#2
        0x00018f94:    2901        .)      CMP      r1,#1
        0x00018f96:    bf1e        ..      ITTT     NE
        0x00018f98:    68b1        .h      LDRNE    r1,[r6,#8]
        0x00018f9a:    2900        .)      CMPNE    r1,#0
        0x00018f9c:    2000        .       MOVNE    r0,#0
        0x00018f9e:    6568        he      STR      r0,[r5,#0x54]
        0x00018fa0:    78b0        .x      LDRB     r0,[r6,#2]
        0x00018fa2:    7932        2y      LDRB     r2,[r6,#4]
        0x00018fa4:    f8d51100    ....    LDR      r1,[r5,#0x100]
        0x00018fa8:    f3625114    b..Q    BFI      r1,r2,#20,#1
        0x00018fac:    f8c51100    ....    STR      r1,[r5,#0x100]
        0x00018fb0:    f8d51100    ....    LDR      r1,[r5,#0x100]
        0x00018fb4:    f3601108    `...    BFI      r1,r0,#4,#5
        0x00018fb8:    f8c51100    ....    STR      r1,[r5,#0x100]
        0x00018fbc:    f8d50100    ....    LDR      r0,[r5,#0x100]
        0x00018fc0:    f0400001    @...    ORR      r0,r0,#1
        0x00018fc4:    f8c50100    ....    STR      r0,[r5,#0x100]
        0x00018fc8:    f04f0032    O.2.    MOV      r0,#0x32
        0x00018fcc:    f7fffe44    ..D.    BL       am_hal_delay_us ; 0x18c58
        0x00018fd0:    2020                MOVS     r0,#0x20
        0x00018fd2:    6128        (a      STR      r0,[r5,#0x10]
        0x00018fd4:    6328        (c      STR      r0,[r5,#0x30]
        0x00018fd6:    4638        8F      MOV      r0,r7
        0x00018fd8:    e8bd81f0    ....    POP      {r4-r8,pc}
    $d
        0x00018fdc:    00125125    %Q..    DCD    1200421
        0x00018fe0:    40208000    .. @    DCD    1075871744
        0x00018fe4:    0001b2b8    ....    DCD    111288
    $t
    i.am_hal_i2s_deinitialize
    am_hal_i2s_deinitialize
        0x00018fe8:    2800        .(      CMP      r0,#0
        0x00018fea:    bf1c        ..      ITT      NE
        0x00018fec:    6801        .h      LDRNE    r1,[r0,#0]
        0x00018fee:    f0117f80    ....    TSTNE    r1,#0x1000000
        0x00018ff2:    d004        ..      BEQ      0x18ffe ; am_hal_i2s_deinitialize + 22
        0x00018ff4:    4b06        .K      LDR      r3,[pc,#24] ; [0x19010] = 0x125125
        0x00018ff6:    f021427f    !..B    BIC      r2,r1,#0xff000000
        0x00018ffa:    429a        .B      CMP      r2,r3
        0x00018ffc:    d001        ..      BEQ      0x19002 ; am_hal_i2s_deinitialize + 26
        0x00018ffe:    2002        .       MOVS     r0,#2
        0x00019000:    4770        pG      BX       lr
        0x00019002:    f001417e    ..~A    AND      r1,r1,#0xfe000000
        0x00019006:    6001        .`      STR      r1,[r0,#0]
        0x00019008:    2100        .!      MOVS     r1,#0
        0x0001900a:    6041        A`      STR      r1,[r0,#4]
        0x0001900c:    4608        .F      MOV      r0,r1
        0x0001900e:    4770        pG      BX       lr
    $d
        0x00019010:    00125125    %Q..    DCD    1200421
    $t
    i.am_hal_i2s_disable
    am_hal_i2s_disable
        0x00019014:    2800        .(      CMP      r0,#0
        0x00019016:    bf1c        ..      ITT      NE
        0x00019018:    6801        .h      LDRNE    r1,[r0,#0]
        0x0001901a:    f0117f80    ....    TSTNE    r1,#0x1000000
        0x0001901e:    d004        ..      BEQ      0x1902a ; am_hal_i2s_disable + 22
        0x00019020:    4b0a        .K      LDR      r3,[pc,#40] ; [0x1904c] = 0x125125
        0x00019022:    f021427f    !..B    BIC      r2,r1,#0xff000000
        0x00019026:    429a        .B      CMP      r2,r3
        0x00019028:    d001        ..      BEQ      0x1902e ; am_hal_i2s_disable + 26
        0x0001902a:    2002        .       MOVS     r0,#2
        0x0001902c:    4770        pG      BX       lr
        0x0001902e:    f0117f00    ....    TST      r1,#0x2000000
        0x00019032:    bf04        ..      ITT      EQ
        0x00019034:    2000        .       MOVEQ    r0,#0
        0x00019036:    4770        pG      BXEQ     lr
        0x00019038:    2100        .!      MOVS     r1,#0
        0x0001903a:    4a05        .J      LDR      r2,[pc,#20] ; [0x19050] = 0x40208000
        0x0001903c:    f8c21100    ....    STR      r1,[r2,#0x100]
        0x00019040:    6801        .h      LDR      r1,[r0,#0]
        0x00019042:    f0217100    !..q    BIC      r1,r1,#0x2000000
        0x00019046:    6001        .`      STR      r1,[r0,#0]
        0x00019048:    2000        .       MOVS     r0,#0
        0x0001904a:    4770        pG      BX       lr
    $d
        0x0001904c:    00125125    %Q..    DCD    1200421
        0x00019050:    40208000    .. @    DCD    1075871744
    $t
    i.am_hal_i2s_dma_configure
    am_hal_i2s_dma_configure
        0x00019054:    2800        .(      CMP      r0,#0
        0x00019056:    bf1c        ..      ITT      NE
        0x00019058:    6803        .h      LDRNE    r3,[r0,#0]
        0x0001905a:    f0137f80    ....    TSTNE    r3,#0x1000000
        0x0001905e:    d005        ..      BEQ      0x1906c ; am_hal_i2s_dma_configure + 24
        0x00019060:    f8dfc0a8    ....    LDR      r12,[pc,#168] ; [0x1910c] = 0x125125
        0x00019064:    f023437f    #..C    BIC      r3,r3,#0xff000000
        0x00019068:    4563        cE      CMP      r3,r12
        0x0001906a:    d001        ..      BEQ      0x19070 ; am_hal_i2s_dma_configure + 28
        0x0001906c:    2002        .       MOVS     r0,#2
        0x0001906e:    4770        pG      BX       lr
        0x00019070:    6813        .h      LDR      r3,[r2,#0]
        0x00019072:    6343        Cc      STR      r3,[r0,#0x34]
        0x00019074:    6443        Cd      STR      r3,[r0,#0x44]
        0x00019076:    6853        Sh      LDR      r3,[r2,#4]
        0x00019078:    6383        .c      STR      r3,[r0,#0x38]
        0x0001907a:    68d3        .h      LDR      r3,[r2,#0xc]
        0x0001907c:    63c3        .c      STR      r3,[r0,#0x3c]
        0x0001907e:    6483        .d      STR      r3,[r0,#0x48]
        0x00019080:    6913        .i      LDR      r3,[r2,#0x10]
        0x00019082:    6403        .d      STR      r3,[r0,#0x40]
        0x00019084:    4822        "H      LDR      r0,[pc,#136] ; [0x19110] = 0x40208000
        0x00019086:    231f        .#      MOVS     r3,#0x1f
        0x00019088:    614a        Ja      STR      r2,[r1,#0x14]
        0x0001908a:    f8c03308    ...3    STR      r3,[r0,#0x308]
        0x0001908e:    2300        .#      MOVS     r3,#0
        0x00019090:    64c3        .d      STR      r3,[r0,#0x4c]
        0x00019092:    7849        Ix      LDRB     r1,[r1,#1]
        0x00019094:    b121        !.      CBZ      r1,0x190a0 ; am_hal_i2s_dma_configure + 76
        0x00019096:    2901        .)      CMP      r1,#1
        0x00019098:    d00c        ..      BEQ      0x190b4 ; am_hal_i2s_dma_configure + 96
        0x0001909a:    2902        .)      CMP      r1,#2
        0x0001909c:    d016        ..      BEQ      0x190cc ; am_hal_i2s_dma_configure + 120
        0x0001909e:    e026        &.      B        0x190ee ; am_hal_i2s_dma_configure + 154
        0x000190a0:    6891        .h      LDR      r1,[r2,#8]
        0x000190a2:    f8c01204    ....    STR      r1,[r0,#0x204]
        0x000190a6:    6811        .h      LDR      r1,[r2,#0]
        0x000190a8:    f8c01208    ....    STR      r1,[r0,#0x208]
        0x000190ac:    2111        .!      MOVS     r1,#0x11
        0x000190ae:    64c1        .d      STR      r1,[r0,#0x4c]
        0x000190b0:    2110        .!      MOVS     r1,#0x10
        0x000190b2:    e008        ..      B        0x190c6 ; am_hal_i2s_dma_configure + 114
        0x000190b4:    6951        Qi      LDR      r1,[r2,#0x14]
        0x000190b6:    f8c01210    ....    STR      r1,[r0,#0x210]
        0x000190ba:    68d1        .h      LDR      r1,[r2,#0xc]
        0x000190bc:    f8c01214    ....    STR      r1,[r0,#0x214]
        0x000190c0:    2122        "!      MOVS     r1,#0x22
        0x000190c2:    64c1        .d      STR      r1,[r0,#0x4c]
        0x000190c4:    2108        .!      MOVS     r1,#8
        0x000190c6:    f8c01300    ....    STR      r1,[r0,#0x300]
        0x000190ca:    e010        ..      B        0x190ee ; am_hal_i2s_dma_configure + 154
        0x000190cc:    6951        Qi      LDR      r1,[r2,#0x14]
        0x000190ce:    f8c01210    ....    STR      r1,[r0,#0x210]
        0x000190d2:    68d1        .h      LDR      r1,[r2,#0xc]
        0x000190d4:    f8c01214    ....    STR      r1,[r0,#0x214]
        0x000190d8:    6891        .h      LDR      r1,[r2,#8]
        0x000190da:    f8c01204    ....    STR      r1,[r0,#0x204]
        0x000190de:    6811        .h      LDR      r1,[r2,#0]
        0x000190e0:    f8c01208    ....    STR      r1,[r0,#0x208]
        0x000190e4:    2133        3!      MOVS     r1,#0x33
        0x000190e6:    64c1        .d      STR      r1,[r0,#0x4c]
        0x000190e8:    2118        .!      MOVS     r1,#0x18
        0x000190ea:    f8c01300    ....    STR      r1,[r0,#0x300]
        0x000190ee:    f8d01200    ....    LDR      r1,[r0,#0x200]
        0x000190f2:    f0410102    A...    ORR      r1,r1,#2
        0x000190f6:    f8c01200    ....    STR      r1,[r0,#0x200]
        0x000190fa:    f8d01200    ....    LDR      r1,[r0,#0x200]
        0x000190fe:    f0410120    A. .    ORR      r1,r1,#0x20
        0x00019102:    f8c01200    ....    STR      r1,[r0,#0x200]
        0x00019106:    2000        .       MOVS     r0,#0
        0x00019108:    4770        pG      BX       lr
    $d
        0x0001910a:    0000        ..      DCW    0
        0x0001910c:    00125125    %Q..    DCD    1200421
        0x00019110:    40208000    .. @    DCD    1075871744
    $t
    i.am_hal_i2s_dma_get_buffer
    am_hal_i2s_dma_get_buffer
        0x00019114:    b510        ..      PUSH     {r4,lr}
        0x00019116:    4604        .F      MOV      r4,r0
        0x00019118:    b129        ).      CBZ      r1,0x19126 ; am_hal_i2s_dma_get_buffer + 18
        0x0001911a:    6ca1        .l      LDR      r1,[r4,#0x48]
        0x0001911c:    6c20         l      LDR      r0,[r4,#0x40]
        0x0001911e:    4281        .B      CMP      r1,r0
        0x00019120:    bf08        ..      IT       EQ
        0x00019122:    6be0        .k      LDREQ    r0,[r4,#0x3c]
        0x00019124:    bd10        ..      POP      {r4,pc}
        0x00019126:    2100        .!      MOVS     r1,#0
        0x00019128:    4608        .F      MOV      r0,r1
        0x0001912a:    f7fffc9b    ....    BL       am_hal_daxi_control ; 0x18a64
        0x0001912e:    6c61        al      LDR      r1,[r4,#0x44]
        0x00019130:    6ba0        .k      LDR      r0,[r4,#0x38]
        0x00019132:    4281        .B      CMP      r1,r0
        0x00019134:    bf08        ..      IT       EQ
        0x00019136:    6b60        `k      LDREQ    r0,[r4,#0x34]
        0x00019138:    bd10        ..      POP      {r4,pc}
        0x0001913a:    0000        ..      MOVS     r0,r0
    i.am_hal_i2s_dma_transfer_complete
    am_hal_i2s_dma_transfer_complete
        0x0001913c:    4804        .H      LDR      r0,[pc,#16] ; [0x19150] = 0x40208000
        0x0001913e:    2100        .!      MOVS     r1,#0
        0x00019140:    f8c01200    ....    STR      r1,[r0,#0x200]
        0x00019144:    f8c0120c    ....    STR      r1,[r0,#0x20c]
        0x00019148:    f8c01218    ....    STR      r1,[r0,#0x218]
        0x0001914c:    4608        .F      MOV      r0,r1
        0x0001914e:    4770        pG      BX       lr
    $d
        0x00019150:    40208000    .. @    DCD    1075871744
    $t
    i.am_hal_i2s_dma_transfer_start
    am_hal_i2s_dma_transfer_start
        0x00019154:    b570        p.      PUSH     {r4-r6,lr}
        0x00019156:    2500        .%      MOVS     r5,#0
        0x00019158:    2800        .(      CMP      r0,#0
        0x0001915a:    bf1c        ..      ITT      NE
        0x0001915c:    6800        .h      LDRNE    r0,[r0,#0]
        0x0001915e:    f0107f80    ....    TSTNE    r0,#0x1000000
        0x00019162:    d004        ..      BEQ      0x1916e ; am_hal_i2s_dma_transfer_start + 26
        0x00019164:    4a28        (J      LDR      r2,[pc,#160] ; [0x19208] = 0x125125
        0x00019166:    f020407f     ..@    BIC      r0,r0,#0xff000000
        0x0001916a:    4290        .B      CMP      r0,r2
        0x0001916c:    d001        ..      BEQ      0x19172 ; am_hal_i2s_dma_transfer_start + 30
        0x0001916e:    2002        .       MOVS     r0,#2
        0x00019170:    bd70        p.      POP      {r4-r6,pc}
        0x00019172:    4c26        &L      LDR      r4,[pc,#152] ; [0x1920c] = 0x40208000
        0x00019174:    6aa0        .j      LDR      r0,[r4,#0x28]
        0x00019176:    6aa2        .j      LDR      r2,[r4,#0x28]
        0x00019178:    f0204070     .p@    BIC      r0,r0,#0xf0000000
        0x0001917c:    f3c27240    ..@r    UBFX     r2,r2,#29,#1
        0x00019180:    4310        .C      ORRS     r0,r0,r2
        0x00019182:    bf1c        ..      ITT      NE
        0x00019184:    2001        .       MOVNE    r0,#1
        0x00019186:    bd70        p.      POPNE    {r4-r6,pc}
        0x00019188:    7848        Hx      LDRB     r0,[r1,#1]
        0x0001918a:    b120         .      CBZ      r0,0x19196 ; am_hal_i2s_dma_transfer_start + 66
        0x0001918c:    2801        .(      CMP      r0,#1
        0x0001918e:    d011        ..      BEQ      0x191b4 ; am_hal_i2s_dma_transfer_start + 96
        0x00019190:    2802        .(      CMP      r0,#2
        0x00019192:    d021        !.      BEQ      0x191d8 ; am_hal_i2s_dma_transfer_start + 132
        0x00019194:    e032        2.      B        0x191fc ; am_hal_i2s_dma_transfer_start + 168
        0x00019196:    f8d40200    ....    LDR      r0,[r4,#0x200]
        0x0001919a:    f0400001    @...    ORR      r0,r0,#1
        0x0001919e:    f8c40200    ....    STR      r0,[r4,#0x200]
        0x000191a2:    6ca0        .l      LDR      r0,[r4,#0x48]
        0x000191a4:    f0200020     . .    BIC      r0,r0,#0x20
        0x000191a8:    64a0        .d      STR      r0,[r4,#0x48]
        0x000191aa:    6ca0        .l      LDR      r0,[r4,#0x48]
        0x000191ac:    f0400010    @...    ORR      r0,r0,#0x10
        0x000191b0:    64a0        .d      STR      r0,[r4,#0x48]
        0x000191b2:    e023        #.      B        0x191fc ; am_hal_i2s_dma_transfer_start + 168
        0x000191b4:    2100        .!      MOVS     r1,#0
        0x000191b6:    2001        .       MOVS     r0,#1
        0x000191b8:    f7fffc54    ..T.    BL       am_hal_daxi_control ; 0x18a64
        0x000191bc:    f8d40200    ....    LDR      r0,[r4,#0x200]
        0x000191c0:    f0400010    @...    ORR      r0,r0,#0x10
        0x000191c4:    f8c40200    ....    STR      r0,[r4,#0x200]
        0x000191c8:    6ca0        .l      LDR      r0,[r4,#0x48]
        0x000191ca:    f0200002     ...    BIC      r0,r0,#2
        0x000191ce:    64a0        .d      STR      r0,[r4,#0x48]
        0x000191d0:    6ca0        .l      LDR      r0,[r4,#0x48]
        0x000191d2:    f0400001    @...    ORR      r0,r0,#1
        0x000191d6:    e010        ..      B        0x191fa ; am_hal_i2s_dma_transfer_start + 166
        0x000191d8:    2100        .!      MOVS     r1,#0
        0x000191da:    2001        .       MOVS     r0,#1
        0x000191dc:    f7fffc42    ..B.    BL       am_hal_daxi_control ; 0x18a64
        0x000191e0:    f8d40200    ....    LDR      r0,[r4,#0x200]
        0x000191e4:    f0400001    @...    ORR      r0,r0,#1
        0x000191e8:    f8c40200    ....    STR      r0,[r4,#0x200]
        0x000191ec:    f8d40200    ....    LDR      r0,[r4,#0x200]
        0x000191f0:    f0400010    @...    ORR      r0,r0,#0x10
        0x000191f4:    f8c40200    ....    STR      r0,[r4,#0x200]
        0x000191f8:    2011        .       MOVS     r0,#0x11
        0x000191fa:    64a0        .d      STR      r0,[r4,#0x48]
        0x000191fc:    2001        .       MOVS     r0,#1
        0x000191fe:    f7fffab5    ....    BL       am_gpu_power_enable ; 0x1876c
        0x00019202:    4628        (F      MOV      r0,r5
        0x00019204:    bd70        p.      POP      {r4-r6,pc}
    $d
        0x00019206:    0000        ..      DCW    0
        0x00019208:    00125125    %Q..    DCD    1200421
        0x0001920c:    40208000    .. @    DCD    1075871744
    $t
    i.am_hal_i2s_enable
    am_hal_i2s_enable
        0x00019210:    2800        .(      CMP      r0,#0
        0x00019212:    bf1c        ..      ITT      NE
        0x00019214:    6801        .h      LDRNE    r1,[r0,#0]
        0x00019216:    f0117f80    ....    TSTNE    r1,#0x1000000
        0x0001921a:    d004        ..      BEQ      0x19226 ; am_hal_i2s_enable + 22
        0x0001921c:    4b08        .K      LDR      r3,[pc,#32] ; [0x19240] = 0x125125
        0x0001921e:    f021427f    !..B    BIC      r2,r1,#0xff000000
        0x00019222:    429a        .B      CMP      r2,r3
        0x00019224:    d001        ..      BEQ      0x1922a ; am_hal_i2s_enable + 26
        0x00019226:    2002        .       MOVS     r0,#2
        0x00019228:    4770        pG      BX       lr
        0x0001922a:    f0117f00    ....    TST      r1,#0x2000000
        0x0001922e:    bf1c        ..      ITT      NE
        0x00019230:    2000        .       MOVNE    r0,#0
        0x00019232:    4770        pG      BXNE     lr
        0x00019234:    f0417100    A..q    ORR      r1,r1,#0x2000000
        0x00019238:    6001        .`      STR      r1,[r0,#0]
        0x0001923a:    2000        .       MOVS     r0,#0
        0x0001923c:    4770        pG      BX       lr
    $d
        0x0001923e:    0000        ..      DCW    0
        0x00019240:    00125125    %Q..    DCD    1200421
    $t
    i.am_hal_i2s_initialize
    am_hal_i2s_initialize
        0x00019244:    2800        .(      CMP      r0,#0
        0x00019246:    bf1c        ..      ITT      NE
        0x00019248:    2005        .       MOVNE    r0,#5
        0x0001924a:    4770        pG      BXNE     lr
        0x0001924c:    2900        .)      CMP      r1,#0
        0x0001924e:    bf04        ..      ITT      EQ
        0x00019250:    2006        .       MOVEQ    r0,#6
        0x00019252:    4770        pG      BXEQ     lr
        0x00019254:    2300        .#      MOVS     r3,#0
        0x00019256:    480a        .H      LDR      r0,[pc,#40] ; [0x19280] = 0x10000744
        0x00019258:    6802        .h      LDR      r2,[r0,#0]
        0x0001925a:    f0127f80    ....    TST      r2,#0x1000000
        0x0001925e:    bf1c        ..      ITT      NE
        0x00019260:    2007        .       MOVNE    r0,#7
        0x00019262:    4770        pG      BXNE     lr
        0x00019264:    f0227200    "..r    BIC      r2,r2,#0x2000000
        0x00019268:    f0427280    B..r    ORR      r2,r2,#0x1000000
        0x0001926c:    f8dfc014    ....    LDR      r12,[pc,#20] ; [0x19284] = 0x125125
        0x00019270:    f36c0217    l...    BFI      r2,r12,#0,#24
        0x00019274:    e9c02300    ...#    STRD     r2,r3,[r0,#0]
        0x00019278:    6008        .`      STR      r0,[r1,#0]
        0x0001927a:    2000        .       MOVS     r0,#0
        0x0001927c:    4770        pG      BX       lr
    $d
        0x0001927e:    0000        ..      DCW    0
        0x00019280:    10000744    D...    DCD    268437316
        0x00019284:    00125125    %Q..    DCD    1200421
    $t
    i.am_hal_i2s_interrupt_clear
    am_hal_i2s_interrupt_clear
        0x00019288:    2800        .(      CMP      r0,#0
        0x0001928a:    bf1c        ..      ITT      NE
        0x0001928c:    6800        .h      LDRNE    r0,[r0,#0]
        0x0001928e:    f0107f80    ....    TSTNE    r0,#0x1000000
        0x00019292:    d004        ..      BEQ      0x1929e ; am_hal_i2s_interrupt_clear + 22
        0x00019294:    4a05        .J      LDR      r2,[pc,#20] ; [0x192ac] = 0x125125
        0x00019296:    f020407f     ..@    BIC      r0,r0,#0xff000000
        0x0001929a:    4290        .B      CMP      r0,r2
        0x0001929c:    d001        ..      BEQ      0x192a2 ; am_hal_i2s_interrupt_clear + 26
        0x0001929e:    2002        .       MOVS     r0,#2
        0x000192a0:    4770        pG      BX       lr
        0x000192a2:    4803        .H      LDR      r0,[pc,#12] ; [0x192b0] = 0x40208000
        0x000192a4:    f8c01308    ....    STR      r1,[r0,#0x308]
        0x000192a8:    2000        .       MOVS     r0,#0
        0x000192aa:    4770        pG      BX       lr
    $d
        0x000192ac:    00125125    %Q..    DCD    1200421
        0x000192b0:    40208000    .. @    DCD    1075871744
    $t
    i.am_hal_i2s_interrupt_service
    am_hal_i2s_interrupt_service
        0x000192b4:    e92d41f0    -..A    PUSH     {r4-r8,lr}
        0x000192b8:    4604        .F      MOV      r4,r0
        0x000192ba:    7850        Px      LDRB     r0,[r2,#1]
        0x000192bc:    2600        .&      MOVS     r6,#0
        0x000192be:    4d6c        lM      LDR      r5,[pc,#432] ; [0x19470] = 0x40208000
        0x000192c0:    2802        .(      CMP      r0,#2
        0x000192c2:    4690        .F      MOV      r8,r2
        0x000192c4:    460f        .F      MOV      r7,r1
        0x000192c6:    f0010010    ....    AND      r0,r1,#0x10
        0x000192ca:    d064        d.      BEQ      0x19396 ; am_hal_i2s_interrupt_service + 226
        0x000192cc:    b1e0        ..      CBZ      r0,0x19308 ; am_hal_i2s_interrupt_service + 84
        0x000192ce:    f8c56200    ...b    STR      r6,[r5,#0x200]
        0x000192d2:    f8d5020c    ....    LDR      r0,[r5,#0x20c]
        0x000192d6:    f0100f04    ....    TST      r0,#4
        0x000192da:    bf1c        ..      ITT      NE
        0x000192dc:    f8c56200    ...b    STRNE    r6,[r5,#0x200]
        0x000192e0:    f8c5620c    ...b    STRNE    r6,[r5,#0x20c]
        0x000192e4:    f8c5620c    ...b    STR      r6,[r5,#0x20c]
        0x000192e8:    f8d80014    ....    LDR      r0,[r8,#0x14]
        0x000192ec:    6880        .h      LDR      r0,[r0,#8]
        0x000192ee:    f8c50204    ....    STR      r0,[r5,#0x204]
        0x000192f2:    6c61        al      LDR      r1,[r4,#0x44]
        0x000192f4:    6ba0        .k      LDR      r0,[r4,#0x38]
        0x000192f6:    4281        .B      CMP      r1,r0
        0x000192f8:    bf08        ..      IT       EQ
        0x000192fa:    6b60        `k      LDREQ    r0,[r4,#0x34]
        0x000192fc:    6460        `d      STR      r0,[r4,#0x44]
        0x000192fe:    f8c50208    ....    STR      r0,[r5,#0x208]
        0x00019302:    2003        .       MOVS     r0,#3
        0x00019304:    f8c50200    ....    STR      r0,[r5,#0x200]
        0x00019308:    f0170f08    ....    TST      r7,#8
        0x0001930c:    d020         .      BEQ      0x19350 ; am_hal_i2s_interrupt_service + 156
        0x0001930e:    f8c56200    ...b    STR      r6,[r5,#0x200]
        0x00019312:    f8d50218    ....    LDR      r0,[r5,#0x218]
        0x00019316:    f0100f04    ....    TST      r0,#4
        0x0001931a:    bf1c        ..      ITT      NE
        0x0001931c:    f8c56200    ...b    STRNE    r6,[r5,#0x200]
        0x00019320:    f8c56218    ...b    STRNE    r6,[r5,#0x218]
        0x00019324:    2100        .!      MOVS     r1,#0
        0x00019326:    2001        .       MOVS     r0,#1
        0x00019328:    f7fffb9c    ....    BL       am_hal_daxi_control ; 0x18a64
        0x0001932c:    f8c56218    ...b    STR      r6,[r5,#0x218]
        0x00019330:    f8d80014    ....    LDR      r0,[r8,#0x14]
        0x00019334:    6940        @i      LDR      r0,[r0,#0x14]
        0x00019336:    f8c50210    ....    STR      r0,[r5,#0x210]
        0x0001933a:    6ca1        .l      LDR      r1,[r4,#0x48]
        0x0001933c:    6c20         l      LDR      r0,[r4,#0x40]
        0x0001933e:    4281        .B      CMP      r1,r0
        0x00019340:    bf08        ..      IT       EQ
        0x00019342:    6be0        .k      LDREQ    r0,[r4,#0x3c]
        0x00019344:    64a0        .d      STR      r0,[r4,#0x48]
        0x00019346:    f8c50214    ....    STR      r0,[r5,#0x214]
        0x0001934a:    2030        0       MOVS     r0,#0x30
        0x0001934c:    f8c50200    ....    STR      r0,[r5,#0x200]
        0x00019350:    f0170f01    ....    TST      r7,#1
        0x00019354:    d01c        ..      BEQ      0x19390 ; am_hal_i2s_interrupt_service + 220
        0x00019356:    6ce8        .l      LDR      r0,[r5,#0x4c]
        0x00019358:    f4102f00    .../    TST      r0,#0x80000
        0x0001935c:    d003        ..      BEQ      0x19366 ; am_hal_i2s_interrupt_service + 178
        0x0001935e:    6ce9        .l      LDR      r1,[r5,#0x4c]
        0x00019360:    f4212100    !..!    BIC      r1,r1,#0x80000
        0x00019364:    64e9        .d      STR      r1,[r5,#0x4c]
        0x00019366:    f4103f00    ...?    TST      r0,#0x20000
        0x0001936a:    d003        ..      BEQ      0x19374 ; am_hal_i2s_interrupt_service + 192
        0x0001936c:    6ce9        .l      LDR      r1,[r5,#0x4c]
        0x0001936e:    f4213100    !..1    BIC      r1,r1,#0x20000
        0x00019372:    64e9        .d      STR      r1,[r5,#0x4c]
        0x00019374:    f4102f80    .../    TST      r0,#0x40000
        0x00019378:    d003        ..      BEQ      0x19382 ; am_hal_i2s_interrupt_service + 206
        0x0001937a:    6ce9        .l      LDR      r1,[r5,#0x4c]
        0x0001937c:    f4212180    !..!    BIC      r1,r1,#0x40000
        0x00019380:    64e9        .d      STR      r1,[r5,#0x4c]
        0x00019382:    f4103f80    ...?    TST      r0,#0x10000
        0x00019386:    d003        ..      BEQ      0x19390 ; am_hal_i2s_interrupt_service + 220
        0x00019388:    6ce8        .l      LDR      r0,[r5,#0x4c]
        0x0001938a:    f4203080     ..0    BIC      r0,r0,#0x10000
        0x0001938e:    64e8        .d      STR      r0,[r5,#0x4c]
        0x00019390:    2000        .       MOVS     r0,#0
        0x00019392:    e8bd81f0    ....    POP      {r4-r8,pc}
        0x00019396:    b318        ..      CBZ      r0,0x193e0 ; am_hal_i2s_interrupt_service + 300
        0x00019398:    f8d5020c    ....    LDR      r0,[r5,#0x20c]
        0x0001939c:    f0100f04    ....    TST      r0,#4
        0x000193a0:    bf1c        ..      ITT      NE
        0x000193a2:    f8c56200    ...b    STRNE    r6,[r5,#0x200]
        0x000193a6:    f8c5620c    ...b    STRNE    r6,[r5,#0x20c]
        0x000193aa:    f8d50200    ....    LDR      r0,[r5,#0x200]
        0x000193ae:    f0200001     ...    BIC      r0,r0,#1
        0x000193b2:    f8c50200    ....    STR      r0,[r5,#0x200]
        0x000193b6:    f8c5620c    ...b    STR      r6,[r5,#0x20c]
        0x000193ba:    6c61        al      LDR      r1,[r4,#0x44]
        0x000193bc:    6ba0        .k      LDR      r0,[r4,#0x38]
        0x000193be:    4281        .B      CMP      r1,r0
        0x000193c0:    bf08        ..      IT       EQ
        0x000193c2:    6b60        `k      LDREQ    r0,[r4,#0x34]
        0x000193c4:    6460        `d      STR      r0,[r4,#0x44]
        0x000193c6:    f8c50208    ....    STR      r0,[r5,#0x208]
        0x000193ca:    f8d80014    ....    LDR      r0,[r8,#0x14]
        0x000193ce:    6880        .h      LDR      r0,[r0,#8]
        0x000193d0:    f8c50204    ....    STR      r0,[r5,#0x204]
        0x000193d4:    f8d50200    ....    LDR      r0,[r5,#0x200]
        0x000193d8:    f0400001    @...    ORR      r0,r0,#1
        0x000193dc:    f8c50200    ....    STR      r0,[r5,#0x200]
        0x000193e0:    f0170f08    ....    TST      r7,#8
        0x000193e4:    d027        '.      BEQ      0x19436 ; am_hal_i2s_interrupt_service + 386
        0x000193e6:    f8d50218    ....    LDR      r0,[r5,#0x218]
        0x000193ea:    f0100f04    ....    TST      r0,#4
        0x000193ee:    bf1c        ..      ITT      NE
        0x000193f0:    f8c56200    ...b    STRNE    r6,[r5,#0x200]
        0x000193f4:    f8c56218    ...b    STRNE    r6,[r5,#0x218]
        0x000193f8:    2100        .!      MOVS     r1,#0
        0x000193fa:    2001        .       MOVS     r0,#1
        0x000193fc:    f7fffb32    ..2.    BL       am_hal_daxi_control ; 0x18a64
        0x00019400:    f8d50200    ....    LDR      r0,[r5,#0x200]
        0x00019404:    f0200010     ...    BIC      r0,r0,#0x10
        0x00019408:    f8c50200    ....    STR      r0,[r5,#0x200]
        0x0001940c:    f8c56218    ...b    STR      r6,[r5,#0x218]
        0x00019410:    6ca1        .l      LDR      r1,[r4,#0x48]
        0x00019412:    6c20         l      LDR      r0,[r4,#0x40]
        0x00019414:    4281        .B      CMP      r1,r0
        0x00019416:    bf08        ..      IT       EQ
        0x00019418:    6be0        .k      LDREQ    r0,[r4,#0x3c]
        0x0001941a:    64a0        .d      STR      r0,[r4,#0x48]
        0x0001941c:    f8c50214    ....    STR      r0,[r5,#0x214]
        0x00019420:    f8d80014    ....    LDR      r0,[r8,#0x14]
        0x00019424:    6940        @i      LDR      r0,[r0,#0x14]
        0x00019426:    f8c50210    ....    STR      r0,[r5,#0x210]
        0x0001942a:    f8d50200    ....    LDR      r0,[r5,#0x200]
        0x0001942e:    f0400010    @...    ORR      r0,r0,#0x10
        0x00019432:    f8c50200    ....    STR      r0,[r5,#0x200]
        0x00019436:    f0170f01    ....    TST      r7,#1
        0x0001943a:    d0a9        ..      BEQ      0x19390 ; am_hal_i2s_interrupt_service + 220
        0x0001943c:    6ce8        .l      LDR      r0,[r5,#0x4c]
        0x0001943e:    f4102f00    .../    TST      r0,#0x80000
        0x00019442:    d003        ..      BEQ      0x1944c ; am_hal_i2s_interrupt_service + 408
        0x00019444:    6ce9        .l      LDR      r1,[r5,#0x4c]
        0x00019446:    f4212100    !..!    BIC      r1,r1,#0x80000
        0x0001944a:    64e9        .d      STR      r1,[r5,#0x4c]
        0x0001944c:    f4103f00    ...?    TST      r0,#0x20000
        0x00019450:    d003        ..      BEQ      0x1945a ; am_hal_i2s_interrupt_service + 422
        0x00019452:    6ce9        .l      LDR      r1,[r5,#0x4c]
        0x00019454:    f4213100    !..1    BIC      r1,r1,#0x20000
        0x00019458:    64e9        .d      STR      r1,[r5,#0x4c]
        0x0001945a:    f4102f80    .../    TST      r0,#0x40000
        0x0001945e:    d003        ..      BEQ      0x19468 ; am_hal_i2s_interrupt_service + 436
        0x00019460:    6ce9        .l      LDR      r1,[r5,#0x4c]
        0x00019462:    f4212180    !..!    BIC      r1,r1,#0x40000
        0x00019466:    64e9        .d      STR      r1,[r5,#0x4c]
        0x00019468:    f4103f80    ...?    TST      r0,#0x10000
        0x0001946c:    d090        ..      BEQ      0x19390 ; am_hal_i2s_interrupt_service + 220
        0x0001946e:    e78b        ..      B        0x19388 ; am_hal_i2s_interrupt_service + 212
    $d
        0x00019470:    40208000    .. @    DCD    1075871744
    $t
    i.am_hal_i2s_interrupt_status_get
    am_hal_i2s_interrupt_status_get
        0x00019474:    2800        .(      CMP      r0,#0
        0x00019476:    bf1c        ..      ITT      NE
        0x00019478:    6800        .h      LDRNE    r0,[r0,#0]
        0x0001947a:    f0107f80    ....    TSTNE    r0,#0x1000000
        0x0001947e:    d004        ..      BEQ      0x1948a ; am_hal_i2s_interrupt_status_get + 22
        0x00019480:    4b0a        .K      LDR      r3,[pc,#40] ; [0x194ac] = 0x125125
        0x00019482:    f020407f     ..@    BIC      r0,r0,#0xff000000
        0x00019486:    4298        .B      CMP      r0,r3
        0x00019488:    d001        ..      BEQ      0x1948e ; am_hal_i2s_interrupt_status_get + 26
        0x0001948a:    2002        .       MOVS     r0,#2
        0x0001948c:    4770        pG      BX       lr
        0x0001948e:    4808        .H      LDR      r0,[pc,#32] ; [0x194b0] = 0x40208000
        0x00019490:    2a00        .*      CMP      r2,#0
        0x00019492:    bf08        ..      IT       EQ
        0x00019494:    f8d00304    ....    LDREQ    r0,[r0,#0x304]
        0x00019498:    d005        ..      BEQ      0x194a6 ; am_hal_i2s_interrupt_status_get + 50
        0x0001949a:    f8d02304    ...#    LDR      r2,[r0,#0x304]
        0x0001949e:    600a        .`      STR      r2,[r1,#0]
        0x000194a0:    f8d00300    ....    LDR      r0,[r0,#0x300]
        0x000194a4:    4010        .@      ANDS     r0,r0,r2
        0x000194a6:    6008        .`      STR      r0,[r1,#0]
        0x000194a8:    2000        .       MOVS     r0,#0
        0x000194aa:    4770        pG      BX       lr
    $d
        0x000194ac:    00125125    %Q..    DCD    1200421
        0x000194b0:    40208000    .. @    DCD    1075871744
    $t
    i.am_hal_i2s_power_control
    am_hal_i2s_power_control
        0x000194b4:    b570        p.      PUSH     {r4-r6,lr}
        0x000194b6:    7903        .y      LDRB     r3,[r0,#4]
        0x000194b8:    1e04        ..      SUBS     r4,r0,#0
        0x000194ba:    f1030318    ....    ADD      r3,r3,#0x18
        0x000194be:    b2db        ..      UXTB     r3,r3
        0x000194c0:    bf1c        ..      ITT      NE
        0x000194c2:    6820         h      LDRNE    r0,[r4,#0]
        0x000194c4:    f0107f80    ....    TSTNE    r0,#0x1000000
        0x000194c8:    d005        ..      BEQ      0x194d6 ; am_hal_i2s_power_control + 34
        0x000194ca:    f8dfc0ac    ....    LDR      r12,[pc,#172] ; [0x19578] = 0x125125
        0x000194ce:    f020407f     ..@    BIC      r0,r0,#0xff000000
        0x000194d2:    4560        `E      CMP      r0,r12
        0x000194d4:    d001        ..      BEQ      0x194da ; am_hal_i2s_power_control + 38
        0x000194d6:    2002        .       MOVS     r0,#2
        0x000194d8:    bd70        p.      POP      {r4-r6,pc}
        0x000194da:    4d28        (M      LDR      r5,[pc,#160] ; [0x1957c] = 0x40208000
        0x000194dc:    b321        !.      CBZ      r1,0x19528 ; am_hal_i2s_power_control + 116
        0x000194de:    2901        .)      CMP      r1,#1
        0x000194e0:    bf1e        ..      ITTT     NE
        0x000194e2:    2902        .)      CMPNE    r1,#2
        0x000194e4:    2006        .       MOVNE    r0,#6
        0x000194e6:    bd70        p.      POPNE    {r4-r6,pc}
        0x000194e8:    b1ca        ..      CBZ      r2,0x1951e ; am_hal_i2s_power_control + 106
        0x000194ea:    6ca8        .l      LDR      r0,[r5,#0x48]
        0x000194ec:    60e0        .`      STR      r0,[r4,#0xc]
        0x000194ee:    6c28        (l      LDR      r0,[r5,#0x40]
        0x000194f0:    6120         a      STR      r0,[r4,#0x10]
        0x000194f2:    6c68        hl      LDR      r0,[r5,#0x44]
        0x000194f4:    6160        `a      STR      r0,[r4,#0x14]
        0x000194f6:    6d68        hm      LDR      r0,[r5,#0x54]
        0x000194f8:    61a0        .a      STR      r0,[r4,#0x18]
        0x000194fa:    f8d50100    ....    LDR      r0,[r5,#0x100]
        0x000194fe:    61e0        .a      STR      r0,[r4,#0x1c]
        0x00019500:    6ce8        .l      LDR      r0,[r5,#0x4c]
        0x00019502:    6220         b      STR      r0,[r4,#0x20]
        0x00019504:    6928        (i      LDR      r0,[r5,#0x10]
        0x00019506:    6260        `b      STR      r0,[r4,#0x24]
        0x00019508:    6b28        (k      LDR      r0,[r5,#0x30]
        0x0001950a:    62a0        .b      STR      r0,[r4,#0x28]
        0x0001950c:    f8d50300    ....    LDR      r0,[r5,#0x300]
        0x00019510:    62e0        .b      STR      r0,[r4,#0x2c]
        0x00019512:    f8d50200    ....    LDR      r0,[r5,#0x200]
        0x00019516:    6320         c      STR      r0,[r4,#0x30]
        0x00019518:    f04f0001    O...    MOV      r0,#1
        0x0001951c:    7220         r      STRB     r0,[r4,#8]
        0x0001951e:    4618        .F      MOV      r0,r3
        0x00019520:    f000f9da    ....    BL       am_hal_pwrctrl_periph_disable ; 0x198d8
        0x00019524:    2000        .       MOVS     r0,#0
        0x00019526:    bd70        p.      POP      {r4-r6,pc}
        0x00019528:    b30a        ..      CBZ      r2,0x1956e ; am_hal_i2s_power_control + 186
        0x0001952a:    7a20         z      LDRB     r0,[r4,#8]
        0x0001952c:    2800        .(      CMP      r0,#0
        0x0001952e:    bf04        ..      ITT      EQ
        0x00019530:    2007        .       MOVEQ    r0,#7
        0x00019532:    bd70        p.      POPEQ    {r4-r6,pc}
        0x00019534:    4618        .F      MOV      r0,r3
        0x00019536:    f000fa65    ..e.    BL       am_hal_pwrctrl_periph_enable ; 0x19a04
        0x0001953a:    68e0        .h      LDR      r0,[r4,#0xc]
        0x0001953c:    64a8        .d      STR      r0,[r5,#0x48]
        0x0001953e:    6920         i      LDR      r0,[r4,#0x10]
        0x00019540:    6428        (d      STR      r0,[r5,#0x40]
        0x00019542:    6960        `i      LDR      r0,[r4,#0x14]
        0x00019544:    6468        hd      STR      r0,[r5,#0x44]
        0x00019546:    69a0        .i      LDR      r0,[r4,#0x18]
        0x00019548:    6568        he      STR      r0,[r5,#0x54]
        0x0001954a:    69e0        .i      LDR      r0,[r4,#0x1c]
        0x0001954c:    f8c50100    ....    STR      r0,[r5,#0x100]
        0x00019550:    6a20         j      LDR      r0,[r4,#0x20]
        0x00019552:    64e8        .d      STR      r0,[r5,#0x4c]
        0x00019554:    6a60        `j      LDR      r0,[r4,#0x24]
        0x00019556:    6128        (a      STR      r0,[r5,#0x10]
        0x00019558:    6aa0        .j      LDR      r0,[r4,#0x28]
        0x0001955a:    6328        (c      STR      r0,[r5,#0x30]
        0x0001955c:    6ae0        .j      LDR      r0,[r4,#0x2c]
        0x0001955e:    f8c50300    ....    STR      r0,[r5,#0x300]
        0x00019562:    6b20         k      LDR      r0,[r4,#0x30]
        0x00019564:    f8c50200    ....    STR      r0,[r5,#0x200]
        0x00019568:    2000        .       MOVS     r0,#0
        0x0001956a:    7220         r      STRB     r0,[r4,#8]
        0x0001956c:    e7da        ..      B        0x19524 ; am_hal_i2s_power_control + 112
        0x0001956e:    4618        .F      MOV      r0,r3
        0x00019570:    f000fa48    ..H.    BL       am_hal_pwrctrl_periph_enable ; 0x19a04
        0x00019574:    e7d6        ..      B        0x19524 ; am_hal_i2s_power_control + 112
    $d
        0x00019576:    0000        ..      DCW    0
        0x00019578:    00125125    %Q..    DCD    1200421
        0x0001957c:    40208000    .. @    DCD    1075871744
    $t
    i.am_hal_itm_enable
    am_hal_itm_enable
        0x00019580:    480a        .H      LDR      r0,[pc,#40] ; [0x195ac] = 0xe000edfc
        0x00019582:    6801        .h      LDR      r1,[r0,#0]
        0x00019584:    f0417180    A..q    ORR      r1,r1,#0x1000000
        0x00019588:    6001        .`      STR      r1,[r0,#0]
        0x0001958a:    6801        .h      LDR      r1,[r0,#0]
        0x0001958c:    f0117f80    ....    TST      r1,#0x1000000
        0x00019590:    d0fb        ..      BEQ      0x1958a ; am_hal_itm_enable + 10
        0x00019592:    4908        .I      LDR      r1,[pc,#32] ; [0x195b4] = 0xe0000fb0
        0x00019594:    4806        .H      LDR      r0,[pc,#24] ; [0x195b0] = 0xc5acce55
        0x00019596:    6008        .`      STR      r0,[r1,#0]
        0x00019598:    4907        .I      LDR      r1,[pc,#28] ; [0x195b8] = 0xe0000e40
        0x0001959a:    200f        .       MOVS     r0,#0xf
        0x0001959c:    6008        .`      STR      r0,[r1,#0]
        0x0001959e:    1748        H.      ASRS     r0,r1,#29
        0x000195a0:    4906        .I      LDR      r1,[pc,#24] ; [0x195bc] = 0xe0000e00
        0x000195a2:    6008        .`      STR      r0,[r1,#0]
        0x000195a4:    4907        .I      LDR      r1,[pc,#28] ; [0x195c4] = 0xe0000e80
        0x000195a6:    4806        .H      LDR      r0,[pc,#24] ; [0x195c0] = 0x150511
        0x000195a8:    6008        .`      STR      r0,[r1,#0]
        0x000195aa:    4770        pG      BX       lr
    $d
        0x000195ac:    e000edfc    ....    DCD    3758157308
        0x000195b0:    c5acce55    U...    DCD    3316436565
        0x000195b4:    e0000fb0    ....    DCD    3758100400
        0x000195b8:    e0000e40    @...    DCD    3758100032
        0x000195bc:    e0000e00    ....    DCD    3758099968
        0x000195c0:    00150511    ....    DCD    1377553
        0x000195c4:    e0000e80    ....    DCD    3758100096
    $t
    i.am_hal_itm_print
    am_hal_itm_print
        0x000195c8:    7802        .x      LDRB     r2,[r0,#0]
        0x000195ca:    2100        .!      MOVS     r1,#0
        0x000195cc:    2a00        .*      CMP      r2,#0
        0x000195ce:    bf08        ..      IT       EQ
        0x000195d0:    4770        pG      BXEQ     lr
        0x000195d2:    1c49        I.      ADDS     r1,r1,#1
        0x000195d4:    5c42        B\      LDRB     r2,[r0,r1]
        0x000195d6:    2a00        .*      CMP      r2,#0
        0x000195d8:    d1fb        ..      BNE      0x195d2 ; am_hal_itm_print + 10
        0x000195da:    2900        .)      CMP      r1,#0
        0x000195dc:    bf08        ..      IT       EQ
        0x000195de:    4770        pG      BXEQ     lr
        0x000195e0:    f810cb01    ....    LDRB     r12,[r0],#1
        0x000195e4:    f04f4260    O.`B    MOV      r2,#0xe0000000
        0x000195e8:    6813        .h      LDR      r3,[r2,#0]
        0x000195ea:    2b00        .+      CMP      r3,#0
        0x000195ec:    d0fc        ..      BEQ      0x195e8 ; am_hal_itm_print + 32
        0x000195ee:    f882c000    ....    STRB     r12,[r2,#0]
        0x000195f2:    1e49        I.      SUBS     r1,r1,#1
        0x000195f4:    d1f4        ..      BNE      0x195e0 ; am_hal_itm_print + 24
        0x000195f6:    4770        pG      BX       lr
    i.am_hal_mcuctrl_control
    am_hal_mcuctrl_control
        0x000195f8:    e92d47f0    -..G    PUSH     {r4-r10,lr}
        0x000195fc:    4eb2        .N      LDR      r6,[pc,#712] ; [0x198c8] = 0x100000a8
        0x000195fe:    f8df82cc    ....    LDR      r8,[pc,#716] ; [0x198cc] = 0xfff8c00
        0x00019602:    4cb3        .L      LDR      r4,[pc,#716] ; [0x198d0] = 0x40020000
        0x00019604:    4db3        .M      LDR      r5,[pc,#716] ; [0x198d4] = 0x10000738
        0x00019606:    b082        ..      SUB      sp,sp,#8
        0x00019608:    f04f0901    O...    MOV      r9,#1
        0x0001960c:    f44f7770    O.pw    MOV      r7,#0x3c0
        0x00019610:    f04f0a00    O...    MOV      r10,#0
        0x00019614:    2806        .(      CMP      r0,#6
        0x00019616:    f0808152    ..R.    BCS.W    0x198be ; am_hal_mcuctrl_control + 710
        0x0001961a:    e8dff000    ....    TBB      [pc,r0]
    $d
        0x0001961e:    1303        ..      DCW    4867
        0x00019620:    26fdac41    A..&    DCD    654158913
    $t
        0x00019624:    f7fefea0    ....    BL       am_hal_interrupt_master_disable ; 0x18368
        0x00019628:    9001        ..      STR      r0,[sp,#4]
        0x0001962a:    f8d40120    .. .    LDR      r0,[r4,#0x120]
        0x0001962e:    f020001f     ...    BIC      r0,r0,#0x1f
        0x00019632:    f0400019    @...    ORR      r0,r0,#0x19
        0x00019636:    9000        ..      STR      r0,[sp,#0]
        0x00019638:    f8c40120    .. .    STR      r0,[r4,#0x120]
        0x0001963c:    9801        ..      LDR      r0,[sp,#4]
        0x0001963e:    f7fefe97    ....    BL       am_hal_interrupt_master_set ; 0x18370
        0x00019642:    e00e        ..      B        0x19662 ; am_hal_mcuctrl_control + 106
        0x00019644:    f7fefe90    ....    BL       am_hal_interrupt_master_disable ; 0x18368
        0x00019648:    9001        ..      STR      r0,[sp,#4]
        0x0001964a:    f8d40120    .. .    LDR      r0,[r4,#0x120]
        0x0001964e:    f020001f     ...    BIC      r0,r0,#0x1f
        0x00019652:    f0400018    @...    ORR      r0,r0,#0x18
        0x00019656:    9000        ..      STR      r0,[sp,#0]
        0x00019658:    f8c40120    .. .    STR      r0,[r4,#0x120]
        0x0001965c:    9801        ..      LDR      r0,[sp,#4]
        0x0001965e:    f7fefe87    ....    BL       am_hal_interrupt_master_set ; 0x18370
        0x00019662:    b002        ..      ADD      sp,sp,#8
        0x00019664:    2000        .       MOVS     r0,#0
        0x00019666:    e8bd87f0    ....    POP      {r4-r10,pc}
        0x0001966a:    2900        .)      CMP      r1,#0
        0x0001966c:    f0008127    ..'.    BEQ.W    0x198be ; am_hal_mcuctrl_control + 710
        0x00019670:    4898        .H      LDR      r0,[pc,#608] ; [0x198d4] = 0x10000738
        0x00019672:    7809        .x      LDRB     r1,[r1,#0]
        0x00019674:    6840        @h      LDR      r0,[r0,#4]
        0x00019676:    2900        .)      CMP      r1,#0
        0x00019678:    bf0c        ..      ITE      EQ
        0x0001967a:    f4203000     ..0    BICEQ    r0,r0,#0x20000
        0x0001967e:    f4403000    @..0    ORRNE    r0,r0,#0x20000
        0x00019682:    6068        h`      STR      r0,[r5,#4]
        0x00019684:    2800        .(      CMP      r0,#0
        0x00019686:    f8d4012c    ..,.    LDR      r0,[r4,#0x12c]
        0x0001968a:    bf14        ..      ITE      NE
        0x0001968c:    f0400080    @...    ORRNE    r0,r0,#0x80
        0x00019690:    f0200080     ...    BICEQ    r0,r0,#0x80
        0x00019694:    f8c4012c    ..,.    STR      r0,[r4,#0x12c]
        0x00019698:    b002        ..      ADD      sp,sp,#8
        0x0001969a:    4650        PF      MOV      r0,r10
        0x0001969c:    e8bd87f0    ....    POP      {r4-r10,pc}
        0x000196a0:    ea5f0a01    _...    MOVS     r10,r1
        0x000196a4:    f000810b    ....    BEQ.W    0x198be ; am_hal_mcuctrl_control + 710
        0x000196a8:    f7fefe5e    ..^.    BL       am_hal_interrupt_master_disable ; 0x18368
        0x000196ac:    9000        ..      STR      r0,[sp,#0]
        0x000196ae:    6828        (h      LDR      r0,[r5,#0]
        0x000196b0:    1c01        ..      ADDS     r1,r0,#0
        0x000196b2:    bf18        ..      IT       NE
        0x000196b4:    2101        .!      MOVNE    r1,#1
        0x000196b6:    f89a2004    ...     LDRB     r2,[r10,#4]
        0x000196ba:    b1c2        ..      CBZ      r2,0x196ee ; am_hal_mcuctrl_control + 246
        0x000196bc:    f8da2000    ...     LDR      r2,[r10,#0]
        0x000196c0:    4310        .C      ORRS     r0,r0,r2
        0x000196c2:    6028        (`      STR      r0,[r5,#0]
        0x000196c4:    f89a2007    ...     LDRB     r2,[r10,#7]
        0x000196c8:    f8da0000    ....    LDR      r0,[r10,#0]
        0x000196cc:    2a00        .*      CMP      r2,#0
        0x000196ce:    686a        jh      LDR      r2,[r5,#4]
        0x000196d0:    bf0c        ..      ITE      EQ
        0x000196d2:    ea220000    "...    BICEQ    r0,r2,r0
        0x000196d6:    4310        .C      ORRNE    r0,r0,r2
        0x000196d8:    6068        h`      STR      r0,[r5,#4]
        0x000196da:    2800        .(      CMP      r0,#0
        0x000196dc:    f8d4012c    ..,.    LDR      r0,[r4,#0x12c]
        0x000196e0:    bf14        ..      ITE      NE
        0x000196e2:    f0400080    @...    ORRNE    r0,r0,#0x80
        0x000196e6:    f0200080     ...    BICEQ    r0,r0,#0x80
        0x000196ea:    f8c4012c    ..,.    STR      r0,[r4,#0x12c]
        0x000196ee:    6828        (h      LDR      r0,[r5,#0]
        0x000196f0:    2800        .(      CMP      r0,#0
        0x000196f2:    bf18        ..      IT       NE
        0x000196f4:    2001        .       MOVNE    r0,#1
        0x000196f6:    4388        .C      BICS     r0,r0,r1
        0x000196f8:    bf04        ..      ITT      EQ
        0x000196fa:    f89a0006    ....    LDRBEQ   r0,[r10,#6]
        0x000196fe:    2800        .(      CMPEQ    r0,#0
        0x00019700:    f00080d6    ....    BEQ.W    0x198b0 ; am_hal_mcuctrl_control + 696
        0x00019704:    f8859008    ....    STRB     r9,[r5,#8]
        0x00019708:    7830        0x      LDRB     r0,[r6,#0]
        0x0001970a:    6871        qh      LDR      r1,[r6,#4]
        0x0001970c:    f000003f    ..?.    AND      r0,r0,#0x3f
        0x00019710:    ea071181    ....    AND      r1,r7,r1,LSL #6
        0x00019714:    ea400001    @...    ORR      r0,r0,r1
        0x00019718:    ea400008    @...    ORR      r0,r0,r8
        0x0001971c:    f8c40128    ..(.    STR      r0,[r4,#0x128]
        0x00019720:    f8d4012c    ..,.    LDR      r0,[r4,#0x12c]
        0x00019724:    f0200022     .".    BIC      r0,r0,#0x22
        0x00019728:    f0400002    @...    ORR      r0,r0,#2
        0x0001972c:    f8c4012c    ..,.    STR      r0,[r4,#0x12c]
        0x00019730:    f0400001    @...    ORR      r0,r0,#1
        0x00019734:    f8c4012c    ..,.    STR      r0,[r4,#0x12c]
        0x00019738:    f0400010    @...    ORR      r0,r0,#0x10
        0x0001973c:    f8c4012c    ..,.    STR      r0,[r4,#0x12c]
        0x00019740:    f0400008    @...    ORR      r0,r0,#8
        0x00019744:    f8c4012c    ..,.    STR      r0,[r4,#0x12c]
        0x00019748:    f04f0005    O...    MOV      r0,#5
        0x0001974c:    f7fffa84    ....    BL       am_hal_delay_us ; 0x18c58
        0x00019750:    f8d4012c    ..,.    LDR      r0,[r4,#0x12c]
        0x00019754:    f89a1005    ....    LDRB     r1,[r10,#5]
        0x00019758:    f0200010     ...    BIC      r0,r0,#0x10
        0x0001975c:    2900        .)      CMP      r1,#0
        0x0001975e:    bf1c        ..      ITT      NE
        0x00019760:    f0200009     ...    BICNE    r0,r0,#9
        0x00019764:    f4207080     ..p    BICNE    r0,r0,#0x100
        0x00019768:    d002        ..      BEQ      0x19770 ; am_hal_mcuctrl_control + 376
        0x0001976a:    bf00        ..      NOP      
        0x0001976c:    f4407080    @..p    ORR      r0,r0,#0x100
        0x00019770:    f8c4012c    ..,.    STR      r0,[r4,#0x12c]
        0x00019774:    e09c        ..      B        0x198b0 ; am_hal_mcuctrl_control + 696
        0x00019776:    ea5f0901    _...    MOVS     r9,r1
        0x0001977a:    d07d        }.      BEQ      0x19878 ; am_hal_mcuctrl_control + 640
        0x0001977c:    f7fefdf4    ....    BL       am_hal_interrupt_master_disable ; 0x18368
        0x00019780:    9000        ..      STR      r0,[sp,#0]
        0x00019782:    6828        (h      LDR      r0,[r5,#0]
        0x00019784:    1c01        ..      ADDS     r1,r0,#0
        0x00019786:    bf18        ..      IT       NE
        0x00019788:    2101        .!      MOVNE    r1,#1
        0x0001978a:    f8992004    ...     LDRB     r2,[r9,#4]
        0x0001978e:    b1c2        ..      CBZ      r2,0x197c2 ; am_hal_mcuctrl_control + 458
        0x00019790:    f8d92000    ...     LDR      r2,[r9,#0]
        0x00019794:    4310        .C      ORRS     r0,r0,r2
        0x00019796:    6028        (`      STR      r0,[r5,#0]
        0x00019798:    f8992007    ...     LDRB     r2,[r9,#7]
        0x0001979c:    f8d90000    ....    LDR      r0,[r9,#0]
        0x000197a0:    2a00        .*      CMP      r2,#0
        0x000197a2:    686a        jh      LDR      r2,[r5,#4]
        0x000197a4:    bf0c        ..      ITE      EQ
        0x000197a6:    ea220000    "...    BICEQ    r0,r2,r0
        0x000197aa:    4310        .C      ORRNE    r0,r0,r2
        0x000197ac:    6068        h`      STR      r0,[r5,#4]
        0x000197ae:    2800        .(      CMP      r0,#0
        0x000197b0:    f8d4012c    ..,.    LDR      r0,[r4,#0x12c]
        0x000197b4:    bf14        ..      ITE      NE
        0x000197b6:    f0400080    @...    ORRNE    r0,r0,#0x80
        0x000197ba:    f0200080     ...    BICEQ    r0,r0,#0x80
        0x000197be:    f8c4012c    ..,.    STR      r0,[r4,#0x12c]
        0x000197c2:    6828        (h      LDR      r0,[r5,#0]
        0x000197c4:    2800        .(      CMP      r0,#0
        0x000197c6:    bf18        ..      IT       NE
        0x000197c8:    2001        .       MOVNE    r0,#1
        0x000197ca:    4388        .C      BICS     r0,r0,r1
        0x000197cc:    bf04        ..      ITT      EQ
        0x000197ce:    f8990006    ....    LDRBEQ   r0,[r9,#6]
        0x000197d2:    2800        .(      CMPEQ    r0,#0
        0x000197d4:    d06c        l.      BEQ      0x198b0 ; am_hal_mcuctrl_control + 696
        0x000197d6:    7830        0x      LDRB     r0,[r6,#0]
        0x000197d8:    6871        qh      LDR      r1,[r6,#4]
        0x000197da:    f000003f    ..?.    AND      r0,r0,#0x3f
        0x000197de:    ea071181    ....    AND      r1,r7,r1,LSL #6
        0x000197e2:    ea400001    @...    ORR      r0,r0,r1
        0x000197e6:    ea400008    @...    ORR      r0,r0,r8
        0x000197ea:    f8c40128    ..(.    STR      r0,[r4,#0x128]
        0x000197ee:    f8d4012c    ..,.    LDR      r0,[r4,#0x12c]
        0x000197f2:    f0400022    @.".    ORR      r0,r0,#0x22
        0x000197f6:    f8c4012c    ..,.    STR      r0,[r4,#0x12c]
        0x000197fa:    f0400001    @...    ORR      r0,r0,#1
        0x000197fe:    f8c4012c    ..,.    STR      r0,[r4,#0x12c]
        0x00019802:    f8991005    ....    LDRB     r1,[r9,#5]
        0x00019806:    2900        .)      CMP      r1,#0
        0x00019808:    bf1a        ..      ITTE     NE
        0x0001980a:    f0200001     ...    BICNE    r0,r0,#1
        0x0001980e:    f4207080     ..p    BICNE    r0,r0,#0x100
        0x00019812:    f0200028     .(.    BICEQ    r0,r0,#0x28
        0x00019816:    e000        ..      B        0x1981a ; am_hal_mcuctrl_control + 546
        0x00019818:    e004        ..      B        0x19824 ; am_hal_mcuctrl_control + 556
        0x0001981a:    bf08        ..      IT       EQ
        0x0001981c:    f0400008    @...    ORREQ    r0,r0,#8
        0x00019820:    d0a6        ..      BEQ      0x19770 ; am_hal_mcuctrl_control + 376
        0x00019822:    e7a3        ..      B        0x1976c ; am_hal_mcuctrl_control + 372
        0x00019824:    ea5f0801    _...    MOVS     r8,r1
        0x00019828:    d049        I.      BEQ      0x198be ; am_hal_mcuctrl_control + 710
        0x0001982a:    f7fefd9d    ....    BL       am_hal_interrupt_master_disable ; 0x18368
        0x0001982e:    9000        ..      STR      r0,[sp,#0]
        0x00019830:    f8980004    ....    LDRB     r0,[r8,#4]
        0x00019834:    b1d0        ..      CBZ      r0,0x1986c ; am_hal_mcuctrl_control + 628
        0x00019836:    f8d80000    ....    LDR      r0,[r8,#0]
        0x0001983a:    6829        )h      LDR      r1,[r5,#0]
        0x0001983c:    ea210000    !...    BIC      r0,r1,r0
        0x00019840:    6028        (`      STR      r0,[r5,#0]
        0x00019842:    f8981007    ....    LDRB     r1,[r8,#7]
        0x00019846:    f8d80000    ....    LDR      r0,[r8,#0]
        0x0001984a:    2900        .)      CMP      r1,#0
        0x0001984c:    6869        ih      LDR      r1,[r5,#4]
        0x0001984e:    bf0c        ..      ITE      EQ
        0x00019850:    ea210000    !...    BICEQ    r0,r1,r0
        0x00019854:    4308        .C      ORRNE    r0,r0,r1
        0x00019856:    6068        h`      STR      r0,[r5,#4]
        0x00019858:    2800        .(      CMP      r0,#0
        0x0001985a:    f8d4012c    ..,.    LDR      r0,[r4,#0x12c]
        0x0001985e:    bf14        ..      ITE      NE
        0x00019860:    f0400080    @...    ORRNE    r0,r0,#0x80
        0x00019864:    f0200080     ...    BICEQ    r0,r0,#0x80
        0x00019868:    f8c4012c    ..,.    STR      r0,[r4,#0x12c]
        0x0001986c:    6828        (h      LDR      r0,[r5,#0]
        0x0001986e:    b110        ..      CBZ      r0,0x19876 ; am_hal_mcuctrl_control + 638
        0x00019870:    f8980006    ....    LDRB     r0,[r8,#6]
        0x00019874:    b1e0        ..      CBZ      r0,0x198b0 ; am_hal_mcuctrl_control + 696
        0x00019876:    e000        ..      B        0x1987a ; am_hal_mcuctrl_control + 642
        0x00019878:    e021        !.      B        0x198be ; am_hal_mcuctrl_control + 710
        0x0001987a:    f885a008    ....    STRB     r10,[r5,#8]
        0x0001987e:    f8c5a000    ....    STR      r10,[r5,#0]
        0x00019882:    7830        0x      LDRB     r0,[r6,#0]
        0x00019884:    6871        qh      LDR      r1,[r6,#4]
        0x00019886:    f000003f    ..?.    AND      r0,r0,#0x3f
        0x0001988a:    ea071181    ....    AND      r1,r7,r1,LSL #6
        0x0001988e:    4308        .C      ORRS     r0,r0,r1
        0x00019890:    f44030f8    @..0    ORR      r0,r0,#0x1f000
        0x00019894:    f0407044    @.Dp    ORR      r0,r0,#0x3100000
        0x00019898:    f8c40128    ..(.    STR      r0,[r4,#0x128]
        0x0001989c:    f8d4012c    ..,.    LDR      r0,[r4,#0x12c]
        0x000198a0:    f020002b     .+.    BIC      r0,r0,#0x2b
        0x000198a4:    f4207080     ..p    BIC      r0,r0,#0x100
        0x000198a8:    f0400002    @...    ORR      r0,r0,#2
        0x000198ac:    f8c4012c    ..,.    STR      r0,[r4,#0x12c]
        0x000198b0:    9800        ..      LDR      r0,[sp,#0]
        0x000198b2:    f7fefd5d    ..].    BL       am_hal_interrupt_master_set ; 0x18370
        0x000198b6:    b002        ..      ADD      sp,sp,#8
        0x000198b8:    2000        .       MOVS     r0,#0
        0x000198ba:    e8bd87f0    ....    POP      {r4-r10,pc}
        0x000198be:    b002        ..      ADD      sp,sp,#8
        0x000198c0:    2006        .       MOVS     r0,#6
        0x000198c2:    e8bd87f0    ....    POP      {r4-r10,pc}
    $d
        0x000198c6:    0000        ..      DCW    0
        0x000198c8:    100000a8    ....    DCD    268435624
        0x000198cc:    0fff8c00    ....    DCD    268405760
        0x000198d0:    40020000    ...@    DCD    1073872896
        0x000198d4:    10000738    8...    DCD    268437304
    $t
    i.am_hal_pwrctrl_periph_disable
    am_hal_pwrctrl_periph_disable
        0x000198d8:    2819        .(      CMP      r0,#0x19
        0x000198da:    bf24        $.      ITT      CS
        0x000198dc:    2006        .       MOVCS    r0,#6
        0x000198de:    4770        pG      BXCS     lr
        0x000198e0:    e92d43f8    -..C    PUSH     {r3-r9,lr}
        0x000198e4:    4941        AI      LDR      r1,[pc,#260] ; [0x199ec] = 0x1b328
        0x000198e6:    4602        .F      MOV      r2,r0
        0x000198e8:    eb011800    ....    ADD      r8,r1,r0,LSL #4
        0x000198ec:    2500        .%      MOVS     r5,#0
        0x000198ee:    e9d86900    ...i    LDRD     r6,r9,[r8,#0]
        0x000198f2:    e9d87402    ...t    LDRD     r7,r4,[r8,#8]
        0x000198f6:    6831        1h      LDR      r1,[r6,#0]
        0x000198f8:    ea110f09    ....    TST      r1,r9
        0x000198fc:    bf04        ..      ITT      EQ
        0x000198fe:    2000        .       MOVEQ    r0,#0
        0x00019900:    e8bd83f8    ....    POPEQ    {r3-r9,pc}
        0x00019904:    2a12        .*      CMP      r2,#0x12
        0x00019906:    d123        #.      BNE      0x19950 ; am_hal_pwrctrl_periph_disable + 120
        0x00019908:    4839        9H      LDR      r0,[pc,#228] ; [0x199f0] = 0x400c0fe0
        0x0001990a:    6800        .h      LDR      r0,[r0,#0]
        0x0001990c:    28c0        .(      CMP      r0,#0xc0
        0x0001990e:    d11f        ..      BNE      0x19950 ; am_hal_pwrctrl_periph_disable + 120
        0x00019910:    2301        .#      MOVS     r3,#1
        0x00019912:    461a        .F      MOV      r2,r3
        0x00019914:    4937        7I      LDR      r1,[pc,#220] ; [0x199f4] = 0x400c0a7c
        0x00019916:    2064        d       MOVS     r0,#0x64
        0x00019918:    f7fff9b4    ....    BL       am_hal_delay_us_status_change ; 0x18c84
        0x0001991c:    2800        .(      CMP      r0,#0
        0x0001991e:    bf18        ..      IT       NE
        0x00019920:    e8bd83f8    ....    POPNE    {r3-r9,pc}
        0x00019924:    2301        .#      MOVS     r3,#1
        0x00019926:    461a        .F      MOV      r2,r3
        0x00019928:    4933        3I      LDR      r1,[pc,#204] ; [0x199f8] = 0x400c1f10
        0x0001992a:    2064        d       MOVS     r0,#0x64
        0x0001992c:    f7fff9aa    ....    BL       am_hal_delay_us_status_change ; 0x18c84
        0x00019930:    2800        .(      CMP      r0,#0
        0x00019932:    bf18        ..      IT       NE
        0x00019934:    e8bd83f8    ....    POPNE    {r3-r9,pc}
        0x00019938:    4830        0H      LDR      r0,[pc,#192] ; [0x199fc] = 0x400c0a80
        0x0001993a:    6801        .h      LDR      r1,[r0,#0]
        0x0001993c:    f0410101    A...    ORR      r1,r1,#1
        0x00019940:    6001        .`      STR      r1,[r0,#0]
        0x00019942:    482f        /H      LDR      r0,[pc,#188] ; [0x19a00] = 0x100000f0
        0x00019944:    6a01        .j      LDR      r1,[r0,#0x20]
        0x00019946:    2900        .)      CMP      r1,#0
        0x00019948:    bf1c        ..      ITT      NE
        0x0001994a:    2000        .       MOVNE    r0,#0
        0x0001994c:    f000ff88    ....    BLNE     crypto_boost_trims ; 0x1a860
        0x00019950:    f7fefd0a    ....    BL       am_hal_interrupt_master_disable ; 0x18368
        0x00019954:    9000        ..      STR      r0,[sp,#0]
        0x00019956:    6830        0h      LDR      r0,[r6,#0]
        0x00019958:    ea200009     ...    BIC      r0,r0,r9
        0x0001995c:    6030        0`      STR      r0,[r6,#0]
        0x0001995e:    9800        ..      LDR      r0,[sp,#0]
        0x00019960:    f7fefd06    ....    BL       am_hal_interrupt_master_set ; 0x18370
        0x00019964:    4623        #F      MOV      r3,r4
        0x00019966:    461a        .F      MOV      r2,r3
        0x00019968:    4639        9F      MOV      r1,r7
        0x0001996a:    2005        .       MOVS     r0,#5
        0x0001996c:    9500        ..      STR      r5,[sp,#0]
        0x0001996e:    f7fff9b5    ....    BL       am_hal_delay_us_status_check ; 0x18cdc
        0x00019972:    2800        .(      CMP      r0,#0
        0x00019974:    bf08        ..      IT       EQ
        0x00019976:    e8bd83f8    ....    POPEQ    {r3-r9,pc}
        0x0001997a:    4628        (F      MOV      r0,r5
        0x0001997c:    f8d8200c    ...     LDR      r2,[r8,#0xc]
        0x00019980:    f8d81000    ....    LDR      r1,[r8,#0]
        0x00019984:    f5b27ff0    ....    CMP      r2,#0x1e0
        0x00019988:    d029        ).      BEQ      0x199de ; am_hal_pwrctrl_periph_disable + 262
        0x0001998a:    dc0b        ..      BGT      0x199a4 ; am_hal_pwrctrl_periph_disable + 204
        0x0001998c:    2a1e        .*      CMP      r2,#0x1e
        0x0001998e:    d020         .      BEQ      0x199d2 ; am_hal_pwrctrl_periph_disable + 250
        0x00019990:    2a47        G*      CMP      r2,#0x47
        0x00019992:    bf18        ..      IT       NE
        0x00019994:    e8bd83f8    ....    POPNE    {r3-r9,pc}
        0x00019998:    680a        .h      LDR      r2,[r1,#0]
        0x0001999a:    f0120f47    ..G.    TST      r2,#0x47
        0x0001999e:    d115        ..      BNE      0x199cc ; am_hal_pwrctrl_periph_disable + 244
        0x000199a0:    e8bd83f8    ....    POP      {r3-r9,pc}
        0x000199a4:    f5b25ff0    ..._    CMP      r2,#0x1e00
        0x000199a8:    d00a        ..      BEQ      0x199c0 ; am_hal_pwrctrl_periph_disable + 232
        0x000199aa:    f5b23fe0    ...?    CMP      r2,#0x1c000
        0x000199ae:    bf18        ..      IT       NE
        0x000199b0:    e8bd83f8    ....    POPNE    {r3-r9,pc}
        0x000199b4:    680a        .h      LDR      r2,[r1,#0]
        0x000199b6:    f4123fe0    ...?    TST      r2,#0x1c000
        0x000199ba:    d107        ..      BNE      0x199cc ; am_hal_pwrctrl_periph_disable + 244
        0x000199bc:    e8bd83f8    ....    POP      {r3-r9,pc}
        0x000199c0:    680a        .h      LDR      r2,[r1,#0]
        0x000199c2:    f4125ff0    ..._    TST      r2,#0x1e00
        0x000199c6:    bf08        ..      IT       EQ
        0x000199c8:    e8bd83f8    ....    POPEQ    {r3-r9,pc}
        0x000199cc:    6809        .h      LDR      r1,[r1,#0]
        0x000199ce:    e8bd83f8    ....    POP      {r3-r9,pc}
        0x000199d2:    680a        .h      LDR      r2,[r1,#0]
        0x000199d4:    f0120f1e    ....    TST      r2,#0x1e
        0x000199d8:    d1f8        ..      BNE      0x199cc ; am_hal_pwrctrl_periph_disable + 244
        0x000199da:    e8bd83f8    ....    POP      {r3-r9,pc}
        0x000199de:    680a        .h      LDR      r2,[r1,#0]
        0x000199e0:    f4127ff0    ....    TST      r2,#0x1e0
        0x000199e4:    d1f2        ..      BNE      0x199cc ; am_hal_pwrctrl_periph_disable + 244
        0x000199e6:    e8bd83f8    ....    POP      {r3-r9,pc}
    $d
        0x000199ea:    0000        ..      DCW    0
        0x000199ec:    0001b328    (...    DCD    111400
        0x000199f0:    400c0fe0    ...@    DCD    1074532320
        0x000199f4:    400c0a7c    |..@    DCD    1074530940
        0x000199f8:    400c1f10    ...@    DCD    1074536208
        0x000199fc:    400c0a80    ...@    DCD    1074530944
        0x00019a00:    100000f0    ....    DCD    268435696
    $t
    i.am_hal_pwrctrl_periph_enable
    am_hal_pwrctrl_periph_enable
        0x00019a04:    2819        .(      CMP      r0,#0x19
        0x00019a06:    bf24        $.      ITT      CS
        0x00019a08:    2006        .       MOVCS    r0,#6
        0x00019a0a:    4770        pG      BXCS     lr
        0x00019a0c:    e92d43f8    -..C    PUSH     {r3-r9,lr}
        0x00019a10:    4926        &I      LDR      r1,[pc,#152] ; [0x19aac] = 0x1b328
        0x00019a12:    4604        .F      MOV      r4,r0
        0x00019a14:    eb011004    ....    ADD      r0,r1,r4,LSL #4
        0x00019a18:    e9d06502    ...e    LDRD     r6,r5,[r0,#8]
        0x00019a1c:    e9d08900    ....    LDRD     r8,r9,[r0,#0]
        0x00019a20:    f8d80000    ....    LDR      r0,[r8,#0]
        0x00019a24:    ea100f09    ....    TST      r0,r9
        0x00019a28:    d13c        <.      BNE      0x19aa4 ; am_hal_pwrctrl_periph_enable + 160
        0x00019a2a:    4f21        !O      LDR      r7,[pc,#132] ; [0x19ab0] = 0x100000f0
        0x00019a2c:    2c12        .,      CMP      r4,#0x12
        0x00019a2e:    d105        ..      BNE      0x19a3c ; am_hal_pwrctrl_periph_enable + 56
        0x00019a30:    6a39        9j      LDR      r1,[r7,#0x20]
        0x00019a32:    2900        .)      CMP      r1,#0
        0x00019a34:    bf1c        ..      ITT      NE
        0x00019a36:    2001        .       MOVNE    r0,#1
        0x00019a38:    f000ff12    ....    BLNE     crypto_boost_trims ; 0x1a860
        0x00019a3c:    f7fefc94    ....    BL       am_hal_interrupt_master_disable ; 0x18368
        0x00019a40:    9000        ..      STR      r0,[sp,#0]
        0x00019a42:    f8d80000    ....    LDR      r0,[r8,#0]
        0x00019a46:    ea400009    @...    ORR      r0,r0,r9
        0x00019a4a:    f8c80000    ....    STR      r0,[r8,#0]
        0x00019a4e:    9800        ..      LDR      r0,[sp,#0]
        0x00019a50:    f7fefc8e    ....    BL       am_hal_interrupt_master_set ; 0x18370
        0x00019a54:    2001        .       MOVS     r0,#1
        0x00019a56:    462b        +F      MOV      r3,r5
        0x00019a58:    9000        ..      STR      r0,[sp,#0]
        0x00019a5a:    461a        .F      MOV      r2,r3
        0x00019a5c:    4631        1F      MOV      r1,r6
        0x00019a5e:    2005        .       MOVS     r0,#5
        0x00019a60:    f7fff93c    ..<.    BL       am_hal_delay_us_status_check ; 0x18cdc
        0x00019a64:    ea5f0800    _...    MOVS     r8,r0
        0x00019a68:    d00a        ..      BEQ      0x19a80 ; am_hal_pwrctrl_periph_enable + 124
        0x00019a6a:    2c12        .,      CMP      r4,#0x12
        0x00019a6c:    d105        ..      BNE      0x19a7a ; am_hal_pwrctrl_periph_enable + 118
        0x00019a6e:    6a39        9j      LDR      r1,[r7,#0x20]
        0x00019a70:    2900        .)      CMP      r1,#0
        0x00019a72:    bf1c        ..      ITT      NE
        0x00019a74:    2000        .       MOVNE    r0,#0
        0x00019a76:    f000fef3    ....    BLNE     crypto_boost_trims ; 0x1a860
        0x00019a7a:    4640        @F      MOV      r0,r8
        0x00019a7c:    e8bd83f8    ....    POP      {r3-r9,pc}
        0x00019a80:    2c12        .,      CMP      r4,#0x12
        0x00019a82:    d109        ..      BNE      0x19a98 ; am_hal_pwrctrl_periph_enable + 148
        0x00019a84:    2301        .#      MOVS     r3,#1
        0x00019a86:    461a        .F      MOV      r2,r3
        0x00019a88:    490a        .I      LDR      r1,[pc,#40] ; [0x19ab4] = 0x400c1f10
        0x00019a8a:    2064        d       MOVS     r0,#0x64
        0x00019a8c:    f7fff8fa    ....    BL       am_hal_delay_us_status_change ; 0x18c84
        0x00019a90:    2800        .(      CMP      r0,#0
        0x00019a92:    bf18        ..      IT       NE
        0x00019a94:    e8bd83f8    ....    POPNE    {r3-r9,pc}
        0x00019a98:    6830        0h      LDR      r0,[r6,#0]
        0x00019a9a:    4228        (B      TST      r0,r5
        0x00019a9c:    bf04        ..      ITT      EQ
        0x00019a9e:    2001        .       MOVEQ    r0,#1
        0x00019aa0:    e8bd83f8    ....    POPEQ    {r3-r9,pc}
        0x00019aa4:    2000        .       MOVS     r0,#0
        0x00019aa6:    e8bd83f8    ....    POP      {r3-r9,pc}
    $d
        0x00019aaa:    0000        ..      DCW    0
        0x00019aac:    0001b328    (...    DCD    111400
        0x00019ab0:    100000f0    ....    DCD    268435696
        0x00019ab4:    400c1f10    ...@    DCD    1074536208
    $t
    i.am_hal_tpiu_enable
    am_hal_tpiu_enable
        0x00019ab8:    4914        .I      LDR      r1,[pc,#80] ; [0x19b0c] = 0xe0040000
        0x00019aba:    2200        ."      MOVS     r2,#0
        0x00019abc:    f8c12304    ...#    STR      r2,[r1,#0x304]
        0x00019ac0:    2301        .#      MOVS     r3,#1
        0x00019ac2:    604b        K`      STR      r3,[r1,#4]
        0x00019ac4:    f8dfc048    ..H.    LDR      r12,[pc,#72] ; [0x19b10] = 0x1da381
        0x00019ac8:    f5a04361    ..aC    SUB      r3,r0,#0xe100
        0x00019acc:    4563        cE      CMP      r3,r12
        0x00019ace:    bf28        (.      IT       CS
        0x00019ad0:    4810        .H      LDRCS    r0,[pc,#64] ; [0x19b14] = 0xf4240
        0x00019ad2:    4b11        .K      LDR      r3,[pc,#68] ; [0x19b18] = 0x2dc6c00
        0x00019ad4:    fbb3f0f0    ....    UDIV     r0,r3,r0
        0x00019ad8:    1e40        @.      SUBS     r0,r0,#1
        0x00019ada:    b280        ..      UXTH     r0,r0
        0x00019adc:    6108        .a      STR      r0,[r1,#0x10]
        0x00019ade:    2002        .       MOVS     r0,#2
        0x00019ae0:    f8c100f0    ....    STR      r0,[r1,#0xf0]
        0x00019ae4:    480d        .H      LDR      r0,[pc,#52] ; [0x19b1c] = 0xe0040f00
        0x00019ae6:    6002        .`      STR      r2,[r0,#0]
        0x00019ae8:    480d        .H      LDR      r0,[pc,#52] ; [0x19b20] = 0x40020000
        0x00019aea:    f8d01250    ..P.    LDR      r1,[r0,#0x250]
        0x00019aee:    f021010e    !...    BIC      r1,r1,#0xe
        0x00019af2:    1d09        ..      ADDS     r1,r1,#4
        0x00019af4:    f8c01250    ..P.    STR      r1,[r0,#0x250]
        0x00019af8:    f8d01250    ..P.    LDR      r1,[r0,#0x250]
        0x00019afc:    f0410101    A...    ORR      r1,r1,#1
        0x00019b00:    f8c01250    ..P.    STR      r1,[r0,#0x250]
        0x00019b04:    2064        d       MOVS     r0,#0x64
        0x00019b06:    f7ffb8a7    ....    B        am_hal_delay_us ; 0x18c58
    $d
        0x00019b0a:    0000        ..      DCW    0
        0x00019b0c:    e0040000    ....    DCD    3758358528
        0x00019b10:    001da381    ....    DCD    1942401
        0x00019b14:    000f4240    @B..    DCD    1000000
        0x00019b18:    02dc6c00    .l..    DCD    48000000
        0x00019b1c:    e0040f00    ....    DCD    3758362368
        0x00019b20:    40020000    ...@    DCD    1073872896
    $t
    i.am_util_delay_ms
    am_util_delay_ms
        0x00019b24:    f44f717a    O.zq    MOV      r1,#0x3e8
        0x00019b28:    4348        HC      MULS     r0,r1,r0
        0x00019b2a:    f7ffb895    ....    B        am_hal_delay_us ; 0x18c58
    i.am_util_delay_us
    am_util_delay_us
        0x00019b2e:    f7ffb893    ....    B        am_hal_delay_us ; 0x18c58
        0x00019b32:    0000        ..      MOVS     r0,r0
    i.am_util_faultisr_collect_data
    am_util_faultisr_collect_data
        0x00019b34:    b092        ..      SUB      sp,sp,#0x48
        0x00019b36:    4604        .F      MOV      r4,r0
        0x00019b38:    2000        .       MOVS     r0,#0
        0x00019b3a:    9000        ..      STR      r0,[sp,#0]
        0x00019b3c:    9001        ..      STR      r0,[sp,#4]
        0x00019b3e:    9002        ..      STR      r0,[sp,#8]
        0x00019b40:    9003        ..      STR      r0,[sp,#0xc]
        0x00019b42:    9004        ..      STR      r0,[sp,#0x10]
        0x00019b44:    9005        ..      STR      r0,[sp,#0x14]
        0x00019b46:    9010        ..      STR      r0,[sp,#0x40]
        0x00019b48:    4872        rH      LDR      r0,[pc,#456] ; [0x19d14] = 0xe000ed28
        0x00019b4a:    6800        .h      LDR      r0,[r0,#0]
        0x00019b4c:    9010        ..      STR      r0,[sp,#0x40]
        0x00019b4e:    9810        ..      LDR      r0,[sp,#0x40]
        0x00019b50:    f88d0044    ..D.    STRB     r0,[sp,#0x44]
        0x00019b54:    9810        ..      LDR      r0,[sp,#0x40]
        0x00019b56:    0a00        ..      LSRS     r0,r0,#8
        0x00019b58:    f88d0045    ..E.    STRB     r0,[sp,#0x45]
        0x00019b5c:    9810        ..      LDR      r0,[sp,#0x40]
        0x00019b5e:    0c00        ..      LSRS     r0,r0,#16
        0x00019b60:    f8ad0046    ..F.    STRH     r0,[sp,#0x46]
        0x00019b64:    486c        lH      LDR      r0,[pc,#432] ; [0x19d18] = 0xe000ed38
        0x00019b66:    6800        .h      LDR      r0,[r0,#0]
        0x00019b68:    900f        ..      STR      r0,[sp,#0x3c]
        0x00019b6a:    f1a45580    ...U    SUB      r5,r4,#0x10000000
        0x00019b6e:    f5b51fb0    ....    CMP      r5,#0x160000
        0x00019b72:    d234        4.      BCS      0x19bde ; am_util_faultisr_collect_data + 170
        0x00019b74:    f89d0045    ..E.    LDRB     r0,[sp,#0x45]
        0x00019b78:    f0100f02    ....    TST      r0,#2
        0x00019b7c:    bf08        ..      IT       EQ
        0x00019b7e:    f04f30ff    O..0    MOVEQ    r0,#0xffffffff
        0x00019b82:    d003        ..      BEQ      0x19b8c ; am_util_faultisr_collect_data + 88
        0x00019b84:    4621        !F      MOV      r1,r4
        0x00019b86:    2006        .       MOVS     r0,#6
        0x00019b88:    f7fefbe6    ....    BL       getStackedReg ; 0x18358
        0x00019b8c:    900e        ..      STR      r0,[sp,#0x38]
        0x00019b8e:    4621        !F      MOV      r1,r4
        0x00019b90:    2000        .       MOVS     r0,#0
        0x00019b92:    f7fefbe1    ....    BL       getStackedReg ; 0x18358
        0x00019b96:    9006        ..      STR      r0,[sp,#0x18]
        0x00019b98:    4621        !F      MOV      r1,r4
        0x00019b9a:    2001        .       MOVS     r0,#1
        0x00019b9c:    f7fefbdc    ....    BL       getStackedReg ; 0x18358
        0x00019ba0:    9007        ..      STR      r0,[sp,#0x1c]
        0x00019ba2:    4621        !F      MOV      r1,r4
        0x00019ba4:    2002        .       MOVS     r0,#2
        0x00019ba6:    f7fefbd7    ....    BL       getStackedReg ; 0x18358
        0x00019baa:    9008        ..      STR      r0,[sp,#0x20]
        0x00019bac:    4621        !F      MOV      r1,r4
        0x00019bae:    2003        .       MOVS     r0,#3
        0x00019bb0:    f7fefbd2    ....    BL       getStackedReg ; 0x18358
        0x00019bb4:    9009        ..      STR      r0,[sp,#0x24]
        0x00019bb6:    4621        !F      MOV      r1,r4
        0x00019bb8:    2004        .       MOVS     r0,#4
        0x00019bba:    f7fefbcd    ....    BL       getStackedReg ; 0x18358
        0x00019bbe:    900a        ..      STR      r0,[sp,#0x28]
        0x00019bc0:    4621        !F      MOV      r1,r4
        0x00019bc2:    2005        .       MOVS     r0,#5
        0x00019bc4:    f7fefbc8    ....    BL       getStackedReg ; 0x18358
        0x00019bc8:    900b        ..      STR      r0,[sp,#0x2c]
        0x00019bca:    4621        !F      MOV      r1,r4
        0x00019bcc:    2006        .       MOVS     r0,#6
        0x00019bce:    f7fefbc3    ....    BL       getStackedReg ; 0x18358
        0x00019bd2:    900c        ..      STR      r0,[sp,#0x30]
        0x00019bd4:    4621        !F      MOV      r1,r4
        0x00019bd6:    2007        .       MOVS     r0,#7
        0x00019bd8:    f7fefbbe    ....    BL       getStackedReg ; 0x18358
        0x00019bdc:    900d        ..      STR      r0,[sp,#0x34]
        0x00019bde:    4668        hF      MOV      r0,sp
        0x00019be0:    f7fff8ae    ....    BL       am_hal_fault_status_get ; 0x18d40
        0x00019be4:    a04d        M.      ADR      r0,{pc}+0x138 ; 0x19d1c
        0x00019be6:    f000fa49    ..I.    BL       am_util_stdio_printf ; 0x1a07c
        0x00019bea:    f5b51fb0    ....    CMP      r5,#0x160000
        0x00019bee:    d223        #.      BCS      0x19c38 ; am_util_faultisr_collect_data + 260
        0x00019bf0:    a051        Q.      ADR      r0,{pc}+0x148 ; 0x19d38
        0x00019bf2:    f000fa43    ..C.    BL       am_util_stdio_printf ; 0x1a07c
        0x00019bf6:    9906        ..      LDR      r1,[sp,#0x18]
        0x00019bf8:    a056        V.      ADR      r0,{pc}+0x15c ; 0x19d54
        0x00019bfa:    f000fa3f    ..?.    BL       am_util_stdio_printf ; 0x1a07c
        0x00019bfe:    9907        ..      LDR      r1,[sp,#0x1c]
        0x00019c00:    a059        Y.      ADR      r0,{pc}+0x168 ; 0x19d68
        0x00019c02:    f000fa3b    ..;.    BL       am_util_stdio_printf ; 0x1a07c
        0x00019c06:    9908        ..      LDR      r1,[sp,#0x20]
        0x00019c08:    a05c        \.      ADR      r0,{pc}+0x174 ; 0x19d7c
        0x00019c0a:    f000fa37    ..7.    BL       am_util_stdio_printf ; 0x1a07c
        0x00019c0e:    9909        ..      LDR      r1,[sp,#0x24]
        0x00019c10:    a05f        _.      ADR      r0,{pc}+0x180 ; 0x19d90
        0x00019c12:    f000fa33    ..3.    BL       am_util_stdio_printf ; 0x1a07c
        0x00019c16:    990a        ..      LDR      r1,[sp,#0x28]
        0x00019c18:    a062        b.      ADR      r0,{pc}+0x18c ; 0x19da4
        0x00019c1a:    f000fa2f    ../.    BL       am_util_stdio_printf ; 0x1a07c
        0x00019c1e:    990b        ..      LDR      r1,[sp,#0x2c]
        0x00019c20:    a065        e.      ADR      r0,{pc}+0x198 ; 0x19db8
        0x00019c22:    f000fa2b    ..+.    BL       am_util_stdio_printf ; 0x1a07c
        0x00019c26:    990c        ..      LDR      r1,[sp,#0x30]
        0x00019c28:    a068        h.      ADR      r0,{pc}+0x1a4 ; 0x19dcc
        0x00019c2a:    f000fa27    ..'.    BL       am_util_stdio_printf ; 0x1a07c
        0x00019c2e:    990d        ..      LDR      r1,[sp,#0x34]
        0x00019c30:    a06b        k.      ADR      r0,{pc}+0x1b0 ; 0x19de0
        0x00019c32:    f000fa23    ..#.    BL       am_util_stdio_printf ; 0x1a07c
        0x00019c36:    e002        ..      B        0x19c3e ; am_util_faultisr_collect_data + 266
        0x00019c38:    486e        nH      LDR      r0,[pc,#440] ; [0x19df4] = 0x1b4b8
        0x00019c3a:    f000fa1f    ....    BL       am_util_stdio_printf ; 0x1a07c
        0x00019c3e:    a06e        n.      ADR      r0,{pc}+0x1ba ; 0x19df8
        0x00019c40:    f000fa1c    ....    BL       am_util_stdio_printf ; 0x1a07c
        0x00019c44:    990e        ..      LDR      r1,[sp,#0x38]
        0x00019c46:    a072        r.      ADR      r0,{pc}+0x1ca ; 0x19e10
        0x00019c48:    f000fa18    ....    BL       am_util_stdio_printf ; 0x1a07c
        0x00019c4c:    990f        ..      LDR      r1,[sp,#0x3c]
        0x00019c4e:    a077        w.      ADR      r0,{pc}+0x1de ; 0x19e2c
        0x00019c50:    f000fa14    ....    BL       am_util_stdio_printf ; 0x1a07c
        0x00019c54:    f89d1044    ..D.    LDRB     r1,[sp,#0x44]
        0x00019c58:    a07e        ~.      ADR      r0,{pc}+0x1fc ; 0x19e54
        0x00019c5a:    f000fa0f    ....    BL       am_util_stdio_printf ; 0x1a07c
        0x00019c5e:    f8bd1046    ..F.    LDRH     r1,[sp,#0x46]
        0x00019c62:    a088        ..      ADR      r0,{pc}+0x222 ; 0x19e84
        0x00019c64:    f000fa0a    ....    BL       am_util_stdio_printf ; 0x1a07c
        0x00019c68:    f89d1045    ..E.    LDRB     r1,[sp,#0x45]
        0x00019c6c:    a090        ..      ADR      r0,{pc}+0x244 ; 0x19eb0
        0x00019c6e:    f000fa05    ....    BL       am_util_stdio_printf ; 0x1a07c
        0x00019c72:    2480        .$      MOVS     r4,#0x80
        0x00019c74:    f89d0045    ..E.    LDRB     r0,[sp,#0x45]
        0x00019c78:    4020         @      ANDS     r0,r0,r4
        0x00019c7a:    2810        .(      CMP      r0,#0x10
        0x00019c7c:    bf08        ..      IT       EQ
        0x00019c7e:    a097        ..      ADREQ    r0,{pc}+0x25e ; 0x19edc
        0x00019c80:    d01d        ..      BEQ      0x19cbe ; am_util_faultisr_collect_data + 394
        0x00019c82:    dc10        ..      BGT      0x19ca6 ; am_util_faultisr_collect_data + 370
        0x00019c84:    2801        .(      CMP      r0,#1
        0x00019c86:    bf08        ..      IT       EQ
        0x00019c88:    a09b        ..      ADREQ    r0,{pc}+0x270 ; 0x19ef8
        0x00019c8a:    d018        ..      BEQ      0x19cbe ; am_util_faultisr_collect_data + 394
        0x00019c8c:    2802        .(      CMP      r0,#2
        0x00019c8e:    bf08        ..      IT       EQ
        0x00019c90:    a0a0        ..      ADREQ    r0,{pc}+0x284 ; 0x19f14
        0x00019c92:    d014        ..      BEQ      0x19cbe ; am_util_faultisr_collect_data + 394
        0x00019c94:    2804        .(      CMP      r0,#4
        0x00019c96:    bf08        ..      IT       EQ
        0x00019c98:    a0a6        ..      ADREQ    r0,{pc}+0x29c ; 0x19f34
        0x00019c9a:    d010        ..      BEQ      0x19cbe ; am_util_faultisr_collect_data + 394
        0x00019c9c:    2808        .(      CMP      r0,#8
        0x00019c9e:    bf08        ..      IT       EQ
        0x00019ca0:    a0ac        ..      ADREQ    r0,{pc}+0x2b4 ; 0x19f54
        0x00019ca2:    d00c        ..      BEQ      0x19cbe ; am_util_faultisr_collect_data + 394
        0x00019ca4:    e00d        ..      B        0x19cc2 ; am_util_faultisr_collect_data + 398
        0x00019ca6:    2820         (      CMP      r0,#0x20
        0x00019ca8:    bf08        ..      IT       EQ
        0x00019caa:    a0b2        ..      ADREQ    r0,{pc}+0x2ca ; 0x19f74
        0x00019cac:    d007        ..      BEQ      0x19cbe ; am_util_faultisr_collect_data + 394
        0x00019cae:    2840        @(      CMP      r0,#0x40
        0x00019cb0:    bf08        ..      IT       EQ
        0x00019cb2:    a0b7        ..      ADREQ    r0,{pc}+0x2de ; 0x19f90
        0x00019cb4:    d003        ..      BEQ      0x19cbe ; am_util_faultisr_collect_data + 394
        0x00019cb6:    2880        .(      CMP      r0,#0x80
        0x00019cb8:    bf08        ..      IT       EQ
        0x00019cba:    a0bd        ..      ADREQ    r0,{pc}+0x2f6 ; 0x19fb0
        0x00019cbc:    d101        ..      BNE      0x19cc2 ; am_util_faultisr_collect_data + 398
        0x00019cbe:    f000f9dd    ....    BL       am_util_stdio_printf ; 0x1a07c
        0x00019cc2:    0864        d.      LSRS     r4,r4,#1
        0x00019cc4:    d1d6        ..      BNE      0x19c74 ; am_util_faultisr_collect_data + 320
        0x00019cc6:    f89d0000    ....    LDRB     r0,[sp,#0]
        0x00019cca:    2800        .(      CMP      r0,#0
        0x00019ccc:    bf01        ..      ITTTT    EQ
        0x00019cce:    f89d0008    ....    LDRBEQ   r0,[sp,#8]
        0x00019cd2:    2800        .(      CMPEQ    r0,#0
        0x00019cd4:    f89d0010    ....    LDRBEQ   r0,[sp,#0x10]
        0x00019cd8:    2800        .(      CMPEQ    r0,#0
        0x00019cda:    d017        ..      BEQ      0x19d0c ; am_util_faultisr_collect_data + 472
        0x00019cdc:    a0bc        ..      ADR      r0,{pc}+0x2f4 ; 0x19fd0
        0x00019cde:    f000f9cd    ....    BL       am_util_stdio_printf ; 0x1a07c
        0x00019ce2:    f89d0000    ....    LDRB     r0,[sp,#0]
        0x00019ce6:    b118        ..      CBZ      r0,0x19cf0 ; am_util_faultisr_collect_data + 444
        0x00019ce8:    a0be        ..      ADR      r0,{pc}+0x2fc ; 0x19fe4
        0x00019cea:    9901        ..      LDR      r1,[sp,#4]
        0x00019cec:    f000f9c6    ....    BL       am_util_stdio_printf ; 0x1a07c
        0x00019cf0:    f89d0008    ....    LDRB     r0,[sp,#8]
        0x00019cf4:    b118        ..      CBZ      r0,0x19cfe ; am_util_faultisr_collect_data + 458
        0x00019cf6:    a0c4        ..      ADR      r0,{pc}+0x312 ; 0x1a008
        0x00019cf8:    9903        ..      LDR      r1,[sp,#0xc]
        0x00019cfa:    f000f9bf    ....    BL       am_util_stdio_printf ; 0x1a07c
        0x00019cfe:    f89d0010    ....    LDRB     r0,[sp,#0x10]
        0x00019d02:    b118        ..      CBZ      r0,0x19d0c ; am_util_faultisr_collect_data + 472
        0x00019d04:    a0c9        ..      ADR      r0,{pc}+0x328 ; 0x1a02c
        0x00019d06:    9905        ..      LDR      r1,[sp,#0x14]
        0x00019d08:    f000f9b8    ....    BL       am_util_stdio_printf ; 0x1a07c
        0x00019d0c:    a0cf        ..      ADR      r0,{pc}+0x340 ; 0x1a04c
        0x00019d0e:    f000f9b5    ....    BL       am_util_stdio_printf ; 0x1a07c
        0x00019d12:    e7fe        ..      B        0x19d12 ; am_util_faultisr_collect_data + 478
    $d
        0x00019d14:    e000ed28    (...    DCD    3758157096
        0x00019d18:    e000ed38    8...    DCD    3758157112
        0x00019d1c:    48202a2a    ** H    DCD    1210067498
        0x00019d20:    20647261    ard     DCD    543453793
        0x00019d24:    6c756146    Faul    DCD    1819631942
        0x00019d28:    634f2074    t Oc    DCD    1666130036
        0x00019d2c:    72727563    curr    DCD    1920103779
        0x00019d30:    0a3a6465    ed:.    DCD    171598949
        0x00019d34:    0000000a    ....    DCD    10
        0x00019d38:    64726148    Hard    DCD    1685217608
        0x00019d3c:    75614620     Fau    DCD    1969309216
        0x00019d40:    7320746c    lt s    DCD    1931506796
        0x00019d44:    6b636174    tack    DCD    1801675124
        0x00019d48:    64206465    ed d    DCD    1679844453
        0x00019d4c:    3a617461    ata:    DCD    979465313
        0x00019d50:    0000000a    ....    DCD    10
        0x00019d54:    20202020            DCD    538976288
        0x00019d58:    20203052    R0      DCD    538980434
        0x00019d5c:    7830203d    = 0x    DCD    2016419901
        0x00019d60:    58383025    %08X    DCD    1480077349
        0x00019d64:    0000000a    ....    DCD    10
        0x00019d68:    20202020            DCD    538976288
        0x00019d6c:    20203152    R1      DCD    538980690
        0x00019d70:    7830203d    = 0x    DCD    2016419901
        0x00019d74:    58383025    %08X    DCD    1480077349
        0x00019d78:    0000000a    ....    DCD    10
        0x00019d7c:    20202020            DCD    538976288
        0x00019d80:    20203252    R2      DCD    538980946
        0x00019d84:    7830203d    = 0x    DCD    2016419901
        0x00019d88:    58383025    %08X    DCD    1480077349
        0x00019d8c:    0000000a    ....    DCD    10
        0x00019d90:    20202020            DCD    538976288
        0x00019d94:    20203352    R3      DCD    538981202
        0x00019d98:    7830203d    = 0x    DCD    2016419901
        0x00019d9c:    58383025    %08X    DCD    1480077349
        0x00019da0:    0000000a    ....    DCD    10
        0x00019da4:    20202020            DCD    538976288
        0x00019da8:    20323152    R12     DCD    540160338
        0x00019dac:    7830203d    = 0x    DCD    2016419901
        0x00019db0:    58383025    %08X    DCD    1480077349
        0x00019db4:    0000000a    ....    DCD    10
        0x00019db8:    20202020            DCD    538976288
        0x00019dbc:    2020524c    LR      DCD    538989132
        0x00019dc0:    7830203d    = 0x    DCD    2016419901
        0x00019dc4:    58383025    %08X    DCD    1480077349
        0x00019dc8:    0000000a    ....    DCD    10
        0x00019dcc:    20202020            DCD    538976288
        0x00019dd0:    20204350    PC      DCD    538985296
        0x00019dd4:    7830203d    = 0x    DCD    2016419901
        0x00019dd8:    58383025    %08X    DCD    1480077349
        0x00019ddc:    0000000a    ....    DCD    10
        0x00019de0:    20202020            DCD    538976288
        0x00019de4:    20525350    PSR     DCD    542266192
        0x00019de8:    7830203d    = 0x    DCD    2016419901
        0x00019dec:    58383025    %08X    DCD    1480077349
        0x00019df0:    00000a0a    ....    DCD    2570
        0x00019df4:    0001b4b8    ....    DCD    111800
        0x00019df8:    6568744f    Othe    DCD    1701344335
        0x00019dfc:    61482072    r Ha    DCD    1632116850
        0x00019e00:    46206472    rd F    DCD    1176527986
        0x00019e04:    746c7561    ault    DCD    1953264993
        0x00019e08:    74616420     dat    DCD    1952539680
        0x00019e0c:    000a3a61    a:..    DCD    670305
        0x00019e10:    20202020            DCD    538976288
        0x00019e14:    6c756146    Faul    DCD    1819631942
        0x00019e18:    64612074    t ad    DCD    1684086900
        0x00019e1c:    73657264    dres    DCD    1936028260
        0x00019e20:    203d2073    s =     DCD    540876915
        0x00019e24:    30257830    0x%0    DCD    807761968
        0x00019e28:    000a5838    8X..    DCD    677944
        0x00019e2c:    20202020            DCD    538976288
        0x00019e30:    52414642    BFAR    DCD    1380009538
        0x00019e34:    75422820     (Bu    DCD    1967269920
        0x00019e38:    61462073    s Fa    DCD    1631985779
        0x00019e3c:    20746c75    ult     DCD    544500853
        0x00019e40:    72646441    Addr    DCD    1919181889
        0x00019e44:    67655220     Reg    DCD    1734693408
        0x00019e48:    203d2029    ) =     DCD    540876841
        0x00019e4c:    30257830    0x%0    DCD    807761968
        0x00019e50:    000a5838    8X..    DCD    677944
        0x00019e54:    20202020            DCD    538976288
        0x00019e58:    52534d4d    MMSR    DCD    1381190989
        0x00019e5c:    654d2820     (Me    DCD    1699555360
        0x00019e60:    674d206d    m Mg    DCD    1733107821
        0x00019e64:    4620746d    mt F    DCD    1176532077
        0x00019e68:    746c7561    ault    DCD    1953264993
        0x00019e6c:    61745320     Sta    DCD    1635013408
        0x00019e70:    20737574    tus     DCD    544437620
        0x00019e74:    29676552    Reg)    DCD    694642002
        0x00019e78:    30203d20     = 0    DCD    807419168
        0x00019e7c:    32302578    x%02    DCD    842016120
        0x00019e80:    00000a58    X...    DCD    2648
        0x00019e84:    20202020            DCD    538976288
        0x00019e88:    52534655    UFSR    DCD    1381189205
        0x00019e8c:    73552820     (Us    DCD    1934960672
        0x00019e90:    20656761    age     DCD    543516513
        0x00019e94:    6c756146    Faul    DCD    1819631942
        0x00019e98:    74532074    t St    DCD    1951604852
        0x00019e9c:    73757461    atus    DCD    1937077345
        0x00019ea0:    67655220     Reg    DCD    1734693408
        0x00019ea4:    203d2029    ) =     DCD    540876841
        0x00019ea8:    30257830    0x%0    DCD    807761968
        0x00019eac:    000a5834    4X..    DCD    677940
        0x00019eb0:    20202020            DCD    538976288
        0x00019eb4:    52534642    BFSR    DCD    1381189186
        0x00019eb8:    75422820     (Bu    DCD    1967269920
        0x00019ebc:    61462073    s Fa    DCD    1631985779
        0x00019ec0:    20746c75    ult     DCD    544500853
        0x00019ec4:    74617453    Stat    DCD    1952543827
        0x00019ec8:    52207375    us R    DCD    1377858421
        0x00019ecc:    20296765    eg)     DCD    539584357
        0x00019ed0:    7830203d    = 0x    DCD    2016419901
        0x00019ed4:    58323025    %02X    DCD    1479684133
        0x00019ed8:    0000000a    ....    DCD    10
        0x00019edc:    20202020            DCD    538976288
        0x00019ee0:    20202020            DCD    538976288
        0x00019ee4:    52534642    BFSR    DCD    1381189186
        0x00019ee8:    74696220     bit    DCD    1953063456
        0x00019eec:    53203a34    4: S    DCD    1394620980
        0x00019ef0:    52454b54    TKER    DCD    1380272980
        0x00019ef4:    00000a52    R...    DCD    2642
        0x00019ef8:    20202020            DCD    538976288
        0x00019efc:    20202020            DCD    538976288
        0x00019f00:    52534642    BFSR    DCD    1381189186
        0x00019f04:    74696220     bit    DCD    1953063456
        0x00019f08:    49203a30    0: I    DCD    1226848816
        0x00019f0c:    45535542    BUSE    DCD    1163089218
        0x00019f10:    000a5252    RR..    DCD    676434
        0x00019f14:    20202020            DCD    538976288
        0x00019f18:    20202020            DCD    538976288
        0x00019f1c:    52534642    BFSR    DCD    1381189186
        0x00019f20:    74696220     bit    DCD    1953063456
        0x00019f24:    50203a31    1: P    DCD    1344289329
        0x00019f28:    49434552    RECI    DCD    1229145426
        0x00019f2c:    52454553    SEER    DCD    1380271443
        0x00019f30:    00000a52    R...    DCD    2642
        0x00019f34:    20202020            DCD    538976288
        0x00019f38:    20202020            DCD    538976288
        0x00019f3c:    52534642    BFSR    DCD    1381189186
        0x00019f40:    74696220     bit    DCD    1953063456
        0x00019f44:    49203a32    2: I    DCD    1226848818
        0x00019f48:    4552504d    MPRE    DCD    1163022413
        0x00019f4c:    45534943    CISE    DCD    1163086147
        0x00019f50:    000a5252    RR..    DCD    676434
        0x00019f54:    20202020            DCD    538976288
        0x00019f58:    20202020            DCD    538976288
        0x00019f5c:    52534642    BFSR    DCD    1381189186
        0x00019f60:    74696220     bit    DCD    1953063456
        0x00019f64:    55203a33    3: U    DCD    1428175411
        0x00019f68:    4b54534e    NSTK    DCD    1263817550
        0x00019f6c:    0a525245    ERR.    DCD    173167173
        0x00019f70:    00000000    ....    DCD    0
        0x00019f74:    20202020            DCD    538976288
        0x00019f78:    20202020            DCD    538976288
        0x00019f7c:    52534642    BFSR    DCD    1381189186
        0x00019f80:    74696220     bit    DCD    1953063456
        0x00019f84:    4c203a35    5: L    DCD    1277180469
        0x00019f88:    52455053    SPER    DCD    1380274259
        0x00019f8c:    00000a52    R...    DCD    2642
        0x00019f90:    20202020            DCD    538976288
        0x00019f94:    20202020            DCD    538976288
        0x00019f98:    52534642    BFSR    DCD    1381189186
        0x00019f9c:    74696220     bit    DCD    1953063456
        0x00019fa0:    52203a36    6: R    DCD    1377843766
        0x00019fa4:    52455345    ESER    DCD    1380275013
        0x00019fa8:    0a444556    VED.    DCD    172246358
        0x00019fac:    00000000    ....    DCD    0
        0x00019fb0:    20202020            DCD    538976288
        0x00019fb4:    20202020            DCD    538976288
        0x00019fb8:    52534642    BFSR    DCD    1381189186
        0x00019fbc:    74696220     bit    DCD    1953063456
        0x00019fc0:    42203a37    7: B    DCD    1109408311
        0x00019fc4:    56524146    FARV    DCD    1448231238
        0x00019fc8:    44494c41    ALID    DCD    1145654337
        0x00019fcc:    0000000a    ....    DCD    10
        0x00019fd0:    55434d0a    .MCU    DCD    1430473994
        0x00019fd4:    75614620     Fau    DCD    1969309216
        0x00019fd8:    6420746c    lt d    DCD    1679848556
        0x00019fdc:    3a617461    ata:    DCD    979465313
        0x00019fe0:    0000000a    ....    DCD    10
        0x00019fe4:    20202020            DCD    538976288
        0x00019fe8:    444f4349    ICOD    DCD    1146045257
        0x00019fec:    61462045    E Fa    DCD    1631985733
        0x00019ff0:    20746c75    ult     DCD    544500853
        0x00019ff4:    72646441    Addr    DCD    1919181889
        0x00019ff8:    3a737365    ess:    DCD    980644709
        0x00019ffc:    25783020     0x%    DCD    628633632
        0x0001a000:    0a583830    08X.    DCD    173553712
        0x0001a004:    00000000    ....    DCD    0
        0x0001a008:    20202020            DCD    538976288
        0x0001a00c:    444f4344    DCOD    DCD    1146045252
        0x0001a010:    61462045    E Fa    DCD    1631985733
        0x0001a014:    20746c75    ult     DCD    544500853
        0x0001a018:    72646441    Addr    DCD    1919181889
        0x0001a01c:    3a737365    ess:    DCD    980644709
        0x0001a020:    25783020     0x%    DCD    628633632
        0x0001a024:    0a583830    08X.    DCD    173553712
        0x0001a028:    00000000    ....    DCD    0
        0x0001a02c:    20202020            DCD    538976288
        0x0001a030:    20535953    SYS     DCD    542333267
        0x0001a034:    6c756146    Faul    DCD    1819631942
        0x0001a038:    64412074    t Ad    DCD    1681989748
        0x0001a03c:    73657264    dres    DCD    1936028260
        0x0001a040:    30203a73    s: 0    DCD    807418483
        0x0001a044:    38302578    x%08    DCD    942679416
        0x0001a048:    00000a58    X...    DCD    2648
        0x0001a04c:    6f440a0a    ..Do    DCD    1866729994
        0x0001a050:    7720656e    ne w    DCD    1998611822
        0x0001a054:    20687469    ith     DCD    543716457
        0x0001a058:    7074756f    outp    DCD    1886680431
        0x0001a05c:    202e7475    ut.     DCD    539915381
        0x0001a060:    65746e45    Ente    DCD    1702129221
        0x0001a064:    676e6972    ring    DCD    1735289202
        0x0001a068:    666e6920     inf    DCD    1718511904
        0x0001a06c:    74696e69    init    DCD    1953066601
        0x0001a070:    6f6c2065    e lo    DCD    1869357157
        0x0001a074:    0a2e706f    op..    DCD    170815599
        0x0001a078:    0000000a    ....    DCD    10
    $t
    i.am_util_stdio_printf
    am_util_stdio_printf
        0x0001a07c:    b40f        ..      PUSH     {r0-r3}
        0x0001a07e:    b570        p.      PUSH     {r4-r6,lr}
        0x0001a080:    4c09        .L      LDR      r4,[pc,#36] ; [0x1a0a8] = 0x10000098
        0x0001a082:    6860        `h      LDR      r0,[r4,#4]
        0x0001a084:    2800        .(      CMP      r0,#0
        0x0001a086:    bf04        ..      ITT      EQ
        0x0001a088:    bc70        p.      POPEQ    {r4-r6}
        0x0001a08a:    f85dfb14    ]...    LDREQ    pc,[sp],#0x14
        0x0001a08e:    aa05        ..      ADD      r2,sp,#0x14
        0x0001a090:    4806        .H      LDR      r0,[pc,#24] ; [0x1a0ac] = 0x10000338
        0x0001a092:    9904        ..      LDR      r1,[sp,#0x10]
        0x0001a094:    f000f830    ..0.    BL       am_util_stdio_vsprintf ; 0x1a0f8
        0x0001a098:    4605        .F      MOV      r5,r0
        0x0001a09a:    6861        ah      LDR      r1,[r4,#4]
        0x0001a09c:    4803        .H      LDR      r0,[pc,#12] ; [0x1a0ac] = 0x10000338
        0x0001a09e:    4788        .G      BLX      r1
        0x0001a0a0:    4628        (F      MOV      r0,r5
        0x0001a0a2:    bc70        p.      POP      {r4-r6}
        0x0001a0a4:    f85dfb14    ]...    LDR      pc,[sp],#0x14
    $d
        0x0001a0a8:    10000098    ....    DCD    268435608
        0x0001a0ac:    10000338    8...    DCD    268436280
    $t
    i.am_util_stdio_printf_init
    am_util_stdio_printf_init
        0x0001a0b0:    4901        .I      LDR      r1,[pc,#4] ; [0x1a0b8] = 0x10000098
        0x0001a0b2:    6048        H`      STR      r0,[r1,#4]
        0x0001a0b4:    4770        pG      BX       lr
    $d
        0x0001a0b6:    0000        ..      DCW    0
        0x0001a0b8:    10000098    ....    DCD    268435608
    $t
    i.am_util_stdio_terminal_clear
    am_util_stdio_terminal_clear
        0x0001a0bc:    b538        8.      PUSH     {r3-r5,lr}
        0x0001a0be:    4c0c        .L      LDR      r4,[pc,#48] ; [0x1a0f0] = 0x10000098
        0x0001a0c0:    a106        ..      ADR      r1,{pc}+0x1c ; 0x1a0dc
        0x0001a0c2:    9100        ..      STR      r1,[sp,#0]
        0x0001a0c4:    6860        `h      LDR      r0,[r4,#4]
        0x0001a0c6:    2800        .(      CMP      r0,#0
        0x0001a0c8:    bf08        ..      IT       EQ
        0x0001a0ca:    bd38        8.      POPEQ    {r3-r5,pc}
        0x0001a0cc:    aa01        ..      ADD      r2,sp,#4
        0x0001a0ce:    4809        .H      LDR      r0,[pc,#36] ; [0x1a0f4] = 0x10000338
        0x0001a0d0:    f000f812    ....    BL       am_util_stdio_vsprintf ; 0x1a0f8
        0x0001a0d4:    6861        ah      LDR      r1,[r4,#4]
        0x0001a0d6:    4807        .H      LDR      r0,[pc,#28] ; [0x1a0f4] = 0x10000338
        0x0001a0d8:    4788        .G      BLX      r1
        0x0001a0da:    bd38        8.      POP      {r3-r5,pc}
    $d
        0x0001a0dc:    0a0a0a0a    ....    DCD    168430090
        0x0001a0e0:    0a0a0a0a    ....    DCD    168430090
        0x0001a0e4:    0a0a0a0a    ....    DCD    168430090
        0x0001a0e8:    0a0a0a0a    ....    DCD    168430090
        0x0001a0ec:    00000a0a    ....    DCD    2570
        0x0001a0f0:    10000098    ....    DCD    268435608
        0x0001a0f4:    10000338    8...    DCD    268436280
    $t
    i.am_util_stdio_vsprintf
    am_util_stdio_vsprintf
        0x0001a0f8:    e92d4ff7    -..O    PUSH     {r0-r2,r4-r11,lr}
        0x0001a0fc:    4604        .F      MOV      r4,r0
        0x0001a0fe:    7808        .x      LDRB     r0,[r1,#0]
        0x0001a100:    2500        .%      MOVS     r5,#0
        0x0001a102:    b088        ..      SUB      sp,sp,#0x20
        0x0001a104:    2800        .(      CMP      r0,#0
        0x0001a106:    f0008385    ....    BEQ.W    0x1a814 ; am_util_stdio_vsprintf + 1820
        0x0001a10a:    bf00        ..      NOP      
        0x0001a10c:    b2c0        ..      UXTB     r0,r0
        0x0001a10e:    f04f0906    O...    MOV      r9,#6
        0x0001a112:    2825        %(      CMP      r0,#0x25
        0x0001a114:    d010        ..      BEQ      0x1a138 ; am_util_stdio_vsprintf + 64
        0x0001a116:    b15c        \.      CBZ      r4,0x1a130 ; am_util_stdio_vsprintf + 56
        0x0001a118:    280a        .(      CMP      r0,#0xa
        0x0001a11a:    d106        ..      BNE      0x1a12a ; am_util_stdio_vsprintf + 50
        0x0001a11c:    48fe        .H      LDR      r0,[pc,#1016] ; [0x1a518] = 0x10000098
        0x0001a11e:    7800        .x      LDRB     r0,[r0,#0]
        0x0001a120:    b118        ..      CBZ      r0,0x1a12a ; am_util_stdio_vsprintf + 50
        0x0001a122:    200d        .       MOVS     r0,#0xd
        0x0001a124:    f8040b01    ....    STRB     r0,[r4],#1
        0x0001a128:    1c6d        m.      ADDS     r5,r5,#1
        0x0001a12a:    7808        .x      LDRB     r0,[r1,#0]
        0x0001a12c:    f8040b01    ....    STRB     r0,[r4],#1
        0x0001a130:    1c49        I.      ADDS     r1,r1,#1
        0x0001a132:    1c6d        m.      ADDS     r5,r5,#1
        0x0001a134:    f000bb6a    ..j.    B.W      0x1a80c ; am_util_stdio_vsprintf + 1812
        0x0001a138:    2020                MOVS     r0,#0x20
        0x0001a13a:    9001        ..      STR      r0,[sp,#4]
        0x0001a13c:    2700        .'      MOVS     r7,#0
        0x0001a13e:    f8110f01    ....    LDRB     r0,[r1,#1]!
        0x0001a142:    46bc        .F      MOV      r12,r7
        0x0001a144:    2830        0(      CMP      r0,#0x30
        0x0001a146:    d101        ..      BNE      0x1a14c ; am_util_stdio_vsprintf + 84
        0x0001a148:    1c49        I.      ADDS     r1,r1,#1
        0x0001a14a:    9001        ..      STR      r0,[sp,#4]
        0x0001a14c:    2600        .&      MOVS     r6,#0
        0x0001a14e:    f891a000    ....    LDRB     r10,[r1,#0]
        0x0001a152:    460a        .F      MOV      r2,r1
        0x0001a154:    f10d0808    ....    ADD      r8,sp,#8
        0x0001a158:    4630        0F      MOV      r0,r6
        0x0001a15a:    4633        3F      MOV      r3,r6
        0x0001a15c:    f1ba0f2d    ..-.    CMP      r10,#0x2d
        0x0001a160:    d102        ..      BNE      0x1a168 ; am_util_stdio_vsprintf + 112
        0x0001a162:    2601        .&      MOVS     r6,#1
        0x0001a164:    1c4a        J.      ADDS     r2,r1,#1
        0x0001a166:    4633        3F      MOV      r3,r6
        0x0001a168:    f892a000    ....    LDRB     r10,[r2,#0]
        0x0001a16c:    f1aa0a30    ..0.    SUB      r10,r10,#0x30
        0x0001a170:    f1ba0f09    ....    CMP      r10,#9
        0x0001a174:    d80f        ..      BHI      0x1a196 ; am_util_stdio_vsprintf + 158
        0x0001a176:    bf00        ..      NOP      
        0x0001a178:    eb000080    ....    ADD      r0,r0,r0,LSL #2
        0x0001a17c:    0040        @.      LSLS     r0,r0,#1
        0x0001a17e:    f812ab01    ....    LDRB     r10,[r2],#1
        0x0001a182:    3830        08      SUBS     r0,r0,#0x30
        0x0001a184:    4450        PD      ADD      r0,r0,r10
        0x0001a186:    f892a000    ....    LDRB     r10,[r2,#0]
        0x0001a18a:    1c5b        [.      ADDS     r3,r3,#1
        0x0001a18c:    f1aa0a30    ..0.    SUB      r10,r10,#0x30
        0x0001a190:    f1ba0f09    ....    CMP      r10,#9
        0x0001a194:    d9f0        ..      BLS      0x1a178 ; am_util_stdio_vsprintf + 128
        0x0001a196:    f1b80f00    ....    CMP      r8,#0
        0x0001a19a:    bf18        ..      IT       NE
        0x0001a19c:    9302        ..      STRNE    r3,[sp,#8]
        0x0001a19e:    2e00        ..      CMP      r6,#0
        0x0001a1a0:    bf18        ..      IT       NE
        0x0001a1a2:    4240        @B      RSBNE    r0,r0,#0
        0x0001a1a4:    9000        ..      STR      r0,[sp,#0]
        0x0001a1a6:    9802        ..      LDR      r0,[sp,#8]
        0x0001a1a8:    180e        ..      ADDS     r6,r1,r0
        0x0001a1aa:    7830        0x      LDRB     r0,[r6,#0]
        0x0001a1ac:    2873        s(      CMP      r0,#0x73
        0x0001a1ae:    d037        7.      BEQ      0x1a220 ; am_util_stdio_vsprintf + 296
        0x0001a1b0:    9900        ..      LDR      r1,[sp,#0]
        0x0001a1b2:    2900        .)      CMP      r1,#0
        0x0001a1b4:    bfbc        ..      ITT      LT
        0x0001a1b6:    4249        IB      RSBLT    r1,r1,#0
        0x0001a1b8:    9100        ..      STRLT    r1,[sp,#0]
        0x0001a1ba:    282e        .(      CMP      r0,#0x2e
        0x0001a1bc:    d003        ..      BEQ      0x1a1c6 ; am_util_stdio_vsprintf + 206
        0x0001a1be:    7830        0x      LDRB     r0,[r6,#0]
        0x0001a1c0:    286c        l(      CMP      r0,#0x6c
        0x0001a1c2:    d12d        -.      BNE      0x1a220 ; am_util_stdio_vsprintf + 296
        0x0001a1c4:    e025        %.      B        0x1a212 ; am_util_stdio_vsprintf + 282
        0x0001a1c6:    1c72        r.      ADDS     r2,r6,#1
        0x0001a1c8:    2300        .#      MOVS     r3,#0
        0x0001a1ca:    7811        .x      LDRB     r1,[r2,#0]
        0x0001a1cc:    4616        .F      MOV      r6,r2
        0x0001a1ce:    4699        .F      MOV      r9,r3
        0x0001a1d0:    4618        .F      MOV      r0,r3
        0x0001a1d2:    292d        -)      CMP      r1,#0x2d
        0x0001a1d4:    d102        ..      BNE      0x1a1dc ; am_util_stdio_vsprintf + 228
        0x0001a1d6:    2301        .#      MOVS     r3,#1
        0x0001a1d8:    1c56        V.      ADDS     r6,r2,#1
        0x0001a1da:    4618        .F      MOV      r0,r3
        0x0001a1dc:    7831        1x      LDRB     r1,[r6,#0]
        0x0001a1de:    3930        09      SUBS     r1,r1,#0x30
        0x0001a1e0:    2909        .)      CMP      r1,#9
        0x0001a1e2:    d80b        ..      BHI      0x1a1fc ; am_util_stdio_vsprintf + 260
        0x0001a1e4:    eb090189    ....    ADD      r1,r9,r9,LSL #2
        0x0001a1e8:    0049        I.      LSLS     r1,r1,#1
        0x0001a1ea:    f8169b01    ....    LDRB     r9,[r6],#1
        0x0001a1ee:    3930        09      SUBS     r1,r1,#0x30
        0x0001a1f0:    4489        .D      ADD      r9,r9,r1
        0x0001a1f2:    7831        1x      LDRB     r1,[r6,#0]
        0x0001a1f4:    1c40        @.      ADDS     r0,r0,#1
        0x0001a1f6:    3930        09      SUBS     r1,r1,#0x30
        0x0001a1f8:    2909        .)      CMP      r1,#9
        0x0001a1fa:    d9f3        ..      BLS      0x1a1e4 ; am_util_stdio_vsprintf + 236
        0x0001a1fc:    f1b80f00    ....    CMP      r8,#0
        0x0001a200:    bf18        ..      IT       NE
        0x0001a202:    9002        ..      STRNE    r0,[sp,#8]
        0x0001a204:    2b00        .+      CMP      r3,#0
        0x0001a206:    bf18        ..      IT       NE
        0x0001a208:    f1c90900    ....    RSBNE    r9,r9,#0
        0x0001a20c:    9802        ..      LDR      r0,[sp,#8]
        0x0001a20e:    1816        ..      ADDS     r6,r2,r0
        0x0001a210:    e7d5        ..      B        0x1a1be ; am_util_stdio_vsprintf + 198
        0x0001a212:    f8160f01    ....    LDRB     r0,[r6,#1]!
        0x0001a216:    286c        l(      CMP      r0,#0x6c
        0x0001a218:    bf04        ..      ITT      EQ
        0x0001a21a:    f04f0c01    O...    MOVEQ    r12,#1
        0x0001a21e:    1c76        v.      ADDEQ    r6,r6,#1
        0x0001a220:    7830        0x      LDRB     r0,[r6,#0]
        0x0001a222:    2866        f(      CMP      r0,#0x66
        0x0001a224:    f000822a    ..*.    BEQ.W    0x1a67c ; am_util_stdio_vsprintf + 1412
        0x0001a228:    dc0a        ..      BGT      0x1a240 ; am_util_stdio_vsprintf + 328
        0x0001a22a:    2846        F(      CMP      r0,#0x46
        0x0001a22c:    f0008226    ..&.    BEQ.W    0x1a67c ; am_util_stdio_vsprintf + 1412
        0x0001a230:    2858        X(      CMP      r0,#0x58
        0x0001a232:    d07d        }.      BEQ      0x1a330 ; am_util_stdio_vsprintf + 568
        0x0001a234:    2863        c(      CMP      r0,#0x63
        0x0001a236:    d014        ..      BEQ      0x1a262 ; am_util_stdio_vsprintf + 362
        0x0001a238:    2864        d(      CMP      r0,#0x64
        0x0001a23a:    f00081b5    ....    BEQ.W    0x1a5a8 ; am_util_stdio_vsprintf + 1200
        0x0001a23e:    e00b        ..      B        0x1a258 ; am_util_stdio_vsprintf + 352
        0x0001a240:    2869        i(      CMP      r0,#0x69
        0x0001a242:    f00081b1    ....    BEQ.W    0x1a5a8 ; am_util_stdio_vsprintf + 1200
        0x0001a246:    2873        s(      CMP      r0,#0x73
        0x0001a248:    d016        ..      BEQ      0x1a278 ; am_util_stdio_vsprintf + 384
        0x0001a24a:    2875        u(      CMP      r0,#0x75
        0x0001a24c:    f000810c    ....    BEQ.W    0x1a468 ; am_util_stdio_vsprintf + 880
        0x0001a250:    2878        x(      CMP      r0,#0x78
        0x0001a252:    bf08        ..      IT       EQ
        0x0001a254:    2701        .'      MOVEQ    r7,#1
        0x0001a256:    d06e        n.      BEQ      0x1a336 ; am_util_stdio_vsprintf + 574
        0x0001a258:    2c00        .,      CMP      r4,#0
        0x0001a25a:    bf18        ..      IT       NE
        0x0001a25c:    f8040b01    ....    STRBNE   r0,[r4],#1
        0x0001a260:    e007        ..      B        0x1a272 ; am_util_stdio_vsprintf + 378
        0x0001a262:    980a        ..      LDR      r0,[sp,#0x28]
        0x0001a264:    2c00        .,      CMP      r4,#0
        0x0001a266:    f8101b04    ....    LDRB     r1,[r0],#4
        0x0001a26a:    900a        ..      STR      r0,[sp,#0x28]
        0x0001a26c:    bf18        ..      IT       NE
        0x0001a26e:    f8041b01    ....    STRBNE   r1,[r4],#1
        0x0001a272:    1c6d        m.      ADDS     r5,r5,#1
        0x0001a274:    f000bac9    ....    B.W      0x1a80a ; am_util_stdio_vsprintf + 1810
        0x0001a278:    990a        ..      LDR      r1,[sp,#0x28]
        0x0001a27a:    2200        ."      MOVS     r2,#0
        0x0001a27c:    f8510b04    Q...    LDR      r0,[r1],#4
        0x0001a280:    910a        ..      STR      r1,[sp,#0x28]
        0x0001a282:    b140        @.      CBZ      r0,0x1a296 ; am_util_stdio_vsprintf + 414
        0x0001a284:    7803        .x      LDRB     r3,[r0,#0]
        0x0001a286:    1c41        A.      ADDS     r1,r0,#1
        0x0001a288:    b12b        +.      CBZ      r3,0x1a296 ; am_util_stdio_vsprintf + 414
        0x0001a28a:    bf00        ..      NOP      
        0x0001a28c:    f8113b01    ...;    LDRB     r3,[r1],#1
        0x0001a290:    1c52        R.      ADDS     r2,r2,#1
        0x0001a292:    2b00        .+      CMP      r3,#0
        0x0001a294:    d1fa        ..      BNE      0x1a28c ; am_util_stdio_vsprintf + 404
        0x0001a296:    9900        ..      LDR      r1,[sp,#0]
        0x0001a298:    2900        .)      CMP      r1,#0
        0x0001a29a:    dd1e        ..      BLE      0x1a2da ; am_util_stdio_vsprintf + 482
        0x0001a29c:    428a        .B      CMP      r2,r1
        0x0001a29e:    d21c        ..      BCS      0x1a2da ; am_util_stdio_vsprintf + 482
        0x0001a2a0:    1a8b        ..      SUBS     r3,r1,r2
        0x0001a2a2:    9f01        ..      LDR      r7,[sp,#4]
        0x0001a2a4:    4621        !F      MOV      r1,r4
        0x0001a2a6:    f04f0c00    O...    MOV      r12,#0
        0x0001a2aa:    2b00        .+      CMP      r3,#0
        0x0001a2ac:    bfc4        ..      ITT      GT
        0x0001a2ae:    1e5b        [.      SUBGT    r3,r3,#1
        0x0001a2b0:    f1b33fff    ...?    CMPGT    r3,#0xffffffff
        0x0001a2b4:    dd09        ..      BLE      0x1a2ca ; am_util_stdio_vsprintf + 466
        0x0001a2b6:    2900        .)      CMP      r1,#0
        0x0001a2b8:    bf18        ..      IT       NE
        0x0001a2ba:    f8017b01    ...{    STRBNE   r7,[r1],#1
        0x0001a2be:    1e5b        [.      SUBS     r3,r3,#1
        0x0001a2c0:    f10c0c01    ....    ADD      r12,r12,#1
        0x0001a2c4:    f1b33fff    ...?    CMP      r3,#0xffffffff
        0x0001a2c8:    dcf5        ..      BGT      0x1a2b6 ; am_util_stdio_vsprintf + 446
        0x0001a2ca:    2c00        .,      CMP      r4,#0
        0x0001a2cc:    bf14        ..      ITE      NE
        0x0001a2ce:    4661        aF      MOVNE    r1,r12
        0x0001a2d0:    2100        .!      MOVEQ    r1,#0
        0x0001a2d2:    440c        .D      ADD      r4,r4,r1
        0x0001a2d4:    2100        .!      MOVS     r1,#0
        0x0001a2d6:    4465        eD      ADD      r5,r5,r12
        0x0001a2d8:    9100        ..      STR      r1,[sp,#0]
        0x0001a2da:    7801        .x      LDRB     r1,[r0,#0]
        0x0001a2dc:    b139        9.      CBZ      r1,0x1a2ee ; am_util_stdio_vsprintf + 502
        0x0001a2de:    b10c        ..      CBZ      r4,0x1a2e4 ; am_util_stdio_vsprintf + 492
        0x0001a2e0:    f8041b01    ....    STRB     r1,[r4],#1
        0x0001a2e4:    f8101f01    ....    LDRB     r1,[r0,#1]!
        0x0001a2e8:    1c6d        m.      ADDS     r5,r5,#1
        0x0001a2ea:    2900        .)      CMP      r1,#0
        0x0001a2ec:    d1f7        ..      BNE      0x1a2de ; am_util_stdio_vsprintf + 486
        0x0001a2ee:    9800        ..      LDR      r0,[sp,#0]
        0x0001a2f0:    2800        .(      CMP      r0,#0
        0x0001a2f2:    bf1c        ..      ITT      NE
        0x0001a2f4:    4240        @B      RSBNE    r0,r0,#0
        0x0001a2f6:    4282        .B      CMPNE    r2,r0
        0x0001a2f8:    f0808287    ....    BCS.W    0x1a80a ; am_util_stdio_vsprintf + 1810
        0x0001a2fc:    1a82        ..      SUBS     r2,r0,r2
        0x0001a2fe:    2000        .       MOVS     r0,#0
        0x0001a300:    9b01        ..      LDR      r3,[sp,#4]
        0x0001a302:    4621        !F      MOV      r1,r4
        0x0001a304:    2a00        .*      CMP      r2,#0
        0x0001a306:    bfc4        ..      ITT      GT
        0x0001a308:    1e52        R.      SUBGT    r2,r2,#1
        0x0001a30a:    f1b23fff    ...?    CMPGT    r2,#0xffffffff
        0x0001a30e:    dd08        ..      BLE      0x1a322 ; am_util_stdio_vsprintf + 554
        0x0001a310:    2900        .)      CMP      r1,#0
        0x0001a312:    bf18        ..      IT       NE
        0x0001a314:    f8013b01    ...;    STRBNE   r3,[r1],#1
        0x0001a318:    1c40        @.      ADDS     r0,r0,#1
        0x0001a31a:    1e52        R.      SUBS     r2,r2,#1
        0x0001a31c:    f1b23fff    ...?    CMP      r2,#0xffffffff
        0x0001a320:    dcf6        ..      BGT      0x1a310 ; am_util_stdio_vsprintf + 536
        0x0001a322:    2c00        .,      CMP      r4,#0
        0x0001a324:    bf14        ..      ITE      NE
        0x0001a326:    4601        .F      MOVNE    r1,r0
        0x0001a328:    2100        .!      MOVEQ    r1,#0
        0x0001a32a:    440c        .D      ADD      r4,r4,r1
        0x0001a32c:    4405        .D      ADD      r5,r5,r0
        0x0001a32e:    e000        ..      B        0x1a332 ; am_util_stdio_vsprintf + 570
        0x0001a330:    e001        ..      B        0x1a336 ; am_util_stdio_vsprintf + 574
        0x0001a332:    f000ba6a    ..j.    B.W      0x1a80a ; am_util_stdio_vsprintf + 1810
        0x0001a336:    f1bc0f00    ....    CMP      r12,#0
        0x0001a33a:    d007        ..      BEQ      0x1a34c ; am_util_stdio_vsprintf + 596
        0x0001a33c:    980a        ..      LDR      r0,[sp,#0x28]
        0x0001a33e:    1dc0        ..      ADDS     r0,r0,#7
        0x0001a340:    f0200207     ...    BIC      r2,r0,#7
        0x0001a344:    e8f20102    ....    LDRD     r0,r1,[r2],#8
        0x0001a348:    920a        ..      STR      r2,[sp,#0x28]
        0x0001a34a:    e004        ..      B        0x1a356 ; am_util_stdio_vsprintf + 606
        0x0001a34c:    990a        ..      LDR      r1,[sp,#0x28]
        0x0001a34e:    f8510b04    Q...    LDR      r0,[r1],#4
        0x0001a352:    910a        ..      STR      r1,[sp,#0x28]
        0x0001a354:    2100        .!      MOVS     r1,#0
        0x0001a356:    9a00        ..      LDR      r2,[sp,#0]
        0x0001a358:    b38a        ..      CBZ      r2,0x1a3be ; am_util_stdio_vsprintf + 710
        0x0001a35a:    460b        .F      MOV      r3,r1
        0x0001a35c:    4602        .F      MOV      r2,r0
        0x0001a35e:    ea500c03    P...    ORRS     r12,r0,r3
        0x0001a362:    bf0c        ..      ITE      EQ
        0x0001a364:    f04f0c01    O...    MOVEQ    r12,#1
        0x0001a368:    f04f0c00    O...    MOVNE    r12,#0
        0x0001a36c:    d008        ..      BEQ      0x1a380 ; am_util_stdio_vsprintf + 648
        0x0001a36e:    0912        ..      LSRS     r2,r2,#4
        0x0001a370:    ea427203    B..r    ORR      r2,r2,r3,LSL #28
        0x0001a374:    091b        ..      LSRS     r3,r3,#4
        0x0001a376:    f10c0c01    ....    ADD      r12,r12,#1
        0x0001a37a:    ea520803    R...    ORRS     r8,r2,r3
        0x0001a37e:    d1f6        ..      BNE      0x1a36e ; am_util_stdio_vsprintf + 630
        0x0001a380:    9a00        ..      LDR      r2,[sp,#0]
        0x0001a382:    9b01        ..      LDR      r3,[sp,#4]
        0x0001a384:    eba2020c    ....    SUB      r2,r2,r12
        0x0001a388:    46a4        .F      MOV      r12,r4
        0x0001a38a:    f04f0800    O...    MOV      r8,#0
        0x0001a38e:    2a00        .*      CMP      r2,#0
        0x0001a390:    bfc4        ..      ITT      GT
        0x0001a392:    1e52        R.      SUBGT    r2,r2,#1
        0x0001a394:    f1b23fff    ...?    CMPGT    r2,#0xffffffff
        0x0001a398:    dd0b        ..      BLE      0x1a3b2 ; am_util_stdio_vsprintf + 698
        0x0001a39a:    bf00        ..      NOP      
        0x0001a39c:    f1bc0f00    ....    CMP      r12,#0
        0x0001a3a0:    bf18        ..      IT       NE
        0x0001a3a2:    f80c3b01    ...;    STRBNE   r3,[r12],#1
        0x0001a3a6:    1e52        R.      SUBS     r2,r2,#1
        0x0001a3a8:    f1080801    ....    ADD      r8,r8,#1
        0x0001a3ac:    f1b23fff    ...?    CMP      r2,#0xffffffff
        0x0001a3b0:    dcf4        ..      BGT      0x1a39c ; am_util_stdio_vsprintf + 676
        0x0001a3b2:    2c00        .,      CMP      r4,#0
        0x0001a3b4:    bf14        ..      ITE      NE
        0x0001a3b6:    4642        BF      MOVNE    r2,r8
        0x0001a3b8:    2200        ."      MOVEQ    r2,#0
        0x0001a3ba:    4414        .D      ADD      r4,r4,r2
        0x0001a3bc:    4445        ED      ADD      r5,r5,r8
        0x0001a3be:    46a0        .F      MOV      r8,r4
        0x0001a3c0:    f04f0c00    O...    MOV      r12,#0
        0x0001a3c4:    ea500201    P...    ORRS     r2,r0,r1
        0x0001a3c8:    d106        ..      BNE      0x1a3d8 ; am_util_stdio_vsprintf + 736
        0x0001a3ca:    bf00        ..      NOP      
        0x0001a3cc:    f04f0230    O.0.    MOV      r2,#0x30
        0x0001a3d0:    f88d200c    ...     STRB     r2,[sp,#0xc]
        0x0001a3d4:    f04f0c01    O...    MOV      r12,#1
        0x0001a3d8:    bf18        ..      IT       NE
        0x0001a3da:    ab03        ..      ADDNE    r3,sp,#0xc
        0x0001a3dc:    d017        ..      BEQ      0x1a40e ; am_util_stdio_vsprintf + 790
        0x0001a3de:    bf00        ..      NOP      
        0x0001a3e0:    f000020f    ....    AND      r2,r0,#0xf
        0x0001a3e4:    2a09        .*      CMP      r2,#9
        0x0001a3e6:    d906        ..      BLS      0x1a3f6 ; am_util_stdio_vsprintf + 766
        0x0001a3e8:    2f00        ./      CMP      r7,#0
        0x0001a3ea:    bf14        ..      ITE      NE
        0x0001a3ec:    f04f0927    O.'.    MOVNE    r9,#0x27
        0x0001a3f0:    f04f0907    O...    MOVEQ    r9,#7
        0x0001a3f4:    444a        JD      ADD      r2,r2,r9
        0x0001a3f6:    3230        02      ADDS     r2,r2,#0x30
        0x0001a3f8:    0900        ..      LSRS     r0,r0,#4
        0x0001a3fa:    f803200c    ...     STRB     r2,[r3,r12]
        0x0001a3fe:    ea407001    @..p    ORR      r0,r0,r1,LSL #28
        0x0001a402:    0909        ..      LSRS     r1,r1,#4
        0x0001a404:    f10c0c01    ....    ADD      r12,r12,#1
        0x0001a408:    ea500201    P...    ORRS     r2,r0,r1
        0x0001a40c:    d1e8        ..      BNE      0x1a3e0 ; am_util_stdio_vsprintf + 744
        0x0001a40e:    f1b80f00    ....    CMP      r8,#0
        0x0001a412:    d022        ".      BEQ      0x1a45a ; am_util_stdio_vsprintf + 866
        0x0001a414:    f1ac0301    ....    SUB      r3,r12,#1
        0x0001a418:    f1bc0200    ....    SUBS     r2,r12,#0
        0x0001a41c:    dd1a        ..      BLE      0x1a454 ; am_util_stdio_vsprintf + 860
        0x0001a41e:    a803        ..      ADD      r0,sp,#0xc
        0x0001a420:    4418        .D      ADD      r0,r0,r3
        0x0001a422:    1c41        A.      ADDS     r1,r0,#1
        0x0001a424:    f1a80001    ....    SUB      r0,r8,#1
        0x0001a428:    f0130f01    ....    TST      r3,#1
        0x0001a42c:    d103        ..      BNE      0x1a436 ; am_util_stdio_vsprintf + 830
        0x0001a42e:    f8117d01    ...}    LDRB     r7,[r1,#-1]!
        0x0001a432:    f8007f01    ....    STRB     r7,[r0,#1]!
        0x0001a436:    1052        R.      ASRS     r2,r2,#1
        0x0001a438:    d009        ..      BEQ      0x1a44e ; am_util_stdio_vsprintf + 854
        0x0001a43a:    bf00        ..      NOP      
        0x0001a43c:    f8117c01    ...|    LDRB     r7,[r1,#-1]
        0x0001a440:    7047        Gp      STRB     r7,[r0,#1]
        0x0001a442:    f8117d02    ...}    LDRB     r7,[r1,#-2]!
        0x0001a446:    f8007f02    ....    STRB     r7,[r0,#2]!
        0x0001a44a:    1e52        R.      SUBS     r2,r2,#1
        0x0001a44c:    d1f6        ..      BNE      0x1a43c ; am_util_stdio_vsprintf + 836
        0x0001a44e:    18e0        ..      ADDS     r0,r4,r3
        0x0001a450:    f1000801    ....    ADD      r8,r0,#1
        0x0001a454:    2000        .       MOVS     r0,#0
        0x0001a456:    f8880000    ....    STRB     r0,[r8,#0]
        0x0001a45a:    2c00        .,      CMP      r4,#0
        0x0001a45c:    bf18        ..      IT       NE
        0x0001a45e:    4464        dD      ADDNE    r4,r4,r12
        0x0001a460:    4465        eD      ADD      r5,r5,r12
        0x0001a462:    f000b9d2    ....    B.W      0x1a80a ; am_util_stdio_vsprintf + 1810
        0x0001a466:    bf00        ..      NOP      
        0x0001a468:    980a        ..      LDR      r0,[sp,#0x28]
        0x0001a46a:    f1bc0f00    ....    CMP      r12,#0
        0x0001a46e:    d006        ..      BEQ      0x1a47e ; am_util_stdio_vsprintf + 902
        0x0001a470:    1dc0        ..      ADDS     r0,r0,#7
        0x0001a472:    f0200107     ...    BIC      r1,r0,#7
        0x0001a476:    e8f1e002    ....    LDRD     lr,r0,[r1],#8
        0x0001a47a:    910a        ..      STR      r1,[sp,#0x28]
        0x0001a47c:    e003        ..      B        0x1a486 ; am_util_stdio_vsprintf + 910
        0x0001a47e:    f850eb04    P...    LDR      lr,[r0],#4
        0x0001a482:    900a        ..      STR      r0,[sp,#0x28]
        0x0001a484:    2000        .       MOVS     r0,#0
        0x0001a486:    9003        ..      STR      r0,[sp,#0xc]
        0x0001a488:    9800        ..      LDR      r0,[sp,#0]
        0x0001a48a:    2800        .(      CMP      r0,#0
        0x0001a48c:    d07e        ~.      BEQ      0x1a58c ; am_util_stdio_vsprintf + 1172
        0x0001a48e:    9903        ..      LDR      r1,[sp,#0xc]
        0x0001a490:    4670        pF      MOV      r0,lr
        0x0001a492:    ea5e0201    ^...    ORRS     r2,lr,r1
        0x0001a496:    bf0e        ..      ITEE     EQ
        0x0001a498:    2301        .#      MOVEQ    r3,#1
        0x0001a49a:    2300        .#      MOVNE    r3,#0
        0x0001a49c:    f04f0c00    O...    MOVNE    r12,#0
        0x0001a4a0:    d05e        ^.      BEQ      0x1a560 ; am_util_stdio_vsprintf + 1128
        0x0001a4a2:    b3c1        ..      CBZ      r1,0x1a516 ; am_util_stdio_vsprintf + 1054
        0x0001a4a4:    084a        J.      LSRS     r2,r1,#1
        0x0001a4a6:    ea4f0990    O...    LSR      r9,r0,#2
        0x0001a4aa:    ea4f0730    O.0.    RRX      r7,r0
        0x0001a4ae:    ea497881    I..x    ORR      r8,r9,r1,LSL #30
        0x0001a4b2:    eb170708    ....    ADDS     r7,r7,r8
        0x0001a4b6:    eb420291    B...    ADC      r2,r2,r1,LSR #2
        0x0001a4ba:    ea4f1917    O...    LSR      r9,r7,#4
        0x0001a4be:    ea497802    I..x    ORR      r8,r9,r2,LSL #28
        0x0001a4c2:    eb180707    ....    ADDS     r7,r8,r7
        0x0001a4c6:    eb421812    B...    ADC      r8,r2,r2,LSR #4
        0x0001a4ca:    ea4f2917    O..)    LSR      r9,r7,#8
        0x0001a4ce:    ea496208    I..b    ORR      r2,r9,r8,LSL #24
        0x0001a4d2:    19d2        ..      ADDS     r2,r2,r7
        0x0001a4d4:    eb482718    H..'    ADC      r7,r8,r8,LSR #8
        0x0001a4d8:    ea4f4912    O..I    LSR      r9,r2,#16
        0x0001a4dc:    ea494807    I..H    ORR      r8,r9,r7,LSL #16
        0x0001a4e0:    eb180802    ....    ADDS     r8,r8,r2
        0x0001a4e4:    eb474217    G..B    ADC      r2,r7,r7,LSR #16
        0x0001a4e8:    eb180702    ....    ADDS     r7,r8,r2
        0x0001a4ec:    eb42020c    B...    ADC      r2,r2,r12
        0x0001a4f0:    08ff        ..      LSRS     r7,r7,#3
        0x0001a4f2:    ea477742    G.Bw    ORR      r7,r7,r2,LSL #29
        0x0001a4f6:    f04f080a    O...    MOV      r8,#0xa
        0x0001a4fa:    fba7ab08    ....    UMULL    r10,r11,r7,r8
        0x0001a4fe:    08d2        ..      LSRS     r2,r2,#3
        0x0001a500:    fb02b808    ....    MLA      r8,r2,r8,r11
        0x0001a504:    f04f0900    O...    MOV      r9,#0
        0x0001a508:    fb078909    ....    MLA      r9,r7,r9,r8
        0x0001a50c:    ebb0080a    ....    SUBS     r8,r0,r10
        0x0001a510:    eb610009    a...    SBC      r0,r1,r9
        0x0001a514:    e002        ..      B        0x1a51c ; am_util_stdio_vsprintf + 1060
        0x0001a516:    e00c        ..      B        0x1a532 ; am_util_stdio_vsprintf + 1082
    $d
        0x0001a518:    10000098    ....    DCD    268435608
    $t
        0x0001a51c:    f1180106    ....    ADDS     r1,r8,#6
        0x0001a520:    f1400800    @...    ADC      r8,r0,#0
        0x0001a524:    0909        ..      LSRS     r1,r1,#4
        0x0001a526:    ea417008    A..p    ORR      r0,r1,r8,LSL #28
        0x0001a52a:    19c0        ..      ADDS     r0,r0,r7
        0x0001a52c:    eb421118    B...    ADC      r1,r2,r8,LSR #4
        0x0001a530:    e012        ..      B        0x1a558 ; am_util_stdio_vsprintf + 1120
        0x0001a532:    0841        A.      LSRS     r1,r0,#1
        0x0001a534:    eb010190    ....    ADD      r1,r1,r0,LSR #2
        0x0001a538:    eb011111    ....    ADD      r1,r1,r1,LSR #4
        0x0001a53c:    eb012111    ...!    ADD      r1,r1,r1,LSR #8
        0x0001a540:    eb014111    ...A    ADD      r1,r1,r1,LSR #16
        0x0001a544:    08c9        ..      LSRS     r1,r1,#3
        0x0001a546:    424a        JB      RSBS     r2,r1,#0
        0x0001a548:    eb020282    ....    ADD      r2,r2,r2,LSL #2
        0x0001a54c:    eb000042    ..B.    ADD      r0,r0,r2,LSL #1
        0x0001a550:    1d80        ..      ADDS     r0,r0,#6
        0x0001a552:    eb011010    ....    ADD      r0,r1,r0,LSR #4
        0x0001a556:    4661        aF      MOV      r1,r12
        0x0001a558:    1c5b        [.      ADDS     r3,r3,#1
        0x0001a55a:    ea500201    P...    ORRS     r2,r0,r1
        0x0001a55e:    d1a0        ..      BNE      0x1a4a2 ; am_util_stdio_vsprintf + 938
        0x0001a560:    9800        ..      LDR      r0,[sp,#0]
        0x0001a562:    2100        .!      MOVS     r1,#0
        0x0001a564:    1ac2        ..      SUBS     r2,r0,r3
        0x0001a566:    9b01        ..      LDR      r3,[sp,#4]
        0x0001a568:    4620         F      MOV      r0,r4
        0x0001a56a:    2a00        .*      CMP      r2,#0
        0x0001a56c:    bfc4        ..      ITT      GT
        0x0001a56e:    1e52        R.      SUBGT    r2,r2,#1
        0x0001a570:    f1b23fff    ...?    CMPGT    r2,#0xffffffff
        0x0001a574:    dd08        ..      BLE      0x1a588 ; am_util_stdio_vsprintf + 1168
        0x0001a576:    2800        .(      CMP      r0,#0
        0x0001a578:    bf18        ..      IT       NE
        0x0001a57a:    f8003b01    ...;    STRBNE   r3,[r0],#1
        0x0001a57e:    1c49        I.      ADDS     r1,r1,#1
        0x0001a580:    1e52        R.      SUBS     r2,r2,#1
        0x0001a582:    f1b23fff    ...?    CMP      r2,#0xffffffff
        0x0001a586:    dcf6        ..      BGT      0x1a576 ; am_util_stdio_vsprintf + 1150
        0x0001a588:    2c00        .,      CMP      r4,#0
        0x0001a58a:    e000        ..      B        0x1a58e ; am_util_stdio_vsprintf + 1174
        0x0001a58c:    e004        ..      B        0x1a598 ; am_util_stdio_vsprintf + 1184
        0x0001a58e:    bf14        ..      ITE      NE
        0x0001a590:    4608        .F      MOVNE    r0,r1
        0x0001a592:    2000        .       MOVEQ    r0,#0
        0x0001a594:    4404        .D      ADD      r4,r4,r0
        0x0001a596:    440d        .D      ADD      r5,r5,r1
        0x0001a598:    4622        "F      MOV      r2,r4
        0x0001a59a:    4670        pF      MOV      r0,lr
        0x0001a59c:    9903        ..      LDR      r1,[sp,#0xc]
        0x0001a59e:    f000fd28    ..(.    BL       uint64_to_str ; 0x1aff2
        0x0001a5a2:    bbdc        ..      CBNZ     r4,0x1a61c ; am_util_stdio_vsprintf + 1316
        0x0001a5a4:    4405        .D      ADD      r5,r5,r0
        0x0001a5a6:    e130        0.      B        0x1a80a ; am_util_stdio_vsprintf + 1810
        0x0001a5a8:    980a        ..      LDR      r0,[sp,#0x28]
        0x0001a5aa:    f1bc0f00    ....    CMP      r12,#0
        0x0001a5ae:    d006        ..      BEQ      0x1a5be ; am_util_stdio_vsprintf + 1222
        0x0001a5b0:    1dc0        ..      ADDS     r0,r0,#7
        0x0001a5b2:    f0200007     ...    BIC      r0,r0,#7
        0x0001a5b6:    e8f08702    ....    LDRD     r8,r7,[r0],#8
        0x0001a5ba:    900a        ..      STR      r0,[sp,#0x28]
        0x0001a5bc:    e004        ..      B        0x1a5c8 ; am_util_stdio_vsprintf + 1232
        0x0001a5be:    f8508b04    P...    LDR      r8,[r0],#4
        0x0001a5c2:    900a        ..      STR      r0,[sp,#0x28]
        0x0001a5c4:    ea4f77e8    O..w    ASR      r7,r8,#31
        0x0001a5c8:    2f00        ./      CMP      r7,#0
        0x0001a5ca:    bfa8        ..      IT       GE
        0x0001a5cc:    f04f0900    O...    MOVGE    r9,#0
        0x0001a5d0:    da06        ..      BGE      0x1a5e0 ; am_util_stdio_vsprintf + 1256
        0x0001a5d2:    2000        .       MOVS     r0,#0
        0x0001a5d4:    f1d80800    ....    RSBS     r8,r8,#0
        0x0001a5d8:    eb600707    `...    SBC      r7,r0,r7
        0x0001a5dc:    f04f0901    O...    MOV      r9,#1
        0x0001a5e0:    9800        ..      LDR      r0,[sp,#0]
        0x0001a5e2:    b3d8        ..      CBZ      r0,0x1a65c ; am_util_stdio_vsprintf + 1380
        0x0001a5e4:    4640        @F      MOV      r0,r8
        0x0001a5e6:    0039        9.      MOVS     r1,r7
        0x0001a5e8:    d503        ..      BPL      0x1a5f2 ; am_util_stdio_vsprintf + 1274
        0x0001a5ea:    2200        ."      MOVS     r2,#0
        0x0001a5ec:    4240        @B      RSBS     r0,r0,#0
        0x0001a5ee:    eb620107    b...    SBC      r1,r2,r7
        0x0001a5f2:    f000fc9b    ....    BL       ndigits_in_u64 ; 0x1af2c
        0x0001a5f6:    9900        ..      LDR      r1,[sp,#0]
        0x0001a5f8:    1a0a        ..      SUBS     r2,r1,r0
        0x0001a5fa:    f1b90f00    ....    CMP      r9,#0
        0x0001a5fe:    d008        ..      BEQ      0x1a612 ; am_util_stdio_vsprintf + 1306
        0x0001a600:    9801        ..      LDR      r0,[sp,#4]
        0x0001a602:    1e52        R.      SUBS     r2,r2,#1
        0x0001a604:    2830        0(      CMP      r0,#0x30
        0x0001a606:    d104        ..      BNE      0x1a612 ; am_util_stdio_vsprintf + 1306
        0x0001a608:    b114        ..      CBZ      r4,0x1a610 ; am_util_stdio_vsprintf + 1304
        0x0001a60a:    202d        -       MOVS     r0,#0x2d
        0x0001a60c:    f8040b01    ....    STRB     r0,[r4],#1
        0x0001a610:    1c6d        m.      ADDS     r5,r5,#1
        0x0001a612:    2100        .!      MOVS     r1,#0
        0x0001a614:    4620         F      MOV      r0,r4
        0x0001a616:    9b01        ..      LDR      r3,[sp,#4]
        0x0001a618:    2a00        .*      CMP      r2,#0
        0x0001a61a:    e000        ..      B        0x1a61e ; am_util_stdio_vsprintf + 1318
        0x0001a61c:    e02c        ,.      B        0x1a678 ; am_util_stdio_vsprintf + 1408
        0x0001a61e:    bfc4        ..      ITT      GT
        0x0001a620:    1e52        R.      SUBGT    r2,r2,#1
        0x0001a622:    f1b23fff    ...?    CMPGT    r2,#0xffffffff
        0x0001a626:    dd08        ..      BLE      0x1a63a ; am_util_stdio_vsprintf + 1346
        0x0001a628:    2800        .(      CMP      r0,#0
        0x0001a62a:    bf18        ..      IT       NE
        0x0001a62c:    f8003b01    ...;    STRBNE   r3,[r0],#1
        0x0001a630:    1c49        I.      ADDS     r1,r1,#1
        0x0001a632:    1e52        R.      SUBS     r2,r2,#1
        0x0001a634:    f1b23fff    ...?    CMP      r2,#0xffffffff
        0x0001a638:    dcf6        ..      BGT      0x1a628 ; am_util_stdio_vsprintf + 1328
        0x0001a63a:    2c00        .,      CMP      r4,#0
        0x0001a63c:    bf14        ..      ITE      NE
        0x0001a63e:    4608        .F      MOVNE    r0,r1
        0x0001a640:    2000        .       MOVEQ    r0,#0
        0x0001a642:    4404        .D      ADD      r4,r4,r0
        0x0001a644:    440d        .D      ADD      r5,r5,r1
        0x0001a646:    f1b90f00    ....    CMP      r9,#0
        0x0001a64a:    d00e        ..      BEQ      0x1a66a ; am_util_stdio_vsprintf + 1394
        0x0001a64c:    9801        ..      LDR      r0,[sp,#4]
        0x0001a64e:    2820         (      CMP      r0,#0x20
        0x0001a650:    d10b        ..      BNE      0x1a66a ; am_util_stdio_vsprintf + 1394
        0x0001a652:    b14c        L.      CBZ      r4,0x1a668 ; am_util_stdio_vsprintf + 1392
        0x0001a654:    202d        -       MOVS     r0,#0x2d
        0x0001a656:    f8040b01    ....    STRB     r0,[r4],#1
        0x0001a65a:    e005        ..      B        0x1a668 ; am_util_stdio_vsprintf + 1392
        0x0001a65c:    e7ff        ..      B        0x1a65e ; am_util_stdio_vsprintf + 1382
        0x0001a65e:    f1b90f00    ....    CMP      r9,#0
        0x0001a662:    d002        ..      BEQ      0x1a66a ; am_util_stdio_vsprintf + 1394
        0x0001a664:    2c00        .,      CMP      r4,#0
        0x0001a666:    d1f5        ..      BNE      0x1a654 ; am_util_stdio_vsprintf + 1372
        0x0001a668:    1c6d        m.      ADDS     r5,r5,#1
        0x0001a66a:    4622        "F      MOV      r2,r4
        0x0001a66c:    4640        @F      MOV      r0,r8
        0x0001a66e:    4639        9F      MOV      r1,r7
        0x0001a670:    f000fcbf    ....    BL       uint64_to_str ; 0x1aff2
        0x0001a674:    2c00        .,      CMP      r4,#0
        0x0001a676:    d095        ..      BEQ      0x1a5a4 ; am_util_stdio_vsprintf + 1196
        0x0001a678:    4404        .D      ADD      r4,r4,r0
        0x0001a67a:    e793        ..      B        0x1a5a4 ; am_util_stdio_vsprintf + 1196
        0x0001a67c:    2c00        .,      CMP      r4,#0
        0x0001a67e:    d07d        }.      BEQ      0x1a77c ; am_util_stdio_vsprintf + 1668
        0x0001a680:    980a        ..      LDR      r0,[sp,#0x28]
        0x0001a682:    1dc0        ..      ADDS     r0,r0,#7
        0x0001a684:    f0200007     ...    BIC      r0,r0,#7
        0x0001a688:    ecb00b02    ....    VLDM     r0!,{d0}
        0x0001a68c:    900a        ..      STR      r0,[sp,#0x28]
        0x0001a68e:    ec510b10    Q...    VMOV     r0,r1,d0
        0x0001a692:    f000fd41    ..A.    BL       __aeabi_d2f ; 0x1b118
        0x0001a696:    ee000a10    ....    VMOV     s0,r0
        0x0001a69a:    f04f0a14    O...    MOV      r10,#0x14
        0x0001a69e:    4627        'F      MOV      r7,r4
        0x0001a6a0:    eeb50ac0    ....    VCMPE.F32 s0,#0.0
        0x0001a6a4:    f8c4a000    ....    STR      r10,[r4,#0]
        0x0001a6a8:    eef1fa10    ....    VMRS     APSR_nzcv,FPSCR
        0x0001a6ac:    d103        ..      BNE      0x1a6b6 ; am_util_stdio_vsprintf + 1470
        0x0001a6ae:    485f        _H      LDR      r0,[pc,#380] ; [0x1a82c] = 0x302e30
        0x0001a6b0:    6020         `      STR      r0,[r4,#0]
        0x0001a6b2:    2003        .       MOVS     r0,#3
        0x0001a6b4:    e0a7        ..      B        0x1a806 ; am_util_stdio_vsprintf + 1806
        0x0001a6b6:    ee100a10    ....    VMOV     r0,s0
        0x0001a6ba:    f04f0800    O...    MOV      r8,#0
        0x0001a6be:    46a3        .F      MOV      r11,r4
        0x0001a6c0:    f3c051c7    ...Q    UBFX     r1,r0,#23,#8
        0x0001a6c4:    f020427f     ..B    BIC      r2,r0,#0xff000000
        0x0001a6c8:    397f        .9      SUBS     r1,r1,#0x7f
        0x0001a6ca:    f4420200    B...    ORR      r2,r2,#0x800000
        0x0001a6ce:    4643        CF      MOV      r3,r8
        0x0001a6d0:    291f        .)      CMP      r1,#0x1f
        0x0001a6d2:    da7d        }.      BGE      0x1a7d0 ; am_util_stdio_vsprintf + 1752
        0x0001a6d4:    f1110f17    ....    CMN      r1,#0x17
        0x0001a6d8:    db7b        {.      BLT      0x1a7d2 ; am_util_stdio_vsprintf + 1754
        0x0001a6da:    2917        .)      CMP      r1,#0x17
        0x0001a6dc:    bfa4        ..      ITT      GE
        0x0001a6de:    3917        .9      SUBGE    r1,r1,#0x17
        0x0001a6e0:    fa02f301    ....    LSLGE    r3,r2,r1
        0x0001a6e4:    da0e        ..      BGE      0x1a704 ; am_util_stdio_vsprintf + 1548
        0x0001a6e6:    2900        .)      CMP      r1,#0
        0x0001a6e8:    bfbc        ..      ITT      LT
        0x0001a6ea:    43c9        .C      MVNLT    r1,r1
        0x0001a6ec:    fa22f801    "...    LSRLT    r8,r2,r1
        0x0001a6f0:    db08        ..      BLT      0x1a704 ; am_util_stdio_vsprintf + 1548
        0x0001a6f2:    f1c10317    ....    RSB      r3,r1,#0x17
        0x0001a6f6:    fa42f303    B...    ASR      r3,r2,r3
        0x0001a6fa:    1c49        I.      ADDS     r1,r1,#1
        0x0001a6fc:    fa02f101    ....    LSL      r1,r2,r1
        0x0001a700:    f021487f    !..H    BIC      r8,r1,#0xff000000
        0x0001a704:    2800        .(      CMP      r0,#0
        0x0001a706:    da03        ..      BGE      0x1a710 ; am_util_stdio_vsprintf + 1560
        0x0001a708:    202d        -       MOVS     r0,#0x2d
        0x0001a70a:    7038        8p      STRB     r0,[r7,#0]
        0x0001a70c:    f10b0701    ....    ADD      r7,r11,#1
        0x0001a710:    2b00        .+      CMP      r3,#0
        0x0001a712:    bf04        ..      ITT      EQ
        0x0001a714:    2030        0       MOVEQ    r0,#0x30
        0x0001a716:    f8070b01    ....    STRBEQ   r0,[r7],#1
        0x0001a71a:    d015        ..      BEQ      0x1a748 ; am_util_stdio_vsprintf + 1616
        0x0001a71c:    dd06        ..      BLE      0x1a72c ; am_util_stdio_vsprintf + 1588
        0x0001a71e:    463a        :F      MOV      r2,r7
        0x0001a720:    4618        .F      MOV      r0,r3
        0x0001a722:    ea4f71e3    O..q    ASR      r1,r3,#31
        0x0001a726:    f000fc64    ..d.    BL       uint64_to_str ; 0x1aff2
        0x0001a72a:    e007        ..      B        0x1a73c ; am_util_stdio_vsprintf + 1604
        0x0001a72c:    202d        -       MOVS     r0,#0x2d
        0x0001a72e:    f8070b01    ....    STRB     r0,[r7],#1
        0x0001a732:    4258        XB      RSBS     r0,r3,#0
        0x0001a734:    463a        :F      MOV      r2,r7
        0x0001a736:    17c1        ..      ASRS     r1,r0,#31
        0x0001a738:    f000fc5b    ..[.    BL       uint64_to_str ; 0x1aff2
        0x0001a73c:    7838        8x      LDRB     r0,[r7,#0]
        0x0001a73e:    b118        ..      CBZ      r0,0x1a748 ; am_util_stdio_vsprintf + 1616
        0x0001a740:    f8170f01    ....    LDRB     r0,[r7,#1]!
        0x0001a744:    2800        .(      CMP      r0,#0
        0x0001a746:    d1fb        ..      BNE      0x1a740 ; am_util_stdio_vsprintf + 1608
        0x0001a748:    202e        .       MOVS     r0,#0x2e
        0x0001a74a:    1c7a        z.      ADDS     r2,r7,#1
        0x0001a74c:    7038        8p      STRB     r0,[r7,#0]
        0x0001a74e:    f1b80f00    ....    CMP      r8,#0
        0x0001a752:    d041        A.      BEQ      0x1a7d8 ; am_util_stdio_vsprintf + 1760
        0x0001a754:    eba2000b    ....    SUB      r0,r2,r11
        0x0001a758:    ebaa0000    ....    SUB      r0,r10,r0
        0x0001a75c:    f1a00c01    ....    SUB      r12,r0,#1
        0x0001a760:    45cc        .E      CMP      r12,r9
        0x0001a762:    bfc8        ..      IT       GT
        0x0001a764:    46cc        .F      MOVGT    r12,r9
        0x0001a766:    f1bc0f00    ....    CMP      r12,#0
        0x0001a76a:    dd11        ..      BLE      0x1a790 ; am_util_stdio_vsprintf + 1688
        0x0001a76c:    4617        .F      MOV      r7,r2
        0x0001a76e:    4660        `F      MOV      r0,r12
        0x0001a770:    f05f0330    _.0.    MOVS.W   r3,#0x30
        0x0001a774:    eb080188    ....    ADD      r1,r8,r8,LSL #2
        0x0001a778:    0049        I.      LSLS     r1,r1,#1
        0x0001a77a:    e000        ..      B        0x1a77e ; am_util_stdio_vsprintf + 1670
        0x0001a77c:    e045        E.      B        0x1a80a ; am_util_stdio_vsprintf + 1810
        0x0001a77e:    eb036821    ..!h    ADD      r8,r3,r1,ASR #24
        0x0001a782:    f8078b01    ....    STRB     r8,[r7],#1
        0x0001a786:    f021487f    !..H    BIC      r8,r1,#0xff000000
        0x0001a78a:    1e40        @.      SUBS     r0,r0,#1
        0x0001a78c:    d1f2        ..      BNE      0x1a774 ; am_util_stdio_vsprintf + 1660
        0x0001a78e:    4462        bD      ADD      r2,r2,r12
        0x0001a790:    eb080088    ....    ADD      r0,r8,r8,LSL #2
        0x0001a794:    0041        A.      LSLS     r1,r0,#1
        0x0001a796:    2005        .       MOVS     r0,#5
        0x0001a798:    ebb06f21    ..!o    CMP      r0,r1,ASR #24
        0x0001a79c:    dc24        $.      BGT      0x1a7e8 ; am_util_stdio_vsprintf + 1776
        0x0001a79e:    1e50        P.      SUBS     r0,r2,#1
        0x0001a7a0:    ebab0300    ....    SUB      r3,r11,r0
        0x0001a7a4:    2101        .!      MOVS     r1,#1
        0x0001a7a6:    f1c30301    ....    RSB      r3,r3,#1
        0x0001a7aa:    2b01        .+      CMP      r3,#1
        0x0001a7ac:    bfa8        ..      IT       GE
        0x0001a7ae:    2730        0'      MOVGE    r7,#0x30
        0x0001a7b0:    db1a        ..      BLT      0x1a7e8 ; am_util_stdio_vsprintf + 1776
        0x0001a7b2:    bf00        ..      NOP      
        0x0001a7b4:    f890c000    ....    LDRB     r12,[r0,#0]
        0x0001a7b8:    f1bc0f2e    ....    CMP      r12,#0x2e
        0x0001a7bc:    d010        ..      BEQ      0x1a7e0 ; am_util_stdio_vsprintf + 1768
        0x0001a7be:    f1bc0f39    ..9.    CMP      r12,#0x39
        0x0001a7c2:    bf08        ..      IT       EQ
        0x0001a7c4:    7007        .p      STRBEQ   r7,[r0,#0]
        0x0001a7c6:    d00b        ..      BEQ      0x1a7e0 ; am_util_stdio_vsprintf + 1768
        0x0001a7c8:    f00c01ff    ....    AND      r1,r12,#0xff
        0x0001a7cc:    1c49        I.      ADDS     r1,r1,#1
        0x0001a7ce:    e001        ..      B        0x1a7d4 ; am_util_stdio_vsprintf + 1756
        0x0001a7d0:    e02a        *.      B        0x1a828 ; am_util_stdio_vsprintf + 1840
        0x0001a7d2:    e027        '.      B        0x1a824 ; am_util_stdio_vsprintf + 1836
        0x0001a7d4:    7001        .p      STRB     r1,[r0,#0]
        0x0001a7d6:    e007        ..      B        0x1a7e8 ; am_util_stdio_vsprintf + 1776
        0x0001a7d8:    2030        0       MOVS     r0,#0x30
        0x0001a7da:    f8020b01    ....    STRB     r0,[r2],#1
        0x0001a7de:    e003        ..      B        0x1a7e8 ; am_util_stdio_vsprintf + 1776
        0x0001a7e0:    1e40        @.      SUBS     r0,r0,#1
        0x0001a7e2:    1c49        I.      ADDS     r1,r1,#1
        0x0001a7e4:    428b        .B      CMP      r3,r1
        0x0001a7e6:    dae5        ..      BGE      0x1a7b4 ; am_util_stdio_vsprintf + 1724
        0x0001a7e8:    2000        .       MOVS     r0,#0
        0x0001a7ea:    7010        .p      STRB     r0,[r2,#0]
        0x0001a7ec:    ebb2000b    ....    SUBS     r0,r2,r11
        0x0001a7f0:    d509        ..      BPL      0x1a806 ; am_util_stdio_vsprintf + 1806
        0x0001a7f2:    f1b03fff    ...?    CMP      r0,#0xffffffff
        0x0001a7f6:    d015        ..      BEQ      0x1a824 ; am_util_stdio_vsprintf + 1836
        0x0001a7f8:    f1100f02    ....    CMN      r0,#2
        0x0001a7fc:    bf18        ..      IT       NE
        0x0001a7fe:    480c        .H      LDRNE    r0,[pc,#48] ; [0x1a830] = 0x3f2e3f
        0x0001a800:    d012        ..      BEQ      0x1a828 ; am_util_stdio_vsprintf + 1840
        0x0001a802:    6020         `      STR      r0,[r4,#0]
        0x0001a804:    2003        .       MOVS     r0,#3
        0x0001a806:    4405        .D      ADD      r5,r5,r0
        0x0001a808:    4404        .D      ADD      r4,r4,r0
        0x0001a80a:    1c71        q.      ADDS     r1,r6,#1
        0x0001a80c:    7808        .x      LDRB     r0,[r1,#0]
        0x0001a80e:    2800        .(      CMP      r0,#0
        0x0001a810:    f47fac7c    ..|.    BNE      0x1a10c ; am_util_stdio_vsprintf + 20
        0x0001a814:    2c00        .,      CMP      r4,#0
        0x0001a816:    bf1c        ..      ITT      NE
        0x0001a818:    2000        .       MOVNE    r0,#0
        0x0001a81a:    7020         p      STRBNE   r0,[r4,#0]
        0x0001a81c:    4628        (F      MOV      r0,r5
        0x0001a81e:    b00b        ..      ADD      sp,sp,#0x2c
        0x0001a820:    e8bd8ff0    ....    POP      {r4-r11,pc}
        0x0001a824:    4801        .H      LDR      r0,[pc,#4] ; [0x1a82c] = 0x302e30
        0x0001a826:    e7ec        ..      B        0x1a802 ; am_util_stdio_vsprintf + 1802
        0x0001a828:    4802        .H      LDR      r0,[pc,#8] ; [0x1a834] = 0x232e23
        0x0001a82a:    e7ea        ..      B        0x1a802 ; am_util_stdio_vsprintf + 1802
    $d
        0x0001a82c:    00302e30    0.0.    DCD    3157552
        0x0001a830:    003f2e3f    ?.?.    DCD    4140607
        0x0001a834:    00232e23    #.#.    DCD    2305571
    $t
    i.copy_words
    copy_words
        0x0001a838:    b430        0.      PUSH     {r4,r5}
        0x0001a83a:    2301        .#      MOVS     r3,#1
        0x0001a83c:    f05f0403    _...    MOVS.W   r4,#3
        0x0001a840:    f1a20c01    ....    SUB      r12,r2,#1
        0x0001a844:    f851502c    Q.,P    LDR      r5,[r1,r12,LSL #2]
        0x0001a848:    f840502c    @.,P    STR      r5,[r0,r12,LSL #2]
        0x0001a84c:    1e92        ..      SUBS     r2,r2,#2
        0x0001a84e:    f851c022    Q.".    LDR      r12,[r1,r2,LSL #2]
        0x0001a852:    f840c022    @.".    STR      r12,[r0,r2,LSL #2]
        0x0001a856:    1c9b        ..      ADDS     r3,r3,#2
        0x0001a858:    42a3        .B      CMP      r3,r4
        0x0001a85a:    dbf1        ..      BLT      0x1a840 ; copy_words + 8
        0x0001a85c:    bc30        0.      POP      {r4,r5}
        0x0001a85e:    4770        pG      BX       lr
    i.crypto_boost_trims
    crypto_boost_trims
        0x0001a860:    b5f8        ..      PUSH     {r3-r7,lr}
        0x0001a862:    4f29        )O      LDR      r7,[pc,#164] ; [0x1a908] = 0x100000f0
        0x0001a864:    4606        .F      MOV      r6,r0
        0x0001a866:    460c        .F      MOV      r4,r1
        0x0001a868:    78b8        .x      LDRB     r0,[r7,#2]
        0x0001a86a:    ea460100    F...    ORR      r1,r6,r0
        0x0001a86e:    4030        0@      ANDS     r0,r0,r6
        0x0001a870:    ea310000    1...    BICS     r0,r1,r0
        0x0001a874:    bf08        ..      IT       EQ
        0x0001a876:    bdf8        ..      POPEQ    {r3-r7,pc}
        0x0001a878:    f7fdfd76    ..v.    BL       am_hal_interrupt_master_disable ; 0x18368
        0x0001a87c:    9000        ..      STR      r0,[sp,#0]
        0x0001a87e:    70be        .p      STRB     r6,[r7,#2]
        0x0001a880:    6a78        xj      LDR      r0,[r7,#0x24]
        0x0001a882:    2e00        ..      CMP      r6,#0
        0x0001a884:    bf0c        ..      ITE      EQ
        0x0001a886:    1b05        ..      SUBEQ    r5,r0,r4
        0x0001a888:    1905        ..      ADDNE    r5,r0,r4
        0x0001a88a:    627d        }b      STR      r5,[r7,#0x24]
        0x0001a88c:    2d00        .-      CMP      r5,#0
        0x0001a88e:    bfb8        ..      IT       LT
        0x0001a890:    2500        .%      MOVLT    r5,#0
        0x0001a892:    db02        ..      BLT      0x1a89a ; crypto_boost_trims + 58
        0x0001a894:    2d3f        ?-      CMP      r5,#0x3f
        0x0001a896:    bf88        ..      IT       HI
        0x0001a898:    253f        ?%      MOVHI    r5,#0x3f
        0x0001a89a:    2e00        ..      CMP      r6,#0
        0x0001a89c:    6ab8        .j      LDR      r0,[r7,#0x28]
        0x0001a89e:    bf14        ..      ITE      NE
        0x0001a8a0:    4404        .D      ADDNE    r4,r0
        0x0001a8a2:    1b04        ..      SUBEQ    r4,r0,r4
        0x0001a8a4:    62bc        .b      STR      r4,[r7,#0x28]
        0x0001a8a6:    2c00        .,      CMP      r4,#0
        0x0001a8a8:    bfb8        ..      IT       LT
        0x0001a8aa:    2400        .$      MOVLT    r4,#0
        0x0001a8ac:    db02        ..      BLT      0x1a8b4 ; crypto_boost_trims + 84
        0x0001a8ae:    2c3f        ?,      CMP      r4,#0x3f
        0x0001a8b0:    bf88        ..      IT       HI
        0x0001a8b2:    243f        ?$      MOVHI    r4,#0x3f
        0x0001a8b4:    4f15        .O      LDR      r7,[pc,#84] ; [0x1a90c] = 0x40020000
        0x0001a8b6:    b17e        ~.      CBZ      r6,0x1a8d8 ; crypto_boost_trims + 120
        0x0001a8b8:    f8d7036c    ..l.    LDR      r0,[r7,#0x36c]
        0x0001a8bc:    f3655019    e..P    BFI      r0,r5,#20,#6
        0x0001a8c0:    f8c7036c    ..l.    STR      r0,[r7,#0x36c]
        0x0001a8c4:    2014        .       MOVS     r0,#0x14
        0x0001a8c6:    f7fef9c7    ....    BL       am_hal_delay_us ; 0x18c58
        0x0001a8ca:    f8d70088    ....    LDR      r0,[r7,#0x88]
        0x0001a8ce:    f3640005    d...    BFI      r0,r4,#0,#6
        0x0001a8d2:    f8c70088    ....    STR      r0,[r7,#0x88]
        0x0001a8d6:    e00e        ..      B        0x1a8f6 ; crypto_boost_trims + 150
        0x0001a8d8:    f8d70088    ....    LDR      r0,[r7,#0x88]
        0x0001a8dc:    f3640005    d...    BFI      r0,r4,#0,#6
        0x0001a8e0:    f8c70088    ....    STR      r0,[r7,#0x88]
        0x0001a8e4:    2014        .       MOVS     r0,#0x14
        0x0001a8e6:    f7fef9b7    ....    BL       am_hal_delay_us ; 0x18c58
        0x0001a8ea:    f8d7036c    ..l.    LDR      r0,[r7,#0x36c]
        0x0001a8ee:    f3655019    e..P    BFI      r0,r5,#20,#6
        0x0001a8f2:    f8c7036c    ..l.    STR      r0,[r7,#0x36c]
        0x0001a8f6:    9800        ..      LDR      r0,[sp,#0]
        0x0001a8f8:    f7fdfd3a    ..:.    BL       am_hal_interrupt_master_set ; 0x18370
        0x0001a8fc:    e8bd40f8    ...@    POP      {r3-r7,lr}
        0x0001a900:    2014        .       MOVS     r0,#0x14
        0x0001a902:    f7feb9a9    ....    B        am_hal_delay_us ; 0x18c58
    $d
        0x0001a906:    0000        ..      DCW    0
        0x0001a908:    100000f0    ....    DCD    268435696
        0x0001a90c:    40020000    ...@    DCD    1073872896
    $t
    i.main
    main
        0x0001a910:    b09c        ..      SUB      sp,sp,#0x70
        0x0001a912:    f7fdfebf    ....    BL       am_bsp_itm_printf_enable ; 0x18694
        0x0001a916:    f7fffbd1    ....    BL       am_util_stdio_terminal_clear ; 0x1a0bc
        0x0001a91a:    a0ef        ..      ADR      r0,{pc}+0x3be ; 0x1acd8
        0x0001a91c:    f7fffbae    ....    BL       am_util_stdio_printf ; 0x1a07c
        0x0001a920:    4fff        .O      LDR      r7,[pc,#1020] ; [0x1ad20] = 0x1006fe58
        0x0001a922:    4efd        .N      LDR      r6,[pc,#1012] ; [0x1ad18] = 0x10060040
        0x0001a924:    4dfd        .M      LDR      r5,[pc,#1012] ; [0x1ad1c] = 0x10067f4c
        0x0001a926:    2400        .$      MOVS     r4,#0
        0x0001a928:    f507587e    ..~X    ADD      r8,r7,#0x3f80
        0x0001a92c:    f7fdfd24    ..$.    BL       rand ; 0x18378
        0x0001a930:    f8470024    G.$.    STR      r0,[r7,r4,LSL #2]
        0x0001a934:    f8450024    E.$.    STR      r0,[r5,r4,LSL #2]
        0x0001a938:    f7fdfd1e    ....    BL       rand ; 0x18378
        0x0001a93c:    eb050184    ....    ADD      r1,r5,r4,LSL #2
        0x0001a940:    f8480024    H.$.    STR      r0,[r8,r4,LSL #2]
        0x0001a944:    f5015140    ..@Q    ADD      r1,r1,#0x3000
        0x0001a948:    1c64        d.      ADDS     r4,r4,#1
        0x0001a94a:    f8c10f80    ....    STR      r0,[r1,#0xf80]
        0x0001a94e:    f5b46f7e    ..~o    CMP      r4,#0xfe0
        0x0001a952:    dbeb        ..      BLT      0x1a92c ; main + 28
        0x0001a954:    48f3        .H      LDR      r0,[pc,#972] ; [0x1ad24] = 0x10000080
        0x0001a956:    6006        .`      STR      r6,[r0,#0]
        0x0001a958:    6881        .h      LDR      r1,[r0,#8]
        0x0001a95a:    60c5        .`      STR      r5,[r0,#0xc]
        0x0001a95c:    eb060181    ....    ADD      r1,r6,r1,LSL #2
        0x0001a960:    6041        A`      STR      r1,[r0,#4]
        0x0001a962:    6941        Ai      LDR      r1,[r0,#0x14]
        0x0001a964:    eb050181    ....    ADD      r1,r5,r1,LSL #2
        0x0001a968:    6101        .a      STR      r1,[r0,#0x10]
        0x0001a96a:    2000        .       MOVS     r0,#0
        0x0001a96c:    9012        ..      STR      r0,[sp,#0x48]
        0x0001a96e:    f5055080    ...P    ADD      r0,r5,#0x1000
        0x0001a972:    9013        ..      STR      r0,[sp,#0x4c]
        0x0001a974:    f50540a0    ...@    ADD      r0,r5,#0x5000
        0x0001a978:    9015        ..      STR      r0,[sp,#0x54]
        0x0001a97a:    a0eb        ..      ADR      r0,{pc}+0x3ae ; 0x1ad28
        0x0001a97c:    9912        ..      LDR      r1,[sp,#0x48]
        0x0001a97e:    f7fffb7d    ..}.    BL       am_util_stdio_printf ; 0x1a07c
        0x0001a982:    4cf5        .L      LDR      r4,[pc,#980] ; [0x1ad58] = 0x1000011c
        0x0001a984:    2500        .%      MOVS     r5,#0
        0x0001a986:    4628        (F      MOV      r0,r5
        0x0001a988:    6065        e`      STR      r5,[r4,#4]
        0x0001a98a:    6025        %`      STR      r5,[r4,#0]
        0x0001a98c:    9912        ..      LDR      r1,[sp,#0x48]
        0x0001a98e:    4ef3        .N      LDR      r6,[pc,#972] ; [0x1ad5c] = 0x10000008
        0x0001a990:    eb010141    ..A.    ADD      r1,r1,r1,LSL #1
        0x0001a994:    9116        ..      STR      r1,[sp,#0x58]
        0x0001a996:    eb0601c1    ....    ADD      r1,r6,r1,LSL #3
        0x0001a99a:    f1060860    ..`.    ADD      r8,r6,#0x60
        0x0001a99e:    9114        ..      STR      r1,[sp,#0x50]
        0x0001a9a0:    f8c8100c    ....    STR      r1,[r8,#0xc]
        0x0001a9a4:    4629        )F      MOV      r1,r5
        0x0001a9a6:    f7fdfe39    ..9.    BL       am_bsp_i2s_pins_enable ; 0x1861c
        0x0001a9aa:    1f31        1.      SUBS     r1,r6,#4
        0x0001a9ac:    2000        .       MOVS     r0,#0
        0x0001a9ae:    f7fefc49    ..I.    BL       am_hal_i2s_initialize ; 0x19244
        0x0001a9b2:    f1a60708    ....    SUB      r7,r6,#8
        0x0001a9b6:    2200        ."      MOVS     r2,#0
        0x0001a9b8:    4611        .F      MOV      r1,r2
        0x0001a9ba:    6878        xh      LDR      r0,[r7,#4]
        0x0001a9bc:    f7fefd7a    ..z.    BL       am_hal_i2s_power_control ; 0x194b4
        0x0001a9c0:    f1060160    ..`.    ADD      r1,r6,#0x60
        0x0001a9c4:    6878        xh      LDR      r0,[r7,#4]
        0x0001a9c6:    f7fefa19    ....    BL       am_hal_i2s_configure ; 0x18dfc
        0x0001a9ca:    6878        xh      LDR      r0,[r7,#4]
        0x0001a9cc:    f7fefc20    .. .    BL       am_hal_i2s_enable ; 0x19210
        0x0001a9d0:    2100        .!      MOVS     r1,#0
        0x0001a9d2:    2007        .       MOVS     r0,#7
        0x0001a9d4:    f7fdfecc    ....    BL       am_hal_clkgen_control ; 0x18770
        0x0001a9d8:    f44f70fa    O..p    MOV      r0,#0x1f4
        0x0001a9dc:    f7fff8a7    ....    BL       am_util_delay_us ; 0x19b2e
        0x0001a9e0:    f8980002    ....    LDRB     r0,[r8,#2]
        0x0001a9e4:    380f        .8      SUBS     r0,r0,#0xf
        0x0001a9e6:    2806        .(      CMP      r0,#6
        0x0001a9e8:    d80c        ..      BHI      0x1aa04 ; main + 244
        0x0001a9ea:    48dd        .H      LDR      r0,[pc,#884] ; [0x1ad60] = 0x1b2b0
        0x0001a9ec:    4669        iF      MOV      r1,sp
        0x0001a9ee:    6840        @h      LDR      r0,[r0,#4]
        0x0001a9f0:    9001        ..      STR      r0,[sp,#4]
        0x0001a9f2:    f44f7080    O..p    MOV      r0,#0x100
        0x0001a9f6:    9000        ..      STR      r0,[sp,#0]
        0x0001a9f8:    2003        .       MOVS     r0,#3
        0x0001a9fa:    f7fefdfd    ....    BL       am_hal_mcuctrl_control ; 0x195f8
        0x0001a9fe:    20c8        .       MOVS     r0,#0xc8
        0x0001aa00:    f7fff890    ....    BL       am_util_delay_ms ; 0x19b24
        0x0001aa04:    4ac7        .J      LDR      r2,[pc,#796] ; [0x1ad24] = 0x10000080
        0x0001aa06:    6878        xh      LDR      r0,[r7,#4]
        0x0001aa08:    f1a20118    ....    SUB      r1,r2,#0x18
        0x0001aa0c:    f7fefb22    ..".    BL       am_hal_i2s_dma_configure ; 0x19054
        0x0001aa10:    49d4        .I      LDR      r1,[pc,#848] ; [0x1ad64] = 0xe000e004
        0x0001aa12:    f44f5080    O..P    MOV      r0,#0x1000
        0x0001aa16:    f8c10100    ....    STR      r0,[r1,#0x100]
        0x0001aa1a:    f7fdfca1    ....    BL       am_hal_interrupt_master_enable ; 0x18360
        0x0001aa1e:    49d2        .I      LDR      r1,[pc,#840] ; [0x1ad68] = 0x10000068
        0x0001aa20:    6878        xh      LDR      r0,[r7,#4]
        0x0001aa22:    f7fefb97    ....    BL       am_hal_i2s_dma_transfer_start ; 0x19154
        0x0001aa26:    603d        =`      STR      r5,[r7,#0]
        0x0001aa28:    48cb        .H      LDR      r0,[pc,#812] ; [0x1ad58] = 0x1000011c
        0x0001aa2a:    6801        .h      LDR      r1,[r0,#0]
        0x0001aa2c:    2900        .)      CMP      r1,#0
        0x0001aa2e:    d0fb        ..      BEQ      0x1aa28 ; main + 280
        0x0001aa30:    6840        @h      LDR      r0,[r0,#4]
        0x0001aa32:    2800        .(      CMP      r0,#0
        0x0001aa34:    d0f8        ..      BEQ      0x1aa28 ; main + 280
        0x0001aa36:    4dcd        .M      LDR      r5,[pc,#820] ; [0x1ad6c] = 0x10000000
        0x0001aa38:    2100        .!      MOVS     r1,#0
        0x0001aa3a:    6828        (h      LDR      r0,[r5,#0]
        0x0001aa3c:    1c40        @.      ADDS     r0,r0,#1
        0x0001aa3e:    6028        (`      STR      r0,[r5,#0]
        0x0001aa40:    6868        hh      LDR      r0,[r5,#4]
        0x0001aa42:    f7fefb67    ..g.    BL       am_hal_i2s_dma_get_buffer ; 0x19114
        0x0001aa46:    4604        .F      MOV      r4,r0
        0x0001aa48:    2101        .!      MOVS     r1,#1
        0x0001aa4a:    6868        hh      LDR      r0,[r5,#4]
        0x0001aa4c:    f7fefb62    ..b.    BL       am_hal_i2s_dma_get_buffer ; 0x19114
        0x0001aa50:    9008        ..      STR      r0,[sp,#0x20]
        0x0001aa52:    9916        ..      LDR      r1,[sp,#0x58]
        0x0001aa54:    f1050008    ....    ADD      r0,r5,#8
        0x0001aa58:    9a14        ..      LDR      r2,[sp,#0x50]
        0x0001aa5a:    f8103031    ..10    LDRB     r3,[r0,r1,LSL #3]
        0x0001aa5e:    9814        ..      LDR      r0,[sp,#0x50]
        0x0001aa60:    49c3        .I      LDR      r1,[pc,#780] ; [0x1ad70] = 0x1b298
        0x0001aa62:    25c8        .%      MOVS     r5,#0xc8
        0x0001aa64:    6840        @h      LDR      r0,[r0,#4]
        0x0001aa66:    900c        ..      STR      r0,[sp,#0x30]
        0x0001aa68:    9814        ..      LDR      r0,[sp,#0x50]
        0x0001aa6a:    7d52        R}      LDRB     r2,[r2,#0x15]
        0x0001aa6c:    f44f687e    O.~h    MOV      r8,#0xfe0
        0x0001aa70:    6887        .h      LDR      r7,[r0,#8]
        0x0001aa72:    7d00        .}      LDRB     r0,[r0,#0x14]
        0x0001aa74:    f8512022    Q."     LDR      r2,[r1,r2,LSL #2]
        0x0001aa78:    f8510020    Q. .    LDR      r0,[r1,r0,LSL #2]
        0x0001aa7c:    2100        .!      MOVS     r1,#0
        0x0001aa7e:    9109        ..      STR      r1,[sp,#0x24]
        0x0001aa80:    9104        ..      STR      r1,[sp,#0x10]
        0x0001aa82:    9110        ..      STR      r1,[sp,#0x40]
        0x0001aa84:    4689        .F      MOV      r9,r1
        0x0001aa86:    9105        ..      STR      r1,[sp,#0x14]
        0x0001aa88:    460e        .F      MOV      r6,r1
        0x0001aa8a:    468c        .F      MOV      r12,r1
        0x0001aa8c:    9118        ..      STR      r1,[sp,#0x60]
        0x0001aa8e:    9111        ..      STR      r1,[sp,#0x44]
        0x0001aa90:    2b01        .+      CMP      r3,#1
        0x0001aa92:    d004        ..      BEQ      0x1aa9e ; main + 398
        0x0001aa94:    2b00        .+      CMP      r3,#0
        0x0001aa96:    d07c        |.      BEQ      0x1ab92 ; main + 642
        0x0001aa98:    a0b6        ..      ADR      r0,{pc}+0x2dc ; 0x1ad74
        0x0001aa9a:    f000b89d    ....    B.W      0x1abd8 ; main + 712
        0x0001aa9e:    4290        .B      CMP      r0,r2
        0x0001aaa0:    d07c        |.      BEQ      0x1ab9c ; main + 652
        0x0001aaa2:    2810        .(      CMP      r0,#0x10
        0x0001aaa4:    d015        ..      BEQ      0x1aad2 ; main + 450
        0x0001aaa6:    2808        .(      CMP      r0,#8
        0x0001aaa8:    d016        ..      BEQ      0x1aad8 ; main + 456
        0x0001aaaa:    2820         (      CMP      r0,#0x20
        0x0001aaac:    d02b        +.      BEQ      0x1ab06 ; main + 502
        0x0001aaae:    2a20         *      CMP      r2,#0x20
        0x0001aab0:    d019        ..      BEQ      0x1aae6 ; main + 470
        0x0001aab2:    2808        .(      CMP      r0,#8
        0x0001aab4:    bf08        ..      IT       EQ
        0x0001aab6:    f44f007f    O...    MOVEQ    r0,#0xff0000
        0x0001aaba:    d059        Y.      BEQ      0x1ab70 ; main + 608
        0x0001aabc:    2810        .(      CMP      r0,#0x10
        0x0001aabe:    bf08        ..      IT       EQ
        0x0001aac0:    48b3        .H      LDREQ    r0,[pc,#716] ; [0x1ad90] = 0xffff00
        0x0001aac2:    d055        U.      BEQ      0x1ab70 ; main + 608
        0x0001aac4:    2818        .(      CMP      r0,#0x18
        0x0001aac6:    bf04        ..      ITT      EQ
        0x0001aac8:    f06f407f    o..@    MVNEQ    r0,#0xff000000
        0x0001aacc:    9004        ..      STREQ    r0,[sp,#0x10]
        0x0001aace:    d050        P.      BEQ      0x1ab72 ; main + 610
        0x0001aad0:    e05d        ].      B        0x1ab8e ; main + 638
        0x0001aad2:    2a08        .*      CMP      r2,#8
        0x0001aad4:    d1eb        ..      BNE      0x1aaae ; main + 414
        0x0001aad6:    e001        ..      B        0x1aadc ; main + 460
        0x0001aad8:    2a10        .*      CMP      r2,#0x10
        0x0001aada:    d1e8        ..      BNE      0x1aaae ; main + 414
        0x0001aadc:    2601        .&      MOVS     r6,#1
        0x0001aade:    f04f31ff    O..1    MOV      r1,#0xffffffff
        0x0001aae2:    46b1        .F      MOV      r9,r6
        0x0001aae4:    e028        (.      B        0x1ab38 ; main + 552
        0x0001aae6:    2808        .(      CMP      r0,#8
        0x0001aae8:    bf08        ..      IT       EQ
        0x0001aaea:    f04f407f    O..@    MOVEQ    r0,#0xff000000
        0x0001aaee:    d00c        ..      BEQ      0x1ab0a ; main + 506
        0x0001aaf0:    2810        .(      CMP      r0,#0x10
        0x0001aaf2:    bf08        ..      IT       EQ
        0x0001aaf4:    48a7        .H      LDREQ    r0,[pc,#668] ; [0x1ad94] = 0xffff0000
        0x0001aaf6:    d008        ..      BEQ      0x1ab0a ; main + 506
        0x0001aaf8:    2818        .(      CMP      r0,#0x18
        0x0001aafa:    bf08        ..      IT       EQ
        0x0001aafc:    f06f00ff    o...    MVNEQ    r0,#0xff
        0x0001ab00:    d003        ..      BEQ      0x1ab0a ; main + 506
        0x0001ab02:    2820         (      CMP      r0,#0x20
        0x0001ab04:    d143        C.      BNE      0x1ab8e ; main + 638
        0x0001ab06:    f04f30ff    O..0    MOV      r0,#0xffffffff
        0x0001ab0a:    9004        ..      STR      r0,[sp,#0x10]
        0x0001ab0c:    2a08        .*      CMP      r2,#8
        0x0001ab0e:    bf08        ..      IT       EQ
        0x0001ab10:    f04f407f    O..@    MOVEQ    r0,#0xff000000
        0x0001ab14:    d00f        ..      BEQ      0x1ab36 ; main + 550
        0x0001ab16:    2a10        .*      CMP      r2,#0x10
        0x0001ab18:    bf08        ..      IT       EQ
        0x0001ab1a:    489e        .H      LDREQ    r0,[pc,#632] ; [0x1ad94] = 0xffff0000
        0x0001ab1c:    d00b        ..      BEQ      0x1ab36 ; main + 550
        0x0001ab1e:    2a18        .*      CMP      r2,#0x18
        0x0001ab20:    bf08        ..      IT       EQ
        0x0001ab22:    f06f00ff    o...    MVNEQ    r0,#0xff
        0x0001ab26:    d006        ..      BEQ      0x1ab36 ; main + 550
        0x0001ab28:    2a20         *      CMP      r2,#0x20
        0x0001ab2a:    bf04        ..      ITT      EQ
        0x0001ab2c:    f04f30ff    O..0    MOVEQ    r0,#0xffffffff
        0x0001ab30:    9005        ..      STREQ    r0,[sp,#0x14]
        0x0001ab32:    d001        ..      BEQ      0x1ab38 ; main + 552
        0x0001ab34:    e02b        +.      B        0x1ab8e ; main + 638
        0x0001ab36:    9005        ..      STR      r0,[sp,#0x14]
        0x0001ab38:    4662        bF      MOV      r2,r12
        0x0001ab3a:    1c50        P.      ADDS     r0,r2,#1
        0x0001ab3c:    900e        ..      STR      r0,[sp,#0x38]
        0x0001ab3e:    9808        ..      LDR      r0,[sp,#0x20]
        0x0001ab40:    eb0c0a05    ....    ADD      r10,r12,r5
        0x0001ab44:    eb00058c    ....    ADD      r5,r0,r12,LSL #2
        0x0001ab48:    1c90        ..      ADDS     r0,r2,#2
        0x0001ab4a:    900d        ..      STR      r0,[sp,#0x34]
        0x0001ab4c:    980c        ..      LDR      r0,[sp,#0x30]
        0x0001ab4e:    4438        8D      ADD      r0,r0,r7
        0x0001ab50:    9006        ..      STR      r0,[sp,#0x18]
        0x0001ab52:    b38e        ..      CBZ      r6,0x1abb8 ; main + 680
        0x0001ab54:    4562        bE      CMP      r2,r12
        0x0001ab56:    bf08        ..      IT       EQ
        0x0001ab58:    9110        ..      STREQ    r1,[sp,#0x40]
        0x0001ab5a:    d053        S.      BEQ      0x1ac04 ; main + 756
        0x0001ab5c:    980e        ..      LDR      r0,[sp,#0x38]
        0x0001ab5e:    4282        .B      CMP      r2,r0
        0x0001ab60:    d150        P.      BNE      0x1ac04 ; main + 756
        0x0001ab62:    9b08        ..      LDR      r3,[sp,#0x20]
        0x0001ab64:    2000        .       MOVS     r0,#0
        0x0001ab66:    f853702c    S.,p    LDR      r7,[r3,r12,LSL #2]
        0x0001ab6a:    9b10        ..      LDR      r3,[sp,#0x40]
        0x0001ab6c:    403b        ;@      ANDS     r3,r3,r7
        0x0001ab6e:    e036        6.      B        0x1abde ; main + 718
        0x0001ab70:    9004        ..      STR      r0,[sp,#0x10]
        0x0001ab72:    2a08        .*      CMP      r2,#8
        0x0001ab74:    bf08        ..      IT       EQ
        0x0001ab76:    f44f007f    O...    MOVEQ    r0,#0xff0000
        0x0001ab7a:    d0dc        ..      BEQ      0x1ab36 ; main + 550
        0x0001ab7c:    2a10        .*      CMP      r2,#0x10
        0x0001ab7e:    bf08        ..      IT       EQ
        0x0001ab80:    4883        .H      LDREQ    r0,[pc,#524] ; [0x1ad90] = 0xffff00
        0x0001ab82:    d0d8        ..      BEQ      0x1ab36 ; main + 550
        0x0001ab84:    2a18        .*      CMP      r2,#0x18
        0x0001ab86:    bf08        ..      IT       EQ
        0x0001ab88:    f06f407f    o..@    MVNEQ    r0,#0xff000000
        0x0001ab8c:    d0d3        ..      BEQ      0x1ab36 ; main + 550
        0x0001ab8e:    a082        ..      ADR      r0,{pc}+0x20a ; 0x1ad98
        0x0001ab90:    e000        ..      B        0x1ab94 ; main + 644
        0x0001ab92:    e003        ..      B        0x1ab9c ; main + 652
        0x0001ab94:    f7fffa72    ..r.    BL       am_util_stdio_printf ; 0x1a07c
        0x0001ab98:    f000b97a    ..z.    B.W      0x1ae90 ; main + 1408
        0x0001ab9c:    2601        .&      MOVS     r6,#1
        0x0001ab9e:    2818        .(      CMP      r0,#0x18
        0x0001aba0:    bf08        ..      IT       EQ
        0x0001aba2:    f06f417f    o..A    MVNEQ    r1,#0xff000000
        0x0001aba6:    d0c7        ..      BEQ      0x1ab38 ; main + 552
        0x0001aba8:    f04f31ff    O..1    MOV      r1,#0xffffffff
        0x0001abac:    2810        .(      CMP      r0,#0x10
        0x0001abae:    bf14        ..      ITE      NE
        0x0001abb0:    2808        .(      CMPNE    r0,#8
        0x0001abb2:    f04f0901    O...    MOVEQ    r9,#1
        0x0001abb6:    e7bf        ..      B        0x1ab38 ; main + 552
        0x0001abb8:    e7ff        ..      B        0x1abba ; main + 682
        0x0001abba:    9806        ..      LDR      r0,[sp,#0x18]
        0x0001abbc:    fbb2f1f0    ....    UDIV     r1,r2,r0
        0x0001abc0:    fb002111    ...!    MLS      r1,r0,r1,r2
        0x0001abc4:    980c        ..      LDR      r0,[sp,#0x30]
        0x0001abc6:    4281        .B      CMP      r1,r0
        0x0001abc8:    bf34        4.      ITE      CC
        0x0001abca:    9904        ..      LDRCC    r1,[sp,#0x10]
        0x0001abcc:    9905        ..      LDRCS    r1,[sp,#0x14]
        0x0001abce:    e7c1        ..      B        0x1ab54 ; main + 580
        0x0001abd0:    4582        .E      CMP      r10,r0
        0x0001abd2:    d204        ..      BCS      0x1abde ; main + 718
        0x0001abd4:    a079        y.      ADR      r0,{pc}+0x1e8 ; 0x1adbc
        0x0001abd6:    bf00        ..      NOP      
        0x0001abd8:    f7fffa50    ..P.    BL       am_util_stdio_printf ; 0x1a07c
        0x0001abdc:    e158        X.      B        0x1ae90 ; main + 1408
        0x0001abde:    f8547020    T. p    LDR      r7,[r4,r0,LSL #2]
        0x0001abe2:    f1b90f00    ....    CMP      r9,#0
        0x0001abe6:    d043        C.      BEQ      0x1ac70 ; main + 864
        0x0001abe8:    429f        .B      CMP      r7,r3
        0x0001abea:    d10c        ..      BNE      0x1ac06 ; main + 758
        0x0001abec:    eb040780    ....    ADD      r7,r4,r0,LSL #2
        0x0001abf0:    f8d5b004    ....    LDR      r11,[r5,#4]
        0x0001abf4:    687f        .h      LDR      r7,[r7,#4]
        0x0001abf6:    ea0b0b01    ....    AND      r11,r11,r1
        0x0001abfa:    455f        _E      CMP      r7,r11
        0x0001abfc:    d103        ..      BNE      0x1ac06 ; main + 758
        0x0001abfe:    9009        ..      STR      r0,[sp,#0x24]
        0x0001ac00:    2001        .       MOVS     r0,#1
        0x0001ac02:    9018        ..      STR      r0,[sp,#0x60]
        0x0001ac04:    e044        D.      B        0x1ac90 ; main + 896
        0x0001ac06:    1c67        g.      ADDS     r7,r4,#1
        0x0001ac08:    f857b020    W. .    LDR      r11,[r7,r0,LSL #2]
        0x0001ac0c:    459b        .E      CMP      r11,r3
        0x0001ac0e:    d109        ..      BNE      0x1ac24 ; main + 788
        0x0001ac10:    eb070b80    ....    ADD      r11,r7,r0,LSL #2
        0x0001ac14:    f8d5e004    ....    LDR      lr,[r5,#4]
        0x0001ac18:    f8dbb004    ....    LDR      r11,[r11,#4]
        0x0001ac1c:    ea0e0e01    ....    AND      lr,lr,r1
        0x0001ac20:    45f3        .E      CMP      r11,lr
        0x0001ac22:    d01d        ..      BEQ      0x1ac60 ; main + 848
        0x0001ac24:    1ca7        ..      ADDS     r7,r4,#2
        0x0001ac26:    f857b020    W. .    LDR      r11,[r7,r0,LSL #2]
        0x0001ac2a:    459b        .E      CMP      r11,r3
        0x0001ac2c:    d109        ..      BNE      0x1ac42 ; main + 818
        0x0001ac2e:    eb070b80    ....    ADD      r11,r7,r0,LSL #2
        0x0001ac32:    f8d5e004    ....    LDR      lr,[r5,#4]
        0x0001ac36:    f8dbb004    ....    LDR      r11,[r11,#4]
        0x0001ac3a:    ea0e0e01    ....    AND      lr,lr,r1
        0x0001ac3e:    45f3        .E      CMP      r11,lr
        0x0001ac40:    d00e        ..      BEQ      0x1ac60 ; main + 848
        0x0001ac42:    1ce7        ..      ADDS     r7,r4,#3
        0x0001ac44:    f857b020    W. .    LDR      r11,[r7,r0,LSL #2]
        0x0001ac48:    459b        .E      CMP      r11,r3
        0x0001ac4a:    d10e        ..      BNE      0x1ac6a ; main + 858
        0x0001ac4c:    eb070b80    ....    ADD      r11,r7,r0,LSL #2
        0x0001ac50:    f8d5e004    ....    LDR      lr,[r5,#4]
        0x0001ac54:    f8dbb004    ....    LDR      r11,[r11,#4]
        0x0001ac58:    ea0e0e01    ....    AND      lr,lr,r1
        0x0001ac5c:    45f3        .E      CMP      r11,lr
        0x0001ac5e:    d104        ..      BNE      0x1ac6a ; main + 858
        0x0001ac60:    9009        ..      STR      r0,[sp,#0x24]
        0x0001ac62:    2001        .       MOVS     r0,#1
        0x0001ac64:    463c        <F      MOV      r4,r7
        0x0001ac66:    9018        ..      STR      r0,[sp,#0x60]
        0x0001ac68:    e012        ..      B        0x1ac90 ; main + 896
        0x0001ac6a:    9f18        ..      LDR      r7,[sp,#0x60]
        0x0001ac6c:    b987        ..      CBNZ     r7,0x1ac90 ; main + 896
        0x0001ac6e:    e00c        ..      B        0x1ac8a ; main + 890
        0x0001ac70:    429f        .B      CMP      r7,r3
        0x0001ac72:    d10a        ..      BNE      0x1ac8a ; main + 890
        0x0001ac74:    eb040780    ....    ADD      r7,r4,r0,LSL #2
        0x0001ac78:    f8d5b004    ....    LDR      r11,[r5,#4]
        0x0001ac7c:    687f        .h      LDR      r7,[r7,#4]
        0x0001ac7e:    ea0b0b01    ....    AND      r11,r11,r1
        0x0001ac82:    455f        _E      CMP      r7,r11
        0x0001ac84:    d101        ..      BNE      0x1ac8a ; main + 890
        0x0001ac86:    9009        ..      STR      r0,[sp,#0x24]
        0x0001ac88:    e002        ..      B        0x1ac90 ; main + 896
        0x0001ac8a:    1c40        @.      ADDS     r0,r0,#1
        0x0001ac8c:    4540        @E      CMP      r0,r8
        0x0001ac8e:    d39f        ..      BCC      0x1abd0 ; main + 704
        0x0001ac90:    980d        ..      LDR      r0,[sp,#0x34]
        0x0001ac92:    1c52        R.      ADDS     r2,r2,#1
        0x0001ac94:    4282        .B      CMP      r2,r0
        0x0001ac96:    f4ffaf5c    ..\.    BCC      0x1ab52 ; main + 578
        0x0001ac9a:    9a11        ..      LDR      r2,[sp,#0x44]
        0x0001ac9c:    f10c0002    ....    ADD      r0,r12,#2
        0x0001aca0:    eba80202    ....    SUB      r2,r8,r2
        0x0001aca4:    b1b6        ..      CBZ      r6,0x1acd4 ; main + 964
        0x0001aca6:    9b09        ..      LDR      r3,[sp,#0x24]
        0x0001aca8:    4403        .D      ADD      r3,r3,r0
        0x0001acaa:    eba3030c    ....    SUB      r3,r3,r12
        0x0001acae:    4293        .B      CMP      r3,r2
        0x0001acb0:    d207        ..      BCS      0x1acc2 ; main + 946
        0x0001acb2:    f8545023    T.#P    LDR      r5,[r4,r3,LSL #2]
        0x0001acb6:    9b08        ..      LDR      r3,[sp,#0x20]
        0x0001acb8:    f8533020    S. 0    LDR      r3,[r3,r0,LSL #2]
        0x0001acbc:    400b        .@      ANDS     r3,r3,r1
        0x0001acbe:    429d        .B      CMP      r5,r3
        0x0001acc0:    d109        ..      BNE      0x1acd6 ; main + 966
        0x0001acc2:    1c40        @.      ADDS     r0,r0,#1
        0x0001acc4:    4282        .B      CMP      r2,r0
        0x0001acc6:    d8ed        ..      BHI      0x1aca4 ; main + 916
        0x0001acc8:    4d28        (M      LDR      r5,[pc,#160] ; [0x1ad6c] = 0x10000000
        0x0001acca:    2001        .       MOVS     r0,#1
        0x0001accc:    9a13        ..      LDR      r2,[sp,#0x4c]
        0x0001acce:    6829        )h      LDR      r1,[r5,#0]
        0x0001acd0:    040b        ..      LSLS     r3,r1,#16
        0x0001acd2:    e08b        ..      B        0x1adec ; main + 1244
        0x0001acd4:    e0d1        ..      B        0x1ae7a ; main + 1386
        0x0001acd6:    e0db        ..      B        0x1ae90 ; main + 1408
    $d
        0x0001acd8:    204d4454    TDM     DCD    541934676
        0x0001acdc:    6c6c7546    Full    DCD    1819047238
        0x0001ace0:    70754420     Dup    DCD    1886733344
        0x0001ace4:    2078656c    lex     DCD    544761196
        0x0001ace8:    706f6f4c    Loop    DCD    1886351180
        0x0001acec:    6b636162    back    DCD    1801675106
        0x0001acf0:    73655420     Tes    DCD    1936020512
        0x0001acf4:    4d203a74    t: M    DCD    1293957748
        0x0001acf8:    65747361    aste    DCD    1702130529
        0x0001acfc:    203d2072    r =     DCD    540876914
        0x0001ad00:    30533249    I2S0    DCD    810758729
        0x0001ad04:    6c53202c    , Sl    DCD    1817387052
        0x0001ad08:    20657661    ave     DCD    543520353
        0x0001ad0c:    3249203d    = I2    DCD    843653181
        0x0001ad10:    0a2e3153    S1..    DCD    170799443
        0x0001ad14:    0000000a    ....    DCD    10
        0x0001ad18:    10060040    @...    DCD    268828736
        0x0001ad1c:    10067f4c    L...    DCD    268861260
        0x0001ad20:    1006fe58    X...    DCD    268893784
        0x0001ad24:    10000080    ....    DCD    268435584
        0x0001ad28:    4d44540a    .TDM    DCD    1296323594
        0x0001ad2c:    6f6f4c20     Loo    DCD    1869564960
        0x0001ad30:    63616270    pbac    DCD    1667326576
        0x0001ad34:    6554206b    k Te    DCD    1700012139
        0x0001ad38:    77207473    st w    DCD    1998615667
        0x0001ad3c:    20687469    ith     DCD    543716457
        0x0001ad40:    666e6f43    Conf    DCD    1718513475
        0x0001ad44:    72756769    igur    DCD    1920296809
        0x0001ad48:    6f697461    atio    DCD    1869182049
        0x0001ad4c:    6425206e    n %d    DCD    1680154734
        0x0001ad50:    0a2e2e2e    ....    DCD    170798638
        0x0001ad54:    00000000    ....    DCD    0
        0x0001ad58:    1000011c    ....    DCD    268435740
        0x0001ad5c:    10000008    ....    DCD    268435464
        0x0001ad60:    0001b2b0    ....    DCD    111280
        0x0001ad64:    e000e004    ....    DCD    3758153732
        0x0001ad68:    10000068    h...    DCD    268435560
        0x0001ad6c:    10000000    ....    DCD    268435456
        0x0001ad70:    0001b298    ....    DCD    111256
        0x0001ad74:    61766e49    Inva    DCD    1635151433
        0x0001ad78:    2064696c    lid     DCD    543451500
        0x0001ad7c:    20533249    I2S     DCD    542323273
        0x0001ad80:    61746164    data    DCD    1635017060
        0x0001ad84:    61687020     pha    DCD    1634234400
        0x0001ad88:    0a216573    se!.    DCD    169960819
        0x0001ad8c:    00000000    ....    DCD    0
        0x0001ad90:    00ffff00    ....    DCD    16776960
        0x0001ad94:    ffff0000    ....    DCD    4294901760
        0x0001ad98:    4f525245    ERRO    DCD    1330795077
        0x0001ad9c:    49202152    R! I    DCD    1226842450
        0x0001ada0:    6c61766e    nval    DCD    1818326638
        0x0001ada4:    74616469    idat    DCD    1952539753
        0x0001ada8:    61732065    e sa    DCD    1634934885
        0x0001adac:    656c706d    mple    DCD    1701605485
        0x0001adb0:    6e656c20     len    DCD    1852140576
        0x0001adb4:    21687467    gth!    DCD    560493671
        0x0001adb8:    00000000    ....    DCD    0
        0x0001adbc:    20646944    Did     DCD    543451460
        0x0001adc0:    20746f6e    not     DCD    544501614
        0x0001adc4:    646e6966    find    DCD    1684957542
        0x0001adc8:    65687420     the    DCD    1701344288
        0x0001adcc:    67656220     beg    DCD    1734697504
        0x0001add0:    696e6e69    inni    DCD    1768844905
        0x0001add4:    7720676e    ng w    DCD    1998612334
        0x0001add8:    2064726f    ord     DCD    543453807
        0x0001addc:    52206e69    in R    DCD    1377857129
        0x0001ade0:    75622058    X bu    DCD    1969365080
        0x0001ade4:    72656666    ffer    DCD    1919247974
        0x0001ade8:    00000a21    !...    DCD    2593
    $t
        0x0001adec:    f8c23fc0    ...?    STR      r3,[r2,#0xfc0]
        0x0001adf0:    1c8a        ..      ADDS     r2,r1,#2
        0x0001adf2:    0413        ..      LSLS     r3,r2,#16
        0x0001adf4:    9a15        ..      LDR      r2,[sp,#0x54]
        0x0001adf6:    4c30        0L      LDR      r4,[pc,#192] ; [0x1aeb8] = 0x1000011c
        0x0001adf8:    f8c23f40    ..@?    STR      r3,[r2,#0xf40]
        0x0001adfc:    60a0        .`      STR      r0,[r4,#8]
        0x0001adfe:    a02f        /.      ADR      r0,{pc}+0xbe ; 0x1aebc
        0x0001ae00:    f7fff93c    ..<.    BL       am_util_stdio_printf ; 0x1a07c
        0x0001ae04:    6828        (h      LDR      r0,[r5,#0]
        0x0001ae06:    280a        .(      CMP      r0,#0xa
        0x0001ae08:    d351        Q.      BCC      0x1aeae ; main + 1438
        0x0001ae0a:    482b        +H      LDR      r0,[pc,#172] ; [0x1aeb8] = 0x1000011c
        0x0001ae0c:    2100        .!      MOVS     r1,#0
        0x0001ae0e:    6041        A`      STR      r1,[r0,#4]
        0x0001ae10:    6001        .`      STR      r1,[r0,#0]
        0x0001ae12:    4933        3I      LDR      r1,[pc,#204] ; [0x1aee0] = 0xe000e004
        0x0001ae14:    f44f5080    O..P    MOV      r0,#0x1000
        0x0001ae18:    f8c10180    ....    STR      r0,[r1,#0x180]
        0x0001ae1c:    f3bf8f4f    ..O.    DSB      
        0x0001ae20:    f3bf8f6f    ..o.    ISB      
        0x0001ae24:    4c2f        /L      LDR      r4,[pc,#188] ; [0x1aee4] = 0x10000000
        0x0001ae26:    6860        `h      LDR      r0,[r4,#4]
        0x0001ae28:    f7fef988    ....    BL       am_hal_i2s_dma_transfer_complete ; 0x1913c
        0x0001ae2c:    482e        .H      LDR      r0,[pc,#184] ; [0x1aee8] = 0x40208000
        0x0001ae2e:    6c81        .l      LDR      r1,[r0,#0x48]
        0x0001ae30:    f0410102    A...    ORR      r1,r1,#2
        0x0001ae34:    6481        .d      STR      r1,[r0,#0x48]
        0x0001ae36:    6c81        .l      LDR      r1,[r0,#0x48]
        0x0001ae38:    f0410120    A. .    ORR      r1,r1,#0x20
        0x0001ae3c:    6481        .d      STR      r1,[r0,#0x48]
        0x0001ae3e:    f7fdfa93    ....    BL       am_hal_interrupt_master_disable ; 0x18368
        0x0001ae42:    6860        `h      LDR      r0,[r4,#4]
        0x0001ae44:    f7fef8e6    ....    BL       am_hal_i2s_disable ; 0x19014
        0x0001ae48:    6860        `h      LDR      r0,[r4,#4]
        0x0001ae4a:    f7fef8cd    ....    BL       am_hal_i2s_deinitialize ; 0x18fe8
        0x0001ae4e:    2200        ."      MOVS     r2,#0
        0x0001ae50:    2101        .!      MOVS     r1,#1
        0x0001ae52:    6860        `h      LDR      r0,[r4,#4]
        0x0001ae54:    f7fefb2e    ....    BL       am_hal_i2s_power_control ; 0x194b4
        0x0001ae58:    2100        .!      MOVS     r1,#0
        0x0001ae5a:    4608        .F      MOV      r0,r1
        0x0001ae5c:    f7fdfbb0    ....    BL       am_bsp_i2s_pins_disable ; 0x185c0
        0x0001ae60:    2064        d       MOVS     r0,#0x64
        0x0001ae62:    f7fefe5f    .._.    BL       am_util_delay_ms ; 0x19b24
        0x0001ae66:    9812        ..      LDR      r0,[sp,#0x48]
        0x0001ae68:    1c40        @.      ADDS     r0,r0,#1
        0x0001ae6a:    9012        ..      STR      r0,[sp,#0x48]
        0x0001ae6c:    2804        .(      CMP      r0,#4
        0x0001ae6e:    f4ffad84    ....    BCC      0x1a97a ; main + 106
        0x0001ae72:    a01e        ..      ADR      r0,{pc}+0x7a ; 0x1aeec
        0x0001ae74:    f7fff902    ....    BL       am_util_stdio_printf ; 0x1a07c
        0x0001ae78:    e7fe        ..      B        0x1ae78 ; main + 1384
        0x0001ae7a:    9906        ..      LDR      r1,[sp,#0x18]
        0x0001ae7c:    fbb0f3f1    ....    UDIV     r3,r0,r1
        0x0001ae80:    fb010313    ....    MLS      r3,r1,r3,r0
        0x0001ae84:    990c        ..      LDR      r1,[sp,#0x30]
        0x0001ae86:    428b        .B      CMP      r3,r1
        0x0001ae88:    bf34        4.      ITE      CC
        0x0001ae8a:    9904        ..      LDRCC    r1,[sp,#0x10]
        0x0001ae8c:    9905        ..      LDRCS    r1,[sp,#0x14]
        0x0001ae8e:    e70a        ..      B        0x1aca6 ; main + 918
        0x0001ae90:    4814        .H      LDR      r0,[pc,#80] ; [0x1aee4] = 0x10000000
        0x0001ae92:    6801        .h      LDR      r1,[r0,#0]
        0x0001ae94:    9813        ..      LDR      r0,[sp,#0x4c]
        0x0001ae96:    040a        ..      LSLS     r2,r1,#16
        0x0001ae98:    f8c02fc0    .../    STR      r2,[r0,#0xfc0]
        0x0001ae9c:    1c88        ..      ADDS     r0,r1,#2
        0x0001ae9e:    0402        ..      LSLS     r2,r0,#16
        0x0001aea0:    9815        ..      LDR      r0,[sp,#0x54]
        0x0001aea2:    f8c02f40    ..@/    STR      r2,[r0,#0xf40]
        0x0001aea6:    a015        ..      ADR      r0,{pc}+0x56 ; 0x1aefc
        0x0001aea8:    f7fff8e8    ....    BL       am_util_stdio_printf ; 0x1a07c
        0x0001aeac:    e7ad        ..      B        0x1ae0a ; main + 1274
        0x0001aeae:    2000        .       MOVS     r0,#0
        0x0001aeb0:    6060        ``      STR      r0,[r4,#4]
        0x0001aeb2:    6020         `      STR      r0,[r4,#0]
        0x0001aeb4:    e5b8        ..      B        0x1aa28 ; main + 280
    $d
        0x0001aeb6:    0000        ..      DCW    0
        0x0001aeb8:    1000011c    ....    DCD    268435740
        0x0001aebc:    204d4454    TDM     DCD    541934676
        0x0001aec0:    706f6f4c    Loop    DCD    1886351180
        0x0001aec4:    6b636162    back    DCD    1801675106
        0x0001aec8:    65744920     Ite    DCD    1702119712
        0x0001aecc:    69746172    rati    DCD    1769234802
        0x0001aed0:    25206e6f    on %    DCD    622882415
        0x0001aed4:    41502064    d PA    DCD    1095770212
        0x0001aed8:    44455353    SSED    DCD    1145394003
        0x0001aedc:    00000a21    !...    DCD    2593
        0x0001aee0:    e000e004    ....    DCD    3758153732
        0x0001aee4:    10000000    ....    DCD    268435456
        0x0001aee8:    40208000    .. @    DCD    1075871744
        0x0001aeec:    206e6152    Ran     DCD    544104786
        0x0001aef0:    45206f74    to E    DCD    1159753588
        0x0001aef4:    0a21646e    nd!.    DCD    169960558
        0x0001aef8:    00000000    ....    DCD    0
        0x0001aefc:    452d2d2d    ---E    DCD    1160588589
        0x0001af00:    524f5252    RROR    DCD    1380930130
        0x0001af04:    202d2d2d    ---     DCD    539831597
        0x0001af08:    204d4454    TDM     DCD    541934676
        0x0001af0c:    706f6f4c    Loop    DCD    1886351180
        0x0001af10:    6b636162    back    DCD    1801675106
        0x0001af14:    65744920     Ite    DCD    1702119712
        0x0001af18:    69746172    rati    DCD    1769234802
        0x0001af1c:    25206e6f    on %    DCD    622882415
        0x0001af20:    41462064    d FA    DCD    1095114852
        0x0001af24:    44454c49    ILED    DCD    1145392201
        0x0001af28:    00000a21    !...    DCD    2593
    $t
    i.ndigits_in_u64
    ndigits_in_u64
        0x0001af2c:    e92d01f0    -...    PUSH     {r4-r8}
        0x0001af30:    ea500201    P...    ORRS     r2,r0,r1
        0x0001af34:    bf0e        ..      ITEE     EQ
        0x0001af36:    2301        .#      MOVEQ    r3,#1
        0x0001af38:    2300        .#      MOVNE    r3,#0
        0x0001af3a:    f04f0c00    O...    MOVNE    r12,#0
        0x0001af3e:    d054        T.      BEQ      0x1afea ; ndigits_in_u64 + 190
        0x0001af40:    2900        .)      CMP      r1,#0
        0x0001af42:    d03b        ;.      BEQ      0x1afbc ; ndigits_in_u64 + 144
        0x0001af44:    084c        L.      LSRS     r4,r1,#1
        0x0001af46:    ea4f0690    O...    LSR      r6,r0,#2
        0x0001af4a:    ea4f0230    O.0.    RRX      r2,r0
        0x0001af4e:    ea467681    F..v    ORR      r6,r6,r1,LSL #30
        0x0001af52:    1992        ..      ADDS     r2,r2,r6
        0x0001af54:    eb440491    D...    ADC      r4,r4,r1,LSR #2
        0x0001af58:    ea4f1612    O...    LSR      r6,r2,#4
        0x0001af5c:    ea467504    F..u    ORR      r5,r6,r4,LSL #28
        0x0001af60:    18aa        ..      ADDS     r2,r5,r2
        0x0001af62:    eb441414    D...    ADC      r4,r4,r4,LSR #4
        0x0001af66:    ea4f2612    O..&    LSR      r6,r2,#8
        0x0001af6a:    ea466504    F..e    ORR      r5,r6,r4,LSL #24
        0x0001af6e:    18aa        ..      ADDS     r2,r5,r2
        0x0001af70:    eb442514    D..%    ADC      r5,r4,r4,LSR #8
        0x0001af74:    ea4f4612    O..F    LSR      r6,r2,#16
        0x0001af78:    ea464405    F..D    ORR      r4,r6,r5,LSL #16
        0x0001af7c:    18a4        ..      ADDS     r4,r4,r2
        0x0001af7e:    eb454215    E..B    ADC      r2,r5,r5,LSR #16
        0x0001af82:    18a4        ..      ADDS     r4,r4,r2
        0x0001af84:    eb42020c    B...    ADC      r2,r2,r12
        0x0001af88:    08e4        ..      LSRS     r4,r4,#3
        0x0001af8a:    ea447442    D.Bt    ORR      r4,r4,r2,LSL #29
        0x0001af8e:    270a        .'      MOVS     r7,#0xa
        0x0001af90:    fba45807    ...X    UMULL    r5,r8,r4,r7
        0x0001af94:    08d2        ..      LSRS     r2,r2,#3
        0x0001af96:    fb028707    ....    MLA      r7,r2,r7,r8
        0x0001af9a:    2600        .&      MOVS     r6,#0
        0x0001af9c:    fb047606    ...v    MLA      r6,r4,r6,r7
        0x0001afa0:    1b40        @.      SUBS     r0,r0,r5
        0x0001afa2:    eb610106    a...    SBC      r1,r1,r6
        0x0001afa6:    1d85        ..      ADDS     r5,r0,#6
        0x0001afa8:    f1410000    A...    ADC      r0,r1,#0
        0x0001afac:    092d        -.      LSRS     r5,r5,#4
        0x0001afae:    ea457100    E..q    ORR      r1,r5,r0,LSL #28
        0x0001afb2:    0905        ..      LSRS     r5,r0,#4
        0x0001afb4:    1908        ..      ADDS     r0,r1,r4
        0x0001afb6:    eb450102    E...    ADC      r1,r5,r2
        0x0001afba:    e012        ..      B        0x1afe2 ; ndigits_in_u64 + 182
        0x0001afbc:    0841        A.      LSRS     r1,r0,#1
        0x0001afbe:    eb010190    ....    ADD      r1,r1,r0,LSR #2
        0x0001afc2:    eb011111    ....    ADD      r1,r1,r1,LSR #4
        0x0001afc6:    eb012111    ...!    ADD      r1,r1,r1,LSR #8
        0x0001afca:    eb014111    ...A    ADD      r1,r1,r1,LSR #16
        0x0001afce:    08c9        ..      LSRS     r1,r1,#3
        0x0001afd0:    424a        JB      RSBS     r2,r1,#0
        0x0001afd2:    eb020282    ....    ADD      r2,r2,r2,LSL #2
        0x0001afd6:    eb000042    ..B.    ADD      r0,r0,r2,LSL #1
        0x0001afda:    1d80        ..      ADDS     r0,r0,#6
        0x0001afdc:    eb011010    ....    ADD      r0,r1,r0,LSR #4
        0x0001afe0:    4661        aF      MOV      r1,r12
        0x0001afe2:    1c5b        [.      ADDS     r3,r3,#1
        0x0001afe4:    ea500201    P...    ORRS     r2,r0,r1
        0x0001afe8:    d1aa        ..      BNE      0x1af40 ; ndigits_in_u64 + 20
        0x0001afea:    e8bd01f0    ....    POP      {r4-r8}
        0x0001afee:    4618        .F      MOV      r0,r3
        0x0001aff0:    4770        pG      BX       lr
    i.uint64_to_str
    uint64_to_str
        0x0001aff2:    e92d07f0    -...    PUSH     {r4-r10}
        0x0001aff6:    b087        ..      SUB      sp,sp,#0x1c
        0x0001aff8:    f04f0c00    O...    MOV      r12,#0
        0x0001affc:    4666        fF      MOV      r6,r12
        0x0001affe:    466d        mF      MOV      r5,sp
        0x0001b000:    2900        .)      CMP      r1,#0
        0x0001b002:    d03f        ?.      BEQ      0x1b084 ; uint64_to_str + 146
        0x0001b004:    084f        O.      LSRS     r7,r1,#1
        0x0001b006:    ea4f0390    O...    LSR      r3,r0,#2
        0x0001b00a:    ea4f0430    O.0.    RRX      r4,r0
        0x0001b00e:    ea437381    C..s    ORR      r3,r3,r1,LSL #30
        0x0001b012:    18e4        ..      ADDS     r4,r4,r3
        0x0001b014:    eb470391    G...    ADC      r3,r7,r1,LSR #2
        0x0001b018:    ea4f1814    O...    LSR      r8,r4,#4
        0x0001b01c:    ea487803    H..x    ORR      r8,r8,r3,LSL #28
        0x0001b020:    eb180404    ....    ADDS     r4,r8,r4
        0x0001b024:    eb431313    C...    ADC      r3,r3,r3,LSR #4
        0x0001b028:    ea4f2814    O..(    LSR      r8,r4,#8
        0x0001b02c:    ea486803    H..h    ORR      r8,r8,r3,LSL #24
        0x0001b030:    eb180404    ....    ADDS     r4,r8,r4
        0x0001b034:    eb432313    C..#    ADC      r3,r3,r3,LSR #8
        0x0001b038:    ea4f4814    O..H    LSR      r8,r4,#16
        0x0001b03c:    ea484803    H..H    ORR      r8,r8,r3,LSL #16
        0x0001b040:    eb180404    ....    ADDS     r4,r8,r4
        0x0001b044:    eb434313    C..C    ADC      r3,r3,r3,LSR #16
        0x0001b048:    18e7        ..      ADDS     r7,r4,r3
        0x0001b04a:    eb430406    C...    ADC      r4,r3,r6
        0x0001b04e:    08ff        ..      LSRS     r7,r7,#3
        0x0001b050:    ea477344    G.Ds    ORR      r3,r7,r4,LSL #29
        0x0001b054:    270a        .'      MOVS     r7,#0xa
        0x0001b056:    fba39a07    ....    UMULL    r9,r10,r3,r7
        0x0001b05a:    08e4        ..      LSRS     r4,r4,#3
        0x0001b05c:    fb04a707    ....    MLA      r7,r4,r7,r10
        0x0001b060:    f04f0800    O...    MOV      r8,#0
        0x0001b064:    fb037808    ...x    MLA      r8,r3,r8,r7
        0x0001b068:    ebb00709    ....    SUBS     r7,r0,r9
        0x0001b06c:    eb610108    a...    SBC      r1,r1,r8
        0x0001b070:    1dbf        ..      ADDS     r7,r7,#6
        0x0001b072:    f1410100    A...    ADC      r1,r1,#0
        0x0001b076:    093f        ?.      LSRS     r7,r7,#4
        0x0001b078:    ea477701    G..w    ORR      r7,r7,r1,LSL #28
        0x0001b07c:    18fb        ..      ADDS     r3,r7,r3
        0x0001b07e:    eb441411    D...    ADC      r4,r4,r1,LSR #4
        0x0001b082:    e012        ..      B        0x1b0aa ; uint64_to_str + 184
        0x0001b084:    0843        C.      LSRS     r3,r0,#1
        0x0001b086:    eb030390    ....    ADD      r3,r3,r0,LSR #2
        0x0001b08a:    eb031313    ....    ADD      r3,r3,r3,LSR #4
        0x0001b08e:    eb032313    ...#    ADD      r3,r3,r3,LSR #8
        0x0001b092:    eb034313    ...C    ADD      r3,r3,r3,LSR #16
        0x0001b096:    08db        ..      LSRS     r3,r3,#3
        0x0001b098:    425c        \B      RSBS     r4,r3,#0
        0x0001b09a:    eb040484    ....    ADD      r4,r4,r4,LSL #2
        0x0001b09e:    eb000144    ..D.    ADD      r1,r0,r4,LSL #1
        0x0001b0a2:    1d89        ..      ADDS     r1,r1,#6
        0x0001b0a4:    eb031311    ....    ADD      r3,r3,r1,LSR #4
        0x0001b0a8:    4634        4F      MOV      r4,r6
        0x0001b0aa:    4621        !F      MOV      r1,r4
        0x0001b0ac:    240a        .$      MOVS     r4,#0xa
        0x0001b0ae:    fba34704    ...G    UMULL    r4,r7,r3,r4
        0x0001b0b2:    1b00        ..      SUBS     r0,r0,r4
        0x0001b0b4:    f1000030    ..0.    ADD      r0,r0,#0x30
        0x0001b0b8:    f805000c    ....    STRB     r0,[r5,r12]
        0x0001b0bc:    4618        .F      MOV      r0,r3
        0x0001b0be:    f10c0c01    ....    ADD      r12,r12,#1
        0x0001b0c2:    430b        .C      ORRS     r3,r3,r1
        0x0001b0c4:    d19c        ..      BNE      0x1b000 ; uint64_to_str + 14
        0x0001b0c6:    4660        `F      MOV      r0,r12
        0x0001b0c8:    2a00        .*      CMP      r2,#0
        0x0001b0ca:    bf02        ..      ITTT     EQ
        0x0001b0cc:    b007        ..      ADDEQ    sp,sp,#0x1c
        0x0001b0ce:    e8bd07f0    ....    POPEQ    {r4-r10}
        0x0001b0d2:    4770        pG      BXEQ     lr
        0x0001b0d4:    1e47        G.      SUBS     r7,r0,#1
        0x0001b0d6:    f1b00c00    ....    SUBS     r12,r0,#0
        0x0001b0da:    dd18        ..      BLE      0x1b10e ; uint64_to_str + 284
        0x0001b0dc:    19e9        ..      ADDS     r1,r5,r7
        0x0001b0de:    1c4b        K.      ADDS     r3,r1,#1
        0x0001b0e0:    1e51        Q.      SUBS     r1,r2,#1
        0x0001b0e2:    f0170f01    ....    TST      r7,#1
        0x0001b0e6:    d103        ..      BNE      0x1b0f0 ; uint64_to_str + 254
        0x0001b0e8:    f8134d01    ...M    LDRB     r4,[r3,#-1]!
        0x0001b0ec:    f8014f01    ...O    STRB     r4,[r1,#1]!
        0x0001b0f0:    ea5f046c    _.l.    ASRS     r4,r12,#1
        0x0001b0f4:    d009        ..      BEQ      0x1b10a ; uint64_to_str + 280
        0x0001b0f6:    f813cc01    ....    LDRB     r12,[r3,#-1]
        0x0001b0fa:    f881c001    ....    STRB     r12,[r1,#1]
        0x0001b0fe:    f813cd02    ....    LDRB     r12,[r3,#-2]!
        0x0001b102:    f801cf02    ....    STRB     r12,[r1,#2]!
        0x0001b106:    1e64        d.      SUBS     r4,r4,#1
        0x0001b108:    d1f5        ..      BNE      0x1b0f6 ; uint64_to_str + 260
        0x0001b10a:    19d1        ..      ADDS     r1,r2,r7
        0x0001b10c:    1c4a        J.      ADDS     r2,r1,#1
        0x0001b10e:    7016        .p      STRB     r6,[r2,#0]
        0x0001b110:    b007        ..      ADD      sp,sp,#0x1c
        0x0001b112:    e8bd07f0    ....    POP      {r4-r10}
        0x0001b116:    4770        pG      BX       lr
    x$fpl$d2f
    $v0
    __aeabi_d2f
    _d2f
        0x0001b118:    f0214200    !..B    BIC      r2,r1,#0x80000000
        0x0001b11c:    f1a25260    ..`R    SUB      r2,r2,#0x38000000
        0x0001b120:    f5b21f80    ....    CMP      r2,#0x100000
        0x0001b124:    f0014300    ...C    AND      r3,r1,#0x80000000
        0x0001b128:    bf28        (.      IT       CS
        0x0001b12a:    f1d26c7f    ...l    RSBSCS   r12,r2,#0xff00000
        0x0001b12e:    d90b        ..      BLS      0x1b148 ; __aeabi_d2f + 48
        0x0001b130:    ea5f1c00    _...    LSLS     r12,r0,#4
        0x0001b134:    ea4302c2    C...    ORR      r2,r3,r2,LSL #3
        0x0001b138:    eb427050    B.Pp    ADC      r0,r2,r0,LSR #29
        0x0001b13c:    bf18        ..      IT       NE
        0x0001b13e:    4770        pG      BXNE     lr
        0x0001b140:    bf28        (.      IT       CS
        0x0001b142:    f0200001     ...    BICCS    r0,r0,#1
        0x0001b146:    4770        pG      BX       lr
        0x0001b148:    f5b21f80    ....    CMP      r2,#0x100000
        0x0001b14c:    bfbc        ..      ITT      LT
        0x0001b14e:    4618        .F      MOVLT    r0,r3
        0x0001b150:    4770        pG      BXLT     lr
        0x0001b152:    ea4f0c41    O.A.    LSL      r12,r1,#1
        0x0001b156:    f51c1f00    ....    CMN      r12,#0x200000
        0x0001b15a:    d202        ..      BCS      0x1b162 ; __aeabi_d2f + 74
        0x0001b15c:    4608        .F      MOV      r0,r1
        0x0001b15e:    f000b85f    .._.    B.W      __fpl_fretinf ; 0x1b220
        0x0001b162:    b570        p.      PUSH     {r4-r6,lr}
        0x0001b164:    f000f809    ....    BL       __fpl_dnaninf ; 0x1b17a
    $d
        0x0001b168:    89000000    ....    DCD    2298478592
    $t
        0x0001b16c:    f7ffbff6    ....    B.W      0x1b15c ; __aeabi_d2f + 68
        0x0001b170:    f04f4000    O..@    MOV      r0,#0x80000000
        0x0001b174:    f5a00080    ....    SUB      r0,r0,#0x400000
        0x0001b178:    4770        pG      BX       lr
    x$fpl$dnaninf
    $v0
    __fpl_dnaninf
        0x0001b17a:    f10e0e02    ....    ADD      lr,lr,#2
        0x0001b17e:    f02e0e03    ....    BIC      lr,lr,#3
        0x0001b182:    f85e6b04    ^..k    LDR      r6,[lr],#4
        0x0001b186:    4236        6B      TST      r6,r6
        0x0001b188:    d405        ..      BMI      0x1b196 ; __fpl_dnaninf + 28
        0x0001b18a:    2a01        .*      CMP      r2,#1
        0x0001b18c:    eb430503    C...    ADC      r5,r3,r3
        0x0001b190:    f5151f00    ....    CMN      r5,#0x200000
        0x0001b194:    d812        ..      BHI      0x1b1bc ; __fpl_dnaninf + 66
        0x0001b196:    2801        .(      CMP      r0,#1
        0x0001b198:    eb410c01    A...    ADC      r12,r1,r1
        0x0001b19c:    f51c1f00    ....    CMN      r12,#0x200000
        0x0001b1a0:    d80c        ..      BHI      0x1b1bc ; __fpl_dnaninf + 66
        0x0001b1a2:    d10e        ..      BNE      0x1b1c2 ; __fpl_dnaninf + 72
        0x0001b1a4:    ea4f7cd1    O..|    LSR      r12,r1,#31
        0x0001b1a8:    f5151f00    ....    CMN      r5,#0x200000
        0x0001b1ac:    eb0c0c4c    ..L.    ADD      r12,r12,r12,LSL #1
        0x0001b1b0:    f10c0c02    ....    ADD      r12,r12,#2
        0x0001b1b4:    bf08        ..      IT       EQ
        0x0001b1b6:    eb4c7cd3    L..|    ADCEQ    r12,r12,r3,LSR #31
        0x0001b1ba:    e004        ..      B        0x1b1c6 ; __fpl_dnaninf + 76
        0x0001b1bc:    f04f0c08    O...    MOV      r12,#8
        0x0001b1c0:    e001        ..      B        0x1b1c6 ; __fpl_dnaninf + 76
        0x0001b1c2:    ea4f7cd3    O..|    LSR      r12,r3,#31
        0x0001b1c6:    eb0c054c    ..L.    ADD      r5,r12,r12,LSL #1
        0x0001b1ca:    fa26f605    &...    LSR      r6,r6,r5
        0x0001b1ce:    f0060607    ....    AND      r6,r6,#7
        0x0001b1d2:    f1b60c04    ....    SUBS     r12,r6,#4
        0x0001b1d6:    d206        ..      BCS      0x1b1e6 ; __fpl_dnaninf + 108
        0x0001b1d8:    eb0e0c86    ....    ADD      r12,lr,r6,LSL #2
        0x0001b1dc:    e8bd4070    ..p@    POP      {r4-r6,lr}
        0x0001b1e0:    f04c0c01    L...    ORR      r12,r12,#1
        0x0001b1e4:    4760        `G      BX       r12
        0x0001b1e6:    e8dff00c    ....    TBB      [pc,r12]
    $d
        0x0001b1ea:    0b09        ..      DCW    2825
        0x0001b1ec:    0202        ..      DCW    514
    $t
        0x0001b1ee:    f04f4100    O..A    MOV      r1,#0x80000000
        0x0001b1f2:    f04f0000    O...    MOV      r0,#0
        0x0001b1f6:    f5a12100    ...!    SUB      r1,r1,#0x80000
        0x0001b1fa:    bd70        p.      POP      {r4-r6,pc}
        0x0001b1fc:    4619        .F      MOV      r1,r3
        0x0001b1fe:    4610        .F      MOV      r0,r2
        0x0001b200:    2801        .(      CMP      r0,#1
        0x0001b202:    eb510401    Q...    ADCS     r4,r1,r1
        0x0001b206:    bf18        ..      IT       NE
        0x0001b208:    f5d41400    ....    RSBSNE   r4,r4,#0x200000
        0x0001b20c:    bf84        ..      ITT      HI
        0x0001b20e:    2000        .       MOVHI    r0,#0
        0x0001b210:    f0014100    ...A    ANDHI    r1,r1,#0x80000000
        0x0001b214:    bd70        p.      POP      {r4-r6,pc}
    x$fpl$fpinit
    $v0
    _fp_init
        0x0001b216:    f04f7040    O.@p    MOV      r0,#0x3000000
        0x0001b21a:    eee10a10    ....    VMSR     FPSCR,r0
    __fplib_config_fpu_vfp
    __fplib_config_pureend_doubles
        0x0001b21e:    4770        pG      BX       lr
    x$fpl$fretinf
    $v0
    __fpl_fretinf
        0x0001b220:    21ff        .!      MOVS     r1,#0xff
        0x0001b222:    ea4150d0    A..P    ORR      r0,r1,r0,LSR #23
        0x0001b226:    05c0        ..      LSLS     r0,r0,#23
        0x0001b228:    4770        pG      BX       lr
    x$fpl$usenofp
    __I$use$fp
        0x0001b22a:    0000        ..      MOVS     r0,r0
    $d.realdata
    .constdata
    __tagsym$$used
    ui32MCUAllowed
        0x0001b22c:    00000000    ....    DCD    0
        0x0001b230:    00000000    ....    DCD    0
        0x0001b234:    00000000    ....    DCD    0
        0x0001b238:    00000000    ....    DCD    0
        0x0001b23c:    00000000    ....    DCD    0
    __tagsym$$used
    ui32DSP0Allowed
        0x0001b240:    00000000    ....    DCD    0
        0x0001b244:    00000000    ....    DCD    0
        0x0001b248:    00000000    ....    DCD    0
        0x0001b24c:    00000000    ....    DCD    0
        0x0001b250:    00000000    ....    DCD    0
    __tagsym$$used
    ui32DSP1Allowed
        0x0001b254:    00000000    ....    DCD    0
        0x0001b258:    00000000    ....    DCD    0
        0x0001b25c:    00000000    ....    DCD    0
        0x0001b260:    00000000    ....    DCD    0
        0x0001b264:    00000000    ....    DCD    0
    __tagsym$$used
    ui32SharedAccess
        0x0001b268:    00000000    ....    DCD    0
        0x0001b26c:    00000000    ....    DCD    0
        0x0001b270:    00000000    ....    DCD    0
        0x0001b274:    00000000    ....    DCD    0
        0x0001b278:    00000000    ....    DCD    0
    __tagsym$$used
    sGlobalAccess
        0x0001b27c:    0001b268    h...    DCD    111208
        0x0001b280:    0001b22c    ,...    DCD    111148
        0x0001b284:    0001b240    @...    DCD    111168
        0x0001b288:    0001b254    T...    DCD    111188
        0x0001b28c:    10060004    ....    DCD    268828676
        0x0001b290:    10060018    ....    DCD    268828696
        0x0001b294:    1006002c    ,...    DCD    268828716
    .constdata
    ui32I2sWordLength
        0x0001b298:    00000008    ....    DCD    8
        0x0001b29c:    00000000    ....    DCD    0
        0x0001b2a0:    00000010    ....    DCD    16
        0x0001b2a4:    00000000    ....    DCD    0
        0x0001b2a8:    00000018    ....    DCD    24
        0x0001b2ac:    00000020     ...    DCD    32
    .constdata
    g_amHalMcuctrlArgDefault
        0x0001b2b0:    00020000    ....    DCD    131072
        0x0001b2b4:    00000001    ....    DCD    1
    .constdata
    ui32I2sWordLength
        0x0001b2b8:    00000008    ....    DCD    8
        0x0001b2bc:    00000000    ....    DCD    0
        0x0001b2c0:    00000010    ....    DCD    16
        0x0001b2c4:    00000000    ....    DCD    0
        0x0001b2c8:    00000018    ....    DCD    24
        0x0001b2cc:    00000020     ...    DCD    32
    .constdata
    g_am_hal_bootrom_helper
        0x0001b2d0:    0800004d    M...    DCD    134217805
        0x0001b2d4:    08000051    Q...    DCD    134217809
        0x0001b2d8:    08000055    U...    DCD    134217813
        0x0001b2dc:    08000059    Y...    DCD    134217817
        0x0001b2e0:    0800006d    m...    DCD    134217837
        0x0001b2e4:    08000075    u...    DCD    134217845
        0x0001b2e8:    08000079    y...    DCD    134217849
        0x0001b2ec:    08000081    ....    DCD    134217857
        0x0001b2f0:    08000099    ....    DCD    134217881
        0x0001b2f4:    0800009d    ....    DCD    134217885
    .constdata
    am_hal_gpio_pincfg_disabled
        0x0001b2f8:    00000003    ....    DCD    3
    .constdata
    g_ui32RMpintbl
        0x0001b2fc:    00000000    ....    DCD    0
        0x0001b300:    00000000    ....    DCD    0
        0x0001b304:    00000000    ....    DCD    0
        0x0001b308:    00000000    ....    DCD    0
    g_ui32DSpintbl
        0x0001b30c:    8fc007e0    ....    DCD    2411726816
        0x0001b310:    e3fbffff    ....    DCD    3824943103
        0x0001b314:    01ffffff    ....    DCD    33554431
        0x0001b318:    00000000    ....    DCD    0
    .constdata
    g_DefaultMcuMemCfg
        0x0001b31c:    07070102    ....    DCD    117899522
        0x0001b320:    0001        ..      DCW    1
    g_DefaultSRAMCfg
        0x0001b322:    0003        ..      DCW    3
        0x0001b324:    03000000    ....    DCD    50331648
    am_hal_pwrctrl_peripheral_control
        0x0001b328:    40021004    ...@    DCD    1073876996
        0x0001b32c:    00000001    ....    DCD    1
        0x0001b330:    40021008    ...@    DCD    1073877000
        0x0001b334:    00000001    ....    DCD    1
        0x0001b338:    40021004    ...@    DCD    1073876996
        0x0001b33c:    00000002    ....    DCD    2
        0x0001b340:    40021008    ...@    DCD    1073877000
        0x0001b344:    0000001e    ....    DCD    30
        0x0001b348:    40021004    ...@    DCD    1073876996
        0x0001b34c:    00000004    ....    DCD    4
        0x0001b350:    40021008    ...@    DCD    1073877000
        0x0001b354:    0000001e    ....    DCD    30
        0x0001b358:    40021004    ...@    DCD    1073876996
        0x0001b35c:    00000008    ....    DCD    8
        0x0001b360:    40021008    ...@    DCD    1073877000
        0x0001b364:    0000001e    ....    DCD    30
        0x0001b368:    40021004    ...@    DCD    1073876996
        0x0001b36c:    00000010    ....    DCD    16
        0x0001b370:    40021008    ...@    DCD    1073877000
        0x0001b374:    0000001e    ....    DCD    30
        0x0001b378:    40021004    ...@    DCD    1073876996
        0x0001b37c:    00000020     ...    DCD    32
        0x0001b380:    40021008    ...@    DCD    1073877000
        0x0001b384:    000001e0    ....    DCD    480
        0x0001b388:    40021004    ...@    DCD    1073876996
        0x0001b38c:    00000040    @...    DCD    64
        0x0001b390:    40021008    ...@    DCD    1073877000
        0x0001b394:    000001e0    ....    DCD    480
        0x0001b398:    40021004    ...@    DCD    1073876996
        0x0001b39c:    00000080    ....    DCD    128
        0x0001b3a0:    40021008    ...@    DCD    1073877000
        0x0001b3a4:    000001e0    ....    DCD    480
        0x0001b3a8:    40021004    ...@    DCD    1073876996
        0x0001b3ac:    00000100    ....    DCD    256
        0x0001b3b0:    40021008    ...@    DCD    1073877000
        0x0001b3b4:    000001e0    ....    DCD    480
        0x0001b3b8:    40021004    ...@    DCD    1073876996
        0x0001b3bc:    00000200    ....    DCD    512
        0x0001b3c0:    40021008    ...@    DCD    1073877000
        0x0001b3c4:    00001e00    ....    DCD    7680
        0x0001b3c8:    40021004    ...@    DCD    1073876996
        0x0001b3cc:    00000400    ....    DCD    1024
        0x0001b3d0:    40021008    ...@    DCD    1073877000
        0x0001b3d4:    00001e00    ....    DCD    7680
        0x0001b3d8:    40021004    ...@    DCD    1073876996
        0x0001b3dc:    00000800    ....    DCD    2048
        0x0001b3e0:    40021008    ...@    DCD    1073877000
        0x0001b3e4:    00001e00    ....    DCD    7680
        0x0001b3e8:    40021004    ...@    DCD    1073876996
        0x0001b3ec:    00001000    ....    DCD    4096
        0x0001b3f0:    40021008    ...@    DCD    1073877000
        0x0001b3f4:    00001e00    ....    DCD    7680
        0x0001b3f8:    40021004    ...@    DCD    1073876996
        0x0001b3fc:    00002000    . ..    DCD    8192
        0x0001b400:    40021008    ...@    DCD    1073877000
        0x0001b404:    00002000    . ..    DCD    8192
        0x0001b408:    40021004    ...@    DCD    1073876996
        0x0001b40c:    00004000    .@..    DCD    16384
        0x0001b410:    40021008    ...@    DCD    1073877000
        0x0001b414:    0001c000    ....    DCD    114688
        0x0001b418:    40021004    ...@    DCD    1073876996
        0x0001b41c:    00008000    ....    DCD    32768
        0x0001b420:    40021008    ...@    DCD    1073877000
        0x0001b424:    0001c000    ....    DCD    114688
        0x0001b428:    40021004    ...@    DCD    1073876996
        0x0001b42c:    00010000    ....    DCD    65536
        0x0001b430:    40021008    ...@    DCD    1073877000
        0x0001b434:    0001c000    ....    DCD    114688
        0x0001b438:    40021004    ...@    DCD    1073876996
        0x0001b43c:    00020000    ....    DCD    131072
        0x0001b440:    40021008    ...@    DCD    1073877000
        0x0001b444:    00020000    ....    DCD    131072
        0x0001b448:    40021004    ...@    DCD    1073876996
        0x0001b44c:    00100000    ....    DCD    1048576
        0x0001b450:    40021008    ...@    DCD    1073877000
        0x0001b454:    00100000    ....    DCD    1048576
        0x0001b458:    40021004    ...@    DCD    1073876996
        0x0001b45c:    00200000    .. .    DCD    2097152
        0x0001b460:    40021008    ...@    DCD    1073877000
        0x0001b464:    00200000    .. .    DCD    2097152
        0x0001b468:    40021004    ...@    DCD    1073876996
        0x0001b46c:    01000000    ....    DCD    16777216
        0x0001b470:    40021008    ...@    DCD    1073877000
        0x0001b474:    01000000    ....    DCD    16777216
        0x0001b478:    4002100c    ...@    DCD    1073877004
        0x0001b47c:    00000001    ....    DCD    1
        0x0001b480:    40021010    ...@    DCD    1073877008
        0x0001b484:    00000047    G...    DCD    71
        0x0001b488:    4002100c    ...@    DCD    1073877004
        0x0001b48c:    00000002    ....    DCD    2
        0x0001b490:    40021010    ...@    DCD    1073877008
        0x0001b494:    00000047    G...    DCD    71
        0x0001b498:    4002100c    ...@    DCD    1073877004
        0x0001b49c:    00000004    ....    DCD    4
        0x0001b4a0:    40021010    ...@    DCD    1073877008
        0x0001b4a4:    00000047    G...    DCD    71
        0x0001b4a8:    4002100c    ...@    DCD    1073877004
        0x0001b4ac:    00000040    @...    DCD    64
        0x0001b4b0:    40021010    ...@    DCD    1073877008
        0x0001b4b4:    00000047    G...    DCD    71
    .conststring
        0x0001b4b8:    20202020            DCD    538976288
        0x0001b4bc:    61766e49    Inva    DCD    1635151433
        0x0001b4c0:    2064696c    lid     DCD    543451500
        0x0001b4c4:    77205053    SP w    DCD    1998606419
        0x0001b4c8:    206e6568    hen     DCD    544105832
        0x0001b4cc:    64726148    Hard    DCD    1685217608
        0x0001b4d0:    75614620     Fau    DCD    1969309216
        0x0001b4d4:    6f20746c    lt o    DCD    1864397932
        0x0001b4d8:    72756363    ccur    DCD    1920295779
        0x0001b4dc:    203a6465    ed:     DCD    540697701
        0x0001b4e0:    30257830    0x%0    DCD    807761968
        0x0001b4e4:    28205838    8X (    DCD    673208376
        0x0001b4e8:    53206f6e    no S    DCD    1394634606
        0x0001b4ec:    6b636174    tack    DCD    1801675124
        0x0001b4f0:    64206465    ed d    DCD    1679844453
        0x0001b4f4:    29617461    ata)    DCD    694252641
        0x0001b4f8:    00000a0a    ....    DCD    2570
    Region$$Table$$Base
        0x0001b4fc:    0001b52c    ,...    DCD    111916
        0x0001b500:    10000000    ....    DCD    268435456
        0x0001b504:    0000011c    ....    DCD    284
        0x0001b508:    000182cc    ....    DCD    99020
        0x0001b50c:    0001b648    H...    DCD    112200
        0x0001b510:    10060000    ....    DCD    268828672
        0x0001b514:    00017d58    X}..    DCD    97624
        0x0001b518:    00018270    p...    DCD    98928
        0x0001b51c:    0001b648    H...    DCD    112200
        0x0001b520:    1000011c    ....    DCD    268435740
        0x0001b524:    000017bc    ....    DCD    6076
        0x0001b528:    000182e8    ....    DCD    99048
    Region$$Table$$Limit

** Section #2 'MCU_TCM' (SHT_PROGBITS) [SHF_ALLOC + SHF_WRITE]
    Size   : 284 bytes (alignment 8)
    Address: 0x10000000

    0x10000000:   00 00 00 00 00 00 00 00 00 00 00 00 08 00 00 00    ................
    0x10000010:   00 00 00 00 05 05 00 00 01 00 00 00 04 04 00 00    ................
    0x10000020:   01 00 00 00 04 00 00 00 04 00 00 00 05 05 00 00    ................
    0x10000030:   01 00 00 00 04 02 00 00 01 00 00 00 04 00 00 00    ................
    0x10000040:   04 00 00 00 05 04 00 00 01 00 00 00 05 04 00 00    ................
    0x10000050:   01 00 00 00 04 00 00 00 04 00 00 00 05 02 00 00    ................
    0x10000060:   01 00 00 00 05 02 00 00 01 02 0a 00 00 00 00 00    ................
    0x10000070:   00 00 00 00 08 00 00 10 28 01 00 10 00 00 00 00    ........(.......
    0x10000080:   00 00 00 00 00 00 00 00 e0 0f 00 00 00 00 00 00    ................
    0x10000090:   00 00 00 00 e0 0f 00 00 00 00 00 00 00 00 00 00    ................
    0x100000a0:   00 00 00 00 00 00 00 00 2c 00 00 00 04 00 00 00    ........,.......
    0x100000b0:   02 04 00 00 02 04 00 00 0a 04 00 00 0a 04 00 00    ................
    0x100000c0:   0a 04 00 00 0a 04 00 00 00 01 02 00 01 00 00 00    ................
    0x100000d0:   00 00 00 00 08 1e 0c 40 18 1e 0c 40 00 00 00 00    .......@...@....
    0x100000e0:   6d db 02 40 d1 02 00 00 92 24 01 80 20 01 00 00    m..@.....$.. ...
    0x100000f0:   01 00 00 00 ff ff ff ff ff ff ff ff 00 00 00 00    ................
    0x10000100:   00 00 00 00 00 00 00 00 00 00 00 00 00 00 00 00    ................
    0x10000110:   00 00 00 00 00 00 00 00 00 00 00 00                ............


** Section #3 'MCU_TCM' (SHT_NOBITS) [SHF_ALLOC + SHF_WRITE]
    Size   : 6076 bytes (alignment 8)
    Address: 0x1000011c


** Section #4 'SHARED_SRAM' (SHT_PROGBITS) [SHF_ALLOC + SHF_WRITE]
    Size   : 772 bytes (alignment 4)
    Address: 0x10060000

    Data section was compressed (Original size: 97624 bytes)

    0x10060000:   7c b2 01 00 00 00 00 00 00 00 00 00 00 00 00 00    |...............
    0x10060010:   00 00 00 00 00 00 00 00 00 00 00 00 00 00 00 00    ................
    0x10060020:   00 00 00 00 00 00 00 00 00 00 00 00 00 00 00 00    ................
    0x10060030:   00 00 00 00 00 00 00 00 00 00 00 00 00 00 00 00    ................
    0x10060040:   00 00 00 00 00 00 00 00 00 00 00 00 00 00 00 00    ................
    0x10060050:   00 00 00 00 00 00 00 00 00 00 00 00 00 00 00 00    ................
    0x10060060:   00 00 00 00 00 00 00 00 00 00 00 00 00 00 00 00    ................
    0x10060070:   00 00 00 00 00 00 00 00 00 00 00 00 00 00 00 00    ................
    0x10060080:   00 00 00 00 00 00 00 00 00 00 00 00 00 00 00 00    ................
    0x10060090:   00 00 00 00 00 00 00 00 00 00 00 00 00 00 00 00    ................
    0x100600a0:   00 00 00 00 00 00 00 00 00 00 00 00 00 00 00 00    ................
    0x100600b0:   00 00 00 00 00 00 00 00 00 00 00 00 00 00 00 00    ................
    0x100600c0:   00 00 00 00 00 00 00 00 00 00 00 00 00 00 00 00    ................
    0x100600d0:   00 00 00 00 00 00 00 00 00 00 00 00 00 00 00 00    ................
    0x100600e0:   00 00 00 00 00 00 00 00 00 00 00 00 00 00 00 00    ................
    0x100600f0:   00 00 00 00 00 00 00 00 00 00 00 00 00 00 00 00    ................
    0x10060100:   00 00 00 00 00 00 00 00 00 00 00 00 00 00 00 00    ................
    0x10060110:   00 00 00 00 00 00 00 00 00 00 00 00 00 00 00 00    ................
    0x10060120:   00 00 00 00 00 00 00 00 00 00 00 00 00 00 00 00    ................
    0x10060130:   00 00 00 00 00 00 00 00 00 00 00 00 00 00 00 00    ................
    0x10060140:   00 00 00 00 00 00 00 00 00 00 00 00 00 00 00 00    ................
    0x10060150:   00 00 00 00 00 00 00 00 00 00 00 00 00 00 00 00    ................
    0x10060160:   00 00 00 00 00 00 00 00 00 00 00 00 00 00 00 00    ................
    0x10060170:   00 00 00 00 00 00 00 00 00 00 00 00 00 00 00 00    ................
    0x10060180:   00 00 00 00 00 00 00 00 00 00 00 00 00 00 00 00    ................
    0x10060190:   00 00 00 00 00 00 00 00 00 00 00 00 00 00 00 00    ................
    0x100601a0:   00 00 00 00 00 00 00 00 00 00 00 00 00 00 00 00    ................
    0x100601b0:   00 00 00 00 00 00 00 00 00 00 00 00 00 00 00 00    ................
    0x100601c0:   00 00 00 00 00 00 00 00 00 00 00 00 00 00 00 00    ................
    0x100601d0:   00 00 00 00 00 00 00 00 00 00 00 00 00 00 00 00    ................
    0x100601e0:   00 00 00 00 00 00 00 00 00 00 00 00 00 00 00 00    ................
    0x100601f0:   00 00 00 00 00 00 00 00 00 00 00 00 00 00 00 00    ................
    0x10060200:   00 00 00 00 00 00 00 00 00 00 00 00 00 00 00 00    ................
    0x10060210:   00 00 00 00 00 00 00 00 00 00 00 00 00 00 00 00    ................
    0x10060220:   00 00 00 00 00 00 00 00 00 00 00 00 00 00 00 00    ................
    0x10060230:   00 00 00 00 00 00 00 00 00 00 00 00 00 00 00 00    ................
    0x10060240:   00 00 00 00 00 00 00 00 00 00 00 00 00 00 00 00    ................
    0x10060250:   00 00 00 00 00 00 00 00 00 00 00 00 00 00 00 00    ................
    0x10060260:   00 00 00 00 00 00 00 00 00 00 00 00 00 00 00 00    ................
    0x10060270:   00 00 00 00 00 00 00 00 00 00 00 00 00 00 00 00    ................
    0x10060280:   00 00 00 00 00 00 00 00 00 00 00 00 00 00 00 00    ................
    0x10060290:   00 00 00 00 00 00 00 00 00 00 00 00 00 00 00 00    ................
    0x100602a0:   00 00 00 00 00 00 00 00 00 00 00 00 00 00 00 00    ................
    0x100602b0:   00 00 00 00 00 00 00 00 00 00 00 00 00 00 00 00    ................
    0x100602c0:   00 00 00 00 00 00 00 00 00 00 00 00 00 00 00 00    ................
    0x100602d0:   00 00 00 00 00 00 00 00 00 00 00 00 00 00 00 00    ................
    0x100602e0:   00 00 00 00 00 00 00 00 00 00 00 00 00 00 00 00    ................
    0x100602f0:   00 00 00 00 00 00 00 00 00 00 00 00 00 00 00 00    ................
    0x10060300:   00 00 00 00 00 00 00 00 00 00 00 00 00 00 00 00    ................
    0x10060310:   00 00 00 00 00 00 00 00 00 00 00 00 00 00 00 00    ................
    0x10060320:   00 00 00 00 00 00 00 00 00 00 00 00 00 00 00 00    ................
    0x10060330:   00 00 00 00 00 00 00 00 00 00 00 00 00 00 00 00    ................
    0x10060340:   00 00 00 00 00 00 00 00 00 00 00 00 00 00 00 00    ................
    0x10060350:   00 00 00 00 00 00 00 00 00 00 00 00 00 00 00 00    ................
    0x10060360:   00 00 00 00 00 00 00 00 00 00 00 00 00 00 00 00    ................
    0x10060370:   00 00 00 00 00 00 00 00 00 00 00 00 00 00 00 00    ................
    0x10060380:   00 00 00 00 00 00 00 00 00 00 00 00 00 00 00 00    ................
    0x10060390:   00 00 00 00 00 00 00 00 00 00 00 00 00 00 00 00    ................
    0x100603a0:   00 00 00 00 00 00 00 00 00 00 00 00 00 00 00 00    ................
    0x100603b0:   00 00 00 00 00 00 00 00 00 00 00 00 00 00 00 00    ................
    0x100603c0:   00 00 00 00 00 00 00 00 00 00 00 00 00 00 00 00    ................
    0x100603d0:   00 00 00 00 00 00 00 00 00 00 00 00 00 00 00 00    ................
    0x100603e0:   00 00 00 00 00 00 00 00 00 00 00 00 00 00 00 00    ................
    0x100603f0:   00 00 00 00 00 00 00 00 00 00 00 00 00 00 00 00    ................
    0x10060400:   00 00 00 00 00 00 00 00 00 00 00 00 00 00 00 00    ................
    0x10060410:   00 00 00 00 00 00 00 00 00 00 00 00 00 00 00 00    ................
    0x10060420:   00 00 00 00 00 00 00 00 00 00 00 00 00 00 00 00    ................
    0x10060430:   00 00 00 00 00 00 00 00 00 00 00 00 00 00 00 00    ................
    0x10060440:   00 00 00 00 00 00 00 00 00 00 00 00 00 00 00 00    ................
    0x10060450:   00 00 00 00 00 00 00 00 00 00 00 00 00 00 00 00    ................
    0x10060460:   00 00 00 00 00 00 00 00 00 00 00 00 00 00 00 00    ................
    0x10060470:   00 00 00 00 00 00 00 00 00 00 00 00 00 00 00 00    ................
    0x10060480:   00 00 00 00 00 00 00 00 00 00 00 00 00 00 00 00    ................
    0x10060490:   00 00 00 00 00 00 00 00 00 00 00 00 00 00 00 00    ................
    0x100604a0:   00 00 00 00 00 00 00 00 00 00 00 00 00 00 00 00    ................
    0x100604b0:   00 00 00 00 00 00 00 00 00 00 00 00 00 00 00 00    ................
    0x100604c0:   00 00 00 00 00 00 00 00 00 00 00 00 00 00 00 00    ................
    0x100604d0:   00 00 00 00 00 00 00 00 00 00 00 00 00 00 00 00    ................
    0x100604e0:   00 00 00 00 00 00 00 00 00 00 00 00 00 00 00 00    ................
    0x100604f0:   00 00 00 00 00 00 00 00 00 00 00 00 00 00 00 00    ................
    0x10060500:   00 00 00 00 00 00 00 00 00 00 00 00 00 00 00 00    ................
    0x10060510:   00 00 00 00 00 00 00 00 00 00 00 00 00 00 00 00    ................
    0x10060520:   00 00 00 00 00 00 00 00 00 00 00 00 00 00 00 00    ................
    0x10060530:   00 00 00 00 00 00 00 00 00 00 00 00 00 00 00 00    ................
    0x10060540:   00 00 00 00 00 00 00 00 00 00 00 00 00 00 00 00    ................
    0x10060550:   00 00 00 00 00 00 00 00 00 00 00 00 00 00 00 00    ................
    0x10060560:   00 00 00 00 00 00 00 00 00 00 00 00 00 00 00 00    ................
    0x10060570:   00 00 00 00 00 00 00 00 00 00 00 00 00 00 00 00    ................
    0x10060580:   00 00 00 00 00 00 00 00 00 00 00 00 00 00 00 00    ................
    0x10060590:   00 00 00 00 00 00 00 00 00 00 00 00 00 00 00 00    ................
    0x100605a0:   00 00 00 00 00 00 00 00 00 00 00 00 00 00 00 00    ................
    0x100605b0:   00 00 00 00 00 00 00 00 00 00 00 00 00 00 00 00    ................
    0x100605c0:   00 00 00 00 00 00 00 00 00 00 00 00 00 00 00 00    ................
    0x100605d0:   00 00 00 00 00 00 00 00 00 00 00 00 00 00 00 00    ................
    0x100605e0:   00 00 00 00 00 00 00 00 00 00 00 00 00 00 00 00    ................
    0x100605f0:   00 00 00 00 00 00 00 00 00 00 00 00 00 00 00 00    ................
    0x10060600:   00 00 00 00 00 00 00 00 00 00 00 00 00 00 00 00    ................
    0x10060610:   00 00 00 00 00 00 00 00 00 00 00 00 00 00 00 00    ................
    0x10060620:   00 00 00 00 00 00 00 00 00 00 00 00 00 00 00 00    ................
    0x10060630:   00 00 00 00 00 00 00 00 00 00 00 00 00 00 00 00    ................
    0x10060640:   00 00 00 00 00 00 00 00 00 00 00 00 00 00 00 00    ................
    0x10060650:   00 00 00 00 00 00 00 00 00 00 00 00 00 00 00 00    ................
    0x10060660:   00 00 00 00 00 00 00 00 00 00 00 00 00 00 00 00    ................
    0x10060670:   00 00 00 00 00 00 00 00 00 00 00 00 00 00 00 00    ................
    0x10060680:   00 00 00 00 00 00 00 00 00 00 00 00 00 00 00 00    ................
    0x10060690:   00 00 00 00 00 00 00 00 00 00 00 00 00 00 00 00    ................
    0x100606a0:   00 00 00 00 00 00 00 00 00 00 00 00 00 00 00 00    ................
    0x100606b0:   00 00 00 00 00 00 00 00 00 00 00 00 00 00 00 00    ................
    0x100606c0:   00 00 00 00 00 00 00 00 00 00 00 00 00 00 00 00    ................
    0x100606d0:   00 00 00 00 00 00 00 00 00 00 00 00 00 00 00 00    ................
    0x100606e0:   00 00 00 00 00 00 00 00 00 00 00 00 00 00 00 00    ................
    0x100606f0:   00 00 00 00 00 00 00 00 00 00 00 00 00 00 00 00    ................
    0x10060700:   00 00 00 00 00 00 00 00 00 00 00 00 00 00 00 00    ................
    0x10060710:   00 00 00 00 00 00 00 00 00 00 00 00 00 00 00 00    ................
    0x10060720:   00 00 00 00 00 00 00 00 00 00 00 00 00 00 00 00    ................
    0x10060730:   00 00 00 00 00 00 00 00 00 00 00 00 00 00 00 00    ................
    0x10060740:   00 00 00 00 00 00 00 00 00 00 00 00 00 00 00 00    ................
    0x10060750:   00 00 00 00 00 00 00 00 00 00 00 00 00 00 00 00    ................
    0x10060760:   00 00 00 00 00 00 00 00 00 00 00 00 00 00 00 00    ................
    0x10060770:   00 00 00 00 00 00 00 00 00 00 00 00 00 00 00 00    ................
    0x10060780:   00 00 00 00 00 00 00 00 00 00 00 00 00 00 00 00    ................
    0x10060790:   00 00 00 00 00 00 00 00 00 00 00 00 00 00 00 00    ................
    0x100607a0:   00 00 00 00 00 00 00 00 00 00 00 00 00 00 00 00    ................
    0x100607b0:   00 00 00 00 00 00 00 00 00 00 00 00 00 00 00 00    ................
    0x100607c0:   00 00 00 00 00 00 00 00 00 00 00 00 00 00 00 00    ................
    0x100607d0:   00 00 00 00 00 00 00 00 00 00 00 00 00 00 00 00    ................
    0x100607e0:   00 00 00 00 00 00 00 00 00 00 00 00 00 00 00 00    ................
    0x100607f0:   00 00 00 00 00 00 00 00 00 00 00 00 00 00 00 00    ................
    0x10060800:   00 00 00 00 00 00 00 00 00 00 00 00 00 00 00 00    ................
    0x10060810:   00 00 00 00 00 00 00 00 00 00 00 00 00 00 00 00    ................
    0x10060820:   00 00 00 00 00 00 00 00 00 00 00 00 00 00 00 00    ................
    0x10060830:   00 00 00 00 00 00 00 00 00 00 00 00 00 00 00 00    ................
    0x10060840:   00 00 00 00 00 00 00 00 00 00 00 00 00 00 00 00    ................
    0x10060850:   00 00 00 00 00 00 00 00 00 00 00 00 00 00 00 00    ................
    0x10060860:   00 00 00 00 00 00 00 00 00 00 00 00 00 00 00 00    ................
    0x10060870:   00 00 00 00 00 00 00 00 00 00 00 00 00 00 00 00    ................
    0x10060880:   00 00 00 00 00 00 00 00 00 00 00 00 00 00 00 00    ................
    0x10060890:   00 00 00 00 00 00 00 00 00 00 00 00 00 00 00 00    ................
    0x100608a0:   00 00 00 00 00 00 00 00 00 00 00 00 00 00 00 00    ................
    0x100608b0:   00 00 00 00 00 00 00 00 00 00 00 00 00 00 00 00    ................
    0x100608c0:   00 00 00 00 00 00 00 00 00 00 00 00 00 00 00 00    ................
    0x100608d0:   00 00 00 00 00 00 00 00 00 00 00 00 00 00 00 00    ................
    0x100608e0:   00 00 00 00 00 00 00 00 00 00 00 00 00 00 00 00    ................
    0x100608f0:   00 00 00 00 00 00 00 00 00 00 00 00 00 00 00 00    ................
    0x10060900:   00 00 00 00 00 00 00 00 00 00 00 00 00 00 00 00    ................
    0x10060910:   00 00 00 00 00 00 00 00 00 00 00 00 00 00 00 00    ................
    0x10060920:   00 00 00 00 00 00 00 00 00 00 00 00 00 00 00 00    ................
    0x10060930:   00 00 00 00 00 00 00 00 00 00 00 00 00 00 00 00    ................
    0x10060940:   00 00 00 00 00 00 00 00 00 00 00 00 00 00 00 00    ................
    0x10060950:   00 00 00 00 00 00 00 00 00 00 00 00 00 00 00 00    ................
    0x10060960:   00 00 00 00 00 00 00 00 00 00 00 00 00 00 00 00    ................
    0x10060970:   00 00 00 00 00 00 00 00 00 00 00 00 00 00 00 00    ................
    0x10060980:   00 00 00 00 00 00 00 00 00 00 00 00 00 00 00 00    ................
    0x10060990:   00 00 00 00 00 00 00 00 00 00 00 00 00 00 00 00    ................
    0x100609a0:   00 00 00 00 00 00 00 00 00 00 00 00 00 00 00 00    ................
    0x100609b0:   00 00 00 00 00 00 00 00 00 00 00 00 00 00 00 00    ................
    0x100609c0:   00 00 00 00 00 00 00 00 00 00 00 00 00 00 00 00    ................
    0x100609d0:   00 00 00 00 00 00 00 00 00 00 00 00 00 00 00 00    ................
    0x100609e0:   00 00 00 00 00 00 00 00 00 00 00 00 00 00 00 00    ................
    0x100609f0:   00 00 00 00 00 00 00 00 00 00 00 00 00 00 00 00    ................
    0x10060a00:   00 00 00 00 00 00 00 00 00 00 00 00 00 00 00 00    ................
    0x10060a10:   00 00 00 00 00 00 00 00 00 00 00 00 00 00 00 00    ................
    0x10060a20:   00 00 00 00 00 00 00 00 00 00 00 00 00 00 00 00    ................
    0x10060a30:   00 00 00 00 00 00 00 00 00 00 00 00 00 00 00 00    ................
    0x10060a40:   00 00 00 00 00 00 00 00 00 00 00 00 00 00 00 00    ................
    0x10060a50:   00 00 00 00 00 00 00 00 00 00 00 00 00 00 00 00    ................
    0x10060a60:   00 00 00 00 00 00 00 00 00 00 00 00 00 00 00 00    ................
    0x10060a70:   00 00 00 00 00 00 00 00 00 00 00 00 00 00 00 00    ................
    0x10060a80:   00 00 00 00 00 00 00 00 00 00 00 00 00 00 00 00    ................
    0x10060a90:   00 00 00 00 00 00 00 00 00 00 00 00 00 00 00 00    ................
    0x10060aa0:   00 00 00 00 00 00 00 00 00 00 00 00 00 00 00 00    ................
    0x10060ab0:   00 00 00 00 00 00 00 00 00 00 00 00 00 00 00 00    ................
    0x10060ac0:   00 00 00 00 00 00 00 00 00 00 00 00 00 00 00 00    ................
    0x10060ad0:   00 00 00 00 00 00 00 00 00 00 00 00 00 00 00 00    ................
    0x10060ae0:   00 00 00 00 00 00 00 00 00 00 00 00 00 00 00 00    ................
    0x10060af0:   00 00 00 00 00 00 00 00 00 00 00 00 00 00 00 00    ................
    0x10060b00:   00 00 00 00 00 00 00 00 00 00 00 00 00 00 00 00    ................
    0x10060b10:   00 00 00 00 00 00 00 00 00 00 00 00 00 00 00 00    ................
    0x10060b20:   00 00 00 00 00 00 00 00 00 00 00 00 00 00 00 00    ................
    0x10060b30:   00 00 00 00 00 00 00 00 00 00 00 00 00 00 00 00    ................
    0x10060b40:   00 00 00 00 00 00 00 00 00 00 00 00 00 00 00 00    ................
    0x10060b50:   00 00 00 00 00 00 00 00 00 00 00 00 00 00 00 00    ................
    0x10060b60:   00 00 00 00 00 00 00 00 00 00 00 00 00 00 00 00    ................
    0x10060b70:   00 00 00 00 00 00 00 00 00 00 00 00 00 00 00 00    ................
    0x10060b80:   00 00 00 00 00 00 00 00 00 00 00 00 00 00 00 00    ................
    0x10060b90:   00 00 00 00 00 00 00 00 00 00 00 00 00 00 00 00    ................
    0x10060ba0:   00 00 00 00 00 00 00 00 00 00 00 00 00 00 00 00    ................
    0x10060bb0:   00 00 00 00 00 00 00 00 00 00 00 00 00 00 00 00    ................
    0x10060bc0:   00 00 00 00 00 00 00 00 00 00 00 00 00 00 00 00    ................
    0x10060bd0:   00 00 00 00 00 00 00 00 00 00 00 00 00 00 00 00    ................
    0x10060be0:   00 00 00 00 00 00 00 00 00 00 00 00 00 00 00 00    ................
    0x10060bf0:   00 00 00 00 00 00 00 00 00 00 00 00 00 00 00 00    ................
    0x10060c00:   00 00 00 00 00 00 00 00 00 00 00 00 00 00 00 00    ................
    0x10060c10:   00 00 00 00 00 00 00 00 00 00 00 00 00 00 00 00    ................
    0x10060c20:   00 00 00 00 00 00 00 00 00 00 00 00 00 00 00 00    ................
    0x10060c30:   00 00 00 00 00 00 00 00 00 00 00 00 00 00 00 00    ................
    0x10060c40:   00 00 00 00 00 00 00 00 00 00 00 00 00 00 00 00    ................
    0x10060c50:   00 00 00 00 00 00 00 00 00 00 00 00 00 00 00 00    ................
    0x10060c60:   00 00 00 00 00 00 00 00 00 00 00 00 00 00 00 00    ................
    0x10060c70:   00 00 00 00 00 00 00 00 00 00 00 00 00 00 00 00    ................
    0x10060c80:   00 00 00 00 00 00 00 00 00 00 00 00 00 00 00 00    ................
    0x10060c90:   00 00 00 00 00 00 00 00 00 00 00 00 00 00 00 00    ................
    0x10060ca0:   00 00 00 00 00 00 00 00 00 00 00 00 00 00 00 00    ................
    0x10060cb0:   00 00 00 00 00 00 00 00 00 00 00 00 00 00 00 00    ................
    0x10060cc0:   00 00 00 00 00 00 00 00 00 00 00 00 00 00 00 00    ................
    0x10060cd0:   00 00 00 00 00 00 00 00 00 00 00 00 00 00 00 00    ................
    0x10060ce0:   00 00 00 00 00 00 00 00 00 00 00 00 00 00 00 00    ................
    0x10060cf0:   00 00 00 00 00 00 00 00 00 00 00 00 00 00 00 00    ................
    0x10060d00:   00 00 00 00 00 00 00 00 00 00 00 00 00 00 00 00    ................
    0x10060d10:   00 00 00 00 00 00 00 00 00 00 00 00 00 00 00 00    ................
    0x10060d20:   00 00 00 00 00 00 00 00 00 00 00 00 00 00 00 00    ................
    0x10060d30:   00 00 00 00 00 00 00 00 00 00 00 00 00 00 00 00    ................
    0x10060d40:   00 00 00 00 00 00 00 00 00 00 00 00 00 00 00 00    ................
    0x10060d50:   00 00 00 00 00 00 00 00 00 00 00 00 00 00 00 00    ................
    0x10060d60:   00 00 00 00 00 00 00 00 00 00 00 00 00 00 00 00    ................
    0x10060d70:   00 00 00 00 00 00 00 00 00 00 00 00 00 00 00 00    ................
    0x10060d80:   00 00 00 00 00 00 00 00 00 00 00 00 00 00 00 00    ................
    0x10060d90:   00 00 00 00 00 00 00 00 00 00 00 00 00 00 00 00    ................
    0x10060da0:   00 00 00 00 00 00 00 00 00 00 00 00 00 00 00 00    ................
    0x10060db0:   00 00 00 00 00 00 00 00 00 00 00 00 00 00 00 00    ................
    0x10060dc0:   00 00 00 00 00 00 00 00 00 00 00 00 00 00 00 00    ................
    0x10060dd0:   00 00 00 00 00 00 00 00 00 00 00 00 00 00 00 00    ................
    0x10060de0:   00 00 00 00 00 00 00 00 00 00 00 00 00 00 00 00    ................
    0x10060df0:   00 00 00 00 00 00 00 00 00 00 00 00 00 00 00 00    ................
    0x10060e00:   00 00 00 00 00 00 00 00 00 00 00 00 00 00 00 00    ................
    0x10060e10:   00 00 00 00 00 00 00 00 00 00 00 00 00 00 00 00    ................
    0x10060e20:   00 00 00 00 00 00 00 00 00 00 00 00 00 00 00 00    ................
    0x10060e30:   00 00 00 00 00 00 00 00 00 00 00 00 00 00 00 00    ................
    0x10060e40:   00 00 00 00 00 00 00 00 00 00 00 00 00 00 00 00    ................
    0x10060e50:   00 00 00 00 00 00 00 00 00 00 00 00 00 00 00 00    ................
    0x10060e60:   00 00 00 00 00 00 00 00 00 00 00 00 00 00 00 00    ................
    0x10060e70:   00 00 00 00 00 00 00 00 00 00 00 00 00 00 00 00    ................
    0x10060e80:   00 00 00 00 00 00 00 00 00 00 00 00 00 00 00 00    ................
    0x10060e90:   00 00 00 00 00 00 00 00 00 00 00 00 00 00 00 00    ................
    0x10060ea0:   00 00 00 00 00 00 00 00 00 00 00 00 00 00 00 00    ................
    0x10060eb0:   00 00 00 00 00 00 00 00 00 00 00 00 00 00 00 00    ................
    0x10060ec0:   00 00 00 00 00 00 00 00 00 00 00 00 00 00 00 00    ................
    0x10060ed0:   00 00 00 00 00 00 00 00 00 00 00 00 00 00 00 00    ................
    0x10060ee0:   00 00 00 00 00 00 00 00 00 00 00 00 00 00 00 00    ................
    0x10060ef0:   00 00 00 00 00 00 00 00 00 00 00 00 00 00 00 00    ................
    0x10060f00:   00 00 00 00 00 00 00 00 00 00 00 00 00 00 00 00    ................
    0x10060f10:   00 00 00 00 00 00 00 00 00 00 00 00 00 00 00 00    ................
    0x10060f20:   00 00 00 00 00 00 00 00 00 00 00 00 00 00 00 00    ................
    0x10060f30:   00 00 00 00 00 00 00 00 00 00 00 00 00 00 00 00    ................
    0x10060f40:   00 00 00 00 00 00 00 00 00 00 00 00 00 00 00 00    ................
    0x10060f50:   00 00 00 00 00 00 00 00 00 00 00 00 00 00 00 00    ................
    0x10060f60:   00 00 00 00 00 00 00 00 00 00 00 00 00 00 00 00    ................
    0x10060f70:   00 00 00 00 00 00 00 00 00 00 00 00 00 00 00 00    ................
    0x10060f80:   00 00 00 00 00 00 00 00 00 00 00 00 00 00 00 00    ................
    0x10060f90:   00 00 00 00 00 00 00 00 00 00 00 00 00 00 00 00    ................
    0x10060fa0:   00 00 00 00 00 00 00 00 00 00 00 00 00 00 00 00    ................
    0x10060fb0:   00 00 00 00 00 00 00 00 00 00 00 00 00 00 00 00    ................
    0x10060fc0:   00 00 00 00 00 00 00 00 00 00 00 00 00 00 00 00    ................
    0x10060fd0:   00 00 00 00 00 00 00 00 00 00 00 00 00 00 00 00    ................
    0x10060fe0:   00 00 00 00 00 00 00 00 00 00 00 00 00 00 00 00    ................
    0x10060ff0:   00 00 00 00 00 00 00 00 00 00 00 00 00 00 00 00    ................
    0x10061000:   00 00 00 00 00 00 00 00 00 00 00 00 00 00 00 00    ................
    0x10061010:   00 00 00 00 00 00 00 00 00 00 00 00 00 00 00 00    ................
    0x10061020:   00 00 00 00 00 00 00 00 00 00 00 00 00 00 00 00    ................
    0x10061030:   00 00 00 00 00 00 00 00 00 00 00 00 00 00 00 00    ................
    0x10061040:   00 00 00 00 00 00 00 00 00 00 00 00 00 00 00 00    ................
    0x10061050:   00 00 00 00 00 00 00 00 00 00 00 00 00 00 00 00    ................
    0x10061060:   00 00 00 00 00 00 00 00 00 00 00 00 00 00 00 00    ................
    0x10061070:   00 00 00 00 00 00 00 00 00 00 00 00 00 00 00 00    ................
    0x10061080:   00 00 00 00 00 00 00 00 00 00 00 00 00 00 00 00    ................
    0x10061090:   00 00 00 00 00 00 00 00 00 00 00 00 00 00 00 00    ................
    0x100610a0:   00 00 00 00 00 00 00 00 00 00 00 00 00 00 00 00    ................
    0x100610b0:   00 00 00 00 00 00 00 00 00 00 00 00 00 00 00 00    ................
    0x100610c0:   00 00 00 00 00 00 00 00 00 00 00 00 00 00 00 00    ................
    0x100610d0:   00 00 00 00 00 00 00 00 00 00 00 00 00 00 00 00    ................
    0x100610e0:   00 00 00 00 00 00 00 00 00 00 00 00 00 00 00 00    ................
    0x100610f0:   00 00 00 00 00 00 00 00 00 00 00 00 00 00 00 00    ................
    0x10061100:   00 00 00 00 00 00 00 00 00 00 00 00 00 00 00 00    ................
    0x10061110:   00 00 00 00 00 00 00 00 00 00 00 00 00 00 00 00    ................
    0x10061120:   00 00 00 00 00 00 00 00 00 00 00 00 00 00 00 00    ................
    0x10061130:   00 00 00 00 00 00 00 00 00 00 00 00 00 00 00 00    ................
    0x10061140:   00 00 00 00 00 00 00 00 00 00 00 00 00 00 00 00    ................
    0x10061150:   00 00 00 00 00 00 00 00 00 00 00 00 00 00 00 00    ................
    0x10061160:   00 00 00 00 00 00 00 00 00 00 00 00 00 00 00 00    ................
    0x10061170:   00 00 00 00 00 00 00 00 00 00 00 00 00 00 00 00    ................
    0x10061180:   00 00 00 00 00 00 00 00 00 00 00 00 00 00 00 00    ................
    0x10061190:   00 00 00 00 00 00 00 00 00 00 00 00 00 00 00 00    ................
    0x100611a0:   00 00 00 00 00 00 00 00 00 00 00 00 00 00 00 00    ................
    0x100611b0:   00 00 00 00 00 00 00 00 00 00 00 00 00 00 00 00    ................
    0x100611c0:   00 00 00 00 00 00 00 00 00 00 00 00 00 00 00 00    ................
    0x100611d0:   00 00 00 00 00 00 00 00 00 00 00 00 00 00 00 00    ................
    0x100611e0:   00 00 00 00 00 00 00 00 00 00 00 00 00 00 00 00    ................
    0x100611f0:   00 00 00 00 00 00 00 00 00 00 00 00 00 00 00 00    ................
    0x10061200:   00 00 00 00 00 00 00 00 00 00 00 00 00 00 00 00    ................
    0x10061210:   00 00 00 00 00 00 00 00 00 00 00 00 00 00 00 00    ................
    0x10061220:   00 00 00 00 00 00 00 00 00 00 00 00 00 00 00 00    ................
    0x10061230:   00 00 00 00 00 00 00 00 00 00 00 00 00 00 00 00    ................
    0x10061240:   00 00 00 00 00 00 00 00 00 00 00 00 00 00 00 00    ................
    0x10061250:   00 00 00 00 00 00 00 00 00 00 00 00 00 00 00 00    ................
    0x10061260:   00 00 00 00 00 00 00 00 00 00 00 00 00 00 00 00    ................
    0x10061270:   00 00 00 00 00 00 00 00 00 00 00 00 00 00 00 00    ................
    0x10061280:   00 00 00 00 00 00 00 00 00 00 00 00 00 00 00 00    ................
    0x10061290:   00 00 00 00 00 00 00 00 00 00 00 00 00 00 00 00    ................
    0x100612a0:   00 00 00 00 00 00 00 00 00 00 00 00 00 00 00 00    ................
    0x100612b0:   00 00 00 00 00 00 00 00 00 00 00 00 00 00 00 00    ................
    0x100612c0:   00 00 00 00 00 00 00 00 00 00 00 00 00 00 00 00    ................
    0x100612d0:   00 00 00 00 00 00 00 00 00 00 00 00 00 00 00 00    ................
    0x100612e0:   00 00 00 00 00 00 00 00 00 00 00 00 00 00 00 00    ................
    0x100612f0:   00 00 00 00 00 00 00 00 00 00 00 00 00 00 00 00    ................
    0x10061300:   00 00 00 00 00 00 00 00 00 00 00 00 00 00 00 00    ................
    0x10061310:   00 00 00 00 00 00 00 00 00 00 00 00 00 00 00 00    ................
    0x10061320:   00 00 00 00 00 00 00 00 00 00 00 00 00 00 00 00    ................
    0x10061330:   00 00 00 00 00 00 00 00 00 00 00 00 00 00 00 00    ................
    0x10061340:   00 00 00 00 00 00 00 00 00 00 00 00 00 00 00 00    ................
    0x10061350:   00 00 00 00 00 00 00 00 00 00 00 00 00 00 00 00    ................
    0x10061360:   00 00 00 00 00 00 00 00 00 00 00 00 00 00 00 00    ................
    0x10061370:   00 00 00 00 00 00 00 00 00 00 00 00 00 00 00 00    ................
    0x10061380:   00 00 00 00 00 00 00 00 00 00 00 00 00 00 00 00    ................
    0x10061390:   00 00 00 00 00 00 00 00 00 00 00 00 00 00 00 00    ................
    0x100613a0:   00 00 00 00 00 00 00 00 00 00 00 00 00 00 00 00    ................
    0x100613b0:   00 00 00 00 00 00 00 00 00 00 00 00 00 00 00 00    ................
    0x100613c0:   00 00 00 00 00 00 00 00 00 00 00 00 00 00 00 00    ................
    0x100613d0:   00 00 00 00 00 00 00 00 00 00 00 00 00 00 00 00    ................
    0x100613e0:   00 00 00 00 00 00 00 00 00 00 00 00 00 00 00 00    ................
    0x100613f0:   00 00 00 00 00 00 00 00 00 00 00 00 00 00 00 00    ................
    0x10061400:   00 00 00 00 00 00 00 00 00 00 00 00 00 00 00 00    ................
    0x10061410:   00 00 00 00 00 00 00 00 00 00 00 00 00 00 00 00    ................
    0x10061420:   00 00 00 00 00 00 00 00 00 00 00 00 00 00 00 00    ................
    0x10061430:   00 00 00 00 00 00 00 00 00 00 00 00 00 00 00 00    ................
    0x10061440:   00 00 00 00 00 00 00 00 00 00 00 00 00 00 00 00    ................
    0x10061450:   00 00 00 00 00 00 00 00 00 00 00 00 00 00 00 00    ................
    0x10061460:   00 00 00 00 00 00 00 00 00 00 00 00 00 00 00 00    ................
    0x10061470:   00 00 00 00 00 00 00 00 00 00 00 00 00 00 00 00    ................
    0x10061480:   00 00 00 00 00 00 00 00 00 00 00 00 00 00 00 00    ................
    0x10061490:   00 00 00 00 00 00 00 00 00 00 00 00 00 00 00 00    ................
    0x100614a0:   00 00 00 00 00 00 00 00 00 00 00 00 00 00 00 00    ................
    0x100614b0:   00 00 00 00 00 00 00 00 00 00 00 00 00 00 00 00    ................
    0x100614c0:   00 00 00 00 00 00 00 00 00 00 00 00 00 00 00 00    ................
    0x100614d0:   00 00 00 00 00 00 00 00 00 00 00 00 00 00 00 00    ................
    0x100614e0:   00 00 00 00 00 00 00 00 00 00 00 00 00 00 00 00    ................
    0x100614f0:   00 00 00 00 00 00 00 00 00 00 00 00 00 00 00 00    ................
    0x10061500:   00 00 00 00 00 00 00 00 00 00 00 00 00 00 00 00    ................
    0x10061510:   00 00 00 00 00 00 00 00 00 00 00 00 00 00 00 00    ................
    0x10061520:   00 00 00 00 00 00 00 00 00 00 00 00 00 00 00 00    ................
    0x10061530:   00 00 00 00 00 00 00 00 00 00 00 00 00 00 00 00    ................
    0x10061540:   00 00 00 00 00 00 00 00 00 00 00 00 00 00 00 00    ................
    0x10061550:   00 00 00 00 00 00 00 00 00 00 00 00 00 00 00 00    ................
    0x10061560:   00 00 00 00 00 00 00 00 00 00 00 00 00 00 00 00    ................
    0x10061570:   00 00 00 00 00 00 00 00 00 00 00 00 00 00 00 00    ................
    0x10061580:   00 00 00 00 00 00 00 00 00 00 00 00 00 00 00 00    ................
    0x10061590:   00 00 00 00 00 00 00 00 00 00 00 00 00 00 00 00    ................
    0x100615a0:   00 00 00 00 00 00 00 00 00 00 00 00 00 00 00 00    ................
    0x100615b0:   00 00 00 00 00 00 00 00 00 00 00 00 00 00 00 00    ................
    0x100615c0:   00 00 00 00 00 00 00 00 00 00 00 00 00 00 00 00    ................
    0x100615d0:   00 00 00 00 00 00 00 00 00 00 00 00 00 00 00 00    ................
    0x100615e0:   00 00 00 00 00 00 00 00 00 00 00 00 00 00 00 00    ................
    0x100615f0:   00 00 00 00 00 00 00 00 00 00 00 00 00 00 00 00    ................
    0x10061600:   00 00 00 00 00 00 00 00 00 00 00 00 00 00 00 00    ................
    0x10061610:   00 00 00 00 00 00 00 00 00 00 00 00 00 00 00 00    ................
    0x10061620:   00 00 00 00 00 00 00 00 00 00 00 00 00 00 00 00    ................
    0x10061630:   00 00 00 00 00 00 00 00 00 00 00 00 00 00 00 00    ................
    0x10061640:   00 00 00 00 00 00 00 00 00 00 00 00 00 00 00 00    ................
    0x10061650:   00 00 00 00 00 00 00 00 00 00 00 00 00 00 00 00    ................
    0x10061660:   00 00 00 00 00 00 00 00 00 00 00 00 00 00 00 00    ................
    0x10061670:   00 00 00 00 00 00 00 00 00 00 00 00 00 00 00 00    ................
    0x10061680:   00 00 00 00 00 00 00 00 00 00 00 00 00 00 00 00    ................
    0x10061690:   00 00 00 00 00 00 00 00 00 00 00 00 00 00 00 00    ................
    0x100616a0:   00 00 00 00 00 00 00 00 00 00 00 00 00 00 00 00    ................
    0x100616b0:   00 00 00 00 00 00 00 00 00 00 00 00 00 00 00 00    ................
    0x100616c0:   00 00 00 00 00 00 00 00 00 00 00 00 00 00 00 00    ................
    0x100616d0:   00 00 00 00 00 00 00 00 00 00 00 00 00 00 00 00    ................
    0x100616e0:   00 00 00 00 00 00 00 00 00 00 00 00 00 00 00 00    ................
    0x100616f0:   00 00 00 00 00 00 00 00 00 00 00 00 00 00 00 00    ................
    0x10061700:   00 00 00 00 00 00 00 00 00 00 00 00 00 00 00 00    ................
    0x10061710:   00 00 00 00 00 00 00 00 00 00 00 00 00 00 00 00    ................
    0x10061720:   00 00 00 00 00 00 00 00 00 00 00 00 00 00 00 00    ................
    0x10061730:   00 00 00 00 00 00 00 00 00 00 00 00 00 00 00 00    ................
    0x10061740:   00 00 00 00 00 00 00 00 00 00 00 00 00 00 00 00    ................
    0x10061750:   00 00 00 00 00 00 00 00 00 00 00 00 00 00 00 00    ................
    0x10061760:   00 00 00 00 00 00 00 00 00 00 00 00 00 00 00 00    ................
    0x10061770:   00 00 00 00 00 00 00 00 00 00 00 00 00 00 00 00    ................
    0x10061780:   00 00 00 00 00 00 00 00 00 00 00 00 00 00 00 00    ................
    0x10061790:   00 00 00 00 00 00 00 00 00 00 00 00 00 00 00 00    ................
    0x100617a0:   00 00 00 00 00 00 00 00 00 00 00 00 00 00 00 00    ................
    0x100617b0:   00 00 00 00 00 00 00 00 00 00 00 00 00 00 00 00    ................
    0x100617c0:   00 00 00 00 00 00 00 00 00 00 00 00 00 00 00 00    ................
    0x100617d0:   00 00 00 00 00 00 00 00 00 00 00 00 00 00 00 00    ................
    0x100617e0:   00 00 00 00 00 00 00 00 00 00 00 00 00 00 00 00    ................
    0x100617f0:   00 00 00 00 00 00 00 00 00 00 00 00 00 00 00 00    ................
    0x10061800:   00 00 00 00 00 00 00 00 00 00 00 00 00 00 00 00    ................
    0x10061810:   00 00 00 00 00 00 00 00 00 00 00 00 00 00 00 00    ................
    0x10061820:   00 00 00 00 00 00 00 00 00 00 00 00 00 00 00 00    ................
    0x10061830:   00 00 00 00 00 00 00 00 00 00 00 00 00 00 00 00    ................
    0x10061840:   00 00 00 00 00 00 00 00 00 00 00 00 00 00 00 00    ................
    0x10061850:   00 00 00 00 00 00 00 00 00 00 00 00 00 00 00 00    ................
    0x10061860:   00 00 00 00 00 00 00 00 00 00 00 00 00 00 00 00    ................
    0x10061870:   00 00 00 00 00 00 00 00 00 00 00 00 00 00 00 00    ................
    0x10061880:   00 00 00 00 00 00 00 00 00 00 00 00 00 00 00 00    ................
    0x10061890:   00 00 00 00 00 00 00 00 00 00 00 00 00 00 00 00    ................
    0x100618a0:   00 00 00 00 00 00 00 00 00 00 00 00 00 00 00 00    ................
    0x100618b0:   00 00 00 00 00 00 00 00 00 00 00 00 00 00 00 00    ................
    0x100618c0:   00 00 00 00 00 00 00 00 00 00 00 00 00 00 00 00    ................
    0x100618d0:   00 00 00 00 00 00 00 00 00 00 00 00 00 00 00 00    ................
    0x100618e0:   00 00 00 00 00 00 00 00 00 00 00 00 00 00 00 00    ................
    0x100618f0:   00 00 00 00 00 00 00 00 00 00 00 00 00 00 00 00    ................
    0x10061900:   00 00 00 00 00 00 00 00 00 00 00 00 00 00 00 00    ................
    0x10061910:   00 00 00 00 00 00 00 00 00 00 00 00 00 00 00 00    ................
    0x10061920:   00 00 00 00 00 00 00 00 00 00 00 00 00 00 00 00    ................
    0x10061930:   00 00 00 00 00 00 00 00 00 00 00 00 00 00 00 00    ................
    0x10061940:   00 00 00 00 00 00 00 00 00 00 00 00 00 00 00 00    ................
    0x10061950:   00 00 00 00 00 00 00 00 00 00 00 00 00 00 00 00    ................
    0x10061960:   00 00 00 00 00 00 00 00 00 00 00 00 00 00 00 00    ................
    0x10061970:   00 00 00 00 00 00 00 00 00 00 00 00 00 00 00 00    ................
    0x10061980:   00 00 00 00 00 00 00 00 00 00 00 00 00 00 00 00    ................
    0x10061990:   00 00 00 00 00 00 00 00 00 00 00 00 00 00 00 00    ................
    0x100619a0:   00 00 00 00 00 00 00 00 00 00 00 00 00 00 00 00    ................
    0x100619b0:   00 00 00 00 00 00 00 00 00 00 00 00 00 00 00 00    ................
    0x100619c0:   00 00 00 00 00 00 00 00 00 00 00 00 00 00 00 00    ................
    0x100619d0:   00 00 00 00 00 00 00 00 00 00 00 00 00 00 00 00    ................
    0x100619e0:   00 00 00 00 00 00 00 00 00 00 00 00 00 00 00 00    ................
    0x100619f0:   00 00 00 00 00 00 00 00 00 00 00 00 00 00 00 00    ................
    0x10061a00:   00 00 00 00 00 00 00 00 00 00 00 00 00 00 00 00    ................
    0x10061a10:   00 00 00 00 00 00 00 00 00 00 00 00 00 00 00 00    ................
    0x10061a20:   00 00 00 00 00 00 00 00 00 00 00 00 00 00 00 00    ................
    0x10061a30:   00 00 00 00 00 00 00 00 00 00 00 00 00 00 00 00    ................
    0x10061a40:   00 00 00 00 00 00 00 00 00 00 00 00 00 00 00 00    ................
    0x10061a50:   00 00 00 00 00 00 00 00 00 00 00 00 00 00 00 00    ................
    0x10061a60:   00 00 00 00 00 00 00 00 00 00 00 00 00 00 00 00    ................
    0x10061a70:   00 00 00 00 00 00 00 00 00 00 00 00 00 00 00 00    ................
    0x10061a80:   00 00 00 00 00 00 00 00 00 00 00 00 00 00 00 00    ................
    0x10061a90:   00 00 00 00 00 00 00 00 00 00 00 00 00 00 00 00    ................
    0x10061aa0:   00 00 00 00 00 00 00 00 00 00 00 00 00 00 00 00    ................
    0x10061ab0:   00 00 00 00 00 00 00 00 00 00 00 00 00 00 00 00    ................
    0x10061ac0:   00 00 00 00 00 00 00 00 00 00 00 00 00 00 00 00    ................
    0x10061ad0:   00 00 00 00 00 00 00 00 00 00 00 00 00 00 00 00    ................
    0x10061ae0:   00 00 00 00 00 00 00 00 00 00 00 00 00 00 00 00    ................
    0x10061af0:   00 00 00 00 00 00 00 00 00 00 00 00 00 00 00 00    ................
    0x10061b00:   00 00 00 00 00 00 00 00 00 00 00 00 00 00 00 00    ................
    0x10061b10:   00 00 00 00 00 00 00 00 00 00 00 00 00 00 00 00    ................
    0x10061b20:   00 00 00 00 00 00 00 00 00 00 00 00 00 00 00 00    ................
    0x10061b30:   00 00 00 00 00 00 00 00 00 00 00 00 00 00 00 00    ................
    0x10061b40:   00 00 00 00 00 00 00 00 00 00 00 00 00 00 00 00    ................
    0x10061b50:   00 00 00 00 00 00 00 00 00 00 00 00 00 00 00 00    ................
    0x10061b60:   00 00 00 00 00 00 00 00 00 00 00 00 00 00 00 00    ................
    0x10061b70:   00 00 00 00 00 00 00 00 00 00 00 00 00 00 00 00    ................
    0x10061b80:   00 00 00 00 00 00 00 00 00 00 00 00 00 00 00 00    ................
    0x10061b90:   00 00 00 00 00 00 00 00 00 00 00 00 00 00 00 00    ................
    0x10061ba0:   00 00 00 00 00 00 00 00 00 00 00 00 00 00 00 00    ................
    0x10061bb0:   00 00 00 00 00 00 00 00 00 00 00 00 00 00 00 00    ................
    0x10061bc0:   00 00 00 00 00 00 00 00 00 00 00 00 00 00 00 00    ................
    0x10061bd0:   00 00 00 00 00 00 00 00 00 00 00 00 00 00 00 00    ................
    0x10061be0:   00 00 00 00 00 00 00 00 00 00 00 00 00 00 00 00    ................
    0x10061bf0:   00 00 00 00 00 00 00 00 00 00 00 00 00 00 00 00    ................
    0x10061c00:   00 00 00 00 00 00 00 00 00 00 00 00 00 00 00 00    ................
    0x10061c10:   00 00 00 00 00 00 00 00 00 00 00 00 00 00 00 00    ................
    0x10061c20:   00 00 00 00 00 00 00 00 00 00 00 00 00 00 00 00    ................
    0x10061c30:   00 00 00 00 00 00 00 00 00 00 00 00 00 00 00 00    ................
    0x10061c40:   00 00 00 00 00 00 00 00 00 00 00 00 00 00 00 00    ................
    0x10061c50:   00 00 00 00 00 00 00 00 00 00 00 00 00 00 00 00    ................
    0x10061c60:   00 00 00 00 00 00 00 00 00 00 00 00 00 00 00 00    ................
    0x10061c70:   00 00 00 00 00 00 00 00 00 00 00 00 00 00 00 00    ................
    0x10061c80:   00 00 00 00 00 00 00 00 00 00 00 00 00 00 00 00    ................
    0x10061c90:   00 00 00 00 00 00 00 00 00 00 00 00 00 00 00 00    ................
    0x10061ca0:   00 00 00 00 00 00 00 00 00 00 00 00 00 00 00 00    ................
    0x10061cb0:   00 00 00 00 00 00 00 00 00 00 00 00 00 00 00 00    ................
    0x10061cc0:   00 00 00 00 00 00 00 00 00 00 00 00 00 00 00 00    ................
    0x10061cd0:   00 00 00 00 00 00 00 00 00 00 00 00 00 00 00 00    ................
    0x10061ce0:   00 00 00 00 00 00 00 00 00 00 00 00 00 00 00 00    ................
    0x10061cf0:   00 00 00 00 00 00 00 00 00 00 00 00 00 00 00 00    ................
    0x10061d00:   00 00 00 00 00 00 00 00 00 00 00 00 00 00 00 00    ................
    0x10061d10:   00 00 00 00 00 00 00 00 00 00 00 00 00 00 00 00    ................
    0x10061d20:   00 00 00 00 00 00 00 00 00 00 00 00 00 00 00 00    ................
    0x10061d30:   00 00 00 00 00 00 00 00 00 00 00 00 00 00 00 00    ................
    0x10061d40:   00 00 00 00 00 00 00 00 00 00 00 00 00 00 00 00    ................
    0x10061d50:   00 00 00 00 00 00 00 00 00 00 00 00 00 00 00 00    ................
    0x10061d60:   00 00 00 00 00 00 00 00 00 00 00 00 00 00 00 00    ................
    0x10061d70:   00 00 00 00 00 00 00 00 00 00 00 00 00 00 00 00    ................
    0x10061d80:   00 00 00 00 00 00 00 00 00 00 00 00 00 00 00 00    ................
    0x10061d90:   00 00 00 00 00 00 00 00 00 00 00 00 00 00 00 00    ................
    0x10061da0:   00 00 00 00 00 00 00 00 00 00 00 00 00 00 00 00    ................
    0x10061db0:   00 00 00 00 00 00 00 00 00 00 00 00 00 00 00 00    ................
    0x10061dc0:   00 00 00 00 00 00 00 00 00 00 00 00 00 00 00 00    ................
    0x10061dd0:   00 00 00 00 00 00 00 00 00 00 00 00 00 00 00 00    ................
    0x10061de0:   00 00 00 00 00 00 00 00 00 00 00 00 00 00 00 00    ................
    0x10061df0:   00 00 00 00 00 00 00 00 00 00 00 00 00 00 00 00    ................
    0x10061e00:   00 00 00 00 00 00 00 00 00 00 00 00 00 00 00 00    ................
    0x10061e10:   00 00 00 00 00 00 00 00 00 00 00 00 00 00 00 00    ................
    0x10061e20:   00 00 00 00 00 00 00 00 00 00 00 00 00 00 00 00    ................
    0x10061e30:   00 00 00 00 00 00 00 00 00 00 00 00 00 00 00 00    ................
    0x10061e40:   00 00 00 00 00 00 00 00 00 00 00 00 00 00 00 00    ................
    0x10061e50:   00 00 00 00 00 00 00 00 00 00 00 00 00 00 00 00    ................
    0x10061e60:   00 00 00 00 00 00 00 00 00 00 00 00 00 00 00 00    ................
    0x10061e70:   00 00 00 00 00 00 00 00 00 00 00 00 00 00 00 00    ................
    0x10061e80:   00 00 00 00 00 00 00 00 00 00 00 00 00 00 00 00    ................
    0x10061e90:   00 00 00 00 00 00 00 00 00 00 00 00 00 00 00 00    ................
    0x10061ea0:   00 00 00 00 00 00 00 00 00 00 00 00 00 00 00 00    ................
    0x10061eb0:   00 00 00 00 00 00 00 00 00 00 00 00 00 00 00 00    ................
    0x10061ec0:   00 00 00 00 00 00 00 00 00 00 00 00 00 00 00 00    ................
    0x10061ed0:   00 00 00 00 00 00 00 00 00 00 00 00 00 00 00 00    ................
    0x10061ee0:   00 00 00 00 00 00 00 00 00 00 00 00 00 00 00 00    ................
    0x10061ef0:   00 00 00 00 00 00 00 00 00 00 00 00 00 00 00 00    ................
    0x10061f00:   00 00 00 00 00 00 00 00 00 00 00 00 00 00 00 00    ................
    0x10061f10:   00 00 00 00 00 00 00 00 00 00 00 00 00 00 00 00    ................
    0x10061f20:   00 00 00 00 00 00 00 00 00 00 00 00 00 00 00 00    ................
    0x10061f30:   00 00 00 00 00 00 00 00 00 00 00 00 00 00 00 00    ................
    0x10061f40:   00 00 00 00 00 00 00 00 00 00 00 00 00 00 00 00    ................
    0x10061f50:   00 00 00 00 00 00 00 00 00 00 00 00 00 00 00 00    ................
    0x10061f60:   00 00 00 00 00 00 00 00 00 00 00 00 00 00 00 00    ................
    0x10061f70:   00 00 00 00 00 00 00 00 00 00 00 00 00 00 00 00    ................
    0x10061f80:   00 00 00 00 00 00 00 00 00 00 00 00 00 00 00 00    ................
    0x10061f90:   00 00 00 00 00 00 00 00 00 00 00 00 00 00 00 00    ................
    0x10061fa0:   00 00 00 00 00 00 00 00 00 00 00 00 00 00 00 00    ................
    0x10061fb0:   00 00 00 00 00 00 00 00 00 00 00 00 00 00 00 00    ................
    0x10061fc0:   00 00 00 00 00 00 00 00 00 00 00 00 00 00 00 00    ................
    0x10061fd0:   00 00 00 00 00 00 00 00 00 00 00 00 00 00 00 00    ................
    0x10061fe0:   00 00 00 00 00 00 00 00 00 00 00 00 00 00 00 00    ................
    0x10061ff0:   00 00 00 00 00 00 00 00 00 00 00 00 00 00 00 00    ................
    0x10062000:   00 00 00 00 00 00 00 00 00 00 00 00 00 00 00 00    ................
    0x10062010:   00 00 00 00 00 00 00 00 00 00 00 00 00 00 00 00    ................
    0x10062020:   00 00 00 00 00 00 00 00 00 00 00 00 00 00 00 00    ................
    0x10062030:   00 00 00 00 00 00 00 00 00 00 00 00 00 00 00 00    ................
    0x10062040:   00 00 00 00 00 00 00 00 00 00 00 00 00 00 00 00    ................
    0x10062050:   00 00 00 00 00 00 00 00 00 00 00 00 00 00 00 00    ................
    0x10062060:   00 00 00 00 00 00 00 00 00 00 00 00 00 00 00 00    ................
    0x10062070:   00 00 00 00 00 00 00 00 00 00 00 00 00 00 00 00    ................
    0x10062080:   00 00 00 00 00 00 00 00 00 00 00 00 00 00 00 00    ................
    0x10062090:   00 00 00 00 00 00 00 00 00 00 00 00 00 00 00 00    ................
    0x100620a0:   00 00 00 00 00 00 00 00 00 00 00 00 00 00 00 00    ................
    0x100620b0:   00 00 00 00 00 00 00 00 00 00 00 00 00 00 00 00    ................
    0x100620c0:   00 00 00 00 00 00 00 00 00 00 00 00 00 00 00 00    ................
    0x100620d0:   00 00 00 00 00 00 00 00 00 00 00 00 00 00 00 00    ................
    0x100620e0:   00 00 00 00 00 00 00 00 00 00 00 00 00 00 00 00    ................
    0x100620f0:   00 00 00 00 00 00 00 00 00 00 00 00 00 00 00 00    ................
    0x10062100:   00 00 00 00 00 00 00 00 00 00 00 00 00 00 00 00    ................
    0x10062110:   00 00 00 00 00 00 00 00 00 00 00 00 00 00 00 00    ................
    0x10062120:   00 00 00 00 00 00 00 00 00 00 00 00 00 00 00 00    ................
    0x10062130:   00 00 00 00 00 00 00 00 00 00 00 00 00 00 00 00    ................
    0x10062140:   00 00 00 00 00 00 00 00 00 00 00 00 00 00 00 00    ................
    0x10062150:   00 00 00 00 00 00 00 00 00 00 00 00 00 00 00 00    ................
    0x10062160:   00 00 00 00 00 00 00 00 00 00 00 00 00 00 00 00    ................
    0x10062170:   00 00 00 00 00 00 00 00 00 00 00 00 00 00 00 00    ................
    0x10062180:   00 00 00 00 00 00 00 00 00 00 00 00 00 00 00 00    ................
    0x10062190:   00 00 00 00 00 00 00 00 00 00 00 00 00 00 00 00    ................
    0x100621a0:   00 00 00 00 00 00 00 00 00 00 00 00 00 00 00 00    ................
    0x100621b0:   00 00 00 00 00 00 00 00 00 00 00 00 00 00 00 00    ................
    0x100621c0:   00 00 00 00 00 00 00 00 00 00 00 00 00 00 00 00    ................
    0x100621d0:   00 00 00 00 00 00 00 00 00 00 00 00 00 00 00 00    ................
    0x100621e0:   00 00 00 00 00 00 00 00 00 00 00 00 00 00 00 00    ................
    0x100621f0:   00 00 00 00 00 00 00 00 00 00 00 00 00 00 00 00    ................
    0x10062200:   00 00 00 00 00 00 00 00 00 00 00 00 00 00 00 00    ................
    0x10062210:   00 00 00 00 00 00 00 00 00 00 00 00 00 00 00 00    ................
    0x10062220:   00 00 00 00 00 00 00 00 00 00 00 00 00 00 00 00    ................
    0x10062230:   00 00 00 00 00 00 00 00 00 00 00 00 00 00 00 00    ................
    0x10062240:   00 00 00 00 00 00 00 00 00 00 00 00 00 00 00 00    ................
    0x10062250:   00 00 00 00 00 00 00 00 00 00 00 00 00 00 00 00    ................
    0x10062260:   00 00 00 00 00 00 00 00 00 00 00 00 00 00 00 00    ................
    0x10062270:   00 00 00 00 00 00 00 00 00 00 00 00 00 00 00 00    ................
    0x10062280:   00 00 00 00 00 00 00 00 00 00 00 00 00 00 00 00    ................
    0x10062290:   00 00 00 00 00 00 00 00 00 00 00 00 00 00 00 00    ................
    0x100622a0:   00 00 00 00 00 00 00 00 00 00 00 00 00 00 00 00    ................
    0x100622b0:   00 00 00 00 00 00 00 00 00 00 00 00 00 00 00 00    ................
    0x100622c0:   00 00 00 00 00 00 00 00 00 00 00 00 00 00 00 00    ................
    0x100622d0:   00 00 00 00 00 00 00 00 00 00 00 00 00 00 00 00    ................
    0x100622e0:   00 00 00 00 00 00 00 00 00 00 00 00 00 00 00 00    ................
    0x100622f0:   00 00 00 00 00 00 00 00 00 00 00 00 00 00 00 00    ................
    0x10062300:   00 00 00 00 00 00 00 00 00 00 00 00 00 00 00 00    ................
    0x10062310:   00 00 00 00 00 00 00 00 00 00 00 00 00 00 00 00    ................
    0x10062320:   00 00 00 00 00 00 00 00 00 00 00 00 00 00 00 00    ................
    0x10062330:   00 00 00 00 00 00 00 00 00 00 00 00 00 00 00 00    ................
    0x10062340:   00 00 00 00 00 00 00 00 00 00 00 00 00 00 00 00    ................
    0x10062350:   00 00 00 00 00 00 00 00 00 00 00 00 00 00 00 00    ................
    0x10062360:   00 00 00 00 00 00 00 00 00 00 00 00 00 00 00 00    ................
    0x10062370:   00 00 00 00 00 00 00 00 00 00 00 00 00 00 00 00    ................
    0x10062380:   00 00 00 00 00 00 00 00 00 00 00 00 00 00 00 00    ................
    0x10062390:   00 00 00 00 00 00 00 00 00 00 00 00 00 00 00 00    ................
    0x100623a0:   00 00 00 00 00 00 00 00 00 00 00 00 00 00 00 00    ................
    0x100623b0:   00 00 00 00 00 00 00 00 00 00 00 00 00 00 00 00    ................
    0x100623c0:   00 00 00 00 00 00 00 00 00 00 00 00 00 00 00 00    ................
    0x100623d0:   00 00 00 00 00 00 00 00 00 00 00 00 00 00 00 00    ................
    0x100623e0:   00 00 00 00 00 00 00 00 00 00 00 00 00 00 00 00    ................
    0x100623f0:   00 00 00 00 00 00 00 00 00 00 00 00 00 00 00 00    ................
    0x10062400:   00 00 00 00 00 00 00 00 00 00 00 00 00 00 00 00    ................
    0x10062410:   00 00 00 00 00 00 00 00 00 00 00 00 00 00 00 00    ................
    0x10062420:   00 00 00 00 00 00 00 00 00 00 00 00 00 00 00 00    ................
    0x10062430:   00 00 00 00 00 00 00 00 00 00 00 00 00 00 00 00    ................
    0x10062440:   00 00 00 00 00 00 00 00 00 00 00 00 00 00 00 00    ................
    0x10062450:   00 00 00 00 00 00 00 00 00 00 00 00 00 00 00 00    ................
    0x10062460:   00 00 00 00 00 00 00 00 00 00 00 00 00 00 00 00    ................
    0x10062470:   00 00 00 00 00 00 00 00 00 00 00 00 00 00 00 00    ................
    0x10062480:   00 00 00 00 00 00 00 00 00 00 00 00 00 00 00 00    ................
    0x10062490:   00 00 00 00 00 00 00 00 00 00 00 00 00 00 00 00    ................
    0x100624a0:   00 00 00 00 00 00 00 00 00 00 00 00 00 00 00 00    ................
    0x100624b0:   00 00 00 00 00 00 00 00 00 00 00 00 00 00 00 00    ................
    0x100624c0:   00 00 00 00 00 00 00 00 00 00 00 00 00 00 00 00    ................
    0x100624d0:   00 00 00 00 00 00 00 00 00 00 00 00 00 00 00 00    ................
    0x100624e0:   00 00 00 00 00 00 00 00 00 00 00 00 00 00 00 00    ................
    0x100624f0:   00 00 00 00 00 00 00 00 00 00 00 00 00 00 00 00    ................
    0x10062500:   00 00 00 00 00 00 00 00 00 00 00 00 00 00 00 00    ................
    0x10062510:   00 00 00 00 00 00 00 00 00 00 00 00 00 00 00 00    ................
    0x10062520:   00 00 00 00 00 00 00 00 00 00 00 00 00 00 00 00    ................
    0x10062530:   00 00 00 00 00 00 00 00 00 00 00 00 00 00 00 00    ................
    0x10062540:   00 00 00 00 00 00 00 00 00 00 00 00 00 00 00 00    ................
    0x10062550:   00 00 00 00 00 00 00 00 00 00 00 00 00 00 00 00    ................
    0x10062560:   00 00 00 00 00 00 00 00 00 00 00 00 00 00 00 00    ................
    0x10062570:   00 00 00 00 00 00 00 00 00 00 00 00 00 00 00 00    ................
    0x10062580:   00 00 00 00 00 00 00 00 00 00 00 00 00 00 00 00    ................
    0x10062590:   00 00 00 00 00 00 00 00 00 00 00 00 00 00 00 00    ................
    0x100625a0:   00 00 00 00 00 00 00 00 00 00 00 00 00 00 00 00    ................
    0x100625b0:   00 00 00 00 00 00 00 00 00 00 00 00 00 00 00 00    ................
    0x100625c0:   00 00 00 00 00 00 00 00 00 00 00 00 00 00 00 00    ................
    0x100625d0:   00 00 00 00 00 00 00 00 00 00 00 00 00 00 00 00    ................
    0x100625e0:   00 00 00 00 00 00 00 00 00 00 00 00 00 00 00 00    ................
    0x100625f0:   00 00 00 00 00 00 00 00 00 00 00 00 00 00 00 00    ................
    0x10062600:   00 00 00 00 00 00 00 00 00 00 00 00 00 00 00 00    ................
    0x10062610:   00 00 00 00 00 00 00 00 00 00 00 00 00 00 00 00    ................
    0x10062620:   00 00 00 00 00 00 00 00 00 00 00 00 00 00 00 00    ................
    0x10062630:   00 00 00 00 00 00 00 00 00 00 00 00 00 00 00 00    ................
    0x10062640:   00 00 00 00 00 00 00 00 00 00 00 00 00 00 00 00    ................
    0x10062650:   00 00 00 00 00 00 00 00 00 00 00 00 00 00 00 00    ................
    0x10062660:   00 00 00 00 00 00 00 00 00 00 00 00 00 00 00 00    ................
    0x10062670:   00 00 00 00 00 00 00 00 00 00 00 00 00 00 00 00    ................
    0x10062680:   00 00 00 00 00 00 00 00 00 00 00 00 00 00 00 00    ................
    0x10062690:   00 00 00 00 00 00 00 00 00 00 00 00 00 00 00 00    ................
    0x100626a0:   00 00 00 00 00 00 00 00 00 00 00 00 00 00 00 00    ................
    0x100626b0:   00 00 00 00 00 00 00 00 00 00 00 00 00 00 00 00    ................
    0x100626c0:   00 00 00 00 00 00 00 00 00 00 00 00 00 00 00 00    ................
    0x100626d0:   00 00 00 00 00 00 00 00 00 00 00 00 00 00 00 00    ................
    0x100626e0:   00 00 00 00 00 00 00 00 00 00 00 00 00 00 00 00    ................
    0x100626f0:   00 00 00 00 00 00 00 00 00 00 00 00 00 00 00 00    ................
    0x10062700:   00 00 00 00 00 00 00 00 00 00 00 00 00 00 00 00    ................
    0x10062710:   00 00 00 00 00 00 00 00 00 00 00 00 00 00 00 00    ................
    0x10062720:   00 00 00 00 00 00 00 00 00 00 00 00 00 00 00 00    ................
    0x10062730:   00 00 00 00 00 00 00 00 00 00 00 00 00 00 00 00    ................
    0x10062740:   00 00 00 00 00 00 00 00 00 00 00 00 00 00 00 00    ................
    0x10062750:   00 00 00 00 00 00 00 00 00 00 00 00 00 00 00 00    ................
    0x10062760:   00 00 00 00 00 00 00 00 00 00 00 00 00 00 00 00    ................
    0x10062770:   00 00 00 00 00 00 00 00 00 00 00 00 00 00 00 00    ................
    0x10062780:   00 00 00 00 00 00 00 00 00 00 00 00 00 00 00 00    ................
    0x10062790:   00 00 00 00 00 00 00 00 00 00 00 00 00 00 00 00    ................
    0x100627a0:   00 00 00 00 00 00 00 00 00 00 00 00 00 00 00 00    ................
    0x100627b0:   00 00 00 00 00 00 00 00 00 00 00 00 00 00 00 00    ................
    0x100627c0:   00 00 00 00 00 00 00 00 00 00 00 00 00 00 00 00    ................
    0x100627d0:   00 00 00 00 00 00 00 00 00 00 00 00 00 00 00 00    ................
    0x100627e0:   00 00 00 00 00 00 00 00 00 00 00 00 00 00 00 00    ................
    0x100627f0:   00 00 00 00 00 00 00 00 00 00 00 00 00 00 00 00    ................
    0x10062800:   00 00 00 00 00 00 00 00 00 00 00 00 00 00 00 00    ................
    0x10062810:   00 00 00 00 00 00 00 00 00 00 00 00 00 00 00 00    ................
    0x10062820:   00 00 00 00 00 00 00 00 00 00 00 00 00 00 00 00    ................
    0x10062830:   00 00 00 00 00 00 00 00 00 00 00 00 00 00 00 00    ................
    0x10062840:   00 00 00 00 00 00 00 00 00 00 00 00 00 00 00 00    ................
    0x10062850:   00 00 00 00 00 00 00 00 00 00 00 00 00 00 00 00    ................
    0x10062860:   00 00 00 00 00 00 00 00 00 00 00 00 00 00 00 00    ................
    0x10062870:   00 00 00 00 00 00 00 00 00 00 00 00 00 00 00 00    ................
    0x10062880:   00 00 00 00 00 00 00 00 00 00 00 00 00 00 00 00    ................
    0x10062890:   00 00 00 00 00 00 00 00 00 00 00 00 00 00 00 00    ................
    0x100628a0:   00 00 00 00 00 00 00 00 00 00 00 00 00 00 00 00    ................
    0x100628b0:   00 00 00 00 00 00 00 00 00 00 00 00 00 00 00 00    ................
    0x100628c0:   00 00 00 00 00 00 00 00 00 00 00 00 00 00 00 00    ................
    0x100628d0:   00 00 00 00 00 00 00 00 00 00 00 00 00 00 00 00    ................
    0x100628e0:   00 00 00 00 00 00 00 00 00 00 00 00 00 00 00 00    ................
    0x100628f0:   00 00 00 00 00 00 00 00 00 00 00 00 00 00 00 00    ................
    0x10062900:   00 00 00 00 00 00 00 00 00 00 00 00 00 00 00 00    ................
    0x10062910:   00 00 00 00 00 00 00 00 00 00 00 00 00 00 00 00    ................
    0x10062920:   00 00 00 00 00 00 00 00 00 00 00 00 00 00 00 00    ................
    0x10062930:   00 00 00 00 00 00 00 00 00 00 00 00 00 00 00 00    ................
    0x10062940:   00 00 00 00 00 00 00 00 00 00 00 00 00 00 00 00    ................
    0x10062950:   00 00 00 00 00 00 00 00 00 00 00 00 00 00 00 00    ................
    0x10062960:   00 00 00 00 00 00 00 00 00 00 00 00 00 00 00 00    ................
    0x10062970:   00 00 00 00 00 00 00 00 00 00 00 00 00 00 00 00    ................
    0x10062980:   00 00 00 00 00 00 00 00 00 00 00 00 00 00 00 00    ................
    0x10062990:   00 00 00 00 00 00 00 00 00 00 00 00 00 00 00 00    ................
    0x100629a0:   00 00 00 00 00 00 00 00 00 00 00 00 00 00 00 00    ................
    0x100629b0:   00 00 00 00 00 00 00 00 00 00 00 00 00 00 00 00    ................
    0x100629c0:   00 00 00 00 00 00 00 00 00 00 00 00 00 00 00 00    ................
    0x100629d0:   00 00 00 00 00 00 00 00 00 00 00 00 00 00 00 00    ................
    0x100629e0:   00 00 00 00 00 00 00 00 00 00 00 00 00 00 00 00    ................
    0x100629f0:   00 00 00 00 00 00 00 00 00 00 00 00 00 00 00 00    ................
    0x10062a00:   00 00 00 00 00 00 00 00 00 00 00 00 00 00 00 00    ................
    0x10062a10:   00 00 00 00 00 00 00 00 00 00 00 00 00 00 00 00    ................
    0x10062a20:   00 00 00 00 00 00 00 00 00 00 00 00 00 00 00 00    ................
    0x10062a30:   00 00 00 00 00 00 00 00 00 00 00 00 00 00 00 00    ................
    0x10062a40:   00 00 00 00 00 00 00 00 00 00 00 00 00 00 00 00    ................
    0x10062a50:   00 00 00 00 00 00 00 00 00 00 00 00 00 00 00 00    ................
    0x10062a60:   00 00 00 00 00 00 00 00 00 00 00 00 00 00 00 00    ................
    0x10062a70:   00 00 00 00 00 00 00 00 00 00 00 00 00 00 00 00    ................
    0x10062a80:   00 00 00 00 00 00 00 00 00 00 00 00 00 00 00 00    ................
    0x10062a90:   00 00 00 00 00 00 00 00 00 00 00 00 00 00 00 00    ................
    0x10062aa0:   00 00 00 00 00 00 00 00 00 00 00 00 00 00 00 00    ................
    0x10062ab0:   00 00 00 00 00 00 00 00 00 00 00 00 00 00 00 00    ................
    0x10062ac0:   00 00 00 00 00 00 00 00 00 00 00 00 00 00 00 00    ................
    0x10062ad0:   00 00 00 00 00 00 00 00 00 00 00 00 00 00 00 00    ................
    0x10062ae0:   00 00 00 00 00 00 00 00 00 00 00 00 00 00 00 00    ................
    0x10062af0:   00 00 00 00 00 00 00 00 00 00 00 00 00 00 00 00    ................
    0x10062b00:   00 00 00 00 00 00 00 00 00 00 00 00 00 00 00 00    ................
    0x10062b10:   00 00 00 00 00 00 00 00 00 00 00 00 00 00 00 00    ................
    0x10062b20:   00 00 00 00 00 00 00 00 00 00 00 00 00 00 00 00    ................
    0x10062b30:   00 00 00 00 00 00 00 00 00 00 00 00 00 00 00 00    ................
    0x10062b40:   00 00 00 00 00 00 00 00 00 00 00 00 00 00 00 00    ................
    0x10062b50:   00 00 00 00 00 00 00 00 00 00 00 00 00 00 00 00    ................
    0x10062b60:   00 00 00 00 00 00 00 00 00 00 00 00 00 00 00 00    ................
    0x10062b70:   00 00 00 00 00 00 00 00 00 00 00 00 00 00 00 00    ................
    0x10062b80:   00 00 00 00 00 00 00 00 00 00 00 00 00 00 00 00    ................
    0x10062b90:   00 00 00 00 00 00 00 00 00 00 00 00 00 00 00 00    ................
    0x10062ba0:   00 00 00 00 00 00 00 00 00 00 00 00 00 00 00 00    ................
    0x10062bb0:   00 00 00 00 00 00 00 00 00 00 00 00 00 00 00 00    ................
    0x10062bc0:   00 00 00 00 00 00 00 00 00 00 00 00 00 00 00 00    ................
    0x10062bd0:   00 00 00 00 00 00 00 00 00 00 00 00 00 00 00 00    ................
    0x10062be0:   00 00 00 00 00 00 00 00 00 00 00 00 00 00 00 00    ................
    0x10062bf0:   00 00 00 00 00 00 00 00 00 00 00 00 00 00 00 00    ................
    0x10062c00:   00 00 00 00 00 00 00 00 00 00 00 00 00 00 00 00    ................
    0x10062c10:   00 00 00 00 00 00 00 00 00 00 00 00 00 00 00 00    ................
    0x10062c20:   00 00 00 00 00 00 00 00 00 00 00 00 00 00 00 00    ................
    0x10062c30:   00 00 00 00 00 00 00 00 00 00 00 00 00 00 00 00    ................
    0x10062c40:   00 00 00 00 00 00 00 00 00 00 00 00 00 00 00 00    ................
    0x10062c50:   00 00 00 00 00 00 00 00 00 00 00 00 00 00 00 00    ................
    0x10062c60:   00 00 00 00 00 00 00 00 00 00 00 00 00 00 00 00    ................
    0x10062c70:   00 00 00 00 00 00 00 00 00 00 00 00 00 00 00 00    ................
    0x10062c80:   00 00 00 00 00 00 00 00 00 00 00 00 00 00 00 00    ................
    0x10062c90:   00 00 00 00 00 00 00 00 00 00 00 00 00 00 00 00    ................
    0x10062ca0:   00 00 00 00 00 00 00 00 00 00 00 00 00 00 00 00    ................
    0x10062cb0:   00 00 00 00 00 00 00 00 00 00 00 00 00 00 00 00    ................
    0x10062cc0:   00 00 00 00 00 00 00 00 00 00 00 00 00 00 00 00    ................
    0x10062cd0:   00 00 00 00 00 00 00 00 00 00 00 00 00 00 00 00    ................
    0x10062ce0:   00 00 00 00 00 00 00 00 00 00 00 00 00 00 00 00    ................
    0x10062cf0:   00 00 00 00 00 00 00 00 00 00 00 00 00 00 00 00    ................
    0x10062d00:   00 00 00 00 00 00 00 00 00 00 00 00 00 00 00 00    ................
    0x10062d10:   00 00 00 00 00 00 00 00 00 00 00 00 00 00 00 00    ................
    0x10062d20:   00 00 00 00 00 00 00 00 00 00 00 00 00 00 00 00    ................
    0x10062d30:   00 00 00 00 00 00 00 00 00 00 00 00 00 00 00 00    ................
    0x10062d40:   00 00 00 00 00 00 00 00 00 00 00 00 00 00 00 00    ................
    0x10062d50:   00 00 00 00 00 00 00 00 00 00 00 00 00 00 00 00    ................
    0x10062d60:   00 00 00 00 00 00 00 00 00 00 00 00 00 00 00 00    ................
    0x10062d70:   00 00 00 00 00 00 00 00 00 00 00 00 00 00 00 00    ................
    0x10062d80:   00 00 00 00 00 00 00 00 00 00 00 00 00 00 00 00    ................
    0x10062d90:   00 00 00 00 00 00 00 00 00 00 00 00 00 00 00 00    ................
    0x10062da0:   00 00 00 00 00 00 00 00 00 00 00 00 00 00 00 00    ................
    0x10062db0:   00 00 00 00 00 00 00 00 00 00 00 00 00 00 00 00    ................
    0x10062dc0:   00 00 00 00 00 00 00 00 00 00 00 00 00 00 00 00    ................
    0x10062dd0:   00 00 00 00 00 00 00 00 00 00 00 00 00 00 00 00    ................
    0x10062de0:   00 00 00 00 00 00 00 00 00 00 00 00 00 00 00 00    ................
    0x10062df0:   00 00 00 00 00 00 00 00 00 00 00 00 00 00 00 00    ................
    0x10062e00:   00 00 00 00 00 00 00 00 00 00 00 00 00 00 00 00    ................
    0x10062e10:   00 00 00 00 00 00 00 00 00 00 00 00 00 00 00 00    ................
    0x10062e20:   00 00 00 00 00 00 00 00 00 00 00 00 00 00 00 00    ................
    0x10062e30:   00 00 00 00 00 00 00 00 00 00 00 00 00 00 00 00    ................
    0x10062e40:   00 00 00 00 00 00 00 00 00 00 00 00 00 00 00 00    ................
    0x10062e50:   00 00 00 00 00 00 00 00 00 00 00 00 00 00 00 00    ................
    0x10062e60:   00 00 00 00 00 00 00 00 00 00 00 00 00 00 00 00    ................
    0x10062e70:   00 00 00 00 00 00 00 00 00 00 00 00 00 00 00 00    ................
    0x10062e80:   00 00 00 00 00 00 00 00 00 00 00 00 00 00 00 00    ................
    0x10062e90:   00 00 00 00 00 00 00 00 00 00 00 00 00 00 00 00    ................
    0x10062ea0:   00 00 00 00 00 00 00 00 00 00 00 00 00 00 00 00    ................
    0x10062eb0:   00 00 00 00 00 00 00 00 00 00 00 00 00 00 00 00    ................
    0x10062ec0:   00 00 00 00 00 00 00 00 00 00 00 00 00 00 00 00    ................
    0x10062ed0:   00 00 00 00 00 00 00 00 00 00 00 00 00 00 00 00    ................
    0x10062ee0:   00 00 00 00 00 00 00 00 00 00 00 00 00 00 00 00    ................
    0x10062ef0:   00 00 00 00 00 00 00 00 00 00 00 00 00 00 00 00    ................
    0x10062f00:   00 00 00 00 00 00 00 00 00 00 00 00 00 00 00 00    ................
    0x10062f10:   00 00 00 00 00 00 00 00 00 00 00 00 00 00 00 00    ................
    0x10062f20:   00 00 00 00 00 00 00 00 00 00 00 00 00 00 00 00    ................
    0x10062f30:   00 00 00 00 00 00 00 00 00 00 00 00 00 00 00 00    ................
    0x10062f40:   00 00 00 00 00 00 00 00 00 00 00 00 00 00 00 00    ................
    0x10062f50:   00 00 00 00 00 00 00 00 00 00 00 00 00 00 00 00    ................
    0x10062f60:   00 00 00 00 00 00 00 00 00 00 00 00 00 00 00 00    ................
    0x10062f70:   00 00 00 00 00 00 00 00 00 00 00 00 00 00 00 00    ................
    0x10062f80:   00 00 00 00 00 00 00 00 00 00 00 00 00 00 00 00    ................
    0x10062f90:   00 00 00 00 00 00 00 00 00 00 00 00 00 00 00 00    ................
    0x10062fa0:   00 00 00 00 00 00 00 00 00 00 00 00 00 00 00 00    ................
    0x10062fb0:   00 00 00 00 00 00 00 00 00 00 00 00 00 00 00 00    ................
    0x10062fc0:   00 00 00 00 00 00 00 00 00 00 00 00 00 00 00 00    ................
    0x10062fd0:   00 00 00 00 00 00 00 00 00 00 00 00 00 00 00 00    ................
    0x10062fe0:   00 00 00 00 00 00 00 00 00 00 00 00 00 00 00 00    ................
    0x10062ff0:   00 00 00 00 00 00 00 00 00 00 00 00 00 00 00 00    ................
    0x10063000:   00 00 00 00 00 00 00 00 00 00 00 00 00 00 00 00    ................
    0x10063010:   00 00 00 00 00 00 00 00 00 00 00 00 00 00 00 00    ................
    0x10063020:   00 00 00 00 00 00 00 00 00 00 00 00 00 00 00 00    ................
    0x10063030:   00 00 00 00 00 00 00 00 00 00 00 00 00 00 00 00    ................
    0x10063040:   00 00 00 00 00 00 00 00 00 00 00 00 00 00 00 00    ................
    0x10063050:   00 00 00 00 00 00 00 00 00 00 00 00 00 00 00 00    ................
    0x10063060:   00 00 00 00 00 00 00 00 00 00 00 00 00 00 00 00    ................
    0x10063070:   00 00 00 00 00 00 00 00 00 00 00 00 00 00 00 00    ................
    0x10063080:   00 00 00 00 00 00 00 00 00 00 00 00 00 00 00 00    ................
    0x10063090:   00 00 00 00 00 00 00 00 00 00 00 00 00 00 00 00    ................
    0x100630a0:   00 00 00 00 00 00 00 00 00 00 00 00 00 00 00 00    ................
    0x100630b0:   00 00 00 00 00 00 00 00 00 00 00 00 00 00 00 00    ................
    0x100630c0:   00 00 00 00 00 00 00 00 00 00 00 00 00 00 00 00    ................
    0x100630d0:   00 00 00 00 00 00 00 00 00 00 00 00 00 00 00 00    ................
    0x100630e0:   00 00 00 00 00 00 00 00 00 00 00 00 00 00 00 00    ................
    0x100630f0:   00 00 00 00 00 00 00 00 00 00 00 00 00 00 00 00    ................
    0x10063100:   00 00 00 00 00 00 00 00 00 00 00 00 00 00 00 00    ................
    0x10063110:   00 00 00 00 00 00 00 00 00 00 00 00 00 00 00 00    ................
    0x10063120:   00 00 00 00 00 00 00 00 00 00 00 00 00 00 00 00    ................
    0x10063130:   00 00 00 00 00 00 00 00 00 00 00 00 00 00 00 00    ................
    0x10063140:   00 00 00 00 00 00 00 00 00 00 00 00 00 00 00 00    ................
    0x10063150:   00 00 00 00 00 00 00 00 00 00 00 00 00 00 00 00    ................
    0x10063160:   00 00 00 00 00 00 00 00 00 00 00 00 00 00 00 00    ................
    0x10063170:   00 00 00 00 00 00 00 00 00 00 00 00 00 00 00 00    ................
    0x10063180:   00 00 00 00 00 00 00 00 00 00 00 00 00 00 00 00    ................
    0x10063190:   00 00 00 00 00 00 00 00 00 00 00 00 00 00 00 00    ................
    0x100631a0:   00 00 00 00 00 00 00 00 00 00 00 00 00 00 00 00    ................
    0x100631b0:   00 00 00 00 00 00 00 00 00 00 00 00 00 00 00 00    ................
    0x100631c0:   00 00 00 00 00 00 00 00 00 00 00 00 00 00 00 00    ................
    0x100631d0:   00 00 00 00 00 00 00 00 00 00 00 00 00 00 00 00    ................
    0x100631e0:   00 00 00 00 00 00 00 00 00 00 00 00 00 00 00 00    ................
    0x100631f0:   00 00 00 00 00 00 00 00 00 00 00 00 00 00 00 00    ................
    0x10063200:   00 00 00 00 00 00 00 00 00 00 00 00 00 00 00 00    ................
    0x10063210:   00 00 00 00 00 00 00 00 00 00 00 00 00 00 00 00    ................
    0x10063220:   00 00 00 00 00 00 00 00 00 00 00 00 00 00 00 00    ................
    0x10063230:   00 00 00 00 00 00 00 00 00 00 00 00 00 00 00 00    ................
    0x10063240:   00 00 00 00 00 00 00 00 00 00 00 00 00 00 00 00    ................
    0x10063250:   00 00 00 00 00 00 00 00 00 00 00 00 00 00 00 00    ................
    0x10063260:   00 00 00 00 00 00 00 00 00 00 00 00 00 00 00 00    ................
    0x10063270:   00 00 00 00 00 00 00 00 00 00 00 00 00 00 00 00    ................
    0x10063280:   00 00 00 00 00 00 00 00 00 00 00 00 00 00 00 00    ................
    0x10063290:   00 00 00 00 00 00 00 00 00 00 00 00 00 00 00 00    ................
    0x100632a0:   00 00 00 00 00 00 00 00 00 00 00 00 00 00 00 00    ................
    0x100632b0:   00 00 00 00 00 00 00 00 00 00 00 00 00 00 00 00    ................
    0x100632c0:   00 00 00 00 00 00 00 00 00 00 00 00 00 00 00 00    ................
    0x100632d0:   00 00 00 00 00 00 00 00 00 00 00 00 00 00 00 00    ................
    0x100632e0:   00 00 00 00 00 00 00 00 00 00 00 00 00 00 00 00    ................
    0x100632f0:   00 00 00 00 00 00 00 00 00 00 00 00 00 00 00 00    ................
    0x10063300:   00 00 00 00 00 00 00 00 00 00 00 00 00 00 00 00    ................
    0x10063310:   00 00 00 00 00 00 00 00 00 00 00 00 00 00 00 00    ................
    0x10063320:   00 00 00 00 00 00 00 00 00 00 00 00 00 00 00 00    ................
    0x10063330:   00 00 00 00 00 00 00 00 00 00 00 00 00 00 00 00    ................
    0x10063340:   00 00 00 00 00 00 00 00 00 00 00 00 00 00 00 00    ................
    0x10063350:   00 00 00 00 00 00 00 00 00 00 00 00 00 00 00 00    ................
    0x10063360:   00 00 00 00 00 00 00 00 00 00 00 00 00 00 00 00    ................
    0x10063370:   00 00 00 00 00 00 00 00 00 00 00 00 00 00 00 00    ................
    0x10063380:   00 00 00 00 00 00 00 00 00 00 00 00 00 00 00 00    ................
    0x10063390:   00 00 00 00 00 00 00 00 00 00 00 00 00 00 00 00    ................
    0x100633a0:   00 00 00 00 00 00 00 00 00 00 00 00 00 00 00 00    ................
    0x100633b0:   00 00 00 00 00 00 00 00 00 00 00 00 00 00 00 00    ................
    0x100633c0:   00 00 00 00 00 00 00 00 00 00 00 00 00 00 00 00    ................
    0x100633d0:   00 00 00 00 00 00 00 00 00 00 00 00 00 00 00 00    ................
    0x100633e0:   00 00 00 00 00 00 00 00 00 00 00 00 00 00 00 00    ................
    0x100633f0:   00 00 00 00 00 00 00 00 00 00 00 00 00 00 00 00    ................
    0x10063400:   00 00 00 00 00 00 00 00 00 00 00 00 00 00 00 00    ................
    0x10063410:   00 00 00 00 00 00 00 00 00 00 00 00 00 00 00 00    ................
    0x10063420:   00 00 00 00 00 00 00 00 00 00 00 00 00 00 00 00    ................
    0x10063430:   00 00 00 00 00 00 00 00 00 00 00 00 00 00 00 00    ................
    0x10063440:   00 00 00 00 00 00 00 00 00 00 00 00 00 00 00 00    ................
    0x10063450:   00 00 00 00 00 00 00 00 00 00 00 00 00 00 00 00    ................
    0x10063460:   00 00 00 00 00 00 00 00 00 00 00 00 00 00 00 00    ................
    0x10063470:   00 00 00 00 00 00 00 00 00 00 00 00 00 00 00 00    ................
    0x10063480:   00 00 00 00 00 00 00 00 00 00 00 00 00 00 00 00    ................
    0x10063490:   00 00 00 00 00 00 00 00 00 00 00 00 00 00 00 00    ................
    0x100634a0:   00 00 00 00 00 00 00 00 00 00 00 00 00 00 00 00    ................
    0x100634b0:   00 00 00 00 00 00 00 00 00 00 00 00 00 00 00 00    ................
    0x100634c0:   00 00 00 00 00 00 00 00 00 00 00 00 00 00 00 00    ................
    0x100634d0:   00 00 00 00 00 00 00 00 00 00 00 00 00 00 00 00    ................
    0x100634e0:   00 00 00 00 00 00 00 00 00 00 00 00 00 00 00 00    ................
    0x100634f0:   00 00 00 00 00 00 00 00 00 00 00 00 00 00 00 00    ................
    0x10063500:   00 00 00 00 00 00 00 00 00 00 00 00 00 00 00 00    ................
    0x10063510:   00 00 00 00 00 00 00 00 00 00 00 00 00 00 00 00    ................
    0x10063520:   00 00 00 00 00 00 00 00 00 00 00 00 00 00 00 00    ................
    0x10063530:   00 00 00 00 00 00 00 00 00 00 00 00 00 00 00 00    ................
    0x10063540:   00 00 00 00 00 00 00 00 00 00 00 00 00 00 00 00    ................
    0x10063550:   00 00 00 00 00 00 00 00 00 00 00 00 00 00 00 00    ................
    0x10063560:   00 00 00 00 00 00 00 00 00 00 00 00 00 00 00 00    ................
    0x10063570:   00 00 00 00 00 00 00 00 00 00 00 00 00 00 00 00    ................
    0x10063580:   00 00 00 00 00 00 00 00 00 00 00 00 00 00 00 00    ................
    0x10063590:   00 00 00 00 00 00 00 00 00 00 00 00 00 00 00 00    ................
    0x100635a0:   00 00 00 00 00 00 00 00 00 00 00 00 00 00 00 00    ................
    0x100635b0:   00 00 00 00 00 00 00 00 00 00 00 00 00 00 00 00    ................
    0x100635c0:   00 00 00 00 00 00 00 00 00 00 00 00 00 00 00 00    ................
    0x100635d0:   00 00 00 00 00 00 00 00 00 00 00 00 00 00 00 00    ................
    0x100635e0:   00 00 00 00 00 00 00 00 00 00 00 00 00 00 00 00    ................
    0x100635f0:   00 00 00 00 00 00 00 00 00 00 00 00 00 00 00 00    ................
    0x10063600:   00 00 00 00 00 00 00 00 00 00 00 00 00 00 00 00    ................
    0x10063610:   00 00 00 00 00 00 00 00 00 00 00 00 00 00 00 00    ................
    0x10063620:   00 00 00 00 00 00 00 00 00 00 00 00 00 00 00 00    ................
    0x10063630:   00 00 00 00 00 00 00 00 00 00 00 00 00 00 00 00    ................
    0x10063640:   00 00 00 00 00 00 00 00 00 00 00 00 00 00 00 00    ................
    0x10063650:   00 00 00 00 00 00 00 00 00 00 00 00 00 00 00 00    ................
    0x10063660:   00 00 00 00 00 00 00 00 00 00 00 00 00 00 00 00    ................
    0x10063670:   00 00 00 00 00 00 00 00 00 00 00 00 00 00 00 00    ................
    0x10063680:   00 00 00 00 00 00 00 00 00 00 00 00 00 00 00 00    ................
    0x10063690:   00 00 00 00 00 00 00 00 00 00 00 00 00 00 00 00    ................
    0x100636a0:   00 00 00 00 00 00 00 00 00 00 00 00 00 00 00 00    ................
    0x100636b0:   00 00 00 00 00 00 00 00 00 00 00 00 00 00 00 00    ................
    0x100636c0:   00 00 00 00 00 00 00 00 00 00 00 00 00 00 00 00    ................
    0x100636d0:   00 00 00 00 00 00 00 00 00 00 00 00 00 00 00 00    ................
    0x100636e0:   00 00 00 00 00 00 00 00 00 00 00 00 00 00 00 00    ................
    0x100636f0:   00 00 00 00 00 00 00 00 00 00 00 00 00 00 00 00    ................
    0x10063700:   00 00 00 00 00 00 00 00 00 00 00 00 00 00 00 00    ................
    0x10063710:   00 00 00 00 00 00 00 00 00 00 00 00 00 00 00 00    ................
    0x10063720:   00 00 00 00 00 00 00 00 00 00 00 00 00 00 00 00    ................
    0x10063730:   00 00 00 00 00 00 00 00 00 00 00 00 00 00 00 00    ................
    0x10063740:   00 00 00 00 00 00 00 00 00 00 00 00 00 00 00 00    ................
    0x10063750:   00 00 00 00 00 00 00 00 00 00 00 00 00 00 00 00    ................
    0x10063760:   00 00 00 00 00 00 00 00 00 00 00 00 00 00 00 00    ................
    0x10063770:   00 00 00 00 00 00 00 00 00 00 00 00 00 00 00 00    ................
    0x10063780:   00 00 00 00 00 00 00 00 00 00 00 00 00 00 00 00    ................
    0x10063790:   00 00 00 00 00 00 00 00 00 00 00 00 00 00 00 00    ................
    0x100637a0:   00 00 00 00 00 00 00 00 00 00 00 00 00 00 00 00    ................
    0x100637b0:   00 00 00 00 00 00 00 00 00 00 00 00 00 00 00 00    ................
    0x100637c0:   00 00 00 00 00 00 00 00 00 00 00 00 00 00 00 00    ................
    0x100637d0:   00 00 00 00 00 00 00 00 00 00 00 00 00 00 00 00    ................
    0x100637e0:   00 00 00 00 00 00 00 00 00 00 00 00 00 00 00 00    ................
    0x100637f0:   00 00 00 00 00 00 00 00 00 00 00 00 00 00 00 00    ................
    0x10063800:   00 00 00 00 00 00 00 00 00 00 00 00 00 00 00 00    ................
    0x10063810:   00 00 00 00 00 00 00 00 00 00 00 00 00 00 00 00    ................
    0x10063820:   00 00 00 00 00 00 00 00 00 00 00 00 00 00 00 00    ................
    0x10063830:   00 00 00 00 00 00 00 00 00 00 00 00 00 00 00 00    ................
    0x10063840:   00 00 00 00 00 00 00 00 00 00 00 00 00 00 00 00    ................
    0x10063850:   00 00 00 00 00 00 00 00 00 00 00 00 00 00 00 00    ................
    0x10063860:   00 00 00 00 00 00 00 00 00 00 00 00 00 00 00 00    ................
    0x10063870:   00 00 00 00 00 00 00 00 00 00 00 00 00 00 00 00    ................
    0x10063880:   00 00 00 00 00 00 00 00 00 00 00 00 00 00 00 00    ................
    0x10063890:   00 00 00 00 00 00 00 00 00 00 00 00 00 00 00 00    ................
    0x100638a0:   00 00 00 00 00 00 00 00 00 00 00 00 00 00 00 00    ................
    0x100638b0:   00 00 00 00 00 00 00 00 00 00 00 00 00 00 00 00    ................
    0x100638c0:   00 00 00 00 00 00 00 00 00 00 00 00 00 00 00 00    ................
    0x100638d0:   00 00 00 00 00 00 00 00 00 00 00 00 00 00 00 00    ................
    0x100638e0:   00 00 00 00 00 00 00 00 00 00 00 00 00 00 00 00    ................
    0x100638f0:   00 00 00 00 00 00 00 00 00 00 00 00 00 00 00 00    ................
    0x10063900:   00 00 00 00 00 00 00 00 00 00 00 00 00 00 00 00    ................
    0x10063910:   00 00 00 00 00 00 00 00 00 00 00 00 00 00 00 00    ................
    0x10063920:   00 00 00 00 00 00 00 00 00 00 00 00 00 00 00 00    ................
    0x10063930:   00 00 00 00 00 00 00 00 00 00 00 00 00 00 00 00    ................
    0x10063940:   00 00 00 00 00 00 00 00 00 00 00 00 00 00 00 00    ................
    0x10063950:   00 00 00 00 00 00 00 00 00 00 00 00 00 00 00 00    ................
    0x10063960:   00 00 00 00 00 00 00 00 00 00 00 00 00 00 00 00    ................
    0x10063970:   00 00 00 00 00 00 00 00 00 00 00 00 00 00 00 00    ................
    0x10063980:   00 00 00 00 00 00 00 00 00 00 00 00 00 00 00 00    ................
    0x10063990:   00 00 00 00 00 00 00 00 00 00 00 00 00 00 00 00    ................
    0x100639a0:   00 00 00 00 00 00 00 00 00 00 00 00 00 00 00 00    ................
    0x100639b0:   00 00 00 00 00 00 00 00 00 00 00 00 00 00 00 00    ................
    0x100639c0:   00 00 00 00 00 00 00 00 00 00 00 00 00 00 00 00    ................
    0x100639d0:   00 00 00 00 00 00 00 00 00 00 00 00 00 00 00 00    ................
    0x100639e0:   00 00 00 00 00 00 00 00 00 00 00 00 00 00 00 00    ................
    0x100639f0:   00 00 00 00 00 00 00 00 00 00 00 00 00 00 00 00    ................
    0x10063a00:   00 00 00 00 00 00 00 00 00 00 00 00 00 00 00 00    ................
    0x10063a10:   00 00 00 00 00 00 00 00 00 00 00 00 00 00 00 00    ................
    0x10063a20:   00 00 00 00 00 00 00 00 00 00 00 00 00 00 00 00    ................
    0x10063a30:   00 00 00 00 00 00 00 00 00 00 00 00 00 00 00 00    ................
    0x10063a40:   00 00 00 00 00 00 00 00 00 00 00 00 00 00 00 00    ................
    0x10063a50:   00 00 00 00 00 00 00 00 00 00 00 00 00 00 00 00    ................
    0x10063a60:   00 00 00 00 00 00 00 00 00 00 00 00 00 00 00 00    ................
    0x10063a70:   00 00 00 00 00 00 00 00 00 00 00 00 00 00 00 00    ................
    0x10063a80:   00 00 00 00 00 00 00 00 00 00 00 00 00 00 00 00    ................
    0x10063a90:   00 00 00 00 00 00 00 00 00 00 00 00 00 00 00 00    ................
    0x10063aa0:   00 00 00 00 00 00 00 00 00 00 00 00 00 00 00 00    ................
    0x10063ab0:   00 00 00 00 00 00 00 00 00 00 00 00 00 00 00 00    ................
    0x10063ac0:   00 00 00 00 00 00 00 00 00 00 00 00 00 00 00 00    ................
    0x10063ad0:   00 00 00 00 00 00 00 00 00 00 00 00 00 00 00 00    ................
    0x10063ae0:   00 00 00 00 00 00 00 00 00 00 00 00 00 00 00 00    ................
    0x10063af0:   00 00 00 00 00 00 00 00 00 00 00 00 00 00 00 00    ................
    0x10063b00:   00 00 00 00 00 00 00 00 00 00 00 00 00 00 00 00    ................
    0x10063b10:   00 00 00 00 00 00 00 00 00 00 00 00 00 00 00 00    ................
    0x10063b20:   00 00 00 00 00 00 00 00 00 00 00 00 00 00 00 00    ................
    0x10063b30:   00 00 00 00 00 00 00 00 00 00 00 00 00 00 00 00    ................
    0x10063b40:   00 00 00 00 00 00 00 00 00 00 00 00 00 00 00 00    ................
    0x10063b50:   00 00 00 00 00 00 00 00 00 00 00 00 00 00 00 00    ................
    0x10063b60:   00 00 00 00 00 00 00 00 00 00 00 00 00 00 00 00    ................
    0x10063b70:   00 00 00 00 00 00 00 00 00 00 00 00 00 00 00 00    ................
    0x10063b80:   00 00 00 00 00 00 00 00 00 00 00 00 00 00 00 00    ................
    0x10063b90:   00 00 00 00 00 00 00 00 00 00 00 00 00 00 00 00    ................
    0x10063ba0:   00 00 00 00 00 00 00 00 00 00 00 00 00 00 00 00    ................
    0x10063bb0:   00 00 00 00 00 00 00 00 00 00 00 00 00 00 00 00    ................
    0x10063bc0:   00 00 00 00 00 00 00 00 00 00 00 00 00 00 00 00    ................
    0x10063bd0:   00 00 00 00 00 00 00 00 00 00 00 00 00 00 00 00    ................
    0x10063be0:   00 00 00 00 00 00 00 00 00 00 00 00 00 00 00 00    ................
    0x10063bf0:   00 00 00 00 00 00 00 00 00 00 00 00 00 00 00 00    ................
    0x10063c00:   00 00 00 00 00 00 00 00 00 00 00 00 00 00 00 00    ................
    0x10063c10:   00 00 00 00 00 00 00 00 00 00 00 00 00 00 00 00    ................
    0x10063c20:   00 00 00 00 00 00 00 00 00 00 00 00 00 00 00 00    ................
    0x10063c30:   00 00 00 00 00 00 00 00 00 00 00 00 00 00 00 00    ................
    0x10063c40:   00 00 00 00 00 00 00 00 00 00 00 00 00 00 00 00    ................
    0x10063c50:   00 00 00 00 00 00 00 00 00 00 00 00 00 00 00 00    ................
    0x10063c60:   00 00 00 00 00 00 00 00 00 00 00 00 00 00 00 00    ................
    0x10063c70:   00 00 00 00 00 00 00 00 00 00 00 00 00 00 00 00    ................
    0x10063c80:   00 00 00 00 00 00 00 00 00 00 00 00 00 00 00 00    ................
    0x10063c90:   00 00 00 00 00 00 00 00 00 00 00 00 00 00 00 00    ................
    0x10063ca0:   00 00 00 00 00 00 00 00 00 00 00 00 00 00 00 00    ................
    0x10063cb0:   00 00 00 00 00 00 00 00 00 00 00 00 00 00 00 00    ................
    0x10063cc0:   00 00 00 00 00 00 00 00 00 00 00 00 00 00 00 00    ................
    0x10063cd0:   00 00 00 00 00 00 00 00 00 00 00 00 00 00 00 00    ................
    0x10063ce0:   00 00 00 00 00 00 00 00 00 00 00 00 00 00 00 00    ................
    0x10063cf0:   00 00 00 00 00 00 00 00 00 00 00 00 00 00 00 00    ................
    0x10063d00:   00 00 00 00 00 00 00 00 00 00 00 00 00 00 00 00    ................
    0x10063d10:   00 00 00 00 00 00 00 00 00 00 00 00 00 00 00 00    ................
    0x10063d20:   00 00 00 00 00 00 00 00 00 00 00 00 00 00 00 00    ................
    0x10063d30:   00 00 00 00 00 00 00 00 00 00 00 00 00 00 00 00    ................
    0x10063d40:   00 00 00 00 00 00 00 00 00 00 00 00 00 00 00 00    ................
    0x10063d50:   00 00 00 00 00 00 00 00 00 00 00 00 00 00 00 00    ................
    0x10063d60:   00 00 00 00 00 00 00 00 00 00 00 00 00 00 00 00    ................
    0x10063d70:   00 00 00 00 00 00 00 00 00 00 00 00 00 00 00 00    ................
    0x10063d80:   00 00 00 00 00 00 00 00 00 00 00 00 00 00 00 00    ................
    0x10063d90:   00 00 00 00 00 00 00 00 00 00 00 00 00 00 00 00    ................
    0x10063da0:   00 00 00 00 00 00 00 00 00 00 00 00 00 00 00 00    ................
    0x10063db0:   00 00 00 00 00 00 00 00 00 00 00 00 00 00 00 00    ................
    0x10063dc0:   00 00 00 00 00 00 00 00 00 00 00 00 00 00 00 00    ................
    0x10063dd0:   00 00 00 00 00 00 00 00 00 00 00 00 00 00 00 00    ................
    0x10063de0:   00 00 00 00 00 00 00 00 00 00 00 00 00 00 00 00    ................
    0x10063df0:   00 00 00 00 00 00 00 00 00 00 00 00 00 00 00 00    ................
    0x10063e00:   00 00 00 00 00 00 00 00 00 00 00 00 00 00 00 00    ................
    0x10063e10:   00 00 00 00 00 00 00 00 00 00 00 00 00 00 00 00    ................
    0x10063e20:   00 00 00 00 00 00 00 00 00 00 00 00 00 00 00 00    ................
    0x10063e30:   00 00 00 00 00 00 00 00 00 00 00 00 00 00 00 00    ................
    0x10063e40:   00 00 00 00 00 00 00 00 00 00 00 00 00 00 00 00    ................
    0x10063e50:   00 00 00 00 00 00 00 00 00 00 00 00 00 00 00 00    ................
    0x10063e60:   00 00 00 00 00 00 00 00 00 00 00 00 00 00 00 00    ................
    0x10063e70:   00 00 00 00 00 00 00 00 00 00 00 00 00 00 00 00    ................
    0x10063e80:   00 00 00 00 00 00 00 00 00 00 00 00 00 00 00 00    ................
    0x10063e90:   00 00 00 00 00 00 00 00 00 00 00 00 00 00 00 00    ................
    0x10063ea0:   00 00 00 00 00 00 00 00 00 00 00 00 00 00 00 00    ................
    0x10063eb0:   00 00 00 00 00 00 00 00 00 00 00 00 00 00 00 00    ................
    0x10063ec0:   00 00 00 00 00 00 00 00 00 00 00 00 00 00 00 00    ................
    0x10063ed0:   00 00 00 00 00 00 00 00 00 00 00 00 00 00 00 00    ................
    0x10063ee0:   00 00 00 00 00 00 00 00 00 00 00 00 00 00 00 00    ................
    0x10063ef0:   00 00 00 00 00 00 00 00 00 00 00 00 00 00 00 00    ................
    0x10063f00:   00 00 00 00 00 00 00 00 00 00 00 00 00 00 00 00    ................
    0x10063f10:   00 00 00 00 00 00 00 00 00 00 00 00 00 00 00 00    ................
    0x10063f20:   00 00 00 00 00 00 00 00 00 00 00 00 00 00 00 00    ................
    0x10063f30:   00 00 00 00 00 00 00 00 00 00 00 00 00 00 00 00    ................
    0x10063f40:   00 00 00 00 00 00 00 00 00 00 00 00 00 00 00 00    ................
    0x10063f50:   00 00 00 00 00 00 00 00 00 00 00 00 00 00 00 00    ................
    0x10063f60:   00 00 00 00 00 00 00 00 00 00 00 00 00 00 00 00    ................
    0x10063f70:   00 00 00 00 00 00 00 00 00 00 00 00 00 00 00 00    ................
    0x10063f80:   00 00 00 00 00 00 00 00 00 00 00 00 00 00 00 00    ................
    0x10063f90:   00 00 00 00 00 00 00 00 00 00 00 00 00 00 00 00    ................
    0x10063fa0:   00 00 00 00 00 00 00 00 00 00 00 00 00 00 00 00    ................
    0x10063fb0:   00 00 00 00 00 00 00 00 00 00 00 00 00 00 00 00    ................
    0x10063fc0:   00 00 00 00 00 00 00 00 00 00 00 00 00 00 00 00    ................
    0x10063fd0:   00 00 00 00 00 00 00 00 00 00 00 00 00 00 00 00    ................
    0x10063fe0:   00 00 00 00 00 00 00 00 00 00 00 00 00 00 00 00    ................
    0x10063ff0:   00 00 00 00 00 00 00 00 00 00 00 00 00 00 00 00    ................
    0x10064000:   00 00 00 00 00 00 00 00 00 00 00 00 00 00 00 00    ................
    0x10064010:   00 00 00 00 00 00 00 00 00 00 00 00 00 00 00 00    ................
    0x10064020:   00 00 00 00 00 00 00 00 00 00 00 00 00 00 00 00    ................
    0x10064030:   00 00 00 00 00 00 00 00 00 00 00 00 00 00 00 00    ................
    0x10064040:   00 00 00 00 00 00 00 00 00 00 00 00 00 00 00 00    ................
    0x10064050:   00 00 00 00 00 00 00 00 00 00 00 00 00 00 00 00    ................
    0x10064060:   00 00 00 00 00 00 00 00 00 00 00 00 00 00 00 00    ................
    0x10064070:   00 00 00 00 00 00 00 00 00 00 00 00 00 00 00 00    ................
    0x10064080:   00 00 00 00 00 00 00 00 00 00 00 00 00 00 00 00    ................
    0x10064090:   00 00 00 00 00 00 00 00 00 00 00 00 00 00 00 00    ................
    0x100640a0:   00 00 00 00 00 00 00 00 00 00 00 00 00 00 00 00    ................
    0x100640b0:   00 00 00 00 00 00 00 00 00 00 00 00 00 00 00 00    ................
    0x100640c0:   00 00 00 00 00 00 00 00 00 00 00 00 00 00 00 00    ................
    0x100640d0:   00 00 00 00 00 00 00 00 00 00 00 00 00 00 00 00    ................
    0x100640e0:   00 00 00 00 00 00 00 00 00 00 00 00 00 00 00 00    ................
    0x100640f0:   00 00 00 00 00 00 00 00 00 00 00 00 00 00 00 00    ................
    0x10064100:   00 00 00 00 00 00 00 00 00 00 00 00 00 00 00 00    ................
    0x10064110:   00 00 00 00 00 00 00 00 00 00 00 00 00 00 00 00    ................
    0x10064120:   00 00 00 00 00 00 00 00 00 00 00 00 00 00 00 00    ................
    0x10064130:   00 00 00 00 00 00 00 00 00 00 00 00 00 00 00 00    ................
    0x10064140:   00 00 00 00 00 00 00 00 00 00 00 00 00 00 00 00    ................
    0x10064150:   00 00 00 00 00 00 00 00 00 00 00 00 00 00 00 00    ................
    0x10064160:   00 00 00 00 00 00 00 00 00 00 00 00 00 00 00 00    ................
    0x10064170:   00 00 00 00 00 00 00 00 00 00 00 00 00 00 00 00    ................
    0x10064180:   00 00 00 00 00 00 00 00 00 00 00 00 00 00 00 00    ................
    0x10064190:   00 00 00 00 00 00 00 00 00 00 00 00 00 00 00 00    ................
    0x100641a0:   00 00 00 00 00 00 00 00 00 00 00 00 00 00 00 00    ................
    0x100641b0:   00 00 00 00 00 00 00 00 00 00 00 00 00 00 00 00    ................
    0x100641c0:   00 00 00 00 00 00 00 00 00 00 00 00 00 00 00 00    ................
    0x100641d0:   00 00 00 00 00 00 00 00 00 00 00 00 00 00 00 00    ................
    0x100641e0:   00 00 00 00 00 00 00 00 00 00 00 00 00 00 00 00    ................
    0x100641f0:   00 00 00 00 00 00 00 00 00 00 00 00 00 00 00 00    ................
    0x10064200:   00 00 00 00 00 00 00 00 00 00 00 00 00 00 00 00    ................
    0x10064210:   00 00 00 00 00 00 00 00 00 00 00 00 00 00 00 00    ................
    0x10064220:   00 00 00 00 00 00 00 00 00 00 00 00 00 00 00 00    ................
    0x10064230:   00 00 00 00 00 00 00 00 00 00 00 00 00 00 00 00    ................
    0x10064240:   00 00 00 00 00 00 00 00 00 00 00 00 00 00 00 00    ................
    0x10064250:   00 00 00 00 00 00 00 00 00 00 00 00 00 00 00 00    ................
    0x10064260:   00 00 00 00 00 00 00 00 00 00 00 00 00 00 00 00    ................
    0x10064270:   00 00 00 00 00 00 00 00 00 00 00 00 00 00 00 00    ................
    0x10064280:   00 00 00 00 00 00 00 00 00 00 00 00 00 00 00 00    ................
    0x10064290:   00 00 00 00 00 00 00 00 00 00 00 00 00 00 00 00    ................
    0x100642a0:   00 00 00 00 00 00 00 00 00 00 00 00 00 00 00 00    ................
    0x100642b0:   00 00 00 00 00 00 00 00 00 00 00 00 00 00 00 00    ................
    0x100642c0:   00 00 00 00 00 00 00 00 00 00 00 00 00 00 00 00    ................
    0x100642d0:   00 00 00 00 00 00 00 00 00 00 00 00 00 00 00 00    ................
    0x100642e0:   00 00 00 00 00 00 00 00 00 00 00 00 00 00 00 00    ................
    0x100642f0:   00 00 00 00 00 00 00 00 00 00 00 00 00 00 00 00    ................
    0x10064300:   00 00 00 00 00 00 00 00 00 00 00 00 00 00 00 00    ................
    0x10064310:   00 00 00 00 00 00 00 00 00 00 00 00 00 00 00 00    ................
    0x10064320:   00 00 00 00 00 00 00 00 00 00 00 00 00 00 00 00    ................
    0x10064330:   00 00 00 00 00 00 00 00 00 00 00 00 00 00 00 00    ................
    0x10064340:   00 00 00 00 00 00 00 00 00 00 00 00 00 00 00 00    ................
    0x10064350:   00 00 00 00 00 00 00 00 00 00 00 00 00 00 00 00    ................
    0x10064360:   00 00 00 00 00 00 00 00 00 00 00 00 00 00 00 00    ................
    0x10064370:   00 00 00 00 00 00 00 00 00 00 00 00 00 00 00 00    ................
    0x10064380:   00 00 00 00 00 00 00 00 00 00 00 00 00 00 00 00    ................
    0x10064390:   00 00 00 00 00 00 00 00 00 00 00 00 00 00 00 00    ................
    0x100643a0:   00 00 00 00 00 00 00 00 00 00 00 00 00 00 00 00    ................
    0x100643b0:   00 00 00 00 00 00 00 00 00 00 00 00 00 00 00 00    ................
    0x100643c0:   00 00 00 00 00 00 00 00 00 00 00 00 00 00 00 00    ................
    0x100643d0:   00 00 00 00 00 00 00 00 00 00 00 00 00 00 00 00    ................
    0x100643e0:   00 00 00 00 00 00 00 00 00 00 00 00 00 00 00 00    ................
    0x100643f0:   00 00 00 00 00 00 00 00 00 00 00 00 00 00 00 00    ................
    0x10064400:   00 00 00 00 00 00 00 00 00 00 00 00 00 00 00 00    ................
    0x10064410:   00 00 00 00 00 00 00 00 00 00 00 00 00 00 00 00    ................
    0x10064420:   00 00 00 00 00 00 00 00 00 00 00 00 00 00 00 00    ................
    0x10064430:   00 00 00 00 00 00 00 00 00 00 00 00 00 00 00 00    ................
    0x10064440:   00 00 00 00 00 00 00 00 00 00 00 00 00 00 00 00    ................
    0x10064450:   00 00 00 00 00 00 00 00 00 00 00 00 00 00 00 00    ................
    0x10064460:   00 00 00 00 00 00 00 00 00 00 00 00 00 00 00 00    ................
    0x10064470:   00 00 00 00 00 00 00 00 00 00 00 00 00 00 00 00    ................
    0x10064480:   00 00 00 00 00 00 00 00 00 00 00 00 00 00 00 00    ................
    0x10064490:   00 00 00 00 00 00 00 00 00 00 00 00 00 00 00 00    ................
    0x100644a0:   00 00 00 00 00 00 00 00 00 00 00 00 00 00 00 00    ................
    0x100644b0:   00 00 00 00 00 00 00 00 00 00 00 00 00 00 00 00    ................
    0x100644c0:   00 00 00 00 00 00 00 00 00 00 00 00 00 00 00 00    ................
    0x100644d0:   00 00 00 00 00 00 00 00 00 00 00 00 00 00 00 00    ................
    0x100644e0:   00 00 00 00 00 00 00 00 00 00 00 00 00 00 00 00    ................
    0x100644f0:   00 00 00 00 00 00 00 00 00 00 00 00 00 00 00 00    ................
    0x10064500:   00 00 00 00 00 00 00 00 00 00 00 00 00 00 00 00    ................
    0x10064510:   00 00 00 00 00 00 00 00 00 00 00 00 00 00 00 00    ................
    0x10064520:   00 00 00 00 00 00 00 00 00 00 00 00 00 00 00 00    ................
    0x10064530:   00 00 00 00 00 00 00 00 00 00 00 00 00 00 00 00    ................
    0x10064540:   00 00 00 00 00 00 00 00 00 00 00 00 00 00 00 00    ................
    0x10064550:   00 00 00 00 00 00 00 00 00 00 00 00 00 00 00 00    ................
    0x10064560:   00 00 00 00 00 00 00 00 00 00 00 00 00 00 00 00    ................
    0x10064570:   00 00 00 00 00 00 00 00 00 00 00 00 00 00 00 00    ................
    0x10064580:   00 00 00 00 00 00 00 00 00 00 00 00 00 00 00 00    ................
    0x10064590:   00 00 00 00 00 00 00 00 00 00 00 00 00 00 00 00    ................
    0x100645a0:   00 00 00 00 00 00 00 00 00 00 00 00 00 00 00 00    ................
    0x100645b0:   00 00 00 00 00 00 00 00 00 00 00 00 00 00 00 00    ................
    0x100645c0:   00 00 00 00 00 00 00 00 00 00 00 00 00 00 00 00    ................
    0x100645d0:   00 00 00 00 00 00 00 00 00 00 00 00 00 00 00 00    ................
    0x100645e0:   00 00 00 00 00 00 00 00 00 00 00 00 00 00 00 00    ................
    0x100645f0:   00 00 00 00 00 00 00 00 00 00 00 00 00 00 00 00    ................
    0x10064600:   00 00 00 00 00 00 00 00 00 00 00 00 00 00 00 00    ................
    0x10064610:   00 00 00 00 00 00 00 00 00 00 00 00 00 00 00 00    ................
    0x10064620:   00 00 00 00 00 00 00 00 00 00 00 00 00 00 00 00    ................
    0x10064630:   00 00 00 00 00 00 00 00 00 00 00 00 00 00 00 00    ................
    0x10064640:   00 00 00 00 00 00 00 00 00 00 00 00 00 00 00 00    ................
    0x10064650:   00 00 00 00 00 00 00 00 00 00 00 00 00 00 00 00    ................
    0x10064660:   00 00 00 00 00 00 00 00 00 00 00 00 00 00 00 00    ................
    0x10064670:   00 00 00 00 00 00 00 00 00 00 00 00 00 00 00 00    ................
    0x10064680:   00 00 00 00 00 00 00 00 00 00 00 00 00 00 00 00    ................
    0x10064690:   00 00 00 00 00 00 00 00 00 00 00 00 00 00 00 00    ................
    0x100646a0:   00 00 00 00 00 00 00 00 00 00 00 00 00 00 00 00    ................
    0x100646b0:   00 00 00 00 00 00 00 00 00 00 00 00 00 00 00 00    ................
    0x100646c0:   00 00 00 00 00 00 00 00 00 00 00 00 00 00 00 00    ................
    0x100646d0:   00 00 00 00 00 00 00 00 00 00 00 00 00 00 00 00    ................
    0x100646e0:   00 00 00 00 00 00 00 00 00 00 00 00 00 00 00 00    ................
    0x100646f0:   00 00 00 00 00 00 00 00 00 00 00 00 00 00 00 00    ................
    0x10064700:   00 00 00 00 00 00 00 00 00 00 00 00 00 00 00 00    ................
    0x10064710:   00 00 00 00 00 00 00 00 00 00 00 00 00 00 00 00    ................
    0x10064720:   00 00 00 00 00 00 00 00 00 00 00 00 00 00 00 00    ................
    0x10064730:   00 00 00 00 00 00 00 00 00 00 00 00 00 00 00 00    ................
    0x10064740:   00 00 00 00 00 00 00 00 00 00 00 00 00 00 00 00    ................
    0x10064750:   00 00 00 00 00 00 00 00 00 00 00 00 00 00 00 00    ................
    0x10064760:   00 00 00 00 00 00 00 00 00 00 00 00 00 00 00 00    ................
    0x10064770:   00 00 00 00 00 00 00 00 00 00 00 00 00 00 00 00    ................
    0x10064780:   00 00 00 00 00 00 00 00 00 00 00 00 00 00 00 00    ................
    0x10064790:   00 00 00 00 00 00 00 00 00 00 00 00 00 00 00 00    ................
    0x100647a0:   00 00 00 00 00 00 00 00 00 00 00 00 00 00 00 00    ................
    0x100647b0:   00 00 00 00 00 00 00 00 00 00 00 00 00 00 00 00    ................
    0x100647c0:   00 00 00 00 00 00 00 00 00 00 00 00 00 00 00 00    ................
    0x100647d0:   00 00 00 00 00 00 00 00 00 00 00 00 00 00 00 00    ................
    0x100647e0:   00 00 00 00 00 00 00 00 00 00 00 00 00 00 00 00    ................
    0x100647f0:   00 00 00 00 00 00 00 00 00 00 00 00 00 00 00 00    ................
    0x10064800:   00 00 00 00 00 00 00 00 00 00 00 00 00 00 00 00    ................
    0x10064810:   00 00 00 00 00 00 00 00 00 00 00 00 00 00 00 00    ................
    0x10064820:   00 00 00 00 00 00 00 00 00 00 00 00 00 00 00 00    ................
    0x10064830:   00 00 00 00 00 00 00 00 00 00 00 00 00 00 00 00    ................
    0x10064840:   00 00 00 00 00 00 00 00 00 00 00 00 00 00 00 00    ................
    0x10064850:   00 00 00 00 00 00 00 00 00 00 00 00 00 00 00 00    ................
    0x10064860:   00 00 00 00 00 00 00 00 00 00 00 00 00 00 00 00    ................
    0x10064870:   00 00 00 00 00 00 00 00 00 00 00 00 00 00 00 00    ................
    0x10064880:   00 00 00 00 00 00 00 00 00 00 00 00 00 00 00 00    ................
    0x10064890:   00 00 00 00 00 00 00 00 00 00 00 00 00 00 00 00    ................
    0x100648a0:   00 00 00 00 00 00 00 00 00 00 00 00 00 00 00 00    ................
    0x100648b0:   00 00 00 00 00 00 00 00 00 00 00 00 00 00 00 00    ................
    0x100648c0:   00 00 00 00 00 00 00 00 00 00 00 00 00 00 00 00    ................
    0x100648d0:   00 00 00 00 00 00 00 00 00 00 00 00 00 00 00 00    ................
    0x100648e0:   00 00 00 00 00 00 00 00 00 00 00 00 00 00 00 00    ................
    0x100648f0:   00 00 00 00 00 00 00 00 00 00 00 00 00 00 00 00    ................
    0x10064900:   00 00 00 00 00 00 00 00 00 00 00 00 00 00 00 00    ................
    0x10064910:   00 00 00 00 00 00 00 00 00 00 00 00 00 00 00 00    ................
    0x10064920:   00 00 00 00 00 00 00 00 00 00 00 00 00 00 00 00    ................
    0x10064930:   00 00 00 00 00 00 00 00 00 00 00 00 00 00 00 00    ................
    0x10064940:   00 00 00 00 00 00 00 00 00 00 00 00 00 00 00 00    ................
    0x10064950:   00 00 00 00 00 00 00 00 00 00 00 00 00 00 00 00    ................
    0x10064960:   00 00 00 00 00 00 00 00 00 00 00 00 00 00 00 00    ................
    0x10064970:   00 00 00 00 00 00 00 00 00 00 00 00 00 00 00 00    ................
    0x10064980:   00 00 00 00 00 00 00 00 00 00 00 00 00 00 00 00    ................
    0x10064990:   00 00 00 00 00 00 00 00 00 00 00 00 00 00 00 00    ................
    0x100649a0:   00 00 00 00 00 00 00 00 00 00 00 00 00 00 00 00    ................
    0x100649b0:   00 00 00 00 00 00 00 00 00 00 00 00 00 00 00 00    ................
    0x100649c0:   00 00 00 00 00 00 00 00 00 00 00 00 00 00 00 00    ................
    0x100649d0:   00 00 00 00 00 00 00 00 00 00 00 00 00 00 00 00    ................
    0x100649e0:   00 00 00 00 00 00 00 00 00 00 00 00 00 00 00 00    ................
    0x100649f0:   00 00 00 00 00 00 00 00 00 00 00 00 00 00 00 00    ................
    0x10064a00:   00 00 00 00 00 00 00 00 00 00 00 00 00 00 00 00    ................
    0x10064a10:   00 00 00 00 00 00 00 00 00 00 00 00 00 00 00 00    ................
    0x10064a20:   00 00 00 00 00 00 00 00 00 00 00 00 00 00 00 00    ................
    0x10064a30:   00 00 00 00 00 00 00 00 00 00 00 00 00 00 00 00    ................
    0x10064a40:   00 00 00 00 00 00 00 00 00 00 00 00 00 00 00 00    ................
    0x10064a50:   00 00 00 00 00 00 00 00 00 00 00 00 00 00 00 00    ................
    0x10064a60:   00 00 00 00 00 00 00 00 00 00 00 00 00 00 00 00    ................
    0x10064a70:   00 00 00 00 00 00 00 00 00 00 00 00 00 00 00 00    ................
    0x10064a80:   00 00 00 00 00 00 00 00 00 00 00 00 00 00 00 00    ................
    0x10064a90:   00 00 00 00 00 00 00 00 00 00 00 00 00 00 00 00    ................
    0x10064aa0:   00 00 00 00 00 00 00 00 00 00 00 00 00 00 00 00    ................
    0x10064ab0:   00 00 00 00 00 00 00 00 00 00 00 00 00 00 00 00    ................
    0x10064ac0:   00 00 00 00 00 00 00 00 00 00 00 00 00 00 00 00    ................
    0x10064ad0:   00 00 00 00 00 00 00 00 00 00 00 00 00 00 00 00    ................
    0x10064ae0:   00 00 00 00 00 00 00 00 00 00 00 00 00 00 00 00    ................
    0x10064af0:   00 00 00 00 00 00 00 00 00 00 00 00 00 00 00 00    ................
    0x10064b00:   00 00 00 00 00 00 00 00 00 00 00 00 00 00 00 00    ................
    0x10064b10:   00 00 00 00 00 00 00 00 00 00 00 00 00 00 00 00    ................
    0x10064b20:   00 00 00 00 00 00 00 00 00 00 00 00 00 00 00 00    ................
    0x10064b30:   00 00 00 00 00 00 00 00 00 00 00 00 00 00 00 00    ................
    0x10064b40:   00 00 00 00 00 00 00 00 00 00 00 00 00 00 00 00    ................
    0x10064b50:   00 00 00 00 00 00 00 00 00 00 00 00 00 00 00 00    ................
    0x10064b60:   00 00 00 00 00 00 00 00 00 00 00 00 00 00 00 00    ................
    0x10064b70:   00 00 00 00 00 00 00 00 00 00 00 00 00 00 00 00    ................
    0x10064b80:   00 00 00 00 00 00 00 00 00 00 00 00 00 00 00 00    ................
    0x10064b90:   00 00 00 00 00 00 00 00 00 00 00 00 00 00 00 00    ................
    0x10064ba0:   00 00 00 00 00 00 00 00 00 00 00 00 00 00 00 00    ................
    0x10064bb0:   00 00 00 00 00 00 00 00 00 00 00 00 00 00 00 00    ................
    0x10064bc0:   00 00 00 00 00 00 00 00 00 00 00 00 00 00 00 00    ................
    0x10064bd0:   00 00 00 00 00 00 00 00 00 00 00 00 00 00 00 00    ................
    0x10064be0:   00 00 00 00 00 00 00 00 00 00 00 00 00 00 00 00    ................
    0x10064bf0:   00 00 00 00 00 00 00 00 00 00 00 00 00 00 00 00    ................
    0x10064c00:   00 00 00 00 00 00 00 00 00 00 00 00 00 00 00 00    ................
    0x10064c10:   00 00 00 00 00 00 00 00 00 00 00 00 00 00 00 00    ................
    0x10064c20:   00 00 00 00 00 00 00 00 00 00 00 00 00 00 00 00    ................
    0x10064c30:   00 00 00 00 00 00 00 00 00 00 00 00 00 00 00 00    ................
    0x10064c40:   00 00 00 00 00 00 00 00 00 00 00 00 00 00 00 00    ................
    0x10064c50:   00 00 00 00 00 00 00 00 00 00 00 00 00 00 00 00    ................
    0x10064c60:   00 00 00 00 00 00 00 00 00 00 00 00 00 00 00 00    ................
    0x10064c70:   00 00 00 00 00 00 00 00 00 00 00 00 00 00 00 00    ................
    0x10064c80:   00 00 00 00 00 00 00 00 00 00 00 00 00 00 00 00    ................
    0x10064c90:   00 00 00 00 00 00 00 00 00 00 00 00 00 00 00 00    ................
    0x10064ca0:   00 00 00 00 00 00 00 00 00 00 00 00 00 00 00 00    ................
    0x10064cb0:   00 00 00 00 00 00 00 00 00 00 00 00 00 00 00 00    ................
    0x10064cc0:   00 00 00 00 00 00 00 00 00 00 00 00 00 00 00 00    ................
    0x10064cd0:   00 00 00 00 00 00 00 00 00 00 00 00 00 00 00 00    ................
    0x10064ce0:   00 00 00 00 00 00 00 00 00 00 00 00 00 00 00 00    ................
    0x10064cf0:   00 00 00 00 00 00 00 00 00 00 00 00 00 00 00 00    ................
    0x10064d00:   00 00 00 00 00 00 00 00 00 00 00 00 00 00 00 00    ................
    0x10064d10:   00 00 00 00 00 00 00 00 00 00 00 00 00 00 00 00    ................
    0x10064d20:   00 00 00 00 00 00 00 00 00 00 00 00 00 00 00 00    ................
    0x10064d30:   00 00 00 00 00 00 00 00 00 00 00 00 00 00 00 00    ................
    0x10064d40:   00 00 00 00 00 00 00 00 00 00 00 00 00 00 00 00    ................
    0x10064d50:   00 00 00 00 00 00 00 00 00 00 00 00 00 00 00 00    ................
    0x10064d60:   00 00 00 00 00 00 00 00 00 00 00 00 00 00 00 00    ................
    0x10064d70:   00 00 00 00 00 00 00 00 00 00 00 00 00 00 00 00    ................
    0x10064d80:   00 00 00 00 00 00 00 00 00 00 00 00 00 00 00 00    ................
    0x10064d90:   00 00 00 00 00 00 00 00 00 00 00 00 00 00 00 00    ................
    0x10064da0:   00 00 00 00 00 00 00 00 00 00 00 00 00 00 00 00    ................
    0x10064db0:   00 00 00 00 00 00 00 00 00 00 00 00 00 00 00 00    ................
    0x10064dc0:   00 00 00 00 00 00 00 00 00 00 00 00 00 00 00 00    ................
    0x10064dd0:   00 00 00 00 00 00 00 00 00 00 00 00 00 00 00 00    ................
    0x10064de0:   00 00 00 00 00 00 00 00 00 00 00 00 00 00 00 00    ................
    0x10064df0:   00 00 00 00 00 00 00 00 00 00 00 00 00 00 00 00    ................
    0x10064e00:   00 00 00 00 00 00 00 00 00 00 00 00 00 00 00 00    ................
    0x10064e10:   00 00 00 00 00 00 00 00 00 00 00 00 00 00 00 00    ................
    0x10064e20:   00 00 00 00 00 00 00 00 00 00 00 00 00 00 00 00    ................
    0x10064e30:   00 00 00 00 00 00 00 00 00 00 00 00 00 00 00 00    ................
    0x10064e40:   00 00 00 00 00 00 00 00 00 00 00 00 00 00 00 00    ................
    0x10064e50:   00 00 00 00 00 00 00 00 00 00 00 00 00 00 00 00    ................
    0x10064e60:   00 00 00 00 00 00 00 00 00 00 00 00 00 00 00 00    ................
    0x10064e70:   00 00 00 00 00 00 00 00 00 00 00 00 00 00 00 00    ................
    0x10064e80:   00 00 00 00 00 00 00 00 00 00 00 00 00 00 00 00    ................
    0x10064e90:   00 00 00 00 00 00 00 00 00 00 00 00 00 00 00 00    ................
    0x10064ea0:   00 00 00 00 00 00 00 00 00 00 00 00 00 00 00 00    ................
    0x10064eb0:   00 00 00 00 00 00 00 00 00 00 00 00 00 00 00 00    ................
    0x10064ec0:   00 00 00 00 00 00 00 00 00 00 00 00 00 00 00 00    ................
    0x10064ed0:   00 00 00 00 00 00 00 00 00 00 00 00 00 00 00 00    ................
    0x10064ee0:   00 00 00 00 00 00 00 00 00 00 00 00 00 00 00 00    ................
    0x10064ef0:   00 00 00 00 00 00 00 00 00 00 00 00 00 00 00 00    ................
    0x10064f00:   00 00 00 00 00 00 00 00 00 00 00 00 00 00 00 00    ................
    0x10064f10:   00 00 00 00 00 00 00 00 00 00 00 00 00 00 00 00    ................
    0x10064f20:   00 00 00 00 00 00 00 00 00 00 00 00 00 00 00 00    ................
    0x10064f30:   00 00 00 00 00 00 00 00 00 00 00 00 00 00 00 00    ................
    0x10064f40:   00 00 00 00 00 00 00 00 00 00 00 00 00 00 00 00    ................
    0x10064f50:   00 00 00 00 00 00 00 00 00 00 00 00 00 00 00 00    ................
    0x10064f60:   00 00 00 00 00 00 00 00 00 00 00 00 00 00 00 00    ................
    0x10064f70:   00 00 00 00 00 00 00 00 00 00 00 00 00 00 00 00    ................
    0x10064f80:   00 00 00 00 00 00 00 00 00 00 00 00 00 00 00 00    ................
    0x10064f90:   00 00 00 00 00 00 00 00 00 00 00 00 00 00 00 00    ................
    0x10064fa0:   00 00 00 00 00 00 00 00 00 00 00 00 00 00 00 00    ................
    0x10064fb0:   00 00 00 00 00 00 00 00 00 00 00 00 00 00 00 00    ................
    0x10064fc0:   00 00 00 00 00 00 00 00 00 00 00 00 00 00 00 00    ................
    0x10064fd0:   00 00 00 00 00 00 00 00 00 00 00 00 00 00 00 00    ................
    0x10064fe0:   00 00 00 00 00 00 00 00 00 00 00 00 00 00 00 00    ................
    0x10064ff0:   00 00 00 00 00 00 00 00 00 00 00 00 00 00 00 00    ................
    0x10065000:   00 00 00 00 00 00 00 00 00 00 00 00 00 00 00 00    ................
    0x10065010:   00 00 00 00 00 00 00 00 00 00 00 00 00 00 00 00    ................
    0x10065020:   00 00 00 00 00 00 00 00 00 00 00 00 00 00 00 00    ................
    0x10065030:   00 00 00 00 00 00 00 00 00 00 00 00 00 00 00 00    ................
    0x10065040:   00 00 00 00 00 00 00 00 00 00 00 00 00 00 00 00    ................
    0x10065050:   00 00 00 00 00 00 00 00 00 00 00 00 00 00 00 00    ................
    0x10065060:   00 00 00 00 00 00 00 00 00 00 00 00 00 00 00 00    ................
    0x10065070:   00 00 00 00 00 00 00 00 00 00 00 00 00 00 00 00    ................
    0x10065080:   00 00 00 00 00 00 00 00 00 00 00 00 00 00 00 00    ................
    0x10065090:   00 00 00 00 00 00 00 00 00 00 00 00 00 00 00 00    ................
    0x100650a0:   00 00 00 00 00 00 00 00 00 00 00 00 00 00 00 00    ................
    0x100650b0:   00 00 00 00 00 00 00 00 00 00 00 00 00 00 00 00    ................
    0x100650c0:   00 00 00 00 00 00 00 00 00 00 00 00 00 00 00 00    ................
    0x100650d0:   00 00 00 00 00 00 00 00 00 00 00 00 00 00 00 00    ................
    0x100650e0:   00 00 00 00 00 00 00 00 00 00 00 00 00 00 00 00    ................
    0x100650f0:   00 00 00 00 00 00 00 00 00 00 00 00 00 00 00 00    ................
    0x10065100:   00 00 00 00 00 00 00 00 00 00 00 00 00 00 00 00    ................
    0x10065110:   00 00 00 00 00 00 00 00 00 00 00 00 00 00 00 00    ................
    0x10065120:   00 00 00 00 00 00 00 00 00 00 00 00 00 00 00 00    ................
    0x10065130:   00 00 00 00 00 00 00 00 00 00 00 00 00 00 00 00    ................
    0x10065140:   00 00 00 00 00 00 00 00 00 00 00 00 00 00 00 00    ................
    0x10065150:   00 00 00 00 00 00 00 00 00 00 00 00 00 00 00 00    ................
    0x10065160:   00 00 00 00 00 00 00 00 00 00 00 00 00 00 00 00    ................
    0x10065170:   00 00 00 00 00 00 00 00 00 00 00 00 00 00 00 00    ................
    0x10065180:   00 00 00 00 00 00 00 00 00 00 00 00 00 00 00 00    ................
    0x10065190:   00 00 00 00 00 00 00 00 00 00 00 00 00 00 00 00    ................
    0x100651a0:   00 00 00 00 00 00 00 00 00 00 00 00 00 00 00 00    ................
    0x100651b0:   00 00 00 00 00 00 00 00 00 00 00 00 00 00 00 00    ................
    0x100651c0:   00 00 00 00 00 00 00 00 00 00 00 00 00 00 00 00    ................
    0x100651d0:   00 00 00 00 00 00 00 00 00 00 00 00 00 00 00 00    ................
    0x100651e0:   00 00 00 00 00 00 00 00 00 00 00 00 00 00 00 00    ................
    0x100651f0:   00 00 00 00 00 00 00 00 00 00 00 00 00 00 00 00    ................
    0x10065200:   00 00 00 00 00 00 00 00 00 00 00 00 00 00 00 00    ................
    0x10065210:   00 00 00 00 00 00 00 00 00 00 00 00 00 00 00 00    ................
    0x10065220:   00 00 00 00 00 00 00 00 00 00 00 00 00 00 00 00    ................
    0x10065230:   00 00 00 00 00 00 00 00 00 00 00 00 00 00 00 00    ................
    0x10065240:   00 00 00 00 00 00 00 00 00 00 00 00 00 00 00 00    ................
    0x10065250:   00 00 00 00 00 00 00 00 00 00 00 00 00 00 00 00    ................
    0x10065260:   00 00 00 00 00 00 00 00 00 00 00 00 00 00 00 00    ................
    0x10065270:   00 00 00 00 00 00 00 00 00 00 00 00 00 00 00 00    ................
    0x10065280:   00 00 00 00 00 00 00 00 00 00 00 00 00 00 00 00    ................
    0x10065290:   00 00 00 00 00 00 00 00 00 00 00 00 00 00 00 00    ................
    0x100652a0:   00 00 00 00 00 00 00 00 00 00 00 00 00 00 00 00    ................
    0x100652b0:   00 00 00 00 00 00 00 00 00 00 00 00 00 00 00 00    ................
    0x100652c0:   00 00 00 00 00 00 00 00 00 00 00 00 00 00 00 00    ................
    0x100652d0:   00 00 00 00 00 00 00 00 00 00 00 00 00 00 00 00    ................
    0x100652e0:   00 00 00 00 00 00 00 00 00 00 00 00 00 00 00 00    ................
    0x100652f0:   00 00 00 00 00 00 00 00 00 00 00 00 00 00 00 00    ................
    0x10065300:   00 00 00 00 00 00 00 00 00 00 00 00 00 00 00 00    ................
    0x10065310:   00 00 00 00 00 00 00 00 00 00 00 00 00 00 00 00    ................
    0x10065320:   00 00 00 00 00 00 00 00 00 00 00 00 00 00 00 00    ................
    0x10065330:   00 00 00 00 00 00 00 00 00 00 00 00 00 00 00 00    ................
    0x10065340:   00 00 00 00 00 00 00 00 00 00 00 00 00 00 00 00    ................
    0x10065350:   00 00 00 00 00 00 00 00 00 00 00 00 00 00 00 00    ................
    0x10065360:   00 00 00 00 00 00 00 00 00 00 00 00 00 00 00 00    ................
    0x10065370:   00 00 00 00 00 00 00 00 00 00 00 00 00 00 00 00    ................
    0x10065380:   00 00 00 00 00 00 00 00 00 00 00 00 00 00 00 00    ................
    0x10065390:   00 00 00 00 00 00 00 00 00 00 00 00 00 00 00 00    ................
    0x100653a0:   00 00 00 00 00 00 00 00 00 00 00 00 00 00 00 00    ................
    0x100653b0:   00 00 00 00 00 00 00 00 00 00 00 00 00 00 00 00    ................
    0x100653c0:   00 00 00 00 00 00 00 00 00 00 00 00 00 00 00 00    ................
    0x100653d0:   00 00 00 00 00 00 00 00 00 00 00 00 00 00 00 00    ................
    0x100653e0:   00 00 00 00 00 00 00 00 00 00 00 00 00 00 00 00    ................
    0x100653f0:   00 00 00 00 00 00 00 00 00 00 00 00 00 00 00 00    ................
    0x10065400:   00 00 00 00 00 00 00 00 00 00 00 00 00 00 00 00    ................
    0x10065410:   00 00 00 00 00 00 00 00 00 00 00 00 00 00 00 00    ................
    0x10065420:   00 00 00 00 00 00 00 00 00 00 00 00 00 00 00 00    ................
    0x10065430:   00 00 00 00 00 00 00 00 00 00 00 00 00 00 00 00    ................
    0x10065440:   00 00 00 00 00 00 00 00 00 00 00 00 00 00 00 00    ................
    0x10065450:   00 00 00 00 00 00 00 00 00 00 00 00 00 00 00 00    ................
    0x10065460:   00 00 00 00 00 00 00 00 00 00 00 00 00 00 00 00    ................
    0x10065470:   00 00 00 00 00 00 00 00 00 00 00 00 00 00 00 00    ................
    0x10065480:   00 00 00 00 00 00 00 00 00 00 00 00 00 00 00 00    ................
    0x10065490:   00 00 00 00 00 00 00 00 00 00 00 00 00 00 00 00    ................
    0x100654a0:   00 00 00 00 00 00 00 00 00 00 00 00 00 00 00 00    ................
    0x100654b0:   00 00 00 00 00 00 00 00 00 00 00 00 00 00 00 00    ................
    0x100654c0:   00 00 00 00 00 00 00 00 00 00 00 00 00 00 00 00    ................
    0x100654d0:   00 00 00 00 00 00 00 00 00 00 00 00 00 00 00 00    ................
    0x100654e0:   00 00 00 00 00 00 00 00 00 00 00 00 00 00 00 00    ................
    0x100654f0:   00 00 00 00 00 00 00 00 00 00 00 00 00 00 00 00    ................
    0x10065500:   00 00 00 00 00 00 00 00 00 00 00 00 00 00 00 00    ................
    0x10065510:   00 00 00 00 00 00 00 00 00 00 00 00 00 00 00 00    ................
    0x10065520:   00 00 00 00 00 00 00 00 00 00 00 00 00 00 00 00    ................
    0x10065530:   00 00 00 00 00 00 00 00 00 00 00 00 00 00 00 00    ................
    0x10065540:   00 00 00 00 00 00 00 00 00 00 00 00 00 00 00 00    ................
    0x10065550:   00 00 00 00 00 00 00 00 00 00 00 00 00 00 00 00    ................
    0x10065560:   00 00 00 00 00 00 00 00 00 00 00 00 00 00 00 00    ................
    0x10065570:   00 00 00 00 00 00 00 00 00 00 00 00 00 00 00 00    ................
    0x10065580:   00 00 00 00 00 00 00 00 00 00 00 00 00 00 00 00    ................
    0x10065590:   00 00 00 00 00 00 00 00 00 00 00 00 00 00 00 00    ................
    0x100655a0:   00 00 00 00 00 00 00 00 00 00 00 00 00 00 00 00    ................
    0x100655b0:   00 00 00 00 00 00 00 00 00 00 00 00 00 00 00 00    ................
    0x100655c0:   00 00 00 00 00 00 00 00 00 00 00 00 00 00 00 00    ................
    0x100655d0:   00 00 00 00 00 00 00 00 00 00 00 00 00 00 00 00    ................
    0x100655e0:   00 00 00 00 00 00 00 00 00 00 00 00 00 00 00 00    ................
    0x100655f0:   00 00 00 00 00 00 00 00 00 00 00 00 00 00 00 00    ................
    0x10065600:   00 00 00 00 00 00 00 00 00 00 00 00 00 00 00 00    ................
    0x10065610:   00 00 00 00 00 00 00 00 00 00 00 00 00 00 00 00    ................
    0x10065620:   00 00 00 00 00 00 00 00 00 00 00 00 00 00 00 00    ................
    0x10065630:   00 00 00 00 00 00 00 00 00 00 00 00 00 00 00 00    ................
    0x10065640:   00 00 00 00 00 00 00 00 00 00 00 00 00 00 00 00    ................
    0x10065650:   00 00 00 00 00 00 00 00 00 00 00 00 00 00 00 00    ................
    0x10065660:   00 00 00 00 00 00 00 00 00 00 00 00 00 00 00 00    ................
    0x10065670:   00 00 00 00 00 00 00 00 00 00 00 00 00 00 00 00    ................
    0x10065680:   00 00 00 00 00 00 00 00 00 00 00 00 00 00 00 00    ................
    0x10065690:   00 00 00 00 00 00 00 00 00 00 00 00 00 00 00 00    ................
    0x100656a0:   00 00 00 00 00 00 00 00 00 00 00 00 00 00 00 00    ................
    0x100656b0:   00 00 00 00 00 00 00 00 00 00 00 00 00 00 00 00    ................
    0x100656c0:   00 00 00 00 00 00 00 00 00 00 00 00 00 00 00 00    ................
    0x100656d0:   00 00 00 00 00 00 00 00 00 00 00 00 00 00 00 00    ................
    0x100656e0:   00 00 00 00 00 00 00 00 00 00 00 00 00 00 00 00    ................
    0x100656f0:   00 00 00 00 00 00 00 00 00 00 00 00 00 00 00 00    ................
    0x10065700:   00 00 00 00 00 00 00 00 00 00 00 00 00 00 00 00    ................
    0x10065710:   00 00 00 00 00 00 00 00 00 00 00 00 00 00 00 00    ................
    0x10065720:   00 00 00 00 00 00 00 00 00 00 00 00 00 00 00 00    ................
    0x10065730:   00 00 00 00 00 00 00 00 00 00 00 00 00 00 00 00    ................
    0x10065740:   00 00 00 00 00 00 00 00 00 00 00 00 00 00 00 00    ................
    0x10065750:   00 00 00 00 00 00 00 00 00 00 00 00 00 00 00 00    ................
    0x10065760:   00 00 00 00 00 00 00 00 00 00 00 00 00 00 00 00    ................
    0x10065770:   00 00 00 00 00 00 00 00 00 00 00 00 00 00 00 00    ................
    0x10065780:   00 00 00 00 00 00 00 00 00 00 00 00 00 00 00 00    ................
    0x10065790:   00 00 00 00 00 00 00 00 00 00 00 00 00 00 00 00    ................
    0x100657a0:   00 00 00 00 00 00 00 00 00 00 00 00 00 00 00 00    ................
    0x100657b0:   00 00 00 00 00 00 00 00 00 00 00 00 00 00 00 00    ................
    0x100657c0:   00 00 00 00 00 00 00 00 00 00 00 00 00 00 00 00    ................
    0x100657d0:   00 00 00 00 00 00 00 00 00 00 00 00 00 00 00 00    ................
    0x100657e0:   00 00 00 00 00 00 00 00 00 00 00 00 00 00 00 00    ................
    0x100657f0:   00 00 00 00 00 00 00 00 00 00 00 00 00 00 00 00    ................
    0x10065800:   00 00 00 00 00 00 00 00 00 00 00 00 00 00 00 00    ................
    0x10065810:   00 00 00 00 00 00 00 00 00 00 00 00 00 00 00 00    ................
    0x10065820:   00 00 00 00 00 00 00 00 00 00 00 00 00 00 00 00    ................
    0x10065830:   00 00 00 00 00 00 00 00 00 00 00 00 00 00 00 00    ................
    0x10065840:   00 00 00 00 00 00 00 00 00 00 00 00 00 00 00 00    ................
    0x10065850:   00 00 00 00 00 00 00 00 00 00 00 00 00 00 00 00    ................
    0x10065860:   00 00 00 00 00 00 00 00 00 00 00 00 00 00 00 00    ................
    0x10065870:   00 00 00 00 00 00 00 00 00 00 00 00 00 00 00 00    ................
    0x10065880:   00 00 00 00 00 00 00 00 00 00 00 00 00 00 00 00    ................
    0x10065890:   00 00 00 00 00 00 00 00 00 00 00 00 00 00 00 00    ................
    0x100658a0:   00 00 00 00 00 00 00 00 00 00 00 00 00 00 00 00    ................
    0x100658b0:   00 00 00 00 00 00 00 00 00 00 00 00 00 00 00 00    ................
    0x100658c0:   00 00 00 00 00 00 00 00 00 00 00 00 00 00 00 00    ................
    0x100658d0:   00 00 00 00 00 00 00 00 00 00 00 00 00 00 00 00    ................
    0x100658e0:   00 00 00 00 00 00 00 00 00 00 00 00 00 00 00 00    ................
    0x100658f0:   00 00 00 00 00 00 00 00 00 00 00 00 00 00 00 00    ................
    0x10065900:   00 00 00 00 00 00 00 00 00 00 00 00 00 00 00 00    ................
    0x10065910:   00 00 00 00 00 00 00 00 00 00 00 00 00 00 00 00    ................
    0x10065920:   00 00 00 00 00 00 00 00 00 00 00 00 00 00 00 00    ................
    0x10065930:   00 00 00 00 00 00 00 00 00 00 00 00 00 00 00 00    ................
    0x10065940:   00 00 00 00 00 00 00 00 00 00 00 00 00 00 00 00    ................
    0x10065950:   00 00 00 00 00 00 00 00 00 00 00 00 00 00 00 00    ................
    0x10065960:   00 00 00 00 00 00 00 00 00 00 00 00 00 00 00 00    ................
    0x10065970:   00 00 00 00 00 00 00 00 00 00 00 00 00 00 00 00    ................
    0x10065980:   00 00 00 00 00 00 00 00 00 00 00 00 00 00 00 00    ................
    0x10065990:   00 00 00 00 00 00 00 00 00 00 00 00 00 00 00 00    ................
    0x100659a0:   00 00 00 00 00 00 00 00 00 00 00 00 00 00 00 00    ................
    0x100659b0:   00 00 00 00 00 00 00 00 00 00 00 00 00 00 00 00    ................
    0x100659c0:   00 00 00 00 00 00 00 00 00 00 00 00 00 00 00 00    ................
    0x100659d0:   00 00 00 00 00 00 00 00 00 00 00 00 00 00 00 00    ................
    0x100659e0:   00 00 00 00 00 00 00 00 00 00 00 00 00 00 00 00    ................
    0x100659f0:   00 00 00 00 00 00 00 00 00 00 00 00 00 00 00 00    ................
    0x10065a00:   00 00 00 00 00 00 00 00 00 00 00 00 00 00 00 00    ................
    0x10065a10:   00 00 00 00 00 00 00 00 00 00 00 00 00 00 00 00    ................
    0x10065a20:   00 00 00 00 00 00 00 00 00 00 00 00 00 00 00 00    ................
    0x10065a30:   00 00 00 00 00 00 00 00 00 00 00 00 00 00 00 00    ................
    0x10065a40:   00 00 00 00 00 00 00 00 00 00 00 00 00 00 00 00    ................
    0x10065a50:   00 00 00 00 00 00 00 00 00 00 00 00 00 00 00 00    ................
    0x10065a60:   00 00 00 00 00 00 00 00 00 00 00 00 00 00 00 00    ................
    0x10065a70:   00 00 00 00 00 00 00 00 00 00 00 00 00 00 00 00    ................
    0x10065a80:   00 00 00 00 00 00 00 00 00 00 00 00 00 00 00 00    ................
    0x10065a90:   00 00 00 00 00 00 00 00 00 00 00 00 00 00 00 00    ................
    0x10065aa0:   00 00 00 00 00 00 00 00 00 00 00 00 00 00 00 00    ................
    0x10065ab0:   00 00 00 00 00 00 00 00 00 00 00 00 00 00 00 00    ................
    0x10065ac0:   00 00 00 00 00 00 00 00 00 00 00 00 00 00 00 00    ................
    0x10065ad0:   00 00 00 00 00 00 00 00 00 00 00 00 00 00 00 00    ................
    0x10065ae0:   00 00 00 00 00 00 00 00 00 00 00 00 00 00 00 00    ................
    0x10065af0:   00 00 00 00 00 00 00 00 00 00 00 00 00 00 00 00    ................
    0x10065b00:   00 00 00 00 00 00 00 00 00 00 00 00 00 00 00 00    ................
    0x10065b10:   00 00 00 00 00 00 00 00 00 00 00 00 00 00 00 00    ................
    0x10065b20:   00 00 00 00 00 00 00 00 00 00 00 00 00 00 00 00    ................
    0x10065b30:   00 00 00 00 00 00 00 00 00 00 00 00 00 00 00 00    ................
    0x10065b40:   00 00 00 00 00 00 00 00 00 00 00 00 00 00 00 00    ................
    0x10065b50:   00 00 00 00 00 00 00 00 00 00 00 00 00 00 00 00    ................
    0x10065b60:   00 00 00 00 00 00 00 00 00 00 00 00 00 00 00 00    ................
    0x10065b70:   00 00 00 00 00 00 00 00 00 00 00 00 00 00 00 00    ................
    0x10065b80:   00 00 00 00 00 00 00 00 00 00 00 00 00 00 00 00    ................
    0x10065b90:   00 00 00 00 00 00 00 00 00 00 00 00 00 00 00 00    ................
    0x10065ba0:   00 00 00 00 00 00 00 00 00 00 00 00 00 00 00 00    ................
    0x10065bb0:   00 00 00 00 00 00 00 00 00 00 00 00 00 00 00 00    ................
    0x10065bc0:   00 00 00 00 00 00 00 00 00 00 00 00 00 00 00 00    ................
    0x10065bd0:   00 00 00 00 00 00 00 00 00 00 00 00 00 00 00 00    ................
    0x10065be0:   00 00 00 00 00 00 00 00 00 00 00 00 00 00 00 00    ................
    0x10065bf0:   00 00 00 00 00 00 00 00 00 00 00 00 00 00 00 00    ................
    0x10065c00:   00 00 00 00 00 00 00 00 00 00 00 00 00 00 00 00    ................
    0x10065c10:   00 00 00 00 00 00 00 00 00 00 00 00 00 00 00 00    ................
    0x10065c20:   00 00 00 00 00 00 00 00 00 00 00 00 00 00 00 00    ................
    0x10065c30:   00 00 00 00 00 00 00 00 00 00 00 00 00 00 00 00    ................
    0x10065c40:   00 00 00 00 00 00 00 00 00 00 00 00 00 00 00 00    ................
    0x10065c50:   00 00 00 00 00 00 00 00 00 00 00 00 00 00 00 00    ................
    0x10065c60:   00 00 00 00 00 00 00 00 00 00 00 00 00 00 00 00    ................
    0x10065c70:   00 00 00 00 00 00 00 00 00 00 00 00 00 00 00 00    ................
    0x10065c80:   00 00 00 00 00 00 00 00 00 00 00 00 00 00 00 00    ................
    0x10065c90:   00 00 00 00 00 00 00 00 00 00 00 00 00 00 00 00    ................
    0x10065ca0:   00 00 00 00 00 00 00 00 00 00 00 00 00 00 00 00    ................
    0x10065cb0:   00 00 00 00 00 00 00 00 00 00 00 00 00 00 00 00    ................
    0x10065cc0:   00 00 00 00 00 00 00 00 00 00 00 00 00 00 00 00    ................
    0x10065cd0:   00 00 00 00 00 00 00 00 00 00 00 00 00 00 00 00    ................
    0x10065ce0:   00 00 00 00 00 00 00 00 00 00 00 00 00 00 00 00    ................
    0x10065cf0:   00 00 00 00 00 00 00 00 00 00 00 00 00 00 00 00    ................
    0x10065d00:   00 00 00 00 00 00 00 00 00 00 00 00 00 00 00 00    ................
    0x10065d10:   00 00 00 00 00 00 00 00 00 00 00 00 00 00 00 00    ................
    0x10065d20:   00 00 00 00 00 00 00 00 00 00 00 00 00 00 00 00    ................
    0x10065d30:   00 00 00 00 00 00 00 00 00 00 00 00 00 00 00 00    ................
    0x10065d40:   00 00 00 00 00 00 00 00 00 00 00 00 00 00 00 00    ................
    0x10065d50:   00 00 00 00 00 00 00 00 00 00 00 00 00 00 00 00    ................
    0x10065d60:   00 00 00 00 00 00 00 00 00 00 00 00 00 00 00 00    ................
    0x10065d70:   00 00 00 00 00 00 00 00 00 00 00 00 00 00 00 00    ................
    0x10065d80:   00 00 00 00 00 00 00 00 00 00 00 00 00 00 00 00    ................
    0x10065d90:   00 00 00 00 00 00 00 00 00 00 00 00 00 00 00 00    ................
    0x10065da0:   00 00 00 00 00 00 00 00 00 00 00 00 00 00 00 00    ................
    0x10065db0:   00 00 00 00 00 00 00 00 00 00 00 00 00 00 00 00    ................
    0x10065dc0:   00 00 00 00 00 00 00 00 00 00 00 00 00 00 00 00    ................
    0x10065dd0:   00 00 00 00 00 00 00 00 00 00 00 00 00 00 00 00    ................
    0x10065de0:   00 00 00 00 00 00 00 00 00 00 00 00 00 00 00 00    ................
    0x10065df0:   00 00 00 00 00 00 00 00 00 00 00 00 00 00 00 00    ................
    0x10065e00:   00 00 00 00 00 00 00 00 00 00 00 00 00 00 00 00    ................
    0x10065e10:   00 00 00 00 00 00 00 00 00 00 00 00 00 00 00 00    ................
    0x10065e20:   00 00 00 00 00 00 00 00 00 00 00 00 00 00 00 00    ................
    0x10065e30:   00 00 00 00 00 00 00 00 00 00 00 00 00 00 00 00    ................
    0x10065e40:   00 00 00 00 00 00 00 00 00 00 00 00 00 00 00 00    ................
    0x10065e50:   00 00 00 00 00 00 00 00 00 00 00 00 00 00 00 00    ................
    0x10065e60:   00 00 00 00 00 00 00 00 00 00 00 00 00 00 00 00    ................
    0x10065e70:   00 00 00 00 00 00 00 00 00 00 00 00 00 00 00 00    ................
    0x10065e80:   00 00 00 00 00 00 00 00 00 00 00 00 00 00 00 00    ................
    0x10065e90:   00 00 00 00 00 00 00 00 00 00 00 00 00 00 00 00    ................
    0x10065ea0:   00 00 00 00 00 00 00 00 00 00 00 00 00 00 00 00    ................
    0x10065eb0:   00 00 00 00 00 00 00 00 00 00 00 00 00 00 00 00    ................
    0x10065ec0:   00 00 00 00 00 00 00 00 00 00 00 00 00 00 00 00    ................
    0x10065ed0:   00 00 00 00 00 00 00 00 00 00 00 00 00 00 00 00    ................
    0x10065ee0:   00 00 00 00 00 00 00 00 00 00 00 00 00 00 00 00    ................
    0x10065ef0:   00 00 00 00 00 00 00 00 00 00 00 00 00 00 00 00    ................
    0x10065f00:   00 00 00 00 00 00 00 00 00 00 00 00 00 00 00 00    ................
    0x10065f10:   00 00 00 00 00 00 00 00 00 00 00 00 00 00 00 00    ................
    0x10065f20:   00 00 00 00 00 00 00 00 00 00 00 00 00 00 00 00    ................
    0x10065f30:   00 00 00 00 00 00 00 00 00 00 00 00 00 00 00 00    ................
    0x10065f40:   00 00 00 00 00 00 00 00 00 00 00 00 00 00 00 00    ................
    0x10065f50:   00 00 00 00 00 00 00 00 00 00 00 00 00 00 00 00    ................
    0x10065f60:   00 00 00 00 00 00 00 00 00 00 00 00 00 00 00 00    ................
    0x10065f70:   00 00 00 00 00 00 00 00 00 00 00 00 00 00 00 00    ................
    0x10065f80:   00 00 00 00 00 00 00 00 00 00 00 00 00 00 00 00    ................
    0x10065f90:   00 00 00 00 00 00 00 00 00 00 00 00 00 00 00 00    ................
    0x10065fa0:   00 00 00 00 00 00 00 00 00 00 00 00 00 00 00 00    ................
    0x10065fb0:   00 00 00 00 00 00 00 00 00 00 00 00 00 00 00 00    ................
    0x10065fc0:   00 00 00 00 00 00 00 00 00 00 00 00 00 00 00 00    ................
    0x10065fd0:   00 00 00 00 00 00 00 00 00 00 00 00 00 00 00 00    ................
    0x10065fe0:   00 00 00 00 00 00 00 00 00 00 00 00 00 00 00 00    ................
    0x10065ff0:   00 00 00 00 00 00 00 00 00 00 00 00 00 00 00 00    ................
    0x10066000:   00 00 00 00 00 00 00 00 00 00 00 00 00 00 00 00    ................
    0x10066010:   00 00 00 00 00 00 00 00 00 00 00 00 00 00 00 00    ................
    0x10066020:   00 00 00 00 00 00 00 00 00 00 00 00 00 00 00 00    ................
    0x10066030:   00 00 00 00 00 00 00 00 00 00 00 00 00 00 00 00    ................
    0x10066040:   00 00 00 00 00 00 00 00 00 00 00 00 00 00 00 00    ................
    0x10066050:   00 00 00 00 00 00 00 00 00 00 00 00 00 00 00 00    ................
    0x10066060:   00 00 00 00 00 00 00 00 00 00 00 00 00 00 00 00    ................
    0x10066070:   00 00 00 00 00 00 00 00 00 00 00 00 00 00 00 00    ................
    0x10066080:   00 00 00 00 00 00 00 00 00 00 00 00 00 00 00 00    ................
    0x10066090:   00 00 00 00 00 00 00 00 00 00 00 00 00 00 00 00    ................
    0x100660a0:   00 00 00 00 00 00 00 00 00 00 00 00 00 00 00 00    ................
    0x100660b0:   00 00 00 00 00 00 00 00 00 00 00 00 00 00 00 00    ................
    0x100660c0:   00 00 00 00 00 00 00 00 00 00 00 00 00 00 00 00    ................
    0x100660d0:   00 00 00 00 00 00 00 00 00 00 00 00 00 00 00 00    ................
    0x100660e0:   00 00 00 00 00 00 00 00 00 00 00 00 00 00 00 00    ................
    0x100660f0:   00 00 00 00 00 00 00 00 00 00 00 00 00 00 00 00    ................
    0x10066100:   00 00 00 00 00 00 00 00 00 00 00 00 00 00 00 00    ................
    0x10066110:   00 00 00 00 00 00 00 00 00 00 00 00 00 00 00 00    ................
    0x10066120:   00 00 00 00 00 00 00 00 00 00 00 00 00 00 00 00    ................
    0x10066130:   00 00 00 00 00 00 00 00 00 00 00 00 00 00 00 00    ................
    0x10066140:   00 00 00 00 00 00 00 00 00 00 00 00 00 00 00 00    ................
    0x10066150:   00 00 00 00 00 00 00 00 00 00 00 00 00 00 00 00    ................
    0x10066160:   00 00 00 00 00 00 00 00 00 00 00 00 00 00 00 00    ................
    0x10066170:   00 00 00 00 00 00 00 00 00 00 00 00 00 00 00 00    ................
    0x10066180:   00 00 00 00 00 00 00 00 00 00 00 00 00 00 00 00    ................
    0x10066190:   00 00 00 00 00 00 00 00 00 00 00 00 00 00 00 00    ................
    0x100661a0:   00 00 00 00 00 00 00 00 00 00 00 00 00 00 00 00    ................
    0x100661b0:   00 00 00 00 00 00 00 00 00 00 00 00 00 00 00 00    ................
    0x100661c0:   00 00 00 00 00 00 00 00 00 00 00 00 00 00 00 00    ................
    0x100661d0:   00 00 00 00 00 00 00 00 00 00 00 00 00 00 00 00    ................
    0x100661e0:   00 00 00 00 00 00 00 00 00 00 00 00 00 00 00 00    ................
    0x100661f0:   00 00 00 00 00 00 00 00 00 00 00 00 00 00 00 00    ................
    0x10066200:   00 00 00 00 00 00 00 00 00 00 00 00 00 00 00 00    ................
    0x10066210:   00 00 00 00 00 00 00 00 00 00 00 00 00 00 00 00    ................
    0x10066220:   00 00 00 00 00 00 00 00 00 00 00 00 00 00 00 00    ................
    0x10066230:   00 00 00 00 00 00 00 00 00 00 00 00 00 00 00 00    ................
    0x10066240:   00 00 00 00 00 00 00 00 00 00 00 00 00 00 00 00    ................
    0x10066250:   00 00 00 00 00 00 00 00 00 00 00 00 00 00 00 00    ................
    0x10066260:   00 00 00 00 00 00 00 00 00 00 00 00 00 00 00 00    ................
    0x10066270:   00 00 00 00 00 00 00 00 00 00 00 00 00 00 00 00    ................
    0x10066280:   00 00 00 00 00 00 00 00 00 00 00 00 00 00 00 00    ................
    0x10066290:   00 00 00 00 00 00 00 00 00 00 00 00 00 00 00 00    ................
    0x100662a0:   00 00 00 00 00 00 00 00 00 00 00 00 00 00 00 00    ................
    0x100662b0:   00 00 00 00 00 00 00 00 00 00 00 00 00 00 00 00    ................
    0x100662c0:   00 00 00 00 00 00 00 00 00 00 00 00 00 00 00 00    ................
    0x100662d0:   00 00 00 00 00 00 00 00 00 00 00 00 00 00 00 00    ................
    0x100662e0:   00 00 00 00 00 00 00 00 00 00 00 00 00 00 00 00    ................
    0x100662f0:   00 00 00 00 00 00 00 00 00 00 00 00 00 00 00 00    ................
    0x10066300:   00 00 00 00 00 00 00 00 00 00 00 00 00 00 00 00    ................
    0x10066310:   00 00 00 00 00 00 00 00 00 00 00 00 00 00 00 00    ................
    0x10066320:   00 00 00 00 00 00 00 00 00 00 00 00 00 00 00 00    ................
    0x10066330:   00 00 00 00 00 00 00 00 00 00 00 00 00 00 00 00    ................
    0x10066340:   00 00 00 00 00 00 00 00 00 00 00 00 00 00 00 00    ................
    0x10066350:   00 00 00 00 00 00 00 00 00 00 00 00 00 00 00 00    ................
    0x10066360:   00 00 00 00 00 00 00 00 00 00 00 00 00 00 00 00    ................
    0x10066370:   00 00 00 00 00 00 00 00 00 00 00 00 00 00 00 00    ................
    0x10066380:   00 00 00 00 00 00 00 00 00 00 00 00 00 00 00 00    ................
    0x10066390:   00 00 00 00 00 00 00 00 00 00 00 00 00 00 00 00    ................
    0x100663a0:   00 00 00 00 00 00 00 00 00 00 00 00 00 00 00 00    ................
    0x100663b0:   00 00 00 00 00 00 00 00 00 00 00 00 00 00 00 00    ................
    0x100663c0:   00 00 00 00 00 00 00 00 00 00 00 00 00 00 00 00    ................
    0x100663d0:   00 00 00 00 00 00 00 00 00 00 00 00 00 00 00 00    ................
    0x100663e0:   00 00 00 00 00 00 00 00 00 00 00 00 00 00 00 00    ................
    0x100663f0:   00 00 00 00 00 00 00 00 00 00 00 00 00 00 00 00    ................
    0x10066400:   00 00 00 00 00 00 00 00 00 00 00 00 00 00 00 00    ................
    0x10066410:   00 00 00 00 00 00 00 00 00 00 00 00 00 00 00 00    ................
    0x10066420:   00 00 00 00 00 00 00 00 00 00 00 00 00 00 00 00    ................
    0x10066430:   00 00 00 00 00 00 00 00 00 00 00 00 00 00 00 00    ................
    0x10066440:   00 00 00 00 00 00 00 00 00 00 00 00 00 00 00 00    ................
    0x10066450:   00 00 00 00 00 00 00 00 00 00 00 00 00 00 00 00    ................
    0x10066460:   00 00 00 00 00 00 00 00 00 00 00 00 00 00 00 00    ................
    0x10066470:   00 00 00 00 00 00 00 00 00 00 00 00 00 00 00 00    ................
    0x10066480:   00 00 00 00 00 00 00 00 00 00 00 00 00 00 00 00    ................
    0x10066490:   00 00 00 00 00 00 00 00 00 00 00 00 00 00 00 00    ................
    0x100664a0:   00 00 00 00 00 00 00 00 00 00 00 00 00 00 00 00    ................
    0x100664b0:   00 00 00 00 00 00 00 00 00 00 00 00 00 00 00 00    ................
    0x100664c0:   00 00 00 00 00 00 00 00 00 00 00 00 00 00 00 00    ................
    0x100664d0:   00 00 00 00 00 00 00 00 00 00 00 00 00 00 00 00    ................
    0x100664e0:   00 00 00 00 00 00 00 00 00 00 00 00 00 00 00 00    ................
    0x100664f0:   00 00 00 00 00 00 00 00 00 00 00 00 00 00 00 00    ................
    0x10066500:   00 00 00 00 00 00 00 00 00 00 00 00 00 00 00 00    ................
    0x10066510:   00 00 00 00 00 00 00 00 00 00 00 00 00 00 00 00    ................
    0x10066520:   00 00 00 00 00 00 00 00 00 00 00 00 00 00 00 00    ................
    0x10066530:   00 00 00 00 00 00 00 00 00 00 00 00 00 00 00 00    ................
    0x10066540:   00 00 00 00 00 00 00 00 00 00 00 00 00 00 00 00    ................
    0x10066550:   00 00 00 00 00 00 00 00 00 00 00 00 00 00 00 00    ................
    0x10066560:   00 00 00 00 00 00 00 00 00 00 00 00 00 00 00 00    ................
    0x10066570:   00 00 00 00 00 00 00 00 00 00 00 00 00 00 00 00    ................
    0x10066580:   00 00 00 00 00 00 00 00 00 00 00 00 00 00 00 00    ................
    0x10066590:   00 00 00 00 00 00 00 00 00 00 00 00 00 00 00 00    ................
    0x100665a0:   00 00 00 00 00 00 00 00 00 00 00 00 00 00 00 00    ................
    0x100665b0:   00 00 00 00 00 00 00 00 00 00 00 00 00 00 00 00    ................
    0x100665c0:   00 00 00 00 00 00 00 00 00 00 00 00 00 00 00 00    ................
    0x100665d0:   00 00 00 00 00 00 00 00 00 00 00 00 00 00 00 00    ................
    0x100665e0:   00 00 00 00 00 00 00 00 00 00 00 00 00 00 00 00    ................
    0x100665f0:   00 00 00 00 00 00 00 00 00 00 00 00 00 00 00 00    ................
    0x10066600:   00 00 00 00 00 00 00 00 00 00 00 00 00 00 00 00    ................
    0x10066610:   00 00 00 00 00 00 00 00 00 00 00 00 00 00 00 00    ................
    0x10066620:   00 00 00 00 00 00 00 00 00 00 00 00 00 00 00 00    ................
    0x10066630:   00 00 00 00 00 00 00 00 00 00 00 00 00 00 00 00    ................
    0x10066640:   00 00 00 00 00 00 00 00 00 00 00 00 00 00 00 00    ................
    0x10066650:   00 00 00 00 00 00 00 00 00 00 00 00 00 00 00 00    ................
    0x10066660:   00 00 00 00 00 00 00 00 00 00 00 00 00 00 00 00    ................
    0x10066670:   00 00 00 00 00 00 00 00 00 00 00 00 00 00 00 00    ................
    0x10066680:   00 00 00 00 00 00 00 00 00 00 00 00 00 00 00 00    ................
    0x10066690:   00 00 00 00 00 00 00 00 00 00 00 00 00 00 00 00    ................
    0x100666a0:   00 00 00 00 00 00 00 00 00 00 00 00 00 00 00 00    ................
    0x100666b0:   00 00 00 00 00 00 00 00 00 00 00 00 00 00 00 00    ................
    0x100666c0:   00 00 00 00 00 00 00 00 00 00 00 00 00 00 00 00    ................
    0x100666d0:   00 00 00 00 00 00 00 00 00 00 00 00 00 00 00 00    ................
    0x100666e0:   00 00 00 00 00 00 00 00 00 00 00 00 00 00 00 00    ................
    0x100666f0:   00 00 00 00 00 00 00 00 00 00 00 00 00 00 00 00    ................
    0x10066700:   00 00 00 00 00 00 00 00 00 00 00 00 00 00 00 00    ................
    0x10066710:   00 00 00 00 00 00 00 00 00 00 00 00 00 00 00 00    ................
    0x10066720:   00 00 00 00 00 00 00 00 00 00 00 00 00 00 00 00    ................
    0x10066730:   00 00 00 00 00 00 00 00 00 00 00 00 00 00 00 00    ................
    0x10066740:   00 00 00 00 00 00 00 00 00 00 00 00 00 00 00 00    ................
    0x10066750:   00 00 00 00 00 00 00 00 00 00 00 00 00 00 00 00    ................
    0x10066760:   00 00 00 00 00 00 00 00 00 00 00 00 00 00 00 00    ................
    0x10066770:   00 00 00 00 00 00 00 00 00 00 00 00 00 00 00 00    ................
    0x10066780:   00 00 00 00 00 00 00 00 00 00 00 00 00 00 00 00    ................
    0x10066790:   00 00 00 00 00 00 00 00 00 00 00 00 00 00 00 00    ................
    0x100667a0:   00 00 00 00 00 00 00 00 00 00 00 00 00 00 00 00    ................
    0x100667b0:   00 00 00 00 00 00 00 00 00 00 00 00 00 00 00 00    ................
    0x100667c0:   00 00 00 00 00 00 00 00 00 00 00 00 00 00 00 00    ................
    0x100667d0:   00 00 00 00 00 00 00 00 00 00 00 00 00 00 00 00    ................
    0x100667e0:   00 00 00 00 00 00 00 00 00 00 00 00 00 00 00 00    ................
    0x100667f0:   00 00 00 00 00 00 00 00 00 00 00 00 00 00 00 00    ................
    0x10066800:   00 00 00 00 00 00 00 00 00 00 00 00 00 00 00 00    ................
    0x10066810:   00 00 00 00 00 00 00 00 00 00 00 00 00 00 00 00    ................
    0x10066820:   00 00 00 00 00 00 00 00 00 00 00 00 00 00 00 00    ................
    0x10066830:   00 00 00 00 00 00 00 00 00 00 00 00 00 00 00 00    ................
    0x10066840:   00 00 00 00 00 00 00 00 00 00 00 00 00 00 00 00    ................
    0x10066850:   00 00 00 00 00 00 00 00 00 00 00 00 00 00 00 00    ................
    0x10066860:   00 00 00 00 00 00 00 00 00 00 00 00 00 00 00 00    ................
    0x10066870:   00 00 00 00 00 00 00 00 00 00 00 00 00 00 00 00    ................
    0x10066880:   00 00 00 00 00 00 00 00 00 00 00 00 00 00 00 00    ................
    0x10066890:   00 00 00 00 00 00 00 00 00 00 00 00 00 00 00 00    ................
    0x100668a0:   00 00 00 00 00 00 00 00 00 00 00 00 00 00 00 00    ................
    0x100668b0:   00 00 00 00 00 00 00 00 00 00 00 00 00 00 00 00    ................
    0x100668c0:   00 00 00 00 00 00 00 00 00 00 00 00 00 00 00 00    ................
    0x100668d0:   00 00 00 00 00 00 00 00 00 00 00 00 00 00 00 00    ................
    0x100668e0:   00 00 00 00 00 00 00 00 00 00 00 00 00 00 00 00    ................
    0x100668f0:   00 00 00 00 00 00 00 00 00 00 00 00 00 00 00 00    ................
    0x10066900:   00 00 00 00 00 00 00 00 00 00 00 00 00 00 00 00    ................
    0x10066910:   00 00 00 00 00 00 00 00 00 00 00 00 00 00 00 00    ................
    0x10066920:   00 00 00 00 00 00 00 00 00 00 00 00 00 00 00 00    ................
    0x10066930:   00 00 00 00 00 00 00 00 00 00 00 00 00 00 00 00    ................
    0x10066940:   00 00 00 00 00 00 00 00 00 00 00 00 00 00 00 00    ................
    0x10066950:   00 00 00 00 00 00 00 00 00 00 00 00 00 00 00 00    ................
    0x10066960:   00 00 00 00 00 00 00 00 00 00 00 00 00 00 00 00    ................
    0x10066970:   00 00 00 00 00 00 00 00 00 00 00 00 00 00 00 00    ................
    0x10066980:   00 00 00 00 00 00 00 00 00 00 00 00 00 00 00 00    ................
    0x10066990:   00 00 00 00 00 00 00 00 00 00 00 00 00 00 00 00    ................
    0x100669a0:   00 00 00 00 00 00 00 00 00 00 00 00 00 00 00 00    ................
    0x100669b0:   00 00 00 00 00 00 00 00 00 00 00 00 00 00 00 00    ................
    0x100669c0:   00 00 00 00 00 00 00 00 00 00 00 00 00 00 00 00    ................
    0x100669d0:   00 00 00 00 00 00 00 00 00 00 00 00 00 00 00 00    ................
    0x100669e0:   00 00 00 00 00 00 00 00 00 00 00 00 00 00 00 00    ................
    0x100669f0:   00 00 00 00 00 00 00 00 00 00 00 00 00 00 00 00    ................
    0x10066a00:   00 00 00 00 00 00 00 00 00 00 00 00 00 00 00 00    ................
    0x10066a10:   00 00 00 00 00 00 00 00 00 00 00 00 00 00 00 00    ................
    0x10066a20:   00 00 00 00 00 00 00 00 00 00 00 00 00 00 00 00    ................
    0x10066a30:   00 00 00 00 00 00 00 00 00 00 00 00 00 00 00 00    ................
    0x10066a40:   00 00 00 00 00 00 00 00 00 00 00 00 00 00 00 00    ................
    0x10066a50:   00 00 00 00 00 00 00 00 00 00 00 00 00 00 00 00    ................
    0x10066a60:   00 00 00 00 00 00 00 00 00 00 00 00 00 00 00 00    ................
    0x10066a70:   00 00 00 00 00 00 00 00 00 00 00 00 00 00 00 00    ................
    0x10066a80:   00 00 00 00 00 00 00 00 00 00 00 00 00 00 00 00    ................
    0x10066a90:   00 00 00 00 00 00 00 00 00 00 00 00 00 00 00 00    ................
    0x10066aa0:   00 00 00 00 00 00 00 00 00 00 00 00 00 00 00 00    ................
    0x10066ab0:   00 00 00 00 00 00 00 00 00 00 00 00 00 00 00 00    ................
    0x10066ac0:   00 00 00 00 00 00 00 00 00 00 00 00 00 00 00 00    ................
    0x10066ad0:   00 00 00 00 00 00 00 00 00 00 00 00 00 00 00 00    ................
    0x10066ae0:   00 00 00 00 00 00 00 00 00 00 00 00 00 00 00 00    ................
    0x10066af0:   00 00 00 00 00 00 00 00 00 00 00 00 00 00 00 00    ................
    0x10066b00:   00 00 00 00 00 00 00 00 00 00 00 00 00 00 00 00    ................
    0x10066b10:   00 00 00 00 00 00 00 00 00 00 00 00 00 00 00 00    ................
    0x10066b20:   00 00 00 00 00 00 00 00 00 00 00 00 00 00 00 00    ................
    0x10066b30:   00 00 00 00 00 00 00 00 00 00 00 00 00 00 00 00    ................
    0x10066b40:   00 00 00 00 00 00 00 00 00 00 00 00 00 00 00 00    ................
    0x10066b50:   00 00 00 00 00 00 00 00 00 00 00 00 00 00 00 00    ................
    0x10066b60:   00 00 00 00 00 00 00 00 00 00 00 00 00 00 00 00    ................
    0x10066b70:   00 00 00 00 00 00 00 00 00 00 00 00 00 00 00 00    ................
    0x10066b80:   00 00 00 00 00 00 00 00 00 00 00 00 00 00 00 00    ................
    0x10066b90:   00 00 00 00 00 00 00 00 00 00 00 00 00 00 00 00    ................
    0x10066ba0:   00 00 00 00 00 00 00 00 00 00 00 00 00 00 00 00    ................
    0x10066bb0:   00 00 00 00 00 00 00 00 00 00 00 00 00 00 00 00    ................
    0x10066bc0:   00 00 00 00 00 00 00 00 00 00 00 00 00 00 00 00    ................
    0x10066bd0:   00 00 00 00 00 00 00 00 00 00 00 00 00 00 00 00    ................
    0x10066be0:   00 00 00 00 00 00 00 00 00 00 00 00 00 00 00 00    ................
    0x10066bf0:   00 00 00 00 00 00 00 00 00 00 00 00 00 00 00 00    ................
    0x10066c00:   00 00 00 00 00 00 00 00 00 00 00 00 00 00 00 00    ................
    0x10066c10:   00 00 00 00 00 00 00 00 00 00 00 00 00 00 00 00    ................
    0x10066c20:   00 00 00 00 00 00 00 00 00 00 00 00 00 00 00 00    ................
    0x10066c30:   00 00 00 00 00 00 00 00 00 00 00 00 00 00 00 00    ................
    0x10066c40:   00 00 00 00 00 00 00 00 00 00 00 00 00 00 00 00    ................
    0x10066c50:   00 00 00 00 00 00 00 00 00 00 00 00 00 00 00 00    ................
    0x10066c60:   00 00 00 00 00 00 00 00 00 00 00 00 00 00 00 00    ................
    0x10066c70:   00 00 00 00 00 00 00 00 00 00 00 00 00 00 00 00    ................
    0x10066c80:   00 00 00 00 00 00 00 00 00 00 00 00 00 00 00 00    ................
    0x10066c90:   00 00 00 00 00 00 00 00 00 00 00 00 00 00 00 00    ................
    0x10066ca0:   00 00 00 00 00 00 00 00 00 00 00 00 00 00 00 00    ................
    0x10066cb0:   00 00 00 00 00 00 00 00 00 00 00 00 00 00 00 00    ................
    0x10066cc0:   00 00 00 00 00 00 00 00 00 00 00 00 00 00 00 00    ................
    0x10066cd0:   00 00 00 00 00 00 00 00 00 00 00 00 00 00 00 00    ................
    0x10066ce0:   00 00 00 00 00 00 00 00 00 00 00 00 00 00 00 00    ................
    0x10066cf0:   00 00 00 00 00 00 00 00 00 00 00 00 00 00 00 00    ................
    0x10066d00:   00 00 00 00 00 00 00 00 00 00 00 00 00 00 00 00    ................
    0x10066d10:   00 00 00 00 00 00 00 00 00 00 00 00 00 00 00 00    ................
    0x10066d20:   00 00 00 00 00 00 00 00 00 00 00 00 00 00 00 00    ................
    0x10066d30:   00 00 00 00 00 00 00 00 00 00 00 00 00 00 00 00    ................
    0x10066d40:   00 00 00 00 00 00 00 00 00 00 00 00 00 00 00 00    ................
    0x10066d50:   00 00 00 00 00 00 00 00 00 00 00 00 00 00 00 00    ................
    0x10066d60:   00 00 00 00 00 00 00 00 00 00 00 00 00 00 00 00    ................
    0x10066d70:   00 00 00 00 00 00 00 00 00 00 00 00 00 00 00 00    ................
    0x10066d80:   00 00 00 00 00 00 00 00 00 00 00 00 00 00 00 00    ................
    0x10066d90:   00 00 00 00 00 00 00 00 00 00 00 00 00 00 00 00    ................
    0x10066da0:   00 00 00 00 00 00 00 00 00 00 00 00 00 00 00 00    ................
    0x10066db0:   00 00 00 00 00 00 00 00 00 00 00 00 00 00 00 00    ................
    0x10066dc0:   00 00 00 00 00 00 00 00 00 00 00 00 00 00 00 00    ................
    0x10066dd0:   00 00 00 00 00 00 00 00 00 00 00 00 00 00 00 00    ................
    0x10066de0:   00 00 00 00 00 00 00 00 00 00 00 00 00 00 00 00    ................
    0x10066df0:   00 00 00 00 00 00 00 00 00 00 00 00 00 00 00 00    ................
    0x10066e00:   00 00 00 00 00 00 00 00 00 00 00 00 00 00 00 00    ................
    0x10066e10:   00 00 00 00 00 00 00 00 00 00 00 00 00 00 00 00    ................
    0x10066e20:   00 00 00 00 00 00 00 00 00 00 00 00 00 00 00 00    ................
    0x10066e30:   00 00 00 00 00 00 00 00 00 00 00 00 00 00 00 00    ................
    0x10066e40:   00 00 00 00 00 00 00 00 00 00 00 00 00 00 00 00    ................
    0x10066e50:   00 00 00 00 00 00 00 00 00 00 00 00 00 00 00 00    ................
    0x10066e60:   00 00 00 00 00 00 00 00 00 00 00 00 00 00 00 00    ................
    0x10066e70:   00 00 00 00 00 00 00 00 00 00 00 00 00 00 00 00    ................
    0x10066e80:   00 00 00 00 00 00 00 00 00 00 00 00 00 00 00 00    ................
    0x10066e90:   00 00 00 00 00 00 00 00 00 00 00 00 00 00 00 00    ................
    0x10066ea0:   00 00 00 00 00 00 00 00 00 00 00 00 00 00 00 00    ................
    0x10066eb0:   00 00 00 00 00 00 00 00 00 00 00 00 00 00 00 00    ................
    0x10066ec0:   00 00 00 00 00 00 00 00 00 00 00 00 00 00 00 00    ................
    0x10066ed0:   00 00 00 00 00 00 00 00 00 00 00 00 00 00 00 00    ................
    0x10066ee0:   00 00 00 00 00 00 00 00 00 00 00 00 00 00 00 00    ................
    0x10066ef0:   00 00 00 00 00 00 00 00 00 00 00 00 00 00 00 00    ................
    0x10066f00:   00 00 00 00 00 00 00 00 00 00 00 00 00 00 00 00    ................
    0x10066f10:   00 00 00 00 00 00 00 00 00 00 00 00 00 00 00 00    ................
    0x10066f20:   00 00 00 00 00 00 00 00 00 00 00 00 00 00 00 00    ................
    0x10066f30:   00 00 00 00 00 00 00 00 00 00 00 00 00 00 00 00    ................
    0x10066f40:   00 00 00 00 00 00 00 00 00 00 00 00 00 00 00 00    ................
    0x10066f50:   00 00 00 00 00 00 00 00 00 00 00 00 00 00 00 00    ................
    0x10066f60:   00 00 00 00 00 00 00 00 00 00 00 00 00 00 00 00    ................
    0x10066f70:   00 00 00 00 00 00 00 00 00 00 00 00 00 00 00 00    ................
    0x10066f80:   00 00 00 00 00 00 00 00 00 00 00 00 00 00 00 00    ................
    0x10066f90:   00 00 00 00 00 00 00 00 00 00 00 00 00 00 00 00    ................
    0x10066fa0:   00 00 00 00 00 00 00 00 00 00 00 00 00 00 00 00    ................
    0x10066fb0:   00 00 00 00 00 00 00 00 00 00 00 00 00 00 00 00    ................
    0x10066fc0:   00 00 00 00 00 00 00 00 00 00 00 00 00 00 00 00    ................
    0x10066fd0:   00 00 00 00 00 00 00 00 00 00 00 00 00 00 00 00    ................
    0x10066fe0:   00 00 00 00 00 00 00 00 00 00 00 00 00 00 00 00    ................
    0x10066ff0:   00 00 00 00 00 00 00 00 00 00 00 00 00 00 00 00    ................
    0x10067000:   00 00 00 00 00 00 00 00 00 00 00 00 00 00 00 00    ................
    0x10067010:   00 00 00 00 00 00 00 00 00 00 00 00 00 00 00 00    ................
    0x10067020:   00 00 00 00 00 00 00 00 00 00 00 00 00 00 00 00    ................
    0x10067030:   00 00 00 00 00 00 00 00 00 00 00 00 00 00 00 00    ................
    0x10067040:   00 00 00 00 00 00 00 00 00 00 00 00 00 00 00 00    ................
    0x10067050:   00 00 00 00 00 00 00 00 00 00 00 00 00 00 00 00    ................
    0x10067060:   00 00 00 00 00 00 00 00 00 00 00 00 00 00 00 00    ................
    0x10067070:   00 00 00 00 00 00 00 00 00 00 00 00 00 00 00 00    ................
    0x10067080:   00 00 00 00 00 00 00 00 00 00 00 00 00 00 00 00    ................
    0x10067090:   00 00 00 00 00 00 00 00 00 00 00 00 00 00 00 00    ................
    0x100670a0:   00 00 00 00 00 00 00 00 00 00 00 00 00 00 00 00    ................
    0x100670b0:   00 00 00 00 00 00 00 00 00 00 00 00 00 00 00 00    ................
    0x100670c0:   00 00 00 00 00 00 00 00 00 00 00 00 00 00 00 00    ................
    0x100670d0:   00 00 00 00 00 00 00 00 00 00 00 00 00 00 00 00    ................
    0x100670e0:   00 00 00 00 00 00 00 00 00 00 00 00 00 00 00 00    ................
    0x100670f0:   00 00 00 00 00 00 00 00 00 00 00 00 00 00 00 00    ................
    0x10067100:   00 00 00 00 00 00 00 00 00 00 00 00 00 00 00 00    ................
    0x10067110:   00 00 00 00 00 00 00 00 00 00 00 00 00 00 00 00    ................
    0x10067120:   00 00 00 00 00 00 00 00 00 00 00 00 00 00 00 00    ................
    0x10067130:   00 00 00 00 00 00 00 00 00 00 00 00 00 00 00 00    ................
    0x10067140:   00 00 00 00 00 00 00 00 00 00 00 00 00 00 00 00    ................
    0x10067150:   00 00 00 00 00 00 00 00 00 00 00 00 00 00 00 00    ................
    0x10067160:   00 00 00 00 00 00 00 00 00 00 00 00 00 00 00 00    ................
    0x10067170:   00 00 00 00 00 00 00 00 00 00 00 00 00 00 00 00    ................
    0x10067180:   00 00 00 00 00 00 00 00 00 00 00 00 00 00 00 00    ................
    0x10067190:   00 00 00 00 00 00 00 00 00 00 00 00 00 00 00 00    ................
    0x100671a0:   00 00 00 00 00 00 00 00 00 00 00 00 00 00 00 00    ................
    0x100671b0:   00 00 00 00 00 00 00 00 00 00 00 00 00 00 00 00    ................
    0x100671c0:   00 00 00 00 00 00 00 00 00 00 00 00 00 00 00 00    ................
    0x100671d0:   00 00 00 00 00 00 00 00 00 00 00 00 00 00 00 00    ................
    0x100671e0:   00 00 00 00 00 00 00 00 00 00 00 00 00 00 00 00    ................
    0x100671f0:   00 00 00 00 00 00 00 00 00 00 00 00 00 00 00 00    ................
    0x10067200:   00 00 00 00 00 00 00 00 00 00 00 00 00 00 00 00    ................
    0x10067210:   00 00 00 00 00 00 00 00 00 00 00 00 00 00 00 00    ................
    0x10067220:   00 00 00 00 00 00 00 00 00 00 00 00 00 00 00 00    ................
    0x10067230:   00 00 00 00 00 00 00 00 00 00 00 00 00 00 00 00    ................
    0x10067240:   00 00 00 00 00 00 00 00 00 00 00 00 00 00 00 00    ................
    0x10067250:   00 00 00 00 00 00 00 00 00 00 00 00 00 00 00 00    ................
    0x10067260:   00 00 00 00 00 00 00 00 00 00 00 00 00 00 00 00    ................
    0x10067270:   00 00 00 00 00 00 00 00 00 00 00 00 00 00 00 00    ................
    0x10067280:   00 00 00 00 00 00 00 00 00 00 00 00 00 00 00 00    ................
    0x10067290:   00 00 00 00 00 00 00 00 00 00 00 00 00 00 00 00    ................
    0x100672a0:   00 00 00 00 00 00 00 00 00 00 00 00 00 00 00 00    ................
    0x100672b0:   00 00 00 00 00 00 00 00 00 00 00 00 00 00 00 00    ................
    0x100672c0:   00 00 00 00 00 00 00 00 00 00 00 00 00 00 00 00    ................
    0x100672d0:   00 00 00 00 00 00 00 00 00 00 00 00 00 00 00 00    ................
    0x100672e0:   00 00 00 00 00 00 00 00 00 00 00 00 00 00 00 00    ................
    0x100672f0:   00 00 00 00 00 00 00 00 00 00 00 00 00 00 00 00    ................
    0x10067300:   00 00 00 00 00 00 00 00 00 00 00 00 00 00 00 00    ................
    0x10067310:   00 00 00 00 00 00 00 00 00 00 00 00 00 00 00 00    ................
    0x10067320:   00 00 00 00 00 00 00 00 00 00 00 00 00 00 00 00    ................
    0x10067330:   00 00 00 00 00 00 00 00 00 00 00 00 00 00 00 00    ................
    0x10067340:   00 00 00 00 00 00 00 00 00 00 00 00 00 00 00 00    ................
    0x10067350:   00 00 00 00 00 00 00 00 00 00 00 00 00 00 00 00    ................
    0x10067360:   00 00 00 00 00 00 00 00 00 00 00 00 00 00 00 00    ................
    0x10067370:   00 00 00 00 00 00 00 00 00 00 00 00 00 00 00 00    ................
    0x10067380:   00 00 00 00 00 00 00 00 00 00 00 00 00 00 00 00    ................
    0x10067390:   00 00 00 00 00 00 00 00 00 00 00 00 00 00 00 00    ................
    0x100673a0:   00 00 00 00 00 00 00 00 00 00 00 00 00 00 00 00    ................
    0x100673b0:   00 00 00 00 00 00 00 00 00 00 00 00 00 00 00 00    ................
    0x100673c0:   00 00 00 00 00 00 00 00 00 00 00 00 00 00 00 00    ................
    0x100673d0:   00 00 00 00 00 00 00 00 00 00 00 00 00 00 00 00    ................
    0x100673e0:   00 00 00 00 00 00 00 00 00 00 00 00 00 00 00 00    ................
    0x100673f0:   00 00 00 00 00 00 00 00 00 00 00 00 00 00 00 00    ................
    0x10067400:   00 00 00 00 00 00 00 00 00 00 00 00 00 00 00 00    ................
    0x10067410:   00 00 00 00 00 00 00 00 00 00 00 00 00 00 00 00    ................
    0x10067420:   00 00 00 00 00 00 00 00 00 00 00 00 00 00 00 00    ................
    0x10067430:   00 00 00 00 00 00 00 00 00 00 00 00 00 00 00 00    ................
    0x10067440:   00 00 00 00 00 00 00 00 00 00 00 00 00 00 00 00    ................
    0x10067450:   00 00 00 00 00 00 00 00 00 00 00 00 00 00 00 00    ................
    0x10067460:   00 00 00 00 00 00 00 00 00 00 00 00 00 00 00 00    ................
    0x10067470:   00 00 00 00 00 00 00 00 00 00 00 00 00 00 00 00    ................
    0x10067480:   00 00 00 00 00 00 00 00 00 00 00 00 00 00 00 00    ................
    0x10067490:   00 00 00 00 00 00 00 00 00 00 00 00 00 00 00 00    ................
    0x100674a0:   00 00 00 00 00 00 00 00 00 00 00 00 00 00 00 00    ................
    0x100674b0:   00 00 00 00 00 00 00 00 00 00 00 00 00 00 00 00    ................
    0x100674c0:   00 00 00 00 00 00 00 00 00 00 00 00 00 00 00 00    ................
    0x100674d0:   00 00 00 00 00 00 00 00 00 00 00 00 00 00 00 00    ................
    0x100674e0:   00 00 00 00 00 00 00 00 00 00 00 00 00 00 00 00    ................
    0x100674f0:   00 00 00 00 00 00 00 00 00 00 00 00 00 00 00 00    ................
    0x10067500:   00 00 00 00 00 00 00 00 00 00 00 00 00 00 00 00    ................
    0x10067510:   00 00 00 00 00 00 00 00 00 00 00 00 00 00 00 00    ................
    0x10067520:   00 00 00 00 00 00 00 00 00 00 00 00 00 00 00 00    ................
    0x10067530:   00 00 00 00 00 00 00 00 00 00 00 00 00 00 00 00    ................
    0x10067540:   00 00 00 00 00 00 00 00 00 00 00 00 00 00 00 00    ................
    0x10067550:   00 00 00 00 00 00 00 00 00 00 00 00 00 00 00 00    ................
    0x10067560:   00 00 00 00 00 00 00 00 00 00 00 00 00 00 00 00    ................
    0x10067570:   00 00 00 00 00 00 00 00 00 00 00 00 00 00 00 00    ................
    0x10067580:   00 00 00 00 00 00 00 00 00 00 00 00 00 00 00 00    ................
    0x10067590:   00 00 00 00 00 00 00 00 00 00 00 00 00 00 00 00    ................
    0x100675a0:   00 00 00 00 00 00 00 00 00 00 00 00 00 00 00 00    ................
    0x100675b0:   00 00 00 00 00 00 00 00 00 00 00 00 00 00 00 00    ................
    0x100675c0:   00 00 00 00 00 00 00 00 00 00 00 00 00 00 00 00    ................
    0x100675d0:   00 00 00 00 00 00 00 00 00 00 00 00 00 00 00 00    ................
    0x100675e0:   00 00 00 00 00 00 00 00 00 00 00 00 00 00 00 00    ................
    0x100675f0:   00 00 00 00 00 00 00 00 00 00 00 00 00 00 00 00    ................
    0x10067600:   00 00 00 00 00 00 00 00 00 00 00 00 00 00 00 00    ................
    0x10067610:   00 00 00 00 00 00 00 00 00 00 00 00 00 00 00 00    ................
    0x10067620:   00 00 00 00 00 00 00 00 00 00 00 00 00 00 00 00    ................
    0x10067630:   00 00 00 00 00 00 00 00 00 00 00 00 00 00 00 00    ................
    0x10067640:   00 00 00 00 00 00 00 00 00 00 00 00 00 00 00 00    ................
    0x10067650:   00 00 00 00 00 00 00 00 00 00 00 00 00 00 00 00    ................
    0x10067660:   00 00 00 00 00 00 00 00 00 00 00 00 00 00 00 00    ................
    0x10067670:   00 00 00 00 00 00 00 00 00 00 00 00 00 00 00 00    ................
    0x10067680:   00 00 00 00 00 00 00 00 00 00 00 00 00 00 00 00    ................
    0x10067690:   00 00 00 00 00 00 00 00 00 00 00 00 00 00 00 00    ................
    0x100676a0:   00 00 00 00 00 00 00 00 00 00 00 00 00 00 00 00    ................
    0x100676b0:   00 00 00 00 00 00 00 00 00 00 00 00 00 00 00 00    ................
    0x100676c0:   00 00 00 00 00 00 00 00 00 00 00 00 00 00 00 00    ................
    0x100676d0:   00 00 00 00 00 00 00 00 00 00 00 00 00 00 00 00    ................
    0x100676e0:   00 00 00 00 00 00 00 00 00 00 00 00 00 00 00 00    ................
    0x100676f0:   00 00 00 00 00 00 00 00 00 00 00 00 00 00 00 00    ................
    0x10067700:   00 00 00 00 00 00 00 00 00 00 00 00 00 00 00 00    ................
    0x10067710:   00 00 00 00 00 00 00 00 00 00 00 00 00 00 00 00    ................
    0x10067720:   00 00 00 00 00 00 00 00 00 00 00 00 00 00 00 00    ................
    0x10067730:   00 00 00 00 00 00 00 00 00 00 00 00 00 00 00 00    ................
    0x10067740:   00 00 00 00 00 00 00 00 00 00 00 00 00 00 00 00    ................
    0x10067750:   00 00 00 00 00 00 00 00 00 00 00 00 00 00 00 00    ................
    0x10067760:   00 00 00 00 00 00 00 00 00 00 00 00 00 00 00 00    ................
    0x10067770:   00 00 00 00 00 00 00 00 00 00 00 00 00 00 00 00    ................
    0x10067780:   00 00 00 00 00 00 00 00 00 00 00 00 00 00 00 00    ................
    0x10067790:   00 00 00 00 00 00 00 00 00 00 00 00 00 00 00 00    ................
    0x100677a0:   00 00 00 00 00 00 00 00 00 00 00 00 00 00 00 00    ................
    0x100677b0:   00 00 00 00 00 00 00 00 00 00 00 00 00 00 00 00    ................
    0x100677c0:   00 00 00 00 00 00 00 00 00 00 00 00 00 00 00 00    ................
    0x100677d0:   00 00 00 00 00 00 00 00 00 00 00 00 00 00 00 00    ................
    0x100677e0:   00 00 00 00 00 00 00 00 00 00 00 00 00 00 00 00    ................
    0x100677f0:   00 00 00 00 00 00 00 00 00 00 00 00 00 00 00 00    ................
    0x10067800:   00 00 00 00 00 00 00 00 00 00 00 00 00 00 00 00    ................
    0x10067810:   00 00 00 00 00 00 00 00 00 00 00 00 00 00 00 00    ................
    0x10067820:   00 00 00 00 00 00 00 00 00 00 00 00 00 00 00 00    ................
    0x10067830:   00 00 00 00 00 00 00 00 00 00 00 00 00 00 00 00    ................
    0x10067840:   00 00 00 00 00 00 00 00 00 00 00 00 00 00 00 00    ................
    0x10067850:   00 00 00 00 00 00 00 00 00 00 00 00 00 00 00 00    ................
    0x10067860:   00 00 00 00 00 00 00 00 00 00 00 00 00 00 00 00    ................
    0x10067870:   00 00 00 00 00 00 00 00 00 00 00 00 00 00 00 00    ................
    0x10067880:   00 00 00 00 00 00 00 00 00 00 00 00 00 00 00 00    ................
    0x10067890:   00 00 00 00 00 00 00 00 00 00 00 00 00 00 00 00    ................
    0x100678a0:   00 00 00 00 00 00 00 00 00 00 00 00 00 00 00 00    ................
    0x100678b0:   00 00 00 00 00 00 00 00 00 00 00 00 00 00 00 00    ................
    0x100678c0:   00 00 00 00 00 00 00 00 00 00 00 00 00 00 00 00    ................
    0x100678d0:   00 00 00 00 00 00 00 00 00 00 00 00 00 00 00 00    ................
    0x100678e0:   00 00 00 00 00 00 00 00 00 00 00 00 00 00 00 00    ................
    0x100678f0:   00 00 00 00 00 00 00 00 00 00 00 00 00 00 00 00    ................
    0x10067900:   00 00 00 00 00 00 00 00 00 00 00 00 00 00 00 00    ................
    0x10067910:   00 00 00 00 00 00 00 00 00 00 00 00 00 00 00 00    ................
    0x10067920:   00 00 00 00 00 00 00 00 00 00 00 00 00 00 00 00    ................
    0x10067930:   00 00 00 00 00 00 00 00 00 00 00 00 00 00 00 00    ................
    0x10067940:   00 00 00 00 00 00 00 00 00 00 00 00 00 00 00 00    ................
    0x10067950:   00 00 00 00 00 00 00 00 00 00 00 00 00 00 00 00    ................
    0x10067960:   00 00 00 00 00 00 00 00 00 00 00 00 00 00 00 00    ................
    0x10067970:   00 00 00 00 00 00 00 00 00 00 00 00 00 00 00 00    ................
    0x10067980:   00 00 00 00 00 00 00 00 00 00 00 00 00 00 00 00    ................
    0x10067990:   00 00 00 00 00 00 00 00 00 00 00 00 00 00 00 00    ................
    0x100679a0:   00 00 00 00 00 00 00 00 00 00 00 00 00 00 00 00    ................
    0x100679b0:   00 00 00 00 00 00 00 00 00 00 00 00 00 00 00 00    ................
    0x100679c0:   00 00 00 00 00 00 00 00 00 00 00 00 00 00 00 00    ................
    0x100679d0:   00 00 00 00 00 00 00 00 00 00 00 00 00 00 00 00    ................
    0x100679e0:   00 00 00 00 00 00 00 00 00 00 00 00 00 00 00 00    ................
    0x100679f0:   00 00 00 00 00 00 00 00 00 00 00 00 00 00 00 00    ................
    0x10067a00:   00 00 00 00 00 00 00 00 00 00 00 00 00 00 00 00    ................
    0x10067a10:   00 00 00 00 00 00 00 00 00 00 00 00 00 00 00 00    ................
    0x10067a20:   00 00 00 00 00 00 00 00 00 00 00 00 00 00 00 00    ................
    0x10067a30:   00 00 00 00 00 00 00 00 00 00 00 00 00 00 00 00    ................
    0x10067a40:   00 00 00 00 00 00 00 00 00 00 00 00 00 00 00 00    ................
    0x10067a50:   00 00 00 00 00 00 00 00 00 00 00 00 00 00 00 00    ................
    0x10067a60:   00 00 00 00 00 00 00 00 00 00 00 00 00 00 00 00    ................
    0x10067a70:   00 00 00 00 00 00 00 00 00 00 00 00 00 00 00 00    ................
    0x10067a80:   00 00 00 00 00 00 00 00 00 00 00 00 00 00 00 00    ................
    0x10067a90:   00 00 00 00 00 00 00 00 00 00 00 00 00 00 00 00    ................
    0x10067aa0:   00 00 00 00 00 00 00 00 00 00 00 00 00 00 00 00    ................
    0x10067ab0:   00 00 00 00 00 00 00 00 00 00 00 00 00 00 00 00    ................
    0x10067ac0:   00 00 00 00 00 00 00 00 00 00 00 00 00 00 00 00    ................
    0x10067ad0:   00 00 00 00 00 00 00 00 00 00 00 00 00 00 00 00    ................
    0x10067ae0:   00 00 00 00 00 00 00 00 00 00 00 00 00 00 00 00    ................
    0x10067af0:   00 00 00 00 00 00 00 00 00 00 00 00 00 00 00 00    ................
    0x10067b00:   00 00 00 00 00 00 00 00 00 00 00 00 00 00 00 00    ................
    0x10067b10:   00 00 00 00 00 00 00 00 00 00 00 00 00 00 00 00    ................
    0x10067b20:   00 00 00 00 00 00 00 00 00 00 00 00 00 00 00 00    ................
    0x10067b30:   00 00 00 00 00 00 00 00 00 00 00 00 00 00 00 00    ................
    0x10067b40:   00 00 00 00 00 00 00 00 00 00 00 00 00 00 00 00    ................
    0x10067b50:   00 00 00 00 00 00 00 00 00 00 00 00 00 00 00 00    ................
    0x10067b60:   00 00 00 00 00 00 00 00 00 00 00 00 00 00 00 00    ................
    0x10067b70:   00 00 00 00 00 00 00 00 00 00 00 00 00 00 00 00    ................
    0x10067b80:   00 00 00 00 00 00 00 00 00 00 00 00 00 00 00 00    ................
    0x10067b90:   00 00 00 00 00 00 00 00 00 00 00 00 00 00 00 00    ................
    0x10067ba0:   00 00 00 00 00 00 00 00 00 00 00 00 00 00 00 00    ................
    0x10067bb0:   00 00 00 00 00 00 00 00 00 00 00 00 00 00 00 00    ................
    0x10067bc0:   00 00 00 00 00 00 00 00 00 00 00 00 00 00 00 00    ................
    0x10067bd0:   00 00 00 00 00 00 00 00 00 00 00 00 00 00 00 00    ................
    0x10067be0:   00 00 00 00 00 00 00 00 00 00 00 00 00 00 00 00    ................
    0x10067bf0:   00 00 00 00 00 00 00 00 00 00 00 00 00 00 00 00    ................
    0x10067c00:   00 00 00 00 00 00 00 00 00 00 00 00 00 00 00 00    ................
    0x10067c10:   00 00 00 00 00 00 00 00 00 00 00 00 00 00 00 00    ................
    0x10067c20:   00 00 00 00 00 00 00 00 00 00 00 00 00 00 00 00    ................
    0x10067c30:   00 00 00 00 00 00 00 00 00 00 00 00 00 00 00 00    ................
    0x10067c40:   00 00 00 00 00 00 00 00 00 00 00 00 00 00 00 00    ................
    0x10067c50:   00 00 00 00 00 00 00 00 00 00 00 00 00 00 00 00    ................
    0x10067c60:   00 00 00 00 00 00 00 00 00 00 00 00 00 00 00 00    ................
    0x10067c70:   00 00 00 00 00 00 00 00 00 00 00 00 00 00 00 00    ................
    0x10067c80:   00 00 00 00 00 00 00 00 00 00 00 00 00 00 00 00    ................
    0x10067c90:   00 00 00 00 00 00 00 00 00 00 00 00 00 00 00 00    ................
    0x10067ca0:   00 00 00 00 00 00 00 00 00 00 00 00 00 00 00 00    ................
    0x10067cb0:   00 00 00 00 00 00 00 00 00 00 00 00 00 00 00 00    ................
    0x10067cc0:   00 00 00 00 00 00 00 00 00 00 00 00 00 00 00 00    ................
    0x10067cd0:   00 00 00 00 00 00 00 00 00 00 00 00 00 00 00 00    ................
    0x10067ce0:   00 00 00 00 00 00 00 00 00 00 00 00 00 00 00 00    ................
    0x10067cf0:   00 00 00 00 00 00 00 00 00 00 00 00 00 00 00 00    ................
    0x10067d00:   00 00 00 00 00 00 00 00 00 00 00 00 00 00 00 00    ................
    0x10067d10:   00 00 00 00 00 00 00 00 00 00 00 00 00 00 00 00    ................
    0x10067d20:   00 00 00 00 00 00 00 00 00 00 00 00 00 00 00 00    ................
    0x10067d30:   00 00 00 00 00 00 00 00 00 00 00 00 00 00 00 00    ................
    0x10067d40:   00 00 00 00 00 00 00 00 00 00 00 00 00 00 00 00    ................
    0x10067d50:   00 00 00 00 00 00 00 00 00 00 00 00 00 00 00 00    ................
    0x10067d60:   00 00 00 00 00 00 00 00 00 00 00 00 00 00 00 00    ................
    0x10067d70:   00 00 00 00 00 00 00 00 00 00 00 00 00 00 00 00    ................
    0x10067d80:   00 00 00 00 00 00 00 00 00 00 00 00 00 00 00 00    ................
    0x10067d90:   00 00 00 00 00 00 00 00 00 00 00 00 00 00 00 00    ................
    0x10067da0:   00 00 00 00 00 00 00 00 00 00 00 00 00 00 00 00    ................
    0x10067db0:   00 00 00 00 00 00 00 00 00 00 00 00 00 00 00 00    ................
    0x10067dc0:   00 00 00 00 00 00 00 00 00 00 00 00 00 00 00 00    ................
    0x10067dd0:   00 00 00 00 00 00 00 00 00 00 00 00 00 00 00 00    ................
    0x10067de0:   00 00 00 00 00 00 00 00 00 00 00 00 00 00 00 00    ................
    0x10067df0:   00 00 00 00 00 00 00 00 00 00 00 00 00 00 00 00    ................
    0x10067e00:   00 00 00 00 00 00 00 00 00 00 00 00 00 00 00 00    ................
    0x10067e10:   00 00 00 00 00 00 00 00 00 00 00 00 00 00 00 00    ................
    0x10067e20:   00 00 00 00 00 00 00 00 00 00 00 00 00 00 00 00    ................
    0x10067e30:   00 00 00 00 00 00 00 00 00 00 00 00 00 00 00 00    ................
    0x10067e40:   00 00 00 00 00 00 00 00 00 00 00 00 00 00 00 00    ................
    0x10067e50:   00 00 00 00 00 00 00 00 00 00 00 00 00 00 00 00    ................
    0x10067e60:   00 00 00 00 00 00 00 00 00 00 00 00 00 00 00 00    ................
    0x10067e70:   00 00 00 00 00 00 00 00 00 00 00 00 00 00 00 00    ................
    0x10067e80:   00 00 00 00 00 00 00 00 00 00 00 00 00 00 00 00    ................
    0x10067e90:   00 00 00 00 00 00 00 00 00 00 00 00 00 00 00 00    ................
    0x10067ea0:   00 00 00 00 00 00 00 00 00 00 00 00 00 00 00 00    ................
    0x10067eb0:   00 00 00 00 00 00 00 00 00 00 00 00 00 00 00 00    ................
    0x10067ec0:   00 00 00 00 00 00 00 00 00 00 00 00 00 00 00 00    ................
    0x10067ed0:   00 00 00 00 00 00 00 00 00 00 00 00 00 00 00 00    ................
    0x10067ee0:   00 00 00 00 00 00 00 00 00 00 00 00 00 00 00 00    ................
    0x10067ef0:   00 00 00 00 00 00 00 00 00 00 00 00 00 00 00 00    ................
    0x10067f00:   00 00 00 00 00 00 00 00 00 00 00 00 00 00 00 00    ................
    0x10067f10:   00 00 00 00 00 00 00 00 00 00 00 00 00 00 00 00    ................
    0x10067f20:   00 00 00 00 00 00 00 00 00 00 00 00 00 00 00 00    ................
    0x10067f30:   00 00 00 00 00 00 00 00 00 00 00 00 00 00 00 00    ................
    0x10067f40:   00 00 00 00 00 00 00 00 00 00 00 00 00 00 00 00    ................
    0x10067f50:   00 00 00 00 00 00 00 00 00 00 00 00 00 00 00 00    ................
    0x10067f60:   00 00 00 00 00 00 00 00 00 00 00 00 00 00 00 00    ................
    0x10067f70:   00 00 00 00 00 00 00 00 00 00 00 00 00 00 00 00    ................
    0x10067f80:   00 00 00 00 00 00 00 00 00 00 00 00 00 00 00 00    ................
    0x10067f90:   00 00 00 00 00 00 00 00 00 00 00 00 00 00 00 00    ................
    0x10067fa0:   00 00 00 00 00 00 00 00 00 00 00 00 00 00 00 00    ................
    0x10067fb0:   00 00 00 00 00 00 00 00 00 00 00 00 00 00 00 00    ................
    0x10067fc0:   00 00 00 00 00 00 00 00 00 00 00 00 00 00 00 00    ................
    0x10067fd0:   00 00 00 00 00 00 00 00 00 00 00 00 00 00 00 00    ................
    0x10067fe0:   00 00 00 00 00 00 00 00 00 00 00 00 00 00 00 00    ................
    0x10067ff0:   00 00 00 00 00 00 00 00 00 00 00 00 00 00 00 00    ................
    0x10068000:   00 00 00 00 00 00 00 00 00 00 00 00 00 00 00 00    ................
    0x10068010:   00 00 00 00 00 00 00 00 00 00 00 00 00 00 00 00    ................
    0x10068020:   00 00 00 00 00 00 00 00 00 00 00 00 00 00 00 00    ................
    0x10068030:   00 00 00 00 00 00 00 00 00 00 00 00 00 00 00 00    ................
    0x10068040:   00 00 00 00 00 00 00 00 00 00 00 00 00 00 00 00    ................
    0x10068050:   00 00 00 00 00 00 00 00 00 00 00 00 00 00 00 00    ................
    0x10068060:   00 00 00 00 00 00 00 00 00 00 00 00 00 00 00 00    ................
    0x10068070:   00 00 00 00 00 00 00 00 00 00 00 00 00 00 00 00    ................
    0x10068080:   00 00 00 00 00 00 00 00 00 00 00 00 00 00 00 00    ................
    0x10068090:   00 00 00 00 00 00 00 00 00 00 00 00 00 00 00 00    ................
    0x100680a0:   00 00 00 00 00 00 00 00 00 00 00 00 00 00 00 00    ................
    0x100680b0:   00 00 00 00 00 00 00 00 00 00 00 00 00 00 00 00    ................
    0x100680c0:   00 00 00 00 00 00 00 00 00 00 00 00 00 00 00 00    ................
    0x100680d0:   00 00 00 00 00 00 00 00 00 00 00 00 00 00 00 00    ................
    0x100680e0:   00 00 00 00 00 00 00 00 00 00 00 00 00 00 00 00    ................
    0x100680f0:   00 00 00 00 00 00 00 00 00 00 00 00 00 00 00 00    ................
    0x10068100:   00 00 00 00 00 00 00 00 00 00 00 00 00 00 00 00    ................
    0x10068110:   00 00 00 00 00 00 00 00 00 00 00 00 00 00 00 00    ................
    0x10068120:   00 00 00 00 00 00 00 00 00 00 00 00 00 00 00 00    ................
    0x10068130:   00 00 00 00 00 00 00 00 00 00 00 00 00 00 00 00    ................
    0x10068140:   00 00 00 00 00 00 00 00 00 00 00 00 00 00 00 00    ................
    0x10068150:   00 00 00 00 00 00 00 00 00 00 00 00 00 00 00 00    ................
    0x10068160:   00 00 00 00 00 00 00 00 00 00 00 00 00 00 00 00    ................
    0x10068170:   00 00 00 00 00 00 00 00 00 00 00 00 00 00 00 00    ................
    0x10068180:   00 00 00 00 00 00 00 00 00 00 00 00 00 00 00 00    ................
    0x10068190:   00 00 00 00 00 00 00 00 00 00 00 00 00 00 00 00    ................
    0x100681a0:   00 00 00 00 00 00 00 00 00 00 00 00 00 00 00 00    ................
    0x100681b0:   00 00 00 00 00 00 00 00 00 00 00 00 00 00 00 00    ................
    0x100681c0:   00 00 00 00 00 00 00 00 00 00 00 00 00 00 00 00    ................
    0x100681d0:   00 00 00 00 00 00 00 00 00 00 00 00 00 00 00 00    ................
    0x100681e0:   00 00 00 00 00 00 00 00 00 00 00 00 00 00 00 00    ................
    0x100681f0:   00 00 00 00 00 00 00 00 00 00 00 00 00 00 00 00    ................
    0x10068200:   00 00 00 00 00 00 00 00 00 00 00 00 00 00 00 00    ................
    0x10068210:   00 00 00 00 00 00 00 00 00 00 00 00 00 00 00 00    ................
    0x10068220:   00 00 00 00 00 00 00 00 00 00 00 00 00 00 00 00    ................
    0x10068230:   00 00 00 00 00 00 00 00 00 00 00 00 00 00 00 00    ................
    0x10068240:   00 00 00 00 00 00 00 00 00 00 00 00 00 00 00 00    ................
    0x10068250:   00 00 00 00 00 00 00 00 00 00 00 00 00 00 00 00    ................
    0x10068260:   00 00 00 00 00 00 00 00 00 00 00 00 00 00 00 00    ................
    0x10068270:   00 00 00 00 00 00 00 00 00 00 00 00 00 00 00 00    ................
    0x10068280:   00 00 00 00 00 00 00 00 00 00 00 00 00 00 00 00    ................
    0x10068290:   00 00 00 00 00 00 00 00 00 00 00 00 00 00 00 00    ................
    0x100682a0:   00 00 00 00 00 00 00 00 00 00 00 00 00 00 00 00    ................
    0x100682b0:   00 00 00 00 00 00 00 00 00 00 00 00 00 00 00 00    ................
    0x100682c0:   00 00 00 00 00 00 00 00 00 00 00 00 00 00 00 00    ................
    0x100682d0:   00 00 00 00 00 00 00 00 00 00 00 00 00 00 00 00    ................
    0x100682e0:   00 00 00 00 00 00 00 00 00 00 00 00 00 00 00 00    ................
    0x100682f0:   00 00 00 00 00 00 00 00 00 00 00 00 00 00 00 00    ................
    0x10068300:   00 00 00 00 00 00 00 00 00 00 00 00 00 00 00 00    ................
    0x10068310:   00 00 00 00 00 00 00 00 00 00 00 00 00 00 00 00    ................
    0x10068320:   00 00 00 00 00 00 00 00 00 00 00 00 00 00 00 00    ................
    0x10068330:   00 00 00 00 00 00 00 00 00 00 00 00 00 00 00 00    ................
    0x10068340:   00 00 00 00 00 00 00 00 00 00 00 00 00 00 00 00    ................
    0x10068350:   00 00 00 00 00 00 00 00 00 00 00 00 00 00 00 00    ................
    0x10068360:   00 00 00 00 00 00 00 00 00 00 00 00 00 00 00 00    ................
    0x10068370:   00 00 00 00 00 00 00 00 00 00 00 00 00 00 00 00    ................
    0x10068380:   00 00 00 00 00 00 00 00 00 00 00 00 00 00 00 00    ................
    0x10068390:   00 00 00 00 00 00 00 00 00 00 00 00 00 00 00 00    ................
    0x100683a0:   00 00 00 00 00 00 00 00 00 00 00 00 00 00 00 00    ................
    0x100683b0:   00 00 00 00 00 00 00 00 00 00 00 00 00 00 00 00    ................
    0x100683c0:   00 00 00 00 00 00 00 00 00 00 00 00 00 00 00 00    ................
    0x100683d0:   00 00 00 00 00 00 00 00 00 00 00 00 00 00 00 00    ................
    0x100683e0:   00 00 00 00 00 00 00 00 00 00 00 00 00 00 00 00    ................
    0x100683f0:   00 00 00 00 00 00 00 00 00 00 00 00 00 00 00 00    ................
    0x10068400:   00 00 00 00 00 00 00 00 00 00 00 00 00 00 00 00    ................
    0x10068410:   00 00 00 00 00 00 00 00 00 00 00 00 00 00 00 00    ................
    0x10068420:   00 00 00 00 00 00 00 00 00 00 00 00 00 00 00 00    ................
    0x10068430:   00 00 00 00 00 00 00 00 00 00 00 00 00 00 00 00    ................
    0x10068440:   00 00 00 00 00 00 00 00 00 00 00 00 00 00 00 00    ................
    0x10068450:   00 00 00 00 00 00 00 00 00 00 00 00 00 00 00 00    ................
    0x10068460:   00 00 00 00 00 00 00 00 00 00 00 00 00 00 00 00    ................
    0x10068470:   00 00 00 00 00 00 00 00 00 00 00 00 00 00 00 00    ................
    0x10068480:   00 00 00 00 00 00 00 00 00 00 00 00 00 00 00 00    ................
    0x10068490:   00 00 00 00 00 00 00 00 00 00 00 00 00 00 00 00    ................
    0x100684a0:   00 00 00 00 00 00 00 00 00 00 00 00 00 00 00 00    ................
    0x100684b0:   00 00 00 00 00 00 00 00 00 00 00 00 00 00 00 00    ................
    0x100684c0:   00 00 00 00 00 00 00 00 00 00 00 00 00 00 00 00    ................
    0x100684d0:   00 00 00 00 00 00 00 00 00 00 00 00 00 00 00 00    ................
    0x100684e0:   00 00 00 00 00 00 00 00 00 00 00 00 00 00 00 00    ................
    0x100684f0:   00 00 00 00 00 00 00 00 00 00 00 00 00 00 00 00    ................
    0x10068500:   00 00 00 00 00 00 00 00 00 00 00 00 00 00 00 00    ................
    0x10068510:   00 00 00 00 00 00 00 00 00 00 00 00 00 00 00 00    ................
    0x10068520:   00 00 00 00 00 00 00 00 00 00 00 00 00 00 00 00    ................
    0x10068530:   00 00 00 00 00 00 00 00 00 00 00 00 00 00 00 00    ................
    0x10068540:   00 00 00 00 00 00 00 00 00 00 00 00 00 00 00 00    ................
    0x10068550:   00 00 00 00 00 00 00 00 00 00 00 00 00 00 00 00    ................
    0x10068560:   00 00 00 00 00 00 00 00 00 00 00 00 00 00 00 00    ................
    0x10068570:   00 00 00 00 00 00 00 00 00 00 00 00 00 00 00 00    ................
    0x10068580:   00 00 00 00 00 00 00 00 00 00 00 00 00 00 00 00    ................
    0x10068590:   00 00 00 00 00 00 00 00 00 00 00 00 00 00 00 00    ................
    0x100685a0:   00 00 00 00 00 00 00 00 00 00 00 00 00 00 00 00    ................
    0x100685b0:   00 00 00 00 00 00 00 00 00 00 00 00 00 00 00 00    ................
    0x100685c0:   00 00 00 00 00 00 00 00 00 00 00 00 00 00 00 00    ................
    0x100685d0:   00 00 00 00 00 00 00 00 00 00 00 00 00 00 00 00    ................
    0x100685e0:   00 00 00 00 00 00 00 00 00 00 00 00 00 00 00 00    ................
    0x100685f0:   00 00 00 00 00 00 00 00 00 00 00 00 00 00 00 00    ................
    0x10068600:   00 00 00 00 00 00 00 00 00 00 00 00 00 00 00 00    ................
    0x10068610:   00 00 00 00 00 00 00 00 00 00 00 00 00 00 00 00    ................
    0x10068620:   00 00 00 00 00 00 00 00 00 00 00 00 00 00 00 00    ................
    0x10068630:   00 00 00 00 00 00 00 00 00 00 00 00 00 00 00 00    ................
    0x10068640:   00 00 00 00 00 00 00 00 00 00 00 00 00 00 00 00    ................
    0x10068650:   00 00 00 00 00 00 00 00 00 00 00 00 00 00 00 00    ................
    0x10068660:   00 00 00 00 00 00 00 00 00 00 00 00 00 00 00 00    ................
    0x10068670:   00 00 00 00 00 00 00 00 00 00 00 00 00 00 00 00    ................
    0x10068680:   00 00 00 00 00 00 00 00 00 00 00 00 00 00 00 00    ................
    0x10068690:   00 00 00 00 00 00 00 00 00 00 00 00 00 00 00 00    ................
    0x100686a0:   00 00 00 00 00 00 00 00 00 00 00 00 00 00 00 00    ................
    0x100686b0:   00 00 00 00 00 00 00 00 00 00 00 00 00 00 00 00    ................
    0x100686c0:   00 00 00 00 00 00 00 00 00 00 00 00 00 00 00 00    ................
    0x100686d0:   00 00 00 00 00 00 00 00 00 00 00 00 00 00 00 00    ................
    0x100686e0:   00 00 00 00 00 00 00 00 00 00 00 00 00 00 00 00    ................
    0x100686f0:   00 00 00 00 00 00 00 00 00 00 00 00 00 00 00 00    ................
    0x10068700:   00 00 00 00 00 00 00 00 00 00 00 00 00 00 00 00    ................
    0x10068710:   00 00 00 00 00 00 00 00 00 00 00 00 00 00 00 00    ................
    0x10068720:   00 00 00 00 00 00 00 00 00 00 00 00 00 00 00 00    ................
    0x10068730:   00 00 00 00 00 00 00 00 00 00 00 00 00 00 00 00    ................
    0x10068740:   00 00 00 00 00 00 00 00 00 00 00 00 00 00 00 00    ................
    0x10068750:   00 00 00 00 00 00 00 00 00 00 00 00 00 00 00 00    ................
    0x10068760:   00 00 00 00 00 00 00 00 00 00 00 00 00 00 00 00    ................
    0x10068770:   00 00 00 00 00 00 00 00 00 00 00 00 00 00 00 00    ................
    0x10068780:   00 00 00 00 00 00 00 00 00 00 00 00 00 00 00 00    ................
    0x10068790:   00 00 00 00 00 00 00 00 00 00 00 00 00 00 00 00    ................
    0x100687a0:   00 00 00 00 00 00 00 00 00 00 00 00 00 00 00 00    ................
    0x100687b0:   00 00 00 00 00 00 00 00 00 00 00 00 00 00 00 00    ................
    0x100687c0:   00 00 00 00 00 00 00 00 00 00 00 00 00 00 00 00    ................
    0x100687d0:   00 00 00 00 00 00 00 00 00 00 00 00 00 00 00 00    ................
    0x100687e0:   00 00 00 00 00 00 00 00 00 00 00 00 00 00 00 00    ................
    0x100687f0:   00 00 00 00 00 00 00 00 00 00 00 00 00 00 00 00    ................
    0x10068800:   00 00 00 00 00 00 00 00 00 00 00 00 00 00 00 00    ................
    0x10068810:   00 00 00 00 00 00 00 00 00 00 00 00 00 00 00 00    ................
    0x10068820:   00 00 00 00 00 00 00 00 00 00 00 00 00 00 00 00    ................
    0x10068830:   00 00 00 00 00 00 00 00 00 00 00 00 00 00 00 00    ................
    0x10068840:   00 00 00 00 00 00 00 00 00 00 00 00 00 00 00 00    ................
    0x10068850:   00 00 00 00 00 00 00 00 00 00 00 00 00 00 00 00    ................
    0x10068860:   00 00 00 00 00 00 00 00 00 00 00 00 00 00 00 00    ................
    0x10068870:   00 00 00 00 00 00 00 00 00 00 00 00 00 00 00 00    ................
    0x10068880:   00 00 00 00 00 00 00 00 00 00 00 00 00 00 00 00    ................
    0x10068890:   00 00 00 00 00 00 00 00 00 00 00 00 00 00 00 00    ................
    0x100688a0:   00 00 00 00 00 00 00 00 00 00 00 00 00 00 00 00    ................
    0x100688b0:   00 00 00 00 00 00 00 00 00 00 00 00 00 00 00 00    ................
    0x100688c0:   00 00 00 00 00 00 00 00 00 00 00 00 00 00 00 00    ................
    0x100688d0:   00 00 00 00 00 00 00 00 00 00 00 00 00 00 00 00    ................
    0x100688e0:   00 00 00 00 00 00 00 00 00 00 00 00 00 00 00 00    ................
    0x100688f0:   00 00 00 00 00 00 00 00 00 00 00 00 00 00 00 00    ................
    0x10068900:   00 00 00 00 00 00 00 00 00 00 00 00 00 00 00 00    ................
    0x10068910:   00 00 00 00 00 00 00 00 00 00 00 00 00 00 00 00    ................
    0x10068920:   00 00 00 00 00 00 00 00 00 00 00 00 00 00 00 00    ................
    0x10068930:   00 00 00 00 00 00 00 00 00 00 00 00 00 00 00 00    ................
    0x10068940:   00 00 00 00 00 00 00 00 00 00 00 00 00 00 00 00    ................
    0x10068950:   00 00 00 00 00 00 00 00 00 00 00 00 00 00 00 00    ................
    0x10068960:   00 00 00 00 00 00 00 00 00 00 00 00 00 00 00 00    ................
    0x10068970:   00 00 00 00 00 00 00 00 00 00 00 00 00 00 00 00    ................
    0x10068980:   00 00 00 00 00 00 00 00 00 00 00 00 00 00 00 00    ................
    0x10068990:   00 00 00 00 00 00 00 00 00 00 00 00 00 00 00 00    ................
    0x100689a0:   00 00 00 00 00 00 00 00 00 00 00 00 00 00 00 00    ................
    0x100689b0:   00 00 00 00 00 00 00 00 00 00 00 00 00 00 00 00    ................
    0x100689c0:   00 00 00 00 00 00 00 00 00 00 00 00 00 00 00 00    ................
    0x100689d0:   00 00 00 00 00 00 00 00 00 00 00 00 00 00 00 00    ................
    0x100689e0:   00 00 00 00 00 00 00 00 00 00 00 00 00 00 00 00    ................
    0x100689f0:   00 00 00 00 00 00 00 00 00 00 00 00 00 00 00 00    ................
    0x10068a00:   00 00 00 00 00 00 00 00 00 00 00 00 00 00 00 00    ................
    0x10068a10:   00 00 00 00 00 00 00 00 00 00 00 00 00 00 00 00    ................
    0x10068a20:   00 00 00 00 00 00 00 00 00 00 00 00 00 00 00 00    ................
    0x10068a30:   00 00 00 00 00 00 00 00 00 00 00 00 00 00 00 00    ................
    0x10068a40:   00 00 00 00 00 00 00 00 00 00 00 00 00 00 00 00    ................
    0x10068a50:   00 00 00 00 00 00 00 00 00 00 00 00 00 00 00 00    ................
    0x10068a60:   00 00 00 00 00 00 00 00 00 00 00 00 00 00 00 00    ................
    0x10068a70:   00 00 00 00 00 00 00 00 00 00 00 00 00 00 00 00    ................
    0x10068a80:   00 00 00 00 00 00 00 00 00 00 00 00 00 00 00 00    ................
    0x10068a90:   00 00 00 00 00 00 00 00 00 00 00 00 00 00 00 00    ................
    0x10068aa0:   00 00 00 00 00 00 00 00 00 00 00 00 00 00 00 00    ................
    0x10068ab0:   00 00 00 00 00 00 00 00 00 00 00 00 00 00 00 00    ................
    0x10068ac0:   00 00 00 00 00 00 00 00 00 00 00 00 00 00 00 00    ................
    0x10068ad0:   00 00 00 00 00 00 00 00 00 00 00 00 00 00 00 00    ................
    0x10068ae0:   00 00 00 00 00 00 00 00 00 00 00 00 00 00 00 00    ................
    0x10068af0:   00 00 00 00 00 00 00 00 00 00 00 00 00 00 00 00    ................
    0x10068b00:   00 00 00 00 00 00 00 00 00 00 00 00 00 00 00 00    ................
    0x10068b10:   00 00 00 00 00 00 00 00 00 00 00 00 00 00 00 00    ................
    0x10068b20:   00 00 00 00 00 00 00 00 00 00 00 00 00 00 00 00    ................
    0x10068b30:   00 00 00 00 00 00 00 00 00 00 00 00 00 00 00 00    ................
    0x10068b40:   00 00 00 00 00 00 00 00 00 00 00 00 00 00 00 00    ................
    0x10068b50:   00 00 00 00 00 00 00 00 00 00 00 00 00 00 00 00    ................
    0x10068b60:   00 00 00 00 00 00 00 00 00 00 00 00 00 00 00 00    ................
    0x10068b70:   00 00 00 00 00 00 00 00 00 00 00 00 00 00 00 00    ................
    0x10068b80:   00 00 00 00 00 00 00 00 00 00 00 00 00 00 00 00    ................
    0x10068b90:   00 00 00 00 00 00 00 00 00 00 00 00 00 00 00 00    ................
    0x10068ba0:   00 00 00 00 00 00 00 00 00 00 00 00 00 00 00 00    ................
    0x10068bb0:   00 00 00 00 00 00 00 00 00 00 00 00 00 00 00 00    ................
    0x10068bc0:   00 00 00 00 00 00 00 00 00 00 00 00 00 00 00 00    ................
    0x10068bd0:   00 00 00 00 00 00 00 00 00 00 00 00 00 00 00 00    ................
    0x10068be0:   00 00 00 00 00 00 00 00 00 00 00 00 00 00 00 00    ................
    0x10068bf0:   00 00 00 00 00 00 00 00 00 00 00 00 00 00 00 00    ................
    0x10068c00:   00 00 00 00 00 00 00 00 00 00 00 00 00 00 00 00    ................
    0x10068c10:   00 00 00 00 00 00 00 00 00 00 00 00 00 00 00 00    ................
    0x10068c20:   00 00 00 00 00 00 00 00 00 00 00 00 00 00 00 00    ................
    0x10068c30:   00 00 00 00 00 00 00 00 00 00 00 00 00 00 00 00    ................
    0x10068c40:   00 00 00 00 00 00 00 00 00 00 00 00 00 00 00 00    ................
    0x10068c50:   00 00 00 00 00 00 00 00 00 00 00 00 00 00 00 00    ................
    0x10068c60:   00 00 00 00 00 00 00 00 00 00 00 00 00 00 00 00    ................
    0x10068c70:   00 00 00 00 00 00 00 00 00 00 00 00 00 00 00 00    ................
    0x10068c80:   00 00 00 00 00 00 00 00 00 00 00 00 00 00 00 00    ................
    0x10068c90:   00 00 00 00 00 00 00 00 00 00 00 00 00 00 00 00    ................
    0x10068ca0:   00 00 00 00 00 00 00 00 00 00 00 00 00 00 00 00    ................
    0x10068cb0:   00 00 00 00 00 00 00 00 00 00 00 00 00 00 00 00    ................
    0x10068cc0:   00 00 00 00 00 00 00 00 00 00 00 00 00 00 00 00    ................
    0x10068cd0:   00 00 00 00 00 00 00 00 00 00 00 00 00 00 00 00    ................
    0x10068ce0:   00 00 00 00 00 00 00 00 00 00 00 00 00 00 00 00    ................
    0x10068cf0:   00 00 00 00 00 00 00 00 00 00 00 00 00 00 00 00    ................
    0x10068d00:   00 00 00 00 00 00 00 00 00 00 00 00 00 00 00 00    ................
    0x10068d10:   00 00 00 00 00 00 00 00 00 00 00 00 00 00 00 00    ................
    0x10068d20:   00 00 00 00 00 00 00 00 00 00 00 00 00 00 00 00    ................
    0x10068d30:   00 00 00 00 00 00 00 00 00 00 00 00 00 00 00 00    ................
    0x10068d40:   00 00 00 00 00 00 00 00 00 00 00 00 00 00 00 00    ................
    0x10068d50:   00 00 00 00 00 00 00 00 00 00 00 00 00 00 00 00    ................
    0x10068d60:   00 00 00 00 00 00 00 00 00 00 00 00 00 00 00 00    ................
    0x10068d70:   00 00 00 00 00 00 00 00 00 00 00 00 00 00 00 00    ................
    0x10068d80:   00 00 00 00 00 00 00 00 00 00 00 00 00 00 00 00    ................
    0x10068d90:   00 00 00 00 00 00 00 00 00 00 00 00 00 00 00 00    ................
    0x10068da0:   00 00 00 00 00 00 00 00 00 00 00 00 00 00 00 00    ................
    0x10068db0:   00 00 00 00 00 00 00 00 00 00 00 00 00 00 00 00    ................
    0x10068dc0:   00 00 00 00 00 00 00 00 00 00 00 00 00 00 00 00    ................
    0x10068dd0:   00 00 00 00 00 00 00 00 00 00 00 00 00 00 00 00    ................
    0x10068de0:   00 00 00 00 00 00 00 00 00 00 00 00 00 00 00 00    ................
    0x10068df0:   00 00 00 00 00 00 00 00 00 00 00 00 00 00 00 00    ................
    0x10068e00:   00 00 00 00 00 00 00 00 00 00 00 00 00 00 00 00    ................
    0x10068e10:   00 00 00 00 00 00 00 00 00 00 00 00 00 00 00 00    ................
    0x10068e20:   00 00 00 00 00 00 00 00 00 00 00 00 00 00 00 00    ................
    0x10068e30:   00 00 00 00 00 00 00 00 00 00 00 00 00 00 00 00    ................
    0x10068e40:   00 00 00 00 00 00 00 00 00 00 00 00 00 00 00 00    ................
    0x10068e50:   00 00 00 00 00 00 00 00 00 00 00 00 00 00 00 00    ................
    0x10068e60:   00 00 00 00 00 00 00 00 00 00 00 00 00 00 00 00    ................
    0x10068e70:   00 00 00 00 00 00 00 00 00 00 00 00 00 00 00 00    ................
    0x10068e80:   00 00 00 00 00 00 00 00 00 00 00 00 00 00 00 00    ................
    0x10068e90:   00 00 00 00 00 00 00 00 00 00 00 00 00 00 00 00    ................
    0x10068ea0:   00 00 00 00 00 00 00 00 00 00 00 00 00 00 00 00    ................
    0x10068eb0:   00 00 00 00 00 00 00 00 00 00 00 00 00 00 00 00    ................
    0x10068ec0:   00 00 00 00 00 00 00 00 00 00 00 00 00 00 00 00    ................
    0x10068ed0:   00 00 00 00 00 00 00 00 00 00 00 00 00 00 00 00    ................
    0x10068ee0:   00 00 00 00 00 00 00 00 00 00 00 00 00 00 00 00    ................
    0x10068ef0:   00 00 00 00 00 00 00 00 00 00 00 00 00 00 00 00    ................
    0x10068f00:   00 00 00 00 00 00 00 00 00 00 00 00 00 00 00 00    ................
    0x10068f10:   00 00 00 00 00 00 00 00 00 00 00 00 00 00 00 00    ................
    0x10068f20:   00 00 00 00 00 00 00 00 00 00 00 00 00 00 00 00    ................
    0x10068f30:   00 00 00 00 00 00 00 00 00 00 00 00 00 00 00 00    ................
    0x10068f40:   00 00 00 00 00 00 00 00 00 00 00 00 00 00 00 00    ................
    0x10068f50:   00 00 00 00 00 00 00 00 00 00 00 00 00 00 00 00    ................
    0x10068f60:   00 00 00 00 00 00 00 00 00 00 00 00 00 00 00 00    ................
    0x10068f70:   00 00 00 00 00 00 00 00 00 00 00 00 00 00 00 00    ................
    0x10068f80:   00 00 00 00 00 00 00 00 00 00 00 00 00 00 00 00    ................
    0x10068f90:   00 00 00 00 00 00 00 00 00 00 00 00 00 00 00 00    ................
    0x10068fa0:   00 00 00 00 00 00 00 00 00 00 00 00 00 00 00 00    ................
    0x10068fb0:   00 00 00 00 00 00 00 00 00 00 00 00 00 00 00 00    ................
    0x10068fc0:   00 00 00 00 00 00 00 00 00 00 00 00 00 00 00 00    ................
    0x10068fd0:   00 00 00 00 00 00 00 00 00 00 00 00 00 00 00 00    ................
    0x10068fe0:   00 00 00 00 00 00 00 00 00 00 00 00 00 00 00 00    ................
    0x10068ff0:   00 00 00 00 00 00 00 00 00 00 00 00 00 00 00 00    ................
    0x10069000:   00 00 00 00 00 00 00 00 00 00 00 00 00 00 00 00    ................
    0x10069010:   00 00 00 00 00 00 00 00 00 00 00 00 00 00 00 00    ................
    0x10069020:   00 00 00 00 00 00 00 00 00 00 00 00 00 00 00 00    ................
    0x10069030:   00 00 00 00 00 00 00 00 00 00 00 00 00 00 00 00    ................
    0x10069040:   00 00 00 00 00 00 00 00 00 00 00 00 00 00 00 00    ................
    0x10069050:   00 00 00 00 00 00 00 00 00 00 00 00 00 00 00 00    ................
    0x10069060:   00 00 00 00 00 00 00 00 00 00 00 00 00 00 00 00    ................
    0x10069070:   00 00 00 00 00 00 00 00 00 00 00 00 00 00 00 00    ................
    0x10069080:   00 00 00 00 00 00 00 00 00 00 00 00 00 00 00 00    ................
    0x10069090:   00 00 00 00 00 00 00 00 00 00 00 00 00 00 00 00    ................
    0x100690a0:   00 00 00 00 00 00 00 00 00 00 00 00 00 00 00 00    ................
    0x100690b0:   00 00 00 00 00 00 00 00 00 00 00 00 00 00 00 00    ................
    0x100690c0:   00 00 00 00 00 00 00 00 00 00 00 00 00 00 00 00    ................
    0x100690d0:   00 00 00 00 00 00 00 00 00 00 00 00 00 00 00 00    ................
    0x100690e0:   00 00 00 00 00 00 00 00 00 00 00 00 00 00 00 00    ................
    0x100690f0:   00 00 00 00 00 00 00 00 00 00 00 00 00 00 00 00    ................
    0x10069100:   00 00 00 00 00 00 00 00 00 00 00 00 00 00 00 00    ................
    0x10069110:   00 00 00 00 00 00 00 00 00 00 00 00 00 00 00 00    ................
    0x10069120:   00 00 00 00 00 00 00 00 00 00 00 00 00 00 00 00    ................
    0x10069130:   00 00 00 00 00 00 00 00 00 00 00 00 00 00 00 00    ................
    0x10069140:   00 00 00 00 00 00 00 00 00 00 00 00 00 00 00 00    ................
    0x10069150:   00 00 00 00 00 00 00 00 00 00 00 00 00 00 00 00    ................
    0x10069160:   00 00 00 00 00 00 00 00 00 00 00 00 00 00 00 00    ................
    0x10069170:   00 00 00 00 00 00 00 00 00 00 00 00 00 00 00 00    ................
    0x10069180:   00 00 00 00 00 00 00 00 00 00 00 00 00 00 00 00    ................
    0x10069190:   00 00 00 00 00 00 00 00 00 00 00 00 00 00 00 00    ................
    0x100691a0:   00 00 00 00 00 00 00 00 00 00 00 00 00 00 00 00    ................
    0x100691b0:   00 00 00 00 00 00 00 00 00 00 00 00 00 00 00 00    ................
    0x100691c0:   00 00 00 00 00 00 00 00 00 00 00 00 00 00 00 00    ................
    0x100691d0:   00 00 00 00 00 00 00 00 00 00 00 00 00 00 00 00    ................
    0x100691e0:   00 00 00 00 00 00 00 00 00 00 00 00 00 00 00 00    ................
    0x100691f0:   00 00 00 00 00 00 00 00 00 00 00 00 00 00 00 00    ................
    0x10069200:   00 00 00 00 00 00 00 00 00 00 00 00 00 00 00 00    ................
    0x10069210:   00 00 00 00 00 00 00 00 00 00 00 00 00 00 00 00    ................
    0x10069220:   00 00 00 00 00 00 00 00 00 00 00 00 00 00 00 00    ................
    0x10069230:   00 00 00 00 00 00 00 00 00 00 00 00 00 00 00 00    ................
    0x10069240:   00 00 00 00 00 00 00 00 00 00 00 00 00 00 00 00    ................
    0x10069250:   00 00 00 00 00 00 00 00 00 00 00 00 00 00 00 00    ................
    0x10069260:   00 00 00 00 00 00 00 00 00 00 00 00 00 00 00 00    ................
    0x10069270:   00 00 00 00 00 00 00 00 00 00 00 00 00 00 00 00    ................
    0x10069280:   00 00 00 00 00 00 00 00 00 00 00 00 00 00 00 00    ................
    0x10069290:   00 00 00 00 00 00 00 00 00 00 00 00 00 00 00 00    ................
    0x100692a0:   00 00 00 00 00 00 00 00 00 00 00 00 00 00 00 00    ................
    0x100692b0:   00 00 00 00 00 00 00 00 00 00 00 00 00 00 00 00    ................
    0x100692c0:   00 00 00 00 00 00 00 00 00 00 00 00 00 00 00 00    ................
    0x100692d0:   00 00 00 00 00 00 00 00 00 00 00 00 00 00 00 00    ................
    0x100692e0:   00 00 00 00 00 00 00 00 00 00 00 00 00 00 00 00    ................
    0x100692f0:   00 00 00 00 00 00 00 00 00 00 00 00 00 00 00 00    ................
    0x10069300:   00 00 00 00 00 00 00 00 00 00 00 00 00 00 00 00    ................
    0x10069310:   00 00 00 00 00 00 00 00 00 00 00 00 00 00 00 00    ................
    0x10069320:   00 00 00 00 00 00 00 00 00 00 00 00 00 00 00 00    ................
    0x10069330:   00 00 00 00 00 00 00 00 00 00 00 00 00 00 00 00    ................
    0x10069340:   00 00 00 00 00 00 00 00 00 00 00 00 00 00 00 00    ................
    0x10069350:   00 00 00 00 00 00 00 00 00 00 00 00 00 00 00 00    ................
    0x10069360:   00 00 00 00 00 00 00 00 00 00 00 00 00 00 00 00    ................
    0x10069370:   00 00 00 00 00 00 00 00 00 00 00 00 00 00 00 00    ................
    0x10069380:   00 00 00 00 00 00 00 00 00 00 00 00 00 00 00 00    ................
    0x10069390:   00 00 00 00 00 00 00 00 00 00 00 00 00 00 00 00    ................
    0x100693a0:   00 00 00 00 00 00 00 00 00 00 00 00 00 00 00 00    ................
    0x100693b0:   00 00 00 00 00 00 00 00 00 00 00 00 00 00 00 00    ................
    0x100693c0:   00 00 00 00 00 00 00 00 00 00 00 00 00 00 00 00    ................
    0x100693d0:   00 00 00 00 00 00 00 00 00 00 00 00 00 00 00 00    ................
    0x100693e0:   00 00 00 00 00 00 00 00 00 00 00 00 00 00 00 00    ................
    0x100693f0:   00 00 00 00 00 00 00 00 00 00 00 00 00 00 00 00    ................
    0x10069400:   00 00 00 00 00 00 00 00 00 00 00 00 00 00 00 00    ................
    0x10069410:   00 00 00 00 00 00 00 00 00 00 00 00 00 00 00 00    ................
    0x10069420:   00 00 00 00 00 00 00 00 00 00 00 00 00 00 00 00    ................
    0x10069430:   00 00 00 00 00 00 00 00 00 00 00 00 00 00 00 00    ................
    0x10069440:   00 00 00 00 00 00 00 00 00 00 00 00 00 00 00 00    ................
    0x10069450:   00 00 00 00 00 00 00 00 00 00 00 00 00 00 00 00    ................
    0x10069460:   00 00 00 00 00 00 00 00 00 00 00 00 00 00 00 00    ................
    0x10069470:   00 00 00 00 00 00 00 00 00 00 00 00 00 00 00 00    ................
    0x10069480:   00 00 00 00 00 00 00 00 00 00 00 00 00 00 00 00    ................
    0x10069490:   00 00 00 00 00 00 00 00 00 00 00 00 00 00 00 00    ................
    0x100694a0:   00 00 00 00 00 00 00 00 00 00 00 00 00 00 00 00    ................
    0x100694b0:   00 00 00 00 00 00 00 00 00 00 00 00 00 00 00 00    ................
    0x100694c0:   00 00 00 00 00 00 00 00 00 00 00 00 00 00 00 00    ................
    0x100694d0:   00 00 00 00 00 00 00 00 00 00 00 00 00 00 00 00    ................
    0x100694e0:   00 00 00 00 00 00 00 00 00 00 00 00 00 00 00 00    ................
    0x100694f0:   00 00 00 00 00 00 00 00 00 00 00 00 00 00 00 00    ................
    0x10069500:   00 00 00 00 00 00 00 00 00 00 00 00 00 00 00 00    ................
    0x10069510:   00 00 00 00 00 00 00 00 00 00 00 00 00 00 00 00    ................
    0x10069520:   00 00 00 00 00 00 00 00 00 00 00 00 00 00 00 00    ................
    0x10069530:   00 00 00 00 00 00 00 00 00 00 00 00 00 00 00 00    ................
    0x10069540:   00 00 00 00 00 00 00 00 00 00 00 00 00 00 00 00    ................
    0x10069550:   00 00 00 00 00 00 00 00 00 00 00 00 00 00 00 00    ................
    0x10069560:   00 00 00 00 00 00 00 00 00 00 00 00 00 00 00 00    ................
    0x10069570:   00 00 00 00 00 00 00 00 00 00 00 00 00 00 00 00    ................
    0x10069580:   00 00 00 00 00 00 00 00 00 00 00 00 00 00 00 00    ................
    0x10069590:   00 00 00 00 00 00 00 00 00 00 00 00 00 00 00 00    ................
    0x100695a0:   00 00 00 00 00 00 00 00 00 00 00 00 00 00 00 00    ................
    0x100695b0:   00 00 00 00 00 00 00 00 00 00 00 00 00 00 00 00    ................
    0x100695c0:   00 00 00 00 00 00 00 00 00 00 00 00 00 00 00 00    ................
    0x100695d0:   00 00 00 00 00 00 00 00 00 00 00 00 00 00 00 00    ................
    0x100695e0:   00 00 00 00 00 00 00 00 00 00 00 00 00 00 00 00    ................
    0x100695f0:   00 00 00 00 00 00 00 00 00 00 00 00 00 00 00 00    ................
    0x10069600:   00 00 00 00 00 00 00 00 00 00 00 00 00 00 00 00    ................
    0x10069610:   00 00 00 00 00 00 00 00 00 00 00 00 00 00 00 00    ................
    0x10069620:   00 00 00 00 00 00 00 00 00 00 00 00 00 00 00 00    ................
    0x10069630:   00 00 00 00 00 00 00 00 00 00 00 00 00 00 00 00    ................
    0x10069640:   00 00 00 00 00 00 00 00 00 00 00 00 00 00 00 00    ................
    0x10069650:   00 00 00 00 00 00 00 00 00 00 00 00 00 00 00 00    ................
    0x10069660:   00 00 00 00 00 00 00 00 00 00 00 00 00 00 00 00    ................
    0x10069670:   00 00 00 00 00 00 00 00 00 00 00 00 00 00 00 00    ................
    0x10069680:   00 00 00 00 00 00 00 00 00 00 00 00 00 00 00 00    ................
    0x10069690:   00 00 00 00 00 00 00 00 00 00 00 00 00 00 00 00    ................
    0x100696a0:   00 00 00 00 00 00 00 00 00 00 00 00 00 00 00 00    ................
    0x100696b0:   00 00 00 00 00 00 00 00 00 00 00 00 00 00 00 00    ................
    0x100696c0:   00 00 00 00 00 00 00 00 00 00 00 00 00 00 00 00    ................
    0x100696d0:   00 00 00 00 00 00 00 00 00 00 00 00 00 00 00 00    ................
    0x100696e0:   00 00 00 00 00 00 00 00 00 00 00 00 00 00 00 00    ................
    0x100696f0:   00 00 00 00 00 00 00 00 00 00 00 00 00 00 00 00    ................
    0x10069700:   00 00 00 00 00 00 00 00 00 00 00 00 00 00 00 00    ................
    0x10069710:   00 00 00 00 00 00 00 00 00 00 00 00 00 00 00 00    ................
    0x10069720:   00 00 00 00 00 00 00 00 00 00 00 00 00 00 00 00    ................
    0x10069730:   00 00 00 00 00 00 00 00 00 00 00 00 00 00 00 00    ................
    0x10069740:   00 00 00 00 00 00 00 00 00 00 00 00 00 00 00 00    ................
    0x10069750:   00 00 00 00 00 00 00 00 00 00 00 00 00 00 00 00    ................
    0x10069760:   00 00 00 00 00 00 00 00 00 00 00 00 00 00 00 00    ................
    0x10069770:   00 00 00 00 00 00 00 00 00 00 00 00 00 00 00 00    ................
    0x10069780:   00 00 00 00 00 00 00 00 00 00 00 00 00 00 00 00    ................
    0x10069790:   00 00 00 00 00 00 00 00 00 00 00 00 00 00 00 00    ................
    0x100697a0:   00 00 00 00 00 00 00 00 00 00 00 00 00 00 00 00    ................
    0x100697b0:   00 00 00 00 00 00 00 00 00 00 00 00 00 00 00 00    ................
    0x100697c0:   00 00 00 00 00 00 00 00 00 00 00 00 00 00 00 00    ................
    0x100697d0:   00 00 00 00 00 00 00 00 00 00 00 00 00 00 00 00    ................
    0x100697e0:   00 00 00 00 00 00 00 00 00 00 00 00 00 00 00 00    ................
    0x100697f0:   00 00 00 00 00 00 00 00 00 00 00 00 00 00 00 00    ................
    0x10069800:   00 00 00 00 00 00 00 00 00 00 00 00 00 00 00 00    ................
    0x10069810:   00 00 00 00 00 00 00 00 00 00 00 00 00 00 00 00    ................
    0x10069820:   00 00 00 00 00 00 00 00 00 00 00 00 00 00 00 00    ................
    0x10069830:   00 00 00 00 00 00 00 00 00 00 00 00 00 00 00 00    ................
    0x10069840:   00 00 00 00 00 00 00 00 00 00 00 00 00 00 00 00    ................
    0x10069850:   00 00 00 00 00 00 00 00 00 00 00 00 00 00 00 00    ................
    0x10069860:   00 00 00 00 00 00 00 00 00 00 00 00 00 00 00 00    ................
    0x10069870:   00 00 00 00 00 00 00 00 00 00 00 00 00 00 00 00    ................
    0x10069880:   00 00 00 00 00 00 00 00 00 00 00 00 00 00 00 00    ................
    0x10069890:   00 00 00 00 00 00 00 00 00 00 00 00 00 00 00 00    ................
    0x100698a0:   00 00 00 00 00 00 00 00 00 00 00 00 00 00 00 00    ................
    0x100698b0:   00 00 00 00 00 00 00 00 00 00 00 00 00 00 00 00    ................
    0x100698c0:   00 00 00 00 00 00 00 00 00 00 00 00 00 00 00 00    ................
    0x100698d0:   00 00 00 00 00 00 00 00 00 00 00 00 00 00 00 00    ................
    0x100698e0:   00 00 00 00 00 00 00 00 00 00 00 00 00 00 00 00    ................
    0x100698f0:   00 00 00 00 00 00 00 00 00 00 00 00 00 00 00 00    ................
    0x10069900:   00 00 00 00 00 00 00 00 00 00 00 00 00 00 00 00    ................
    0x10069910:   00 00 00 00 00 00 00 00 00 00 00 00 00 00 00 00    ................
    0x10069920:   00 00 00 00 00 00 00 00 00 00 00 00 00 00 00 00    ................
    0x10069930:   00 00 00 00 00 00 00 00 00 00 00 00 00 00 00 00    ................
    0x10069940:   00 00 00 00 00 00 00 00 00 00 00 00 00 00 00 00    ................
    0x10069950:   00 00 00 00 00 00 00 00 00 00 00 00 00 00 00 00    ................
    0x10069960:   00 00 00 00 00 00 00 00 00 00 00 00 00 00 00 00    ................
    0x10069970:   00 00 00 00 00 00 00 00 00 00 00 00 00 00 00 00    ................
    0x10069980:   00 00 00 00 00 00 00 00 00 00 00 00 00 00 00 00    ................
    0x10069990:   00 00 00 00 00 00 00 00 00 00 00 00 00 00 00 00    ................
    0x100699a0:   00 00 00 00 00 00 00 00 00 00 00 00 00 00 00 00    ................
    0x100699b0:   00 00 00 00 00 00 00 00 00 00 00 00 00 00 00 00    ................
    0x100699c0:   00 00 00 00 00 00 00 00 00 00 00 00 00 00 00 00    ................
    0x100699d0:   00 00 00 00 00 00 00 00 00 00 00 00 00 00 00 00    ................
    0x100699e0:   00 00 00 00 00 00 00 00 00 00 00 00 00 00 00 00    ................
    0x100699f0:   00 00 00 00 00 00 00 00 00 00 00 00 00 00 00 00    ................
    0x10069a00:   00 00 00 00 00 00 00 00 00 00 00 00 00 00 00 00    ................
    0x10069a10:   00 00 00 00 00 00 00 00 00 00 00 00 00 00 00 00    ................
    0x10069a20:   00 00 00 00 00 00 00 00 00 00 00 00 00 00 00 00    ................
    0x10069a30:   00 00 00 00 00 00 00 00 00 00 00 00 00 00 00 00    ................
    0x10069a40:   00 00 00 00 00 00 00 00 00 00 00 00 00 00 00 00    ................
    0x10069a50:   00 00 00 00 00 00 00 00 00 00 00 00 00 00 00 00    ................
    0x10069a60:   00 00 00 00 00 00 00 00 00 00 00 00 00 00 00 00    ................
    0x10069a70:   00 00 00 00 00 00 00 00 00 00 00 00 00 00 00 00    ................
    0x10069a80:   00 00 00 00 00 00 00 00 00 00 00 00 00 00 00 00    ................
    0x10069a90:   00 00 00 00 00 00 00 00 00 00 00 00 00 00 00 00    ................
    0x10069aa0:   00 00 00 00 00 00 00 00 00 00 00 00 00 00 00 00    ................
    0x10069ab0:   00 00 00 00 00 00 00 00 00 00 00 00 00 00 00 00    ................
    0x10069ac0:   00 00 00 00 00 00 00 00 00 00 00 00 00 00 00 00    ................
    0x10069ad0:   00 00 00 00 00 00 00 00 00 00 00 00 00 00 00 00    ................
    0x10069ae0:   00 00 00 00 00 00 00 00 00 00 00 00 00 00 00 00    ................
    0x10069af0:   00 00 00 00 00 00 00 00 00 00 00 00 00 00 00 00    ................
    0x10069b00:   00 00 00 00 00 00 00 00 00 00 00 00 00 00 00 00    ................
    0x10069b10:   00 00 00 00 00 00 00 00 00 00 00 00 00 00 00 00    ................
    0x10069b20:   00 00 00 00 00 00 00 00 00 00 00 00 00 00 00 00    ................
    0x10069b30:   00 00 00 00 00 00 00 00 00 00 00 00 00 00 00 00    ................
    0x10069b40:   00 00 00 00 00 00 00 00 00 00 00 00 00 00 00 00    ................
    0x10069b50:   00 00 00 00 00 00 00 00 00 00 00 00 00 00 00 00    ................
    0x10069b60:   00 00 00 00 00 00 00 00 00 00 00 00 00 00 00 00    ................
    0x10069b70:   00 00 00 00 00 00 00 00 00 00 00 00 00 00 00 00    ................
    0x10069b80:   00 00 00 00 00 00 00 00 00 00 00 00 00 00 00 00    ................
    0x10069b90:   00 00 00 00 00 00 00 00 00 00 00 00 00 00 00 00    ................
    0x10069ba0:   00 00 00 00 00 00 00 00 00 00 00 00 00 00 00 00    ................
    0x10069bb0:   00 00 00 00 00 00 00 00 00 00 00 00 00 00 00 00    ................
    0x10069bc0:   00 00 00 00 00 00 00 00 00 00 00 00 00 00 00 00    ................
    0x10069bd0:   00 00 00 00 00 00 00 00 00 00 00 00 00 00 00 00    ................
    0x10069be0:   00 00 00 00 00 00 00 00 00 00 00 00 00 00 00 00    ................
    0x10069bf0:   00 00 00 00 00 00 00 00 00 00 00 00 00 00 00 00    ................
    0x10069c00:   00 00 00 00 00 00 00 00 00 00 00 00 00 00 00 00    ................
    0x10069c10:   00 00 00 00 00 00 00 00 00 00 00 00 00 00 00 00    ................
    0x10069c20:   00 00 00 00 00 00 00 00 00 00 00 00 00 00 00 00    ................
    0x10069c30:   00 00 00 00 00 00 00 00 00 00 00 00 00 00 00 00    ................
    0x10069c40:   00 00 00 00 00 00 00 00 00 00 00 00 00 00 00 00    ................
    0x10069c50:   00 00 00 00 00 00 00 00 00 00 00 00 00 00 00 00    ................
    0x10069c60:   00 00 00 00 00 00 00 00 00 00 00 00 00 00 00 00    ................
    0x10069c70:   00 00 00 00 00 00 00 00 00 00 00 00 00 00 00 00    ................
    0x10069c80:   00 00 00 00 00 00 00 00 00 00 00 00 00 00 00 00    ................
    0x10069c90:   00 00 00 00 00 00 00 00 00 00 00 00 00 00 00 00    ................
    0x10069ca0:   00 00 00 00 00 00 00 00 00 00 00 00 00 00 00 00    ................
    0x10069cb0:   00 00 00 00 00 00 00 00 00 00 00 00 00 00 00 00    ................
    0x10069cc0:   00 00 00 00 00 00 00 00 00 00 00 00 00 00 00 00    ................
    0x10069cd0:   00 00 00 00 00 00 00 00 00 00 00 00 00 00 00 00    ................
    0x10069ce0:   00 00 00 00 00 00 00 00 00 00 00 00 00 00 00 00    ................
    0x10069cf0:   00 00 00 00 00 00 00 00 00 00 00 00 00 00 00 00    ................
    0x10069d00:   00 00 00 00 00 00 00 00 00 00 00 00 00 00 00 00    ................
    0x10069d10:   00 00 00 00 00 00 00 00 00 00 00 00 00 00 00 00    ................
    0x10069d20:   00 00 00 00 00 00 00 00 00 00 00 00 00 00 00 00    ................
    0x10069d30:   00 00 00 00 00 00 00 00 00 00 00 00 00 00 00 00    ................
    0x10069d40:   00 00 00 00 00 00 00 00 00 00 00 00 00 00 00 00    ................
    0x10069d50:   00 00 00 00 00 00 00 00 00 00 00 00 00 00 00 00    ................
    0x10069d60:   00 00 00 00 00 00 00 00 00 00 00 00 00 00 00 00    ................
    0x10069d70:   00 00 00 00 00 00 00 00 00 00 00 00 00 00 00 00    ................
    0x10069d80:   00 00 00 00 00 00 00 00 00 00 00 00 00 00 00 00    ................
    0x10069d90:   00 00 00 00 00 00 00 00 00 00 00 00 00 00 00 00    ................
    0x10069da0:   00 00 00 00 00 00 00 00 00 00 00 00 00 00 00 00    ................
    0x10069db0:   00 00 00 00 00 00 00 00 00 00 00 00 00 00 00 00    ................
    0x10069dc0:   00 00 00 00 00 00 00 00 00 00 00 00 00 00 00 00    ................
    0x10069dd0:   00 00 00 00 00 00 00 00 00 00 00 00 00 00 00 00    ................
    0x10069de0:   00 00 00 00 00 00 00 00 00 00 00 00 00 00 00 00    ................
    0x10069df0:   00 00 00 00 00 00 00 00 00 00 00 00 00 00 00 00    ................
    0x10069e00:   00 00 00 00 00 00 00 00 00 00 00 00 00 00 00 00    ................
    0x10069e10:   00 00 00 00 00 00 00 00 00 00 00 00 00 00 00 00    ................
    0x10069e20:   00 00 00 00 00 00 00 00 00 00 00 00 00 00 00 00    ................
    0x10069e30:   00 00 00 00 00 00 00 00 00 00 00 00 00 00 00 00    ................
    0x10069e40:   00 00 00 00 00 00 00 00 00 00 00 00 00 00 00 00    ................
    0x10069e50:   00 00 00 00 00 00 00 00 00 00 00 00 00 00 00 00    ................
    0x10069e60:   00 00 00 00 00 00 00 00 00 00 00 00 00 00 00 00    ................
    0x10069e70:   00 00 00 00 00 00 00 00 00 00 00 00 00 00 00 00    ................
    0x10069e80:   00 00 00 00 00 00 00 00 00 00 00 00 00 00 00 00    ................
    0x10069e90:   00 00 00 00 00 00 00 00 00 00 00 00 00 00 00 00    ................
    0x10069ea0:   00 00 00 00 00 00 00 00 00 00 00 00 00 00 00 00    ................
    0x10069eb0:   00 00 00 00 00 00 00 00 00 00 00 00 00 00 00 00    ................
    0x10069ec0:   00 00 00 00 00 00 00 00 00 00 00 00 00 00 00 00    ................
    0x10069ed0:   00 00 00 00 00 00 00 00 00 00 00 00 00 00 00 00    ................
    0x10069ee0:   00 00 00 00 00 00 00 00 00 00 00 00 00 00 00 00    ................
    0x10069ef0:   00 00 00 00 00 00 00 00 00 00 00 00 00 00 00 00    ................
    0x10069f00:   00 00 00 00 00 00 00 00 00 00 00 00 00 00 00 00    ................
    0x10069f10:   00 00 00 00 00 00 00 00 00 00 00 00 00 00 00 00    ................
    0x10069f20:   00 00 00 00 00 00 00 00 00 00 00 00 00 00 00 00    ................
    0x10069f30:   00 00 00 00 00 00 00 00 00 00 00 00 00 00 00 00    ................
    0x10069f40:   00 00 00 00 00 00 00 00 00 00 00 00 00 00 00 00    ................
    0x10069f50:   00 00 00 00 00 00 00 00 00 00 00 00 00 00 00 00    ................
    0x10069f60:   00 00 00 00 00 00 00 00 00 00 00 00 00 00 00 00    ................
    0x10069f70:   00 00 00 00 00 00 00 00 00 00 00 00 00 00 00 00    ................
    0x10069f80:   00 00 00 00 00 00 00 00 00 00 00 00 00 00 00 00    ................
    0x10069f90:   00 00 00 00 00 00 00 00 00 00 00 00 00 00 00 00    ................
    0x10069fa0:   00 00 00 00 00 00 00 00 00 00 00 00 00 00 00 00    ................
    0x10069fb0:   00 00 00 00 00 00 00 00 00 00 00 00 00 00 00 00    ................
    0x10069fc0:   00 00 00 00 00 00 00 00 00 00 00 00 00 00 00 00    ................
    0x10069fd0:   00 00 00 00 00 00 00 00 00 00 00 00 00 00 00 00    ................
    0x10069fe0:   00 00 00 00 00 00 00 00 00 00 00 00 00 00 00 00    ................
    0x10069ff0:   00 00 00 00 00 00 00 00 00 00 00 00 00 00 00 00    ................
    0x1006a000:   00 00 00 00 00 00 00 00 00 00 00 00 00 00 00 00    ................
    0x1006a010:   00 00 00 00 00 00 00 00 00 00 00 00 00 00 00 00    ................
    0x1006a020:   00 00 00 00 00 00 00 00 00 00 00 00 00 00 00 00    ................
    0x1006a030:   00 00 00 00 00 00 00 00 00 00 00 00 00 00 00 00    ................
    0x1006a040:   00 00 00 00 00 00 00 00 00 00 00 00 00 00 00 00    ................
    0x1006a050:   00 00 00 00 00 00 00 00 00 00 00 00 00 00 00 00    ................
    0x1006a060:   00 00 00 00 00 00 00 00 00 00 00 00 00 00 00 00    ................
    0x1006a070:   00 00 00 00 00 00 00 00 00 00 00 00 00 00 00 00    ................
    0x1006a080:   00 00 00 00 00 00 00 00 00 00 00 00 00 00 00 00    ................
    0x1006a090:   00 00 00 00 00 00 00 00 00 00 00 00 00 00 00 00    ................
    0x1006a0a0:   00 00 00 00 00 00 00 00 00 00 00 00 00 00 00 00    ................
    0x1006a0b0:   00 00 00 00 00 00 00 00 00 00 00 00 00 00 00 00    ................
    0x1006a0c0:   00 00 00 00 00 00 00 00 00 00 00 00 00 00 00 00    ................
    0x1006a0d0:   00 00 00 00 00 00 00 00 00 00 00 00 00 00 00 00    ................
    0x1006a0e0:   00 00 00 00 00 00 00 00 00 00 00 00 00 00 00 00    ................
    0x1006a0f0:   00 00 00 00 00 00 00 00 00 00 00 00 00 00 00 00    ................
    0x1006a100:   00 00 00 00 00 00 00 00 00 00 00 00 00 00 00 00    ................
    0x1006a110:   00 00 00 00 00 00 00 00 00 00 00 00 00 00 00 00    ................
    0x1006a120:   00 00 00 00 00 00 00 00 00 00 00 00 00 00 00 00    ................
    0x1006a130:   00 00 00 00 00 00 00 00 00 00 00 00 00 00 00 00    ................
    0x1006a140:   00 00 00 00 00 00 00 00 00 00 00 00 00 00 00 00    ................
    0x1006a150:   00 00 00 00 00 00 00 00 00 00 00 00 00 00 00 00    ................
    0x1006a160:   00 00 00 00 00 00 00 00 00 00 00 00 00 00 00 00    ................
    0x1006a170:   00 00 00 00 00 00 00 00 00 00 00 00 00 00 00 00    ................
    0x1006a180:   00 00 00 00 00 00 00 00 00 00 00 00 00 00 00 00    ................
    0x1006a190:   00 00 00 00 00 00 00 00 00 00 00 00 00 00 00 00    ................
    0x1006a1a0:   00 00 00 00 00 00 00 00 00 00 00 00 00 00 00 00    ................
    0x1006a1b0:   00 00 00 00 00 00 00 00 00 00 00 00 00 00 00 00    ................
    0x1006a1c0:   00 00 00 00 00 00 00 00 00 00 00 00 00 00 00 00    ................
    0x1006a1d0:   00 00 00 00 00 00 00 00 00 00 00 00 00 00 00 00    ................
    0x1006a1e0:   00 00 00 00 00 00 00 00 00 00 00 00 00 00 00 00    ................
    0x1006a1f0:   00 00 00 00 00 00 00 00 00 00 00 00 00 00 00 00    ................
    0x1006a200:   00 00 00 00 00 00 00 00 00 00 00 00 00 00 00 00    ................
    0x1006a210:   00 00 00 00 00 00 00 00 00 00 00 00 00 00 00 00    ................
    0x1006a220:   00 00 00 00 00 00 00 00 00 00 00 00 00 00 00 00    ................
    0x1006a230:   00 00 00 00 00 00 00 00 00 00 00 00 00 00 00 00    ................
    0x1006a240:   00 00 00 00 00 00 00 00 00 00 00 00 00 00 00 00    ................
    0x1006a250:   00 00 00 00 00 00 00 00 00 00 00 00 00 00 00 00    ................
    0x1006a260:   00 00 00 00 00 00 00 00 00 00 00 00 00 00 00 00    ................
    0x1006a270:   00 00 00 00 00 00 00 00 00 00 00 00 00 00 00 00    ................
    0x1006a280:   00 00 00 00 00 00 00 00 00 00 00 00 00 00 00 00    ................
    0x1006a290:   00 00 00 00 00 00 00 00 00 00 00 00 00 00 00 00    ................
    0x1006a2a0:   00 00 00 00 00 00 00 00 00 00 00 00 00 00 00 00    ................
    0x1006a2b0:   00 00 00 00 00 00 00 00 00 00 00 00 00 00 00 00    ................
    0x1006a2c0:   00 00 00 00 00 00 00 00 00 00 00 00 00 00 00 00    ................
    0x1006a2d0:   00 00 00 00 00 00 00 00 00 00 00 00 00 00 00 00    ................
    0x1006a2e0:   00 00 00 00 00 00 00 00 00 00 00 00 00 00 00 00    ................
    0x1006a2f0:   00 00 00 00 00 00 00 00 00 00 00 00 00 00 00 00    ................
    0x1006a300:   00 00 00 00 00 00 00 00 00 00 00 00 00 00 00 00    ................
    0x1006a310:   00 00 00 00 00 00 00 00 00 00 00 00 00 00 00 00    ................
    0x1006a320:   00 00 00 00 00 00 00 00 00 00 00 00 00 00 00 00    ................
    0x1006a330:   00 00 00 00 00 00 00 00 00 00 00 00 00 00 00 00    ................
    0x1006a340:   00 00 00 00 00 00 00 00 00 00 00 00 00 00 00 00    ................
    0x1006a350:   00 00 00 00 00 00 00 00 00 00 00 00 00 00 00 00    ................
    0x1006a360:   00 00 00 00 00 00 00 00 00 00 00 00 00 00 00 00    ................
    0x1006a370:   00 00 00 00 00 00 00 00 00 00 00 00 00 00 00 00    ................
    0x1006a380:   00 00 00 00 00 00 00 00 00 00 00 00 00 00 00 00    ................
    0x1006a390:   00 00 00 00 00 00 00 00 00 00 00 00 00 00 00 00    ................
    0x1006a3a0:   00 00 00 00 00 00 00 00 00 00 00 00 00 00 00 00    ................
    0x1006a3b0:   00 00 00 00 00 00 00 00 00 00 00 00 00 00 00 00    ................
    0x1006a3c0:   00 00 00 00 00 00 00 00 00 00 00 00 00 00 00 00    ................
    0x1006a3d0:   00 00 00 00 00 00 00 00 00 00 00 00 00 00 00 00    ................
    0x1006a3e0:   00 00 00 00 00 00 00 00 00 00 00 00 00 00 00 00    ................
    0x1006a3f0:   00 00 00 00 00 00 00 00 00 00 00 00 00 00 00 00    ................
    0x1006a400:   00 00 00 00 00 00 00 00 00 00 00 00 00 00 00 00    ................
    0x1006a410:   00 00 00 00 00 00 00 00 00 00 00 00 00 00 00 00    ................
    0x1006a420:   00 00 00 00 00 00 00 00 00 00 00 00 00 00 00 00    ................
    0x1006a430:   00 00 00 00 00 00 00 00 00 00 00 00 00 00 00 00    ................
    0x1006a440:   00 00 00 00 00 00 00 00 00 00 00 00 00 00 00 00    ................
    0x1006a450:   00 00 00 00 00 00 00 00 00 00 00 00 00 00 00 00    ................
    0x1006a460:   00 00 00 00 00 00 00 00 00 00 00 00 00 00 00 00    ................
    0x1006a470:   00 00 00 00 00 00 00 00 00 00 00 00 00 00 00 00    ................
    0x1006a480:   00 00 00 00 00 00 00 00 00 00 00 00 00 00 00 00    ................
    0x1006a490:   00 00 00 00 00 00 00 00 00 00 00 00 00 00 00 00    ................
    0x1006a4a0:   00 00 00 00 00 00 00 00 00 00 00 00 00 00 00 00    ................
    0x1006a4b0:   00 00 00 00 00 00 00 00 00 00 00 00 00 00 00 00    ................
    0x1006a4c0:   00 00 00 00 00 00 00 00 00 00 00 00 00 00 00 00    ................
    0x1006a4d0:   00 00 00 00 00 00 00 00 00 00 00 00 00 00 00 00    ................
    0x1006a4e0:   00 00 00 00 00 00 00 00 00 00 00 00 00 00 00 00    ................
    0x1006a4f0:   00 00 00 00 00 00 00 00 00 00 00 00 00 00 00 00    ................
    0x1006a500:   00 00 00 00 00 00 00 00 00 00 00 00 00 00 00 00    ................
    0x1006a510:   00 00 00 00 00 00 00 00 00 00 00 00 00 00 00 00    ................
    0x1006a520:   00 00 00 00 00 00 00 00 00 00 00 00 00 00 00 00    ................
    0x1006a530:   00 00 00 00 00 00 00 00 00 00 00 00 00 00 00 00    ................
    0x1006a540:   00 00 00 00 00 00 00 00 00 00 00 00 00 00 00 00    ................
    0x1006a550:   00 00 00 00 00 00 00 00 00 00 00 00 00 00 00 00    ................
    0x1006a560:   00 00 00 00 00 00 00 00 00 00 00 00 00 00 00 00    ................
    0x1006a570:   00 00 00 00 00 00 00 00 00 00 00 00 00 00 00 00    ................
    0x1006a580:   00 00 00 00 00 00 00 00 00 00 00 00 00 00 00 00    ................
    0x1006a590:   00 00 00 00 00 00 00 00 00 00 00 00 00 00 00 00    ................
    0x1006a5a0:   00 00 00 00 00 00 00 00 00 00 00 00 00 00 00 00    ................
    0x1006a5b0:   00 00 00 00 00 00 00 00 00 00 00 00 00 00 00 00    ................
    0x1006a5c0:   00 00 00 00 00 00 00 00 00 00 00 00 00 00 00 00    ................
    0x1006a5d0:   00 00 00 00 00 00 00 00 00 00 00 00 00 00 00 00    ................
    0x1006a5e0:   00 00 00 00 00 00 00 00 00 00 00 00 00 00 00 00    ................
    0x1006a5f0:   00 00 00 00 00 00 00 00 00 00 00 00 00 00 00 00    ................
    0x1006a600:   00 00 00 00 00 00 00 00 00 00 00 00 00 00 00 00    ................
    0x1006a610:   00 00 00 00 00 00 00 00 00 00 00 00 00 00 00 00    ................
    0x1006a620:   00 00 00 00 00 00 00 00 00 00 00 00 00 00 00 00    ................
    0x1006a630:   00 00 00 00 00 00 00 00 00 00 00 00 00 00 00 00    ................
    0x1006a640:   00 00 00 00 00 00 00 00 00 00 00 00 00 00 00 00    ................
    0x1006a650:   00 00 00 00 00 00 00 00 00 00 00 00 00 00 00 00    ................
    0x1006a660:   00 00 00 00 00 00 00 00 00 00 00 00 00 00 00 00    ................
    0x1006a670:   00 00 00 00 00 00 00 00 00 00 00 00 00 00 00 00    ................
    0x1006a680:   00 00 00 00 00 00 00 00 00 00 00 00 00 00 00 00    ................
    0x1006a690:   00 00 00 00 00 00 00 00 00 00 00 00 00 00 00 00    ................
    0x1006a6a0:   00 00 00 00 00 00 00 00 00 00 00 00 00 00 00 00    ................
    0x1006a6b0:   00 00 00 00 00 00 00 00 00 00 00 00 00 00 00 00    ................
    0x1006a6c0:   00 00 00 00 00 00 00 00 00 00 00 00 00 00 00 00    ................
    0x1006a6d0:   00 00 00 00 00 00 00 00 00 00 00 00 00 00 00 00    ................
    0x1006a6e0:   00 00 00 00 00 00 00 00 00 00 00 00 00 00 00 00    ................
    0x1006a6f0:   00 00 00 00 00 00 00 00 00 00 00 00 00 00 00 00    ................
    0x1006a700:   00 00 00 00 00 00 00 00 00 00 00 00 00 00 00 00    ................
    0x1006a710:   00 00 00 00 00 00 00 00 00 00 00 00 00 00 00 00    ................
    0x1006a720:   00 00 00 00 00 00 00 00 00 00 00 00 00 00 00 00    ................
    0x1006a730:   00 00 00 00 00 00 00 00 00 00 00 00 00 00 00 00    ................
    0x1006a740:   00 00 00 00 00 00 00 00 00 00 00 00 00 00 00 00    ................
    0x1006a750:   00 00 00 00 00 00 00 00 00 00 00 00 00 00 00 00    ................
    0x1006a760:   00 00 00 00 00 00 00 00 00 00 00 00 00 00 00 00    ................
    0x1006a770:   00 00 00 00 00 00 00 00 00 00 00 00 00 00 00 00    ................
    0x1006a780:   00 00 00 00 00 00 00 00 00 00 00 00 00 00 00 00    ................
    0x1006a790:   00 00 00 00 00 00 00 00 00 00 00 00 00 00 00 00    ................
    0x1006a7a0:   00 00 00 00 00 00 00 00 00 00 00 00 00 00 00 00    ................
    0x1006a7b0:   00 00 00 00 00 00 00 00 00 00 00 00 00 00 00 00    ................
    0x1006a7c0:   00 00 00 00 00 00 00 00 00 00 00 00 00 00 00 00    ................
    0x1006a7d0:   00 00 00 00 00 00 00 00 00 00 00 00 00 00 00 00    ................
    0x1006a7e0:   00 00 00 00 00 00 00 00 00 00 00 00 00 00 00 00    ................
    0x1006a7f0:   00 00 00 00 00 00 00 00 00 00 00 00 00 00 00 00    ................
    0x1006a800:   00 00 00 00 00 00 00 00 00 00 00 00 00 00 00 00    ................
    0x1006a810:   00 00 00 00 00 00 00 00 00 00 00 00 00 00 00 00    ................
    0x1006a820:   00 00 00 00 00 00 00 00 00 00 00 00 00 00 00 00    ................
    0x1006a830:   00 00 00 00 00 00 00 00 00 00 00 00 00 00 00 00    ................
    0x1006a840:   00 00 00 00 00 00 00 00 00 00 00 00 00 00 00 00    ................
    0x1006a850:   00 00 00 00 00 00 00 00 00 00 00 00 00 00 00 00    ................
    0x1006a860:   00 00 00 00 00 00 00 00 00 00 00 00 00 00 00 00    ................
    0x1006a870:   00 00 00 00 00 00 00 00 00 00 00 00 00 00 00 00    ................
    0x1006a880:   00 00 00 00 00 00 00 00 00 00 00 00 00 00 00 00    ................
    0x1006a890:   00 00 00 00 00 00 00 00 00 00 00 00 00 00 00 00    ................
    0x1006a8a0:   00 00 00 00 00 00 00 00 00 00 00 00 00 00 00 00    ................
    0x1006a8b0:   00 00 00 00 00 00 00 00 00 00 00 00 00 00 00 00    ................
    0x1006a8c0:   00 00 00 00 00 00 00 00 00 00 00 00 00 00 00 00    ................
    0x1006a8d0:   00 00 00 00 00 00 00 00 00 00 00 00 00 00 00 00    ................
    0x1006a8e0:   00 00 00 00 00 00 00 00 00 00 00 00 00 00 00 00    ................
    0x1006a8f0:   00 00 00 00 00 00 00 00 00 00 00 00 00 00 00 00    ................
    0x1006a900:   00 00 00 00 00 00 00 00 00 00 00 00 00 00 00 00    ................
    0x1006a910:   00 00 00 00 00 00 00 00 00 00 00 00 00 00 00 00    ................
    0x1006a920:   00 00 00 00 00 00 00 00 00 00 00 00 00 00 00 00    ................
    0x1006a930:   00 00 00 00 00 00 00 00 00 00 00 00 00 00 00 00    ................
    0x1006a940:   00 00 00 00 00 00 00 00 00 00 00 00 00 00 00 00    ................
    0x1006a950:   00 00 00 00 00 00 00 00 00 00 00 00 00 00 00 00    ................
    0x1006a960:   00 00 00 00 00 00 00 00 00 00 00 00 00 00 00 00    ................
    0x1006a970:   00 00 00 00 00 00 00 00 00 00 00 00 00 00 00 00    ................
    0x1006a980:   00 00 00 00 00 00 00 00 00 00 00 00 00 00 00 00    ................
    0x1006a990:   00 00 00 00 00 00 00 00 00 00 00 00 00 00 00 00    ................
    0x1006a9a0:   00 00 00 00 00 00 00 00 00 00 00 00 00 00 00 00    ................
    0x1006a9b0:   00 00 00 00 00 00 00 00 00 00 00 00 00 00 00 00    ................
    0x1006a9c0:   00 00 00 00 00 00 00 00 00 00 00 00 00 00 00 00    ................
    0x1006a9d0:   00 00 00 00 00 00 00 00 00 00 00 00 00 00 00 00    ................
    0x1006a9e0:   00 00 00 00 00 00 00 00 00 00 00 00 00 00 00 00    ................
    0x1006a9f0:   00 00 00 00 00 00 00 00 00 00 00 00 00 00 00 00    ................
    0x1006aa00:   00 00 00 00 00 00 00 00 00 00 00 00 00 00 00 00    ................
    0x1006aa10:   00 00 00 00 00 00 00 00 00 00 00 00 00 00 00 00    ................
    0x1006aa20:   00 00 00 00 00 00 00 00 00 00 00 00 00 00 00 00    ................
    0x1006aa30:   00 00 00 00 00 00 00 00 00 00 00 00 00 00 00 00    ................
    0x1006aa40:   00 00 00 00 00 00 00 00 00 00 00 00 00 00 00 00    ................
    0x1006aa50:   00 00 00 00 00 00 00 00 00 00 00 00 00 00 00 00    ................
    0x1006aa60:   00 00 00 00 00 00 00 00 00 00 00 00 00 00 00 00    ................
    0x1006aa70:   00 00 00 00 00 00 00 00 00 00 00 00 00 00 00 00    ................
    0x1006aa80:   00 00 00 00 00 00 00 00 00 00 00 00 00 00 00 00    ................
    0x1006aa90:   00 00 00 00 00 00 00 00 00 00 00 00 00 00 00 00    ................
    0x1006aaa0:   00 00 00 00 00 00 00 00 00 00 00 00 00 00 00 00    ................
    0x1006aab0:   00 00 00 00 00 00 00 00 00 00 00 00 00 00 00 00    ................
    0x1006aac0:   00 00 00 00 00 00 00 00 00 00 00 00 00 00 00 00    ................
    0x1006aad0:   00 00 00 00 00 00 00 00 00 00 00 00 00 00 00 00    ................
    0x1006aae0:   00 00 00 00 00 00 00 00 00 00 00 00 00 00 00 00    ................
    0x1006aaf0:   00 00 00 00 00 00 00 00 00 00 00 00 00 00 00 00    ................
    0x1006ab00:   00 00 00 00 00 00 00 00 00 00 00 00 00 00 00 00    ................
    0x1006ab10:   00 00 00 00 00 00 00 00 00 00 00 00 00 00 00 00    ................
    0x1006ab20:   00 00 00 00 00 00 00 00 00 00 00 00 00 00 00 00    ................
    0x1006ab30:   00 00 00 00 00 00 00 00 00 00 00 00 00 00 00 00    ................
    0x1006ab40:   00 00 00 00 00 00 00 00 00 00 00 00 00 00 00 00    ................
    0x1006ab50:   00 00 00 00 00 00 00 00 00 00 00 00 00 00 00 00    ................
    0x1006ab60:   00 00 00 00 00 00 00 00 00 00 00 00 00 00 00 00    ................
    0x1006ab70:   00 00 00 00 00 00 00 00 00 00 00 00 00 00 00 00    ................
    0x1006ab80:   00 00 00 00 00 00 00 00 00 00 00 00 00 00 00 00    ................
    0x1006ab90:   00 00 00 00 00 00 00 00 00 00 00 00 00 00 00 00    ................
    0x1006aba0:   00 00 00 00 00 00 00 00 00 00 00 00 00 00 00 00    ................
    0x1006abb0:   00 00 00 00 00 00 00 00 00 00 00 00 00 00 00 00    ................
    0x1006abc0:   00 00 00 00 00 00 00 00 00 00 00 00 00 00 00 00    ................
    0x1006abd0:   00 00 00 00 00 00 00 00 00 00 00 00 00 00 00 00    ................
    0x1006abe0:   00 00 00 00 00 00 00 00 00 00 00 00 00 00 00 00    ................
    0x1006abf0:   00 00 00 00 00 00 00 00 00 00 00 00 00 00 00 00    ................
    0x1006ac00:   00 00 00 00 00 00 00 00 00 00 00 00 00 00 00 00    ................
    0x1006ac10:   00 00 00 00 00 00 00 00 00 00 00 00 00 00 00 00    ................
    0x1006ac20:   00 00 00 00 00 00 00 00 00 00 00 00 00 00 00 00    ................
    0x1006ac30:   00 00 00 00 00 00 00 00 00 00 00 00 00 00 00 00    ................
    0x1006ac40:   00 00 00 00 00 00 00 00 00 00 00 00 00 00 00 00    ................
    0x1006ac50:   00 00 00 00 00 00 00 00 00 00 00 00 00 00 00 00    ................
    0x1006ac60:   00 00 00 00 00 00 00 00 00 00 00 00 00 00 00 00    ................
    0x1006ac70:   00 00 00 00 00 00 00 00 00 00 00 00 00 00 00 00    ................
    0x1006ac80:   00 00 00 00 00 00 00 00 00 00 00 00 00 00 00 00    ................
    0x1006ac90:   00 00 00 00 00 00 00 00 00 00 00 00 00 00 00 00    ................
    0x1006aca0:   00 00 00 00 00 00 00 00 00 00 00 00 00 00 00 00    ................
    0x1006acb0:   00 00 00 00 00 00 00 00 00 00 00 00 00 00 00 00    ................
    0x1006acc0:   00 00 00 00 00 00 00 00 00 00 00 00 00 00 00 00    ................
    0x1006acd0:   00 00 00 00 00 00 00 00 00 00 00 00 00 00 00 00    ................
    0x1006ace0:   00 00 00 00 00 00 00 00 00 00 00 00 00 00 00 00    ................
    0x1006acf0:   00 00 00 00 00 00 00 00 00 00 00 00 00 00 00 00    ................
    0x1006ad00:   00 00 00 00 00 00 00 00 00 00 00 00 00 00 00 00    ................
    0x1006ad10:   00 00 00 00 00 00 00 00 00 00 00 00 00 00 00 00    ................
    0x1006ad20:   00 00 00 00 00 00 00 00 00 00 00 00 00 00 00 00    ................
    0x1006ad30:   00 00 00 00 00 00 00 00 00 00 00 00 00 00 00 00    ................
    0x1006ad40:   00 00 00 00 00 00 00 00 00 00 00 00 00 00 00 00    ................
    0x1006ad50:   00 00 00 00 00 00 00 00 00 00 00 00 00 00 00 00    ................
    0x1006ad60:   00 00 00 00 00 00 00 00 00 00 00 00 00 00 00 00    ................
    0x1006ad70:   00 00 00 00 00 00 00 00 00 00 00 00 00 00 00 00    ................
    0x1006ad80:   00 00 00 00 00 00 00 00 00 00 00 00 00 00 00 00    ................
    0x1006ad90:   00 00 00 00 00 00 00 00 00 00 00 00 00 00 00 00    ................
    0x1006ada0:   00 00 00 00 00 00 00 00 00 00 00 00 00 00 00 00    ................
    0x1006adb0:   00 00 00 00 00 00 00 00 00 00 00 00 00 00 00 00    ................
    0x1006adc0:   00 00 00 00 00 00 00 00 00 00 00 00 00 00 00 00    ................
    0x1006add0:   00 00 00 00 00 00 00 00 00 00 00 00 00 00 00 00    ................
    0x1006ade0:   00 00 00 00 00 00 00 00 00 00 00 00 00 00 00 00    ................
    0x1006adf0:   00 00 00 00 00 00 00 00 00 00 00 00 00 00 00 00    ................
    0x1006ae00:   00 00 00 00 00 00 00 00 00 00 00 00 00 00 00 00    ................
    0x1006ae10:   00 00 00 00 00 00 00 00 00 00 00 00 00 00 00 00    ................
    0x1006ae20:   00 00 00 00 00 00 00 00 00 00 00 00 00 00 00 00    ................
    0x1006ae30:   00 00 00 00 00 00 00 00 00 00 00 00 00 00 00 00    ................
    0x1006ae40:   00 00 00 00 00 00 00 00 00 00 00 00 00 00 00 00    ................
    0x1006ae50:   00 00 00 00 00 00 00 00 00 00 00 00 00 00 00 00    ................
    0x1006ae60:   00 00 00 00 00 00 00 00 00 00 00 00 00 00 00 00    ................
    0x1006ae70:   00 00 00 00 00 00 00 00 00 00 00 00 00 00 00 00    ................
    0x1006ae80:   00 00 00 00 00 00 00 00 00 00 00 00 00 00 00 00    ................
    0x1006ae90:   00 00 00 00 00 00 00 00 00 00 00 00 00 00 00 00    ................
    0x1006aea0:   00 00 00 00 00 00 00 00 00 00 00 00 00 00 00 00    ................
    0x1006aeb0:   00 00 00 00 00 00 00 00 00 00 00 00 00 00 00 00    ................
    0x1006aec0:   00 00 00 00 00 00 00 00 00 00 00 00 00 00 00 00    ................
    0x1006aed0:   00 00 00 00 00 00 00 00 00 00 00 00 00 00 00 00    ................
    0x1006aee0:   00 00 00 00 00 00 00 00 00 00 00 00 00 00 00 00    ................
    0x1006aef0:   00 00 00 00 00 00 00 00 00 00 00 00 00 00 00 00    ................
    0x1006af00:   00 00 00 00 00 00 00 00 00 00 00 00 00 00 00 00    ................
    0x1006af10:   00 00 00 00 00 00 00 00 00 00 00 00 00 00 00 00    ................
    0x1006af20:   00 00 00 00 00 00 00 00 00 00 00 00 00 00 00 00    ................
    0x1006af30:   00 00 00 00 00 00 00 00 00 00 00 00 00 00 00 00    ................
    0x1006af40:   00 00 00 00 00 00 00 00 00 00 00 00 00 00 00 00    ................
    0x1006af50:   00 00 00 00 00 00 00 00 00 00 00 00 00 00 00 00    ................
    0x1006af60:   00 00 00 00 00 00 00 00 00 00 00 00 00 00 00 00    ................
    0x1006af70:   00 00 00 00 00 00 00 00 00 00 00 00 00 00 00 00    ................
    0x1006af80:   00 00 00 00 00 00 00 00 00 00 00 00 00 00 00 00    ................
    0x1006af90:   00 00 00 00 00 00 00 00 00 00 00 00 00 00 00 00    ................
    0x1006afa0:   00 00 00 00 00 00 00 00 00 00 00 00 00 00 00 00    ................
    0x1006afb0:   00 00 00 00 00 00 00 00 00 00 00 00 00 00 00 00    ................
    0x1006afc0:   00 00 00 00 00 00 00 00 00 00 00 00 00 00 00 00    ................
    0x1006afd0:   00 00 00 00 00 00 00 00 00 00 00 00 00 00 00 00    ................
    0x1006afe0:   00 00 00 00 00 00 00 00 00 00 00 00 00 00 00 00    ................
    0x1006aff0:   00 00 00 00 00 00 00 00 00 00 00 00 00 00 00 00    ................
    0x1006b000:   00 00 00 00 00 00 00 00 00 00 00 00 00 00 00 00    ................
    0x1006b010:   00 00 00 00 00 00 00 00 00 00 00 00 00 00 00 00    ................
    0x1006b020:   00 00 00 00 00 00 00 00 00 00 00 00 00 00 00 00    ................
    0x1006b030:   00 00 00 00 00 00 00 00 00 00 00 00 00 00 00 00    ................
    0x1006b040:   00 00 00 00 00 00 00 00 00 00 00 00 00 00 00 00    ................
    0x1006b050:   00 00 00 00 00 00 00 00 00 00 00 00 00 00 00 00    ................
    0x1006b060:   00 00 00 00 00 00 00 00 00 00 00 00 00 00 00 00    ................
    0x1006b070:   00 00 00 00 00 00 00 00 00 00 00 00 00 00 00 00    ................
    0x1006b080:   00 00 00 00 00 00 00 00 00 00 00 00 00 00 00 00    ................
    0x1006b090:   00 00 00 00 00 00 00 00 00 00 00 00 00 00 00 00    ................
    0x1006b0a0:   00 00 00 00 00 00 00 00 00 00 00 00 00 00 00 00    ................
    0x1006b0b0:   00 00 00 00 00 00 00 00 00 00 00 00 00 00 00 00    ................
    0x1006b0c0:   00 00 00 00 00 00 00 00 00 00 00 00 00 00 00 00    ................
    0x1006b0d0:   00 00 00 00 00 00 00 00 00 00 00 00 00 00 00 00    ................
    0x1006b0e0:   00 00 00 00 00 00 00 00 00 00 00 00 00 00 00 00    ................
    0x1006b0f0:   00 00 00 00 00 00 00 00 00 00 00 00 00 00 00 00    ................
    0x1006b100:   00 00 00 00 00 00 00 00 00 00 00 00 00 00 00 00    ................
    0x1006b110:   00 00 00 00 00 00 00 00 00 00 00 00 00 00 00 00    ................
    0x1006b120:   00 00 00 00 00 00 00 00 00 00 00 00 00 00 00 00    ................
    0x1006b130:   00 00 00 00 00 00 00 00 00 00 00 00 00 00 00 00    ................
    0x1006b140:   00 00 00 00 00 00 00 00 00 00 00 00 00 00 00 00    ................
    0x1006b150:   00 00 00 00 00 00 00 00 00 00 00 00 00 00 00 00    ................
    0x1006b160:   00 00 00 00 00 00 00 00 00 00 00 00 00 00 00 00    ................
    0x1006b170:   00 00 00 00 00 00 00 00 00 00 00 00 00 00 00 00    ................
    0x1006b180:   00 00 00 00 00 00 00 00 00 00 00 00 00 00 00 00    ................
    0x1006b190:   00 00 00 00 00 00 00 00 00 00 00 00 00 00 00 00    ................
    0x1006b1a0:   00 00 00 00 00 00 00 00 00 00 00 00 00 00 00 00    ................
    0x1006b1b0:   00 00 00 00 00 00 00 00 00 00 00 00 00 00 00 00    ................
    0x1006b1c0:   00 00 00 00 00 00 00 00 00 00 00 00 00 00 00 00    ................
    0x1006b1d0:   00 00 00 00 00 00 00 00 00 00 00 00 00 00 00 00    ................
    0x1006b1e0:   00 00 00 00 00 00 00 00 00 00 00 00 00 00 00 00    ................
    0x1006b1f0:   00 00 00 00 00 00 00 00 00 00 00 00 00 00 00 00    ................
    0x1006b200:   00 00 00 00 00 00 00 00 00 00 00 00 00 00 00 00    ................
    0x1006b210:   00 00 00 00 00 00 00 00 00 00 00 00 00 00 00 00    ................
    0x1006b220:   00 00 00 00 00 00 00 00 00 00 00 00 00 00 00 00    ................
    0x1006b230:   00 00 00 00 00 00 00 00 00 00 00 00 00 00 00 00    ................
    0x1006b240:   00 00 00 00 00 00 00 00 00 00 00 00 00 00 00 00    ................
    0x1006b250:   00 00 00 00 00 00 00 00 00 00 00 00 00 00 00 00    ................
    0x1006b260:   00 00 00 00 00 00 00 00 00 00 00 00 00 00 00 00    ................
    0x1006b270:   00 00 00 00 00 00 00 00 00 00 00 00 00 00 00 00    ................
    0x1006b280:   00 00 00 00 00 00 00 00 00 00 00 00 00 00 00 00    ................
    0x1006b290:   00 00 00 00 00 00 00 00 00 00 00 00 00 00 00 00    ................
    0x1006b2a0:   00 00 00 00 00 00 00 00 00 00 00 00 00 00 00 00    ................
    0x1006b2b0:   00 00 00 00 00 00 00 00 00 00 00 00 00 00 00 00    ................
    0x1006b2c0:   00 00 00 00 00 00 00 00 00 00 00 00 00 00 00 00    ................
    0x1006b2d0:   00 00 00 00 00 00 00 00 00 00 00 00 00 00 00 00    ................
    0x1006b2e0:   00 00 00 00 00 00 00 00 00 00 00 00 00 00 00 00    ................
    0x1006b2f0:   00 00 00 00 00 00 00 00 00 00 00 00 00 00 00 00    ................
    0x1006b300:   00 00 00 00 00 00 00 00 00 00 00 00 00 00 00 00    ................
    0x1006b310:   00 00 00 00 00 00 00 00 00 00 00 00 00 00 00 00    ................
    0x1006b320:   00 00 00 00 00 00 00 00 00 00 00 00 00 00 00 00    ................
    0x1006b330:   00 00 00 00 00 00 00 00 00 00 00 00 00 00 00 00    ................
    0x1006b340:   00 00 00 00 00 00 00 00 00 00 00 00 00 00 00 00    ................
    0x1006b350:   00 00 00 00 00 00 00 00 00 00 00 00 00 00 00 00    ................
    0x1006b360:   00 00 00 00 00 00 00 00 00 00 00 00 00 00 00 00    ................
    0x1006b370:   00 00 00 00 00 00 00 00 00 00 00 00 00 00 00 00    ................
    0x1006b380:   00 00 00 00 00 00 00 00 00 00 00 00 00 00 00 00    ................
    0x1006b390:   00 00 00 00 00 00 00 00 00 00 00 00 00 00 00 00    ................
    0x1006b3a0:   00 00 00 00 00 00 00 00 00 00 00 00 00 00 00 00    ................
    0x1006b3b0:   00 00 00 00 00 00 00 00 00 00 00 00 00 00 00 00    ................
    0x1006b3c0:   00 00 00 00 00 00 00 00 00 00 00 00 00 00 00 00    ................
    0x1006b3d0:   00 00 00 00 00 00 00 00 00 00 00 00 00 00 00 00    ................
    0x1006b3e0:   00 00 00 00 00 00 00 00 00 00 00 00 00 00 00 00    ................
    0x1006b3f0:   00 00 00 00 00 00 00 00 00 00 00 00 00 00 00 00    ................
    0x1006b400:   00 00 00 00 00 00 00 00 00 00 00 00 00 00 00 00    ................
    0x1006b410:   00 00 00 00 00 00 00 00 00 00 00 00 00 00 00 00    ................
    0x1006b420:   00 00 00 00 00 00 00 00 00 00 00 00 00 00 00 00    ................
    0x1006b430:   00 00 00 00 00 00 00 00 00 00 00 00 00 00 00 00    ................
    0x1006b440:   00 00 00 00 00 00 00 00 00 00 00 00 00 00 00 00    ................
    0x1006b450:   00 00 00 00 00 00 00 00 00 00 00 00 00 00 00 00    ................
    0x1006b460:   00 00 00 00 00 00 00 00 00 00 00 00 00 00 00 00    ................
    0x1006b470:   00 00 00 00 00 00 00 00 00 00 00 00 00 00 00 00    ................
    0x1006b480:   00 00 00 00 00 00 00 00 00 00 00 00 00 00 00 00    ................
    0x1006b490:   00 00 00 00 00 00 00 00 00 00 00 00 00 00 00 00    ................
    0x1006b4a0:   00 00 00 00 00 00 00 00 00 00 00 00 00 00 00 00    ................
    0x1006b4b0:   00 00 00 00 00 00 00 00 00 00 00 00 00 00 00 00    ................
    0x1006b4c0:   00 00 00 00 00 00 00 00 00 00 00 00 00 00 00 00    ................
    0x1006b4d0:   00 00 00 00 00 00 00 00 00 00 00 00 00 00 00 00    ................
    0x1006b4e0:   00 00 00 00 00 00 00 00 00 00 00 00 00 00 00 00    ................
    0x1006b4f0:   00 00 00 00 00 00 00 00 00 00 00 00 00 00 00 00    ................
    0x1006b500:   00 00 00 00 00 00 00 00 00 00 00 00 00 00 00 00    ................
    0x1006b510:   00 00 00 00 00 00 00 00 00 00 00 00 00 00 00 00    ................
    0x1006b520:   00 00 00 00 00 00 00 00 00 00 00 00 00 00 00 00    ................
    0x1006b530:   00 00 00 00 00 00 00 00 00 00 00 00 00 00 00 00    ................
    0x1006b540:   00 00 00 00 00 00 00 00 00 00 00 00 00 00 00 00    ................
    0x1006b550:   00 00 00 00 00 00 00 00 00 00 00 00 00 00 00 00    ................
    0x1006b560:   00 00 00 00 00 00 00 00 00 00 00 00 00 00 00 00    ................
    0x1006b570:   00 00 00 00 00 00 00 00 00 00 00 00 00 00 00 00    ................
    0x1006b580:   00 00 00 00 00 00 00 00 00 00 00 00 00 00 00 00    ................
    0x1006b590:   00 00 00 00 00 00 00 00 00 00 00 00 00 00 00 00    ................
    0x1006b5a0:   00 00 00 00 00 00 00 00 00 00 00 00 00 00 00 00    ................
    0x1006b5b0:   00 00 00 00 00 00 00 00 00 00 00 00 00 00 00 00    ................
    0x1006b5c0:   00 00 00 00 00 00 00 00 00 00 00 00 00 00 00 00    ................
    0x1006b5d0:   00 00 00 00 00 00 00 00 00 00 00 00 00 00 00 00    ................
    0x1006b5e0:   00 00 00 00 00 00 00 00 00 00 00 00 00 00 00 00    ................
    0x1006b5f0:   00 00 00 00 00 00 00 00 00 00 00 00 00 00 00 00    ................
    0x1006b600:   00 00 00 00 00 00 00 00 00 00 00 00 00 00 00 00    ................
    0x1006b610:   00 00 00 00 00 00 00 00 00 00 00 00 00 00 00 00    ................
    0x1006b620:   00 00 00 00 00 00 00 00 00 00 00 00 00 00 00 00    ................
    0x1006b630:   00 00 00 00 00 00 00 00 00 00 00 00 00 00 00 00    ................
    0x1006b640:   00 00 00 00 00 00 00 00 00 00 00 00 00 00 00 00    ................
    0x1006b650:   00 00 00 00 00 00 00 00 00 00 00 00 00 00 00 00    ................
    0x1006b660:   00 00 00 00 00 00 00 00 00 00 00 00 00 00 00 00    ................
    0x1006b670:   00 00 00 00 00 00 00 00 00 00 00 00 00 00 00 00    ................
    0x1006b680:   00 00 00 00 00 00 00 00 00 00 00 00 00 00 00 00    ................
    0x1006b690:   00 00 00 00 00 00 00 00 00 00 00 00 00 00 00 00    ................
    0x1006b6a0:   00 00 00 00 00 00 00 00 00 00 00 00 00 00 00 00    ................
    0x1006b6b0:   00 00 00 00 00 00 00 00 00 00 00 00 00 00 00 00    ................
    0x1006b6c0:   00 00 00 00 00 00 00 00 00 00 00 00 00 00 00 00    ................
    0x1006b6d0:   00 00 00 00 00 00 00 00 00 00 00 00 00 00 00 00    ................
    0x1006b6e0:   00 00 00 00 00 00 00 00 00 00 00 00 00 00 00 00    ................
    0x1006b6f0:   00 00 00 00 00 00 00 00 00 00 00 00 00 00 00 00    ................
    0x1006b700:   00 00 00 00 00 00 00 00 00 00 00 00 00 00 00 00    ................
    0x1006b710:   00 00 00 00 00 00 00 00 00 00 00 00 00 00 00 00    ................
    0x1006b720:   00 00 00 00 00 00 00 00 00 00 00 00 00 00 00 00    ................
    0x1006b730:   00 00 00 00 00 00 00 00 00 00 00 00 00 00 00 00    ................
    0x1006b740:   00 00 00 00 00 00 00 00 00 00 00 00 00 00 00 00    ................
    0x1006b750:   00 00 00 00 00 00 00 00 00 00 00 00 00 00 00 00    ................
    0x1006b760:   00 00 00 00 00 00 00 00 00 00 00 00 00 00 00 00    ................
    0x1006b770:   00 00 00 00 00 00 00 00 00 00 00 00 00 00 00 00    ................
    0x1006b780:   00 00 00 00 00 00 00 00 00 00 00 00 00 00 00 00    ................
    0x1006b790:   00 00 00 00 00 00 00 00 00 00 00 00 00 00 00 00    ................
    0x1006b7a0:   00 00 00 00 00 00 00 00 00 00 00 00 00 00 00 00    ................
    0x1006b7b0:   00 00 00 00 00 00 00 00 00 00 00 00 00 00 00 00    ................
    0x1006b7c0:   00 00 00 00 00 00 00 00 00 00 00 00 00 00 00 00    ................
    0x1006b7d0:   00 00 00 00 00 00 00 00 00 00 00 00 00 00 00 00    ................
    0x1006b7e0:   00 00 00 00 00 00 00 00 00 00 00 00 00 00 00 00    ................
    0x1006b7f0:   00 00 00 00 00 00 00 00 00 00 00 00 00 00 00 00    ................
    0x1006b800:   00 00 00 00 00 00 00 00 00 00 00 00 00 00 00 00    ................
    0x1006b810:   00 00 00 00 00 00 00 00 00 00 00 00 00 00 00 00    ................
    0x1006b820:   00 00 00 00 00 00 00 00 00 00 00 00 00 00 00 00    ................
    0x1006b830:   00 00 00 00 00 00 00 00 00 00 00 00 00 00 00 00    ................
    0x1006b840:   00 00 00 00 00 00 00 00 00 00 00 00 00 00 00 00    ................
    0x1006b850:   00 00 00 00 00 00 00 00 00 00 00 00 00 00 00 00    ................
    0x1006b860:   00 00 00 00 00 00 00 00 00 00 00 00 00 00 00 00    ................
    0x1006b870:   00 00 00 00 00 00 00 00 00 00 00 00 00 00 00 00    ................
    0x1006b880:   00 00 00 00 00 00 00 00 00 00 00 00 00 00 00 00    ................
    0x1006b890:   00 00 00 00 00 00 00 00 00 00 00 00 00 00 00 00    ................
    0x1006b8a0:   00 00 00 00 00 00 00 00 00 00 00 00 00 00 00 00    ................
    0x1006b8b0:   00 00 00 00 00 00 00 00 00 00 00 00 00 00 00 00    ................
    0x1006b8c0:   00 00 00 00 00 00 00 00 00 00 00 00 00 00 00 00    ................
    0x1006b8d0:   00 00 00 00 00 00 00 00 00 00 00 00 00 00 00 00    ................
    0x1006b8e0:   00 00 00 00 00 00 00 00 00 00 00 00 00 00 00 00    ................
    0x1006b8f0:   00 00 00 00 00 00 00 00 00 00 00 00 00 00 00 00    ................
    0x1006b900:   00 00 00 00 00 00 00 00 00 00 00 00 00 00 00 00    ................
    0x1006b910:   00 00 00 00 00 00 00 00 00 00 00 00 00 00 00 00    ................
    0x1006b920:   00 00 00 00 00 00 00 00 00 00 00 00 00 00 00 00    ................
    0x1006b930:   00 00 00 00 00 00 00 00 00 00 00 00 00 00 00 00    ................
    0x1006b940:   00 00 00 00 00 00 00 00 00 00 00 00 00 00 00 00    ................
    0x1006b950:   00 00 00 00 00 00 00 00 00 00 00 00 00 00 00 00    ................
    0x1006b960:   00 00 00 00 00 00 00 00 00 00 00 00 00 00 00 00    ................
    0x1006b970:   00 00 00 00 00 00 00 00 00 00 00 00 00 00 00 00    ................
    0x1006b980:   00 00 00 00 00 00 00 00 00 00 00 00 00 00 00 00    ................
    0x1006b990:   00 00 00 00 00 00 00 00 00 00 00 00 00 00 00 00    ................
    0x1006b9a0:   00 00 00 00 00 00 00 00 00 00 00 00 00 00 00 00    ................
    0x1006b9b0:   00 00 00 00 00 00 00 00 00 00 00 00 00 00 00 00    ................
    0x1006b9c0:   00 00 00 00 00 00 00 00 00 00 00 00 00 00 00 00    ................
    0x1006b9d0:   00 00 00 00 00 00 00 00 00 00 00 00 00 00 00 00    ................
    0x1006b9e0:   00 00 00 00 00 00 00 00 00 00 00 00 00 00 00 00    ................
    0x1006b9f0:   00 00 00 00 00 00 00 00 00 00 00 00 00 00 00 00    ................
    0x1006ba00:   00 00 00 00 00 00 00 00 00 00 00 00 00 00 00 00    ................
    0x1006ba10:   00 00 00 00 00 00 00 00 00 00 00 00 00 00 00 00    ................
    0x1006ba20:   00 00 00 00 00 00 00 00 00 00 00 00 00 00 00 00    ................
    0x1006ba30:   00 00 00 00 00 00 00 00 00 00 00 00 00 00 00 00    ................
    0x1006ba40:   00 00 00 00 00 00 00 00 00 00 00 00 00 00 00 00    ................
    0x1006ba50:   00 00 00 00 00 00 00 00 00 00 00 00 00 00 00 00    ................
    0x1006ba60:   00 00 00 00 00 00 00 00 00 00 00 00 00 00 00 00    ................
    0x1006ba70:   00 00 00 00 00 00 00 00 00 00 00 00 00 00 00 00    ................
    0x1006ba80:   00 00 00 00 00 00 00 00 00 00 00 00 00 00 00 00    ................
    0x1006ba90:   00 00 00 00 00 00 00 00 00 00 00 00 00 00 00 00    ................
    0x1006baa0:   00 00 00 00 00 00 00 00 00 00 00 00 00 00 00 00    ................
    0x1006bab0:   00 00 00 00 00 00 00 00 00 00 00 00 00 00 00 00    ................
    0x1006bac0:   00 00 00 00 00 00 00 00 00 00 00 00 00 00 00 00    ................
    0x1006bad0:   00 00 00 00 00 00 00 00 00 00 00 00 00 00 00 00    ................
    0x1006bae0:   00 00 00 00 00 00 00 00 00 00 00 00 00 00 00 00    ................
    0x1006baf0:   00 00 00 00 00 00 00 00 00 00 00 00 00 00 00 00    ................
    0x1006bb00:   00 00 00 00 00 00 00 00 00 00 00 00 00 00 00 00    ................
    0x1006bb10:   00 00 00 00 00 00 00 00 00 00 00 00 00 00 00 00    ................
    0x1006bb20:   00 00 00 00 00 00 00 00 00 00 00 00 00 00 00 00    ................
    0x1006bb30:   00 00 00 00 00 00 00 00 00 00 00 00 00 00 00 00    ................
    0x1006bb40:   00 00 00 00 00 00 00 00 00 00 00 00 00 00 00 00    ................
    0x1006bb50:   00 00 00 00 00 00 00 00 00 00 00 00 00 00 00 00    ................
    0x1006bb60:   00 00 00 00 00 00 00 00 00 00 00 00 00 00 00 00    ................
    0x1006bb70:   00 00 00 00 00 00 00 00 00 00 00 00 00 00 00 00    ................
    0x1006bb80:   00 00 00 00 00 00 00 00 00 00 00 00 00 00 00 00    ................
    0x1006bb90:   00 00 00 00 00 00 00 00 00 00 00 00 00 00 00 00    ................
    0x1006bba0:   00 00 00 00 00 00 00 00 00 00 00 00 00 00 00 00    ................
    0x1006bbb0:   00 00 00 00 00 00 00 00 00 00 00 00 00 00 00 00    ................
    0x1006bbc0:   00 00 00 00 00 00 00 00 00 00 00 00 00 00 00 00    ................
    0x1006bbd0:   00 00 00 00 00 00 00 00 00 00 00 00 00 00 00 00    ................
    0x1006bbe0:   00 00 00 00 00 00 00 00 00 00 00 00 00 00 00 00    ................
    0x1006bbf0:   00 00 00 00 00 00 00 00 00 00 00 00 00 00 00 00    ................
    0x1006bc00:   00 00 00 00 00 00 00 00 00 00 00 00 00 00 00 00    ................
    0x1006bc10:   00 00 00 00 00 00 00 00 00 00 00 00 00 00 00 00    ................
    0x1006bc20:   00 00 00 00 00 00 00 00 00 00 00 00 00 00 00 00    ................
    0x1006bc30:   00 00 00 00 00 00 00 00 00 00 00 00 00 00 00 00    ................
    0x1006bc40:   00 00 00 00 00 00 00 00 00 00 00 00 00 00 00 00    ................
    0x1006bc50:   00 00 00 00 00 00 00 00 00 00 00 00 00 00 00 00    ................
    0x1006bc60:   00 00 00 00 00 00 00 00 00 00 00 00 00 00 00 00    ................
    0x1006bc70:   00 00 00 00 00 00 00 00 00 00 00 00 00 00 00 00    ................
    0x1006bc80:   00 00 00 00 00 00 00 00 00 00 00 00 00 00 00 00    ................
    0x1006bc90:   00 00 00 00 00 00 00 00 00 00 00 00 00 00 00 00    ................
    0x1006bca0:   00 00 00 00 00 00 00 00 00 00 00 00 00 00 00 00    ................
    0x1006bcb0:   00 00 00 00 00 00 00 00 00 00 00 00 00 00 00 00    ................
    0x1006bcc0:   00 00 00 00 00 00 00 00 00 00 00 00 00 00 00 00    ................
    0x1006bcd0:   00 00 00 00 00 00 00 00 00 00 00 00 00 00 00 00    ................
    0x1006bce0:   00 00 00 00 00 00 00 00 00 00 00 00 00 00 00 00    ................
    0x1006bcf0:   00 00 00 00 00 00 00 00 00 00 00 00 00 00 00 00    ................
    0x1006bd00:   00 00 00 00 00 00 00 00 00 00 00 00 00 00 00 00    ................
    0x1006bd10:   00 00 00 00 00 00 00 00 00 00 00 00 00 00 00 00    ................
    0x1006bd20:   00 00 00 00 00 00 00 00 00 00 00 00 00 00 00 00    ................
    0x1006bd30:   00 00 00 00 00 00 00 00 00 00 00 00 00 00 00 00    ................
    0x1006bd40:   00 00 00 00 00 00 00 00 00 00 00 00 00 00 00 00    ................
    0x1006bd50:   00 00 00 00 00 00 00 00 00 00 00 00 00 00 00 00    ................
    0x1006bd60:   00 00 00 00 00 00 00 00 00 00 00 00 00 00 00 00    ................
    0x1006bd70:   00 00 00 00 00 00 00 00 00 00 00 00 00 00 00 00    ................
    0x1006bd80:   00 00 00 00 00 00 00 00 00 00 00 00 00 00 00 00    ................
    0x1006bd90:   00 00 00 00 00 00 00 00 00 00 00 00 00 00 00 00    ................
    0x1006bda0:   00 00 00 00 00 00 00 00 00 00 00 00 00 00 00 00    ................
    0x1006bdb0:   00 00 00 00 00 00 00 00 00 00 00 00 00 00 00 00    ................
    0x1006bdc0:   00 00 00 00 00 00 00 00 00 00 00 00 00 00 00 00    ................
    0x1006bdd0:   00 00 00 00 00 00 00 00 00 00 00 00 00 00 00 00    ................
    0x1006bde0:   00 00 00 00 00 00 00 00 00 00 00 00 00 00 00 00    ................
    0x1006bdf0:   00 00 00 00 00 00 00 00 00 00 00 00 00 00 00 00    ................
    0x1006be00:   00 00 00 00 00 00 00 00 00 00 00 00 00 00 00 00    ................
    0x1006be10:   00 00 00 00 00 00 00 00 00 00 00 00 00 00 00 00    ................
    0x1006be20:   00 00 00 00 00 00 00 00 00 00 00 00 00 00 00 00    ................
    0x1006be30:   00 00 00 00 00 00 00 00 00 00 00 00 00 00 00 00    ................
    0x1006be40:   00 00 00 00 00 00 00 00 00 00 00 00 00 00 00 00    ................
    0x1006be50:   00 00 00 00 00 00 00 00 00 00 00 00 00 00 00 00    ................
    0x1006be60:   00 00 00 00 00 00 00 00 00 00 00 00 00 00 00 00    ................
    0x1006be70:   00 00 00 00 00 00 00 00 00 00 00 00 00 00 00 00    ................
    0x1006be80:   00 00 00 00 00 00 00 00 00 00 00 00 00 00 00 00    ................
    0x1006be90:   00 00 00 00 00 00 00 00 00 00 00 00 00 00 00 00    ................
    0x1006bea0:   00 00 00 00 00 00 00 00 00 00 00 00 00 00 00 00    ................
    0x1006beb0:   00 00 00 00 00 00 00 00 00 00 00 00 00 00 00 00    ................
    0x1006bec0:   00 00 00 00 00 00 00 00 00 00 00 00 00 00 00 00    ................
    0x1006bed0:   00 00 00 00 00 00 00 00 00 00 00 00 00 00 00 00    ................
    0x1006bee0:   00 00 00 00 00 00 00 00 00 00 00 00 00 00 00 00    ................
    0x1006bef0:   00 00 00 00 00 00 00 00 00 00 00 00 00 00 00 00    ................
    0x1006bf00:   00 00 00 00 00 00 00 00 00 00 00 00 00 00 00 00    ................
    0x1006bf10:   00 00 00 00 00 00 00 00 00 00 00 00 00 00 00 00    ................
    0x1006bf20:   00 00 00 00 00 00 00 00 00 00 00 00 00 00 00 00    ................
    0x1006bf30:   00 00 00 00 00 00 00 00 00 00 00 00 00 00 00 00    ................
    0x1006bf40:   00 00 00 00 00 00 00 00 00 00 00 00 00 00 00 00    ................
    0x1006bf50:   00 00 00 00 00 00 00 00 00 00 00 00 00 00 00 00    ................
    0x1006bf60:   00 00 00 00 00 00 00 00 00 00 00 00 00 00 00 00    ................
    0x1006bf70:   00 00 00 00 00 00 00 00 00 00 00 00 00 00 00 00    ................
    0x1006bf80:   00 00 00 00 00 00 00 00 00 00 00 00 00 00 00 00    ................
    0x1006bf90:   00 00 00 00 00 00 00 00 00 00 00 00 00 00 00 00    ................
    0x1006bfa0:   00 00 00 00 00 00 00 00 00 00 00 00 00 00 00 00    ................
    0x1006bfb0:   00 00 00 00 00 00 00 00 00 00 00 00 00 00 00 00    ................
    0x1006bfc0:   00 00 00 00 00 00 00 00 00 00 00 00 00 00 00 00    ................
    0x1006bfd0:   00 00 00 00 00 00 00 00 00 00 00 00 00 00 00 00    ................
    0x1006bfe0:   00 00 00 00 00 00 00 00 00 00 00 00 00 00 00 00    ................
    0x1006bff0:   00 00 00 00 00 00 00 00 00 00 00 00 00 00 00 00    ................
    0x1006c000:   00 00 00 00 00 00 00 00 00 00 00 00 00 00 00 00    ................
    0x1006c010:   00 00 00 00 00 00 00 00 00 00 00 00 00 00 00 00    ................
    0x1006c020:   00 00 00 00 00 00 00 00 00 00 00 00 00 00 00 00    ................
    0x1006c030:   00 00 00 00 00 00 00 00 00 00 00 00 00 00 00 00    ................
    0x1006c040:   00 00 00 00 00 00 00 00 00 00 00 00 00 00 00 00    ................
    0x1006c050:   00 00 00 00 00 00 00 00 00 00 00 00 00 00 00 00    ................
    0x1006c060:   00 00 00 00 00 00 00 00 00 00 00 00 00 00 00 00    ................
    0x1006c070:   00 00 00 00 00 00 00 00 00 00 00 00 00 00 00 00    ................
    0x1006c080:   00 00 00 00 00 00 00 00 00 00 00 00 00 00 00 00    ................
    0x1006c090:   00 00 00 00 00 00 00 00 00 00 00 00 00 00 00 00    ................
    0x1006c0a0:   00 00 00 00 00 00 00 00 00 00 00 00 00 00 00 00    ................
    0x1006c0b0:   00 00 00 00 00 00 00 00 00 00 00 00 00 00 00 00    ................
    0x1006c0c0:   00 00 00 00 00 00 00 00 00 00 00 00 00 00 00 00    ................
    0x1006c0d0:   00 00 00 00 00 00 00 00 00 00 00 00 00 00 00 00    ................
    0x1006c0e0:   00 00 00 00 00 00 00 00 00 00 00 00 00 00 00 00    ................
    0x1006c0f0:   00 00 00 00 00 00 00 00 00 00 00 00 00 00 00 00    ................
    0x1006c100:   00 00 00 00 00 00 00 00 00 00 00 00 00 00 00 00    ................
    0x1006c110:   00 00 00 00 00 00 00 00 00 00 00 00 00 00 00 00    ................
    0x1006c120:   00 00 00 00 00 00 00 00 00 00 00 00 00 00 00 00    ................
    0x1006c130:   00 00 00 00 00 00 00 00 00 00 00 00 00 00 00 00    ................
    0x1006c140:   00 00 00 00 00 00 00 00 00 00 00 00 00 00 00 00    ................
    0x1006c150:   00 00 00 00 00 00 00 00 00 00 00 00 00 00 00 00    ................
    0x1006c160:   00 00 00 00 00 00 00 00 00 00 00 00 00 00 00 00    ................
    0x1006c170:   00 00 00 00 00 00 00 00 00 00 00 00 00 00 00 00    ................
    0x1006c180:   00 00 00 00 00 00 00 00 00 00 00 00 00 00 00 00    ................
    0x1006c190:   00 00 00 00 00 00 00 00 00 00 00 00 00 00 00 00    ................
    0x1006c1a0:   00 00 00 00 00 00 00 00 00 00 00 00 00 00 00 00    ................
    0x1006c1b0:   00 00 00 00 00 00 00 00 00 00 00 00 00 00 00 00    ................
    0x1006c1c0:   00 00 00 00 00 00 00 00 00 00 00 00 00 00 00 00    ................
    0x1006c1d0:   00 00 00 00 00 00 00 00 00 00 00 00 00 00 00 00    ................
    0x1006c1e0:   00 00 00 00 00 00 00 00 00 00 00 00 00 00 00 00    ................
    0x1006c1f0:   00 00 00 00 00 00 00 00 00 00 00 00 00 00 00 00    ................
    0x1006c200:   00 00 00 00 00 00 00 00 00 00 00 00 00 00 00 00    ................
    0x1006c210:   00 00 00 00 00 00 00 00 00 00 00 00 00 00 00 00    ................
    0x1006c220:   00 00 00 00 00 00 00 00 00 00 00 00 00 00 00 00    ................
    0x1006c230:   00 00 00 00 00 00 00 00 00 00 00 00 00 00 00 00    ................
    0x1006c240:   00 00 00 00 00 00 00 00 00 00 00 00 00 00 00 00    ................
    0x1006c250:   00 00 00 00 00 00 00 00 00 00 00 00 00 00 00 00    ................
    0x1006c260:   00 00 00 00 00 00 00 00 00 00 00 00 00 00 00 00    ................
    0x1006c270:   00 00 00 00 00 00 00 00 00 00 00 00 00 00 00 00    ................
    0x1006c280:   00 00 00 00 00 00 00 00 00 00 00 00 00 00 00 00    ................
    0x1006c290:   00 00 00 00 00 00 00 00 00 00 00 00 00 00 00 00    ................
    0x1006c2a0:   00 00 00 00 00 00 00 00 00 00 00 00 00 00 00 00    ................
    0x1006c2b0:   00 00 00 00 00 00 00 00 00 00 00 00 00 00 00 00    ................
    0x1006c2c0:   00 00 00 00 00 00 00 00 00 00 00 00 00 00 00 00    ................
    0x1006c2d0:   00 00 00 00 00 00 00 00 00 00 00 00 00 00 00 00    ................
    0x1006c2e0:   00 00 00 00 00 00 00 00 00 00 00 00 00 00 00 00    ................
    0x1006c2f0:   00 00 00 00 00 00 00 00 00 00 00 00 00 00 00 00    ................
    0x1006c300:   00 00 00 00 00 00 00 00 00 00 00 00 00 00 00 00    ................
    0x1006c310:   00 00 00 00 00 00 00 00 00 00 00 00 00 00 00 00    ................
    0x1006c320:   00 00 00 00 00 00 00 00 00 00 00 00 00 00 00 00    ................
    0x1006c330:   00 00 00 00 00 00 00 00 00 00 00 00 00 00 00 00    ................
    0x1006c340:   00 00 00 00 00 00 00 00 00 00 00 00 00 00 00 00    ................
    0x1006c350:   00 00 00 00 00 00 00 00 00 00 00 00 00 00 00 00    ................
    0x1006c360:   00 00 00 00 00 00 00 00 00 00 00 00 00 00 00 00    ................
    0x1006c370:   00 00 00 00 00 00 00 00 00 00 00 00 00 00 00 00    ................
    0x1006c380:   00 00 00 00 00 00 00 00 00 00 00 00 00 00 00 00    ................
    0x1006c390:   00 00 00 00 00 00 00 00 00 00 00 00 00 00 00 00    ................
    0x1006c3a0:   00 00 00 00 00 00 00 00 00 00 00 00 00 00 00 00    ................
    0x1006c3b0:   00 00 00 00 00 00 00 00 00 00 00 00 00 00 00 00    ................
    0x1006c3c0:   00 00 00 00 00 00 00 00 00 00 00 00 00 00 00 00    ................
    0x1006c3d0:   00 00 00 00 00 00 00 00 00 00 00 00 00 00 00 00    ................
    0x1006c3e0:   00 00 00 00 00 00 00 00 00 00 00 00 00 00 00 00    ................
    0x1006c3f0:   00 00 00 00 00 00 00 00 00 00 00 00 00 00 00 00    ................
    0x1006c400:   00 00 00 00 00 00 00 00 00 00 00 00 00 00 00 00    ................
    0x1006c410:   00 00 00 00 00 00 00 00 00 00 00 00 00 00 00 00    ................
    0x1006c420:   00 00 00 00 00 00 00 00 00 00 00 00 00 00 00 00    ................
    0x1006c430:   00 00 00 00 00 00 00 00 00 00 00 00 00 00 00 00    ................
    0x1006c440:   00 00 00 00 00 00 00 00 00 00 00 00 00 00 00 00    ................
    0x1006c450:   00 00 00 00 00 00 00 00 00 00 00 00 00 00 00 00    ................
    0x1006c460:   00 00 00 00 00 00 00 00 00 00 00 00 00 00 00 00    ................
    0x1006c470:   00 00 00 00 00 00 00 00 00 00 00 00 00 00 00 00    ................
    0x1006c480:   00 00 00 00 00 00 00 00 00 00 00 00 00 00 00 00    ................
    0x1006c490:   00 00 00 00 00 00 00 00 00 00 00 00 00 00 00 00    ................
    0x1006c4a0:   00 00 00 00 00 00 00 00 00 00 00 00 00 00 00 00    ................
    0x1006c4b0:   00 00 00 00 00 00 00 00 00 00 00 00 00 00 00 00    ................
    0x1006c4c0:   00 00 00 00 00 00 00 00 00 00 00 00 00 00 00 00    ................
    0x1006c4d0:   00 00 00 00 00 00 00 00 00 00 00 00 00 00 00 00    ................
    0x1006c4e0:   00 00 00 00 00 00 00 00 00 00 00 00 00 00 00 00    ................
    0x1006c4f0:   00 00 00 00 00 00 00 00 00 00 00 00 00 00 00 00    ................
    0x1006c500:   00 00 00 00 00 00 00 00 00 00 00 00 00 00 00 00    ................
    0x1006c510:   00 00 00 00 00 00 00 00 00 00 00 00 00 00 00 00    ................
    0x1006c520:   00 00 00 00 00 00 00 00 00 00 00 00 00 00 00 00    ................
    0x1006c530:   00 00 00 00 00 00 00 00 00 00 00 00 00 00 00 00    ................
    0x1006c540:   00 00 00 00 00 00 00 00 00 00 00 00 00 00 00 00    ................
    0x1006c550:   00 00 00 00 00 00 00 00 00 00 00 00 00 00 00 00    ................
    0x1006c560:   00 00 00 00 00 00 00 00 00 00 00 00 00 00 00 00    ................
    0x1006c570:   00 00 00 00 00 00 00 00 00 00 00 00 00 00 00 00    ................
    0x1006c580:   00 00 00 00 00 00 00 00 00 00 00 00 00 00 00 00    ................
    0x1006c590:   00 00 00 00 00 00 00 00 00 00 00 00 00 00 00 00    ................
    0x1006c5a0:   00 00 00 00 00 00 00 00 00 00 00 00 00 00 00 00    ................
    0x1006c5b0:   00 00 00 00 00 00 00 00 00 00 00 00 00 00 00 00    ................
    0x1006c5c0:   00 00 00 00 00 00 00 00 00 00 00 00 00 00 00 00    ................
    0x1006c5d0:   00 00 00 00 00 00 00 00 00 00 00 00 00 00 00 00    ................
    0x1006c5e0:   00 00 00 00 00 00 00 00 00 00 00 00 00 00 00 00    ................
    0x1006c5f0:   00 00 00 00 00 00 00 00 00 00 00 00 00 00 00 00    ................
    0x1006c600:   00 00 00 00 00 00 00 00 00 00 00 00 00 00 00 00    ................
    0x1006c610:   00 00 00 00 00 00 00 00 00 00 00 00 00 00 00 00    ................
    0x1006c620:   00 00 00 00 00 00 00 00 00 00 00 00 00 00 00 00    ................
    0x1006c630:   00 00 00 00 00 00 00 00 00 00 00 00 00 00 00 00    ................
    0x1006c640:   00 00 00 00 00 00 00 00 00 00 00 00 00 00 00 00    ................
    0x1006c650:   00 00 00 00 00 00 00 00 00 00 00 00 00 00 00 00    ................
    0x1006c660:   00 00 00 00 00 00 00 00 00 00 00 00 00 00 00 00    ................
    0x1006c670:   00 00 00 00 00 00 00 00 00 00 00 00 00 00 00 00    ................
    0x1006c680:   00 00 00 00 00 00 00 00 00 00 00 00 00 00 00 00    ................
    0x1006c690:   00 00 00 00 00 00 00 00 00 00 00 00 00 00 00 00    ................
    0x1006c6a0:   00 00 00 00 00 00 00 00 00 00 00 00 00 00 00 00    ................
    0x1006c6b0:   00 00 00 00 00 00 00 00 00 00 00 00 00 00 00 00    ................
    0x1006c6c0:   00 00 00 00 00 00 00 00 00 00 00 00 00 00 00 00    ................
    0x1006c6d0:   00 00 00 00 00 00 00 00 00 00 00 00 00 00 00 00    ................
    0x1006c6e0:   00 00 00 00 00 00 00 00 00 00 00 00 00 00 00 00    ................
    0x1006c6f0:   00 00 00 00 00 00 00 00 00 00 00 00 00 00 00 00    ................
    0x1006c700:   00 00 00 00 00 00 00 00 00 00 00 00 00 00 00 00    ................
    0x1006c710:   00 00 00 00 00 00 00 00 00 00 00 00 00 00 00 00    ................
    0x1006c720:   00 00 00 00 00 00 00 00 00 00 00 00 00 00 00 00    ................
    0x1006c730:   00 00 00 00 00 00 00 00 00 00 00 00 00 00 00 00    ................
    0x1006c740:   00 00 00 00 00 00 00 00 00 00 00 00 00 00 00 00    ................
    0x1006c750:   00 00 00 00 00 00 00 00 00 00 00 00 00 00 00 00    ................
    0x1006c760:   00 00 00 00 00 00 00 00 00 00 00 00 00 00 00 00    ................
    0x1006c770:   00 00 00 00 00 00 00 00 00 00 00 00 00 00 00 00    ................
    0x1006c780:   00 00 00 00 00 00 00 00 00 00 00 00 00 00 00 00    ................
    0x1006c790:   00 00 00 00 00 00 00 00 00 00 00 00 00 00 00 00    ................
    0x1006c7a0:   00 00 00 00 00 00 00 00 00 00 00 00 00 00 00 00    ................
    0x1006c7b0:   00 00 00 00 00 00 00 00 00 00 00 00 00 00 00 00    ................
    0x1006c7c0:   00 00 00 00 00 00 00 00 00 00 00 00 00 00 00 00    ................
    0x1006c7d0:   00 00 00 00 00 00 00 00 00 00 00 00 00 00 00 00    ................
    0x1006c7e0:   00 00 00 00 00 00 00 00 00 00 00 00 00 00 00 00    ................
    0x1006c7f0:   00 00 00 00 00 00 00 00 00 00 00 00 00 00 00 00    ................
    0x1006c800:   00 00 00 00 00 00 00 00 00 00 00 00 00 00 00 00    ................
    0x1006c810:   00 00 00 00 00 00 00 00 00 00 00 00 00 00 00 00    ................
    0x1006c820:   00 00 00 00 00 00 00 00 00 00 00 00 00 00 00 00    ................
    0x1006c830:   00 00 00 00 00 00 00 00 00 00 00 00 00 00 00 00    ................
    0x1006c840:   00 00 00 00 00 00 00 00 00 00 00 00 00 00 00 00    ................
    0x1006c850:   00 00 00 00 00 00 00 00 00 00 00 00 00 00 00 00    ................
    0x1006c860:   00 00 00 00 00 00 00 00 00 00 00 00 00 00 00 00    ................
    0x1006c870:   00 00 00 00 00 00 00 00 00 00 00 00 00 00 00 00    ................
    0x1006c880:   00 00 00 00 00 00 00 00 00 00 00 00 00 00 00 00    ................
    0x1006c890:   00 00 00 00 00 00 00 00 00 00 00 00 00 00 00 00    ................
    0x1006c8a0:   00 00 00 00 00 00 00 00 00 00 00 00 00 00 00 00    ................
    0x1006c8b0:   00 00 00 00 00 00 00 00 00 00 00 00 00 00 00 00    ................
    0x1006c8c0:   00 00 00 00 00 00 00 00 00 00 00 00 00 00 00 00    ................
    0x1006c8d0:   00 00 00 00 00 00 00 00 00 00 00 00 00 00 00 00    ................
    0x1006c8e0:   00 00 00 00 00 00 00 00 00 00 00 00 00 00 00 00    ................
    0x1006c8f0:   00 00 00 00 00 00 00 00 00 00 00 00 00 00 00 00    ................
    0x1006c900:   00 00 00 00 00 00 00 00 00 00 00 00 00 00 00 00    ................
    0x1006c910:   00 00 00 00 00 00 00 00 00 00 00 00 00 00 00 00    ................
    0x1006c920:   00 00 00 00 00 00 00 00 00 00 00 00 00 00 00 00    ................
    0x1006c930:   00 00 00 00 00 00 00 00 00 00 00 00 00 00 00 00    ................
    0x1006c940:   00 00 00 00 00 00 00 00 00 00 00 00 00 00 00 00    ................
    0x1006c950:   00 00 00 00 00 00 00 00 00 00 00 00 00 00 00 00    ................
    0x1006c960:   00 00 00 00 00 00 00 00 00 00 00 00 00 00 00 00    ................
    0x1006c970:   00 00 00 00 00 00 00 00 00 00 00 00 00 00 00 00    ................
    0x1006c980:   00 00 00 00 00 00 00 00 00 00 00 00 00 00 00 00    ................
    0x1006c990:   00 00 00 00 00 00 00 00 00 00 00 00 00 00 00 00    ................
    0x1006c9a0:   00 00 00 00 00 00 00 00 00 00 00 00 00 00 00 00    ................
    0x1006c9b0:   00 00 00 00 00 00 00 00 00 00 00 00 00 00 00 00    ................
    0x1006c9c0:   00 00 00 00 00 00 00 00 00 00 00 00 00 00 00 00    ................
    0x1006c9d0:   00 00 00 00 00 00 00 00 00 00 00 00 00 00 00 00    ................
    0x1006c9e0:   00 00 00 00 00 00 00 00 00 00 00 00 00 00 00 00    ................
    0x1006c9f0:   00 00 00 00 00 00 00 00 00 00 00 00 00 00 00 00    ................
    0x1006ca00:   00 00 00 00 00 00 00 00 00 00 00 00 00 00 00 00    ................
    0x1006ca10:   00 00 00 00 00 00 00 00 00 00 00 00 00 00 00 00    ................
    0x1006ca20:   00 00 00 00 00 00 00 00 00 00 00 00 00 00 00 00    ................
    0x1006ca30:   00 00 00 00 00 00 00 00 00 00 00 00 00 00 00 00    ................
    0x1006ca40:   00 00 00 00 00 00 00 00 00 00 00 00 00 00 00 00    ................
    0x1006ca50:   00 00 00 00 00 00 00 00 00 00 00 00 00 00 00 00    ................
    0x1006ca60:   00 00 00 00 00 00 00 00 00 00 00 00 00 00 00 00    ................
    0x1006ca70:   00 00 00 00 00 00 00 00 00 00 00 00 00 00 00 00    ................
    0x1006ca80:   00 00 00 00 00 00 00 00 00 00 00 00 00 00 00 00    ................
    0x1006ca90:   00 00 00 00 00 00 00 00 00 00 00 00 00 00 00 00    ................
    0x1006caa0:   00 00 00 00 00 00 00 00 00 00 00 00 00 00 00 00    ................
    0x1006cab0:   00 00 00 00 00 00 00 00 00 00 00 00 00 00 00 00    ................
    0x1006cac0:   00 00 00 00 00 00 00 00 00 00 00 00 00 00 00 00    ................
    0x1006cad0:   00 00 00 00 00 00 00 00 00 00 00 00 00 00 00 00    ................
    0x1006cae0:   00 00 00 00 00 00 00 00 00 00 00 00 00 00 00 00    ................
    0x1006caf0:   00 00 00 00 00 00 00 00 00 00 00 00 00 00 00 00    ................
    0x1006cb00:   00 00 00 00 00 00 00 00 00 00 00 00 00 00 00 00    ................
    0x1006cb10:   00 00 00 00 00 00 00 00 00 00 00 00 00 00 00 00    ................
    0x1006cb20:   00 00 00 00 00 00 00 00 00 00 00 00 00 00 00 00    ................
    0x1006cb30:   00 00 00 00 00 00 00 00 00 00 00 00 00 00 00 00    ................
    0x1006cb40:   00 00 00 00 00 00 00 00 00 00 00 00 00 00 00 00    ................
    0x1006cb50:   00 00 00 00 00 00 00 00 00 00 00 00 00 00 00 00    ................
    0x1006cb60:   00 00 00 00 00 00 00 00 00 00 00 00 00 00 00 00    ................
    0x1006cb70:   00 00 00 00 00 00 00 00 00 00 00 00 00 00 00 00    ................
    0x1006cb80:   00 00 00 00 00 00 00 00 00 00 00 00 00 00 00 00    ................
    0x1006cb90:   00 00 00 00 00 00 00 00 00 00 00 00 00 00 00 00    ................
    0x1006cba0:   00 00 00 00 00 00 00 00 00 00 00 00 00 00 00 00    ................
    0x1006cbb0:   00 00 00 00 00 00 00 00 00 00 00 00 00 00 00 00    ................
    0x1006cbc0:   00 00 00 00 00 00 00 00 00 00 00 00 00 00 00 00    ................
    0x1006cbd0:   00 00 00 00 00 00 00 00 00 00 00 00 00 00 00 00    ................
    0x1006cbe0:   00 00 00 00 00 00 00 00 00 00 00 00 00 00 00 00    ................
    0x1006cbf0:   00 00 00 00 00 00 00 00 00 00 00 00 00 00 00 00    ................
    0x1006cc00:   00 00 00 00 00 00 00 00 00 00 00 00 00 00 00 00    ................
    0x1006cc10:   00 00 00 00 00 00 00 00 00 00 00 00 00 00 00 00    ................
    0x1006cc20:   00 00 00 00 00 00 00 00 00 00 00 00 00 00 00 00    ................
    0x1006cc30:   00 00 00 00 00 00 00 00 00 00 00 00 00 00 00 00    ................
    0x1006cc40:   00 00 00 00 00 00 00 00 00 00 00 00 00 00 00 00    ................
    0x1006cc50:   00 00 00 00 00 00 00 00 00 00 00 00 00 00 00 00    ................
    0x1006cc60:   00 00 00 00 00 00 00 00 00 00 00 00 00 00 00 00    ................
    0x1006cc70:   00 00 00 00 00 00 00 00 00 00 00 00 00 00 00 00    ................
    0x1006cc80:   00 00 00 00 00 00 00 00 00 00 00 00 00 00 00 00    ................
    0x1006cc90:   00 00 00 00 00 00 00 00 00 00 00 00 00 00 00 00    ................
    0x1006cca0:   00 00 00 00 00 00 00 00 00 00 00 00 00 00 00 00    ................
    0x1006ccb0:   00 00 00 00 00 00 00 00 00 00 00 00 00 00 00 00    ................
    0x1006ccc0:   00 00 00 00 00 00 00 00 00 00 00 00 00 00 00 00    ................
    0x1006ccd0:   00 00 00 00 00 00 00 00 00 00 00 00 00 00 00 00    ................
    0x1006cce0:   00 00 00 00 00 00 00 00 00 00 00 00 00 00 00 00    ................
    0x1006ccf0:   00 00 00 00 00 00 00 00 00 00 00 00 00 00 00 00    ................
    0x1006cd00:   00 00 00 00 00 00 00 00 00 00 00 00 00 00 00 00    ................
    0x1006cd10:   00 00 00 00 00 00 00 00 00 00 00 00 00 00 00 00    ................
    0x1006cd20:   00 00 00 00 00 00 00 00 00 00 00 00 00 00 00 00    ................
    0x1006cd30:   00 00 00 00 00 00 00 00 00 00 00 00 00 00 00 00    ................
    0x1006cd40:   00 00 00 00 00 00 00 00 00 00 00 00 00 00 00 00    ................
    0x1006cd50:   00 00 00 00 00 00 00 00 00 00 00 00 00 00 00 00    ................
    0x1006cd60:   00 00 00 00 00 00 00 00 00 00 00 00 00 00 00 00    ................
    0x1006cd70:   00 00 00 00 00 00 00 00 00 00 00 00 00 00 00 00    ................
    0x1006cd80:   00 00 00 00 00 00 00 00 00 00 00 00 00 00 00 00    ................
    0x1006cd90:   00 00 00 00 00 00 00 00 00 00 00 00 00 00 00 00    ................
    0x1006cda0:   00 00 00 00 00 00 00 00 00 00 00 00 00 00 00 00    ................
    0x1006cdb0:   00 00 00 00 00 00 00 00 00 00 00 00 00 00 00 00    ................
    0x1006cdc0:   00 00 00 00 00 00 00 00 00 00 00 00 00 00 00 00    ................
    0x1006cdd0:   00 00 00 00 00 00 00 00 00 00 00 00 00 00 00 00    ................
    0x1006cde0:   00 00 00 00 00 00 00 00 00 00 00 00 00 00 00 00    ................
    0x1006cdf0:   00 00 00 00 00 00 00 00 00 00 00 00 00 00 00 00    ................
    0x1006ce00:   00 00 00 00 00 00 00 00 00 00 00 00 00 00 00 00    ................
    0x1006ce10:   00 00 00 00 00 00 00 00 00 00 00 00 00 00 00 00    ................
    0x1006ce20:   00 00 00 00 00 00 00 00 00 00 00 00 00 00 00 00    ................
    0x1006ce30:   00 00 00 00 00 00 00 00 00 00 00 00 00 00 00 00    ................
    0x1006ce40:   00 00 00 00 00 00 00 00 00 00 00 00 00 00 00 00    ................
    0x1006ce50:   00 00 00 00 00 00 00 00 00 00 00 00 00 00 00 00    ................
    0x1006ce60:   00 00 00 00 00 00 00 00 00 00 00 00 00 00 00 00    ................
    0x1006ce70:   00 00 00 00 00 00 00 00 00 00 00 00 00 00 00 00    ................
    0x1006ce80:   00 00 00 00 00 00 00 00 00 00 00 00 00 00 00 00    ................
    0x1006ce90:   00 00 00 00 00 00 00 00 00 00 00 00 00 00 00 00    ................
    0x1006cea0:   00 00 00 00 00 00 00 00 00 00 00 00 00 00 00 00    ................
    0x1006ceb0:   00 00 00 00 00 00 00 00 00 00 00 00 00 00 00 00    ................
    0x1006cec0:   00 00 00 00 00 00 00 00 00 00 00 00 00 00 00 00    ................
    0x1006ced0:   00 00 00 00 00 00 00 00 00 00 00 00 00 00 00 00    ................
    0x1006cee0:   00 00 00 00 00 00 00 00 00 00 00 00 00 00 00 00    ................
    0x1006cef0:   00 00 00 00 00 00 00 00 00 00 00 00 00 00 00 00    ................
    0x1006cf00:   00 00 00 00 00 00 00 00 00 00 00 00 00 00 00 00    ................
    0x1006cf10:   00 00 00 00 00 00 00 00 00 00 00 00 00 00 00 00    ................
    0x1006cf20:   00 00 00 00 00 00 00 00 00 00 00 00 00 00 00 00    ................
    0x1006cf30:   00 00 00 00 00 00 00 00 00 00 00 00 00 00 00 00    ................
    0x1006cf40:   00 00 00 00 00 00 00 00 00 00 00 00 00 00 00 00    ................
    0x1006cf50:   00 00 00 00 00 00 00 00 00 00 00 00 00 00 00 00    ................
    0x1006cf60:   00 00 00 00 00 00 00 00 00 00 00 00 00 00 00 00    ................
    0x1006cf70:   00 00 00 00 00 00 00 00 00 00 00 00 00 00 00 00    ................
    0x1006cf80:   00 00 00 00 00 00 00 00 00 00 00 00 00 00 00 00    ................
    0x1006cf90:   00 00 00 00 00 00 00 00 00 00 00 00 00 00 00 00    ................
    0x1006cfa0:   00 00 00 00 00 00 00 00 00 00 00 00 00 00 00 00    ................
    0x1006cfb0:   00 00 00 00 00 00 00 00 00 00 00 00 00 00 00 00    ................
    0x1006cfc0:   00 00 00 00 00 00 00 00 00 00 00 00 00 00 00 00    ................
    0x1006cfd0:   00 00 00 00 00 00 00 00 00 00 00 00 00 00 00 00    ................
    0x1006cfe0:   00 00 00 00 00 00 00 00 00 00 00 00 00 00 00 00    ................
    0x1006cff0:   00 00 00 00 00 00 00 00 00 00 00 00 00 00 00 00    ................
    0x1006d000:   00 00 00 00 00 00 00 00 00 00 00 00 00 00 00 00    ................
    0x1006d010:   00 00 00 00 00 00 00 00 00 00 00 00 00 00 00 00    ................
    0x1006d020:   00 00 00 00 00 00 00 00 00 00 00 00 00 00 00 00    ................
    0x1006d030:   00 00 00 00 00 00 00 00 00 00 00 00 00 00 00 00    ................
    0x1006d040:   00 00 00 00 00 00 00 00 00 00 00 00 00 00 00 00    ................
    0x1006d050:   00 00 00 00 00 00 00 00 00 00 00 00 00 00 00 00    ................
    0x1006d060:   00 00 00 00 00 00 00 00 00 00 00 00 00 00 00 00    ................
    0x1006d070:   00 00 00 00 00 00 00 00 00 00 00 00 00 00 00 00    ................
    0x1006d080:   00 00 00 00 00 00 00 00 00 00 00 00 00 00 00 00    ................
    0x1006d090:   00 00 00 00 00 00 00 00 00 00 00 00 00 00 00 00    ................
    0x1006d0a0:   00 00 00 00 00 00 00 00 00 00 00 00 00 00 00 00    ................
    0x1006d0b0:   00 00 00 00 00 00 00 00 00 00 00 00 00 00 00 00    ................
    0x1006d0c0:   00 00 00 00 00 00 00 00 00 00 00 00 00 00 00 00    ................
    0x1006d0d0:   00 00 00 00 00 00 00 00 00 00 00 00 00 00 00 00    ................
    0x1006d0e0:   00 00 00 00 00 00 00 00 00 00 00 00 00 00 00 00    ................
    0x1006d0f0:   00 00 00 00 00 00 00 00 00 00 00 00 00 00 00 00    ................
    0x1006d100:   00 00 00 00 00 00 00 00 00 00 00 00 00 00 00 00    ................
    0x1006d110:   00 00 00 00 00 00 00 00 00 00 00 00 00 00 00 00    ................
    0x1006d120:   00 00 00 00 00 00 00 00 00 00 00 00 00 00 00 00    ................
    0x1006d130:   00 00 00 00 00 00 00 00 00 00 00 00 00 00 00 00    ................
    0x1006d140:   00 00 00 00 00 00 00 00 00 00 00 00 00 00 00 00    ................
    0x1006d150:   00 00 00 00 00 00 00 00 00 00 00 00 00 00 00 00    ................
    0x1006d160:   00 00 00 00 00 00 00 00 00 00 00 00 00 00 00 00    ................
    0x1006d170:   00 00 00 00 00 00 00 00 00 00 00 00 00 00 00 00    ................
    0x1006d180:   00 00 00 00 00 00 00 00 00 00 00 00 00 00 00 00    ................
    0x1006d190:   00 00 00 00 00 00 00 00 00 00 00 00 00 00 00 00    ................
    0x1006d1a0:   00 00 00 00 00 00 00 00 00 00 00 00 00 00 00 00    ................
    0x1006d1b0:   00 00 00 00 00 00 00 00 00 00 00 00 00 00 00 00    ................
    0x1006d1c0:   00 00 00 00 00 00 00 00 00 00 00 00 00 00 00 00    ................
    0x1006d1d0:   00 00 00 00 00 00 00 00 00 00 00 00 00 00 00 00    ................
    0x1006d1e0:   00 00 00 00 00 00 00 00 00 00 00 00 00 00 00 00    ................
    0x1006d1f0:   00 00 00 00 00 00 00 00 00 00 00 00 00 00 00 00    ................
    0x1006d200:   00 00 00 00 00 00 00 00 00 00 00 00 00 00 00 00    ................
    0x1006d210:   00 00 00 00 00 00 00 00 00 00 00 00 00 00 00 00    ................
    0x1006d220:   00 00 00 00 00 00 00 00 00 00 00 00 00 00 00 00    ................
    0x1006d230:   00 00 00 00 00 00 00 00 00 00 00 00 00 00 00 00    ................
    0x1006d240:   00 00 00 00 00 00 00 00 00 00 00 00 00 00 00 00    ................
    0x1006d250:   00 00 00 00 00 00 00 00 00 00 00 00 00 00 00 00    ................
    0x1006d260:   00 00 00 00 00 00 00 00 00 00 00 00 00 00 00 00    ................
    0x1006d270:   00 00 00 00 00 00 00 00 00 00 00 00 00 00 00 00    ................
    0x1006d280:   00 00 00 00 00 00 00 00 00 00 00 00 00 00 00 00    ................
    0x1006d290:   00 00 00 00 00 00 00 00 00 00 00 00 00 00 00 00    ................
    0x1006d2a0:   00 00 00 00 00 00 00 00 00 00 00 00 00 00 00 00    ................
    0x1006d2b0:   00 00 00 00 00 00 00 00 00 00 00 00 00 00 00 00    ................
    0x1006d2c0:   00 00 00 00 00 00 00 00 00 00 00 00 00 00 00 00    ................
    0x1006d2d0:   00 00 00 00 00 00 00 00 00 00 00 00 00 00 00 00    ................
    0x1006d2e0:   00 00 00 00 00 00 00 00 00 00 00 00 00 00 00 00    ................
    0x1006d2f0:   00 00 00 00 00 00 00 00 00 00 00 00 00 00 00 00    ................
    0x1006d300:   00 00 00 00 00 00 00 00 00 00 00 00 00 00 00 00    ................
    0x1006d310:   00 00 00 00 00 00 00 00 00 00 00 00 00 00 00 00    ................
    0x1006d320:   00 00 00 00 00 00 00 00 00 00 00 00 00 00 00 00    ................
    0x1006d330:   00 00 00 00 00 00 00 00 00 00 00 00 00 00 00 00    ................
    0x1006d340:   00 00 00 00 00 00 00 00 00 00 00 00 00 00 00 00    ................
    0x1006d350:   00 00 00 00 00 00 00 00 00 00 00 00 00 00 00 00    ................
    0x1006d360:   00 00 00 00 00 00 00 00 00 00 00 00 00 00 00 00    ................
    0x1006d370:   00 00 00 00 00 00 00 00 00 00 00 00 00 00 00 00    ................
    0x1006d380:   00 00 00 00 00 00 00 00 00 00 00 00 00 00 00 00    ................
    0x1006d390:   00 00 00 00 00 00 00 00 00 00 00 00 00 00 00 00    ................
    0x1006d3a0:   00 00 00 00 00 00 00 00 00 00 00 00 00 00 00 00    ................
    0x1006d3b0:   00 00 00 00 00 00 00 00 00 00 00 00 00 00 00 00    ................
    0x1006d3c0:   00 00 00 00 00 00 00 00 00 00 00 00 00 00 00 00    ................
    0x1006d3d0:   00 00 00 00 00 00 00 00 00 00 00 00 00 00 00 00    ................
    0x1006d3e0:   00 00 00 00 00 00 00 00 00 00 00 00 00 00 00 00    ................
    0x1006d3f0:   00 00 00 00 00 00 00 00 00 00 00 00 00 00 00 00    ................
    0x1006d400:   00 00 00 00 00 00 00 00 00 00 00 00 00 00 00 00    ................
    0x1006d410:   00 00 00 00 00 00 00 00 00 00 00 00 00 00 00 00    ................
    0x1006d420:   00 00 00 00 00 00 00 00 00 00 00 00 00 00 00 00    ................
    0x1006d430:   00 00 00 00 00 00 00 00 00 00 00 00 00 00 00 00    ................
    0x1006d440:   00 00 00 00 00 00 00 00 00 00 00 00 00 00 00 00    ................
    0x1006d450:   00 00 00 00 00 00 00 00 00 00 00 00 00 00 00 00    ................
    0x1006d460:   00 00 00 00 00 00 00 00 00 00 00 00 00 00 00 00    ................
    0x1006d470:   00 00 00 00 00 00 00 00 00 00 00 00 00 00 00 00    ................
    0x1006d480:   00 00 00 00 00 00 00 00 00 00 00 00 00 00 00 00    ................
    0x1006d490:   00 00 00 00 00 00 00 00 00 00 00 00 00 00 00 00    ................
    0x1006d4a0:   00 00 00 00 00 00 00 00 00 00 00 00 00 00 00 00    ................
    0x1006d4b0:   00 00 00 00 00 00 00 00 00 00 00 00 00 00 00 00    ................
    0x1006d4c0:   00 00 00 00 00 00 00 00 00 00 00 00 00 00 00 00    ................
    0x1006d4d0:   00 00 00 00 00 00 00 00 00 00 00 00 00 00 00 00    ................
    0x1006d4e0:   00 00 00 00 00 00 00 00 00 00 00 00 00 00 00 00    ................
    0x1006d4f0:   00 00 00 00 00 00 00 00 00 00 00 00 00 00 00 00    ................
    0x1006d500:   00 00 00 00 00 00 00 00 00 00 00 00 00 00 00 00    ................
    0x1006d510:   00 00 00 00 00 00 00 00 00 00 00 00 00 00 00 00    ................
    0x1006d520:   00 00 00 00 00 00 00 00 00 00 00 00 00 00 00 00    ................
    0x1006d530:   00 00 00 00 00 00 00 00 00 00 00 00 00 00 00 00    ................
    0x1006d540:   00 00 00 00 00 00 00 00 00 00 00 00 00 00 00 00    ................
    0x1006d550:   00 00 00 00 00 00 00 00 00 00 00 00 00 00 00 00    ................
    0x1006d560:   00 00 00 00 00 00 00 00 00 00 00 00 00 00 00 00    ................
    0x1006d570:   00 00 00 00 00 00 00 00 00 00 00 00 00 00 00 00    ................
    0x1006d580:   00 00 00 00 00 00 00 00 00 00 00 00 00 00 00 00    ................
    0x1006d590:   00 00 00 00 00 00 00 00 00 00 00 00 00 00 00 00    ................
    0x1006d5a0:   00 00 00 00 00 00 00 00 00 00 00 00 00 00 00 00    ................
    0x1006d5b0:   00 00 00 00 00 00 00 00 00 00 00 00 00 00 00 00    ................
    0x1006d5c0:   00 00 00 00 00 00 00 00 00 00 00 00 00 00 00 00    ................
    0x1006d5d0:   00 00 00 00 00 00 00 00 00 00 00 00 00 00 00 00    ................
    0x1006d5e0:   00 00 00 00 00 00 00 00 00 00 00 00 00 00 00 00    ................
    0x1006d5f0:   00 00 00 00 00 00 00 00 00 00 00 00 00 00 00 00    ................
    0x1006d600:   00 00 00 00 00 00 00 00 00 00 00 00 00 00 00 00    ................
    0x1006d610:   00 00 00 00 00 00 00 00 00 00 00 00 00 00 00 00    ................
    0x1006d620:   00 00 00 00 00 00 00 00 00 00 00 00 00 00 00 00    ................
    0x1006d630:   00 00 00 00 00 00 00 00 00 00 00 00 00 00 00 00    ................
    0x1006d640:   00 00 00 00 00 00 00 00 00 00 00 00 00 00 00 00    ................
    0x1006d650:   00 00 00 00 00 00 00 00 00 00 00 00 00 00 00 00    ................
    0x1006d660:   00 00 00 00 00 00 00 00 00 00 00 00 00 00 00 00    ................
    0x1006d670:   00 00 00 00 00 00 00 00 00 00 00 00 00 00 00 00    ................
    0x1006d680:   00 00 00 00 00 00 00 00 00 00 00 00 00 00 00 00    ................
    0x1006d690:   00 00 00 00 00 00 00 00 00 00 00 00 00 00 00 00    ................
    0x1006d6a0:   00 00 00 00 00 00 00 00 00 00 00 00 00 00 00 00    ................
    0x1006d6b0:   00 00 00 00 00 00 00 00 00 00 00 00 00 00 00 00    ................
    0x1006d6c0:   00 00 00 00 00 00 00 00 00 00 00 00 00 00 00 00    ................
    0x1006d6d0:   00 00 00 00 00 00 00 00 00 00 00 00 00 00 00 00    ................
    0x1006d6e0:   00 00 00 00 00 00 00 00 00 00 00 00 00 00 00 00    ................
    0x1006d6f0:   00 00 00 00 00 00 00 00 00 00 00 00 00 00 00 00    ................
    0x1006d700:   00 00 00 00 00 00 00 00 00 00 00 00 00 00 00 00    ................
    0x1006d710:   00 00 00 00 00 00 00 00 00 00 00 00 00 00 00 00    ................
    0x1006d720:   00 00 00 00 00 00 00 00 00 00 00 00 00 00 00 00    ................
    0x1006d730:   00 00 00 00 00 00 00 00 00 00 00 00 00 00 00 00    ................
    0x1006d740:   00 00 00 00 00 00 00 00 00 00 00 00 00 00 00 00    ................
    0x1006d750:   00 00 00 00 00 00 00 00 00 00 00 00 00 00 00 00    ................
    0x1006d760:   00 00 00 00 00 00 00 00 00 00 00 00 00 00 00 00    ................
    0x1006d770:   00 00 00 00 00 00 00 00 00 00 00 00 00 00 00 00    ................
    0x1006d780:   00 00 00 00 00 00 00 00 00 00 00 00 00 00 00 00    ................
    0x1006d790:   00 00 00 00 00 00 00 00 00 00 00 00 00 00 00 00    ................
    0x1006d7a0:   00 00 00 00 00 00 00 00 00 00 00 00 00 00 00 00    ................
    0x1006d7b0:   00 00 00 00 00 00 00 00 00 00 00 00 00 00 00 00    ................
    0x1006d7c0:   00 00 00 00 00 00 00 00 00 00 00 00 00 00 00 00    ................
    0x1006d7d0:   00 00 00 00 00 00 00 00 00 00 00 00 00 00 00 00    ................
    0x1006d7e0:   00 00 00 00 00 00 00 00 00 00 00 00 00 00 00 00    ................
    0x1006d7f0:   00 00 00 00 00 00 00 00 00 00 00 00 00 00 00 00    ................
    0x1006d800:   00 00 00 00 00 00 00 00 00 00 00 00 00 00 00 00    ................
    0x1006d810:   00 00 00 00 00 00 00 00 00 00 00 00 00 00 00 00    ................
    0x1006d820:   00 00 00 00 00 00 00 00 00 00 00 00 00 00 00 00    ................
    0x1006d830:   00 00 00 00 00 00 00 00 00 00 00 00 00 00 00 00    ................
    0x1006d840:   00 00 00 00 00 00 00 00 00 00 00 00 00 00 00 00    ................
    0x1006d850:   00 00 00 00 00 00 00 00 00 00 00 00 00 00 00 00    ................
    0x1006d860:   00 00 00 00 00 00 00 00 00 00 00 00 00 00 00 00    ................
    0x1006d870:   00 00 00 00 00 00 00 00 00 00 00 00 00 00 00 00    ................
    0x1006d880:   00 00 00 00 00 00 00 00 00 00 00 00 00 00 00 00    ................
    0x1006d890:   00 00 00 00 00 00 00 00 00 00 00 00 00 00 00 00    ................
    0x1006d8a0:   00 00 00 00 00 00 00 00 00 00 00 00 00 00 00 00    ................
    0x1006d8b0:   00 00 00 00 00 00 00 00 00 00 00 00 00 00 00 00    ................
    0x1006d8c0:   00 00 00 00 00 00 00 00 00 00 00 00 00 00 00 00    ................
    0x1006d8d0:   00 00 00 00 00 00 00 00 00 00 00 00 00 00 00 00    ................
    0x1006d8e0:   00 00 00 00 00 00 00 00 00 00 00 00 00 00 00 00    ................
    0x1006d8f0:   00 00 00 00 00 00 00 00 00 00 00 00 00 00 00 00    ................
    0x1006d900:   00 00 00 00 00 00 00 00 00 00 00 00 00 00 00 00    ................
    0x1006d910:   00 00 00 00 00 00 00 00 00 00 00 00 00 00 00 00    ................
    0x1006d920:   00 00 00 00 00 00 00 00 00 00 00 00 00 00 00 00    ................
    0x1006d930:   00 00 00 00 00 00 00 00 00 00 00 00 00 00 00 00    ................
    0x1006d940:   00 00 00 00 00 00 00 00 00 00 00 00 00 00 00 00    ................
    0x1006d950:   00 00 00 00 00 00 00 00 00 00 00 00 00 00 00 00    ................
    0x1006d960:   00 00 00 00 00 00 00 00 00 00 00 00 00 00 00 00    ................
    0x1006d970:   00 00 00 00 00 00 00 00 00 00 00 00 00 00 00 00    ................
    0x1006d980:   00 00 00 00 00 00 00 00 00 00 00 00 00 00 00 00    ................
    0x1006d990:   00 00 00 00 00 00 00 00 00 00 00 00 00 00 00 00    ................
    0x1006d9a0:   00 00 00 00 00 00 00 00 00 00 00 00 00 00 00 00    ................
    0x1006d9b0:   00 00 00 00 00 00 00 00 00 00 00 00 00 00 00 00    ................
    0x1006d9c0:   00 00 00 00 00 00 00 00 00 00 00 00 00 00 00 00    ................
    0x1006d9d0:   00 00 00 00 00 00 00 00 00 00 00 00 00 00 00 00    ................
    0x1006d9e0:   00 00 00 00 00 00 00 00 00 00 00 00 00 00 00 00    ................
    0x1006d9f0:   00 00 00 00 00 00 00 00 00 00 00 00 00 00 00 00    ................
    0x1006da00:   00 00 00 00 00 00 00 00 00 00 00 00 00 00 00 00    ................
    0x1006da10:   00 00 00 00 00 00 00 00 00 00 00 00 00 00 00 00    ................
    0x1006da20:   00 00 00 00 00 00 00 00 00 00 00 00 00 00 00 00    ................
    0x1006da30:   00 00 00 00 00 00 00 00 00 00 00 00 00 00 00 00    ................
    0x1006da40:   00 00 00 00 00 00 00 00 00 00 00 00 00 00 00 00    ................
    0x1006da50:   00 00 00 00 00 00 00 00 00 00 00 00 00 00 00 00    ................
    0x1006da60:   00 00 00 00 00 00 00 00 00 00 00 00 00 00 00 00    ................
    0x1006da70:   00 00 00 00 00 00 00 00 00 00 00 00 00 00 00 00    ................
    0x1006da80:   00 00 00 00 00 00 00 00 00 00 00 00 00 00 00 00    ................
    0x1006da90:   00 00 00 00 00 00 00 00 00 00 00 00 00 00 00 00    ................
    0x1006daa0:   00 00 00 00 00 00 00 00 00 00 00 00 00 00 00 00    ................
    0x1006dab0:   00 00 00 00 00 00 00 00 00 00 00 00 00 00 00 00    ................
    0x1006dac0:   00 00 00 00 00 00 00 00 00 00 00 00 00 00 00 00    ................
    0x1006dad0:   00 00 00 00 00 00 00 00 00 00 00 00 00 00 00 00    ................
    0x1006dae0:   00 00 00 00 00 00 00 00 00 00 00 00 00 00 00 00    ................
    0x1006daf0:   00 00 00 00 00 00 00 00 00 00 00 00 00 00 00 00    ................
    0x1006db00:   00 00 00 00 00 00 00 00 00 00 00 00 00 00 00 00    ................
    0x1006db10:   00 00 00 00 00 00 00 00 00 00 00 00 00 00 00 00    ................
    0x1006db20:   00 00 00 00 00 00 00 00 00 00 00 00 00 00 00 00    ................
    0x1006db30:   00 00 00 00 00 00 00 00 00 00 00 00 00 00 00 00    ................
    0x1006db40:   00 00 00 00 00 00 00 00 00 00 00 00 00 00 00 00    ................
    0x1006db50:   00 00 00 00 00 00 00 00 00 00 00 00 00 00 00 00    ................
    0x1006db60:   00 00 00 00 00 00 00 00 00 00 00 00 00 00 00 00    ................
    0x1006db70:   00 00 00 00 00 00 00 00 00 00 00 00 00 00 00 00    ................
    0x1006db80:   00 00 00 00 00 00 00 00 00 00 00 00 00 00 00 00    ................
    0x1006db90:   00 00 00 00 00 00 00 00 00 00 00 00 00 00 00 00    ................
    0x1006dba0:   00 00 00 00 00 00 00 00 00 00 00 00 00 00 00 00    ................
    0x1006dbb0:   00 00 00 00 00 00 00 00 00 00 00 00 00 00 00 00    ................
    0x1006dbc0:   00 00 00 00 00 00 00 00 00 00 00 00 00 00 00 00    ................
    0x1006dbd0:   00 00 00 00 00 00 00 00 00 00 00 00 00 00 00 00    ................
    0x1006dbe0:   00 00 00 00 00 00 00 00 00 00 00 00 00 00 00 00    ................
    0x1006dbf0:   00 00 00 00 00 00 00 00 00 00 00 00 00 00 00 00    ................
    0x1006dc00:   00 00 00 00 00 00 00 00 00 00 00 00 00 00 00 00    ................
    0x1006dc10:   00 00 00 00 00 00 00 00 00 00 00 00 00 00 00 00    ................
    0x1006dc20:   00 00 00 00 00 00 00 00 00 00 00 00 00 00 00 00    ................
    0x1006dc30:   00 00 00 00 00 00 00 00 00 00 00 00 00 00 00 00    ................
    0x1006dc40:   00 00 00 00 00 00 00 00 00 00 00 00 00 00 00 00    ................
    0x1006dc50:   00 00 00 00 00 00 00 00 00 00 00 00 00 00 00 00    ................
    0x1006dc60:   00 00 00 00 00 00 00 00 00 00 00 00 00 00 00 00    ................
    0x1006dc70:   00 00 00 00 00 00 00 00 00 00 00 00 00 00 00 00    ................
    0x1006dc80:   00 00 00 00 00 00 00 00 00 00 00 00 00 00 00 00    ................
    0x1006dc90:   00 00 00 00 00 00 00 00 00 00 00 00 00 00 00 00    ................
    0x1006dca0:   00 00 00 00 00 00 00 00 00 00 00 00 00 00 00 00    ................
    0x1006dcb0:   00 00 00 00 00 00 00 00 00 00 00 00 00 00 00 00    ................
    0x1006dcc0:   00 00 00 00 00 00 00 00 00 00 00 00 00 00 00 00    ................
    0x1006dcd0:   00 00 00 00 00 00 00 00 00 00 00 00 00 00 00 00    ................
    0x1006dce0:   00 00 00 00 00 00 00 00 00 00 00 00 00 00 00 00    ................
    0x1006dcf0:   00 00 00 00 00 00 00 00 00 00 00 00 00 00 00 00    ................
    0x1006dd00:   00 00 00 00 00 00 00 00 00 00 00 00 00 00 00 00    ................
    0x1006dd10:   00 00 00 00 00 00 00 00 00 00 00 00 00 00 00 00    ................
    0x1006dd20:   00 00 00 00 00 00 00 00 00 00 00 00 00 00 00 00    ................
    0x1006dd30:   00 00 00 00 00 00 00 00 00 00 00 00 00 00 00 00    ................
    0x1006dd40:   00 00 00 00 00 00 00 00 00 00 00 00 00 00 00 00    ................
    0x1006dd50:   00 00 00 00 00 00 00 00 00 00 00 00 00 00 00 00    ................
    0x1006dd60:   00 00 00 00 00 00 00 00 00 00 00 00 00 00 00 00    ................
    0x1006dd70:   00 00 00 00 00 00 00 00 00 00 00 00 00 00 00 00    ................
    0x1006dd80:   00 00 00 00 00 00 00 00 00 00 00 00 00 00 00 00    ................
    0x1006dd90:   00 00 00 00 00 00 00 00 00 00 00 00 00 00 00 00    ................
    0x1006dda0:   00 00 00 00 00 00 00 00 00 00 00 00 00 00 00 00    ................
    0x1006ddb0:   00 00 00 00 00 00 00 00 00 00 00 00 00 00 00 00    ................
    0x1006ddc0:   00 00 00 00 00 00 00 00 00 00 00 00 00 00 00 00    ................
    0x1006ddd0:   00 00 00 00 00 00 00 00 00 00 00 00 00 00 00 00    ................
    0x1006dde0:   00 00 00 00 00 00 00 00 00 00 00 00 00 00 00 00    ................
    0x1006ddf0:   00 00 00 00 00 00 00 00 00 00 00 00 00 00 00 00    ................
    0x1006de00:   00 00 00 00 00 00 00 00 00 00 00 00 00 00 00 00    ................
    0x1006de10:   00 00 00 00 00 00 00 00 00 00 00 00 00 00 00 00    ................
    0x1006de20:   00 00 00 00 00 00 00 00 00 00 00 00 00 00 00 00    ................
    0x1006de30:   00 00 00 00 00 00 00 00 00 00 00 00 00 00 00 00    ................
    0x1006de40:   00 00 00 00 00 00 00 00 00 00 00 00 00 00 00 00    ................
    0x1006de50:   00 00 00 00 00 00 00 00 00 00 00 00 00 00 00 00    ................
    0x1006de60:   00 00 00 00 00 00 00 00 00 00 00 00 00 00 00 00    ................
    0x1006de70:   00 00 00 00 00 00 00 00 00 00 00 00 00 00 00 00    ................
    0x1006de80:   00 00 00 00 00 00 00 00 00 00 00 00 00 00 00 00    ................
    0x1006de90:   00 00 00 00 00 00 00 00 00 00 00 00 00 00 00 00    ................
    0x1006dea0:   00 00 00 00 00 00 00 00 00 00 00 00 00 00 00 00    ................
    0x1006deb0:   00 00 00 00 00 00 00 00 00 00 00 00 00 00 00 00    ................
    0x1006dec0:   00 00 00 00 00 00 00 00 00 00 00 00 00 00 00 00    ................
    0x1006ded0:   00 00 00 00 00 00 00 00 00 00 00 00 00 00 00 00    ................
    0x1006dee0:   00 00 00 00 00 00 00 00 00 00 00 00 00 00 00 00    ................
    0x1006def0:   00 00 00 00 00 00 00 00 00 00 00 00 00 00 00 00    ................
    0x1006df00:   00 00 00 00 00 00 00 00 00 00 00 00 00 00 00 00    ................
    0x1006df10:   00 00 00 00 00 00 00 00 00 00 00 00 00 00 00 00    ................
    0x1006df20:   00 00 00 00 00 00 00 00 00 00 00 00 00 00 00 00    ................
    0x1006df30:   00 00 00 00 00 00 00 00 00 00 00 00 00 00 00 00    ................
    0x1006df40:   00 00 00 00 00 00 00 00 00 00 00 00 00 00 00 00    ................
    0x1006df50:   00 00 00 00 00 00 00 00 00 00 00 00 00 00 00 00    ................
    0x1006df60:   00 00 00 00 00 00 00 00 00 00 00 00 00 00 00 00    ................
    0x1006df70:   00 00 00 00 00 00 00 00 00 00 00 00 00 00 00 00    ................
    0x1006df80:   00 00 00 00 00 00 00 00 00 00 00 00 00 00 00 00    ................
    0x1006df90:   00 00 00 00 00 00 00 00 00 00 00 00 00 00 00 00    ................
    0x1006dfa0:   00 00 00 00 00 00 00 00 00 00 00 00 00 00 00 00    ................
    0x1006dfb0:   00 00 00 00 00 00 00 00 00 00 00 00 00 00 00 00    ................
    0x1006dfc0:   00 00 00 00 00 00 00 00 00 00 00 00 00 00 00 00    ................
    0x1006dfd0:   00 00 00 00 00 00 00 00 00 00 00 00 00 00 00 00    ................
    0x1006dfe0:   00 00 00 00 00 00 00 00 00 00 00 00 00 00 00 00    ................
    0x1006dff0:   00 00 00 00 00 00 00 00 00 00 00 00 00 00 00 00    ................
    0x1006e000:   00 00 00 00 00 00 00 00 00 00 00 00 00 00 00 00    ................
    0x1006e010:   00 00 00 00 00 00 00 00 00 00 00 00 00 00 00 00    ................
    0x1006e020:   00 00 00 00 00 00 00 00 00 00 00 00 00 00 00 00    ................
    0x1006e030:   00 00 00 00 00 00 00 00 00 00 00 00 00 00 00 00    ................
    0x1006e040:   00 00 00 00 00 00 00 00 00 00 00 00 00 00 00 00    ................
    0x1006e050:   00 00 00 00 00 00 00 00 00 00 00 00 00 00 00 00    ................
    0x1006e060:   00 00 00 00 00 00 00 00 00 00 00 00 00 00 00 00    ................
    0x1006e070:   00 00 00 00 00 00 00 00 00 00 00 00 00 00 00 00    ................
    0x1006e080:   00 00 00 00 00 00 00 00 00 00 00 00 00 00 00 00    ................
    0x1006e090:   00 00 00 00 00 00 00 00 00 00 00 00 00 00 00 00    ................
    0x1006e0a0:   00 00 00 00 00 00 00 00 00 00 00 00 00 00 00 00    ................
    0x1006e0b0:   00 00 00 00 00 00 00 00 00 00 00 00 00 00 00 00    ................
    0x1006e0c0:   00 00 00 00 00 00 00 00 00 00 00 00 00 00 00 00    ................
    0x1006e0d0:   00 00 00 00 00 00 00 00 00 00 00 00 00 00 00 00    ................
    0x1006e0e0:   00 00 00 00 00 00 00 00 00 00 00 00 00 00 00 00    ................
    0x1006e0f0:   00 00 00 00 00 00 00 00 00 00 00 00 00 00 00 00    ................
    0x1006e100:   00 00 00 00 00 00 00 00 00 00 00 00 00 00 00 00    ................
    0x1006e110:   00 00 00 00 00 00 00 00 00 00 00 00 00 00 00 00    ................
    0x1006e120:   00 00 00 00 00 00 00 00 00 00 00 00 00 00 00 00    ................
    0x1006e130:   00 00 00 00 00 00 00 00 00 00 00 00 00 00 00 00    ................
    0x1006e140:   00 00 00 00 00 00 00 00 00 00 00 00 00 00 00 00    ................
    0x1006e150:   00 00 00 00 00 00 00 00 00 00 00 00 00 00 00 00    ................
    0x1006e160:   00 00 00 00 00 00 00 00 00 00 00 00 00 00 00 00    ................
    0x1006e170:   00 00 00 00 00 00 00 00 00 00 00 00 00 00 00 00    ................
    0x1006e180:   00 00 00 00 00 00 00 00 00 00 00 00 00 00 00 00    ................
    0x1006e190:   00 00 00 00 00 00 00 00 00 00 00 00 00 00 00 00    ................
    0x1006e1a0:   00 00 00 00 00 00 00 00 00 00 00 00 00 00 00 00    ................
    0x1006e1b0:   00 00 00 00 00 00 00 00 00 00 00 00 00 00 00 00    ................
    0x1006e1c0:   00 00 00 00 00 00 00 00 00 00 00 00 00 00 00 00    ................
    0x1006e1d0:   00 00 00 00 00 00 00 00 00 00 00 00 00 00 00 00    ................
    0x1006e1e0:   00 00 00 00 00 00 00 00 00 00 00 00 00 00 00 00    ................
    0x1006e1f0:   00 00 00 00 00 00 00 00 00 00 00 00 00 00 00 00    ................
    0x1006e200:   00 00 00 00 00 00 00 00 00 00 00 00 00 00 00 00    ................
    0x1006e210:   00 00 00 00 00 00 00 00 00 00 00 00 00 00 00 00    ................
    0x1006e220:   00 00 00 00 00 00 00 00 00 00 00 00 00 00 00 00    ................
    0x1006e230:   00 00 00 00 00 00 00 00 00 00 00 00 00 00 00 00    ................
    0x1006e240:   00 00 00 00 00 00 00 00 00 00 00 00 00 00 00 00    ................
    0x1006e250:   00 00 00 00 00 00 00 00 00 00 00 00 00 00 00 00    ................
    0x1006e260:   00 00 00 00 00 00 00 00 00 00 00 00 00 00 00 00    ................
    0x1006e270:   00 00 00 00 00 00 00 00 00 00 00 00 00 00 00 00    ................
    0x1006e280:   00 00 00 00 00 00 00 00 00 00 00 00 00 00 00 00    ................
    0x1006e290:   00 00 00 00 00 00 00 00 00 00 00 00 00 00 00 00    ................
    0x1006e2a0:   00 00 00 00 00 00 00 00 00 00 00 00 00 00 00 00    ................
    0x1006e2b0:   00 00 00 00 00 00 00 00 00 00 00 00 00 00 00 00    ................
    0x1006e2c0:   00 00 00 00 00 00 00 00 00 00 00 00 00 00 00 00    ................
    0x1006e2d0:   00 00 00 00 00 00 00 00 00 00 00 00 00 00 00 00    ................
    0x1006e2e0:   00 00 00 00 00 00 00 00 00 00 00 00 00 00 00 00    ................
    0x1006e2f0:   00 00 00 00 00 00 00 00 00 00 00 00 00 00 00 00    ................
    0x1006e300:   00 00 00 00 00 00 00 00 00 00 00 00 00 00 00 00    ................
    0x1006e310:   00 00 00 00 00 00 00 00 00 00 00 00 00 00 00 00    ................
    0x1006e320:   00 00 00 00 00 00 00 00 00 00 00 00 00 00 00 00    ................
    0x1006e330:   00 00 00 00 00 00 00 00 00 00 00 00 00 00 00 00    ................
    0x1006e340:   00 00 00 00 00 00 00 00 00 00 00 00 00 00 00 00    ................
    0x1006e350:   00 00 00 00 00 00 00 00 00 00 00 00 00 00 00 00    ................
    0x1006e360:   00 00 00 00 00 00 00 00 00 00 00 00 00 00 00 00    ................
    0x1006e370:   00 00 00 00 00 00 00 00 00 00 00 00 00 00 00 00    ................
    0x1006e380:   00 00 00 00 00 00 00 00 00 00 00 00 00 00 00 00    ................
    0x1006e390:   00 00 00 00 00 00 00 00 00 00 00 00 00 00 00 00    ................
    0x1006e3a0:   00 00 00 00 00 00 00 00 00 00 00 00 00 00 00 00    ................
    0x1006e3b0:   00 00 00 00 00 00 00 00 00 00 00 00 00 00 00 00    ................
    0x1006e3c0:   00 00 00 00 00 00 00 00 00 00 00 00 00 00 00 00    ................
    0x1006e3d0:   00 00 00 00 00 00 00 00 00 00 00 00 00 00 00 00    ................
    0x1006e3e0:   00 00 00 00 00 00 00 00 00 00 00 00 00 00 00 00    ................
    0x1006e3f0:   00 00 00 00 00 00 00 00 00 00 00 00 00 00 00 00    ................
    0x1006e400:   00 00 00 00 00 00 00 00 00 00 00 00 00 00 00 00    ................
    0x1006e410:   00 00 00 00 00 00 00 00 00 00 00 00 00 00 00 00    ................
    0x1006e420:   00 00 00 00 00 00 00 00 00 00 00 00 00 00 00 00    ................
    0x1006e430:   00 00 00 00 00 00 00 00 00 00 00 00 00 00 00 00    ................
    0x1006e440:   00 00 00 00 00 00 00 00 00 00 00 00 00 00 00 00    ................
    0x1006e450:   00 00 00 00 00 00 00 00 00 00 00 00 00 00 00 00    ................
    0x1006e460:   00 00 00 00 00 00 00 00 00 00 00 00 00 00 00 00    ................
    0x1006e470:   00 00 00 00 00 00 00 00 00 00 00 00 00 00 00 00    ................
    0x1006e480:   00 00 00 00 00 00 00 00 00 00 00 00 00 00 00 00    ................
    0x1006e490:   00 00 00 00 00 00 00 00 00 00 00 00 00 00 00 00    ................
    0x1006e4a0:   00 00 00 00 00 00 00 00 00 00 00 00 00 00 00 00    ................
    0x1006e4b0:   00 00 00 00 00 00 00 00 00 00 00 00 00 00 00 00    ................
    0x1006e4c0:   00 00 00 00 00 00 00 00 00 00 00 00 00 00 00 00    ................
    0x1006e4d0:   00 00 00 00 00 00 00 00 00 00 00 00 00 00 00 00    ................
    0x1006e4e0:   00 00 00 00 00 00 00 00 00 00 00 00 00 00 00 00    ................
    0x1006e4f0:   00 00 00 00 00 00 00 00 00 00 00 00 00 00 00 00    ................
    0x1006e500:   00 00 00 00 00 00 00 00 00 00 00 00 00 00 00 00    ................
    0x1006e510:   00 00 00 00 00 00 00 00 00 00 00 00 00 00 00 00    ................
    0x1006e520:   00 00 00 00 00 00 00 00 00 00 00 00 00 00 00 00    ................
    0x1006e530:   00 00 00 00 00 00 00 00 00 00 00 00 00 00 00 00    ................
    0x1006e540:   00 00 00 00 00 00 00 00 00 00 00 00 00 00 00 00    ................
    0x1006e550:   00 00 00 00 00 00 00 00 00 00 00 00 00 00 00 00    ................
    0x1006e560:   00 00 00 00 00 00 00 00 00 00 00 00 00 00 00 00    ................
    0x1006e570:   00 00 00 00 00 00 00 00 00 00 00 00 00 00 00 00    ................
    0x1006e580:   00 00 00 00 00 00 00 00 00 00 00 00 00 00 00 00    ................
    0x1006e590:   00 00 00 00 00 00 00 00 00 00 00 00 00 00 00 00    ................
    0x1006e5a0:   00 00 00 00 00 00 00 00 00 00 00 00 00 00 00 00    ................
    0x1006e5b0:   00 00 00 00 00 00 00 00 00 00 00 00 00 00 00 00    ................
    0x1006e5c0:   00 00 00 00 00 00 00 00 00 00 00 00 00 00 00 00    ................
    0x1006e5d0:   00 00 00 00 00 00 00 00 00 00 00 00 00 00 00 00    ................
    0x1006e5e0:   00 00 00 00 00 00 00 00 00 00 00 00 00 00 00 00    ................
    0x1006e5f0:   00 00 00 00 00 00 00 00 00 00 00 00 00 00 00 00    ................
    0x1006e600:   00 00 00 00 00 00 00 00 00 00 00 00 00 00 00 00    ................
    0x1006e610:   00 00 00 00 00 00 00 00 00 00 00 00 00 00 00 00    ................
    0x1006e620:   00 00 00 00 00 00 00 00 00 00 00 00 00 00 00 00    ................
    0x1006e630:   00 00 00 00 00 00 00 00 00 00 00 00 00 00 00 00    ................
    0x1006e640:   00 00 00 00 00 00 00 00 00 00 00 00 00 00 00 00    ................
    0x1006e650:   00 00 00 00 00 00 00 00 00 00 00 00 00 00 00 00    ................
    0x1006e660:   00 00 00 00 00 00 00 00 00 00 00 00 00 00 00 00    ................
    0x1006e670:   00 00 00 00 00 00 00 00 00 00 00 00 00 00 00 00    ................
    0x1006e680:   00 00 00 00 00 00 00 00 00 00 00 00 00 00 00 00    ................
    0x1006e690:   00 00 00 00 00 00 00 00 00 00 00 00 00 00 00 00    ................
    0x1006e6a0:   00 00 00 00 00 00 00 00 00 00 00 00 00 00 00 00    ................
    0x1006e6b0:   00 00 00 00 00 00 00 00 00 00 00 00 00 00 00 00    ................
    0x1006e6c0:   00 00 00 00 00 00 00 00 00 00 00 00 00 00 00 00    ................
    0x1006e6d0:   00 00 00 00 00 00 00 00 00 00 00 00 00 00 00 00    ................
    0x1006e6e0:   00 00 00 00 00 00 00 00 00 00 00 00 00 00 00 00    ................
    0x1006e6f0:   00 00 00 00 00 00 00 00 00 00 00 00 00 00 00 00    ................
    0x1006e700:   00 00 00 00 00 00 00 00 00 00 00 00 00 00 00 00    ................
    0x1006e710:   00 00 00 00 00 00 00 00 00 00 00 00 00 00 00 00    ................
    0x1006e720:   00 00 00 00 00 00 00 00 00 00 00 00 00 00 00 00    ................
    0x1006e730:   00 00 00 00 00 00 00 00 00 00 00 00 00 00 00 00    ................
    0x1006e740:   00 00 00 00 00 00 00 00 00 00 00 00 00 00 00 00    ................
    0x1006e750:   00 00 00 00 00 00 00 00 00 00 00 00 00 00 00 00    ................
    0x1006e760:   00 00 00 00 00 00 00 00 00 00 00 00 00 00 00 00    ................
    0x1006e770:   00 00 00 00 00 00 00 00 00 00 00 00 00 00 00 00    ................
    0x1006e780:   00 00 00 00 00 00 00 00 00 00 00 00 00 00 00 00    ................
    0x1006e790:   00 00 00 00 00 00 00 00 00 00 00 00 00 00 00 00    ................
    0x1006e7a0:   00 00 00 00 00 00 00 00 00 00 00 00 00 00 00 00    ................
    0x1006e7b0:   00 00 00 00 00 00 00 00 00 00 00 00 00 00 00 00    ................
    0x1006e7c0:   00 00 00 00 00 00 00 00 00 00 00 00 00 00 00 00    ................
    0x1006e7d0:   00 00 00 00 00 00 00 00 00 00 00 00 00 00 00 00    ................
    0x1006e7e0:   00 00 00 00 00 00 00 00 00 00 00 00 00 00 00 00    ................
    0x1006e7f0:   00 00 00 00 00 00 00 00 00 00 00 00 00 00 00 00    ................
    0x1006e800:   00 00 00 00 00 00 00 00 00 00 00 00 00 00 00 00    ................
    0x1006e810:   00 00 00 00 00 00 00 00 00 00 00 00 00 00 00 00    ................
    0x1006e820:   00 00 00 00 00 00 00 00 00 00 00 00 00 00 00 00    ................
    0x1006e830:   00 00 00 00 00 00 00 00 00 00 00 00 00 00 00 00    ................
    0x1006e840:   00 00 00 00 00 00 00 00 00 00 00 00 00 00 00 00    ................
    0x1006e850:   00 00 00 00 00 00 00 00 00 00 00 00 00 00 00 00    ................
    0x1006e860:   00 00 00 00 00 00 00 00 00 00 00 00 00 00 00 00    ................
    0x1006e870:   00 00 00 00 00 00 00 00 00 00 00 00 00 00 00 00    ................
    0x1006e880:   00 00 00 00 00 00 00 00 00 00 00 00 00 00 00 00    ................
    0x1006e890:   00 00 00 00 00 00 00 00 00 00 00 00 00 00 00 00    ................
    0x1006e8a0:   00 00 00 00 00 00 00 00 00 00 00 00 00 00 00 00    ................
    0x1006e8b0:   00 00 00 00 00 00 00 00 00 00 00 00 00 00 00 00    ................
    0x1006e8c0:   00 00 00 00 00 00 00 00 00 00 00 00 00 00 00 00    ................
    0x1006e8d0:   00 00 00 00 00 00 00 00 00 00 00 00 00 00 00 00    ................
    0x1006e8e0:   00 00 00 00 00 00 00 00 00 00 00 00 00 00 00 00    ................
    0x1006e8f0:   00 00 00 00 00 00 00 00 00 00 00 00 00 00 00 00    ................
    0x1006e900:   00 00 00 00 00 00 00 00 00 00 00 00 00 00 00 00    ................
    0x1006e910:   00 00 00 00 00 00 00 00 00 00 00 00 00 00 00 00    ................
    0x1006e920:   00 00 00 00 00 00 00 00 00 00 00 00 00 00 00 00    ................
    0x1006e930:   00 00 00 00 00 00 00 00 00 00 00 00 00 00 00 00    ................
    0x1006e940:   00 00 00 00 00 00 00 00 00 00 00 00 00 00 00 00    ................
    0x1006e950:   00 00 00 00 00 00 00 00 00 00 00 00 00 00 00 00    ................
    0x1006e960:   00 00 00 00 00 00 00 00 00 00 00 00 00 00 00 00    ................
    0x1006e970:   00 00 00 00 00 00 00 00 00 00 00 00 00 00 00 00    ................
    0x1006e980:   00 00 00 00 00 00 00 00 00 00 00 00 00 00 00 00    ................
    0x1006e990:   00 00 00 00 00 00 00 00 00 00 00 00 00 00 00 00    ................
    0x1006e9a0:   00 00 00 00 00 00 00 00 00 00 00 00 00 00 00 00    ................
    0x1006e9b0:   00 00 00 00 00 00 00 00 00 00 00 00 00 00 00 00    ................
    0x1006e9c0:   00 00 00 00 00 00 00 00 00 00 00 00 00 00 00 00    ................
    0x1006e9d0:   00 00 00 00 00 00 00 00 00 00 00 00 00 00 00 00    ................
    0x1006e9e0:   00 00 00 00 00 00 00 00 00 00 00 00 00 00 00 00    ................
    0x1006e9f0:   00 00 00 00 00 00 00 00 00 00 00 00 00 00 00 00    ................
    0x1006ea00:   00 00 00 00 00 00 00 00 00 00 00 00 00 00 00 00    ................
    0x1006ea10:   00 00 00 00 00 00 00 00 00 00 00 00 00 00 00 00    ................
    0x1006ea20:   00 00 00 00 00 00 00 00 00 00 00 00 00 00 00 00    ................
    0x1006ea30:   00 00 00 00 00 00 00 00 00 00 00 00 00 00 00 00    ................
    0x1006ea40:   00 00 00 00 00 00 00 00 00 00 00 00 00 00 00 00    ................
    0x1006ea50:   00 00 00 00 00 00 00 00 00 00 00 00 00 00 00 00    ................
    0x1006ea60:   00 00 00 00 00 00 00 00 00 00 00 00 00 00 00 00    ................
    0x1006ea70:   00 00 00 00 00 00 00 00 00 00 00 00 00 00 00 00    ................
    0x1006ea80:   00 00 00 00 00 00 00 00 00 00 00 00 00 00 00 00    ................
    0x1006ea90:   00 00 00 00 00 00 00 00 00 00 00 00 00 00 00 00    ................
    0x1006eaa0:   00 00 00 00 00 00 00 00 00 00 00 00 00 00 00 00    ................
    0x1006eab0:   00 00 00 00 00 00 00 00 00 00 00 00 00 00 00 00    ................
    0x1006eac0:   00 00 00 00 00 00 00 00 00 00 00 00 00 00 00 00    ................
    0x1006ead0:   00 00 00 00 00 00 00 00 00 00 00 00 00 00 00 00    ................
    0x1006eae0:   00 00 00 00 00 00 00 00 00 00 00 00 00 00 00 00    ................
    0x1006eaf0:   00 00 00 00 00 00 00 00 00 00 00 00 00 00 00 00    ................
    0x1006eb00:   00 00 00 00 00 00 00 00 00 00 00 00 00 00 00 00    ................
    0x1006eb10:   00 00 00 00 00 00 00 00 00 00 00 00 00 00 00 00    ................
    0x1006eb20:   00 00 00 00 00 00 00 00 00 00 00 00 00 00 00 00    ................
    0x1006eb30:   00 00 00 00 00 00 00 00 00 00 00 00 00 00 00 00    ................
    0x1006eb40:   00 00 00 00 00 00 00 00 00 00 00 00 00 00 00 00    ................
    0x1006eb50:   00 00 00 00 00 00 00 00 00 00 00 00 00 00 00 00    ................
    0x1006eb60:   00 00 00 00 00 00 00 00 00 00 00 00 00 00 00 00    ................
    0x1006eb70:   00 00 00 00 00 00 00 00 00 00 00 00 00 00 00 00    ................
    0x1006eb80:   00 00 00 00 00 00 00 00 00 00 00 00 00 00 00 00    ................
    0x1006eb90:   00 00 00 00 00 00 00 00 00 00 00 00 00 00 00 00    ................
    0x1006eba0:   00 00 00 00 00 00 00 00 00 00 00 00 00 00 00 00    ................
    0x1006ebb0:   00 00 00 00 00 00 00 00 00 00 00 00 00 00 00 00    ................
    0x1006ebc0:   00 00 00 00 00 00 00 00 00 00 00 00 00 00 00 00    ................
    0x1006ebd0:   00 00 00 00 00 00 00 00 00 00 00 00 00 00 00 00    ................
    0x1006ebe0:   00 00 00 00 00 00 00 00 00 00 00 00 00 00 00 00    ................
    0x1006ebf0:   00 00 00 00 00 00 00 00 00 00 00 00 00 00 00 00    ................
    0x1006ec00:   00 00 00 00 00 00 00 00 00 00 00 00 00 00 00 00    ................
    0x1006ec10:   00 00 00 00 00 00 00 00 00 00 00 00 00 00 00 00    ................
    0x1006ec20:   00 00 00 00 00 00 00 00 00 00 00 00 00 00 00 00    ................
    0x1006ec30:   00 00 00 00 00 00 00 00 00 00 00 00 00 00 00 00    ................
    0x1006ec40:   00 00 00 00 00 00 00 00 00 00 00 00 00 00 00 00    ................
    0x1006ec50:   00 00 00 00 00 00 00 00 00 00 00 00 00 00 00 00    ................
    0x1006ec60:   00 00 00 00 00 00 00 00 00 00 00 00 00 00 00 00    ................
    0x1006ec70:   00 00 00 00 00 00 00 00 00 00 00 00 00 00 00 00    ................
    0x1006ec80:   00 00 00 00 00 00 00 00 00 00 00 00 00 00 00 00    ................
    0x1006ec90:   00 00 00 00 00 00 00 00 00 00 00 00 00 00 00 00    ................
    0x1006eca0:   00 00 00 00 00 00 00 00 00 00 00 00 00 00 00 00    ................
    0x1006ecb0:   00 00 00 00 00 00 00 00 00 00 00 00 00 00 00 00    ................
    0x1006ecc0:   00 00 00 00 00 00 00 00 00 00 00 00 00 00 00 00    ................
    0x1006ecd0:   00 00 00 00 00 00 00 00 00 00 00 00 00 00 00 00    ................
    0x1006ece0:   00 00 00 00 00 00 00 00 00 00 00 00 00 00 00 00    ................
    0x1006ecf0:   00 00 00 00 00 00 00 00 00 00 00 00 00 00 00 00    ................
    0x1006ed00:   00 00 00 00 00 00 00 00 00 00 00 00 00 00 00 00    ................
    0x1006ed10:   00 00 00 00 00 00 00 00 00 00 00 00 00 00 00 00    ................
    0x1006ed20:   00 00 00 00 00 00 00 00 00 00 00 00 00 00 00 00    ................
    0x1006ed30:   00 00 00 00 00 00 00 00 00 00 00 00 00 00 00 00    ................
    0x1006ed40:   00 00 00 00 00 00 00 00 00 00 00 00 00 00 00 00    ................
    0x1006ed50:   00 00 00 00 00 00 00 00 00 00 00 00 00 00 00 00    ................
    0x1006ed60:   00 00 00 00 00 00 00 00 00 00 00 00 00 00 00 00    ................
    0x1006ed70:   00 00 00 00 00 00 00 00 00 00 00 00 00 00 00 00    ................
    0x1006ed80:   00 00 00 00 00 00 00 00 00 00 00 00 00 00 00 00    ................
    0x1006ed90:   00 00 00 00 00 00 00 00 00 00 00 00 00 00 00 00    ................
    0x1006eda0:   00 00 00 00 00 00 00 00 00 00 00 00 00 00 00 00    ................
    0x1006edb0:   00 00 00 00 00 00 00 00 00 00 00 00 00 00 00 00    ................
    0x1006edc0:   00 00 00 00 00 00 00 00 00 00 00 00 00 00 00 00    ................
    0x1006edd0:   00 00 00 00 00 00 00 00 00 00 00 00 00 00 00 00    ................
    0x1006ede0:   00 00 00 00 00 00 00 00 00 00 00 00 00 00 00 00    ................
    0x1006edf0:   00 00 00 00 00 00 00 00 00 00 00 00 00 00 00 00    ................
    0x1006ee00:   00 00 00 00 00 00 00 00 00 00 00 00 00 00 00 00    ................
    0x1006ee10:   00 00 00 00 00 00 00 00 00 00 00 00 00 00 00 00    ................
    0x1006ee20:   00 00 00 00 00 00 00 00 00 00 00 00 00 00 00 00    ................
    0x1006ee30:   00 00 00 00 00 00 00 00 00 00 00 00 00 00 00 00    ................
    0x1006ee40:   00 00 00 00 00 00 00 00 00 00 00 00 00 00 00 00    ................
    0x1006ee50:   00 00 00 00 00 00 00 00 00 00 00 00 00 00 00 00    ................
    0x1006ee60:   00 00 00 00 00 00 00 00 00 00 00 00 00 00 00 00    ................
    0x1006ee70:   00 00 00 00 00 00 00 00 00 00 00 00 00 00 00 00    ................
    0x1006ee80:   00 00 00 00 00 00 00 00 00 00 00 00 00 00 00 00    ................
    0x1006ee90:   00 00 00 00 00 00 00 00 00 00 00 00 00 00 00 00    ................
    0x1006eea0:   00 00 00 00 00 00 00 00 00 00 00 00 00 00 00 00    ................
    0x1006eeb0:   00 00 00 00 00 00 00 00 00 00 00 00 00 00 00 00    ................
    0x1006eec0:   00 00 00 00 00 00 00 00 00 00 00 00 00 00 00 00    ................
    0x1006eed0:   00 00 00 00 00 00 00 00 00 00 00 00 00 00 00 00    ................
    0x1006eee0:   00 00 00 00 00 00 00 00 00 00 00 00 00 00 00 00    ................
    0x1006eef0:   00 00 00 00 00 00 00 00 00 00 00 00 00 00 00 00    ................
    0x1006ef00:   00 00 00 00 00 00 00 00 00 00 00 00 00 00 00 00    ................
    0x1006ef10:   00 00 00 00 00 00 00 00 00 00 00 00 00 00 00 00    ................
    0x1006ef20:   00 00 00 00 00 00 00 00 00 00 00 00 00 00 00 00    ................
    0x1006ef30:   00 00 00 00 00 00 00 00 00 00 00 00 00 00 00 00    ................
    0x1006ef40:   00 00 00 00 00 00 00 00 00 00 00 00 00 00 00 00    ................
    0x1006ef50:   00 00 00 00 00 00 00 00 00 00 00 00 00 00 00 00    ................
    0x1006ef60:   00 00 00 00 00 00 00 00 00 00 00 00 00 00 00 00    ................
    0x1006ef70:   00 00 00 00 00 00 00 00 00 00 00 00 00 00 00 00    ................
    0x1006ef80:   00 00 00 00 00 00 00 00 00 00 00 00 00 00 00 00    ................
    0x1006ef90:   00 00 00 00 00 00 00 00 00 00 00 00 00 00 00 00    ................
    0x1006efa0:   00 00 00 00 00 00 00 00 00 00 00 00 00 00 00 00    ................
    0x1006efb0:   00 00 00 00 00 00 00 00 00 00 00 00 00 00 00 00    ................
    0x1006efc0:   00 00 00 00 00 00 00 00 00 00 00 00 00 00 00 00    ................
    0x1006efd0:   00 00 00 00 00 00 00 00 00 00 00 00 00 00 00 00    ................
    0x1006efe0:   00 00 00 00 00 00 00 00 00 00 00 00 00 00 00 00    ................
    0x1006eff0:   00 00 00 00 00 00 00 00 00 00 00 00 00 00 00 00    ................
    0x1006f000:   00 00 00 00 00 00 00 00 00 00 00 00 00 00 00 00    ................
    0x1006f010:   00 00 00 00 00 00 00 00 00 00 00 00 00 00 00 00    ................
    0x1006f020:   00 00 00 00 00 00 00 00 00 00 00 00 00 00 00 00    ................
    0x1006f030:   00 00 00 00 00 00 00 00 00 00 00 00 00 00 00 00    ................
    0x1006f040:   00 00 00 00 00 00 00 00 00 00 00 00 00 00 00 00    ................
    0x1006f050:   00 00 00 00 00 00 00 00 00 00 00 00 00 00 00 00    ................
    0x1006f060:   00 00 00 00 00 00 00 00 00 00 00 00 00 00 00 00    ................
    0x1006f070:   00 00 00 00 00 00 00 00 00 00 00 00 00 00 00 00    ................
    0x1006f080:   00 00 00 00 00 00 00 00 00 00 00 00 00 00 00 00    ................
    0x1006f090:   00 00 00 00 00 00 00 00 00 00 00 00 00 00 00 00    ................
    0x1006f0a0:   00 00 00 00 00 00 00 00 00 00 00 00 00 00 00 00    ................
    0x1006f0b0:   00 00 00 00 00 00 00 00 00 00 00 00 00 00 00 00    ................
    0x1006f0c0:   00 00 00 00 00 00 00 00 00 00 00 00 00 00 00 00    ................
    0x1006f0d0:   00 00 00 00 00 00 00 00 00 00 00 00 00 00 00 00    ................
    0x1006f0e0:   00 00 00 00 00 00 00 00 00 00 00 00 00 00 00 00    ................
    0x1006f0f0:   00 00 00 00 00 00 00 00 00 00 00 00 00 00 00 00    ................
    0x1006f100:   00 00 00 00 00 00 00 00 00 00 00 00 00 00 00 00    ................
    0x1006f110:   00 00 00 00 00 00 00 00 00 00 00 00 00 00 00 00    ................
    0x1006f120:   00 00 00 00 00 00 00 00 00 00 00 00 00 00 00 00    ................
    0x1006f130:   00 00 00 00 00 00 00 00 00 00 00 00 00 00 00 00    ................
    0x1006f140:   00 00 00 00 00 00 00 00 00 00 00 00 00 00 00 00    ................
    0x1006f150:   00 00 00 00 00 00 00 00 00 00 00 00 00 00 00 00    ................
    0x1006f160:   00 00 00 00 00 00 00 00 00 00 00 00 00 00 00 00    ................
    0x1006f170:   00 00 00 00 00 00 00 00 00 00 00 00 00 00 00 00    ................
    0x1006f180:   00 00 00 00 00 00 00 00 00 00 00 00 00 00 00 00    ................
    0x1006f190:   00 00 00 00 00 00 00 00 00 00 00 00 00 00 00 00    ................
    0x1006f1a0:   00 00 00 00 00 00 00 00 00 00 00 00 00 00 00 00    ................
    0x1006f1b0:   00 00 00 00 00 00 00 00 00 00 00 00 00 00 00 00    ................
    0x1006f1c0:   00 00 00 00 00 00 00 00 00 00 00 00 00 00 00 00    ................
    0x1006f1d0:   00 00 00 00 00 00 00 00 00 00 00 00 00 00 00 00    ................
    0x1006f1e0:   00 00 00 00 00 00 00 00 00 00 00 00 00 00 00 00    ................
    0x1006f1f0:   00 00 00 00 00 00 00 00 00 00 00 00 00 00 00 00    ................
    0x1006f200:   00 00 00 00 00 00 00 00 00 00 00 00 00 00 00 00    ................
    0x1006f210:   00 00 00 00 00 00 00 00 00 00 00 00 00 00 00 00    ................
    0x1006f220:   00 00 00 00 00 00 00 00 00 00 00 00 00 00 00 00    ................
    0x1006f230:   00 00 00 00 00 00 00 00 00 00 00 00 00 00 00 00    ................
    0x1006f240:   00 00 00 00 00 00 00 00 00 00 00 00 00 00 00 00    ................
    0x1006f250:   00 00 00 00 00 00 00 00 00 00 00 00 00 00 00 00    ................
    0x1006f260:   00 00 00 00 00 00 00 00 00 00 00 00 00 00 00 00    ................
    0x1006f270:   00 00 00 00 00 00 00 00 00 00 00 00 00 00 00 00    ................
    0x1006f280:   00 00 00 00 00 00 00 00 00 00 00 00 00 00 00 00    ................
    0x1006f290:   00 00 00 00 00 00 00 00 00 00 00 00 00 00 00 00    ................
    0x1006f2a0:   00 00 00 00 00 00 00 00 00 00 00 00 00 00 00 00    ................
    0x1006f2b0:   00 00 00 00 00 00 00 00 00 00 00 00 00 00 00 00    ................
    0x1006f2c0:   00 00 00 00 00 00 00 00 00 00 00 00 00 00 00 00    ................
    0x1006f2d0:   00 00 00 00 00 00 00 00 00 00 00 00 00 00 00 00    ................
    0x1006f2e0:   00 00 00 00 00 00 00 00 00 00 00 00 00 00 00 00    ................
    0x1006f2f0:   00 00 00 00 00 00 00 00 00 00 00 00 00 00 00 00    ................
    0x1006f300:   00 00 00 00 00 00 00 00 00 00 00 00 00 00 00 00    ................
    0x1006f310:   00 00 00 00 00 00 00 00 00 00 00 00 00 00 00 00    ................
    0x1006f320:   00 00 00 00 00 00 00 00 00 00 00 00 00 00 00 00    ................
    0x1006f330:   00 00 00 00 00 00 00 00 00 00 00 00 00 00 00 00    ................
    0x1006f340:   00 00 00 00 00 00 00 00 00 00 00 00 00 00 00 00    ................
    0x1006f350:   00 00 00 00 00 00 00 00 00 00 00 00 00 00 00 00    ................
    0x1006f360:   00 00 00 00 00 00 00 00 00 00 00 00 00 00 00 00    ................
    0x1006f370:   00 00 00 00 00 00 00 00 00 00 00 00 00 00 00 00    ................
    0x1006f380:   00 00 00 00 00 00 00 00 00 00 00 00 00 00 00 00    ................
    0x1006f390:   00 00 00 00 00 00 00 00 00 00 00 00 00 00 00 00    ................
    0x1006f3a0:   00 00 00 00 00 00 00 00 00 00 00 00 00 00 00 00    ................
    0x1006f3b0:   00 00 00 00 00 00 00 00 00 00 00 00 00 00 00 00    ................
    0x1006f3c0:   00 00 00 00 00 00 00 00 00 00 00 00 00 00 00 00    ................
    0x1006f3d0:   00 00 00 00 00 00 00 00 00 00 00 00 00 00 00 00    ................
    0x1006f3e0:   00 00 00 00 00 00 00 00 00 00 00 00 00 00 00 00    ................
    0x1006f3f0:   00 00 00 00 00 00 00 00 00 00 00 00 00 00 00 00    ................
    0x1006f400:   00 00 00 00 00 00 00 00 00 00 00 00 00 00 00 00    ................
    0x1006f410:   00 00 00 00 00 00 00 00 00 00 00 00 00 00 00 00    ................
    0x1006f420:   00 00 00 00 00 00 00 00 00 00 00 00 00 00 00 00    ................
    0x1006f430:   00 00 00 00 00 00 00 00 00 00 00 00 00 00 00 00    ................
    0x1006f440:   00 00 00 00 00 00 00 00 00 00 00 00 00 00 00 00    ................
    0x1006f450:   00 00 00 00 00 00 00 00 00 00 00 00 00 00 00 00    ................
    0x1006f460:   00 00 00 00 00 00 00 00 00 00 00 00 00 00 00 00    ................
    0x1006f470:   00 00 00 00 00 00 00 00 00 00 00 00 00 00 00 00    ................
    0x1006f480:   00 00 00 00 00 00 00 00 00 00 00 00 00 00 00 00    ................
    0x1006f490:   00 00 00 00 00 00 00 00 00 00 00 00 00 00 00 00    ................
    0x1006f4a0:   00 00 00 00 00 00 00 00 00 00 00 00 00 00 00 00    ................
    0x1006f4b0:   00 00 00 00 00 00 00 00 00 00 00 00 00 00 00 00    ................
    0x1006f4c0:   00 00 00 00 00 00 00 00 00 00 00 00 00 00 00 00    ................
    0x1006f4d0:   00 00 00 00 00 00 00 00 00 00 00 00 00 00 00 00    ................
    0x1006f4e0:   00 00 00 00 00 00 00 00 00 00 00 00 00 00 00 00    ................
    0x1006f4f0:   00 00 00 00 00 00 00 00 00 00 00 00 00 00 00 00    ................
    0x1006f500:   00 00 00 00 00 00 00 00 00 00 00 00 00 00 00 00    ................
    0x1006f510:   00 00 00 00 00 00 00 00 00 00 00 00 00 00 00 00    ................
    0x1006f520:   00 00 00 00 00 00 00 00 00 00 00 00 00 00 00 00    ................
    0x1006f530:   00 00 00 00 00 00 00 00 00 00 00 00 00 00 00 00    ................
    0x1006f540:   00 00 00 00 00 00 00 00 00 00 00 00 00 00 00 00    ................
    0x1006f550:   00 00 00 00 00 00 00 00 00 00 00 00 00 00 00 00    ................
    0x1006f560:   00 00 00 00 00 00 00 00 00 00 00 00 00 00 00 00    ................
    0x1006f570:   00 00 00 00 00 00 00 00 00 00 00 00 00 00 00 00    ................
    0x1006f580:   00 00 00 00 00 00 00 00 00 00 00 00 00 00 00 00    ................
    0x1006f590:   00 00 00 00 00 00 00 00 00 00 00 00 00 00 00 00    ................
    0x1006f5a0:   00 00 00 00 00 00 00 00 00 00 00 00 00 00 00 00    ................
    0x1006f5b0:   00 00 00 00 00 00 00 00 00 00 00 00 00 00 00 00    ................
    0x1006f5c0:   00 00 00 00 00 00 00 00 00 00 00 00 00 00 00 00    ................
    0x1006f5d0:   00 00 00 00 00 00 00 00 00 00 00 00 00 00 00 00    ................
    0x1006f5e0:   00 00 00 00 00 00 00 00 00 00 00 00 00 00 00 00    ................
    0x1006f5f0:   00 00 00 00 00 00 00 00 00 00 00 00 00 00 00 00    ................
    0x1006f600:   00 00 00 00 00 00 00 00 00 00 00 00 00 00 00 00    ................
    0x1006f610:   00 00 00 00 00 00 00 00 00 00 00 00 00 00 00 00    ................
    0x1006f620:   00 00 00 00 00 00 00 00 00 00 00 00 00 00 00 00    ................
    0x1006f630:   00 00 00 00 00 00 00 00 00 00 00 00 00 00 00 00    ................
    0x1006f640:   00 00 00 00 00 00 00 00 00 00 00 00 00 00 00 00    ................
    0x1006f650:   00 00 00 00 00 00 00 00 00 00 00 00 00 00 00 00    ................
    0x1006f660:   00 00 00 00 00 00 00 00 00 00 00 00 00 00 00 00    ................
    0x1006f670:   00 00 00 00 00 00 00 00 00 00 00 00 00 00 00 00    ................
    0x1006f680:   00 00 00 00 00 00 00 00 00 00 00 00 00 00 00 00    ................
    0x1006f690:   00 00 00 00 00 00 00 00 00 00 00 00 00 00 00 00    ................
    0x1006f6a0:   00 00 00 00 00 00 00 00 00 00 00 00 00 00 00 00    ................
    0x1006f6b0:   00 00 00 00 00 00 00 00 00 00 00 00 00 00 00 00    ................
    0x1006f6c0:   00 00 00 00 00 00 00 00 00 00 00 00 00 00 00 00    ................
    0x1006f6d0:   00 00 00 00 00 00 00 00 00 00 00 00 00 00 00 00    ................
    0x1006f6e0:   00 00 00 00 00 00 00 00 00 00 00 00 00 00 00 00    ................
    0x1006f6f0:   00 00 00 00 00 00 00 00 00 00 00 00 00 00 00 00    ................
    0x1006f700:   00 00 00 00 00 00 00 00 00 00 00 00 00 00 00 00    ................
    0x1006f710:   00 00 00 00 00 00 00 00 00 00 00 00 00 00 00 00    ................
    0x1006f720:   00 00 00 00 00 00 00 00 00 00 00 00 00 00 00 00    ................
    0x1006f730:   00 00 00 00 00 00 00 00 00 00 00 00 00 00 00 00    ................
    0x1006f740:   00 00 00 00 00 00 00 00 00 00 00 00 00 00 00 00    ................
    0x1006f750:   00 00 00 00 00 00 00 00 00 00 00 00 00 00 00 00    ................
    0x1006f760:   00 00 00 00 00 00 00 00 00 00 00 00 00 00 00 00    ................
    0x1006f770:   00 00 00 00 00 00 00 00 00 00 00 00 00 00 00 00    ................
    0x1006f780:   00 00 00 00 00 00 00 00 00 00 00 00 00 00 00 00    ................
    0x1006f790:   00 00 00 00 00 00 00 00 00 00 00 00 00 00 00 00    ................
    0x1006f7a0:   00 00 00 00 00 00 00 00 00 00 00 00 00 00 00 00    ................
    0x1006f7b0:   00 00 00 00 00 00 00 00 00 00 00 00 00 00 00 00    ................
    0x1006f7c0:   00 00 00 00 00 00 00 00 00 00 00 00 00 00 00 00    ................
    0x1006f7d0:   00 00 00 00 00 00 00 00 00 00 00 00 00 00 00 00    ................
    0x1006f7e0:   00 00 00 00 00 00 00 00 00 00 00 00 00 00 00 00    ................
    0x1006f7f0:   00 00 00 00 00 00 00 00 00 00 00 00 00 00 00 00    ................
    0x1006f800:   00 00 00 00 00 00 00 00 00 00 00 00 00 00 00 00    ................
    0x1006f810:   00 00 00 00 00 00 00 00 00 00 00 00 00 00 00 00    ................
    0x1006f820:   00 00 00 00 00 00 00 00 00 00 00 00 00 00 00 00    ................
    0x1006f830:   00 00 00 00 00 00 00 00 00 00 00 00 00 00 00 00    ................
    0x1006f840:   00 00 00 00 00 00 00 00 00 00 00 00 00 00 00 00    ................
    0x1006f850:   00 00 00 00 00 00 00 00 00 00 00 00 00 00 00 00    ................
    0x1006f860:   00 00 00 00 00 00 00 00 00 00 00 00 00 00 00 00    ................
    0x1006f870:   00 00 00 00 00 00 00 00 00 00 00 00 00 00 00 00    ................
    0x1006f880:   00 00 00 00 00 00 00 00 00 00 00 00 00 00 00 00    ................
    0x1006f890:   00 00 00 00 00 00 00 00 00 00 00 00 00 00 00 00    ................
    0x1006f8a0:   00 00 00 00 00 00 00 00 00 00 00 00 00 00 00 00    ................
    0x1006f8b0:   00 00 00 00 00 00 00 00 00 00 00 00 00 00 00 00    ................
    0x1006f8c0:   00 00 00 00 00 00 00 00 00 00 00 00 00 00 00 00    ................
    0x1006f8d0:   00 00 00 00 00 00 00 00 00 00 00 00 00 00 00 00    ................
    0x1006f8e0:   00 00 00 00 00 00 00 00 00 00 00 00 00 00 00 00    ................
    0x1006f8f0:   00 00 00 00 00 00 00 00 00 00 00 00 00 00 00 00    ................
    0x1006f900:   00 00 00 00 00 00 00 00 00 00 00 00 00 00 00 00    ................
    0x1006f910:   00 00 00 00 00 00 00 00 00 00 00 00 00 00 00 00    ................
    0x1006f920:   00 00 00 00 00 00 00 00 00 00 00 00 00 00 00 00    ................
    0x1006f930:   00 00 00 00 00 00 00 00 00 00 00 00 00 00 00 00    ................
    0x1006f940:   00 00 00 00 00 00 00 00 00 00 00 00 00 00 00 00    ................
    0x1006f950:   00 00 00 00 00 00 00 00 00 00 00 00 00 00 00 00    ................
    0x1006f960:   00 00 00 00 00 00 00 00 00 00 00 00 00 00 00 00    ................
    0x1006f970:   00 00 00 00 00 00 00 00 00 00 00 00 00 00 00 00    ................
    0x1006f980:   00 00 00 00 00 00 00 00 00 00 00 00 00 00 00 00    ................
    0x1006f990:   00 00 00 00 00 00 00 00 00 00 00 00 00 00 00 00    ................
    0x1006f9a0:   00 00 00 00 00 00 00 00 00 00 00 00 00 00 00 00    ................
    0x1006f9b0:   00 00 00 00 00 00 00 00 00 00 00 00 00 00 00 00    ................
    0x1006f9c0:   00 00 00 00 00 00 00 00 00 00 00 00 00 00 00 00    ................
    0x1006f9d0:   00 00 00 00 00 00 00 00 00 00 00 00 00 00 00 00    ................
    0x1006f9e0:   00 00 00 00 00 00 00 00 00 00 00 00 00 00 00 00    ................
    0x1006f9f0:   00 00 00 00 00 00 00 00 00 00 00 00 00 00 00 00    ................
    0x1006fa00:   00 00 00 00 00 00 00 00 00 00 00 00 00 00 00 00    ................
    0x1006fa10:   00 00 00 00 00 00 00 00 00 00 00 00 00 00 00 00    ................
    0x1006fa20:   00 00 00 00 00 00 00 00 00 00 00 00 00 00 00 00    ................
    0x1006fa30:   00 00 00 00 00 00 00 00 00 00 00 00 00 00 00 00    ................
    0x1006fa40:   00 00 00 00 00 00 00 00 00 00 00 00 00 00 00 00    ................
    0x1006fa50:   00 00 00 00 00 00 00 00 00 00 00 00 00 00 00 00    ................
    0x1006fa60:   00 00 00 00 00 00 00 00 00 00 00 00 00 00 00 00    ................
    0x1006fa70:   00 00 00 00 00 00 00 00 00 00 00 00 00 00 00 00    ................
    0x1006fa80:   00 00 00 00 00 00 00 00 00 00 00 00 00 00 00 00    ................
    0x1006fa90:   00 00 00 00 00 00 00 00 00 00 00 00 00 00 00 00    ................
    0x1006faa0:   00 00 00 00 00 00 00 00 00 00 00 00 00 00 00 00    ................
    0x1006fab0:   00 00 00 00 00 00 00 00 00 00 00 00 00 00 00 00    ................
    0x1006fac0:   00 00 00 00 00 00 00 00 00 00 00 00 00 00 00 00    ................
    0x1006fad0:   00 00 00 00 00 00 00 00 00 00 00 00 00 00 00 00    ................
    0x1006fae0:   00 00 00 00 00 00 00 00 00 00 00 00 00 00 00 00    ................
    0x1006faf0:   00 00 00 00 00 00 00 00 00 00 00 00 00 00 00 00    ................
    0x1006fb00:   00 00 00 00 00 00 00 00 00 00 00 00 00 00 00 00    ................
    0x1006fb10:   00 00 00 00 00 00 00 00 00 00 00 00 00 00 00 00    ................
    0x1006fb20:   00 00 00 00 00 00 00 00 00 00 00 00 00 00 00 00    ................
    0x1006fb30:   00 00 00 00 00 00 00 00 00 00 00 00 00 00 00 00    ................
    0x1006fb40:   00 00 00 00 00 00 00 00 00 00 00 00 00 00 00 00    ................
    0x1006fb50:   00 00 00 00 00 00 00 00 00 00 00 00 00 00 00 00    ................
    0x1006fb60:   00 00 00 00 00 00 00 00 00 00 00 00 00 00 00 00    ................
    0x1006fb70:   00 00 00 00 00 00 00 00 00 00 00 00 00 00 00 00    ................
    0x1006fb80:   00 00 00 00 00 00 00 00 00 00 00 00 00 00 00 00    ................
    0x1006fb90:   00 00 00 00 00 00 00 00 00 00 00 00 00 00 00 00    ................
    0x1006fba0:   00 00 00 00 00 00 00 00 00 00 00 00 00 00 00 00    ................
    0x1006fbb0:   00 00 00 00 00 00 00 00 00 00 00 00 00 00 00 00    ................
    0x1006fbc0:   00 00 00 00 00 00 00 00 00 00 00 00 00 00 00 00    ................
    0x1006fbd0:   00 00 00 00 00 00 00 00 00 00 00 00 00 00 00 00    ................
    0x1006fbe0:   00 00 00 00 00 00 00 00 00 00 00 00 00 00 00 00    ................
    0x1006fbf0:   00 00 00 00 00 00 00 00 00 00 00 00 00 00 00 00    ................
    0x1006fc00:   00 00 00 00 00 00 00 00 00 00 00 00 00 00 00 00    ................
    0x1006fc10:   00 00 00 00 00 00 00 00 00 00 00 00 00 00 00 00    ................
    0x1006fc20:   00 00 00 00 00 00 00 00 00 00 00 00 00 00 00 00    ................
    0x1006fc30:   00 00 00 00 00 00 00 00 00 00 00 00 00 00 00 00    ................
    0x1006fc40:   00 00 00 00 00 00 00 00 00 00 00 00 00 00 00 00    ................
    0x1006fc50:   00 00 00 00 00 00 00 00 00 00 00 00 00 00 00 00    ................
    0x1006fc60:   00 00 00 00 00 00 00 00 00 00 00 00 00 00 00 00    ................
    0x1006fc70:   00 00 00 00 00 00 00 00 00 00 00 00 00 00 00 00    ................
    0x1006fc80:   00 00 00 00 00 00 00 00 00 00 00 00 00 00 00 00    ................
    0x1006fc90:   00 00 00 00 00 00 00 00 00 00 00 00 00 00 00 00    ................
    0x1006fca0:   00 00 00 00 00 00 00 00 00 00 00 00 00 00 00 00    ................
    0x1006fcb0:   00 00 00 00 00 00 00 00 00 00 00 00 00 00 00 00    ................
    0x1006fcc0:   00 00 00 00 00 00 00 00 00 00 00 00 00 00 00 00    ................
    0x1006fcd0:   00 00 00 00 00 00 00 00 00 00 00 00 00 00 00 00    ................
    0x1006fce0:   00 00 00 00 00 00 00 00 00 00 00 00 00 00 00 00    ................
    0x1006fcf0:   00 00 00 00 00 00 00 00 00 00 00 00 00 00 00 00    ................
    0x1006fd00:   00 00 00 00 00 00 00 00 00 00 00 00 00 00 00 00    ................
    0x1006fd10:   00 00 00 00 00 00 00 00 00 00 00 00 00 00 00 00    ................
    0x1006fd20:   00 00 00 00 00 00 00 00 00 00 00 00 00 00 00 00    ................
    0x1006fd30:   00 00 00 00 00 00 00 00 00 00 00 00 00 00 00 00    ................
    0x1006fd40:   00 00 00 00 00 00 00 00 00 00 00 00 00 00 00 00    ................
    0x1006fd50:   00 00 00 00 00 00 00 00 00 00 00 00 00 00 00 00    ................
    0x1006fd60:   00 00 00 00 00 00 00 00 00 00 00 00 00 00 00 00    ................
    0x1006fd70:   00 00 00 00 00 00 00 00 00 00 00 00 00 00 00 00    ................
    0x1006fd80:   00 00 00 00 00 00 00 00 00 00 00 00 00 00 00 00    ................
    0x1006fd90:   00 00 00 00 00 00 00 00 00 00 00 00 00 00 00 00    ................
    0x1006fda0:   00 00 00 00 00 00 00 00 00 00 00 00 00 00 00 00    ................
    0x1006fdb0:   00 00 00 00 00 00 00 00 00 00 00 00 00 00 00 00    ................
    0x1006fdc0:   00 00 00 00 00 00 00 00 00 00 00 00 00 00 00 00    ................
    0x1006fdd0:   00 00 00 00 00 00 00 00 00 00 00 00 00 00 00 00    ................
    0x1006fde0:   00 00 00 00 00 00 00 00 00 00 00 00 00 00 00 00    ................
    0x1006fdf0:   00 00 00 00 00 00 00 00 00 00 00 00 00 00 00 00    ................
    0x1006fe00:   00 00 00 00 00 00 00 00 00 00 00 00 00 00 00 00    ................
    0x1006fe10:   00 00 00 00 00 00 00 00 00 00 00 00 00 00 00 00    ................
    0x1006fe20:   00 00 00 00 00 00 00 00 00 00 00 00 00 00 00 00    ................
    0x1006fe30:   00 00 00 00 00 00 00 00 00 00 00 00 00 00 00 00    ................
    0x1006fe40:   00 00 00 00 00 00 00 00 00 00 00 00 00 00 00 00    ................
    0x1006fe50:   00 00 00 00 00 00 00 00 00 00 00 00 00 00 00 00    ................
    0x1006fe60:   00 00 00 00 00 00 00 00 00 00 00 00 00 00 00 00    ................
    0x1006fe70:   00 00 00 00 00 00 00 00 00 00 00 00 00 00 00 00    ................
    0x1006fe80:   00 00 00 00 00 00 00 00 00 00 00 00 00 00 00 00    ................
    0x1006fe90:   00 00 00 00 00 00 00 00 00 00 00 00 00 00 00 00    ................
    0x1006fea0:   00 00 00 00 00 00 00 00 00 00 00 00 00 00 00 00    ................
    0x1006feb0:   00 00 00 00 00 00 00 00 00 00 00 00 00 00 00 00    ................
    0x1006fec0:   00 00 00 00 00 00 00 00 00 00 00 00 00 00 00 00    ................
    0x1006fed0:   00 00 00 00 00 00 00 00 00 00 00 00 00 00 00 00    ................
    0x1006fee0:   00 00 00 00 00 00 00 00 00 00 00 00 00 00 00 00    ................
    0x1006fef0:   00 00 00 00 00 00 00 00 00 00 00 00 00 00 00 00    ................
    0x1006ff00:   00 00 00 00 00 00 00 00 00 00 00 00 00 00 00 00    ................
    0x1006ff10:   00 00 00 00 00 00 00 00 00 00 00 00 00 00 00 00    ................
    0x1006ff20:   00 00 00 00 00 00 00 00 00 00 00 00 00 00 00 00    ................
    0x1006ff30:   00 00 00 00 00 00 00 00 00 00 00 00 00 00 00 00    ................
    0x1006ff40:   00 00 00 00 00 00 00 00 00 00 00 00 00 00 00 00    ................
    0x1006ff50:   00 00 00 00 00 00 00 00 00 00 00 00 00 00 00 00    ................
    0x1006ff60:   00 00 00 00 00 00 00 00 00 00 00 00 00 00 00 00    ................
    0x1006ff70:   00 00 00 00 00 00 00 00 00 00 00 00 00 00 00 00    ................
    0x1006ff80:   00 00 00 00 00 00 00 00 00 00 00 00 00 00 00 00    ................
    0x1006ff90:   00 00 00 00 00 00 00 00 00 00 00 00 00 00 00 00    ................
    0x1006ffa0:   00 00 00 00 00 00 00 00 00 00 00 00 00 00 00 00    ................
    0x1006ffb0:   00 00 00 00 00 00 00 00 00 00 00 00 00 00 00 00    ................
    0x1006ffc0:   00 00 00 00 00 00 00 00 00 00 00 00 00 00 00 00    ................
    0x1006ffd0:   00 00 00 00 00 00 00 00 00 00 00 00 00 00 00 00    ................
    0x1006ffe0:   00 00 00 00 00 00 00 00 00 00 00 00 00 00 00 00    ................
    0x1006fff0:   00 00 00 00 00 00 00 00 00 00 00 00 00 00 00 00    ................
    0x10070000:   00 00 00 00 00 00 00 00 00 00 00 00 00 00 00 00    ................
    0x10070010:   00 00 00 00 00 00 00 00 00 00 00 00 00 00 00 00    ................
    0x10070020:   00 00 00 00 00 00 00 00 00 00 00 00 00 00 00 00    ................
    0x10070030:   00 00 00 00 00 00 00 00 00 00 00 00 00 00 00 00    ................
    0x10070040:   00 00 00 00 00 00 00 00 00 00 00 00 00 00 00 00    ................
    0x10070050:   00 00 00 00 00 00 00 00 00 00 00 00 00 00 00 00    ................
    0x10070060:   00 00 00 00 00 00 00 00 00 00 00 00 00 00 00 00    ................
    0x10070070:   00 00 00 00 00 00 00 00 00 00 00 00 00 00 00 00    ................
    0x10070080:   00 00 00 00 00 00 00 00 00 00 00 00 00 00 00 00    ................
    0x10070090:   00 00 00 00 00 00 00 00 00 00 00 00 00 00 00 00    ................
    0x100700a0:   00 00 00 00 00 00 00 00 00 00 00 00 00 00 00 00    ................
    0x100700b0:   00 00 00 00 00 00 00 00 00 00 00 00 00 00 00 00    ................
    0x100700c0:   00 00 00 00 00 00 00 00 00 00 00 00 00 00 00 00    ................
    0x100700d0:   00 00 00 00 00 00 00 00 00 00 00 00 00 00 00 00    ................
    0x100700e0:   00 00 00 00 00 00 00 00 00 00 00 00 00 00 00 00    ................
    0x100700f0:   00 00 00 00 00 00 00 00 00 00 00 00 00 00 00 00    ................
    0x10070100:   00 00 00 00 00 00 00 00 00 00 00 00 00 00 00 00    ................
    0x10070110:   00 00 00 00 00 00 00 00 00 00 00 00 00 00 00 00    ................
    0x10070120:   00 00 00 00 00 00 00 00 00 00 00 00 00 00 00 00    ................
    0x10070130:   00 00 00 00 00 00 00 00 00 00 00 00 00 00 00 00    ................
    0x10070140:   00 00 00 00 00 00 00 00 00 00 00 00 00 00 00 00    ................
    0x10070150:   00 00 00 00 00 00 00 00 00 00 00 00 00 00 00 00    ................
    0x10070160:   00 00 00 00 00 00 00 00 00 00 00 00 00 00 00 00    ................
    0x10070170:   00 00 00 00 00 00 00 00 00 00 00 00 00 00 00 00    ................
    0x10070180:   00 00 00 00 00 00 00 00 00 00 00 00 00 00 00 00    ................
    0x10070190:   00 00 00 00 00 00 00 00 00 00 00 00 00 00 00 00    ................
    0x100701a0:   00 00 00 00 00 00 00 00 00 00 00 00 00 00 00 00    ................
    0x100701b0:   00 00 00 00 00 00 00 00 00 00 00 00 00 00 00 00    ................
    0x100701c0:   00 00 00 00 00 00 00 00 00 00 00 00 00 00 00 00    ................
    0x100701d0:   00 00 00 00 00 00 00 00 00 00 00 00 00 00 00 00    ................
    0x100701e0:   00 00 00 00 00 00 00 00 00 00 00 00 00 00 00 00    ................
    0x100701f0:   00 00 00 00 00 00 00 00 00 00 00 00 00 00 00 00    ................
    0x10070200:   00 00 00 00 00 00 00 00 00 00 00 00 00 00 00 00    ................
    0x10070210:   00 00 00 00 00 00 00 00 00 00 00 00 00 00 00 00    ................
    0x10070220:   00 00 00 00 00 00 00 00 00 00 00 00 00 00 00 00    ................
    0x10070230:   00 00 00 00 00 00 00 00 00 00 00 00 00 00 00 00    ................
    0x10070240:   00 00 00 00 00 00 00 00 00 00 00 00 00 00 00 00    ................
    0x10070250:   00 00 00 00 00 00 00 00 00 00 00 00 00 00 00 00    ................
    0x10070260:   00 00 00 00 00 00 00 00 00 00 00 00 00 00 00 00    ................
    0x10070270:   00 00 00 00 00 00 00 00 00 00 00 00 00 00 00 00    ................
    0x10070280:   00 00 00 00 00 00 00 00 00 00 00 00 00 00 00 00    ................
    0x10070290:   00 00 00 00 00 00 00 00 00 00 00 00 00 00 00 00    ................
    0x100702a0:   00 00 00 00 00 00 00 00 00 00 00 00 00 00 00 00    ................
    0x100702b0:   00 00 00 00 00 00 00 00 00 00 00 00 00 00 00 00    ................
    0x100702c0:   00 00 00 00 00 00 00 00 00 00 00 00 00 00 00 00    ................
    0x100702d0:   00 00 00 00 00 00 00 00 00 00 00 00 00 00 00 00    ................
    0x100702e0:   00 00 00 00 00 00 00 00 00 00 00 00 00 00 00 00    ................
    0x100702f0:   00 00 00 00 00 00 00 00 00 00 00 00 00 00 00 00    ................
    0x10070300:   00 00 00 00 00 00 00 00 00 00 00 00 00 00 00 00    ................
    0x10070310:   00 00 00 00 00 00 00 00 00 00 00 00 00 00 00 00    ................
    0x10070320:   00 00 00 00 00 00 00 00 00 00 00 00 00 00 00 00    ................
    0x10070330:   00 00 00 00 00 00 00 00 00 00 00 00 00 00 00 00    ................
    0x10070340:   00 00 00 00 00 00 00 00 00 00 00 00 00 00 00 00    ................
    0x10070350:   00 00 00 00 00 00 00 00 00 00 00 00 00 00 00 00    ................
    0x10070360:   00 00 00 00 00 00 00 00 00 00 00 00 00 00 00 00    ................
    0x10070370:   00 00 00 00 00 00 00 00 00 00 00 00 00 00 00 00    ................
    0x10070380:   00 00 00 00 00 00 00 00 00 00 00 00 00 00 00 00    ................
    0x10070390:   00 00 00 00 00 00 00 00 00 00 00 00 00 00 00 00    ................
    0x100703a0:   00 00 00 00 00 00 00 00 00 00 00 00 00 00 00 00    ................
    0x100703b0:   00 00 00 00 00 00 00 00 00 00 00 00 00 00 00 00    ................
    0x100703c0:   00 00 00 00 00 00 00 00 00 00 00 00 00 00 00 00    ................
    0x100703d0:   00 00 00 00 00 00 00 00 00 00 00 00 00 00 00 00    ................
    0x100703e0:   00 00 00 00 00 00 00 00 00 00 00 00 00 00 00 00    ................
    0x100703f0:   00 00 00 00 00 00 00 00 00 00 00 00 00 00 00 00    ................
    0x10070400:   00 00 00 00 00 00 00 00 00 00 00 00 00 00 00 00    ................
    0x10070410:   00 00 00 00 00 00 00 00 00 00 00 00 00 00 00 00    ................
    0x10070420:   00 00 00 00 00 00 00 00 00 00 00 00 00 00 00 00    ................
    0x10070430:   00 00 00 00 00 00 00 00 00 00 00 00 00 00 00 00    ................
    0x10070440:   00 00 00 00 00 00 00 00 00 00 00 00 00 00 00 00    ................
    0x10070450:   00 00 00 00 00 00 00 00 00 00 00 00 00 00 00 00    ................
    0x10070460:   00 00 00 00 00 00 00 00 00 00 00 00 00 00 00 00    ................
    0x10070470:   00 00 00 00 00 00 00 00 00 00 00 00 00 00 00 00    ................
    0x10070480:   00 00 00 00 00 00 00 00 00 00 00 00 00 00 00 00    ................
    0x10070490:   00 00 00 00 00 00 00 00 00 00 00 00 00 00 00 00    ................
    0x100704a0:   00 00 00 00 00 00 00 00 00 00 00 00 00 00 00 00    ................
    0x100704b0:   00 00 00 00 00 00 00 00 00 00 00 00 00 00 00 00    ................
    0x100704c0:   00 00 00 00 00 00 00 00 00 00 00 00 00 00 00 00    ................
    0x100704d0:   00 00 00 00 00 00 00 00 00 00 00 00 00 00 00 00    ................
    0x100704e0:   00 00 00 00 00 00 00 00 00 00 00 00 00 00 00 00    ................
    0x100704f0:   00 00 00 00 00 00 00 00 00 00 00 00 00 00 00 00    ................
    0x10070500:   00 00 00 00 00 00 00 00 00 00 00 00 00 00 00 00    ................
    0x10070510:   00 00 00 00 00 00 00 00 00 00 00 00 00 00 00 00    ................
    0x10070520:   00 00 00 00 00 00 00 00 00 00 00 00 00 00 00 00    ................
    0x10070530:   00 00 00 00 00 00 00 00 00 00 00 00 00 00 00 00    ................
    0x10070540:   00 00 00 00 00 00 00 00 00 00 00 00 00 00 00 00    ................
    0x10070550:   00 00 00 00 00 00 00 00 00 00 00 00 00 00 00 00    ................
    0x10070560:   00 00 00 00 00 00 00 00 00 00 00 00 00 00 00 00    ................
    0x10070570:   00 00 00 00 00 00 00 00 00 00 00 00 00 00 00 00    ................
    0x10070580:   00 00 00 00 00 00 00 00 00 00 00 00 00 00 00 00    ................
    0x10070590:   00 00 00 00 00 00 00 00 00 00 00 00 00 00 00 00    ................
    0x100705a0:   00 00 00 00 00 00 00 00 00 00 00 00 00 00 00 00    ................
    0x100705b0:   00 00 00 00 00 00 00 00 00 00 00 00 00 00 00 00    ................
    0x100705c0:   00 00 00 00 00 00 00 00 00 00 00 00 00 00 00 00    ................
    0x100705d0:   00 00 00 00 00 00 00 00 00 00 00 00 00 00 00 00    ................
    0x100705e0:   00 00 00 00 00 00 00 00 00 00 00 00 00 00 00 00    ................
    0x100705f0:   00 00 00 00 00 00 00 00 00 00 00 00 00 00 00 00    ................
    0x10070600:   00 00 00 00 00 00 00 00 00 00 00 00 00 00 00 00    ................
    0x10070610:   00 00 00 00 00 00 00 00 00 00 00 00 00 00 00 00    ................
    0x10070620:   00 00 00 00 00 00 00 00 00 00 00 00 00 00 00 00    ................
    0x10070630:   00 00 00 00 00 00 00 00 00 00 00 00 00 00 00 00    ................
    0x10070640:   00 00 00 00 00 00 00 00 00 00 00 00 00 00 00 00    ................
    0x10070650:   00 00 00 00 00 00 00 00 00 00 00 00 00 00 00 00    ................
    0x10070660:   00 00 00 00 00 00 00 00 00 00 00 00 00 00 00 00    ................
    0x10070670:   00 00 00 00 00 00 00 00 00 00 00 00 00 00 00 00    ................
    0x10070680:   00 00 00 00 00 00 00 00 00 00 00 00 00 00 00 00    ................
    0x10070690:   00 00 00 00 00 00 00 00 00 00 00 00 00 00 00 00    ................
    0x100706a0:   00 00 00 00 00 00 00 00 00 00 00 00 00 00 00 00    ................
    0x100706b0:   00 00 00 00 00 00 00 00 00 00 00 00 00 00 00 00    ................
    0x100706c0:   00 00 00 00 00 00 00 00 00 00 00 00 00 00 00 00    ................
    0x100706d0:   00 00 00 00 00 00 00 00 00 00 00 00 00 00 00 00    ................
    0x100706e0:   00 00 00 00 00 00 00 00 00 00 00 00 00 00 00 00    ................
    0x100706f0:   00 00 00 00 00 00 00 00 00 00 00 00 00 00 00 00    ................
    0x10070700:   00 00 00 00 00 00 00 00 00 00 00 00 00 00 00 00    ................
    0x10070710:   00 00 00 00 00 00 00 00 00 00 00 00 00 00 00 00    ................
    0x10070720:   00 00 00 00 00 00 00 00 00 00 00 00 00 00 00 00    ................
    0x10070730:   00 00 00 00 00 00 00 00 00 00 00 00 00 00 00 00    ................
    0x10070740:   00 00 00 00 00 00 00 00 00 00 00 00 00 00 00 00    ................
    0x10070750:   00 00 00 00 00 00 00 00 00 00 00 00 00 00 00 00    ................
    0x10070760:   00 00 00 00 00 00 00 00 00 00 00 00 00 00 00 00    ................
    0x10070770:   00 00 00 00 00 00 00 00 00 00 00 00 00 00 00 00    ................
    0x10070780:   00 00 00 00 00 00 00 00 00 00 00 00 00 00 00 00    ................
    0x10070790:   00 00 00 00 00 00 00 00 00 00 00 00 00 00 00 00    ................
    0x100707a0:   00 00 00 00 00 00 00 00 00 00 00 00 00 00 00 00    ................
    0x100707b0:   00 00 00 00 00 00 00 00 00 00 00 00 00 00 00 00    ................
    0x100707c0:   00 00 00 00 00 00 00 00 00 00 00 00 00 00 00 00    ................
    0x100707d0:   00 00 00 00 00 00 00 00 00 00 00 00 00 00 00 00    ................
    0x100707e0:   00 00 00 00 00 00 00 00 00 00 00 00 00 00 00 00    ................
    0x100707f0:   00 00 00 00 00 00 00 00 00 00 00 00 00 00 00 00    ................
    0x10070800:   00 00 00 00 00 00 00 00 00 00 00 00 00 00 00 00    ................
    0x10070810:   00 00 00 00 00 00 00 00 00 00 00 00 00 00 00 00    ................
    0x10070820:   00 00 00 00 00 00 00 00 00 00 00 00 00 00 00 00    ................
    0x10070830:   00 00 00 00 00 00 00 00 00 00 00 00 00 00 00 00    ................
    0x10070840:   00 00 00 00 00 00 00 00 00 00 00 00 00 00 00 00    ................
    0x10070850:   00 00 00 00 00 00 00 00 00 00 00 00 00 00 00 00    ................
    0x10070860:   00 00 00 00 00 00 00 00 00 00 00 00 00 00 00 00    ................
    0x10070870:   00 00 00 00 00 00 00 00 00 00 00 00 00 00 00 00    ................
    0x10070880:   00 00 00 00 00 00 00 00 00 00 00 00 00 00 00 00    ................
    0x10070890:   00 00 00 00 00 00 00 00 00 00 00 00 00 00 00 00    ................
    0x100708a0:   00 00 00 00 00 00 00 00 00 00 00 00 00 00 00 00    ................
    0x100708b0:   00 00 00 00 00 00 00 00 00 00 00 00 00 00 00 00    ................
    0x100708c0:   00 00 00 00 00 00 00 00 00 00 00 00 00 00 00 00    ................
    0x100708d0:   00 00 00 00 00 00 00 00 00 00 00 00 00 00 00 00    ................
    0x100708e0:   00 00 00 00 00 00 00 00 00 00 00 00 00 00 00 00    ................
    0x100708f0:   00 00 00 00 00 00 00 00 00 00 00 00 00 00 00 00    ................
    0x10070900:   00 00 00 00 00 00 00 00 00 00 00 00 00 00 00 00    ................
    0x10070910:   00 00 00 00 00 00 00 00 00 00 00 00 00 00 00 00    ................
    0x10070920:   00 00 00 00 00 00 00 00 00 00 00 00 00 00 00 00    ................
    0x10070930:   00 00 00 00 00 00 00 00 00 00 00 00 00 00 00 00    ................
    0x10070940:   00 00 00 00 00 00 00 00 00 00 00 00 00 00 00 00    ................
    0x10070950:   00 00 00 00 00 00 00 00 00 00 00 00 00 00 00 00    ................
    0x10070960:   00 00 00 00 00 00 00 00 00 00 00 00 00 00 00 00    ................
    0x10070970:   00 00 00 00 00 00 00 00 00 00 00 00 00 00 00 00    ................
    0x10070980:   00 00 00 00 00 00 00 00 00 00 00 00 00 00 00 00    ................
    0x10070990:   00 00 00 00 00 00 00 00 00 00 00 00 00 00 00 00    ................
    0x100709a0:   00 00 00 00 00 00 00 00 00 00 00 00 00 00 00 00    ................
    0x100709b0:   00 00 00 00 00 00 00 00 00 00 00 00 00 00 00 00    ................
    0x100709c0:   00 00 00 00 00 00 00 00 00 00 00 00 00 00 00 00    ................
    0x100709d0:   00 00 00 00 00 00 00 00 00 00 00 00 00 00 00 00    ................
    0x100709e0:   00 00 00 00 00 00 00 00 00 00 00 00 00 00 00 00    ................
    0x100709f0:   00 00 00 00 00 00 00 00 00 00 00 00 00 00 00 00    ................
    0x10070a00:   00 00 00 00 00 00 00 00 00 00 00 00 00 00 00 00    ................
    0x10070a10:   00 00 00 00 00 00 00 00 00 00 00 00 00 00 00 00    ................
    0x10070a20:   00 00 00 00 00 00 00 00 00 00 00 00 00 00 00 00    ................
    0x10070a30:   00 00 00 00 00 00 00 00 00 00 00 00 00 00 00 00    ................
    0x10070a40:   00 00 00 00 00 00 00 00 00 00 00 00 00 00 00 00    ................
    0x10070a50:   00 00 00 00 00 00 00 00 00 00 00 00 00 00 00 00    ................
    0x10070a60:   00 00 00 00 00 00 00 00 00 00 00 00 00 00 00 00    ................
    0x10070a70:   00 00 00 00 00 00 00 00 00 00 00 00 00 00 00 00    ................
    0x10070a80:   00 00 00 00 00 00 00 00 00 00 00 00 00 00 00 00    ................
    0x10070a90:   00 00 00 00 00 00 00 00 00 00 00 00 00 00 00 00    ................
    0x10070aa0:   00 00 00 00 00 00 00 00 00 00 00 00 00 00 00 00    ................
    0x10070ab0:   00 00 00 00 00 00 00 00 00 00 00 00 00 00 00 00    ................
    0x10070ac0:   00 00 00 00 00 00 00 00 00 00 00 00 00 00 00 00    ................
    0x10070ad0:   00 00 00 00 00 00 00 00 00 00 00 00 00 00 00 00    ................
    0x10070ae0:   00 00 00 00 00 00 00 00 00 00 00 00 00 00 00 00    ................
    0x10070af0:   00 00 00 00 00 00 00 00 00 00 00 00 00 00 00 00    ................
    0x10070b00:   00 00 00 00 00 00 00 00 00 00 00 00 00 00 00 00    ................
    0x10070b10:   00 00 00 00 00 00 00 00 00 00 00 00 00 00 00 00    ................
    0x10070b20:   00 00 00 00 00 00 00 00 00 00 00 00 00 00 00 00    ................
    0x10070b30:   00 00 00 00 00 00 00 00 00 00 00 00 00 00 00 00    ................
    0x10070b40:   00 00 00 00 00 00 00 00 00 00 00 00 00 00 00 00    ................
    0x10070b50:   00 00 00 00 00 00 00 00 00 00 00 00 00 00 00 00    ................
    0x10070b60:   00 00 00 00 00 00 00 00 00 00 00 00 00 00 00 00    ................
    0x10070b70:   00 00 00 00 00 00 00 00 00 00 00 00 00 00 00 00    ................
    0x10070b80:   00 00 00 00 00 00 00 00 00 00 00 00 00 00 00 00    ................
    0x10070b90:   00 00 00 00 00 00 00 00 00 00 00 00 00 00 00 00    ................
    0x10070ba0:   00 00 00 00 00 00 00 00 00 00 00 00 00 00 00 00    ................
    0x10070bb0:   00 00 00 00 00 00 00 00 00 00 00 00 00 00 00 00    ................
    0x10070bc0:   00 00 00 00 00 00 00 00 00 00 00 00 00 00 00 00    ................
    0x10070bd0:   00 00 00 00 00 00 00 00 00 00 00 00 00 00 00 00    ................
    0x10070be0:   00 00 00 00 00 00 00 00 00 00 00 00 00 00 00 00    ................
    0x10070bf0:   00 00 00 00 00 00 00 00 00 00 00 00 00 00 00 00    ................
    0x10070c00:   00 00 00 00 00 00 00 00 00 00 00 00 00 00 00 00    ................
    0x10070c10:   00 00 00 00 00 00 00 00 00 00 00 00 00 00 00 00    ................
    0x10070c20:   00 00 00 00 00 00 00 00 00 00 00 00 00 00 00 00    ................
    0x10070c30:   00 00 00 00 00 00 00 00 00 00 00 00 00 00 00 00    ................
    0x10070c40:   00 00 00 00 00 00 00 00 00 00 00 00 00 00 00 00    ................
    0x10070c50:   00 00 00 00 00 00 00 00 00 00 00 00 00 00 00 00    ................
    0x10070c60:   00 00 00 00 00 00 00 00 00 00 00 00 00 00 00 00    ................
    0x10070c70:   00 00 00 00 00 00 00 00 00 00 00 00 00 00 00 00    ................
    0x10070c80:   00 00 00 00 00 00 00 00 00 00 00 00 00 00 00 00    ................
    0x10070c90:   00 00 00 00 00 00 00 00 00 00 00 00 00 00 00 00    ................
    0x10070ca0:   00 00 00 00 00 00 00 00 00 00 00 00 00 00 00 00    ................
    0x10070cb0:   00 00 00 00 00 00 00 00 00 00 00 00 00 00 00 00    ................
    0x10070cc0:   00 00 00 00 00 00 00 00 00 00 00 00 00 00 00 00    ................
    0x10070cd0:   00 00 00 00 00 00 00 00 00 00 00 00 00 00 00 00    ................
    0x10070ce0:   00 00 00 00 00 00 00 00 00 00 00 00 00 00 00 00    ................
    0x10070cf0:   00 00 00 00 00 00 00 00 00 00 00 00 00 00 00 00    ................
    0x10070d00:   00 00 00 00 00 00 00 00 00 00 00 00 00 00 00 00    ................
    0x10070d10:   00 00 00 00 00 00 00 00 00 00 00 00 00 00 00 00    ................
    0x10070d20:   00 00 00 00 00 00 00 00 00 00 00 00 00 00 00 00    ................
    0x10070d30:   00 00 00 00 00 00 00 00 00 00 00 00 00 00 00 00    ................
    0x10070d40:   00 00 00 00 00 00 00 00 00 00 00 00 00 00 00 00    ................
    0x10070d50:   00 00 00 00 00 00 00 00 00 00 00 00 00 00 00 00    ................
    0x10070d60:   00 00 00 00 00 00 00 00 00 00 00 00 00 00 00 00    ................
    0x10070d70:   00 00 00 00 00 00 00 00 00 00 00 00 00 00 00 00    ................
    0x10070d80:   00 00 00 00 00 00 00 00 00 00 00 00 00 00 00 00    ................
    0x10070d90:   00 00 00 00 00 00 00 00 00 00 00 00 00 00 00 00    ................
    0x10070da0:   00 00 00 00 00 00 00 00 00 00 00 00 00 00 00 00    ................
    0x10070db0:   00 00 00 00 00 00 00 00 00 00 00 00 00 00 00 00    ................
    0x10070dc0:   00 00 00 00 00 00 00 00 00 00 00 00 00 00 00 00    ................
    0x10070dd0:   00 00 00 00 00 00 00 00 00 00 00 00 00 00 00 00    ................
    0x10070de0:   00 00 00 00 00 00 00 00 00 00 00 00 00 00 00 00    ................
    0x10070df0:   00 00 00 00 00 00 00 00 00 00 00 00 00 00 00 00    ................
    0x10070e00:   00 00 00 00 00 00 00 00 00 00 00 00 00 00 00 00    ................
    0x10070e10:   00 00 00 00 00 00 00 00 00 00 00 00 00 00 00 00    ................
    0x10070e20:   00 00 00 00 00 00 00 00 00 00 00 00 00 00 00 00    ................
    0x10070e30:   00 00 00 00 00 00 00 00 00 00 00 00 00 00 00 00    ................
    0x10070e40:   00 00 00 00 00 00 00 00 00 00 00 00 00 00 00 00    ................
    0x10070e50:   00 00 00 00 00 00 00 00 00 00 00 00 00 00 00 00    ................
    0x10070e60:   00 00 00 00 00 00 00 00 00 00 00 00 00 00 00 00    ................
    0x10070e70:   00 00 00 00 00 00 00 00 00 00 00 00 00 00 00 00    ................
    0x10070e80:   00 00 00 00 00 00 00 00 00 00 00 00 00 00 00 00    ................
    0x10070e90:   00 00 00 00 00 00 00 00 00 00 00 00 00 00 00 00    ................
    0x10070ea0:   00 00 00 00 00 00 00 00 00 00 00 00 00 00 00 00    ................
    0x10070eb0:   00 00 00 00 00 00 00 00 00 00 00 00 00 00 00 00    ................
    0x10070ec0:   00 00 00 00 00 00 00 00 00 00 00 00 00 00 00 00    ................
    0x10070ed0:   00 00 00 00 00 00 00 00 00 00 00 00 00 00 00 00    ................
    0x10070ee0:   00 00 00 00 00 00 00 00 00 00 00 00 00 00 00 00    ................
    0x10070ef0:   00 00 00 00 00 00 00 00 00 00 00 00 00 00 00 00    ................
    0x10070f00:   00 00 00 00 00 00 00 00 00 00 00 00 00 00 00 00    ................
    0x10070f10:   00 00 00 00 00 00 00 00 00 00 00 00 00 00 00 00    ................
    0x10070f20:   00 00 00 00 00 00 00 00 00 00 00 00 00 00 00 00    ................
    0x10070f30:   00 00 00 00 00 00 00 00 00 00 00 00 00 00 00 00    ................
    0x10070f40:   00 00 00 00 00 00 00 00 00 00 00 00 00 00 00 00    ................
    0x10070f50:   00 00 00 00 00 00 00 00 00 00 00 00 00 00 00 00    ................
    0x10070f60:   00 00 00 00 00 00 00 00 00 00 00 00 00 00 00 00    ................
    0x10070f70:   00 00 00 00 00 00 00 00 00 00 00 00 00 00 00 00    ................
    0x10070f80:   00 00 00 00 00 00 00 00 00 00 00 00 00 00 00 00    ................
    0x10070f90:   00 00 00 00 00 00 00 00 00 00 00 00 00 00 00 00    ................
    0x10070fa0:   00 00 00 00 00 00 00 00 00 00 00 00 00 00 00 00    ................
    0x10070fb0:   00 00 00 00 00 00 00 00 00 00 00 00 00 00 00 00    ................
    0x10070fc0:   00 00 00 00 00 00 00 00 00 00 00 00 00 00 00 00    ................
    0x10070fd0:   00 00 00 00 00 00 00 00 00 00 00 00 00 00 00 00    ................
    0x10070fe0:   00 00 00 00 00 00 00 00 00 00 00 00 00 00 00 00    ................
    0x10070ff0:   00 00 00 00 00 00 00 00 00 00 00 00 00 00 00 00    ................
    0x10071000:   00 00 00 00 00 00 00 00 00 00 00 00 00 00 00 00    ................
    0x10071010:   00 00 00 00 00 00 00 00 00 00 00 00 00 00 00 00    ................
    0x10071020:   00 00 00 00 00 00 00 00 00 00 00 00 00 00 00 00    ................
    0x10071030:   00 00 00 00 00 00 00 00 00 00 00 00 00 00 00 00    ................
    0x10071040:   00 00 00 00 00 00 00 00 00 00 00 00 00 00 00 00    ................
    0x10071050:   00 00 00 00 00 00 00 00 00 00 00 00 00 00 00 00    ................
    0x10071060:   00 00 00 00 00 00 00 00 00 00 00 00 00 00 00 00    ................
    0x10071070:   00 00 00 00 00 00 00 00 00 00 00 00 00 00 00 00    ................
    0x10071080:   00 00 00 00 00 00 00 00 00 00 00 00 00 00 00 00    ................
    0x10071090:   00 00 00 00 00 00 00 00 00 00 00 00 00 00 00 00    ................
    0x100710a0:   00 00 00 00 00 00 00 00 00 00 00 00 00 00 00 00    ................
    0x100710b0:   00 00 00 00 00 00 00 00 00 00 00 00 00 00 00 00    ................
    0x100710c0:   00 00 00 00 00 00 00 00 00 00 00 00 00 00 00 00    ................
    0x100710d0:   00 00 00 00 00 00 00 00 00 00 00 00 00 00 00 00    ................
    0x100710e0:   00 00 00 00 00 00 00 00 00 00 00 00 00 00 00 00    ................
    0x100710f0:   00 00 00 00 00 00 00 00 00 00 00 00 00 00 00 00    ................
    0x10071100:   00 00 00 00 00 00 00 00 00 00 00 00 00 00 00 00    ................
    0x10071110:   00 00 00 00 00 00 00 00 00 00 00 00 00 00 00 00    ................
    0x10071120:   00 00 00 00 00 00 00 00 00 00 00 00 00 00 00 00    ................
    0x10071130:   00 00 00 00 00 00 00 00 00 00 00 00 00 00 00 00    ................
    0x10071140:   00 00 00 00 00 00 00 00 00 00 00 00 00 00 00 00    ................
    0x10071150:   00 00 00 00 00 00 00 00 00 00 00 00 00 00 00 00    ................
    0x10071160:   00 00 00 00 00 00 00 00 00 00 00 00 00 00 00 00    ................
    0x10071170:   00 00 00 00 00 00 00 00 00 00 00 00 00 00 00 00    ................
    0x10071180:   00 00 00 00 00 00 00 00 00 00 00 00 00 00 00 00    ................
    0x10071190:   00 00 00 00 00 00 00 00 00 00 00 00 00 00 00 00    ................
    0x100711a0:   00 00 00 00 00 00 00 00 00 00 00 00 00 00 00 00    ................
    0x100711b0:   00 00 00 00 00 00 00 00 00 00 00 00 00 00 00 00    ................
    0x100711c0:   00 00 00 00 00 00 00 00 00 00 00 00 00 00 00 00    ................
    0x100711d0:   00 00 00 00 00 00 00 00 00 00 00 00 00 00 00 00    ................
    0x100711e0:   00 00 00 00 00 00 00 00 00 00 00 00 00 00 00 00    ................
    0x100711f0:   00 00 00 00 00 00 00 00 00 00 00 00 00 00 00 00    ................
    0x10071200:   00 00 00 00 00 00 00 00 00 00 00 00 00 00 00 00    ................
    0x10071210:   00 00 00 00 00 00 00 00 00 00 00 00 00 00 00 00    ................
    0x10071220:   00 00 00 00 00 00 00 00 00 00 00 00 00 00 00 00    ................
    0x10071230:   00 00 00 00 00 00 00 00 00 00 00 00 00 00 00 00    ................
    0x10071240:   00 00 00 00 00 00 00 00 00 00 00 00 00 00 00 00    ................
    0x10071250:   00 00 00 00 00 00 00 00 00 00 00 00 00 00 00 00    ................
    0x10071260:   00 00 00 00 00 00 00 00 00 00 00 00 00 00 00 00    ................
    0x10071270:   00 00 00 00 00 00 00 00 00 00 00 00 00 00 00 00    ................
    0x10071280:   00 00 00 00 00 00 00 00 00 00 00 00 00 00 00 00    ................
    0x10071290:   00 00 00 00 00 00 00 00 00 00 00 00 00 00 00 00    ................
    0x100712a0:   00 00 00 00 00 00 00 00 00 00 00 00 00 00 00 00    ................
    0x100712b0:   00 00 00 00 00 00 00 00 00 00 00 00 00 00 00 00    ................
    0x100712c0:   00 00 00 00 00 00 00 00 00 00 00 00 00 00 00 00    ................
    0x100712d0:   00 00 00 00 00 00 00 00 00 00 00 00 00 00 00 00    ................
    0x100712e0:   00 00 00 00 00 00 00 00 00 00 00 00 00 00 00 00    ................
    0x100712f0:   00 00 00 00 00 00 00 00 00 00 00 00 00 00 00 00    ................
    0x10071300:   00 00 00 00 00 00 00 00 00 00 00 00 00 00 00 00    ................
    0x10071310:   00 00 00 00 00 00 00 00 00 00 00 00 00 00 00 00    ................
    0x10071320:   00 00 00 00 00 00 00 00 00 00 00 00 00 00 00 00    ................
    0x10071330:   00 00 00 00 00 00 00 00 00 00 00 00 00 00 00 00    ................
    0x10071340:   00 00 00 00 00 00 00 00 00 00 00 00 00 00 00 00    ................
    0x10071350:   00 00 00 00 00 00 00 00 00 00 00 00 00 00 00 00    ................
    0x10071360:   00 00 00 00 00 00 00 00 00 00 00 00 00 00 00 00    ................
    0x10071370:   00 00 00 00 00 00 00 00 00 00 00 00 00 00 00 00    ................
    0x10071380:   00 00 00 00 00 00 00 00 00 00 00 00 00 00 00 00    ................
    0x10071390:   00 00 00 00 00 00 00 00 00 00 00 00 00 00 00 00    ................
    0x100713a0:   00 00 00 00 00 00 00 00 00 00 00 00 00 00 00 00    ................
    0x100713b0:   00 00 00 00 00 00 00 00 00 00 00 00 00 00 00 00    ................
    0x100713c0:   00 00 00 00 00 00 00 00 00 00 00 00 00 00 00 00    ................
    0x100713d0:   00 00 00 00 00 00 00 00 00 00 00 00 00 00 00 00    ................
    0x100713e0:   00 00 00 00 00 00 00 00 00 00 00 00 00 00 00 00    ................
    0x100713f0:   00 00 00 00 00 00 00 00 00 00 00 00 00 00 00 00    ................
    0x10071400:   00 00 00 00 00 00 00 00 00 00 00 00 00 00 00 00    ................
    0x10071410:   00 00 00 00 00 00 00 00 00 00 00 00 00 00 00 00    ................
    0x10071420:   00 00 00 00 00 00 00 00 00 00 00 00 00 00 00 00    ................
    0x10071430:   00 00 00 00 00 00 00 00 00 00 00 00 00 00 00 00    ................
    0x10071440:   00 00 00 00 00 00 00 00 00 00 00 00 00 00 00 00    ................
    0x10071450:   00 00 00 00 00 00 00 00 00 00 00 00 00 00 00 00    ................
    0x10071460:   00 00 00 00 00 00 00 00 00 00 00 00 00 00 00 00    ................
    0x10071470:   00 00 00 00 00 00 00 00 00 00 00 00 00 00 00 00    ................
    0x10071480:   00 00 00 00 00 00 00 00 00 00 00 00 00 00 00 00    ................
    0x10071490:   00 00 00 00 00 00 00 00 00 00 00 00 00 00 00 00    ................
    0x100714a0:   00 00 00 00 00 00 00 00 00 00 00 00 00 00 00 00    ................
    0x100714b0:   00 00 00 00 00 00 00 00 00 00 00 00 00 00 00 00    ................
    0x100714c0:   00 00 00 00 00 00 00 00 00 00 00 00 00 00 00 00    ................
    0x100714d0:   00 00 00 00 00 00 00 00 00 00 00 00 00 00 00 00    ................
    0x100714e0:   00 00 00 00 00 00 00 00 00 00 00 00 00 00 00 00    ................
    0x100714f0:   00 00 00 00 00 00 00 00 00 00 00 00 00 00 00 00    ................
    0x10071500:   00 00 00 00 00 00 00 00 00 00 00 00 00 00 00 00    ................
    0x10071510:   00 00 00 00 00 00 00 00 00 00 00 00 00 00 00 00    ................
    0x10071520:   00 00 00 00 00 00 00 00 00 00 00 00 00 00 00 00    ................
    0x10071530:   00 00 00 00 00 00 00 00 00 00 00 00 00 00 00 00    ................
    0x10071540:   00 00 00 00 00 00 00 00 00 00 00 00 00 00 00 00    ................
    0x10071550:   00 00 00 00 00 00 00 00 00 00 00 00 00 00 00 00    ................
    0x10071560:   00 00 00 00 00 00 00 00 00 00 00 00 00 00 00 00    ................
    0x10071570:   00 00 00 00 00 00 00 00 00 00 00 00 00 00 00 00    ................
    0x10071580:   00 00 00 00 00 00 00 00 00 00 00 00 00 00 00 00    ................
    0x10071590:   00 00 00 00 00 00 00 00 00 00 00 00 00 00 00 00    ................
    0x100715a0:   00 00 00 00 00 00 00 00 00 00 00 00 00 00 00 00    ................
    0x100715b0:   00 00 00 00 00 00 00 00 00 00 00 00 00 00 00 00    ................
    0x100715c0:   00 00 00 00 00 00 00 00 00 00 00 00 00 00 00 00    ................
    0x100715d0:   00 00 00 00 00 00 00 00 00 00 00 00 00 00 00 00    ................
    0x100715e0:   00 00 00 00 00 00 00 00 00 00 00 00 00 00 00 00    ................
    0x100715f0:   00 00 00 00 00 00 00 00 00 00 00 00 00 00 00 00    ................
    0x10071600:   00 00 00 00 00 00 00 00 00 00 00 00 00 00 00 00    ................
    0x10071610:   00 00 00 00 00 00 00 00 00 00 00 00 00 00 00 00    ................
    0x10071620:   00 00 00 00 00 00 00 00 00 00 00 00 00 00 00 00    ................
    0x10071630:   00 00 00 00 00 00 00 00 00 00 00 00 00 00 00 00    ................
    0x10071640:   00 00 00 00 00 00 00 00 00 00 00 00 00 00 00 00    ................
    0x10071650:   00 00 00 00 00 00 00 00 00 00 00 00 00 00 00 00    ................
    0x10071660:   00 00 00 00 00 00 00 00 00 00 00 00 00 00 00 00    ................
    0x10071670:   00 00 00 00 00 00 00 00 00 00 00 00 00 00 00 00    ................
    0x10071680:   00 00 00 00 00 00 00 00 00 00 00 00 00 00 00 00    ................
    0x10071690:   00 00 00 00 00 00 00 00 00 00 00 00 00 00 00 00    ................
    0x100716a0:   00 00 00 00 00 00 00 00 00 00 00 00 00 00 00 00    ................
    0x100716b0:   00 00 00 00 00 00 00 00 00 00 00 00 00 00 00 00    ................
    0x100716c0:   00 00 00 00 00 00 00 00 00 00 00 00 00 00 00 00    ................
    0x100716d0:   00 00 00 00 00 00 00 00 00 00 00 00 00 00 00 00    ................
    0x100716e0:   00 00 00 00 00 00 00 00 00 00 00 00 00 00 00 00    ................
    0x100716f0:   00 00 00 00 00 00 00 00 00 00 00 00 00 00 00 00    ................
    0x10071700:   00 00 00 00 00 00 00 00 00 00 00 00 00 00 00 00    ................
    0x10071710:   00 00 00 00 00 00 00 00 00 00 00 00 00 00 00 00    ................
    0x10071720:   00 00 00 00 00 00 00 00 00 00 00 00 00 00 00 00    ................
    0x10071730:   00 00 00 00 00 00 00 00 00 00 00 00 00 00 00 00    ................
    0x10071740:   00 00 00 00 00 00 00 00 00 00 00 00 00 00 00 00    ................
    0x10071750:   00 00 00 00 00 00 00 00 00 00 00 00 00 00 00 00    ................
    0x10071760:   00 00 00 00 00 00 00 00 00 00 00 00 00 00 00 00    ................
    0x10071770:   00 00 00 00 00 00 00 00 00 00 00 00 00 00 00 00    ................
    0x10071780:   00 00 00 00 00 00 00 00 00 00 00 00 00 00 00 00    ................
    0x10071790:   00 00 00 00 00 00 00 00 00 00 00 00 00 00 00 00    ................
    0x100717a0:   00 00 00 00 00 00 00 00 00 00 00 00 00 00 00 00    ................
    0x100717b0:   00 00 00 00 00 00 00 00 00 00 00 00 00 00 00 00    ................
    0x100717c0:   00 00 00 00 00 00 00 00 00 00 00 00 00 00 00 00    ................
    0x100717d0:   00 00 00 00 00 00 00 00 00 00 00 00 00 00 00 00    ................
    0x100717e0:   00 00 00 00 00 00 00 00 00 00 00 00 00 00 00 00    ................
    0x100717f0:   00 00 00 00 00 00 00 00 00 00 00 00 00 00 00 00    ................
    0x10071800:   00 00 00 00 00 00 00 00 00 00 00 00 00 00 00 00    ................
    0x10071810:   00 00 00 00 00 00 00 00 00 00 00 00 00 00 00 00    ................
    0x10071820:   00 00 00 00 00 00 00 00 00 00 00 00 00 00 00 00    ................
    0x10071830:   00 00 00 00 00 00 00 00 00 00 00 00 00 00 00 00    ................
    0x10071840:   00 00 00 00 00 00 00 00 00 00 00 00 00 00 00 00    ................
    0x10071850:   00 00 00 00 00 00 00 00 00 00 00 00 00 00 00 00    ................
    0x10071860:   00 00 00 00 00 00 00 00 00 00 00 00 00 00 00 00    ................
    0x10071870:   00 00 00 00 00 00 00 00 00 00 00 00 00 00 00 00    ................
    0x10071880:   00 00 00 00 00 00 00 00 00 00 00 00 00 00 00 00    ................
    0x10071890:   00 00 00 00 00 00 00 00 00 00 00 00 00 00 00 00    ................
    0x100718a0:   00 00 00 00 00 00 00 00 00 00 00 00 00 00 00 00    ................
    0x100718b0:   00 00 00 00 00 00 00 00 00 00 00 00 00 00 00 00    ................
    0x100718c0:   00 00 00 00 00 00 00 00 00 00 00 00 00 00 00 00    ................
    0x100718d0:   00 00 00 00 00 00 00 00 00 00 00 00 00 00 00 00    ................
    0x100718e0:   00 00 00 00 00 00 00 00 00 00 00 00 00 00 00 00    ................
    0x100718f0:   00 00 00 00 00 00 00 00 00 00 00 00 00 00 00 00    ................
    0x10071900:   00 00 00 00 00 00 00 00 00 00 00 00 00 00 00 00    ................
    0x10071910:   00 00 00 00 00 00 00 00 00 00 00 00 00 00 00 00    ................
    0x10071920:   00 00 00 00 00 00 00 00 00 00 00 00 00 00 00 00    ................
    0x10071930:   00 00 00 00 00 00 00 00 00 00 00 00 00 00 00 00    ................
    0x10071940:   00 00 00 00 00 00 00 00 00 00 00 00 00 00 00 00    ................
    0x10071950:   00 00 00 00 00 00 00 00 00 00 00 00 00 00 00 00    ................
    0x10071960:   00 00 00 00 00 00 00 00 00 00 00 00 00 00 00 00    ................
    0x10071970:   00 00 00 00 00 00 00 00 00 00 00 00 00 00 00 00    ................
    0x10071980:   00 00 00 00 00 00 00 00 00 00 00 00 00 00 00 00    ................
    0x10071990:   00 00 00 00 00 00 00 00 00 00 00 00 00 00 00 00    ................
    0x100719a0:   00 00 00 00 00 00 00 00 00 00 00 00 00 00 00 00    ................
    0x100719b0:   00 00 00 00 00 00 00 00 00 00 00 00 00 00 00 00    ................
    0x100719c0:   00 00 00 00 00 00 00 00 00 00 00 00 00 00 00 00    ................
    0x100719d0:   00 00 00 00 00 00 00 00 00 00 00 00 00 00 00 00    ................
    0x100719e0:   00 00 00 00 00 00 00 00 00 00 00 00 00 00 00 00    ................
    0x100719f0:   00 00 00 00 00 00 00 00 00 00 00 00 00 00 00 00    ................
    0x10071a00:   00 00 00 00 00 00 00 00 00 00 00 00 00 00 00 00    ................
    0x10071a10:   00 00 00 00 00 00 00 00 00 00 00 00 00 00 00 00    ................
    0x10071a20:   00 00 00 00 00 00 00 00 00 00 00 00 00 00 00 00    ................
    0x10071a30:   00 00 00 00 00 00 00 00 00 00 00 00 00 00 00 00    ................
    0x10071a40:   00 00 00 00 00 00 00 00 00 00 00 00 00 00 00 00    ................
    0x10071a50:   00 00 00 00 00 00 00 00 00 00 00 00 00 00 00 00    ................
    0x10071a60:   00 00 00 00 00 00 00 00 00 00 00 00 00 00 00 00    ................
    0x10071a70:   00 00 00 00 00 00 00 00 00 00 00 00 00 00 00 00    ................
    0x10071a80:   00 00 00 00 00 00 00 00 00 00 00 00 00 00 00 00    ................
    0x10071a90:   00 00 00 00 00 00 00 00 00 00 00 00 00 00 00 00    ................
    0x10071aa0:   00 00 00 00 00 00 00 00 00 00 00 00 00 00 00 00    ................
    0x10071ab0:   00 00 00 00 00 00 00 00 00 00 00 00 00 00 00 00    ................
    0x10071ac0:   00 00 00 00 00 00 00 00 00 00 00 00 00 00 00 00    ................
    0x10071ad0:   00 00 00 00 00 00 00 00 00 00 00 00 00 00 00 00    ................
    0x10071ae0:   00 00 00 00 00 00 00 00 00 00 00 00 00 00 00 00    ................
    0x10071af0:   00 00 00 00 00 00 00 00 00 00 00 00 00 00 00 00    ................
    0x10071b00:   00 00 00 00 00 00 00 00 00 00 00 00 00 00 00 00    ................
    0x10071b10:   00 00 00 00 00 00 00 00 00 00 00 00 00 00 00 00    ................
    0x10071b20:   00 00 00 00 00 00 00 00 00 00 00 00 00 00 00 00    ................
    0x10071b30:   00 00 00 00 00 00 00 00 00 00 00 00 00 00 00 00    ................
    0x10071b40:   00 00 00 00 00 00 00 00 00 00 00 00 00 00 00 00    ................
    0x10071b50:   00 00 00 00 00 00 00 00 00 00 00 00 00 00 00 00    ................
    0x10071b60:   00 00 00 00 00 00 00 00 00 00 00 00 00 00 00 00    ................
    0x10071b70:   00 00 00 00 00 00 00 00 00 00 00 00 00 00 00 00    ................
    0x10071b80:   00 00 00 00 00 00 00 00 00 00 00 00 00 00 00 00    ................
    0x10071b90:   00 00 00 00 00 00 00 00 00 00 00 00 00 00 00 00    ................
    0x10071ba0:   00 00 00 00 00 00 00 00 00 00 00 00 00 00 00 00    ................
    0x10071bb0:   00 00 00 00 00 00 00 00 00 00 00 00 00 00 00 00    ................
    0x10071bc0:   00 00 00 00 00 00 00 00 00 00 00 00 00 00 00 00    ................
    0x10071bd0:   00 00 00 00 00 00 00 00 00 00 00 00 00 00 00 00    ................
    0x10071be0:   00 00 00 00 00 00 00 00 00 00 00 00 00 00 00 00    ................
    0x10071bf0:   00 00 00 00 00 00 00 00 00 00 00 00 00 00 00 00    ................
    0x10071c00:   00 00 00 00 00 00 00 00 00 00 00 00 00 00 00 00    ................
    0x10071c10:   00 00 00 00 00 00 00 00 00 00 00 00 00 00 00 00    ................
    0x10071c20:   00 00 00 00 00 00 00 00 00 00 00 00 00 00 00 00    ................
    0x10071c30:   00 00 00 00 00 00 00 00 00 00 00 00 00 00 00 00    ................
    0x10071c40:   00 00 00 00 00 00 00 00 00 00 00 00 00 00 00 00    ................
    0x10071c50:   00 00 00 00 00 00 00 00 00 00 00 00 00 00 00 00    ................
    0x10071c60:   00 00 00 00 00 00 00 00 00 00 00 00 00 00 00 00    ................
    0x10071c70:   00 00 00 00 00 00 00 00 00 00 00 00 00 00 00 00    ................
    0x10071c80:   00 00 00 00 00 00 00 00 00 00 00 00 00 00 00 00    ................
    0x10071c90:   00 00 00 00 00 00 00 00 00 00 00 00 00 00 00 00    ................
    0x10071ca0:   00 00 00 00 00 00 00 00 00 00 00 00 00 00 00 00    ................
    0x10071cb0:   00 00 00 00 00 00 00 00 00 00 00 00 00 00 00 00    ................
    0x10071cc0:   00 00 00 00 00 00 00 00 00 00 00 00 00 00 00 00    ................
    0x10071cd0:   00 00 00 00 00 00 00 00 00 00 00 00 00 00 00 00    ................
    0x10071ce0:   00 00 00 00 00 00 00 00 00 00 00 00 00 00 00 00    ................
    0x10071cf0:   00 00 00 00 00 00 00 00 00 00 00 00 00 00 00 00    ................
    0x10071d00:   00 00 00 00 00 00 00 00 00 00 00 00 00 00 00 00    ................
    0x10071d10:   00 00 00 00 00 00 00 00 00 00 00 00 00 00 00 00    ................
    0x10071d20:   00 00 00 00 00 00 00 00 00 00 00 00 00 00 00 00    ................
    0x10071d30:   00 00 00 00 00 00 00 00 00 00 00 00 00 00 00 00    ................
    0x10071d40:   00 00 00 00 00 00 00 00 00 00 00 00 00 00 00 00    ................
    0x10071d50:   00 00 00 00 00 00 00 00 00 00 00 00 00 00 00 00    ................
    0x10071d60:   00 00 00 00 00 00 00 00 00 00 00 00 00 00 00 00    ................
    0x10071d70:   00 00 00 00 00 00 00 00 00 00 00 00 00 00 00 00    ................
    0x10071d80:   00 00 00 00 00 00 00 00 00 00 00 00 00 00 00 00    ................
    0x10071d90:   00 00 00 00 00 00 00 00 00 00 00 00 00 00 00 00    ................
    0x10071da0:   00 00 00 00 00 00 00 00 00 00 00 00 00 00 00 00    ................
    0x10071db0:   00 00 00 00 00 00 00 00 00 00 00 00 00 00 00 00    ................
    0x10071dc0:   00 00 00 00 00 00 00 00 00 00 00 00 00 00 00 00    ................
    0x10071dd0:   00 00 00 00 00 00 00 00 00 00 00 00 00 00 00 00    ................
    0x10071de0:   00 00 00 00 00 00 00 00 00 00 00 00 00 00 00 00    ................
    0x10071df0:   00 00 00 00 00 00 00 00 00 00 00 00 00 00 00 00    ................
    0x10071e00:   00 00 00 00 00 00 00 00 00 00 00 00 00 00 00 00    ................
    0x10071e10:   00 00 00 00 00 00 00 00 00 00 00 00 00 00 00 00    ................
    0x10071e20:   00 00 00 00 00 00 00 00 00 00 00 00 00 00 00 00    ................
    0x10071e30:   00 00 00 00 00 00 00 00 00 00 00 00 00 00 00 00    ................
    0x10071e40:   00 00 00 00 00 00 00 00 00 00 00 00 00 00 00 00    ................
    0x10071e50:   00 00 00 00 00 00 00 00 00 00 00 00 00 00 00 00    ................
    0x10071e60:   00 00 00 00 00 00 00 00 00 00 00 00 00 00 00 00    ................
    0x10071e70:   00 00 00 00 00 00 00 00 00 00 00 00 00 00 00 00    ................
    0x10071e80:   00 00 00 00 00 00 00 00 00 00 00 00 00 00 00 00    ................
    0x10071e90:   00 00 00 00 00 00 00 00 00 00 00 00 00 00 00 00    ................
    0x10071ea0:   00 00 00 00 00 00 00 00 00 00 00 00 00 00 00 00    ................
    0x10071eb0:   00 00 00 00 00 00 00 00 00 00 00 00 00 00 00 00    ................
    0x10071ec0:   00 00 00 00 00 00 00 00 00 00 00 00 00 00 00 00    ................
    0x10071ed0:   00 00 00 00 00 00 00 00 00 00 00 00 00 00 00 00    ................
    0x10071ee0:   00 00 00 00 00 00 00 00 00 00 00 00 00 00 00 00    ................
    0x10071ef0:   00 00 00 00 00 00 00 00 00 00 00 00 00 00 00 00    ................
    0x10071f00:   00 00 00 00 00 00 00 00 00 00 00 00 00 00 00 00    ................
    0x10071f10:   00 00 00 00 00 00 00 00 00 00 00 00 00 00 00 00    ................
    0x10071f20:   00 00 00 00 00 00 00 00 00 00 00 00 00 00 00 00    ................
    0x10071f30:   00 00 00 00 00 00 00 00 00 00 00 00 00 00 00 00    ................
    0x10071f40:   00 00 00 00 00 00 00 00 00 00 00 00 00 00 00 00    ................
    0x10071f50:   00 00 00 00 00 00 00 00 00 00 00 00 00 00 00 00    ................
    0x10071f60:   00 00 00 00 00 00 00 00 00 00 00 00 00 00 00 00    ................
    0x10071f70:   00 00 00 00 00 00 00 00 00 00 00 00 00 00 00 00    ................
    0x10071f80:   00 00 00 00 00 00 00 00 00 00 00 00 00 00 00 00    ................
    0x10071f90:   00 00 00 00 00 00 00 00 00 00 00 00 00 00 00 00    ................
    0x10071fa0:   00 00 00 00 00 00 00 00 00 00 00 00 00 00 00 00    ................
    0x10071fb0:   00 00 00 00 00 00 00 00 00 00 00 00 00 00 00 00    ................
    0x10071fc0:   00 00 00 00 00 00 00 00 00 00 00 00 00 00 00 00    ................
    0x10071fd0:   00 00 00 00 00 00 00 00 00 00 00 00 00 00 00 00    ................
    0x10071fe0:   00 00 00 00 00 00 00 00 00 00 00 00 00 00 00 00    ................
    0x10071ff0:   00 00 00 00 00 00 00 00 00 00 00 00 00 00 00 00    ................
    0x10072000:   00 00 00 00 00 00 00 00 00 00 00 00 00 00 00 00    ................
    0x10072010:   00 00 00 00 00 00 00 00 00 00 00 00 00 00 00 00    ................
    0x10072020:   00 00 00 00 00 00 00 00 00 00 00 00 00 00 00 00    ................
    0x10072030:   00 00 00 00 00 00 00 00 00 00 00 00 00 00 00 00    ................
    0x10072040:   00 00 00 00 00 00 00 00 00 00 00 00 00 00 00 00    ................
    0x10072050:   00 00 00 00 00 00 00 00 00 00 00 00 00 00 00 00    ................
    0x10072060:   00 00 00 00 00 00 00 00 00 00 00 00 00 00 00 00    ................
    0x10072070:   00 00 00 00 00 00 00 00 00 00 00 00 00 00 00 00    ................
    0x10072080:   00 00 00 00 00 00 00 00 00 00 00 00 00 00 00 00    ................
    0x10072090:   00 00 00 00 00 00 00 00 00 00 00 00 00 00 00 00    ................
    0x100720a0:   00 00 00 00 00 00 00 00 00 00 00 00 00 00 00 00    ................
    0x100720b0:   00 00 00 00 00 00 00 00 00 00 00 00 00 00 00 00    ................
    0x100720c0:   00 00 00 00 00 00 00 00 00 00 00 00 00 00 00 00    ................
    0x100720d0:   00 00 00 00 00 00 00 00 00 00 00 00 00 00 00 00    ................
    0x100720e0:   00 00 00 00 00 00 00 00 00 00 00 00 00 00 00 00    ................
    0x100720f0:   00 00 00 00 00 00 00 00 00 00 00 00 00 00 00 00    ................
    0x10072100:   00 00 00 00 00 00 00 00 00 00 00 00 00 00 00 00    ................
    0x10072110:   00 00 00 00 00 00 00 00 00 00 00 00 00 00 00 00    ................
    0x10072120:   00 00 00 00 00 00 00 00 00 00 00 00 00 00 00 00    ................
    0x10072130:   00 00 00 00 00 00 00 00 00 00 00 00 00 00 00 00    ................
    0x10072140:   00 00 00 00 00 00 00 00 00 00 00 00 00 00 00 00    ................
    0x10072150:   00 00 00 00 00 00 00 00 00 00 00 00 00 00 00 00    ................
    0x10072160:   00 00 00 00 00 00 00 00 00 00 00 00 00 00 00 00    ................
    0x10072170:   00 00 00 00 00 00 00 00 00 00 00 00 00 00 00 00    ................
    0x10072180:   00 00 00 00 00 00 00 00 00 00 00 00 00 00 00 00    ................
    0x10072190:   00 00 00 00 00 00 00 00 00 00 00 00 00 00 00 00    ................
    0x100721a0:   00 00 00 00 00 00 00 00 00 00 00 00 00 00 00 00    ................
    0x100721b0:   00 00 00 00 00 00 00 00 00 00 00 00 00 00 00 00    ................
    0x100721c0:   00 00 00 00 00 00 00 00 00 00 00 00 00 00 00 00    ................
    0x100721d0:   00 00 00 00 00 00 00 00 00 00 00 00 00 00 00 00    ................
    0x100721e0:   00 00 00 00 00 00 00 00 00 00 00 00 00 00 00 00    ................
    0x100721f0:   00 00 00 00 00 00 00 00 00 00 00 00 00 00 00 00    ................
    0x10072200:   00 00 00 00 00 00 00 00 00 00 00 00 00 00 00 00    ................
    0x10072210:   00 00 00 00 00 00 00 00 00 00 00 00 00 00 00 00    ................
    0x10072220:   00 00 00 00 00 00 00 00 00 00 00 00 00 00 00 00    ................
    0x10072230:   00 00 00 00 00 00 00 00 00 00 00 00 00 00 00 00    ................
    0x10072240:   00 00 00 00 00 00 00 00 00 00 00 00 00 00 00 00    ................
    0x10072250:   00 00 00 00 00 00 00 00 00 00 00 00 00 00 00 00    ................
    0x10072260:   00 00 00 00 00 00 00 00 00 00 00 00 00 00 00 00    ................
    0x10072270:   00 00 00 00 00 00 00 00 00 00 00 00 00 00 00 00    ................
    0x10072280:   00 00 00 00 00 00 00 00 00 00 00 00 00 00 00 00    ................
    0x10072290:   00 00 00 00 00 00 00 00 00 00 00 00 00 00 00 00    ................
    0x100722a0:   00 00 00 00 00 00 00 00 00 00 00 00 00 00 00 00    ................
    0x100722b0:   00 00 00 00 00 00 00 00 00 00 00 00 00 00 00 00    ................
    0x100722c0:   00 00 00 00 00 00 00 00 00 00 00 00 00 00 00 00    ................
    0x100722d0:   00 00 00 00 00 00 00 00 00 00 00 00 00 00 00 00    ................
    0x100722e0:   00 00 00 00 00 00 00 00 00 00 00 00 00 00 00 00    ................
    0x100722f0:   00 00 00 00 00 00 00 00 00 00 00 00 00 00 00 00    ................
    0x10072300:   00 00 00 00 00 00 00 00 00 00 00 00 00 00 00 00    ................
    0x10072310:   00 00 00 00 00 00 00 00 00 00 00 00 00 00 00 00    ................
    0x10072320:   00 00 00 00 00 00 00 00 00 00 00 00 00 00 00 00    ................
    0x10072330:   00 00 00 00 00 00 00 00 00 00 00 00 00 00 00 00    ................
    0x10072340:   00 00 00 00 00 00 00 00 00 00 00 00 00 00 00 00    ................
    0x10072350:   00 00 00 00 00 00 00 00 00 00 00 00 00 00 00 00    ................
    0x10072360:   00 00 00 00 00 00 00 00 00 00 00 00 00 00 00 00    ................
    0x10072370:   00 00 00 00 00 00 00 00 00 00 00 00 00 00 00 00    ................
    0x10072380:   00 00 00 00 00 00 00 00 00 00 00 00 00 00 00 00    ................
    0x10072390:   00 00 00 00 00 00 00 00 00 00 00 00 00 00 00 00    ................
    0x100723a0:   00 00 00 00 00 00 00 00 00 00 00 00 00 00 00 00    ................
    0x100723b0:   00 00 00 00 00 00 00 00 00 00 00 00 00 00 00 00    ................
    0x100723c0:   00 00 00 00 00 00 00 00 00 00 00 00 00 00 00 00    ................
    0x100723d0:   00 00 00 00 00 00 00 00 00 00 00 00 00 00 00 00    ................
    0x100723e0:   00 00 00 00 00 00 00 00 00 00 00 00 00 00 00 00    ................
    0x100723f0:   00 00 00 00 00 00 00 00 00 00 00 00 00 00 00 00    ................
    0x10072400:   00 00 00 00 00 00 00 00 00 00 00 00 00 00 00 00    ................
    0x10072410:   00 00 00 00 00 00 00 00 00 00 00 00 00 00 00 00    ................
    0x10072420:   00 00 00 00 00 00 00 00 00 00 00 00 00 00 00 00    ................
    0x10072430:   00 00 00 00 00 00 00 00 00 00 00 00 00 00 00 00    ................
    0x10072440:   00 00 00 00 00 00 00 00 00 00 00 00 00 00 00 00    ................
    0x10072450:   00 00 00 00 00 00 00 00 00 00 00 00 00 00 00 00    ................
    0x10072460:   00 00 00 00 00 00 00 00 00 00 00 00 00 00 00 00    ................
    0x10072470:   00 00 00 00 00 00 00 00 00 00 00 00 00 00 00 00    ................
    0x10072480:   00 00 00 00 00 00 00 00 00 00 00 00 00 00 00 00    ................
    0x10072490:   00 00 00 00 00 00 00 00 00 00 00 00 00 00 00 00    ................
    0x100724a0:   00 00 00 00 00 00 00 00 00 00 00 00 00 00 00 00    ................
    0x100724b0:   00 00 00 00 00 00 00 00 00 00 00 00 00 00 00 00    ................
    0x100724c0:   00 00 00 00 00 00 00 00 00 00 00 00 00 00 00 00    ................
    0x100724d0:   00 00 00 00 00 00 00 00 00 00 00 00 00 00 00 00    ................
    0x100724e0:   00 00 00 00 00 00 00 00 00 00 00 00 00 00 00 00    ................
    0x100724f0:   00 00 00 00 00 00 00 00 00 00 00 00 00 00 00 00    ................
    0x10072500:   00 00 00 00 00 00 00 00 00 00 00 00 00 00 00 00    ................
    0x10072510:   00 00 00 00 00 00 00 00 00 00 00 00 00 00 00 00    ................
    0x10072520:   00 00 00 00 00 00 00 00 00 00 00 00 00 00 00 00    ................
    0x10072530:   00 00 00 00 00 00 00 00 00 00 00 00 00 00 00 00    ................
    0x10072540:   00 00 00 00 00 00 00 00 00 00 00 00 00 00 00 00    ................
    0x10072550:   00 00 00 00 00 00 00 00 00 00 00 00 00 00 00 00    ................
    0x10072560:   00 00 00 00 00 00 00 00 00 00 00 00 00 00 00 00    ................
    0x10072570:   00 00 00 00 00 00 00 00 00 00 00 00 00 00 00 00    ................
    0x10072580:   00 00 00 00 00 00 00 00 00 00 00 00 00 00 00 00    ................
    0x10072590:   00 00 00 00 00 00 00 00 00 00 00 00 00 00 00 00    ................
    0x100725a0:   00 00 00 00 00 00 00 00 00 00 00 00 00 00 00 00    ................
    0x100725b0:   00 00 00 00 00 00 00 00 00 00 00 00 00 00 00 00    ................
    0x100725c0:   00 00 00 00 00 00 00 00 00 00 00 00 00 00 00 00    ................
    0x100725d0:   00 00 00 00 00 00 00 00 00 00 00 00 00 00 00 00    ................
    0x100725e0:   00 00 00 00 00 00 00 00 00 00 00 00 00 00 00 00    ................
    0x100725f0:   00 00 00 00 00 00 00 00 00 00 00 00 00 00 00 00    ................
    0x10072600:   00 00 00 00 00 00 00 00 00 00 00 00 00 00 00 00    ................
    0x10072610:   00 00 00 00 00 00 00 00 00 00 00 00 00 00 00 00    ................
    0x10072620:   00 00 00 00 00 00 00 00 00 00 00 00 00 00 00 00    ................
    0x10072630:   00 00 00 00 00 00 00 00 00 00 00 00 00 00 00 00    ................
    0x10072640:   00 00 00 00 00 00 00 00 00 00 00 00 00 00 00 00    ................
    0x10072650:   00 00 00 00 00 00 00 00 00 00 00 00 00 00 00 00    ................
    0x10072660:   00 00 00 00 00 00 00 00 00 00 00 00 00 00 00 00    ................
    0x10072670:   00 00 00 00 00 00 00 00 00 00 00 00 00 00 00 00    ................
    0x10072680:   00 00 00 00 00 00 00 00 00 00 00 00 00 00 00 00    ................
    0x10072690:   00 00 00 00 00 00 00 00 00 00 00 00 00 00 00 00    ................
    0x100726a0:   00 00 00 00 00 00 00 00 00 00 00 00 00 00 00 00    ................
    0x100726b0:   00 00 00 00 00 00 00 00 00 00 00 00 00 00 00 00    ................
    0x100726c0:   00 00 00 00 00 00 00 00 00 00 00 00 00 00 00 00    ................
    0x100726d0:   00 00 00 00 00 00 00 00 00 00 00 00 00 00 00 00    ................
    0x100726e0:   00 00 00 00 00 00 00 00 00 00 00 00 00 00 00 00    ................
    0x100726f0:   00 00 00 00 00 00 00 00 00 00 00 00 00 00 00 00    ................
    0x10072700:   00 00 00 00 00 00 00 00 00 00 00 00 00 00 00 00    ................
    0x10072710:   00 00 00 00 00 00 00 00 00 00 00 00 00 00 00 00    ................
    0x10072720:   00 00 00 00 00 00 00 00 00 00 00 00 00 00 00 00    ................
    0x10072730:   00 00 00 00 00 00 00 00 00 00 00 00 00 00 00 00    ................
    0x10072740:   00 00 00 00 00 00 00 00 00 00 00 00 00 00 00 00    ................
    0x10072750:   00 00 00 00 00 00 00 00 00 00 00 00 00 00 00 00    ................
    0x10072760:   00 00 00 00 00 00 00 00 00 00 00 00 00 00 00 00    ................
    0x10072770:   00 00 00 00 00 00 00 00 00 00 00 00 00 00 00 00    ................
    0x10072780:   00 00 00 00 00 00 00 00 00 00 00 00 00 00 00 00    ................
    0x10072790:   00 00 00 00 00 00 00 00 00 00 00 00 00 00 00 00    ................
    0x100727a0:   00 00 00 00 00 00 00 00 00 00 00 00 00 00 00 00    ................
    0x100727b0:   00 00 00 00 00 00 00 00 00 00 00 00 00 00 00 00    ................
    0x100727c0:   00 00 00 00 00 00 00 00 00 00 00 00 00 00 00 00    ................
    0x100727d0:   00 00 00 00 00 00 00 00 00 00 00 00 00 00 00 00    ................
    0x100727e0:   00 00 00 00 00 00 00 00 00 00 00 00 00 00 00 00    ................
    0x100727f0:   00 00 00 00 00 00 00 00 00 00 00 00 00 00 00 00    ................
    0x10072800:   00 00 00 00 00 00 00 00 00 00 00 00 00 00 00 00    ................
    0x10072810:   00 00 00 00 00 00 00 00 00 00 00 00 00 00 00 00    ................
    0x10072820:   00 00 00 00 00 00 00 00 00 00 00 00 00 00 00 00    ................
    0x10072830:   00 00 00 00 00 00 00 00 00 00 00 00 00 00 00 00    ................
    0x10072840:   00 00 00 00 00 00 00 00 00 00 00 00 00 00 00 00    ................
    0x10072850:   00 00 00 00 00 00 00 00 00 00 00 00 00 00 00 00    ................
    0x10072860:   00 00 00 00 00 00 00 00 00 00 00 00 00 00 00 00    ................
    0x10072870:   00 00 00 00 00 00 00 00 00 00 00 00 00 00 00 00    ................
    0x10072880:   00 00 00 00 00 00 00 00 00 00 00 00 00 00 00 00    ................
    0x10072890:   00 00 00 00 00 00 00 00 00 00 00 00 00 00 00 00    ................
    0x100728a0:   00 00 00 00 00 00 00 00 00 00 00 00 00 00 00 00    ................
    0x100728b0:   00 00 00 00 00 00 00 00 00 00 00 00 00 00 00 00    ................
    0x100728c0:   00 00 00 00 00 00 00 00 00 00 00 00 00 00 00 00    ................
    0x100728d0:   00 00 00 00 00 00 00 00 00 00 00 00 00 00 00 00    ................
    0x100728e0:   00 00 00 00 00 00 00 00 00 00 00 00 00 00 00 00    ................
    0x100728f0:   00 00 00 00 00 00 00 00 00 00 00 00 00 00 00 00    ................
    0x10072900:   00 00 00 00 00 00 00 00 00 00 00 00 00 00 00 00    ................
    0x10072910:   00 00 00 00 00 00 00 00 00 00 00 00 00 00 00 00    ................
    0x10072920:   00 00 00 00 00 00 00 00 00 00 00 00 00 00 00 00    ................
    0x10072930:   00 00 00 00 00 00 00 00 00 00 00 00 00 00 00 00    ................
    0x10072940:   00 00 00 00 00 00 00 00 00 00 00 00 00 00 00 00    ................
    0x10072950:   00 00 00 00 00 00 00 00 00 00 00 00 00 00 00 00    ................
    0x10072960:   00 00 00 00 00 00 00 00 00 00 00 00 00 00 00 00    ................
    0x10072970:   00 00 00 00 00 00 00 00 00 00 00 00 00 00 00 00    ................
    0x10072980:   00 00 00 00 00 00 00 00 00 00 00 00 00 00 00 00    ................
    0x10072990:   00 00 00 00 00 00 00 00 00 00 00 00 00 00 00 00    ................
    0x100729a0:   00 00 00 00 00 00 00 00 00 00 00 00 00 00 00 00    ................
    0x100729b0:   00 00 00 00 00 00 00 00 00 00 00 00 00 00 00 00    ................
    0x100729c0:   00 00 00 00 00 00 00 00 00 00 00 00 00 00 00 00    ................
    0x100729d0:   00 00 00 00 00 00 00 00 00 00 00 00 00 00 00 00    ................
    0x100729e0:   00 00 00 00 00 00 00 00 00 00 00 00 00 00 00 00    ................
    0x100729f0:   00 00 00 00 00 00 00 00 00 00 00 00 00 00 00 00    ................
    0x10072a00:   00 00 00 00 00 00 00 00 00 00 00 00 00 00 00 00    ................
    0x10072a10:   00 00 00 00 00 00 00 00 00 00 00 00 00 00 00 00    ................
    0x10072a20:   00 00 00 00 00 00 00 00 00 00 00 00 00 00 00 00    ................
    0x10072a30:   00 00 00 00 00 00 00 00 00 00 00 00 00 00 00 00    ................
    0x10072a40:   00 00 00 00 00 00 00 00 00 00 00 00 00 00 00 00    ................
    0x10072a50:   00 00 00 00 00 00 00 00 00 00 00 00 00 00 00 00    ................
    0x10072a60:   00 00 00 00 00 00 00 00 00 00 00 00 00 00 00 00    ................
    0x10072a70:   00 00 00 00 00 00 00 00 00 00 00 00 00 00 00 00    ................
    0x10072a80:   00 00 00 00 00 00 00 00 00 00 00 00 00 00 00 00    ................
    0x10072a90:   00 00 00 00 00 00 00 00 00 00 00 00 00 00 00 00    ................
    0x10072aa0:   00 00 00 00 00 00 00 00 00 00 00 00 00 00 00 00    ................
    0x10072ab0:   00 00 00 00 00 00 00 00 00 00 00 00 00 00 00 00    ................
    0x10072ac0:   00 00 00 00 00 00 00 00 00 00 00 00 00 00 00 00    ................
    0x10072ad0:   00 00 00 00 00 00 00 00 00 00 00 00 00 00 00 00    ................
    0x10072ae0:   00 00 00 00 00 00 00 00 00 00 00 00 00 00 00 00    ................
    0x10072af0:   00 00 00 00 00 00 00 00 00 00 00 00 00 00 00 00    ................
    0x10072b00:   00 00 00 00 00 00 00 00 00 00 00 00 00 00 00 00    ................
    0x10072b10:   00 00 00 00 00 00 00 00 00 00 00 00 00 00 00 00    ................
    0x10072b20:   00 00 00 00 00 00 00 00 00 00 00 00 00 00 00 00    ................
    0x10072b30:   00 00 00 00 00 00 00 00 00 00 00 00 00 00 00 00    ................
    0x10072b40:   00 00 00 00 00 00 00 00 00 00 00 00 00 00 00 00    ................
    0x10072b50:   00 00 00 00 00 00 00 00 00 00 00 00 00 00 00 00    ................
    0x10072b60:   00 00 00 00 00 00 00 00 00 00 00 00 00 00 00 00    ................
    0x10072b70:   00 00 00 00 00 00 00 00 00 00 00 00 00 00 00 00    ................
    0x10072b80:   00 00 00 00 00 00 00 00 00 00 00 00 00 00 00 00    ................
    0x10072b90:   00 00 00 00 00 00 00 00 00 00 00 00 00 00 00 00    ................
    0x10072ba0:   00 00 00 00 00 00 00 00 00 00 00 00 00 00 00 00    ................
    0x10072bb0:   00 00 00 00 00 00 00 00 00 00 00 00 00 00 00 00    ................
    0x10072bc0:   00 00 00 00 00 00 00 00 00 00 00 00 00 00 00 00    ................
    0x10072bd0:   00 00 00 00 00 00 00 00 00 00 00 00 00 00 00 00    ................
    0x10072be0:   00 00 00 00 00 00 00 00 00 00 00 00 00 00 00 00    ................
    0x10072bf0:   00 00 00 00 00 00 00 00 00 00 00 00 00 00 00 00    ................
    0x10072c00:   00 00 00 00 00 00 00 00 00 00 00 00 00 00 00 00    ................
    0x10072c10:   00 00 00 00 00 00 00 00 00 00 00 00 00 00 00 00    ................
    0x10072c20:   00 00 00 00 00 00 00 00 00 00 00 00 00 00 00 00    ................
    0x10072c30:   00 00 00 00 00 00 00 00 00 00 00 00 00 00 00 00    ................
    0x10072c40:   00 00 00 00 00 00 00 00 00 00 00 00 00 00 00 00    ................
    0x10072c50:   00 00 00 00 00 00 00 00 00 00 00 00 00 00 00 00    ................
    0x10072c60:   00 00 00 00 00 00 00 00 00 00 00 00 00 00 00 00    ................
    0x10072c70:   00 00 00 00 00 00 00 00 00 00 00 00 00 00 00 00    ................
    0x10072c80:   00 00 00 00 00 00 00 00 00 00 00 00 00 00 00 00    ................
    0x10072c90:   00 00 00 00 00 00 00 00 00 00 00 00 00 00 00 00    ................
    0x10072ca0:   00 00 00 00 00 00 00 00 00 00 00 00 00 00 00 00    ................
    0x10072cb0:   00 00 00 00 00 00 00 00 00 00 00 00 00 00 00 00    ................
    0x10072cc0:   00 00 00 00 00 00 00 00 00 00 00 00 00 00 00 00    ................
    0x10072cd0:   00 00 00 00 00 00 00 00 00 00 00 00 00 00 00 00    ................
    0x10072ce0:   00 00 00 00 00 00 00 00 00 00 00 00 00 00 00 00    ................
    0x10072cf0:   00 00 00 00 00 00 00 00 00 00 00 00 00 00 00 00    ................
    0x10072d00:   00 00 00 00 00 00 00 00 00 00 00 00 00 00 00 00    ................
    0x10072d10:   00 00 00 00 00 00 00 00 00 00 00 00 00 00 00 00    ................
    0x10072d20:   00 00 00 00 00 00 00 00 00 00 00 00 00 00 00 00    ................
    0x10072d30:   00 00 00 00 00 00 00 00 00 00 00 00 00 00 00 00    ................
    0x10072d40:   00 00 00 00 00 00 00 00 00 00 00 00 00 00 00 00    ................
    0x10072d50:   00 00 00 00 00 00 00 00 00 00 00 00 00 00 00 00    ................
    0x10072d60:   00 00 00 00 00 00 00 00 00 00 00 00 00 00 00 00    ................
    0x10072d70:   00 00 00 00 00 00 00 00 00 00 00 00 00 00 00 00    ................
    0x10072d80:   00 00 00 00 00 00 00 00 00 00 00 00 00 00 00 00    ................
    0x10072d90:   00 00 00 00 00 00 00 00 00 00 00 00 00 00 00 00    ................
    0x10072da0:   00 00 00 00 00 00 00 00 00 00 00 00 00 00 00 00    ................
    0x10072db0:   00 00 00 00 00 00 00 00 00 00 00 00 00 00 00 00    ................
    0x10072dc0:   00 00 00 00 00 00 00 00 00 00 00 00 00 00 00 00    ................
    0x10072dd0:   00 00 00 00 00 00 00 00 00 00 00 00 00 00 00 00    ................
    0x10072de0:   00 00 00 00 00 00 00 00 00 00 00 00 00 00 00 00    ................
    0x10072df0:   00 00 00 00 00 00 00 00 00 00 00 00 00 00 00 00    ................
    0x10072e00:   00 00 00 00 00 00 00 00 00 00 00 00 00 00 00 00    ................
    0x10072e10:   00 00 00 00 00 00 00 00 00 00 00 00 00 00 00 00    ................
    0x10072e20:   00 00 00 00 00 00 00 00 00 00 00 00 00 00 00 00    ................
    0x10072e30:   00 00 00 00 00 00 00 00 00 00 00 00 00 00 00 00    ................
    0x10072e40:   00 00 00 00 00 00 00 00 00 00 00 00 00 00 00 00    ................
    0x10072e50:   00 00 00 00 00 00 00 00 00 00 00 00 00 00 00 00    ................
    0x10072e60:   00 00 00 00 00 00 00 00 00 00 00 00 00 00 00 00    ................
    0x10072e70:   00 00 00 00 00 00 00 00 00 00 00 00 00 00 00 00    ................
    0x10072e80:   00 00 00 00 00 00 00 00 00 00 00 00 00 00 00 00    ................
    0x10072e90:   00 00 00 00 00 00 00 00 00 00 00 00 00 00 00 00    ................
    0x10072ea0:   00 00 00 00 00 00 00 00 00 00 00 00 00 00 00 00    ................
    0x10072eb0:   00 00 00 00 00 00 00 00 00 00 00 00 00 00 00 00    ................
    0x10072ec0:   00 00 00 00 00 00 00 00 00 00 00 00 00 00 00 00    ................
    0x10072ed0:   00 00 00 00 00 00 00 00 00 00 00 00 00 00 00 00    ................
    0x10072ee0:   00 00 00 00 00 00 00 00 00 00 00 00 00 00 00 00    ................
    0x10072ef0:   00 00 00 00 00 00 00 00 00 00 00 00 00 00 00 00    ................
    0x10072f00:   00 00 00 00 00 00 00 00 00 00 00 00 00 00 00 00    ................
    0x10072f10:   00 00 00 00 00 00 00 00 00 00 00 00 00 00 00 00    ................
    0x10072f20:   00 00 00 00 00 00 00 00 00 00 00 00 00 00 00 00    ................
    0x10072f30:   00 00 00 00 00 00 00 00 00 00 00 00 00 00 00 00    ................
    0x10072f40:   00 00 00 00 00 00 00 00 00 00 00 00 00 00 00 00    ................
    0x10072f50:   00 00 00 00 00 00 00 00 00 00 00 00 00 00 00 00    ................
    0x10072f60:   00 00 00 00 00 00 00 00 00 00 00 00 00 00 00 00    ................
    0x10072f70:   00 00 00 00 00 00 00 00 00 00 00 00 00 00 00 00    ................
    0x10072f80:   00 00 00 00 00 00 00 00 00 00 00 00 00 00 00 00    ................
    0x10072f90:   00 00 00 00 00 00 00 00 00 00 00 00 00 00 00 00    ................
    0x10072fa0:   00 00 00 00 00 00 00 00 00 00 00 00 00 00 00 00    ................
    0x10072fb0:   00 00 00 00 00 00 00 00 00 00 00 00 00 00 00 00    ................
    0x10072fc0:   00 00 00 00 00 00 00 00 00 00 00 00 00 00 00 00    ................
    0x10072fd0:   00 00 00 00 00 00 00 00 00 00 00 00 00 00 00 00    ................
    0x10072fe0:   00 00 00 00 00 00 00 00 00 00 00 00 00 00 00 00    ................
    0x10072ff0:   00 00 00 00 00 00 00 00 00 00 00 00 00 00 00 00    ................
    0x10073000:   00 00 00 00 00 00 00 00 00 00 00 00 00 00 00 00    ................
    0x10073010:   00 00 00 00 00 00 00 00 00 00 00 00 00 00 00 00    ................
    0x10073020:   00 00 00 00 00 00 00 00 00 00 00 00 00 00 00 00    ................
    0x10073030:   00 00 00 00 00 00 00 00 00 00 00 00 00 00 00 00    ................
    0x10073040:   00 00 00 00 00 00 00 00 00 00 00 00 00 00 00 00    ................
    0x10073050:   00 00 00 00 00 00 00 00 00 00 00 00 00 00 00 00    ................
    0x10073060:   00 00 00 00 00 00 00 00 00 00 00 00 00 00 00 00    ................
    0x10073070:   00 00 00 00 00 00 00 00 00 00 00 00 00 00 00 00    ................
    0x10073080:   00 00 00 00 00 00 00 00 00 00 00 00 00 00 00 00    ................
    0x10073090:   00 00 00 00 00 00 00 00 00 00 00 00 00 00 00 00    ................
    0x100730a0:   00 00 00 00 00 00 00 00 00 00 00 00 00 00 00 00    ................
    0x100730b0:   00 00 00 00 00 00 00 00 00 00 00 00 00 00 00 00    ................
    0x100730c0:   00 00 00 00 00 00 00 00 00 00 00 00 00 00 00 00    ................
    0x100730d0:   00 00 00 00 00 00 00 00 00 00 00 00 00 00 00 00    ................
    0x100730e0:   00 00 00 00 00 00 00 00 00 00 00 00 00 00 00 00    ................
    0x100730f0:   00 00 00 00 00 00 00 00 00 00 00 00 00 00 00 00    ................
    0x10073100:   00 00 00 00 00 00 00 00 00 00 00 00 00 00 00 00    ................
    0x10073110:   00 00 00 00 00 00 00 00 00 00 00 00 00 00 00 00    ................
    0x10073120:   00 00 00 00 00 00 00 00 00 00 00 00 00 00 00 00    ................
    0x10073130:   00 00 00 00 00 00 00 00 00 00 00 00 00 00 00 00    ................
    0x10073140:   00 00 00 00 00 00 00 00 00 00 00 00 00 00 00 00    ................
    0x10073150:   00 00 00 00 00 00 00 00 00 00 00 00 00 00 00 00    ................
    0x10073160:   00 00 00 00 00 00 00 00 00 00 00 00 00 00 00 00    ................
    0x10073170:   00 00 00 00 00 00 00 00 00 00 00 00 00 00 00 00    ................
    0x10073180:   00 00 00 00 00 00 00 00 00 00 00 00 00 00 00 00    ................
    0x10073190:   00 00 00 00 00 00 00 00 00 00 00 00 00 00 00 00    ................
    0x100731a0:   00 00 00 00 00 00 00 00 00 00 00 00 00 00 00 00    ................
    0x100731b0:   00 00 00 00 00 00 00 00 00 00 00 00 00 00 00 00    ................
    0x100731c0:   00 00 00 00 00 00 00 00 00 00 00 00 00 00 00 00    ................
    0x100731d0:   00 00 00 00 00 00 00 00 00 00 00 00 00 00 00 00    ................
    0x100731e0:   00 00 00 00 00 00 00 00 00 00 00 00 00 00 00 00    ................
    0x100731f0:   00 00 00 00 00 00 00 00 00 00 00 00 00 00 00 00    ................
    0x10073200:   00 00 00 00 00 00 00 00 00 00 00 00 00 00 00 00    ................
    0x10073210:   00 00 00 00 00 00 00 00 00 00 00 00 00 00 00 00    ................
    0x10073220:   00 00 00 00 00 00 00 00 00 00 00 00 00 00 00 00    ................
    0x10073230:   00 00 00 00 00 00 00 00 00 00 00 00 00 00 00 00    ................
    0x10073240:   00 00 00 00 00 00 00 00 00 00 00 00 00 00 00 00    ................
    0x10073250:   00 00 00 00 00 00 00 00 00 00 00 00 00 00 00 00    ................
    0x10073260:   00 00 00 00 00 00 00 00 00 00 00 00 00 00 00 00    ................
    0x10073270:   00 00 00 00 00 00 00 00 00 00 00 00 00 00 00 00    ................
    0x10073280:   00 00 00 00 00 00 00 00 00 00 00 00 00 00 00 00    ................
    0x10073290:   00 00 00 00 00 00 00 00 00 00 00 00 00 00 00 00    ................
    0x100732a0:   00 00 00 00 00 00 00 00 00 00 00 00 00 00 00 00    ................
    0x100732b0:   00 00 00 00 00 00 00 00 00 00 00 00 00 00 00 00    ................
    0x100732c0:   00 00 00 00 00 00 00 00 00 00 00 00 00 00 00 00    ................
    0x100732d0:   00 00 00 00 00 00 00 00 00 00 00 00 00 00 00 00    ................
    0x100732e0:   00 00 00 00 00 00 00 00 00 00 00 00 00 00 00 00    ................
    0x100732f0:   00 00 00 00 00 00 00 00 00 00 00 00 00 00 00 00    ................
    0x10073300:   00 00 00 00 00 00 00 00 00 00 00 00 00 00 00 00    ................
    0x10073310:   00 00 00 00 00 00 00 00 00 00 00 00 00 00 00 00    ................
    0x10073320:   00 00 00 00 00 00 00 00 00 00 00 00 00 00 00 00    ................
    0x10073330:   00 00 00 00 00 00 00 00 00 00 00 00 00 00 00 00    ................
    0x10073340:   00 00 00 00 00 00 00 00 00 00 00 00 00 00 00 00    ................
    0x10073350:   00 00 00 00 00 00 00 00 00 00 00 00 00 00 00 00    ................
    0x10073360:   00 00 00 00 00 00 00 00 00 00 00 00 00 00 00 00    ................
    0x10073370:   00 00 00 00 00 00 00 00 00 00 00 00 00 00 00 00    ................
    0x10073380:   00 00 00 00 00 00 00 00 00 00 00 00 00 00 00 00    ................
    0x10073390:   00 00 00 00 00 00 00 00 00 00 00 00 00 00 00 00    ................
    0x100733a0:   00 00 00 00 00 00 00 00 00 00 00 00 00 00 00 00    ................
    0x100733b0:   00 00 00 00 00 00 00 00 00 00 00 00 00 00 00 00    ................
    0x100733c0:   00 00 00 00 00 00 00 00 00 00 00 00 00 00 00 00    ................
    0x100733d0:   00 00 00 00 00 00 00 00 00 00 00 00 00 00 00 00    ................
    0x100733e0:   00 00 00 00 00 00 00 00 00 00 00 00 00 00 00 00    ................
    0x100733f0:   00 00 00 00 00 00 00 00 00 00 00 00 00 00 00 00    ................
    0x10073400:   00 00 00 00 00 00 00 00 00 00 00 00 00 00 00 00    ................
    0x10073410:   00 00 00 00 00 00 00 00 00 00 00 00 00 00 00 00    ................
    0x10073420:   00 00 00 00 00 00 00 00 00 00 00 00 00 00 00 00    ................
    0x10073430:   00 00 00 00 00 00 00 00 00 00 00 00 00 00 00 00    ................
    0x10073440:   00 00 00 00 00 00 00 00 00 00 00 00 00 00 00 00    ................
    0x10073450:   00 00 00 00 00 00 00 00 00 00 00 00 00 00 00 00    ................
    0x10073460:   00 00 00 00 00 00 00 00 00 00 00 00 00 00 00 00    ................
    0x10073470:   00 00 00 00 00 00 00 00 00 00 00 00 00 00 00 00    ................
    0x10073480:   00 00 00 00 00 00 00 00 00 00 00 00 00 00 00 00    ................
    0x10073490:   00 00 00 00 00 00 00 00 00 00 00 00 00 00 00 00    ................
    0x100734a0:   00 00 00 00 00 00 00 00 00 00 00 00 00 00 00 00    ................
    0x100734b0:   00 00 00 00 00 00 00 00 00 00 00 00 00 00 00 00    ................
    0x100734c0:   00 00 00 00 00 00 00 00 00 00 00 00 00 00 00 00    ................
    0x100734d0:   00 00 00 00 00 00 00 00 00 00 00 00 00 00 00 00    ................
    0x100734e0:   00 00 00 00 00 00 00 00 00 00 00 00 00 00 00 00    ................
    0x100734f0:   00 00 00 00 00 00 00 00 00 00 00 00 00 00 00 00    ................
    0x10073500:   00 00 00 00 00 00 00 00 00 00 00 00 00 00 00 00    ................
    0x10073510:   00 00 00 00 00 00 00 00 00 00 00 00 00 00 00 00    ................
    0x10073520:   00 00 00 00 00 00 00 00 00 00 00 00 00 00 00 00    ................
    0x10073530:   00 00 00 00 00 00 00 00 00 00 00 00 00 00 00 00    ................
    0x10073540:   00 00 00 00 00 00 00 00 00 00 00 00 00 00 00 00    ................
    0x10073550:   00 00 00 00 00 00 00 00 00 00 00 00 00 00 00 00    ................
    0x10073560:   00 00 00 00 00 00 00 00 00 00 00 00 00 00 00 00    ................
    0x10073570:   00 00 00 00 00 00 00 00 00 00 00 00 00 00 00 00    ................
    0x10073580:   00 00 00 00 00 00 00 00 00 00 00 00 00 00 00 00    ................
    0x10073590:   00 00 00 00 00 00 00 00 00 00 00 00 00 00 00 00    ................
    0x100735a0:   00 00 00 00 00 00 00 00 00 00 00 00 00 00 00 00    ................
    0x100735b0:   00 00 00 00 00 00 00 00 00 00 00 00 00 00 00 00    ................
    0x100735c0:   00 00 00 00 00 00 00 00 00 00 00 00 00 00 00 00    ................
    0x100735d0:   00 00 00 00 00 00 00 00 00 00 00 00 00 00 00 00    ................
    0x100735e0:   00 00 00 00 00 00 00 00 00 00 00 00 00 00 00 00    ................
    0x100735f0:   00 00 00 00 00 00 00 00 00 00 00 00 00 00 00 00    ................
    0x10073600:   00 00 00 00 00 00 00 00 00 00 00 00 00 00 00 00    ................
    0x10073610:   00 00 00 00 00 00 00 00 00 00 00 00 00 00 00 00    ................
    0x10073620:   00 00 00 00 00 00 00 00 00 00 00 00 00 00 00 00    ................
    0x10073630:   00 00 00 00 00 00 00 00 00 00 00 00 00 00 00 00    ................
    0x10073640:   00 00 00 00 00 00 00 00 00 00 00 00 00 00 00 00    ................
    0x10073650:   00 00 00 00 00 00 00 00 00 00 00 00 00 00 00 00    ................
    0x10073660:   00 00 00 00 00 00 00 00 00 00 00 00 00 00 00 00    ................
    0x10073670:   00 00 00 00 00 00 00 00 00 00 00 00 00 00 00 00    ................
    0x10073680:   00 00 00 00 00 00 00 00 00 00 00 00 00 00 00 00    ................
    0x10073690:   00 00 00 00 00 00 00 00 00 00 00 00 00 00 00 00    ................
    0x100736a0:   00 00 00 00 00 00 00 00 00 00 00 00 00 00 00 00    ................
    0x100736b0:   00 00 00 00 00 00 00 00 00 00 00 00 00 00 00 00    ................
    0x100736c0:   00 00 00 00 00 00 00 00 00 00 00 00 00 00 00 00    ................
    0x100736d0:   00 00 00 00 00 00 00 00 00 00 00 00 00 00 00 00    ................
    0x100736e0:   00 00 00 00 00 00 00 00 00 00 00 00 00 00 00 00    ................
    0x100736f0:   00 00 00 00 00 00 00 00 00 00 00 00 00 00 00 00    ................
    0x10073700:   00 00 00 00 00 00 00 00 00 00 00 00 00 00 00 00    ................
    0x10073710:   00 00 00 00 00 00 00 00 00 00 00 00 00 00 00 00    ................
    0x10073720:   00 00 00 00 00 00 00 00 00 00 00 00 00 00 00 00    ................
    0x10073730:   00 00 00 00 00 00 00 00 00 00 00 00 00 00 00 00    ................
    0x10073740:   00 00 00 00 00 00 00 00 00 00 00 00 00 00 00 00    ................
    0x10073750:   00 00 00 00 00 00 00 00 00 00 00 00 00 00 00 00    ................
    0x10073760:   00 00 00 00 00 00 00 00 00 00 00 00 00 00 00 00    ................
    0x10073770:   00 00 00 00 00 00 00 00 00 00 00 00 00 00 00 00    ................
    0x10073780:   00 00 00 00 00 00 00 00 00 00 00 00 00 00 00 00    ................
    0x10073790:   00 00 00 00 00 00 00 00 00 00 00 00 00 00 00 00    ................
    0x100737a0:   00 00 00 00 00 00 00 00 00 00 00 00 00 00 00 00    ................
    0x100737b0:   00 00 00 00 00 00 00 00 00 00 00 00 00 00 00 00    ................
    0x100737c0:   00 00 00 00 00 00 00 00 00 00 00 00 00 00 00 00    ................
    0x100737d0:   00 00 00 00 00 00 00 00 00 00 00 00 00 00 00 00    ................
    0x100737e0:   00 00 00 00 00 00 00 00 00 00 00 00 00 00 00 00    ................
    0x100737f0:   00 00 00 00 00 00 00 00 00 00 00 00 00 00 00 00    ................
    0x10073800:   00 00 00 00 00 00 00 00 00 00 00 00 00 00 00 00    ................
    0x10073810:   00 00 00 00 00 00 00 00 00 00 00 00 00 00 00 00    ................
    0x10073820:   00 00 00 00 00 00 00 00 00 00 00 00 00 00 00 00    ................
    0x10073830:   00 00 00 00 00 00 00 00 00 00 00 00 00 00 00 00    ................
    0x10073840:   00 00 00 00 00 00 00 00 00 00 00 00 00 00 00 00    ................
    0x10073850:   00 00 00 00 00 00 00 00 00 00 00 00 00 00 00 00    ................
    0x10073860:   00 00 00 00 00 00 00 00 00 00 00 00 00 00 00 00    ................
    0x10073870:   00 00 00 00 00 00 00 00 00 00 00 00 00 00 00 00    ................
    0x10073880:   00 00 00 00 00 00 00 00 00 00 00 00 00 00 00 00    ................
    0x10073890:   00 00 00 00 00 00 00 00 00 00 00 00 00 00 00 00    ................
    0x100738a0:   00 00 00 00 00 00 00 00 00 00 00 00 00 00 00 00    ................
    0x100738b0:   00 00 00 00 00 00 00 00 00 00 00 00 00 00 00 00    ................
    0x100738c0:   00 00 00 00 00 00 00 00 00 00 00 00 00 00 00 00    ................
    0x100738d0:   00 00 00 00 00 00 00 00 00 00 00 00 00 00 00 00    ................
    0x100738e0:   00 00 00 00 00 00 00 00 00 00 00 00 00 00 00 00    ................
    0x100738f0:   00 00 00 00 00 00 00 00 00 00 00 00 00 00 00 00    ................
    0x10073900:   00 00 00 00 00 00 00 00 00 00 00 00 00 00 00 00    ................
    0x10073910:   00 00 00 00 00 00 00 00 00 00 00 00 00 00 00 00    ................
    0x10073920:   00 00 00 00 00 00 00 00 00 00 00 00 00 00 00 00    ................
    0x10073930:   00 00 00 00 00 00 00 00 00 00 00 00 00 00 00 00    ................
    0x10073940:   00 00 00 00 00 00 00 00 00 00 00 00 00 00 00 00    ................
    0x10073950:   00 00 00 00 00 00 00 00 00 00 00 00 00 00 00 00    ................
    0x10073960:   00 00 00 00 00 00 00 00 00 00 00 00 00 00 00 00    ................
    0x10073970:   00 00 00 00 00 00 00 00 00 00 00 00 00 00 00 00    ................
    0x10073980:   00 00 00 00 00 00 00 00 00 00 00 00 00 00 00 00    ................
    0x10073990:   00 00 00 00 00 00 00 00 00 00 00 00 00 00 00 00    ................
    0x100739a0:   00 00 00 00 00 00 00 00 00 00 00 00 00 00 00 00    ................
    0x100739b0:   00 00 00 00 00 00 00 00 00 00 00 00 00 00 00 00    ................
    0x100739c0:   00 00 00 00 00 00 00 00 00 00 00 00 00 00 00 00    ................
    0x100739d0:   00 00 00 00 00 00 00 00 00 00 00 00 00 00 00 00    ................
    0x100739e0:   00 00 00 00 00 00 00 00 00 00 00 00 00 00 00 00    ................
    0x100739f0:   00 00 00 00 00 00 00 00 00 00 00 00 00 00 00 00    ................
    0x10073a00:   00 00 00 00 00 00 00 00 00 00 00 00 00 00 00 00    ................
    0x10073a10:   00 00 00 00 00 00 00 00 00 00 00 00 00 00 00 00    ................
    0x10073a20:   00 00 00 00 00 00 00 00 00 00 00 00 00 00 00 00    ................
    0x10073a30:   00 00 00 00 00 00 00 00 00 00 00 00 00 00 00 00    ................
    0x10073a40:   00 00 00 00 00 00 00 00 00 00 00 00 00 00 00 00    ................
    0x10073a50:   00 00 00 00 00 00 00 00 00 00 00 00 00 00 00 00    ................
    0x10073a60:   00 00 00 00 00 00 00 00 00 00 00 00 00 00 00 00    ................
    0x10073a70:   00 00 00 00 00 00 00 00 00 00 00 00 00 00 00 00    ................
    0x10073a80:   00 00 00 00 00 00 00 00 00 00 00 00 00 00 00 00    ................
    0x10073a90:   00 00 00 00 00 00 00 00 00 00 00 00 00 00 00 00    ................
    0x10073aa0:   00 00 00 00 00 00 00 00 00 00 00 00 00 00 00 00    ................
    0x10073ab0:   00 00 00 00 00 00 00 00 00 00 00 00 00 00 00 00    ................
    0x10073ac0:   00 00 00 00 00 00 00 00 00 00 00 00 00 00 00 00    ................
    0x10073ad0:   00 00 00 00 00 00 00 00 00 00 00 00 00 00 00 00    ................
    0x10073ae0:   00 00 00 00 00 00 00 00 00 00 00 00 00 00 00 00    ................
    0x10073af0:   00 00 00 00 00 00 00 00 00 00 00 00 00 00 00 00    ................
    0x10073b00:   00 00 00 00 00 00 00 00 00 00 00 00 00 00 00 00    ................
    0x10073b10:   00 00 00 00 00 00 00 00 00 00 00 00 00 00 00 00    ................
    0x10073b20:   00 00 00 00 00 00 00 00 00 00 00 00 00 00 00 00    ................
    0x10073b30:   00 00 00 00 00 00 00 00 00 00 00 00 00 00 00 00    ................
    0x10073b40:   00 00 00 00 00 00 00 00 00 00 00 00 00 00 00 00    ................
    0x10073b50:   00 00 00 00 00 00 00 00 00 00 00 00 00 00 00 00    ................
    0x10073b60:   00 00 00 00 00 00 00 00 00 00 00 00 00 00 00 00    ................
    0x10073b70:   00 00 00 00 00 00 00 00 00 00 00 00 00 00 00 00    ................
    0x10073b80:   00 00 00 00 00 00 00 00 00 00 00 00 00 00 00 00    ................
    0x10073b90:   00 00 00 00 00 00 00 00 00 00 00 00 00 00 00 00    ................
    0x10073ba0:   00 00 00 00 00 00 00 00 00 00 00 00 00 00 00 00    ................
    0x10073bb0:   00 00 00 00 00 00 00 00 00 00 00 00 00 00 00 00    ................
    0x10073bc0:   00 00 00 00 00 00 00 00 00 00 00 00 00 00 00 00    ................
    0x10073bd0:   00 00 00 00 00 00 00 00 00 00 00 00 00 00 00 00    ................
    0x10073be0:   00 00 00 00 00 00 00 00 00 00 00 00 00 00 00 00    ................
    0x10073bf0:   00 00 00 00 00 00 00 00 00 00 00 00 00 00 00 00    ................
    0x10073c00:   00 00 00 00 00 00 00 00 00 00 00 00 00 00 00 00    ................
    0x10073c10:   00 00 00 00 00 00 00 00 00 00 00 00 00 00 00 00    ................
    0x10073c20:   00 00 00 00 00 00 00 00 00 00 00 00 00 00 00 00    ................
    0x10073c30:   00 00 00 00 00 00 00 00 00 00 00 00 00 00 00 00    ................
    0x10073c40:   00 00 00 00 00 00 00 00 00 00 00 00 00 00 00 00    ................
    0x10073c50:   00 00 00 00 00 00 00 00 00 00 00 00 00 00 00 00    ................
    0x10073c60:   00 00 00 00 00 00 00 00 00 00 00 00 00 00 00 00    ................
    0x10073c70:   00 00 00 00 00 00 00 00 00 00 00 00 00 00 00 00    ................
    0x10073c80:   00 00 00 00 00 00 00 00 00 00 00 00 00 00 00 00    ................
    0x10073c90:   00 00 00 00 00 00 00 00 00 00 00 00 00 00 00 00    ................
    0x10073ca0:   00 00 00 00 00 00 00 00 00 00 00 00 00 00 00 00    ................
    0x10073cb0:   00 00 00 00 00 00 00 00 00 00 00 00 00 00 00 00    ................
    0x10073cc0:   00 00 00 00 00 00 00 00 00 00 00 00 00 00 00 00    ................
    0x10073cd0:   00 00 00 00 00 00 00 00 00 00 00 00 00 00 00 00    ................
    0x10073ce0:   00 00 00 00 00 00 00 00 00 00 00 00 00 00 00 00    ................
    0x10073cf0:   00 00 00 00 00 00 00 00 00 00 00 00 00 00 00 00    ................
    0x10073d00:   00 00 00 00 00 00 00 00 00 00 00 00 00 00 00 00    ................
    0x10073d10:   00 00 00 00 00 00 00 00 00 00 00 00 00 00 00 00    ................
    0x10073d20:   00 00 00 00 00 00 00 00 00 00 00 00 00 00 00 00    ................
    0x10073d30:   00 00 00 00 00 00 00 00 00 00 00 00 00 00 00 00    ................
    0x10073d40:   00 00 00 00 00 00 00 00 00 00 00 00 00 00 00 00    ................
    0x10073d50:   00 00 00 00 00 00 00 00 00 00 00 00 00 00 00 00    ................
    0x10073d60:   00 00 00 00 00 00 00 00 00 00 00 00 00 00 00 00    ................
    0x10073d70:   00 00 00 00 00 00 00 00 00 00 00 00 00 00 00 00    ................
    0x10073d80:   00 00 00 00 00 00 00 00 00 00 00 00 00 00 00 00    ................
    0x10073d90:   00 00 00 00 00 00 00 00 00 00 00 00 00 00 00 00    ................
    0x10073da0:   00 00 00 00 00 00 00 00 00 00 00 00 00 00 00 00    ................
    0x10073db0:   00 00 00 00 00 00 00 00 00 00 00 00 00 00 00 00    ................
    0x10073dc0:   00 00 00 00 00 00 00 00 00 00 00 00 00 00 00 00    ................
    0x10073dd0:   00 00 00 00 00 00 00 00 00 00 00 00 00 00 00 00    ................
    0x10073de0:   00 00 00 00 00 00 00 00 00 00 00 00 00 00 00 00    ................
    0x10073df0:   00 00 00 00 00 00 00 00 00 00 00 00 00 00 00 00    ................
    0x10073e00:   00 00 00 00 00 00 00 00 00 00 00 00 00 00 00 00    ................
    0x10073e10:   00 00 00 00 00 00 00 00 00 00 00 00 00 00 00 00    ................
    0x10073e20:   00 00 00 00 00 00 00 00 00 00 00 00 00 00 00 00    ................
    0x10073e30:   00 00 00 00 00 00 00 00 00 00 00 00 00 00 00 00    ................
    0x10073e40:   00 00 00 00 00 00 00 00 00 00 00 00 00 00 00 00    ................
    0x10073e50:   00 00 00 00 00 00 00 00 00 00 00 00 00 00 00 00    ................
    0x10073e60:   00 00 00 00 00 00 00 00 00 00 00 00 00 00 00 00    ................
    0x10073e70:   00 00 00 00 00 00 00 00 00 00 00 00 00 00 00 00    ................
    0x10073e80:   00 00 00 00 00 00 00 00 00 00 00 00 00 00 00 00    ................
    0x10073e90:   00 00 00 00 00 00 00 00 00 00 00 00 00 00 00 00    ................
    0x10073ea0:   00 00 00 00 00 00 00 00 00 00 00 00 00 00 00 00    ................
    0x10073eb0:   00 00 00 00 00 00 00 00 00 00 00 00 00 00 00 00    ................
    0x10073ec0:   00 00 00 00 00 00 00 00 00 00 00 00 00 00 00 00    ................
    0x10073ed0:   00 00 00 00 00 00 00 00 00 00 00 00 00 00 00 00    ................
    0x10073ee0:   00 00 00 00 00 00 00 00 00 00 00 00 00 00 00 00    ................
    0x10073ef0:   00 00 00 00 00 00 00 00 00 00 00 00 00 00 00 00    ................
    0x10073f00:   00 00 00 00 00 00 00 00 00 00 00 00 00 00 00 00    ................
    0x10073f10:   00 00 00 00 00 00 00 00 00 00 00 00 00 00 00 00    ................
    0x10073f20:   00 00 00 00 00 00 00 00 00 00 00 00 00 00 00 00    ................
    0x10073f30:   00 00 00 00 00 00 00 00 00 00 00 00 00 00 00 00    ................
    0x10073f40:   00 00 00 00 00 00 00 00 00 00 00 00 00 00 00 00    ................
    0x10073f50:   00 00 00 00 00 00 00 00 00 00 00 00 00 00 00 00    ................
    0x10073f60:   00 00 00 00 00 00 00 00 00 00 00 00 00 00 00 00    ................
    0x10073f70:   00 00 00 00 00 00 00 00 00 00 00 00 00 00 00 00    ................
    0x10073f80:   00 00 00 00 00 00 00 00 00 00 00 00 00 00 00 00    ................
    0x10073f90:   00 00 00 00 00 00 00 00 00 00 00 00 00 00 00 00    ................
    0x10073fa0:   00 00 00 00 00 00 00 00 00 00 00 00 00 00 00 00    ................
    0x10073fb0:   00 00 00 00 00 00 00 00 00 00 00 00 00 00 00 00    ................
    0x10073fc0:   00 00 00 00 00 00 00 00 00 00 00 00 00 00 00 00    ................
    0x10073fd0:   00 00 00 00 00 00 00 00 00 00 00 00 00 00 00 00    ................
    0x10073fe0:   00 00 00 00 00 00 00 00 00 00 00 00 00 00 00 00    ................
    0x10073ff0:   00 00 00 00 00 00 00 00 00 00 00 00 00 00 00 00    ................
    0x10074000:   00 00 00 00 00 00 00 00 00 00 00 00 00 00 00 00    ................
    0x10074010:   00 00 00 00 00 00 00 00 00 00 00 00 00 00 00 00    ................
    0x10074020:   00 00 00 00 00 00 00 00 00 00 00 00 00 00 00 00    ................
    0x10074030:   00 00 00 00 00 00 00 00 00 00 00 00 00 00 00 00    ................
    0x10074040:   00 00 00 00 00 00 00 00 00 00 00 00 00 00 00 00    ................
    0x10074050:   00 00 00 00 00 00 00 00 00 00 00 00 00 00 00 00    ................
    0x10074060:   00 00 00 00 00 00 00 00 00 00 00 00 00 00 00 00    ................
    0x10074070:   00 00 00 00 00 00 00 00 00 00 00 00 00 00 00 00    ................
    0x10074080:   00 00 00 00 00 00 00 00 00 00 00 00 00 00 00 00    ................
    0x10074090:   00 00 00 00 00 00 00 00 00 00 00 00 00 00 00 00    ................
    0x100740a0:   00 00 00 00 00 00 00 00 00 00 00 00 00 00 00 00    ................
    0x100740b0:   00 00 00 00 00 00 00 00 00 00 00 00 00 00 00 00    ................
    0x100740c0:   00 00 00 00 00 00 00 00 00 00 00 00 00 00 00 00    ................
    0x100740d0:   00 00 00 00 00 00 00 00 00 00 00 00 00 00 00 00    ................
    0x100740e0:   00 00 00 00 00 00 00 00 00 00 00 00 00 00 00 00    ................
    0x100740f0:   00 00 00 00 00 00 00 00 00 00 00 00 00 00 00 00    ................
    0x10074100:   00 00 00 00 00 00 00 00 00 00 00 00 00 00 00 00    ................
    0x10074110:   00 00 00 00 00 00 00 00 00 00 00 00 00 00 00 00    ................
    0x10074120:   00 00 00 00 00 00 00 00 00 00 00 00 00 00 00 00    ................
    0x10074130:   00 00 00 00 00 00 00 00 00 00 00 00 00 00 00 00    ................
    0x10074140:   00 00 00 00 00 00 00 00 00 00 00 00 00 00 00 00    ................
    0x10074150:   00 00 00 00 00 00 00 00 00 00 00 00 00 00 00 00    ................
    0x10074160:   00 00 00 00 00 00 00 00 00 00 00 00 00 00 00 00    ................
    0x10074170:   00 00 00 00 00 00 00 00 00 00 00 00 00 00 00 00    ................
    0x10074180:   00 00 00 00 00 00 00 00 00 00 00 00 00 00 00 00    ................
    0x10074190:   00 00 00 00 00 00 00 00 00 00 00 00 00 00 00 00    ................
    0x100741a0:   00 00 00 00 00 00 00 00 00 00 00 00 00 00 00 00    ................
    0x100741b0:   00 00 00 00 00 00 00 00 00 00 00 00 00 00 00 00    ................
    0x100741c0:   00 00 00 00 00 00 00 00 00 00 00 00 00 00 00 00    ................
    0x100741d0:   00 00 00 00 00 00 00 00 00 00 00 00 00 00 00 00    ................
    0x100741e0:   00 00 00 00 00 00 00 00 00 00 00 00 00 00 00 00    ................
    0x100741f0:   00 00 00 00 00 00 00 00 00 00 00 00 00 00 00 00    ................
    0x10074200:   00 00 00 00 00 00 00 00 00 00 00 00 00 00 00 00    ................
    0x10074210:   00 00 00 00 00 00 00 00 00 00 00 00 00 00 00 00    ................
    0x10074220:   00 00 00 00 00 00 00 00 00 00 00 00 00 00 00 00    ................
    0x10074230:   00 00 00 00 00 00 00 00 00 00 00 00 00 00 00 00    ................
    0x10074240:   00 00 00 00 00 00 00 00 00 00 00 00 00 00 00 00    ................
    0x10074250:   00 00 00 00 00 00 00 00 00 00 00 00 00 00 00 00    ................
    0x10074260:   00 00 00 00 00 00 00 00 00 00 00 00 00 00 00 00    ................
    0x10074270:   00 00 00 00 00 00 00 00 00 00 00 00 00 00 00 00    ................
    0x10074280:   00 00 00 00 00 00 00 00 00 00 00 00 00 00 00 00    ................
    0x10074290:   00 00 00 00 00 00 00 00 00 00 00 00 00 00 00 00    ................
    0x100742a0:   00 00 00 00 00 00 00 00 00 00 00 00 00 00 00 00    ................
    0x100742b0:   00 00 00 00 00 00 00 00 00 00 00 00 00 00 00 00    ................
    0x100742c0:   00 00 00 00 00 00 00 00 00 00 00 00 00 00 00 00    ................
    0x100742d0:   00 00 00 00 00 00 00 00 00 00 00 00 00 00 00 00    ................
    0x100742e0:   00 00 00 00 00 00 00 00 00 00 00 00 00 00 00 00    ................
    0x100742f0:   00 00 00 00 00 00 00 00 00 00 00 00 00 00 00 00    ................
    0x10074300:   00 00 00 00 00 00 00 00 00 00 00 00 00 00 00 00    ................
    0x10074310:   00 00 00 00 00 00 00 00 00 00 00 00 00 00 00 00    ................
    0x10074320:   00 00 00 00 00 00 00 00 00 00 00 00 00 00 00 00    ................
    0x10074330:   00 00 00 00 00 00 00 00 00 00 00 00 00 00 00 00    ................
    0x10074340:   00 00 00 00 00 00 00 00 00 00 00 00 00 00 00 00    ................
    0x10074350:   00 00 00 00 00 00 00 00 00 00 00 00 00 00 00 00    ................
    0x10074360:   00 00 00 00 00 00 00 00 00 00 00 00 00 00 00 00    ................
    0x10074370:   00 00 00 00 00 00 00 00 00 00 00 00 00 00 00 00    ................
    0x10074380:   00 00 00 00 00 00 00 00 00 00 00 00 00 00 00 00    ................
    0x10074390:   00 00 00 00 00 00 00 00 00 00 00 00 00 00 00 00    ................
    0x100743a0:   00 00 00 00 00 00 00 00 00 00 00 00 00 00 00 00    ................
    0x100743b0:   00 00 00 00 00 00 00 00 00 00 00 00 00 00 00 00    ................
    0x100743c0:   00 00 00 00 00 00 00 00 00 00 00 00 00 00 00 00    ................
    0x100743d0:   00 00 00 00 00 00 00 00 00 00 00 00 00 00 00 00    ................
    0x100743e0:   00 00 00 00 00 00 00 00 00 00 00 00 00 00 00 00    ................
    0x100743f0:   00 00 00 00 00 00 00 00 00 00 00 00 00 00 00 00    ................
    0x10074400:   00 00 00 00 00 00 00 00 00 00 00 00 00 00 00 00    ................
    0x10074410:   00 00 00 00 00 00 00 00 00 00 00 00 00 00 00 00    ................
    0x10074420:   00 00 00 00 00 00 00 00 00 00 00 00 00 00 00 00    ................
    0x10074430:   00 00 00 00 00 00 00 00 00 00 00 00 00 00 00 00    ................
    0x10074440:   00 00 00 00 00 00 00 00 00 00 00 00 00 00 00 00    ................
    0x10074450:   00 00 00 00 00 00 00 00 00 00 00 00 00 00 00 00    ................
    0x10074460:   00 00 00 00 00 00 00 00 00 00 00 00 00 00 00 00    ................
    0x10074470:   00 00 00 00 00 00 00 00 00 00 00 00 00 00 00 00    ................
    0x10074480:   00 00 00 00 00 00 00 00 00 00 00 00 00 00 00 00    ................
    0x10074490:   00 00 00 00 00 00 00 00 00 00 00 00 00 00 00 00    ................
    0x100744a0:   00 00 00 00 00 00 00 00 00 00 00 00 00 00 00 00    ................
    0x100744b0:   00 00 00 00 00 00 00 00 00 00 00 00 00 00 00 00    ................
    0x100744c0:   00 00 00 00 00 00 00 00 00 00 00 00 00 00 00 00    ................
    0x100744d0:   00 00 00 00 00 00 00 00 00 00 00 00 00 00 00 00    ................
    0x100744e0:   00 00 00 00 00 00 00 00 00 00 00 00 00 00 00 00    ................
    0x100744f0:   00 00 00 00 00 00 00 00 00 00 00 00 00 00 00 00    ................
    0x10074500:   00 00 00 00 00 00 00 00 00 00 00 00 00 00 00 00    ................
    0x10074510:   00 00 00 00 00 00 00 00 00 00 00 00 00 00 00 00    ................
    0x10074520:   00 00 00 00 00 00 00 00 00 00 00 00 00 00 00 00    ................
    0x10074530:   00 00 00 00 00 00 00 00 00 00 00 00 00 00 00 00    ................
    0x10074540:   00 00 00 00 00 00 00 00 00 00 00 00 00 00 00 00    ................
    0x10074550:   00 00 00 00 00 00 00 00 00 00 00 00 00 00 00 00    ................
    0x10074560:   00 00 00 00 00 00 00 00 00 00 00 00 00 00 00 00    ................
    0x10074570:   00 00 00 00 00 00 00 00 00 00 00 00 00 00 00 00    ................
    0x10074580:   00 00 00 00 00 00 00 00 00 00 00 00 00 00 00 00    ................
    0x10074590:   00 00 00 00 00 00 00 00 00 00 00 00 00 00 00 00    ................
    0x100745a0:   00 00 00 00 00 00 00 00 00 00 00 00 00 00 00 00    ................
    0x100745b0:   00 00 00 00 00 00 00 00 00 00 00 00 00 00 00 00    ................
    0x100745c0:   00 00 00 00 00 00 00 00 00 00 00 00 00 00 00 00    ................
    0x100745d0:   00 00 00 00 00 00 00 00 00 00 00 00 00 00 00 00    ................
    0x100745e0:   00 00 00 00 00 00 00 00 00 00 00 00 00 00 00 00    ................
    0x100745f0:   00 00 00 00 00 00 00 00 00 00 00 00 00 00 00 00    ................
    0x10074600:   00 00 00 00 00 00 00 00 00 00 00 00 00 00 00 00    ................
    0x10074610:   00 00 00 00 00 00 00 00 00 00 00 00 00 00 00 00    ................
    0x10074620:   00 00 00 00 00 00 00 00 00 00 00 00 00 00 00 00    ................
    0x10074630:   00 00 00 00 00 00 00 00 00 00 00 00 00 00 00 00    ................
    0x10074640:   00 00 00 00 00 00 00 00 00 00 00 00 00 00 00 00    ................
    0x10074650:   00 00 00 00 00 00 00 00 00 00 00 00 00 00 00 00    ................
    0x10074660:   00 00 00 00 00 00 00 00 00 00 00 00 00 00 00 00    ................
    0x10074670:   00 00 00 00 00 00 00 00 00 00 00 00 00 00 00 00    ................
    0x10074680:   00 00 00 00 00 00 00 00 00 00 00 00 00 00 00 00    ................
    0x10074690:   00 00 00 00 00 00 00 00 00 00 00 00 00 00 00 00    ................
    0x100746a0:   00 00 00 00 00 00 00 00 00 00 00 00 00 00 00 00    ................
    0x100746b0:   00 00 00 00 00 00 00 00 00 00 00 00 00 00 00 00    ................
    0x100746c0:   00 00 00 00 00 00 00 00 00 00 00 00 00 00 00 00    ................
    0x100746d0:   00 00 00 00 00 00 00 00 00 00 00 00 00 00 00 00    ................
    0x100746e0:   00 00 00 00 00 00 00 00 00 00 00 00 00 00 00 00    ................
    0x100746f0:   00 00 00 00 00 00 00 00 00 00 00 00 00 00 00 00    ................
    0x10074700:   00 00 00 00 00 00 00 00 00 00 00 00 00 00 00 00    ................
    0x10074710:   00 00 00 00 00 00 00 00 00 00 00 00 00 00 00 00    ................
    0x10074720:   00 00 00 00 00 00 00 00 00 00 00 00 00 00 00 00    ................
    0x10074730:   00 00 00 00 00 00 00 00 00 00 00 00 00 00 00 00    ................
    0x10074740:   00 00 00 00 00 00 00 00 00 00 00 00 00 00 00 00    ................
    0x10074750:   00 00 00 00 00 00 00 00 00 00 00 00 00 00 00 00    ................
    0x10074760:   00 00 00 00 00 00 00 00 00 00 00 00 00 00 00 00    ................
    0x10074770:   00 00 00 00 00 00 00 00 00 00 00 00 00 00 00 00    ................
    0x10074780:   00 00 00 00 00 00 00 00 00 00 00 00 00 00 00 00    ................
    0x10074790:   00 00 00 00 00 00 00 00 00 00 00 00 00 00 00 00    ................
    0x100747a0:   00 00 00 00 00 00 00 00 00 00 00 00 00 00 00 00    ................
    0x100747b0:   00 00 00 00 00 00 00 00 00 00 00 00 00 00 00 00    ................
    0x100747c0:   00 00 00 00 00 00 00 00 00 00 00 00 00 00 00 00    ................
    0x100747d0:   00 00 00 00 00 00 00 00 00 00 00 00 00 00 00 00    ................
    0x100747e0:   00 00 00 00 00 00 00 00 00 00 00 00 00 00 00 00    ................
    0x100747f0:   00 00 00 00 00 00 00 00 00 00 00 00 00 00 00 00    ................
    0x10074800:   00 00 00 00 00 00 00 00 00 00 00 00 00 00 00 00    ................
    0x10074810:   00 00 00 00 00 00 00 00 00 00 00 00 00 00 00 00    ................
    0x10074820:   00 00 00 00 00 00 00 00 00 00 00 00 00 00 00 00    ................
    0x10074830:   00 00 00 00 00 00 00 00 00 00 00 00 00 00 00 00    ................
    0x10074840:   00 00 00 00 00 00 00 00 00 00 00 00 00 00 00 00    ................
    0x10074850:   00 00 00 00 00 00 00 00 00 00 00 00 00 00 00 00    ................
    0x10074860:   00 00 00 00 00 00 00 00 00 00 00 00 00 00 00 00    ................
    0x10074870:   00 00 00 00 00 00 00 00 00 00 00 00 00 00 00 00    ................
    0x10074880:   00 00 00 00 00 00 00 00 00 00 00 00 00 00 00 00    ................
    0x10074890:   00 00 00 00 00 00 00 00 00 00 00 00 00 00 00 00    ................
    0x100748a0:   00 00 00 00 00 00 00 00 00 00 00 00 00 00 00 00    ................
    0x100748b0:   00 00 00 00 00 00 00 00 00 00 00 00 00 00 00 00    ................
    0x100748c0:   00 00 00 00 00 00 00 00 00 00 00 00 00 00 00 00    ................
    0x100748d0:   00 00 00 00 00 00 00 00 00 00 00 00 00 00 00 00    ................
    0x100748e0:   00 00 00 00 00 00 00 00 00 00 00 00 00 00 00 00    ................
    0x100748f0:   00 00 00 00 00 00 00 00 00 00 00 00 00 00 00 00    ................
    0x10074900:   00 00 00 00 00 00 00 00 00 00 00 00 00 00 00 00    ................
    0x10074910:   00 00 00 00 00 00 00 00 00 00 00 00 00 00 00 00    ................
    0x10074920:   00 00 00 00 00 00 00 00 00 00 00 00 00 00 00 00    ................
    0x10074930:   00 00 00 00 00 00 00 00 00 00 00 00 00 00 00 00    ................
    0x10074940:   00 00 00 00 00 00 00 00 00 00 00 00 00 00 00 00    ................
    0x10074950:   00 00 00 00 00 00 00 00 00 00 00 00 00 00 00 00    ................
    0x10074960:   00 00 00 00 00 00 00 00 00 00 00 00 00 00 00 00    ................
    0x10074970:   00 00 00 00 00 00 00 00 00 00 00 00 00 00 00 00    ................
    0x10074980:   00 00 00 00 00 00 00 00 00 00 00 00 00 00 00 00    ................
    0x10074990:   00 00 00 00 00 00 00 00 00 00 00 00 00 00 00 00    ................
    0x100749a0:   00 00 00 00 00 00 00 00 00 00 00 00 00 00 00 00    ................
    0x100749b0:   00 00 00 00 00 00 00 00 00 00 00 00 00 00 00 00    ................
    0x100749c0:   00 00 00 00 00 00 00 00 00 00 00 00 00 00 00 00    ................
    0x100749d0:   00 00 00 00 00 00 00 00 00 00 00 00 00 00 00 00    ................
    0x100749e0:   00 00 00 00 00 00 00 00 00 00 00 00 00 00 00 00    ................
    0x100749f0:   00 00 00 00 00 00 00 00 00 00 00 00 00 00 00 00    ................
    0x10074a00:   00 00 00 00 00 00 00 00 00 00 00 00 00 00 00 00    ................
    0x10074a10:   00 00 00 00 00 00 00 00 00 00 00 00 00 00 00 00    ................
    0x10074a20:   00 00 00 00 00 00 00 00 00 00 00 00 00 00 00 00    ................
    0x10074a30:   00 00 00 00 00 00 00 00 00 00 00 00 00 00 00 00    ................
    0x10074a40:   00 00 00 00 00 00 00 00 00 00 00 00 00 00 00 00    ................
    0x10074a50:   00 00 00 00 00 00 00 00 00 00 00 00 00 00 00 00    ................
    0x10074a60:   00 00 00 00 00 00 00 00 00 00 00 00 00 00 00 00    ................
    0x10074a70:   00 00 00 00 00 00 00 00 00 00 00 00 00 00 00 00    ................
    0x10074a80:   00 00 00 00 00 00 00 00 00 00 00 00 00 00 00 00    ................
    0x10074a90:   00 00 00 00 00 00 00 00 00 00 00 00 00 00 00 00    ................
    0x10074aa0:   00 00 00 00 00 00 00 00 00 00 00 00 00 00 00 00    ................
    0x10074ab0:   00 00 00 00 00 00 00 00 00 00 00 00 00 00 00 00    ................
    0x10074ac0:   00 00 00 00 00 00 00 00 00 00 00 00 00 00 00 00    ................
    0x10074ad0:   00 00 00 00 00 00 00 00 00 00 00 00 00 00 00 00    ................
    0x10074ae0:   00 00 00 00 00 00 00 00 00 00 00 00 00 00 00 00    ................
    0x10074af0:   00 00 00 00 00 00 00 00 00 00 00 00 00 00 00 00    ................
    0x10074b00:   00 00 00 00 00 00 00 00 00 00 00 00 00 00 00 00    ................
    0x10074b10:   00 00 00 00 00 00 00 00 00 00 00 00 00 00 00 00    ................
    0x10074b20:   00 00 00 00 00 00 00 00 00 00 00 00 00 00 00 00    ................
    0x10074b30:   00 00 00 00 00 00 00 00 00 00 00 00 00 00 00 00    ................
    0x10074b40:   00 00 00 00 00 00 00 00 00 00 00 00 00 00 00 00    ................
    0x10074b50:   00 00 00 00 00 00 00 00 00 00 00 00 00 00 00 00    ................
    0x10074b60:   00 00 00 00 00 00 00 00 00 00 00 00 00 00 00 00    ................
    0x10074b70:   00 00 00 00 00 00 00 00 00 00 00 00 00 00 00 00    ................
    0x10074b80:   00 00 00 00 00 00 00 00 00 00 00 00 00 00 00 00    ................
    0x10074b90:   00 00 00 00 00 00 00 00 00 00 00 00 00 00 00 00    ................
    0x10074ba0:   00 00 00 00 00 00 00 00 00 00 00 00 00 00 00 00    ................
    0x10074bb0:   00 00 00 00 00 00 00 00 00 00 00 00 00 00 00 00    ................
    0x10074bc0:   00 00 00 00 00 00 00 00 00 00 00 00 00 00 00 00    ................
    0x10074bd0:   00 00 00 00 00 00 00 00 00 00 00 00 00 00 00 00    ................
    0x10074be0:   00 00 00 00 00 00 00 00 00 00 00 00 00 00 00 00    ................
    0x10074bf0:   00 00 00 00 00 00 00 00 00 00 00 00 00 00 00 00    ................
    0x10074c00:   00 00 00 00 00 00 00 00 00 00 00 00 00 00 00 00    ................
    0x10074c10:   00 00 00 00 00 00 00 00 00 00 00 00 00 00 00 00    ................
    0x10074c20:   00 00 00 00 00 00 00 00 00 00 00 00 00 00 00 00    ................
    0x10074c30:   00 00 00 00 00 00 00 00 00 00 00 00 00 00 00 00    ................
    0x10074c40:   00 00 00 00 00 00 00 00 00 00 00 00 00 00 00 00    ................
    0x10074c50:   00 00 00 00 00 00 00 00 00 00 00 00 00 00 00 00    ................
    0x10074c60:   00 00 00 00 00 00 00 00 00 00 00 00 00 00 00 00    ................
    0x10074c70:   00 00 00 00 00 00 00 00 00 00 00 00 00 00 00 00    ................
    0x10074c80:   00 00 00 00 00 00 00 00 00 00 00 00 00 00 00 00    ................
    0x10074c90:   00 00 00 00 00 00 00 00 00 00 00 00 00 00 00 00    ................
    0x10074ca0:   00 00 00 00 00 00 00 00 00 00 00 00 00 00 00 00    ................
    0x10074cb0:   00 00 00 00 00 00 00 00 00 00 00 00 00 00 00 00    ................
    0x10074cc0:   00 00 00 00 00 00 00 00 00 00 00 00 00 00 00 00    ................
    0x10074cd0:   00 00 00 00 00 00 00 00 00 00 00 00 00 00 00 00    ................
    0x10074ce0:   00 00 00 00 00 00 00 00 00 00 00 00 00 00 00 00    ................
    0x10074cf0:   00 00 00 00 00 00 00 00 00 00 00 00 00 00 00 00    ................
    0x10074d00:   00 00 00 00 00 00 00 00 00 00 00 00 00 00 00 00    ................
    0x10074d10:   00 00 00 00 00 00 00 00 00 00 00 00 00 00 00 00    ................
    0x10074d20:   00 00 00 00 00 00 00 00 00 00 00 00 00 00 00 00    ................
    0x10074d30:   00 00 00 00 00 00 00 00 00 00 00 00 00 00 00 00    ................
    0x10074d40:   00 00 00 00 00 00 00 00 00 00 00 00 00 00 00 00    ................
    0x10074d50:   00 00 00 00 00 00 00 00 00 00 00 00 00 00 00 00    ................
    0x10074d60:   00 00 00 00 00 00 00 00 00 00 00 00 00 00 00 00    ................
    0x10074d70:   00 00 00 00 00 00 00 00 00 00 00 00 00 00 00 00    ................
    0x10074d80:   00 00 00 00 00 00 00 00 00 00 00 00 00 00 00 00    ................
    0x10074d90:   00 00 00 00 00 00 00 00 00 00 00 00 00 00 00 00    ................
    0x10074da0:   00 00 00 00 00 00 00 00 00 00 00 00 00 00 00 00    ................
    0x10074db0:   00 00 00 00 00 00 00 00 00 00 00 00 00 00 00 00    ................
    0x10074dc0:   00 00 00 00 00 00 00 00 00 00 00 00 00 00 00 00    ................
    0x10074dd0:   00 00 00 00 00 00 00 00 00 00 00 00 00 00 00 00    ................
    0x10074de0:   00 00 00 00 00 00 00 00 00 00 00 00 00 00 00 00    ................
    0x10074df0:   00 00 00 00 00 00 00 00 00 00 00 00 00 00 00 00    ................
    0x10074e00:   00 00 00 00 00 00 00 00 00 00 00 00 00 00 00 00    ................
    0x10074e10:   00 00 00 00 00 00 00 00 00 00 00 00 00 00 00 00    ................
    0x10074e20:   00 00 00 00 00 00 00 00 00 00 00 00 00 00 00 00    ................
    0x10074e30:   00 00 00 00 00 00 00 00 00 00 00 00 00 00 00 00    ................
    0x10074e40:   00 00 00 00 00 00 00 00 00 00 00 00 00 00 00 00    ................
    0x10074e50:   00 00 00 00 00 00 00 00 00 00 00 00 00 00 00 00    ................
    0x10074e60:   00 00 00 00 00 00 00 00 00 00 00 00 00 00 00 00    ................
    0x10074e70:   00 00 00 00 00 00 00 00 00 00 00 00 00 00 00 00    ................
    0x10074e80:   00 00 00 00 00 00 00 00 00 00 00 00 00 00 00 00    ................
    0x10074e90:   00 00 00 00 00 00 00 00 00 00 00 00 00 00 00 00    ................
    0x10074ea0:   00 00 00 00 00 00 00 00 00 00 00 00 00 00 00 00    ................
    0x10074eb0:   00 00 00 00 00 00 00 00 00 00 00 00 00 00 00 00    ................
    0x10074ec0:   00 00 00 00 00 00 00 00 00 00 00 00 00 00 00 00    ................
    0x10074ed0:   00 00 00 00 00 00 00 00 00 00 00 00 00 00 00 00    ................
    0x10074ee0:   00 00 00 00 00 00 00 00 00 00 00 00 00 00 00 00    ................
    0x10074ef0:   00 00 00 00 00 00 00 00 00 00 00 00 00 00 00 00    ................
    0x10074f00:   00 00 00 00 00 00 00 00 00 00 00 00 00 00 00 00    ................
    0x10074f10:   00 00 00 00 00 00 00 00 00 00 00 00 00 00 00 00    ................
    0x10074f20:   00 00 00 00 00 00 00 00 00 00 00 00 00 00 00 00    ................
    0x10074f30:   00 00 00 00 00 00 00 00 00 00 00 00 00 00 00 00    ................
    0x10074f40:   00 00 00 00 00 00 00 00 00 00 00 00 00 00 00 00    ................
    0x10074f50:   00 00 00 00 00 00 00 00 00 00 00 00 00 00 00 00    ................
    0x10074f60:   00 00 00 00 00 00 00 00 00 00 00 00 00 00 00 00    ................
    0x10074f70:   00 00 00 00 00 00 00 00 00 00 00 00 00 00 00 00    ................
    0x10074f80:   00 00 00 00 00 00 00 00 00 00 00 00 00 00 00 00    ................
    0x10074f90:   00 00 00 00 00 00 00 00 00 00 00 00 00 00 00 00    ................
    0x10074fa0:   00 00 00 00 00 00 00 00 00 00 00 00 00 00 00 00    ................
    0x10074fb0:   00 00 00 00 00 00 00 00 00 00 00 00 00 00 00 00    ................
    0x10074fc0:   00 00 00 00 00 00 00 00 00 00 00 00 00 00 00 00    ................
    0x10074fd0:   00 00 00 00 00 00 00 00 00 00 00 00 00 00 00 00    ................
    0x10074fe0:   00 00 00 00 00 00 00 00 00 00 00 00 00 00 00 00    ................
    0x10074ff0:   00 00 00 00 00 00 00 00 00 00 00 00 00 00 00 00    ................
    0x10075000:   00 00 00 00 00 00 00 00 00 00 00 00 00 00 00 00    ................
    0x10075010:   00 00 00 00 00 00 00 00 00 00 00 00 00 00 00 00    ................
    0x10075020:   00 00 00 00 00 00 00 00 00 00 00 00 00 00 00 00    ................
    0x10075030:   00 00 00 00 00 00 00 00 00 00 00 00 00 00 00 00    ................
    0x10075040:   00 00 00 00 00 00 00 00 00 00 00 00 00 00 00 00    ................
    0x10075050:   00 00 00 00 00 00 00 00 00 00 00 00 00 00 00 00    ................
    0x10075060:   00 00 00 00 00 00 00 00 00 00 00 00 00 00 00 00    ................
    0x10075070:   00 00 00 00 00 00 00 00 00 00 00 00 00 00 00 00    ................
    0x10075080:   00 00 00 00 00 00 00 00 00 00 00 00 00 00 00 00    ................
    0x10075090:   00 00 00 00 00 00 00 00 00 00 00 00 00 00 00 00    ................
    0x100750a0:   00 00 00 00 00 00 00 00 00 00 00 00 00 00 00 00    ................
    0x100750b0:   00 00 00 00 00 00 00 00 00 00 00 00 00 00 00 00    ................
    0x100750c0:   00 00 00 00 00 00 00 00 00 00 00 00 00 00 00 00    ................
    0x100750d0:   00 00 00 00 00 00 00 00 00 00 00 00 00 00 00 00    ................
    0x100750e0:   00 00 00 00 00 00 00 00 00 00 00 00 00 00 00 00    ................
    0x100750f0:   00 00 00 00 00 00 00 00 00 00 00 00 00 00 00 00    ................
    0x10075100:   00 00 00 00 00 00 00 00 00 00 00 00 00 00 00 00    ................
    0x10075110:   00 00 00 00 00 00 00 00 00 00 00 00 00 00 00 00    ................
    0x10075120:   00 00 00 00 00 00 00 00 00 00 00 00 00 00 00 00    ................
    0x10075130:   00 00 00 00 00 00 00 00 00 00 00 00 00 00 00 00    ................
    0x10075140:   00 00 00 00 00 00 00 00 00 00 00 00 00 00 00 00    ................
    0x10075150:   00 00 00 00 00 00 00 00 00 00 00 00 00 00 00 00    ................
    0x10075160:   00 00 00 00 00 00 00 00 00 00 00 00 00 00 00 00    ................
    0x10075170:   00 00 00 00 00 00 00 00 00 00 00 00 00 00 00 00    ................
    0x10075180:   00 00 00 00 00 00 00 00 00 00 00 00 00 00 00 00    ................
    0x10075190:   00 00 00 00 00 00 00 00 00 00 00 00 00 00 00 00    ................
    0x100751a0:   00 00 00 00 00 00 00 00 00 00 00 00 00 00 00 00    ................
    0x100751b0:   00 00 00 00 00 00 00 00 00 00 00 00 00 00 00 00    ................
    0x100751c0:   00 00 00 00 00 00 00 00 00 00 00 00 00 00 00 00    ................
    0x100751d0:   00 00 00 00 00 00 00 00 00 00 00 00 00 00 00 00    ................
    0x100751e0:   00 00 00 00 00 00 00 00 00 00 00 00 00 00 00 00    ................
    0x100751f0:   00 00 00 00 00 00 00 00 00 00 00 00 00 00 00 00    ................
    0x10075200:   00 00 00 00 00 00 00 00 00 00 00 00 00 00 00 00    ................
    0x10075210:   00 00 00 00 00 00 00 00 00 00 00 00 00 00 00 00    ................
    0x10075220:   00 00 00 00 00 00 00 00 00 00 00 00 00 00 00 00    ................
    0x10075230:   00 00 00 00 00 00 00 00 00 00 00 00 00 00 00 00    ................
    0x10075240:   00 00 00 00 00 00 00 00 00 00 00 00 00 00 00 00    ................
    0x10075250:   00 00 00 00 00 00 00 00 00 00 00 00 00 00 00 00    ................
    0x10075260:   00 00 00 00 00 00 00 00 00 00 00 00 00 00 00 00    ................
    0x10075270:   00 00 00 00 00 00 00 00 00 00 00 00 00 00 00 00    ................
    0x10075280:   00 00 00 00 00 00 00 00 00 00 00 00 00 00 00 00    ................
    0x10075290:   00 00 00 00 00 00 00 00 00 00 00 00 00 00 00 00    ................
    0x100752a0:   00 00 00 00 00 00 00 00 00 00 00 00 00 00 00 00    ................
    0x100752b0:   00 00 00 00 00 00 00 00 00 00 00 00 00 00 00 00    ................
    0x100752c0:   00 00 00 00 00 00 00 00 00 00 00 00 00 00 00 00    ................
    0x100752d0:   00 00 00 00 00 00 00 00 00 00 00 00 00 00 00 00    ................
    0x100752e0:   00 00 00 00 00 00 00 00 00 00 00 00 00 00 00 00    ................
    0x100752f0:   00 00 00 00 00 00 00 00 00 00 00 00 00 00 00 00    ................
    0x10075300:   00 00 00 00 00 00 00 00 00 00 00 00 00 00 00 00    ................
    0x10075310:   00 00 00 00 00 00 00 00 00 00 00 00 00 00 00 00    ................
    0x10075320:   00 00 00 00 00 00 00 00 00 00 00 00 00 00 00 00    ................
    0x10075330:   00 00 00 00 00 00 00 00 00 00 00 00 00 00 00 00    ................
    0x10075340:   00 00 00 00 00 00 00 00 00 00 00 00 00 00 00 00    ................
    0x10075350:   00 00 00 00 00 00 00 00 00 00 00 00 00 00 00 00    ................
    0x10075360:   00 00 00 00 00 00 00 00 00 00 00 00 00 00 00 00    ................
    0x10075370:   00 00 00 00 00 00 00 00 00 00 00 00 00 00 00 00    ................
    0x10075380:   00 00 00 00 00 00 00 00 00 00 00 00 00 00 00 00    ................
    0x10075390:   00 00 00 00 00 00 00 00 00 00 00 00 00 00 00 00    ................
    0x100753a0:   00 00 00 00 00 00 00 00 00 00 00 00 00 00 00 00    ................
    0x100753b0:   00 00 00 00 00 00 00 00 00 00 00 00 00 00 00 00    ................
    0x100753c0:   00 00 00 00 00 00 00 00 00 00 00 00 00 00 00 00    ................
    0x100753d0:   00 00 00 00 00 00 00 00 00 00 00 00 00 00 00 00    ................
    0x100753e0:   00 00 00 00 00 00 00 00 00 00 00 00 00 00 00 00    ................
    0x100753f0:   00 00 00 00 00 00 00 00 00 00 00 00 00 00 00 00    ................
    0x10075400:   00 00 00 00 00 00 00 00 00 00 00 00 00 00 00 00    ................
    0x10075410:   00 00 00 00 00 00 00 00 00 00 00 00 00 00 00 00    ................
    0x10075420:   00 00 00 00 00 00 00 00 00 00 00 00 00 00 00 00    ................
    0x10075430:   00 00 00 00 00 00 00 00 00 00 00 00 00 00 00 00    ................
    0x10075440:   00 00 00 00 00 00 00 00 00 00 00 00 00 00 00 00    ................
    0x10075450:   00 00 00 00 00 00 00 00 00 00 00 00 00 00 00 00    ................
    0x10075460:   00 00 00 00 00 00 00 00 00 00 00 00 00 00 00 00    ................
    0x10075470:   00 00 00 00 00 00 00 00 00 00 00 00 00 00 00 00    ................
    0x10075480:   00 00 00 00 00 00 00 00 00 00 00 00 00 00 00 00    ................
    0x10075490:   00 00 00 00 00 00 00 00 00 00 00 00 00 00 00 00    ................
    0x100754a0:   00 00 00 00 00 00 00 00 00 00 00 00 00 00 00 00    ................
    0x100754b0:   00 00 00 00 00 00 00 00 00 00 00 00 00 00 00 00    ................
    0x100754c0:   00 00 00 00 00 00 00 00 00 00 00 00 00 00 00 00    ................
    0x100754d0:   00 00 00 00 00 00 00 00 00 00 00 00 00 00 00 00    ................
    0x100754e0:   00 00 00 00 00 00 00 00 00 00 00 00 00 00 00 00    ................
    0x100754f0:   00 00 00 00 00 00 00 00 00 00 00 00 00 00 00 00    ................
    0x10075500:   00 00 00 00 00 00 00 00 00 00 00 00 00 00 00 00    ................
    0x10075510:   00 00 00 00 00 00 00 00 00 00 00 00 00 00 00 00    ................
    0x10075520:   00 00 00 00 00 00 00 00 00 00 00 00 00 00 00 00    ................
    0x10075530:   00 00 00 00 00 00 00 00 00 00 00 00 00 00 00 00    ................
    0x10075540:   00 00 00 00 00 00 00 00 00 00 00 00 00 00 00 00    ................
    0x10075550:   00 00 00 00 00 00 00 00 00 00 00 00 00 00 00 00    ................
    0x10075560:   00 00 00 00 00 00 00 00 00 00 00 00 00 00 00 00    ................
    0x10075570:   00 00 00 00 00 00 00 00 00 00 00 00 00 00 00 00    ................
    0x10075580:   00 00 00 00 00 00 00 00 00 00 00 00 00 00 00 00    ................
    0x10075590:   00 00 00 00 00 00 00 00 00 00 00 00 00 00 00 00    ................
    0x100755a0:   00 00 00 00 00 00 00 00 00 00 00 00 00 00 00 00    ................
    0x100755b0:   00 00 00 00 00 00 00 00 00 00 00 00 00 00 00 00    ................
    0x100755c0:   00 00 00 00 00 00 00 00 00 00 00 00 00 00 00 00    ................
    0x100755d0:   00 00 00 00 00 00 00 00 00 00 00 00 00 00 00 00    ................
    0x100755e0:   00 00 00 00 00 00 00 00 00 00 00 00 00 00 00 00    ................
    0x100755f0:   00 00 00 00 00 00 00 00 00 00 00 00 00 00 00 00    ................
    0x10075600:   00 00 00 00 00 00 00 00 00 00 00 00 00 00 00 00    ................
    0x10075610:   00 00 00 00 00 00 00 00 00 00 00 00 00 00 00 00    ................
    0x10075620:   00 00 00 00 00 00 00 00 00 00 00 00 00 00 00 00    ................
    0x10075630:   00 00 00 00 00 00 00 00 00 00 00 00 00 00 00 00    ................
    0x10075640:   00 00 00 00 00 00 00 00 00 00 00 00 00 00 00 00    ................
    0x10075650:   00 00 00 00 00 00 00 00 00 00 00 00 00 00 00 00    ................
    0x10075660:   00 00 00 00 00 00 00 00 00 00 00 00 00 00 00 00    ................
    0x10075670:   00 00 00 00 00 00 00 00 00 00 00 00 00 00 00 00    ................
    0x10075680:   00 00 00 00 00 00 00 00 00 00 00 00 00 00 00 00    ................
    0x10075690:   00 00 00 00 00 00 00 00 00 00 00 00 00 00 00 00    ................
    0x100756a0:   00 00 00 00 00 00 00 00 00 00 00 00 00 00 00 00    ................
    0x100756b0:   00 00 00 00 00 00 00 00 00 00 00 00 00 00 00 00    ................
    0x100756c0:   00 00 00 00 00 00 00 00 00 00 00 00 00 00 00 00    ................
    0x100756d0:   00 00 00 00 00 00 00 00 00 00 00 00 00 00 00 00    ................
    0x100756e0:   00 00 00 00 00 00 00 00 00 00 00 00 00 00 00 00    ................
    0x100756f0:   00 00 00 00 00 00 00 00 00 00 00 00 00 00 00 00    ................
    0x10075700:   00 00 00 00 00 00 00 00 00 00 00 00 00 00 00 00    ................
    0x10075710:   00 00 00 00 00 00 00 00 00 00 00 00 00 00 00 00    ................
    0x10075720:   00 00 00 00 00 00 00 00 00 00 00 00 00 00 00 00    ................
    0x10075730:   00 00 00 00 00 00 00 00 00 00 00 00 00 00 00 00    ................
    0x10075740:   00 00 00 00 00 00 00 00 00 00 00 00 00 00 00 00    ................
    0x10075750:   00 00 00 00 00 00 00 00 00 00 00 00 00 00 00 00    ................
    0x10075760:   00 00 00 00 00 00 00 00 00 00 00 00 00 00 00 00    ................
    0x10075770:   00 00 00 00 00 00 00 00 00 00 00 00 00 00 00 00    ................
    0x10075780:   00 00 00 00 00 00 00 00 00 00 00 00 00 00 00 00    ................
    0x10075790:   00 00 00 00 00 00 00 00 00 00 00 00 00 00 00 00    ................
    0x100757a0:   00 00 00 00 00 00 00 00 00 00 00 00 00 00 00 00    ................
    0x100757b0:   00 00 00 00 00 00 00 00 00 00 00 00 00 00 00 00    ................
    0x100757c0:   00 00 00 00 00 00 00 00 00 00 00 00 00 00 00 00    ................
    0x100757d0:   00 00 00 00 00 00 00 00 00 00 00 00 00 00 00 00    ................
    0x100757e0:   00 00 00 00 00 00 00 00 00 00 00 00 00 00 00 00    ................
    0x100757f0:   00 00 00 00 00 00 00 00 00 00 00 00 00 00 00 00    ................
    0x10075800:   00 00 00 00 00 00 00 00 00 00 00 00 00 00 00 00    ................
    0x10075810:   00 00 00 00 00 00 00 00 00 00 00 00 00 00 00 00    ................
    0x10075820:   00 00 00 00 00 00 00 00 00 00 00 00 00 00 00 00    ................
    0x10075830:   00 00 00 00 00 00 00 00 00 00 00 00 00 00 00 00    ................
    0x10075840:   00 00 00 00 00 00 00 00 00 00 00 00 00 00 00 00    ................
    0x10075850:   00 00 00 00 00 00 00 00 00 00 00 00 00 00 00 00    ................
    0x10075860:   00 00 00 00 00 00 00 00 00 00 00 00 00 00 00 00    ................
    0x10075870:   00 00 00 00 00 00 00 00 00 00 00 00 00 00 00 00    ................
    0x10075880:   00 00 00 00 00 00 00 00 00 00 00 00 00 00 00 00    ................
    0x10075890:   00 00 00 00 00 00 00 00 00 00 00 00 00 00 00 00    ................
    0x100758a0:   00 00 00 00 00 00 00 00 00 00 00 00 00 00 00 00    ................
    0x100758b0:   00 00 00 00 00 00 00 00 00 00 00 00 00 00 00 00    ................
    0x100758c0:   00 00 00 00 00 00 00 00 00 00 00 00 00 00 00 00    ................
    0x100758d0:   00 00 00 00 00 00 00 00 00 00 00 00 00 00 00 00    ................
    0x100758e0:   00 00 00 00 00 00 00 00 00 00 00 00 00 00 00 00    ................
    0x100758f0:   00 00 00 00 00 00 00 00 00 00 00 00 00 00 00 00    ................
    0x10075900:   00 00 00 00 00 00 00 00 00 00 00 00 00 00 00 00    ................
    0x10075910:   00 00 00 00 00 00 00 00 00 00 00 00 00 00 00 00    ................
    0x10075920:   00 00 00 00 00 00 00 00 00 00 00 00 00 00 00 00    ................
    0x10075930:   00 00 00 00 00 00 00 00 00 00 00 00 00 00 00 00    ................
    0x10075940:   00 00 00 00 00 00 00 00 00 00 00 00 00 00 00 00    ................
    0x10075950:   00 00 00 00 00 00 00 00 00 00 00 00 00 00 00 00    ................
    0x10075960:   00 00 00 00 00 00 00 00 00 00 00 00 00 00 00 00    ................
    0x10075970:   00 00 00 00 00 00 00 00 00 00 00 00 00 00 00 00    ................
    0x10075980:   00 00 00 00 00 00 00 00 00 00 00 00 00 00 00 00    ................
    0x10075990:   00 00 00 00 00 00 00 00 00 00 00 00 00 00 00 00    ................
    0x100759a0:   00 00 00 00 00 00 00 00 00 00 00 00 00 00 00 00    ................
    0x100759b0:   00 00 00 00 00 00 00 00 00 00 00 00 00 00 00 00    ................
    0x100759c0:   00 00 00 00 00 00 00 00 00 00 00 00 00 00 00 00    ................
    0x100759d0:   00 00 00 00 00 00 00 00 00 00 00 00 00 00 00 00    ................
    0x100759e0:   00 00 00 00 00 00 00 00 00 00 00 00 00 00 00 00    ................
    0x100759f0:   00 00 00 00 00 00 00 00 00 00 00 00 00 00 00 00    ................
    0x10075a00:   00 00 00 00 00 00 00 00 00 00 00 00 00 00 00 00    ................
    0x10075a10:   00 00 00 00 00 00 00 00 00 00 00 00 00 00 00 00    ................
    0x10075a20:   00 00 00 00 00 00 00 00 00 00 00 00 00 00 00 00    ................
    0x10075a30:   00 00 00 00 00 00 00 00 00 00 00 00 00 00 00 00    ................
    0x10075a40:   00 00 00 00 00 00 00 00 00 00 00 00 00 00 00 00    ................
    0x10075a50:   00 00 00 00 00 00 00 00 00 00 00 00 00 00 00 00    ................
    0x10075a60:   00 00 00 00 00 00 00 00 00 00 00 00 00 00 00 00    ................
    0x10075a70:   00 00 00 00 00 00 00 00 00 00 00 00 00 00 00 00    ................
    0x10075a80:   00 00 00 00 00 00 00 00 00 00 00 00 00 00 00 00    ................
    0x10075a90:   00 00 00 00 00 00 00 00 00 00 00 00 00 00 00 00    ................
    0x10075aa0:   00 00 00 00 00 00 00 00 00 00 00 00 00 00 00 00    ................
    0x10075ab0:   00 00 00 00 00 00 00 00 00 00 00 00 00 00 00 00    ................
    0x10075ac0:   00 00 00 00 00 00 00 00 00 00 00 00 00 00 00 00    ................
    0x10075ad0:   00 00 00 00 00 00 00 00 00 00 00 00 00 00 00 00    ................
    0x10075ae0:   00 00 00 00 00 00 00 00 00 00 00 00 00 00 00 00    ................
    0x10075af0:   00 00 00 00 00 00 00 00 00 00 00 00 00 00 00 00    ................
    0x10075b00:   00 00 00 00 00 00 00 00 00 00 00 00 00 00 00 00    ................
    0x10075b10:   00 00 00 00 00 00 00 00 00 00 00 00 00 00 00 00    ................
    0x10075b20:   00 00 00 00 00 00 00 00 00 00 00 00 00 00 00 00    ................
    0x10075b30:   00 00 00 00 00 00 00 00 00 00 00 00 00 00 00 00    ................
    0x10075b40:   00 00 00 00 00 00 00 00 00 00 00 00 00 00 00 00    ................
    0x10075b50:   00 00 00 00 00 00 00 00 00 00 00 00 00 00 00 00    ................
    0x10075b60:   00 00 00 00 00 00 00 00 00 00 00 00 00 00 00 00    ................
    0x10075b70:   00 00 00 00 00 00 00 00 00 00 00 00 00 00 00 00    ................
    0x10075b80:   00 00 00 00 00 00 00 00 00 00 00 00 00 00 00 00    ................
    0x10075b90:   00 00 00 00 00 00 00 00 00 00 00 00 00 00 00 00    ................
    0x10075ba0:   00 00 00 00 00 00 00 00 00 00 00 00 00 00 00 00    ................
    0x10075bb0:   00 00 00 00 00 00 00 00 00 00 00 00 00 00 00 00    ................
    0x10075bc0:   00 00 00 00 00 00 00 00 00 00 00 00 00 00 00 00    ................
    0x10075bd0:   00 00 00 00 00 00 00 00 00 00 00 00 00 00 00 00    ................
    0x10075be0:   00 00 00 00 00 00 00 00 00 00 00 00 00 00 00 00    ................
    0x10075bf0:   00 00 00 00 00 00 00 00 00 00 00 00 00 00 00 00    ................
    0x10075c00:   00 00 00 00 00 00 00 00 00 00 00 00 00 00 00 00    ................
    0x10075c10:   00 00 00 00 00 00 00 00 00 00 00 00 00 00 00 00    ................
    0x10075c20:   00 00 00 00 00 00 00 00 00 00 00 00 00 00 00 00    ................
    0x10075c30:   00 00 00 00 00 00 00 00 00 00 00 00 00 00 00 00    ................
    0x10075c40:   00 00 00 00 00 00 00 00 00 00 00 00 00 00 00 00    ................
    0x10075c50:   00 00 00 00 00 00 00 00 00 00 00 00 00 00 00 00    ................
    0x10075c60:   00 00 00 00 00 00 00 00 00 00 00 00 00 00 00 00    ................
    0x10075c70:   00 00 00 00 00 00 00 00 00 00 00 00 00 00 00 00    ................
    0x10075c80:   00 00 00 00 00 00 00 00 00 00 00 00 00 00 00 00    ................
    0x10075c90:   00 00 00 00 00 00 00 00 00 00 00 00 00 00 00 00    ................
    0x10075ca0:   00 00 00 00 00 00 00 00 00 00 00 00 00 00 00 00    ................
    0x10075cb0:   00 00 00 00 00 00 00 00 00 00 00 00 00 00 00 00    ................
    0x10075cc0:   00 00 00 00 00 00 00 00 00 00 00 00 00 00 00 00    ................
    0x10075cd0:   00 00 00 00 00 00 00 00 00 00 00 00 00 00 00 00    ................
    0x10075ce0:   00 00 00 00 00 00 00 00 00 00 00 00 00 00 00 00    ................
    0x10075cf0:   00 00 00 00 00 00 00 00 00 00 00 00 00 00 00 00    ................
    0x10075d00:   00 00 00 00 00 00 00 00 00 00 00 00 00 00 00 00    ................
    0x10075d10:   00 00 00 00 00 00 00 00 00 00 00 00 00 00 00 00    ................
    0x10075d20:   00 00 00 00 00 00 00 00 00 00 00 00 00 00 00 00    ................
    0x10075d30:   00 00 00 00 00 00 00 00 00 00 00 00 00 00 00 00    ................
    0x10075d40:   00 00 00 00 00 00 00 00 00 00 00 00 00 00 00 00    ................
    0x10075d50:   00 00 00 00 00 00 00 00 00 00 00 00 00 00 00 00    ................
    0x10075d60:   00 00 00 00 00 00 00 00 00 00 00 00 00 00 00 00    ................
    0x10075d70:   00 00 00 00 00 00 00 00 00 00 00 00 00 00 00 00    ................
    0x10075d80:   00 00 00 00 00 00 00 00 00 00 00 00 00 00 00 00    ................
    0x10075d90:   00 00 00 00 00 00 00 00 00 00 00 00 00 00 00 00    ................
    0x10075da0:   00 00 00 00 00 00 00 00 00 00 00 00 00 00 00 00    ................
    0x10075db0:   00 00 00 00 00 00 00 00 00 00 00 00 00 00 00 00    ................
    0x10075dc0:   00 00 00 00 00 00 00 00 00 00 00 00 00 00 00 00    ................
    0x10075dd0:   00 00 00 00 00 00 00 00 00 00 00 00 00 00 00 00    ................
    0x10075de0:   00 00 00 00 00 00 00 00 00 00 00 00 00 00 00 00    ................
    0x10075df0:   00 00 00 00 00 00 00 00 00 00 00 00 00 00 00 00    ................
    0x10075e00:   00 00 00 00 00 00 00 00 00 00 00 00 00 00 00 00    ................
    0x10075e10:   00 00 00 00 00 00 00 00 00 00 00 00 00 00 00 00    ................
    0x10075e20:   00 00 00 00 00 00 00 00 00 00 00 00 00 00 00 00    ................
    0x10075e30:   00 00 00 00 00 00 00 00 00 00 00 00 00 00 00 00    ................
    0x10075e40:   00 00 00 00 00 00 00 00 00 00 00 00 00 00 00 00    ................
    0x10075e50:   00 00 00 00 00 00 00 00 00 00 00 00 00 00 00 00    ................
    0x10075e60:   00 00 00 00 00 00 00 00 00 00 00 00 00 00 00 00    ................
    0x10075e70:   00 00 00 00 00 00 00 00 00 00 00 00 00 00 00 00    ................
    0x10075e80:   00 00 00 00 00 00 00 00 00 00 00 00 00 00 00 00    ................
    0x10075e90:   00 00 00 00 00 00 00 00 00 00 00 00 00 00 00 00    ................
    0x10075ea0:   00 00 00 00 00 00 00 00 00 00 00 00 00 00 00 00    ................
    0x10075eb0:   00 00 00 00 00 00 00 00 00 00 00 00 00 00 00 00    ................
    0x10075ec0:   00 00 00 00 00 00 00 00 00 00 00 00 00 00 00 00    ................
    0x10075ed0:   00 00 00 00 00 00 00 00 00 00 00 00 00 00 00 00    ................
    0x10075ee0:   00 00 00 00 00 00 00 00 00 00 00 00 00 00 00 00    ................
    0x10075ef0:   00 00 00 00 00 00 00 00 00 00 00 00 00 00 00 00    ................
    0x10075f00:   00 00 00 00 00 00 00 00 00 00 00 00 00 00 00 00    ................
    0x10075f10:   00 00 00 00 00 00 00 00 00 00 00 00 00 00 00 00    ................
    0x10075f20:   00 00 00 00 00 00 00 00 00 00 00 00 00 00 00 00    ................
    0x10075f30:   00 00 00 00 00 00 00 00 00 00 00 00 00 00 00 00    ................
    0x10075f40:   00 00 00 00 00 00 00 00 00 00 00 00 00 00 00 00    ................
    0x10075f50:   00 00 00 00 00 00 00 00 00 00 00 00 00 00 00 00    ................
    0x10075f60:   00 00 00 00 00 00 00 00 00 00 00 00 00 00 00 00    ................
    0x10075f70:   00 00 00 00 00 00 00 00 00 00 00 00 00 00 00 00    ................
    0x10075f80:   00 00 00 00 00 00 00 00 00 00 00 00 00 00 00 00    ................
    0x10075f90:   00 00 00 00 00 00 00 00 00 00 00 00 00 00 00 00    ................
    0x10075fa0:   00 00 00 00 00 00 00 00 00 00 00 00 00 00 00 00    ................
    0x10075fb0:   00 00 00 00 00 00 00 00 00 00 00 00 00 00 00 00    ................
    0x10075fc0:   00 00 00 00 00 00 00 00 00 00 00 00 00 00 00 00    ................
    0x10075fd0:   00 00 00 00 00 00 00 00 00 00 00 00 00 00 00 00    ................
    0x10075fe0:   00 00 00 00 00 00 00 00 00 00 00 00 00 00 00 00    ................
    0x10075ff0:   00 00 00 00 00 00 00 00 00 00 00 00 00 00 00 00    ................
    0x10076000:   00 00 00 00 00 00 00 00 00 00 00 00 00 00 00 00    ................
    0x10076010:   00 00 00 00 00 00 00 00 00 00 00 00 00 00 00 00    ................
    0x10076020:   00 00 00 00 00 00 00 00 00 00 00 00 00 00 00 00    ................
    0x10076030:   00 00 00 00 00 00 00 00 00 00 00 00 00 00 00 00    ................
    0x10076040:   00 00 00 00 00 00 00 00 00 00 00 00 00 00 00 00    ................
    0x10076050:   00 00 00 00 00 00 00 00 00 00 00 00 00 00 00 00    ................
    0x10076060:   00 00 00 00 00 00 00 00 00 00 00 00 00 00 00 00    ................
    0x10076070:   00 00 00 00 00 00 00 00 00 00 00 00 00 00 00 00    ................
    0x10076080:   00 00 00 00 00 00 00 00 00 00 00 00 00 00 00 00    ................
    0x10076090:   00 00 00 00 00 00 00 00 00 00 00 00 00 00 00 00    ................
    0x100760a0:   00 00 00 00 00 00 00 00 00 00 00 00 00 00 00 00    ................
    0x100760b0:   00 00 00 00 00 00 00 00 00 00 00 00 00 00 00 00    ................
    0x100760c0:   00 00 00 00 00 00 00 00 00 00 00 00 00 00 00 00    ................
    0x100760d0:   00 00 00 00 00 00 00 00 00 00 00 00 00 00 00 00    ................
    0x100760e0:   00 00 00 00 00 00 00 00 00 00 00 00 00 00 00 00    ................
    0x100760f0:   00 00 00 00 00 00 00 00 00 00 00 00 00 00 00 00    ................
    0x10076100:   00 00 00 00 00 00 00 00 00 00 00 00 00 00 00 00    ................
    0x10076110:   00 00 00 00 00 00 00 00 00 00 00 00 00 00 00 00    ................
    0x10076120:   00 00 00 00 00 00 00 00 00 00 00 00 00 00 00 00    ................
    0x10076130:   00 00 00 00 00 00 00 00 00 00 00 00 00 00 00 00    ................
    0x10076140:   00 00 00 00 00 00 00 00 00 00 00 00 00 00 00 00    ................
    0x10076150:   00 00 00 00 00 00 00 00 00 00 00 00 00 00 00 00    ................
    0x10076160:   00 00 00 00 00 00 00 00 00 00 00 00 00 00 00 00    ................
    0x10076170:   00 00 00 00 00 00 00 00 00 00 00 00 00 00 00 00    ................
    0x10076180:   00 00 00 00 00 00 00 00 00 00 00 00 00 00 00 00    ................
    0x10076190:   00 00 00 00 00 00 00 00 00 00 00 00 00 00 00 00    ................
    0x100761a0:   00 00 00 00 00 00 00 00 00 00 00 00 00 00 00 00    ................
    0x100761b0:   00 00 00 00 00 00 00 00 00 00 00 00 00 00 00 00    ................
    0x100761c0:   00 00 00 00 00 00 00 00 00 00 00 00 00 00 00 00    ................
    0x100761d0:   00 00 00 00 00 00 00 00 00 00 00 00 00 00 00 00    ................
    0x100761e0:   00 00 00 00 00 00 00 00 00 00 00 00 00 00 00 00    ................
    0x100761f0:   00 00 00 00 00 00 00 00 00 00 00 00 00 00 00 00    ................
    0x10076200:   00 00 00 00 00 00 00 00 00 00 00 00 00 00 00 00    ................
    0x10076210:   00 00 00 00 00 00 00 00 00 00 00 00 00 00 00 00    ................
    0x10076220:   00 00 00 00 00 00 00 00 00 00 00 00 00 00 00 00    ................
    0x10076230:   00 00 00 00 00 00 00 00 00 00 00 00 00 00 00 00    ................
    0x10076240:   00 00 00 00 00 00 00 00 00 00 00 00 00 00 00 00    ................
    0x10076250:   00 00 00 00 00 00 00 00 00 00 00 00 00 00 00 00    ................
    0x10076260:   00 00 00 00 00 00 00 00 00 00 00 00 00 00 00 00    ................
    0x10076270:   00 00 00 00 00 00 00 00 00 00 00 00 00 00 00 00    ................
    0x10076280:   00 00 00 00 00 00 00 00 00 00 00 00 00 00 00 00    ................
    0x10076290:   00 00 00 00 00 00 00 00 00 00 00 00 00 00 00 00    ................
    0x100762a0:   00 00 00 00 00 00 00 00 00 00 00 00 00 00 00 00    ................
    0x100762b0:   00 00 00 00 00 00 00 00 00 00 00 00 00 00 00 00    ................
    0x100762c0:   00 00 00 00 00 00 00 00 00 00 00 00 00 00 00 00    ................
    0x100762d0:   00 00 00 00 00 00 00 00 00 00 00 00 00 00 00 00    ................
    0x100762e0:   00 00 00 00 00 00 00 00 00 00 00 00 00 00 00 00    ................
    0x100762f0:   00 00 00 00 00 00 00 00 00 00 00 00 00 00 00 00    ................
    0x10076300:   00 00 00 00 00 00 00 00 00 00 00 00 00 00 00 00    ................
    0x10076310:   00 00 00 00 00 00 00 00 00 00 00 00 00 00 00 00    ................
    0x10076320:   00 00 00 00 00 00 00 00 00 00 00 00 00 00 00 00    ................
    0x10076330:   00 00 00 00 00 00 00 00 00 00 00 00 00 00 00 00    ................
    0x10076340:   00 00 00 00 00 00 00 00 00 00 00 00 00 00 00 00    ................
    0x10076350:   00 00 00 00 00 00 00 00 00 00 00 00 00 00 00 00    ................
    0x10076360:   00 00 00 00 00 00 00 00 00 00 00 00 00 00 00 00    ................
    0x10076370:   00 00 00 00 00 00 00 00 00 00 00 00 00 00 00 00    ................
    0x10076380:   00 00 00 00 00 00 00 00 00 00 00 00 00 00 00 00    ................
    0x10076390:   00 00 00 00 00 00 00 00 00 00 00 00 00 00 00 00    ................
    0x100763a0:   00 00 00 00 00 00 00 00 00 00 00 00 00 00 00 00    ................
    0x100763b0:   00 00 00 00 00 00 00 00 00 00 00 00 00 00 00 00    ................
    0x100763c0:   00 00 00 00 00 00 00 00 00 00 00 00 00 00 00 00    ................
    0x100763d0:   00 00 00 00 00 00 00 00 00 00 00 00 00 00 00 00    ................
    0x100763e0:   00 00 00 00 00 00 00 00 00 00 00 00 00 00 00 00    ................
    0x100763f0:   00 00 00 00 00 00 00 00 00 00 00 00 00 00 00 00    ................
    0x10076400:   00 00 00 00 00 00 00 00 00 00 00 00 00 00 00 00    ................
    0x10076410:   00 00 00 00 00 00 00 00 00 00 00 00 00 00 00 00    ................
    0x10076420:   00 00 00 00 00 00 00 00 00 00 00 00 00 00 00 00    ................
    0x10076430:   00 00 00 00 00 00 00 00 00 00 00 00 00 00 00 00    ................
    0x10076440:   00 00 00 00 00 00 00 00 00 00 00 00 00 00 00 00    ................
    0x10076450:   00 00 00 00 00 00 00 00 00 00 00 00 00 00 00 00    ................
    0x10076460:   00 00 00 00 00 00 00 00 00 00 00 00 00 00 00 00    ................
    0x10076470:   00 00 00 00 00 00 00 00 00 00 00 00 00 00 00 00    ................
    0x10076480:   00 00 00 00 00 00 00 00 00 00 00 00 00 00 00 00    ................
    0x10076490:   00 00 00 00 00 00 00 00 00 00 00 00 00 00 00 00    ................
    0x100764a0:   00 00 00 00 00 00 00 00 00 00 00 00 00 00 00 00    ................
    0x100764b0:   00 00 00 00 00 00 00 00 00 00 00 00 00 00 00 00    ................
    0x100764c0:   00 00 00 00 00 00 00 00 00 00 00 00 00 00 00 00    ................
    0x100764d0:   00 00 00 00 00 00 00 00 00 00 00 00 00 00 00 00    ................
    0x100764e0:   00 00 00 00 00 00 00 00 00 00 00 00 00 00 00 00    ................
    0x100764f0:   00 00 00 00 00 00 00 00 00 00 00 00 00 00 00 00    ................
    0x10076500:   00 00 00 00 00 00 00 00 00 00 00 00 00 00 00 00    ................
    0x10076510:   00 00 00 00 00 00 00 00 00 00 00 00 00 00 00 00    ................
    0x10076520:   00 00 00 00 00 00 00 00 00 00 00 00 00 00 00 00    ................
    0x10076530:   00 00 00 00 00 00 00 00 00 00 00 00 00 00 00 00    ................
    0x10076540:   00 00 00 00 00 00 00 00 00 00 00 00 00 00 00 00    ................
    0x10076550:   00 00 00 00 00 00 00 00 00 00 00 00 00 00 00 00    ................
    0x10076560:   00 00 00 00 00 00 00 00 00 00 00 00 00 00 00 00    ................
    0x10076570:   00 00 00 00 00 00 00 00 00 00 00 00 00 00 00 00    ................
    0x10076580:   00 00 00 00 00 00 00 00 00 00 00 00 00 00 00 00    ................
    0x10076590:   00 00 00 00 00 00 00 00 00 00 00 00 00 00 00 00    ................
    0x100765a0:   00 00 00 00 00 00 00 00 00 00 00 00 00 00 00 00    ................
    0x100765b0:   00 00 00 00 00 00 00 00 00 00 00 00 00 00 00 00    ................
    0x100765c0:   00 00 00 00 00 00 00 00 00 00 00 00 00 00 00 00    ................
    0x100765d0:   00 00 00 00 00 00 00 00 00 00 00 00 00 00 00 00    ................
    0x100765e0:   00 00 00 00 00 00 00 00 00 00 00 00 00 00 00 00    ................
    0x100765f0:   00 00 00 00 00 00 00 00 00 00 00 00 00 00 00 00    ................
    0x10076600:   00 00 00 00 00 00 00 00 00 00 00 00 00 00 00 00    ................
    0x10076610:   00 00 00 00 00 00 00 00 00 00 00 00 00 00 00 00    ................
    0x10076620:   00 00 00 00 00 00 00 00 00 00 00 00 00 00 00 00    ................
    0x10076630:   00 00 00 00 00 00 00 00 00 00 00 00 00 00 00 00    ................
    0x10076640:   00 00 00 00 00 00 00 00 00 00 00 00 00 00 00 00    ................
    0x10076650:   00 00 00 00 00 00 00 00 00 00 00 00 00 00 00 00    ................
    0x10076660:   00 00 00 00 00 00 00 00 00 00 00 00 00 00 00 00    ................
    0x10076670:   00 00 00 00 00 00 00 00 00 00 00 00 00 00 00 00    ................
    0x10076680:   00 00 00 00 00 00 00 00 00 00 00 00 00 00 00 00    ................
    0x10076690:   00 00 00 00 00 00 00 00 00 00 00 00 00 00 00 00    ................
    0x100766a0:   00 00 00 00 00 00 00 00 00 00 00 00 00 00 00 00    ................
    0x100766b0:   00 00 00 00 00 00 00 00 00 00 00 00 00 00 00 00    ................
    0x100766c0:   00 00 00 00 00 00 00 00 00 00 00 00 00 00 00 00    ................
    0x100766d0:   00 00 00 00 00 00 00 00 00 00 00 00 00 00 00 00    ................
    0x100766e0:   00 00 00 00 00 00 00 00 00 00 00 00 00 00 00 00    ................
    0x100766f0:   00 00 00 00 00 00 00 00 00 00 00 00 00 00 00 00    ................
    0x10076700:   00 00 00 00 00 00 00 00 00 00 00 00 00 00 00 00    ................
    0x10076710:   00 00 00 00 00 00 00 00 00 00 00 00 00 00 00 00    ................
    0x10076720:   00 00 00 00 00 00 00 00 00 00 00 00 00 00 00 00    ................
    0x10076730:   00 00 00 00 00 00 00 00 00 00 00 00 00 00 00 00    ................
    0x10076740:   00 00 00 00 00 00 00 00 00 00 00 00 00 00 00 00    ................
    0x10076750:   00 00 00 00 00 00 00 00 00 00 00 00 00 00 00 00    ................
    0x10076760:   00 00 00 00 00 00 00 00 00 00 00 00 00 00 00 00    ................
    0x10076770:   00 00 00 00 00 00 00 00 00 00 00 00 00 00 00 00    ................
    0x10076780:   00 00 00 00 00 00 00 00 00 00 00 00 00 00 00 00    ................
    0x10076790:   00 00 00 00 00 00 00 00 00 00 00 00 00 00 00 00    ................
    0x100767a0:   00 00 00 00 00 00 00 00 00 00 00 00 00 00 00 00    ................
    0x100767b0:   00 00 00 00 00 00 00 00 00 00 00 00 00 00 00 00    ................
    0x100767c0:   00 00 00 00 00 00 00 00 00 00 00 00 00 00 00 00    ................
    0x100767d0:   00 00 00 00 00 00 00 00 00 00 00 00 00 00 00 00    ................
    0x100767e0:   00 00 00 00 00 00 00 00 00 00 00 00 00 00 00 00    ................
    0x100767f0:   00 00 00 00 00 00 00 00 00 00 00 00 00 00 00 00    ................
    0x10076800:   00 00 00 00 00 00 00 00 00 00 00 00 00 00 00 00    ................
    0x10076810:   00 00 00 00 00 00 00 00 00 00 00 00 00 00 00 00    ................
    0x10076820:   00 00 00 00 00 00 00 00 00 00 00 00 00 00 00 00    ................
    0x10076830:   00 00 00 00 00 00 00 00 00 00 00 00 00 00 00 00    ................
    0x10076840:   00 00 00 00 00 00 00 00 00 00 00 00 00 00 00 00    ................
    0x10076850:   00 00 00 00 00 00 00 00 00 00 00 00 00 00 00 00    ................
    0x10076860:   00 00 00 00 00 00 00 00 00 00 00 00 00 00 00 00    ................
    0x10076870:   00 00 00 00 00 00 00 00 00 00 00 00 00 00 00 00    ................
    0x10076880:   00 00 00 00 00 00 00 00 00 00 00 00 00 00 00 00    ................
    0x10076890:   00 00 00 00 00 00 00 00 00 00 00 00 00 00 00 00    ................
    0x100768a0:   00 00 00 00 00 00 00 00 00 00 00 00 00 00 00 00    ................
    0x100768b0:   00 00 00 00 00 00 00 00 00 00 00 00 00 00 00 00    ................
    0x100768c0:   00 00 00 00 00 00 00 00 00 00 00 00 00 00 00 00    ................
    0x100768d0:   00 00 00 00 00 00 00 00 00 00 00 00 00 00 00 00    ................
    0x100768e0:   00 00 00 00 00 00 00 00 00 00 00 00 00 00 00 00    ................
    0x100768f0:   00 00 00 00 00 00 00 00 00 00 00 00 00 00 00 00    ................
    0x10076900:   00 00 00 00 00 00 00 00 00 00 00 00 00 00 00 00    ................
    0x10076910:   00 00 00 00 00 00 00 00 00 00 00 00 00 00 00 00    ................
    0x10076920:   00 00 00 00 00 00 00 00 00 00 00 00 00 00 00 00    ................
    0x10076930:   00 00 00 00 00 00 00 00 00 00 00 00 00 00 00 00    ................
    0x10076940:   00 00 00 00 00 00 00 00 00 00 00 00 00 00 00 00    ................
    0x10076950:   00 00 00 00 00 00 00 00 00 00 00 00 00 00 00 00    ................
    0x10076960:   00 00 00 00 00 00 00 00 00 00 00 00 00 00 00 00    ................
    0x10076970:   00 00 00 00 00 00 00 00 00 00 00 00 00 00 00 00    ................
    0x10076980:   00 00 00 00 00 00 00 00 00 00 00 00 00 00 00 00    ................
    0x10076990:   00 00 00 00 00 00 00 00 00 00 00 00 00 00 00 00    ................
    0x100769a0:   00 00 00 00 00 00 00 00 00 00 00 00 00 00 00 00    ................
    0x100769b0:   00 00 00 00 00 00 00 00 00 00 00 00 00 00 00 00    ................
    0x100769c0:   00 00 00 00 00 00 00 00 00 00 00 00 00 00 00 00    ................
    0x100769d0:   00 00 00 00 00 00 00 00 00 00 00 00 00 00 00 00    ................
    0x100769e0:   00 00 00 00 00 00 00 00 00 00 00 00 00 00 00 00    ................
    0x100769f0:   00 00 00 00 00 00 00 00 00 00 00 00 00 00 00 00    ................
    0x10076a00:   00 00 00 00 00 00 00 00 00 00 00 00 00 00 00 00    ................
    0x10076a10:   00 00 00 00 00 00 00 00 00 00 00 00 00 00 00 00    ................
    0x10076a20:   00 00 00 00 00 00 00 00 00 00 00 00 00 00 00 00    ................
    0x10076a30:   00 00 00 00 00 00 00 00 00 00 00 00 00 00 00 00    ................
    0x10076a40:   00 00 00 00 00 00 00 00 00 00 00 00 00 00 00 00    ................
    0x10076a50:   00 00 00 00 00 00 00 00 00 00 00 00 00 00 00 00    ................
    0x10076a60:   00 00 00 00 00 00 00 00 00 00 00 00 00 00 00 00    ................
    0x10076a70:   00 00 00 00 00 00 00 00 00 00 00 00 00 00 00 00    ................
    0x10076a80:   00 00 00 00 00 00 00 00 00 00 00 00 00 00 00 00    ................
    0x10076a90:   00 00 00 00 00 00 00 00 00 00 00 00 00 00 00 00    ................
    0x10076aa0:   00 00 00 00 00 00 00 00 00 00 00 00 00 00 00 00    ................
    0x10076ab0:   00 00 00 00 00 00 00 00 00 00 00 00 00 00 00 00    ................
    0x10076ac0:   00 00 00 00 00 00 00 00 00 00 00 00 00 00 00 00    ................
    0x10076ad0:   00 00 00 00 00 00 00 00 00 00 00 00 00 00 00 00    ................
    0x10076ae0:   00 00 00 00 00 00 00 00 00 00 00 00 00 00 00 00    ................
    0x10076af0:   00 00 00 00 00 00 00 00 00 00 00 00 00 00 00 00    ................
    0x10076b00:   00 00 00 00 00 00 00 00 00 00 00 00 00 00 00 00    ................
    0x10076b10:   00 00 00 00 00 00 00 00 00 00 00 00 00 00 00 00    ................
    0x10076b20:   00 00 00 00 00 00 00 00 00 00 00 00 00 00 00 00    ................
    0x10076b30:   00 00 00 00 00 00 00 00 00 00 00 00 00 00 00 00    ................
    0x10076b40:   00 00 00 00 00 00 00 00 00 00 00 00 00 00 00 00    ................
    0x10076b50:   00 00 00 00 00 00 00 00 00 00 00 00 00 00 00 00    ................
    0x10076b60:   00 00 00 00 00 00 00 00 00 00 00 00 00 00 00 00    ................
    0x10076b70:   00 00 00 00 00 00 00 00 00 00 00 00 00 00 00 00    ................
    0x10076b80:   00 00 00 00 00 00 00 00 00 00 00 00 00 00 00 00    ................
    0x10076b90:   00 00 00 00 00 00 00 00 00 00 00 00 00 00 00 00    ................
    0x10076ba0:   00 00 00 00 00 00 00 00 00 00 00 00 00 00 00 00    ................
    0x10076bb0:   00 00 00 00 00 00 00 00 00 00 00 00 00 00 00 00    ................
    0x10076bc0:   00 00 00 00 00 00 00 00 00 00 00 00 00 00 00 00    ................
    0x10076bd0:   00 00 00 00 00 00 00 00 00 00 00 00 00 00 00 00    ................
    0x10076be0:   00 00 00 00 00 00 00 00 00 00 00 00 00 00 00 00    ................
    0x10076bf0:   00 00 00 00 00 00 00 00 00 00 00 00 00 00 00 00    ................
    0x10076c00:   00 00 00 00 00 00 00 00 00 00 00 00 00 00 00 00    ................
    0x10076c10:   00 00 00 00 00 00 00 00 00 00 00 00 00 00 00 00    ................
    0x10076c20:   00 00 00 00 00 00 00 00 00 00 00 00 00 00 00 00    ................
    0x10076c30:   00 00 00 00 00 00 00 00 00 00 00 00 00 00 00 00    ................
    0x10076c40:   00 00 00 00 00 00 00 00 00 00 00 00 00 00 00 00    ................
    0x10076c50:   00 00 00 00 00 00 00 00 00 00 00 00 00 00 00 00    ................
    0x10076c60:   00 00 00 00 00 00 00 00 00 00 00 00 00 00 00 00    ................
    0x10076c70:   00 00 00 00 00 00 00 00 00 00 00 00 00 00 00 00    ................
    0x10076c80:   00 00 00 00 00 00 00 00 00 00 00 00 00 00 00 00    ................
    0x10076c90:   00 00 00 00 00 00 00 00 00 00 00 00 00 00 00 00    ................
    0x10076ca0:   00 00 00 00 00 00 00 00 00 00 00 00 00 00 00 00    ................
    0x10076cb0:   00 00 00 00 00 00 00 00 00 00 00 00 00 00 00 00    ................
    0x10076cc0:   00 00 00 00 00 00 00 00 00 00 00 00 00 00 00 00    ................
    0x10076cd0:   00 00 00 00 00 00 00 00 00 00 00 00 00 00 00 00    ................
    0x10076ce0:   00 00 00 00 00 00 00 00 00 00 00 00 00 00 00 00    ................
    0x10076cf0:   00 00 00 00 00 00 00 00 00 00 00 00 00 00 00 00    ................
    0x10076d00:   00 00 00 00 00 00 00 00 00 00 00 00 00 00 00 00    ................
    0x10076d10:   00 00 00 00 00 00 00 00 00 00 00 00 00 00 00 00    ................
    0x10076d20:   00 00 00 00 00 00 00 00 00 00 00 00 00 00 00 00    ................
    0x10076d30:   00 00 00 00 00 00 00 00 00 00 00 00 00 00 00 00    ................
    0x10076d40:   00 00 00 00 00 00 00 00 00 00 00 00 00 00 00 00    ................
    0x10076d50:   00 00 00 00 00 00 00 00 00 00 00 00 00 00 00 00    ................
    0x10076d60:   00 00 00 00 00 00 00 00 00 00 00 00 00 00 00 00    ................
    0x10076d70:   00 00 00 00 00 00 00 00 00 00 00 00 00 00 00 00    ................
    0x10076d80:   00 00 00 00 00 00 00 00 00 00 00 00 00 00 00 00    ................
    0x10076d90:   00 00 00 00 00 00 00 00 00 00 00 00 00 00 00 00    ................
    0x10076da0:   00 00 00 00 00 00 00 00 00 00 00 00 00 00 00 00    ................
    0x10076db0:   00 00 00 00 00 00 00 00 00 00 00 00 00 00 00 00    ................
    0x10076dc0:   00 00 00 00 00 00 00 00 00 00 00 00 00 00 00 00    ................
    0x10076dd0:   00 00 00 00 00 00 00 00 00 00 00 00 00 00 00 00    ................
    0x10076de0:   00 00 00 00 00 00 00 00 00 00 00 00 00 00 00 00    ................
    0x10076df0:   00 00 00 00 00 00 00 00 00 00 00 00 00 00 00 00    ................
    0x10076e00:   00 00 00 00 00 00 00 00 00 00 00 00 00 00 00 00    ................
    0x10076e10:   00 00 00 00 00 00 00 00 00 00 00 00 00 00 00 00    ................
    0x10076e20:   00 00 00 00 00 00 00 00 00 00 00 00 00 00 00 00    ................
    0x10076e30:   00 00 00 00 00 00 00 00 00 00 00 00 00 00 00 00    ................
    0x10076e40:   00 00 00 00 00 00 00 00 00 00 00 00 00 00 00 00    ................
    0x10076e50:   00 00 00 00 00 00 00 00 00 00 00 00 00 00 00 00    ................
    0x10076e60:   00 00 00 00 00 00 00 00 00 00 00 00 00 00 00 00    ................
    0x10076e70:   00 00 00 00 00 00 00 00 00 00 00 00 00 00 00 00    ................
    0x10076e80:   00 00 00 00 00 00 00 00 00 00 00 00 00 00 00 00    ................
    0x10076e90:   00 00 00 00 00 00 00 00 00 00 00 00 00 00 00 00    ................
    0x10076ea0:   00 00 00 00 00 00 00 00 00 00 00 00 00 00 00 00    ................
    0x10076eb0:   00 00 00 00 00 00 00 00 00 00 00 00 00 00 00 00    ................
    0x10076ec0:   00 00 00 00 00 00 00 00 00 00 00 00 00 00 00 00    ................
    0x10076ed0:   00 00 00 00 00 00 00 00 00 00 00 00 00 00 00 00    ................
    0x10076ee0:   00 00 00 00 00 00 00 00 00 00 00 00 00 00 00 00    ................
    0x10076ef0:   00 00 00 00 00 00 00 00 00 00 00 00 00 00 00 00    ................
    0x10076f00:   00 00 00 00 00 00 00 00 00 00 00 00 00 00 00 00    ................
    0x10076f10:   00 00 00 00 00 00 00 00 00 00 00 00 00 00 00 00    ................
    0x10076f20:   00 00 00 00 00 00 00 00 00 00 00 00 00 00 00 00    ................
    0x10076f30:   00 00 00 00 00 00 00 00 00 00 00 00 00 00 00 00    ................
    0x10076f40:   00 00 00 00 00 00 00 00 00 00 00 00 00 00 00 00    ................
    0x10076f50:   00 00 00 00 00 00 00 00 00 00 00 00 00 00 00 00    ................
    0x10076f60:   00 00 00 00 00 00 00 00 00 00 00 00 00 00 00 00    ................
    0x10076f70:   00 00 00 00 00 00 00 00 00 00 00 00 00 00 00 00    ................
    0x10076f80:   00 00 00 00 00 00 00 00 00 00 00 00 00 00 00 00    ................
    0x10076f90:   00 00 00 00 00 00 00 00 00 00 00 00 00 00 00 00    ................
    0x10076fa0:   00 00 00 00 00 00 00 00 00 00 00 00 00 00 00 00    ................
    0x10076fb0:   00 00 00 00 00 00 00 00 00 00 00 00 00 00 00 00    ................
    0x10076fc0:   00 00 00 00 00 00 00 00 00 00 00 00 00 00 00 00    ................
    0x10076fd0:   00 00 00 00 00 00 00 00 00 00 00 00 00 00 00 00    ................
    0x10076fe0:   00 00 00 00 00 00 00 00 00 00 00 00 00 00 00 00    ................
    0x10076ff0:   00 00 00 00 00 00 00 00 00 00 00 00 00 00 00 00    ................
    0x10077000:   00 00 00 00 00 00 00 00 00 00 00 00 00 00 00 00    ................
    0x10077010:   00 00 00 00 00 00 00 00 00 00 00 00 00 00 00 00    ................
    0x10077020:   00 00 00 00 00 00 00 00 00 00 00 00 00 00 00 00    ................
    0x10077030:   00 00 00 00 00 00 00 00 00 00 00 00 00 00 00 00    ................
    0x10077040:   00 00 00 00 00 00 00 00 00 00 00 00 00 00 00 00    ................
    0x10077050:   00 00 00 00 00 00 00 00 00 00 00 00 00 00 00 00    ................
    0x10077060:   00 00 00 00 00 00 00 00 00 00 00 00 00 00 00 00    ................
    0x10077070:   00 00 00 00 00 00 00 00 00 00 00 00 00 00 00 00    ................
    0x10077080:   00 00 00 00 00 00 00 00 00 00 00 00 00 00 00 00    ................
    0x10077090:   00 00 00 00 00 00 00 00 00 00 00 00 00 00 00 00    ................
    0x100770a0:   00 00 00 00 00 00 00 00 00 00 00 00 00 00 00 00    ................
    0x100770b0:   00 00 00 00 00 00 00 00 00 00 00 00 00 00 00 00    ................
    0x100770c0:   00 00 00 00 00 00 00 00 00 00 00 00 00 00 00 00    ................
    0x100770d0:   00 00 00 00 00 00 00 00 00 00 00 00 00 00 00 00    ................
    0x100770e0:   00 00 00 00 00 00 00 00 00 00 00 00 00 00 00 00    ................
    0x100770f0:   00 00 00 00 00 00 00 00 00 00 00 00 00 00 00 00    ................
    0x10077100:   00 00 00 00 00 00 00 00 00 00 00 00 00 00 00 00    ................
    0x10077110:   00 00 00 00 00 00 00 00 00 00 00 00 00 00 00 00    ................
    0x10077120:   00 00 00 00 00 00 00 00 00 00 00 00 00 00 00 00    ................
    0x10077130:   00 00 00 00 00 00 00 00 00 00 00 00 00 00 00 00    ................
    0x10077140:   00 00 00 00 00 00 00 00 00 00 00 00 00 00 00 00    ................
    0x10077150:   00 00 00 00 00 00 00 00 00 00 00 00 00 00 00 00    ................
    0x10077160:   00 00 00 00 00 00 00 00 00 00 00 00 00 00 00 00    ................
    0x10077170:   00 00 00 00 00 00 00 00 00 00 00 00 00 00 00 00    ................
    0x10077180:   00 00 00 00 00 00 00 00 00 00 00 00 00 00 00 00    ................
    0x10077190:   00 00 00 00 00 00 00 00 00 00 00 00 00 00 00 00    ................
    0x100771a0:   00 00 00 00 00 00 00 00 00 00 00 00 00 00 00 00    ................
    0x100771b0:   00 00 00 00 00 00 00 00 00 00 00 00 00 00 00 00    ................
    0x100771c0:   00 00 00 00 00 00 00 00 00 00 00 00 00 00 00 00    ................
    0x100771d0:   00 00 00 00 00 00 00 00 00 00 00 00 00 00 00 00    ................
    0x100771e0:   00 00 00 00 00 00 00 00 00 00 00 00 00 00 00 00    ................
    0x100771f0:   00 00 00 00 00 00 00 00 00 00 00 00 00 00 00 00    ................
    0x10077200:   00 00 00 00 00 00 00 00 00 00 00 00 00 00 00 00    ................
    0x10077210:   00 00 00 00 00 00 00 00 00 00 00 00 00 00 00 00    ................
    0x10077220:   00 00 00 00 00 00 00 00 00 00 00 00 00 00 00 00    ................
    0x10077230:   00 00 00 00 00 00 00 00 00 00 00 00 00 00 00 00    ................
    0x10077240:   00 00 00 00 00 00 00 00 00 00 00 00 00 00 00 00    ................
    0x10077250:   00 00 00 00 00 00 00 00 00 00 00 00 00 00 00 00    ................
    0x10077260:   00 00 00 00 00 00 00 00 00 00 00 00 00 00 00 00    ................
    0x10077270:   00 00 00 00 00 00 00 00 00 00 00 00 00 00 00 00    ................
    0x10077280:   00 00 00 00 00 00 00 00 00 00 00 00 00 00 00 00    ................
    0x10077290:   00 00 00 00 00 00 00 00 00 00 00 00 00 00 00 00    ................
    0x100772a0:   00 00 00 00 00 00 00 00 00 00 00 00 00 00 00 00    ................
    0x100772b0:   00 00 00 00 00 00 00 00 00 00 00 00 00 00 00 00    ................
    0x100772c0:   00 00 00 00 00 00 00 00 00 00 00 00 00 00 00 00    ................
    0x100772d0:   00 00 00 00 00 00 00 00 00 00 00 00 00 00 00 00    ................
    0x100772e0:   00 00 00 00 00 00 00 00 00 00 00 00 00 00 00 00    ................
    0x100772f0:   00 00 00 00 00 00 00 00 00 00 00 00 00 00 00 00    ................
    0x10077300:   00 00 00 00 00 00 00 00 00 00 00 00 00 00 00 00    ................
    0x10077310:   00 00 00 00 00 00 00 00 00 00 00 00 00 00 00 00    ................
    0x10077320:   00 00 00 00 00 00 00 00 00 00 00 00 00 00 00 00    ................
    0x10077330:   00 00 00 00 00 00 00 00 00 00 00 00 00 00 00 00    ................
    0x10077340:   00 00 00 00 00 00 00 00 00 00 00 00 00 00 00 00    ................
    0x10077350:   00 00 00 00 00 00 00 00 00 00 00 00 00 00 00 00    ................
    0x10077360:   00 00 00 00 00 00 00 00 00 00 00 00 00 00 00 00    ................
    0x10077370:   00 00 00 00 00 00 00 00 00 00 00 00 00 00 00 00    ................
    0x10077380:   00 00 00 00 00 00 00 00 00 00 00 00 00 00 00 00    ................
    0x10077390:   00 00 00 00 00 00 00 00 00 00 00 00 00 00 00 00    ................
    0x100773a0:   00 00 00 00 00 00 00 00 00 00 00 00 00 00 00 00    ................
    0x100773b0:   00 00 00 00 00 00 00 00 00 00 00 00 00 00 00 00    ................
    0x100773c0:   00 00 00 00 00 00 00 00 00 00 00 00 00 00 00 00    ................
    0x100773d0:   00 00 00 00 00 00 00 00 00 00 00 00 00 00 00 00    ................
    0x100773e0:   00 00 00 00 00 00 00 00 00 00 00 00 00 00 00 00    ................
    0x100773f0:   00 00 00 00 00 00 00 00 00 00 00 00 00 00 00 00    ................
    0x10077400:   00 00 00 00 00 00 00 00 00 00 00 00 00 00 00 00    ................
    0x10077410:   00 00 00 00 00 00 00 00 00 00 00 00 00 00 00 00    ................
    0x10077420:   00 00 00 00 00 00 00 00 00 00 00 00 00 00 00 00    ................
    0x10077430:   00 00 00 00 00 00 00 00 00 00 00 00 00 00 00 00    ................
    0x10077440:   00 00 00 00 00 00 00 00 00 00 00 00 00 00 00 00    ................
    0x10077450:   00 00 00 00 00 00 00 00 00 00 00 00 00 00 00 00    ................
    0x10077460:   00 00 00 00 00 00 00 00 00 00 00 00 00 00 00 00    ................
    0x10077470:   00 00 00 00 00 00 00 00 00 00 00 00 00 00 00 00    ................
    0x10077480:   00 00 00 00 00 00 00 00 00 00 00 00 00 00 00 00    ................
    0x10077490:   00 00 00 00 00 00 00 00 00 00 00 00 00 00 00 00    ................
    0x100774a0:   00 00 00 00 00 00 00 00 00 00 00 00 00 00 00 00    ................
    0x100774b0:   00 00 00 00 00 00 00 00 00 00 00 00 00 00 00 00    ................
    0x100774c0:   00 00 00 00 00 00 00 00 00 00 00 00 00 00 00 00    ................
    0x100774d0:   00 00 00 00 00 00 00 00 00 00 00 00 00 00 00 00    ................
    0x100774e0:   00 00 00 00 00 00 00 00 00 00 00 00 00 00 00 00    ................
    0x100774f0:   00 00 00 00 00 00 00 00 00 00 00 00 00 00 00 00    ................
    0x10077500:   00 00 00 00 00 00 00 00 00 00 00 00 00 00 00 00    ................
    0x10077510:   00 00 00 00 00 00 00 00 00 00 00 00 00 00 00 00    ................
    0x10077520:   00 00 00 00 00 00 00 00 00 00 00 00 00 00 00 00    ................
    0x10077530:   00 00 00 00 00 00 00 00 00 00 00 00 00 00 00 00    ................
    0x10077540:   00 00 00 00 00 00 00 00 00 00 00 00 00 00 00 00    ................
    0x10077550:   00 00 00 00 00 00 00 00 00 00 00 00 00 00 00 00    ................
    0x10077560:   00 00 00 00 00 00 00 00 00 00 00 00 00 00 00 00    ................
    0x10077570:   00 00 00 00 00 00 00 00 00 00 00 00 00 00 00 00    ................
    0x10077580:   00 00 00 00 00 00 00 00 00 00 00 00 00 00 00 00    ................
    0x10077590:   00 00 00 00 00 00 00 00 00 00 00 00 00 00 00 00    ................
    0x100775a0:   00 00 00 00 00 00 00 00 00 00 00 00 00 00 00 00    ................
    0x100775b0:   00 00 00 00 00 00 00 00 00 00 00 00 00 00 00 00    ................
    0x100775c0:   00 00 00 00 00 00 00 00 00 00 00 00 00 00 00 00    ................
    0x100775d0:   00 00 00 00 00 00 00 00 00 00 00 00 00 00 00 00    ................
    0x100775e0:   00 00 00 00 00 00 00 00 00 00 00 00 00 00 00 00    ................
    0x100775f0:   00 00 00 00 00 00 00 00 00 00 00 00 00 00 00 00    ................
    0x10077600:   00 00 00 00 00 00 00 00 00 00 00 00 00 00 00 00    ................
    0x10077610:   00 00 00 00 00 00 00 00 00 00 00 00 00 00 00 00    ................
    0x10077620:   00 00 00 00 00 00 00 00 00 00 00 00 00 00 00 00    ................
    0x10077630:   00 00 00 00 00 00 00 00 00 00 00 00 00 00 00 00    ................
    0x10077640:   00 00 00 00 00 00 00 00 00 00 00 00 00 00 00 00    ................
    0x10077650:   00 00 00 00 00 00 00 00 00 00 00 00 00 00 00 00    ................
    0x10077660:   00 00 00 00 00 00 00 00 00 00 00 00 00 00 00 00    ................
    0x10077670:   00 00 00 00 00 00 00 00 00 00 00 00 00 00 00 00    ................
    0x10077680:   00 00 00 00 00 00 00 00 00 00 00 00 00 00 00 00    ................
    0x10077690:   00 00 00 00 00 00 00 00 00 00 00 00 00 00 00 00    ................
    0x100776a0:   00 00 00 00 00 00 00 00 00 00 00 00 00 00 00 00    ................
    0x100776b0:   00 00 00 00 00 00 00 00 00 00 00 00 00 00 00 00    ................
    0x100776c0:   00 00 00 00 00 00 00 00 00 00 00 00 00 00 00 00    ................
    0x100776d0:   00 00 00 00 00 00 00 00 00 00 00 00 00 00 00 00    ................
    0x100776e0:   00 00 00 00 00 00 00 00 00 00 00 00 00 00 00 00    ................
    0x100776f0:   00 00 00 00 00 00 00 00 00 00 00 00 00 00 00 00    ................
    0x10077700:   00 00 00 00 00 00 00 00 00 00 00 00 00 00 00 00    ................
    0x10077710:   00 00 00 00 00 00 00 00 00 00 00 00 00 00 00 00    ................
    0x10077720:   00 00 00 00 00 00 00 00 00 00 00 00 00 00 00 00    ................
    0x10077730:   00 00 00 00 00 00 00 00 00 00 00 00 00 00 00 00    ................
    0x10077740:   00 00 00 00 00 00 00 00 00 00 00 00 00 00 00 00    ................
    0x10077750:   00 00 00 00 00 00 00 00 00 00 00 00 00 00 00 00    ................
    0x10077760:   00 00 00 00 00 00 00 00 00 00 00 00 00 00 00 00    ................
    0x10077770:   00 00 00 00 00 00 00 00 00 00 00 00 00 00 00 00    ................
    0x10077780:   00 00 00 00 00 00 00 00 00 00 00 00 00 00 00 00    ................
    0x10077790:   00 00 00 00 00 00 00 00 00 00 00 00 00 00 00 00    ................
    0x100777a0:   00 00 00 00 00 00 00 00 00 00 00 00 00 00 00 00    ................
    0x100777b0:   00 00 00 00 00 00 00 00 00 00 00 00 00 00 00 00    ................
    0x100777c0:   00 00 00 00 00 00 00 00 00 00 00 00 00 00 00 00    ................
    0x100777d0:   00 00 00 00 00 00 00 00 00 00 00 00 00 00 00 00    ................
    0x100777e0:   00 00 00 00 00 00 00 00 00 00 00 00 00 00 00 00    ................
    0x100777f0:   00 00 00 00 00 00 00 00 00 00 00 00 00 00 00 00    ................
    0x10077800:   00 00 00 00 00 00 00 00 00 00 00 00 00 00 00 00    ................
    0x10077810:   00 00 00 00 00 00 00 00 00 00 00 00 00 00 00 00    ................
    0x10077820:   00 00 00 00 00 00 00 00 00 00 00 00 00 00 00 00    ................
    0x10077830:   00 00 00 00 00 00 00 00 00 00 00 00 00 00 00 00    ................
    0x10077840:   00 00 00 00 00 00 00 00 00 00 00 00 00 00 00 00    ................
    0x10077850:   00 00 00 00 00 00 00 00 00 00 00 00 00 00 00 00    ................
    0x10077860:   00 00 00 00 00 00 00 00 00 00 00 00 00 00 00 00    ................
    0x10077870:   00 00 00 00 00 00 00 00 00 00 00 00 00 00 00 00    ................
    0x10077880:   00 00 00 00 00 00 00 00 00 00 00 00 00 00 00 00    ................
    0x10077890:   00 00 00 00 00 00 00 00 00 00 00 00 00 00 00 00    ................
    0x100778a0:   00 00 00 00 00 00 00 00 00 00 00 00 00 00 00 00    ................
    0x100778b0:   00 00 00 00 00 00 00 00 00 00 00 00 00 00 00 00    ................
    0x100778c0:   00 00 00 00 00 00 00 00 00 00 00 00 00 00 00 00    ................
    0x100778d0:   00 00 00 00 00 00 00 00 00 00 00 00 00 00 00 00    ................
    0x100778e0:   00 00 00 00 00 00 00 00 00 00 00 00 00 00 00 00    ................
    0x100778f0:   00 00 00 00 00 00 00 00 00 00 00 00 00 00 00 00    ................
    0x10077900:   00 00 00 00 00 00 00 00 00 00 00 00 00 00 00 00    ................
    0x10077910:   00 00 00 00 00 00 00 00 00 00 00 00 00 00 00 00    ................
    0x10077920:   00 00 00 00 00 00 00 00 00 00 00 00 00 00 00 00    ................
    0x10077930:   00 00 00 00 00 00 00 00 00 00 00 00 00 00 00 00    ................
    0x10077940:   00 00 00 00 00 00 00 00 00 00 00 00 00 00 00 00    ................
    0x10077950:   00 00 00 00 00 00 00 00 00 00 00 00 00 00 00 00    ................
    0x10077960:   00 00 00 00 00 00 00 00 00 00 00 00 00 00 00 00    ................
    0x10077970:   00 00 00 00 00 00 00 00 00 00 00 00 00 00 00 00    ................
    0x10077980:   00 00 00 00 00 00 00 00 00 00 00 00 00 00 00 00    ................
    0x10077990:   00 00 00 00 00 00 00 00 00 00 00 00 00 00 00 00    ................
    0x100779a0:   00 00 00 00 00 00 00 00 00 00 00 00 00 00 00 00    ................
    0x100779b0:   00 00 00 00 00 00 00 00 00 00 00 00 00 00 00 00    ................
    0x100779c0:   00 00 00 00 00 00 00 00 00 00 00 00 00 00 00 00    ................
    0x100779d0:   00 00 00 00 00 00 00 00 00 00 00 00 00 00 00 00    ................
    0x100779e0:   00 00 00 00 00 00 00 00 00 00 00 00 00 00 00 00    ................
    0x100779f0:   00 00 00 00 00 00 00 00 00 00 00 00 00 00 00 00    ................
    0x10077a00:   00 00 00 00 00 00 00 00 00 00 00 00 00 00 00 00    ................
    0x10077a10:   00 00 00 00 00 00 00 00 00 00 00 00 00 00 00 00    ................
    0x10077a20:   00 00 00 00 00 00 00 00 00 00 00 00 00 00 00 00    ................
    0x10077a30:   00 00 00 00 00 00 00 00 00 00 00 00 00 00 00 00    ................
    0x10077a40:   00 00 00 00 00 00 00 00 00 00 00 00 00 00 00 00    ................
    0x10077a50:   00 00 00 00 00 00 00 00 00 00 00 00 00 00 00 00    ................
    0x10077a60:   00 00 00 00 00 00 00 00 00 00 00 00 00 00 00 00    ................
    0x10077a70:   00 00 00 00 00 00 00 00 00 00 00 00 00 00 00 00    ................
    0x10077a80:   00 00 00 00 00 00 00 00 00 00 00 00 00 00 00 00    ................
    0x10077a90:   00 00 00 00 00 00 00 00 00 00 00 00 00 00 00 00    ................
    0x10077aa0:   00 00 00 00 00 00 00 00 00 00 00 00 00 00 00 00    ................
    0x10077ab0:   00 00 00 00 00 00 00 00 00 00 00 00 00 00 00 00    ................
    0x10077ac0:   00 00 00 00 00 00 00 00 00 00 00 00 00 00 00 00    ................
    0x10077ad0:   00 00 00 00 00 00 00 00 00 00 00 00 00 00 00 00    ................
    0x10077ae0:   00 00 00 00 00 00 00 00 00 00 00 00 00 00 00 00    ................
    0x10077af0:   00 00 00 00 00 00 00 00 00 00 00 00 00 00 00 00    ................
    0x10077b00:   00 00 00 00 00 00 00 00 00 00 00 00 00 00 00 00    ................
    0x10077b10:   00 00 00 00 00 00 00 00 00 00 00 00 00 00 00 00    ................
    0x10077b20:   00 00 00 00 00 00 00 00 00 00 00 00 00 00 00 00    ................
    0x10077b30:   00 00 00 00 00 00 00 00 00 00 00 00 00 00 00 00    ................
    0x10077b40:   00 00 00 00 00 00 00 00 00 00 00 00 00 00 00 00    ................
    0x10077b50:   00 00 00 00 00 00 00 00 00 00 00 00 00 00 00 00    ................
    0x10077b60:   00 00 00 00 00 00 00 00 00 00 00 00 00 00 00 00    ................
    0x10077b70:   00 00 00 00 00 00 00 00 00 00 00 00 00 00 00 00    ................
    0x10077b80:   00 00 00 00 00 00 00 00 00 00 00 00 00 00 00 00    ................
    0x10077b90:   00 00 00 00 00 00 00 00 00 00 00 00 00 00 00 00    ................
    0x10077ba0:   00 00 00 00 00 00 00 00 00 00 00 00 00 00 00 00    ................
    0x10077bb0:   00 00 00 00 00 00 00 00 00 00 00 00 00 00 00 00    ................
    0x10077bc0:   00 00 00 00 00 00 00 00 00 00 00 00 00 00 00 00    ................
    0x10077bd0:   00 00 00 00 00 00 00 00 00 00 00 00 00 00 00 00    ................
    0x10077be0:   00 00 00 00 00 00 00 00 00 00 00 00 00 00 00 00    ................
    0x10077bf0:   00 00 00 00 00 00 00 00 00 00 00 00 00 00 00 00    ................
    0x10077c00:   00 00 00 00 00 00 00 00 00 00 00 00 00 00 00 00    ................
    0x10077c10:   00 00 00 00 00 00 00 00 00 00 00 00 00 00 00 00    ................
    0x10077c20:   00 00 00 00 00 00 00 00 00 00 00 00 00 00 00 00    ................
    0x10077c30:   00 00 00 00 00 00 00 00 00 00 00 00 00 00 00 00    ................
    0x10077c40:   00 00 00 00 00 00 00 00 00 00 00 00 00 00 00 00    ................
    0x10077c50:   00 00 00 00 00 00 00 00 00 00 00 00 00 00 00 00    ................
    0x10077c60:   00 00 00 00 00 00 00 00 00 00 00 00 00 00 00 00    ................
    0x10077c70:   00 00 00 00 00 00 00 00 00 00 00 00 00 00 00 00    ................
    0x10077c80:   00 00 00 00 00 00 00 00 00 00 00 00 00 00 00 00    ................
    0x10077c90:   00 00 00 00 00 00 00 00 00 00 00 00 00 00 00 00    ................
    0x10077ca0:   00 00 00 00 00 00 00 00 00 00 00 00 00 00 00 00    ................
    0x10077cb0:   00 00 00 00 00 00 00 00 00 00 00 00 00 00 00 00    ................
    0x10077cc0:   00 00 00 00 00 00 00 00 00 00 00 00 00 00 00 00    ................
    0x10077cd0:   00 00 00 00 00 00 00 00 00 00 00 00 00 00 00 00    ................
    0x10077ce0:   00 00 00 00 00 00 00 00 00 00 00 00 00 00 00 00    ................
    0x10077cf0:   00 00 00 00 00 00 00 00 00 00 00 00 00 00 00 00    ................
    0x10077d00:   00 00 00 00 00 00 00 00 00 00 00 00 00 00 00 00    ................
    0x10077d10:   00 00 00 00 00 00 00 00 00 00 00 00 00 00 00 00    ................
    0x10077d20:   00 00 00 00 00 00 00 00 00 00 00 00 00 00 00 00    ................
    0x10077d30:   00 00 00 00 00 00 00 00 00 00 00 00 00 00 00 00    ................
    0x10077d40:   00 00 00 00 00 00 00 00 00 00 00 00 00 00 00 00    ................
    0x10077d50:   00 00 00 00 00 00 00 00                            ........


** Section #5 '.debug_abbrev' (SHT_PROGBITS)
    Size   : 1476 bytes


** Section #6 '.debug_frame' (SHT_PROGBITS)
    Size   : 3036 bytes


** Section #7 '.debug_info' (SHT_PROGBITS)
    Size   : 1009512 bytes


** Section #8 '.debug_line' (SHT_PROGBITS)
    Size   : 7040 bytes


** Section #9 '.debug_loc' (SHT_PROGBITS)
    Size   : 4360 bytes


** Section #10 '.debug_macinfo' (SHT_PROGBITS)
    Size   : 707104 bytes


** Section #11 '.debug_pubnames' (SHT_PROGBITS)
    Size   : 1098 bytes


** Section #12 '.symtab' (SHT_SYMTAB)
    Size   : 10976 bytes (alignment 4)
    String table #13 '.strtab'
    Last local symbol no. 424

    Symbol table .symtab (685 symbols, 424 local)

      #  Symbol Name                Value      Bind  Sec  Type  Vis  Size
    ========================================================================

      1  $d                         0x00018000   Lc    1   --   De 
      2  $t                         0x00018200   Lc    1   --   De 
      3  $d                         0x00018230   Lc    1   --   De 
      4  $t                         0x00018234   Lc    1   --   De 
      5  $d                         0x00018268   Lc    1   --   De 
      6  $t                         0x00018270   Lc    1   --   De 
      7  $d                         0x00018354   Lc    1   --   De 
      8  $t                         0x00018358   Lc    1   --   De 
      9  $d                         0x000183a8   Lc    1   --   De 
     10  $t                         0x000183ac   Lc    1   --   De 
     11  $d                         0x000183b6   Lc    1   --   De 
     12  $t                         0x000183c4   Lc    1   --   De 
     13  $d                         0x0001852e   Lc    1   --   De 
     14  $t                         0x0001853c   Lc    1   --   De 
     15  $d                         0x000185a4   Lc    1   --   De 
     16  $t                         0x000185a8   Lc    1   --   De 
     17  $d                         0x000185b0   Lc    1   --   De 
     18  $t                         0x000185b4   Lc    1   --   De 
     19  $d                         0x00018618   Lc    1   --   De 
     20  $t                         0x0001861c   Lc    1   --   De 
     21  $d                         0x0001867e   Lc    1   --   De 
     22  $t                         0x00018694   Lc    1   --   De 
     23  $d                         0x00018710   Lc    1   --   De 
     24  $t                         0x00018728   Lc    1   --   De 
     25  $d                         0x00018764   Lc    1   --   De 
     26  $t                         0x0001876c   Lc    1   --   De 
     27  $d                         0x0001877c   Lc    1   --   De 
     28  $t                         0x0001879c   Lc    1   --   De 
     29  $d                         0x000189c0   Lc    1   --   De 
     30  $t                         0x000189cc   Lc    1   --   De 
     31  $d                         0x00018a5c   Lc    1   --   De 
     32  $t                         0x00018a64   Lc    1   --   De 
     33  $d                         0x00018ada   Lc    1   --   De 
     34  $t                         0x00018ae4   Lc    1   --   De 
     35  $d                         0x00018b68   Lc    1   --   De 
     36  $t                         0x00018b74   Lc    1   --   De 
     37  $d                         0x00018c4a   Lc    1   --   De 
     38  $t                         0x00018c58   Lc    1   --   De 
     39  $d                         0x00018c7a   Lc    1   --   De 
     40  $t                         0x00018c84   Lc    1   --   De 
     41  $d                         0x00018cd4   Lc    1   --   De 
     42  $t                         0x00018cdc   Lc    1   --   De 
     43  $d                         0x00018d38   Lc    1   --   De 
     44  $t                         0x00018d40   Lc    1   --   De 
     45  $d                         0x00018df0   Lc    1   --   De 
     46  $t                         0x00018dfc   Lc    1   --   De 
     47  $d                         0x00018fdc   Lc    1   --   De 
     48  $t                         0x00018fe8   Lc    1   --   De 
     49  $d                         0x00019010   Lc    1   --   De 
     50  $t                         0x00019014   Lc    1   --   De 
     51  $d                         0x0001904c   Lc    1   --   De 
     52  $t                         0x00019054   Lc    1   --   De 
     53  $d                         0x0001910a   Lc    1   --   De 
     54  $t                         0x00019114   Lc    1   --   De 
     55  $d                         0x00019150   Lc    1   --   De 
     56  $t                         0x00019154   Lc    1   --   De 
     57  $d                         0x00019206   Lc    1   --   De 
     58  $t                         0x00019210   Lc    1   --   De 
     59  $d                         0x0001923e   Lc    1   --   De 
     60  $t                         0x00019244   Lc    1   --   De 
     61  $d                         0x0001927e   Lc    1   --   De 
     62  $t                         0x00019288   Lc    1   --   De 
     63  $d                         0x000192ac   Lc    1   --   De 
     64  $t                         0x000192b4   Lc    1   --   De 
     65  $d                         0x00019470   Lc    1   --   De 
     66  $t                         0x00019474   Lc    1   --   De 
     67  $d                         0x000194ac   Lc    1   --   De 
     68  $t                         0x000194b4   Lc    1   --   De 
     69  $d                         0x00019576   Lc    1   --   De 
     70  $t                         0x00019580   Lc    1   --   De 
     71  $d                         0x000195ac   Lc    1   --   De 
     72  $t                         0x000195c8   Lc    1   --   De 
     73  $d                         0x0001961e   Lc    1   --   De 
     74  $t                         0x00019624   Lc    1   --   De 
     75  $d                         0x000198c6   Lc    1   --   De 
     76  $t                         0x000198d8   Lc    1   --   De 
     77  $d                         0x000199ea   Lc    1   --   De 
     78  $t                         0x00019a04   Lc    1   --   De 
     79  $d                         0x00019aaa   Lc    1   --   De 
     80  $t                         0x00019ab8   Lc    1   --   De 
     81  $d                         0x00019b0a   Lc    1   --   De 
     82  $t                         0x00019b24   Lc    1   --   De 
     83  $d                         0x00019d14   Lc    1   --   De 
     84  $t                         0x0001a07c   Lc    1   --   De 
     85  $d                         0x0001a0a8   Lc    1   --   De 
     86  $t                         0x0001a0b0   Lc    1   --   De 
     87  $d                         0x0001a0b6   Lc    1   --   De 
     88  $t                         0x0001a0bc   Lc    1   --   De 
     89  $d                         0x0001a0dc   Lc    1   --   De 
     90  $t                         0x0001a0f8   Lc    1   --   De 
     91  $d                         0x0001a518   Lc    1   --   De 
     92  $t                         0x0001a51c   Lc    1   --   De 
     93  $d                         0x0001a82c   Lc    1   --   De 
     94  $t                         0x0001a838   Lc    1   --   De 
     95  $d                         0x0001a906   Lc    1   --   De 
     96  $t                         0x0001a910   Lc    1   --   De 
     97  $d                         0x0001acd8   Lc    1   --   De 
     98  $t                         0x0001adec   Lc    1   --   De 
     99  $d                         0x0001aeb6   Lc    1   --   De 
    100  $t                         0x0001af2c   Lc    1   --   De 
    101  $d                         0x0001b168   Lc    1   --   De 
    102  $t                         0x0001b16c   Lc    1   --   De 
    103  $d                         0x0001b1ea   Lc    1   --   De 
    104  $t                         0x0001b1ee   Lc    1   --   De 
    105  $d.realdata                0x0001b22c   Lc    1   --   De 
    106  $d.realdata                0x10000000   Lc    2   --   De 
    107  $d.realdata                0x10060000   Lc    4   --   De 
    108  ..\src\am_resources.c      0x00000000   Lc  Abs  File  De 
    109  ../src/am_resources.c      0x00000000   Lc  Abs  File  De 
    110  .constdata                 0x0001b22c   Lc    1  Sect  De   0x6c
    111  __tagsym$$used             0x0001b22c   Lc    1   --   De 
    112  __tagsym$$used             0x0001b240   Lc    1   --   De 
    113  __tagsym$$used             0x0001b254   Lc    1   --   De 
    114  __tagsym$$used             0x0001b268   Lc    1   --   De 
    115  __tagsym$$used             0x0001b27c   Lc    1   --   De 
    116  RESOURCE_TABLE             0x10060000   Lc    4  Sect  De   0x4
    117  __tagsym$$used             0x10060000   Lc    4   --   De 
    118  SHARED_RW                  0x10060004   Lc    4  Sect  De   0x3c
    119  __tagsym$$used             0x10060004   Lc    4   --   De 
    120  __tagsym$$used             0x10060018   Lc    4   --   De 
    121  __tagsym$$used             0x1006002c   Lc    4   --   De 
    122  ..\src\tdm_loopback.c      0x00000000   Lc  Abs  File  De 
    123  ../src/tdm_loopback.c      0x00000000   Lc  Abs  File  De 
    124  i.am_dspi2s0_isr           0x00018728   Lc    1  Sect  De 
    125  i.main                     0x0001a910   Lc    1  Sect  De 
    126  .bss                       0x1000011c   Lc    3  Sect  De   0xc
    127  .bss                       0x10000128   Lc    3  Sect  De   0x10
    128  g_sI2SIOConfig             0x10000128   Lc    3  Data  De   0x10
    129  .constdata                 0x0001b298   Lc    1  Sect  De   0x18
    130  ui32I2sWordLength          0x0001b298   Lc    1  Data  De   0x18
    131  .data                      0x10000000   Lc    2  Sect  De   0x98
    132  g_ui32TestLoop             0x10000000   Lc    2  Data  De   0x4
    133  g_sI2SDataConfig           0x10000008   Lc    2  Data  De   0x60
    134  g_sI2S0Config              0x10000068   Lc    2  Data  De   0x18
    135  sTransfer0                 0x10000080   Lc    2  Data  De   0x18
    136  SHARED_RW                  0x10060040   Lc    4  Sect  De   0x17d18
    137  __tagsym$$used             0x10060040   Lc    4   --   De 
    138  __tagsym$$used             0x10067f4c   Lc    4   --   De 
    139  __tagsym$$used             0x1006fe58   Lc    4   --   De 
    140  __tagsym$$used             0x10073dd8   Lc    4   --   De 
    141  ..\..\..\..\..\..\utils\am_util_delay.c
                                    0x00000000   Lc  Abs  File  De 
    142  ../../../../../../utils/am_util_delay.c
                                    0x00000000   Lc  Abs  File  De 
    143  i.am_util_delay_ms         0x00019b24   Lc    1  Sect  De 
    144  i.am_util_delay_us         0x00019b2e   Lc    1  Sect  De 
    145  ..\..\..\..\..\..\utils\am_util_faultisr.c
                                    0x00000000   Lc  Abs  File  De 
    146  .emb_text                  0x00018334   Lc    1  Sect  De   0x2c
    147  $v0                        0x00018334   Lc    1   --   De 
    148  ../../../../../../utils/am_util_faultisr.c
                                    0x00000000   Lc  Abs  File  De 
    149  i.am_util_faultisr_collect_data
                                    0x00019b34   Lc    1  Sect  De 
    150  .bss                       0x10000138   Lc    3  Sect  De   0x200
    151  .conststring               0x0001b4b8   Lc    1  Sect  De   0x43
    152  ../../../../../../utils/am_util_stdio.c
                                    0x00000000   Lc  Abs  File  De 
    153  i.am_util_stdio_printf     0x0001a07c   Lc    1  Sect  De 
    154  i.am_util_stdio_printf_init
                                    0x0001a0b0   Lc    1  Sect  De 
    155  i.am_util_stdio_terminal_clear
                                    0x0001a0bc   Lc    1  Sect  De 
    156  i.am_util_stdio_vsprintf   0x0001a0f8   Lc    1  Sect  De 
    157  i.ndigits_in_u64           0x0001af2c   Lc    1  Sect  De 
    158  ndigits_in_u64             0x0001af2d   Lc    1  Code  De   0xc6
    159  i.uint64_to_str            0x0001aff2   Lc    1  Sect  De 
    160  uint64_to_str              0x0001aff3   Lc    1  Code  De   0x126
    161  .bss                       0x10000338   Lc    3  Sect  De   0x400
    162  g_prfbuf                   0x10000338   Lc    3  Data  De   0x400
    163  .data                      0x10000098   Lc    2  Sect  De   0x8
    164  g_bTxtXlate                0x10000098   Lc    2  Data  De   0x1
    165  ../keil/startup_keil.s     0x00000000   Lc  Abs  File  De 
    166  STACK                      0x100008d8   Lc    3  Sect  De   0x1000
    167  StackMem                   0x100008d8   Lc    3  Data  De 
    168  HEAP                       0x100008d8   Lc    3  Sect  De 
    169  HeapMem                    0x100008d8   Lc    3  Data  De 
    170  RESET                      0x00018000   Lc    1  Sect  De   0x234
    171  $v0                        0x00018200   Lc    1   --   De 
    172  am_cryptosec_isr           0x0001822f   Lc    1  Code  De 
    173  am_default_isr             0x0001822f   Lc    1  Code  De   0x2
    174  .text                      0x000183ac   Lc    1  Sect  De   0x18
    175  $v0                        0x000183ac   Lc    1   --   De 
    176  ..\am_bsp.c                0x00000000   Lc  Abs  File  De 
    177  ../am_bsp.c                0x00000000   Lc  Abs  File  De 
    178  i.am_bsp_i2s_pins_disable  0x000185c0   Lc    1  Sect  De 
    179  i.am_bsp_i2s_pins_enable   0x0001861c   Lc    1  Sect  De 
    180  i.am_bsp_itm_printf_enable 0x00018694   Lc    1  Sect  De 
    181  .data                      0x100000a0   Lc    2  Sect  De   0x8
    182  g_ePrintInterface          0x100000a0   Lc    2  Data  De   0x1
    183  g_sCOMUART                 0x100000a4   Lc    2  Data  De   0x4
    184  ..\..\..\..\..\mcu\apollo4l\hal\mcu\am_hal_clkgen.c
                                    0x00000000   Lc  Abs  File  De 
    185  ../../../../../mcu/apollo4l/hal/mcu/am_hal_clkgen.c
                                    0x00000000   Lc  Abs  File  De 
    186  i.am_hal_clkgen_control    0x00018770   Lc    1  Sect  De 
    187  ..\..\..\..\..\mcu\apollo4l\hal\mcu\am_hal_fault.c
                                    0x00000000   Lc  Abs  File  De 
    188  ../../../../../mcu/apollo4l/hal/mcu/am_hal_fault.c
                                    0x00000000   Lc  Abs  File  De 
    189  i.am_hal_fault_status_get  0x00018d40   Lc    1  Sect  De 
    190  ..\..\..\..\..\mcu\apollo4l\hal\mcu\am_hal_interrupt.c
                                    0x00000000   Lc  Abs  File  De 
    191  .emb_text                  0x00018360   Lc    1  Sect  De   0x16
    192  $v0                        0x00018360   Lc    1   --   De 
    193  ../../../../../mcu/apollo4l/hal/mcu/am_hal_interrupt.c
                                    0x00000000   Lc  Abs  File  De 
    194  ..\..\..\..\..\mcu\apollo4l\hal\mcu\am_hal_mcuctrl.c
                                    0x00000000   Lc  Abs  File  De 
    195  ../../../../../mcu/apollo4l/hal/mcu/am_hal_mcuctrl.c
                                    0x00000000   Lc  Abs  File  De 
    196  i.am_hal_mcuctrl_control   0x000195f8   Lc    1  Sect  De 
    197  .bss                       0x10000738   Lc    3  Sect  De   0xc
    198  .constdata                 0x0001b2b0   Lc    1  Sect  De   0x8
    199  .data                      0x100000a8   Lc    2  Sect  De   0x8
    200  ..\..\..\..\..\mcu\apollo4l\hal\mcu\am_hal_utils.c
                                    0x00000000   Lc  Abs  File  De 
    201  ../../../../../mcu/apollo4l/hal/mcu/am_hal_utils.c
                                    0x00000000   Lc  Abs  File  De 
    202  i.am_hal_delay_us          0x00018c58   Lc    1  Sect  De 
    203  i.am_hal_delay_us_status_change
                                    0x00018c84   Lc    1  Sect  De 
    204  i.am_hal_delay_us_status_check
                                    0x00018cdc   Lc    1  Sect  De 
    205  ..\..\..\..\..\mcu\apollo4l\hal\am_hal_i2s.c
                                    0x00000000   Lc  Abs  File  De 
    206  ../../../../../mcu/apollo4l/hal/am_hal_i2s.c
                                    0x00000000   Lc  Abs  File  De 
    207  i.am_hal_i2s_configure     0x00018dfc   Lc    1  Sect  De 
    208  i.am_hal_i2s_deinitialize  0x00018fe8   Lc    1  Sect  De 
    209  i.am_hal_i2s_disable       0x00019014   Lc    1  Sect  De 
    210  i.am_hal_i2s_dma_configure 0x00019054   Lc    1  Sect  De 
    211  i.am_hal_i2s_dma_get_buffer
                                    0x00019114   Lc    1  Sect  De 
    212  i.am_hal_i2s_dma_transfer_complete
                                    0x0001913c   Lc    1  Sect  De 
    213  i.am_hal_i2s_dma_transfer_start
                                    0x00019154   Lc    1  Sect  De 
    214  i.am_hal_i2s_enable        0x00019210   Lc    1  Sect  De 
    215  i.am_hal_i2s_initialize    0x00019244   Lc    1  Sect  De 
    216  i.am_hal_i2s_interrupt_clear
                                    0x00019288   Lc    1  Sect  De 
    217  i.am_hal_i2s_interrupt_service
                                    0x000192b4   Lc    1  Sect  De 
    218  i.am_hal_i2s_interrupt_status_get
                                    0x00019474   Lc    1  Sect  De 
    219  i.am_hal_i2s_power_control 0x000194b4   Lc    1  Sect  De 
    220  .bss                       0x10000744   Lc    3  Sect  De   0x4c
    221  .constdata                 0x0001b2b8   Lc    1  Sect  De   0x18
    222  ui32I2sWordLength          0x0001b2b8   Lc    1  Data  De   0x18
    223  ..\am_bsp_pins.c           0x00000000   Lc  Abs  File  De 
    224  ../am_bsp_pins.c           0x00000000   Lc  Abs  File  De 
    225  .data                      0x100000b0   Lc    2  Sect  De   0x4
    226  .data                      0x100000b4   Lc    2  Sect  De   0x4
    227  .data                      0x100000b8   Lc    2  Sect  De   0x4
    228  .data                      0x100000bc   Lc    2  Sect  De   0x4
    229  .data                      0x100000c0   Lc    2  Sect  De   0x4
    230  .data                      0x100000c4   Lc    2  Sect  De   0x4
    231  ..\..\..\..\..\mcu\apollo4l\hal\mcu\am_hal_bootrom_helper.c
                                    0x00000000   Lc  Abs  File  De 
    232  ../../../../../mcu/apollo4l/hal/mcu/am_hal_bootrom_helper.c
                                    0x00000000   Lc  Abs  File  De 
    233  .constdata                 0x0001b2d0   Lc    1  Sect  De   0x28
    234  ..\..\..\..\..\mcu\apollo4l\hal\mcu\am_hal_cachectrl.c
                                    0x00000000   Lc  Abs  File  De 
    235  ../../../../../mcu/apollo4l/hal/mcu/am_hal_cachectrl.c
                                    0x00000000   Lc  Abs  File  De 
    236  i.am_hal_daxi_config       0x000189cc   Lc    1  Sect  De 
    237  i.am_hal_daxi_control      0x00018a64   Lc    1  Sect  De 
    238  .data                      0x100000c8   Lc    2  Sect  De   0x5
    239  i.__ARM_common_memcpy4_5   0x000185b6   Lc    1  Sect  De 
    240  ..\..\..\..\..\mcu\apollo4l\hal\mcu\am_hal_itm.c
                                    0x00000000   Lc  Abs  File  De 
    241  ../../../../../mcu/apollo4l/hal/mcu/am_hal_itm.c
                                    0x00000000   Lc  Abs  File  De 
    242  i.am_hal_itm_enable        0x00019580   Lc    1  Sect  De 
    243  i.am_hal_itm_print         0x000195c8   Lc    1  Sect  De 
    244  ..\..\..\..\..\mcu\apollo4l\hal\mcu\am_hal_rtc.c
                                    0x00000000   Lc  Abs  File  De 
    245  ../../../../../mcu/apollo4l/hal/mcu/am_hal_rtc.c
                                    0x00000000   Lc  Abs  File  De 
    246  ..\..\..\..\..\mcu\apollo4l\hal\mcu\am_hal_tpiu.c
                                    0x00000000   Lc  Abs  File  De 
    247  ../../../../../mcu/apollo4l/hal/mcu/am_hal_tpiu.c
                                    0x00000000   Lc  Abs  File  De 
    248  i.am_hal_tpiu_enable       0x00019ab8   Lc    1  Sect  De 
    249  ..\..\..\..\..\mcu\apollo4l\hal\mcu\am_hal_uart.c
                                    0x00000000   Lc  Abs  File  De 
    250  ../../../../../mcu/apollo4l/hal/mcu/am_hal_uart.c
                                    0x00000000   Lc  Abs  File  De 
    251  ..\..\..\..\..\mcu\apollo4l\hal\am_hal_dcu.c
                                    0x00000000   Lc  Abs  File  De 
    252  ../../../../../mcu/apollo4l/hal/am_hal_dcu.c
                                    0x00000000   Lc  Abs  File  De 
    253  i.am_hal_dcu_get           0x00018ae4   Lc    1  Sect  De 
    254  i.am_hal_dcu_update        0x00018b74   Lc    1  Sect  De 
    255  i.copy_words               0x0001a838   Lc    1  Sect  De 
    256  copy_words                 0x0001a839   Lc    1  Code  De   0x28
    257  .data                      0x100000d0   Lc    2  Sect  De   0x20
    258  ..\..\..\..\..\mcu\apollo4l\hal\am_hal_global.c
                                    0x00000000   Lc  Abs  File  De 
    259  ../../../../../mcu/apollo4l/hal/am_hal_global.c
                                    0x00000000   Lc  Abs  File  De 
    260  i.am_gpu_power_enable      0x0001876c   Lc    1  Sect  De 
    261  ..\..\..\..\..\mcu\apollo4l\hal\am_hal_gpio.c
                                    0x00000000   Lc  Abs  File  De 
    262  ../../../../../mcu/apollo4l/hal/am_hal_gpio.c
                                    0x00000000   Lc  Abs  File  De 
    263  i.am_hal_gpio_pinconfig    0x00018d80   Lc    1  Sect  De 
    264  .constdata                 0x0001b2f8   Lc    1  Sect  De   0x4
    265  .constdata                 0x0001b2fc   Lc    1  Sect  De   0x20
    266  g_ui32RMpintbl             0x0001b2fc   Lc    1  Data  De   0x10
    267  g_ui32DSpintbl             0x0001b30c   Lc    1  Data  De   0x10
    268  ..\..\..\..\..\mcu\apollo4l\hal\am_hal_pwrctrl.c
                                    0x00000000   Lc  Abs  File  De 
    269  ../../../../../mcu/apollo4l/hal/am_hal_pwrctrl.c
                                    0x00000000   Lc  Abs  File  De 
    270  i.am_hal_pwrctrl_periph_disable
                                    0x000198d8   Lc    1  Sect  De 
    271  i.am_hal_pwrctrl_periph_enable
                                    0x00019a04   Lc    1  Sect  De 
    272  i.crypto_boost_trims       0x0001a860   Lc    1  Sect  De 
    273  .constdata                 0x0001b31c   Lc    1  Sect  De   0x19c
    274  .data                      0x100000f0   Lc    2  Sect  De   0x2c
    275  g_bOrigTrimsStored         0x100000f1   Lc    2  Data  De   0x1
    276  g_bBoostForCryptoApplied   0x100000f2   Lc    2  Data  De   0x1
    277  g_orig_ACTTRIMVDDF         0x100000fc   Lc    2  Data  De   0x4
    278  g_orig_MEMLDOACTIVETRIM    0x10000100   Lc    2  Data  De   0x4
    279  g_orig_LPTRIMVDDF          0x10000104   Lc    2  Data  De   0x4
    280  g_orig_MEMLPLDOTRIM        0x10000108   Lc    2  Data  De   0x4
    281  g_orig_TVRGVREFTRIM        0x1000010c   Lc    2  Data  De   0x4
    282  g_ui32VDDFAdjustCodes      0x10000110   Lc    2  Data  De   0x4
    283  g_i32LatestVddfActTrim     0x10000114   Lc    2  Data  De   0x4
    284  g_i32LatestLDOActTrim      0x10000118   Lc    2  Data  De   0x4
    285  ..\..\..\..\..\mcu\apollo4l\hal\mcu\am_hal_mram.c
                                    0x00000000   Lc  Abs  File  De 
    286  ../../../../../mcu/apollo4l/hal/mcu/am_hal_mram.c
                                    0x00000000   Lc  Abs  File  De 
    287  ..\..\..\..\..\mcu\apollo4l\hal\am_hal_pin.c
                                    0x00000000   Lc  Abs  File  De 
    288  ../../../../../mcu/apollo4l/hal/am_hal_pin.c
                                    0x00000000   Lc  Abs  File  De 
    289  ..\..\..\..\..\mcu\apollo4l\hal\am_hal_queue.c
                                    0x00000000   Lc  Abs  File  De 
    290  ../../../../../mcu/apollo4l/hal/am_hal_queue.c
                                    0x00000000   Lc  Abs  File  De 
    291  dc.s                       0x00000000   Lc  Abs  File  De 
    292  ../clib/longlong.s         0x00000000   Lc  Abs  File  De 
    293  .text                      0x000183c4   Lc    1  Sect  De   0xee
    294  ../clib/longlong.s         0x00000000   Lc  Abs  File  De 
    295  .text                      0x000184b2   Lc    1  Sect  De   0x26
    296  ../clib/longlong.s         0x00000000   Lc  Abs  File  De 
    297  .text                      0x000184d8   Lc    1  Sect  De   0x26
    298  ../clib/stdlib.c           0x00000000   Lc  Abs  File  De 
    299  .emb_text                  0x00018378   Lc    1  Sect  De   0x34
    300  ../clib/stdlib.c           0x00000000   Lc  Abs  File  De 
    301  .text                      0x00018500   Lc    1  Sect  De 
    302  .bss                       0x10000790   Lc    3  Sect  De   0xe4
    303  ../clib/heapaux.c          0x00000000   Lc  Abs  File  De 
    304  .text                      0x0001853c   Lc    1  Sect  De 
    305  ../clib/angel/startup.s    0x00000000   Lc  Abs  File  De 
    306  !!!main                    0x00018234   Lc    1  Sect  De   0x8
    307  ../clib/angel/handlers.s   0x00000000   Lc  Abs  File  De 
    308  !!handler_copy             0x000182cc   Lc    1  Sect  De   0x1a
    309  ../fplib/d2f.s             0x00000000   Lc  Abs  File  De 
    310  x$fpl$d2f                  0x0001b118   Lc    1  Sect  De   0x62
    311  $v0                        0x0001b118   Lc    1   --   De 
    312  ../clib/angel/kernel.s     0x00000000   Lc  Abs  File  De 
    313  .ARM.Collect$$rtentry$$00000000
                                    0x00018314   Lc    1  Sect  De 
    314  ../clib/angel/rt.s         0x00000000   Lc  Abs  File  De 
    315  ../clib/angel/rt.s         0x00000000   Lc  Abs  File  De 
    316  ../clib/libinit.s          0x00000000   Lc  Abs  File  De 
    317  .ARM.Collect$$libinit$$00000001
                                    0x00018306   Lc    1  Sect  De   0x4
    318  .ARM.Collect$$libinit$$00000004
                                    0x0001830a   Lc    1  Sect  De 
    319  .ARM.Collect$$libinit$$0000000A
                                    0x0001830a   Lc    1  Sect  De 
    320  .ARM.Collect$$libinit$$0000000C
                                    0x0001830a   Lc    1  Sect  De 
    321  .ARM.Collect$$libinit$$0000000D
                                    0x0001830a   Lc    1  Sect  De   0x4
    322  .ARM.Collect$$libinit$$0000000E
                                    0x0001830e   Lc    1  Sect  De 
    323  .ARM.Collect$$libinit$$00000011
                                    0x0001830e   Lc    1  Sect  De 
    324  .ARM.Collect$$libinit$$00000013
                                    0x0001830e   Lc    1  Sect  De 
    325  .ARM.Collect$$libinit$$00000015
                                    0x0001830e   Lc    1  Sect  De 
    326  .ARM.Collect$$libinit$$00000017
                                    0x0001830e   Lc    1  Sect  De 
    327  .ARM.Collect$$libinit$$00000019
                                    0x0001830e   Lc    1  Sect  De 
    328  .ARM.Collect$$libinit$$0000001B
                                    0x0001830e   Lc    1  Sect  De 
    329  .ARM.Collect$$libinit$$0000001D
                                    0x0001830e   Lc    1  Sect  De 
    330  .ARM.Collect$$libinit$$0000001F
                                    0x0001830e   Lc    1  Sect  De 
    331  .ARM.Collect$$libinit$$00000021
                                    0x0001830e   Lc    1  Sect  De 
    332  .ARM.Collect$$libinit$$00000023
                                    0x0001830e   Lc    1  Sect  De 
    333  .ARM.Collect$$libinit$$00000025
                                    0x0001830e   Lc    1  Sect  De 
    334  .ARM.Collect$$libinit$$0000002C
                                    0x0001830e   Lc    1  Sect  De 
    335  .ARM.Collect$$libinit$$0000002E
                                    0x0001830e   Lc    1  Sect  De 
    336  .ARM.Collect$$libinit$$00000030
                                    0x0001830e   Lc    1  Sect  De 
    337  .ARM.Collect$$libinit$$00000032
                                    0x0001830e   Lc    1  Sect  De 
    338  .ARM.Collect$$libinit$$00000033
                                    0x0001830e   Lc    1  Sect  De   0x2
    339  ../fplib/dnaninf.s         0x00000000   Lc  Abs  File  De 
    340  x$fpl$dnaninf              0x0001b17a   Lc    1  Sect  De   0x9c
    341  $v0                        0x0001b17a   Lc    1   --   De 
    342  ../fplib/fretinf.s         0x00000000   Lc  Abs  File  De 
    343  x$fpl$fretinf              0x0001b220   Lc    1  Sect  De   0xa
    344  $v0                        0x0001b220   Lc    1   --   De 
    345  ../fplib/usenofp.s         0x00000000   Lc  Abs  File  De 
    346  x$fpl$usenofp              0x0001b22a   Lc    1  Sect  De 
    347  ../clib/angel/kernel.s     0x00000000   Lc  Abs  File  De 
    348  .ARM.Collect$$rtentry$$00000002
                                    0x00018314   Lc    1  Sect  De 
    349  .ARM.Collect$$rtentry$$00000009
                                    0x0001831a   Lc    1  Sect  De 
    350  .ARM.Collect$$rtentry$$0000000A
                                    0x0001831a   Lc    1  Sect  De   0x4
    351  .ARM.Collect$$rtentry$$0000000C
                                    0x0001831e   Lc    1  Sect  De 
    352  .ARM.Collect$$rtentry$$0000000D
                                    0x0001831e   Lc    1  Sect  De   0x8
    353  ../clib/angel/kernel.s     0x00000000   Lc  Abs  File  De 
    354  .ARM.Collect$$rtentry$$00000004
                                    0x00018314   Lc    1  Sect  De   0x6
    355  ../clib/angel/rt.s         0x00000000   Lc  Abs  File  De 
    356  ../clib/armsys.c           0x00000000   Lc  Abs  File  De 
    357  ../clib/armsys.c           0x00000000   Lc  Abs  File  De 
    358  ../fplib/fpinit.s          0x00000000   Lc  Abs  File  De 
    359  x$fpl$fpinit               0x0001b216   Lc    1  Sect  De   0xa
    360  $v0                        0x0001b216   Lc    1   --   De 
    361  ../clib/angel/sys.s        0x00000000   Lc  Abs  File  De 
    362  .text                      0x00018542   Lc    1  Sect  De   0x4a
    363  ../clib/stdlib.c           0x00000000   Lc  Abs  File  De 
    364  .text                      0x0001858c   Lc    1  Sect  De 
    365  ../clib/signal.c           0x00000000   Lc  Abs  File  De 
    366  ../clib/signal.c           0x00000000   Lc  Abs  File  De 
    367  ../clib/angel/boardlib.s   0x00000000   Lc  Abs  File  De 
    368  ../clib/angel/boardlib.s   0x00000000   Lc  Abs  File  De 
    369  ../clib/angel/boardlib.s   0x00000000   Lc  Abs  File  De 
    370  ../clib/armsys.c           0x00000000   Lc  Abs  File  De 
    371  ../clib/armsys.c           0x00000000   Lc  Abs  File  De 
    372  ../clib/libinit.s          0x00000000   Lc  Abs  File  De 
    373  .ARM.Collect$$libinit$$00000000
                                    0x00018304   Lc    1  Sect  De   0x2
    374  ../clib/angel/sysapp.c     0x00000000   Lc  Abs  File  De 
    375  ../clib/angel/sys.s        0x00000000   Lc  Abs  File  De 
    376  .text                      0x000185a0   Lc    1  Sect  De   0x8
    377  .bss                       0x10000874   Lc    3  Sect  De   0x60
    378  ../clib/angel/kernel.s     0x00000000   Lc  Abs  File  De 
    379  .ARM.Collect$$rtexit$$00000000
                                    0x00018326   Lc    1  Sect  De   0x2
    380  ../clib/angel/rt.s         0x00000000   Lc  Abs  File  De 
    381  ../clib/heapalloc.c        0x00000000   Lc  Abs  File  De 
    382  ../clib/signal.c           0x00000000   Lc  Abs  File  De 
    383  ../clib/signal.c           0x00000000   Lc  Abs  File  De 
    384  ../clib/signal.c           0x00000000   Lc  Abs  File  De 
    385  ../clib/signal.c           0x00000000   Lc  Abs  File  De 
    386  ../clib/angel/sysapp.c     0x00000000   Lc  Abs  File  De 
    387  .text                      0x000185a8   Lc    1  Sect  De 
    388  ../clib/angel/sys.s        0x00000000   Lc  Abs  File  De 
    389  .text                      0x000185b4   Lc    1  Sect  De   0x2
    390  ../clib/angel/sys.s        0x00000000   Lc  Abs  File  De 
    391  .text                      0x000185b6   Lc    1  Sect  De 
    392  ../clib/angel/kernel.s     0x00000000   Lc  Abs  File  De 
    393  .ARM.Collect$$rtexit$$00000002
                                    0x00018328   Lc    1  Sect  De 
    394  .ARM.Collect$$rtexit$$00000003
                                    0x00018328   Lc    1  Sect  De   0x4
    395  .ARM.Collect$$rtexit$$00000004
                                    0x0001832c   Lc    1  Sect  De   0x6
    396  ../clib/signal.c           0x00000000   Lc  Abs  File  De 
    397  ../clib/signal.c           0x00000000   Lc  Abs  File  De 
    398  ../clib/signal.c           0x00000000   Lc  Abs  File  De 
    399  ../clib/angel/sysapp.c     0x00000000   Lc  Abs  File  De 
    400  ../clib/signal.s           0x00000000   Lc  Abs  File  De 
    401  ../clib/angel/boardlib.s   0x00000000   Lc  Abs  File  De 
    402  ../clib/libinit.s          0x00000000   Lc  Abs  File  De 
    403  .ARM.Collect$$libshutdown$$00000000
                                    0x00018310   Lc    1  Sect  De   0x2
    404  ../clib/signal.c           0x00000000   Lc  Abs  File  De 
    405  ../clib/signal.c           0x00000000   Lc  Abs  File  De 
    406  ../clib/signal.c           0x00000000   Lc  Abs  File  De 
    407  ../clib/signal.c           0x00000000   Lc  Abs  File  De 
    408  ../clib/signal.c           0x00000000   Lc  Abs  File  De 
    409  ../clib/signal.c           0x00000000   Lc  Abs  File  De 
    410  ../clib/signal.c           0x00000000   Lc  Abs  File  De 
    411  ../clib/libinit.s          0x00000000   Lc  Abs  File  De 
    412  .ARM.Collect$$libshutdown$$00000002
                                    0x00018312   Lc    1  Sect  De 
    413  .ARM.Collect$$libshutdown$$00000004
                                    0x00018312   Lc    1  Sect  De 
    414  .ARM.Collect$$libshutdown$$00000007
                                    0x00018312   Lc    1  Sect  De 
    415  .ARM.Collect$$libshutdown$$0000000A
                                    0x00018312   Lc    1  Sect  De 
    416  .ARM.Collect$$libshutdown$$0000000C
                                    0x00018312   Lc    1  Sect  De 
    417  .ARM.Collect$$libshutdown$$0000000F
                                    0x00018312   Lc    1  Sect  De 
    418  .ARM.Collect$$libshutdown$$00000010
                                    0x00018312   Lc    1  Sect  De   0x2
    419  ../clib/angel/dczerorl2.s  0x00000000   Lc  Abs  File  De 
    420  !!dczerorl2                0x00018270   Lc    1  Sect  De   0x5a
    421  ../clib/angel/scatter.s    0x00000000   Lc  Abs  File  De 
    422  !!!scatter                 0x0001823c   Lc    1  Sect  De   0x34
    423  ../clib/angel/handlers.s   0x00000000   Lc  Abs  File  De 
    424  !!handler_zi               0x000182e8   Lc    1  Sect  De   0x1c
    425  BuildAttributes$$THM_ISAv4$E$P$D$K$B$S$7EM$VFPi3$EXTD16$VFPS$VFMA$PE$A:L22UL41UL21$X:L11$S22US41US21$IEEE1$IW$USESV6$~STKCKD$USESV7$~SHL$OTIME$ROPI$EBA8$UX$STANDARDLIB$REQ8$PRES8$EABIv2
                                    0x00000000   Gb  Abs   --   Hi 
    426  __ARM_use_no_argv          0x00000000   Gb  Abs   --   Hi 
    427  __Vectors                  0x00018000   Gb    1  Data  Hi 
    428  __Patchable                0x00018190   Gb    1  Data  Hi 
    429  Reset_Handler              0x00018201   Wk    1  Code  Hi   0x1c
    430  NMI_Handler                0x0001821f   Wk    1  Code  Hi   0x2
    431  MemManage_Handler          0x00018221   Wk    1  Code  Hi   0x2
    432  BusFault_Handler           0x00018223   Wk    1  Code  Hi   0x2
    433  UsageFault_Handler         0x00018225   Wk    1  Code  Hi   0x2
    434  SVC_Handler                0x00018227   Wk    1  Code  Hi   0x2
    435  DebugMon_Handler           0x00018229   Wk    1  Code  Hi   0x2
    436  PendSV_Handler             0x0001822b   Wk    1  Code  Hi   0x2
    437  SysTick_Handler            0x0001822d   Wk    1  Code  Hi   0x2
    438  am_adc_isr                 0x0001822f   Wk    1  Code  Hi 
    439  am_audadc0_isr             0x0001822f   Wk    1  Code  Hi 
    440  am_brownout_isr            0x0001822f   Wk    1  Code  Hi 
    441  am_cachecpu_isr            0x0001822f   Wk    1  Code  Hi 
    442  am_clkgen_isr              0x0001822f   Wk    1  Code  Hi 
    443  am_ctimer_isr              0x0001822f   Wk    1  Code  Hi 
    444  am_disp_isr                0x0001822f   Wk    1  Code  Hi 
    445  am_dsi_isr                 0x0001822f   Wk    1  Code  Hi 
    446  am_dspi2s1_isr             0x0001822f   Wk    1  Code  Hi 
    447  am_dspi2s2_isr             0x0001822f   Wk    1  Code  Hi 
    448  am_dspi2s3_isr             0x0001822f   Wk    1  Code  Hi 
    449  am_gpio0_001f_isr          0x0001822f   Wk    1  Code  Hi 
    450  am_gpio0_203f_isr          0x0001822f   Wk    1  Code  Hi 
    451  am_gpio0_405f_isr          0x0001822f   Wk    1  Code  Hi 
    452  am_gpio0_607f_isr          0x0001822f   Wk    1  Code  Hi 
    453  am_gpio1_001f_isr          0x0001822f   Wk    1  Code  Hi 
    454  am_gpio1_203f_isr          0x0001822f   Wk    1  Code  Hi 
    455  am_gpio1_405f_isr          0x0001822f   Wk    1  Code  Hi 
    456  am_gpio1_607f_isr          0x0001822f   Wk    1  Code  Hi 
    457  am_gpu_isr                 0x0001822f   Wk    1  Code  Hi 
    458  am_iomaster0_isr           0x0001822f   Wk    1  Code  Hi 
    459  am_iomaster1_isr           0x0001822f   Wk    1  Code  Hi 
    460  am_iomaster2_isr           0x0001822f   Wk    1  Code  Hi 
    461  am_iomaster3_isr           0x0001822f   Wk    1  Code  Hi 
    462  am_iomaster4_isr           0x0001822f   Wk    1  Code  Hi 
    463  am_iomaster5_isr           0x0001822f   Wk    1  Code  Hi 
    464  am_iomaster6_isr           0x0001822f   Wk    1  Code  Hi 
    465  am_iomaster7_isr           0x0001822f   Wk    1  Code  Hi 
    466  am_ioslave_acc_isr         0x0001822f   Wk    1  Code  Hi 
    467  am_ioslave_ios_isr         0x0001822f   Wk    1  Code  Hi 
    468  am_mspi0_isr               0x0001822f   Wk    1  Code  Hi 
    469  am_mspi1_isr               0x0001822f   Wk    1  Code  Hi 
    470  am_mspi2_isr               0x0001822f   Wk    1  Code  Hi 
    471  am_pdm0_isr                0x0001822f   Wk    1  Code  Hi 
    472  am_pdm1_isr                0x0001822f   Wk    1  Code  Hi 
    473  am_pdm2_isr                0x0001822f   Wk    1  Code  Hi 
    474  am_pdm3_isr                0x0001822f   Wk    1  Code  Hi 
    475  am_rtc_isr                 0x0001822f   Wk    1  Code  Hi 
    476  am_sdio_isr                0x0001822f   Wk    1  Code  Hi 
    477  am_stimer_cmpr0_isr        0x0001822f   Wk    1  Code  Hi 
    478  am_stimer_cmpr1_isr        0x0001822f   Wk    1  Code  Hi 
    479  am_stimer_cmpr2_isr        0x0001822f   Wk    1  Code  Hi 
    480  am_stimer_cmpr3_isr        0x0001822f   Wk    1  Code  Hi 
    481  am_stimer_cmpr4_isr        0x0001822f   Wk    1  Code  Hi 
    482  am_stimer_cmpr5_isr        0x0001822f   Wk    1  Code  Hi 
    483  am_stimer_cmpr6_isr        0x0001822f   Wk    1  Code  Hi 
    484  am_stimer_cmpr7_isr        0x0001822f   Wk    1  Code  Hi 
    485  am_stimerof_isr            0x0001822f   Wk    1  Code  Hi 
    486  am_timer00_isr             0x0001822f   Wk    1  Code  Hi 
    487  am_timer01_isr             0x0001822f   Wk    1  Code  Hi 
    488  am_timer02_isr             0x0001822f   Wk    1  Code  Hi 
    489  am_timer03_isr             0x0001822f   Wk    1  Code  Hi 
    490  am_timer04_isr             0x0001822f   Wk    1  Code  Hi 
    491  am_timer05_isr             0x0001822f   Wk    1  Code  Hi 
    492  am_timer06_isr             0x0001822f   Wk    1  Code  Hi 
    493  am_timer07_isr             0x0001822f   Wk    1  Code  Hi 
    494  am_timer08_isr             0x0001822f   Wk    1  Code  Hi 
    495  am_timer09_isr             0x0001822f   Wk    1  Code  Hi 
    496  am_timer10_isr             0x0001822f   Wk    1  Code  Hi 
    497  am_timer11_isr             0x0001822f   Wk    1  Code  Hi 
    498  am_timer12_isr             0x0001822f   Wk    1  Code  Hi 
    499  am_timer13_isr             0x0001822f   Wk    1  Code  Hi 
    500  am_timer14_isr             0x0001822f   Wk    1  Code  Hi 
    501  am_timer15_isr             0x0001822f   Wk    1  Code  Hi 
    502  am_uart1_isr               0x0001822f   Wk    1  Code  Hi 
    503  am_uart2_isr               0x0001822f   Wk    1  Code  Hi 
    504  am_uart3_isr               0x0001822f   Wk    1  Code  Hi 
    505  am_uart_isr                0x0001822f   Wk    1  Code  Hi 
    506  am_usb_isr                 0x0001822f   Wk    1  Code  Hi 
    507  am_vcomp_isr               0x0001822f   Wk    1  Code  Hi 
    508  am_watchdog_isr            0x0001822f   Wk    1  Code  Hi 
    509  __main                     0x00018235   Gb    1  Code  Hi   0x8
    510  __scatterload              0x0001823d   Gb    1  Code  Hi 
    511  __scatterload_rt2          0x0001823d   Gb    1  Code  Hi   0x2c
    512  __scatterload_rt2_thumb_only
                                    0x0001823d   Gb    1  Code  Hi 
    513  __scatterload_null         0x0001824b   Gb    1  Code  Hi 
    514  __decompress               0x00018271   Gb    1  Code  Hi   0x5a
    515  __decompress1              0x00018271   Gb    1  Code  Hi 
    516  __scatterload_copy         0x000182cd   Gb    1  Code  Hi   0x1a
    517  __scatterload_zeroinit     0x000182e9   Gb    1  Code  Hi   0x1c
    518  __rt_lib_init              0x00018305   Gb    1  Code  De 
    519  __rt_lib_init_fp_1         0x00018307   Gb    1  Code  Hi 
    520  __rt_lib_init_heap_1       0x0001830b   Gb    1  Code  Hi 
    521  __rt_lib_init_preinit_1    0x0001830b   Gb    1  Code  Hi 
    522  __rt_lib_init_rand_2       0x0001830b   Gb    1  Code  Hi 
    523  __rt_lib_init_user_alloc_1 0x0001830b   Gb    1  Code  Hi 
    524  __rt_lib_init_alloca_1     0x0001830f   Gb    1  Code  Hi 
    525  __rt_lib_init_argv_1       0x0001830f   Gb    1  Code  Hi 
    526  __rt_lib_init_atexit_1     0x0001830f   Gb    1  Code  Hi 
    527  __rt_lib_init_clock_1      0x0001830f   Gb    1  Code  Hi 
    528  __rt_lib_init_cpp_1        0x0001830f   Gb    1  Code  Hi 
    529  __rt_lib_init_exceptions_1 0x0001830f   Gb    1  Code  Hi 
    530  __rt_lib_init_fp_trap_1    0x0001830f   Gb    1  Code  Hi 
    531  __rt_lib_init_getenv_1     0x0001830f   Gb    1  Code  Hi 
    532  __rt_lib_init_lc_collate_1 0x0001830f   Gb    1  Code  Hi 
    533  __rt_lib_init_lc_ctype_1   0x0001830f   Gb    1  Code  Hi 
    534  __rt_lib_init_lc_monetary_1
                                    0x0001830f   Gb    1  Code  Hi 
    535  __rt_lib_init_lc_numeric_1 0x0001830f   Gb    1  Code  Hi 
    536  __rt_lib_init_lc_time_1    0x0001830f   Gb    1  Code  Hi 
    537  __rt_lib_init_rand_1       0x0001830f   Gb    1  Code  Hi 
    538  __rt_lib_init_return       0x0001830f   Gb    1  Code  Hi 
    539  __rt_lib_init_signal_1     0x0001830f   Gb    1  Code  Hi 
    540  __rt_lib_init_stdio_1      0x0001830f   Gb    1  Code  Hi 
    541  __rt_lib_shutdown          0x00018311   Gb    1  Code  De 
    542  __rt_lib_shutdown_cpp_1    0x00018313   Gb    1  Code  Hi 
    543  __rt_lib_shutdown_fp_trap_1
                                    0x00018313   Gb    1  Code  Hi 
    544  __rt_lib_shutdown_heap_1   0x00018313   Gb    1  Code  Hi 
    545  __rt_lib_shutdown_return   0x00018313   Gb    1  Code  Hi 
    546  __rt_lib_shutdown_signal_1 0x00018313   Gb    1  Code  Hi 
    547  __rt_lib_shutdown_stdio_1  0x00018313   Gb    1  Code  Hi 
    548  __rt_lib_shutdown_user_alloc_1
                                    0x00018313   Gb    1  Code  Hi 
    549  __rt_entry                 0x00018315   Gb    1  Code  Hi 
    550  __rt_entry_presh_1         0x00018315   Gb    1  Code  Hi 
    551  __rt_entry_sh              0x00018315   Gb    1  Code  Hi 
    552  __rt_entry_li              0x0001831b   Gb    1  Code  Hi 
    553  __rt_entry_postsh_1        0x0001831b   Gb    1  Code  Hi 
    554  __rt_entry_main            0x0001831f   Gb    1  Code  Hi 
    555  __rt_entry_postli_1        0x0001831f   Gb    1  Code  Hi 
    556  __rt_exit                  0x00018327   Gb    1  Code  De 
    557  __rt_exit_ls               0x00018329   Gb    1  Code  Hi 
    558  __rt_exit_prels_1          0x00018329   Gb    1  Code  Hi 
    559  __rt_exit_exit             0x0001832d   Gb    1  Code  Hi 
    560  HardFault_Handler          0x00018335   Gb    1  Code  Hi   0x20
    561  getStackedReg              0x00018359   Gb    1  Code  Hi   0x8
    562  am_hal_interrupt_master_enable
                                    0x00018361   Gb    1  Code  Hi   0x8
    563  am_hal_interrupt_master_disable
                                    0x00018369   Gb    1  Code  Hi   0x8
    564  am_hal_interrupt_master_set
                                    0x00018371   Gb    1  Code  Hi   0x6
    565  rand                       0x00018379   Gb    1  Code  Hi   0x30
    566  __user_initial_stackheap   0x000183ad   Gb    1  Code  Hi   0xa
    567  __aeabi_uldivmod           0x000183c5   Gb    1  Code  Hi 
    568  _ll_udiv                   0x000183c5   Gb    1  Code  De   0xee
    569  __aeabi_llsl               0x000184b3   Gb    1  Code  Hi 
    570  _ll_shift_l                0x000184b3   Gb    1  Code  De   0x26
    571  __aeabi_llsr               0x000184d9   Gb    1  Code  Hi 
    572  _ll_ushift_r               0x000184d9   Gb    1  Code  De   0x26
    573  srand                      0x00018501   Gb    1  Code  De   0x2a
    574  _rand_init                 0x0001852b   Gb    1  Code  De   0x4
    575  __use_two_region_memory    0x0001853d   Gb    1  Code  Hi   0x2
    576  __rt_heap_escrow$2region   0x0001853f   Gb    1  Code  De   0x2
    577  __rt_heap_expand$2region   0x00018541   Gb    1  Code  De   0x2
    578  __user_setup_stackheap     0x00018543   Gb    1  Code  De   0x4a
    579  exit                       0x0001858d   Gb    1  Code  De   0x12
    580  __user_libspace            0x000185a1   Wk    1  Code  De   0x8
    581  __user_perproc_libspace    0x000185a1   Wk    1  Code  De 
    582  __user_perthread_libspace  0x000185a1   Wk    1  Code  De 
    583  _sys_exit                  0x000185a9   Gb    1  Code  De   0x8
    584  __I$use$semihosting        0x000185b5   Gb    1  Code  Hi 
    585  __use_no_semihosting_swi   0x000185b5   Gb    1  Code  Hi   0x2
    586  __ARM_common_memcpy4_5     0x000185b7   Gb    1  Code  Hi   0xa
    587  __semihosting_library_function
                                    0x000185b7   Gb    1  Code  Hi 
    588  am_bsp_i2s_pins_disable    0x000185c1   Gb    1  Code  Hi   0x58
    589  am_bsp_i2s_pins_enable     0x0001861d   Gb    1  Code  Hi   0x62
    590  am_bsp_itm_printf_enable   0x00018695   Gb    1  Code  Hi   0x7c
    591  am_dspi2s0_isr             0x00018729   Gb    1  Code  Hi   0x3c
    592  am_gpu_power_enable        0x0001876d   Wk    1  Code  Hi   0x2
    593  am_hal_clkgen_control      0x00018771   Gb    1  Code  Hi   0x250
    594  am_hal_daxi_config         0x000189cd   Gb    1  Code  Hi   0x90
    595  am_hal_daxi_control        0x00018a65   Gb    1  Code  Hi   0x76
    596  am_hal_dcu_get             0x00018ae5   Gb    1  Code  Hi   0x84
    597  am_hal_dcu_update          0x00018b75   Gb    1  Code  Hi   0xd6
    598  am_hal_delay_us            0x00018c59   Gb    1  Code  Hi   0x22
    599  am_hal_delay_us_status_change
                                    0x00018c85   Gb    1  Code  Hi   0x50
    600  am_hal_delay_us_status_check
                                    0x00018cdd   Gb    1  Code  Hi   0x5c
    601  am_hal_fault_status_get    0x00018d41   Gb    1  Code  Hi   0x3e
    602  am_hal_gpio_pinconfig      0x00018d81   Gb    1  Code  Hi   0x70
    603  am_hal_i2s_configure       0x00018dfd   Gb    1  Code  Hi   0x1e0
    604  am_hal_i2s_deinitialize    0x00018fe9   Gb    1  Code  Hi   0x28
    605  am_hal_i2s_disable         0x00019015   Gb    1  Code  Hi   0x38
    606  am_hal_i2s_dma_configure   0x00019055   Gb    1  Code  Hi   0xb6
    607  am_hal_i2s_dma_get_buffer  0x00019115   Gb    1  Code  Hi   0x26
    608  am_hal_i2s_dma_transfer_complete
                                    0x0001913d   Gb    1  Code  Hi   0x14
    609  am_hal_i2s_dma_transfer_start
                                    0x00019155   Gb    1  Code  Hi   0xb2
    610  am_hal_i2s_enable          0x00019211   Gb    1  Code  Hi   0x2e
    611  am_hal_i2s_initialize      0x00019245   Gb    1  Code  Hi   0x3a
    612  am_hal_i2s_interrupt_clear 0x00019289   Gb    1  Code  Hi   0x24
    613  am_hal_i2s_interrupt_service
                                    0x000192b5   Gb    1  Code  Hi   0x1bc
    614  am_hal_i2s_interrupt_status_get
                                    0x00019475   Gb    1  Code  Hi   0x38
    615  am_hal_i2s_power_control   0x000194b5   Gb    1  Code  Hi   0xc2
    616  am_hal_itm_enable          0x00019581   Gb    1  Code  Hi   0x2c
    617  am_hal_itm_print           0x000195c9   Gb    1  Code  Hi   0x30
    618  am_hal_mcuctrl_control     0x000195f9   Gb    1  Code  Hi   0x2ce
    619  am_hal_pwrctrl_periph_disable
                                    0x000198d9   Gb    1  Code  Hi   0x112
    620  am_hal_pwrctrl_periph_enable
                                    0x00019a05   Gb    1  Code  Hi   0xa6
    621  am_hal_tpiu_enable         0x00019ab9   Gb    1  Code  Hi   0x52
    622  am_util_delay_ms           0x00019b25   Gb    1  Code  Hi   0xa
    623  am_util_delay_us           0x00019b2f   Gb    1  Code  Hi   0x4
    624  am_util_faultisr_collect_data
                                    0x00019b35   Gb    1  Code  Hi   0x1e0
    625  am_util_stdio_printf       0x0001a07d   Gb    1  Code  Hi   0x2c
    626  am_util_stdio_printf_init  0x0001a0b1   Gb    1  Code  Hi   0x6
    627  am_util_stdio_terminal_clear
                                    0x0001a0bd   Gb    1  Code  Hi   0x20
    628  am_util_stdio_vsprintf     0x0001a0f9   Gb    1  Code  Hi   0x734
    629  crypto_boost_trims         0x0001a861   Gb    1  Code  Hi   0xa6
    630  main                       0x0001a911   Gb    1  Code  Hi   0x5a6
    631  __aeabi_d2f                0x0001b119   Gb    1  Code  Hi 
    632  _d2f                       0x0001b119   Gb    1  Code  De   0x62
    633  __fpl_dnaninf              0x0001b17b   Gb    1  Code  De   0x9c
    634  _fp_init                   0x0001b217   Gb    1  Code  De   0xa
    635  __fplib_config_fpu_vfp     0x0001b21f   Gb    1  Code  De 
    636  __fplib_config_pureend_doubles
                                    0x0001b21f   Gb    1  Code  De 
    637  __fpl_fretinf              0x0001b221   Gb    1  Code  De   0xa
    638  __I$use$fp                 0x0001b22a   Gb    1   --   De 
    639  ui32MCUAllowed             0x0001b22c   Gb    1  Data  Hi   0x14
    640  ui32DSP0Allowed            0x0001b240   Gb    1  Data  Hi   0x14
    641  ui32DSP1Allowed            0x0001b254   Gb    1  Data  Hi   0x14
    642  ui32SharedAccess           0x0001b268   Gb    1  Data  Hi   0x14
    643  sGlobalAccess              0x0001b27c   Gb    1  Data  Hi   0x1c
    644  g_amHalMcuctrlArgDefault   0x0001b2b0   Gb    1  Data  Hi   0x8
    645  g_am_hal_bootrom_helper    0x0001b2d0   Gb    1  Data  Hi   0x28
    646  am_hal_gpio_pincfg_disabled
                                    0x0001b2f8   Gb    1  Data  Hi   0x4
    647  g_DefaultMcuMemCfg         0x0001b31c   Gb    1  Data  Hi   0x6
    648  g_DefaultSRAMCfg           0x0001b322   Gb    1  Data  Hi   0x6
    649  am_hal_pwrctrl_peripheral_control
                                    0x0001b328   Gb    1  Data  Hi   0x190
    650  Region$$Table$$Base        0x0001b4fc   Gb    1   --   Hi 
    651  Region$$Table$$Limit       0x0001b52c   Gb    1   --   Hi 
    652  pI2S0Handle                0x10000004   Gb    2  Data  Hi   0x4
    653  g_pfnCharPrint             0x1000009c   Gb    2  Data  Hi   0x4
    654  g_ui32xtalhscap2trim       0x100000a8   Gb    2  Data  Hi   0x4
    655  g_ui32xtalhscaptrim        0x100000ac   Gb    2  Data  Hi   0x4
    656  g_AM_BSP_GPIO_ITM_SWO      0x100000b0   Gb    2  Data  Hi   0x4
    657  g_AM_BSP_GPIO_I2S0_DATA    0x100000b4   Gb    2  Data  Hi   0x4
    658  g_AM_BSP_GPIO_I2S0_SDOUT   0x100000b8   Gb    2  Data  Hi   0x4
    659  g_AM_BSP_GPIO_I2S0_CLK     0x100000bc   Gb    2  Data  Hi   0x4
    660  g_AM_BSP_GPIO_I2S0_WS      0x100000c0   Gb    2  Data  Hi   0x4
    661  g_AM_BSP_GPIO_I2S0_SDIN    0x100000c4   Gb    2  Data  Hi   0x4
    662  gDaxiConfig                0x100000c8   Gb    2  Data  Hi   0x5
    663  gStartOff                  0x100000d0   Gb    2  Data  Hi   0x4
    664  gpDcuEnable                0x100000d4   Gb    2  Data  Hi   0x4
    665  gpDcuLock                  0x100000d8   Gb    2  Data  Hi   0x4
    666  gDcuEnable                 0x100000e0   Gb    2  Data  Hi   0x8
    667  gDcuDisable                0x100000e8   Gb    2  Data  Hi   0x8
    668  g_eCurrPwrMode             0x100000f0   Gb    2  Data  Hi   0x1
    669  g_ui32TrimVer              0x100000f4   Gb    2  Data  Hi   0x4
    670  g_ui32origSimobuckVDDStrim 0x100000f8   Gb    2  Data  Hi   0x4
    671  g_ui32I2SDmaCpl            0x1000011c   Gb    3  Data  Hi   0xc
    672  gFaultStack                0x10000138   Gb    3  Data  Hi   0x200
    673  am_hal_xtal_users          0x10000738   Gb    3  Data  Hi   0xc
    674  g_I2Shandles               0x10000744   Gb    3  Data  Hi   0x4c
    675  _random_number_data        0x10000790   Gb    3  Data  De   0xe4
    676  __libspace_start           0x10000874   Gb    3  Data  De   0x60
    677  __temporary_stack_top$libspace
                                    0x100008d4   Gb    3  Data  De 
    678  psGlobalAccessPtr          0x10060000   Gb    4  Data  Hi   0x4
    679  ui32MCUClaimed             0x10060004   Gb    4  Data  Hi   0x14
    680  ui32DSP0Claimed            0x10060018   Gb    4  Data  Hi   0x14
    681  ui32DSP1Claimed            0x1006002c   Gb    4  Data  Hi   0x14
    682  g_ui32I2S0RxDataBuffer     0x10060040   Gb    4  Data  Hi   0x7f0c
    683  g_ui32I2S0TxDataBuffer     0x10067f4c   Gb    4  Data  Hi   0x7f0c
    684  g_ui32I2S0TxDataBufferPingCopy
                                    0x1006fe58   Gb    4  Data  Hi   0x3f80
    685  g_ui32I2S0TxDataBufferPongCopy
                                    0x10073dd8   Gb    4  Data  Hi   0x3f80


** Section #13 '.strtab' (SHT_STRTAB)
    Size   : 10992 bytes

            #  Offset String
        ====================================

            1      1: $d
            2      4: $t
            3      7: $d.realdata
            4     19: ..\src\am_resources.c
            5     41: ../src/am_resources.c
            6     63: .constdata
            7     74: __tagsym$$used
            8     89: RESOURCE_TABLE
            9    104: SHARED_RW
           10    114: ..\src\tdm_loopback.c
           11    136: ../src/tdm_loopback.c
           12    158: i.am_dspi2s0_isr
           13    175: i.main
           14    182: .bss
           15    187: g_sI2SIOConfig
           16    202: ui32I2sWordLength
           17    220: .data
           18    226: g_ui32TestLoop
           19    241: g_sI2SDataConfig
           20    258: g_sI2S0Config
           21    272: sTransfer0
           22    283: ..\..\..\..\..\..\utils\am_util_delay.c
           23    323: ../../../../../../utils/am_util_delay.c
           24    363: i.am_util_delay_ms
           25    382: i.am_util_delay_us
           26    401: ..\..\..\..\..\..\utils\am_util_faultisr.c
           27    444: .emb_text
           28    454: $v0
           29    458: ../../../../../../utils/am_util_faultisr.c
           30    501: i.am_util_faultisr_collect_data
           31    533: .conststring
           32    546: ../../../../../../utils/am_util_stdio.c
           33    586: i.am_util_stdio_printf
           34    609: i.am_util_stdio_printf_init
           35    637: i.am_util_stdio_terminal_clear
           36    668: i.am_util_stdio_vsprintf
           37    693: i.ndigits_in_u64
           38    710: ndigits_in_u64
           39    725: i.uint64_to_str
           40    741: uint64_to_str
           41    755: g_prfbuf
           42    764: g_bTxtXlate
           43    776: ../keil/startup_keil.s
           44    799: STACK
           45    805: StackMem
           46    814: HEAP
           47    819: HeapMem
           48    827: RESET
           49    833: am_cryptosec_isr
           50    850: am_default_isr
           51    865: .text
           52    871: ..\am_bsp.c
           53    883: ../am_bsp.c
           54    895: i.am_bsp_i2s_pins_disable
           55    921: i.am_bsp_i2s_pins_enable
           56    946: i.am_bsp_itm_printf_enable
           57    973: g_ePrintInterface
           58    991: g_sCOMUART
           59   1002: ..\..\..\..\..\mcu\apollo4l\hal\mcu\am_hal_clkgen.c
           60   1054: ../../../../../mcu/apollo4l/hal/mcu/am_hal_clkgen.c
           61   1106: i.am_hal_clkgen_control
           62   1130: ..\..\..\..\..\mcu\apollo4l\hal\mcu\am_hal_fault.c
           63   1181: ../../../../../mcu/apollo4l/hal/mcu/am_hal_fault.c
           64   1232: i.am_hal_fault_status_get
           65   1258: ..\..\..\..\..\mcu\apollo4l\hal\mcu\am_hal_interrupt.c
           66   1313: ../../../../../mcu/apollo4l/hal/mcu/am_hal_interrupt.c
           67   1368: ..\..\..\..\..\mcu\apollo4l\hal\mcu\am_hal_mcuctrl.c
           68   1421: ../../../../../mcu/apollo4l/hal/mcu/am_hal_mcuctrl.c
           69   1474: i.am_hal_mcuctrl_control
           70   1499: ..\..\..\..\..\mcu\apollo4l\hal\mcu\am_hal_utils.c
           71   1550: ../../../../../mcu/apollo4l/hal/mcu/am_hal_utils.c
           72   1601: i.am_hal_delay_us
           73   1619: i.am_hal_delay_us_status_change
           74   1651: i.am_hal_delay_us_status_check
           75   1682: ..\..\..\..\..\mcu\apollo4l\hal\am_hal_i2s.c
           76   1727: ../../../../../mcu/apollo4l/hal/am_hal_i2s.c
           77   1772: i.am_hal_i2s_configure
           78   1795: i.am_hal_i2s_deinitialize
           79   1821: i.am_hal_i2s_disable
           80   1842: i.am_hal_i2s_dma_configure
           81   1869: i.am_hal_i2s_dma_get_buffer
           82   1897: i.am_hal_i2s_dma_transfer_complete
           83   1932: i.am_hal_i2s_dma_transfer_start
           84   1964: i.am_hal_i2s_enable
           85   1984: i.am_hal_i2s_initialize
           86   2008: i.am_hal_i2s_interrupt_clear
           87   2037: i.am_hal_i2s_interrupt_service
           88   2068: i.am_hal_i2s_interrupt_status_get
           89   2102: i.am_hal_i2s_power_control
           90   2129: ..\am_bsp_pins.c
           91   2146: ../am_bsp_pins.c
           92   2163: ..\..\..\..\..\mcu\apollo4l\hal\mcu\am_hal_bootrom_helper.c
           93   2223: ../../../../../mcu/apollo4l/hal/mcu/am_hal_bootrom_helper.c
           94   2283: ..\..\..\..\..\mcu\apollo4l\hal\mcu\am_hal_cachectrl.c
           95   2338: ../../../../../mcu/apollo4l/hal/mcu/am_hal_cachectrl.c
           96   2393: i.am_hal_daxi_config
           97   2414: i.am_hal_daxi_control
           98   2436: i.__ARM_common_memcpy4_5
           99   2461: ..\..\..\..\..\mcu\apollo4l\hal\mcu\am_hal_itm.c
          100   2510: ../../../../../mcu/apollo4l/hal/mcu/am_hal_itm.c
          101   2559: i.am_hal_itm_enable
          102   2579: i.am_hal_itm_print
          103   2598: ..\..\..\..\..\mcu\apollo4l\hal\mcu\am_hal_rtc.c
          104   2647: ../../../../../mcu/apollo4l/hal/mcu/am_hal_rtc.c
          105   2696: ..\..\..\..\..\mcu\apollo4l\hal\mcu\am_hal_tpiu.c
          106   2746: ../../../../../mcu/apollo4l/hal/mcu/am_hal_tpiu.c
          107   2796: i.am_hal_tpiu_enable
          108   2817: ..\..\..\..\..\mcu\apollo4l\hal\mcu\am_hal_uart.c
          109   2867: ../../../../../mcu/apollo4l/hal/mcu/am_hal_uart.c
          110   2917: ..\..\..\..\..\mcu\apollo4l\hal\am_hal_dcu.c
          111   2962: ../../../../../mcu/apollo4l/hal/am_hal_dcu.c
          112   3007: i.am_hal_dcu_get
          113   3024: i.am_hal_dcu_update
          114   3044: i.copy_words
          115   3057: copy_words
          116   3068: ..\..\..\..\..\mcu\apollo4l\hal\am_hal_global.c
          117   3116: ../../../../../mcu/apollo4l/hal/am_hal_global.c
          118   3164: i.am_gpu_power_enable
          119   3186: ..\..\..\..\..\mcu\apollo4l\hal\am_hal_gpio.c
          120   3232: ../../../../../mcu/apollo4l/hal/am_hal_gpio.c
          121   3278: i.am_hal_gpio_pinconfig
          122   3302: g_ui32RMpintbl
          123   3317: g_ui32DSpintbl
          124   3332: ..\..\..\..\..\mcu\apollo4l\hal\am_hal_pwrctrl.c
          125   3381: ../../../../../mcu/apollo4l/hal/am_hal_pwrctrl.c
          126   3430: i.am_hal_pwrctrl_periph_disable
          127   3462: i.am_hal_pwrctrl_periph_enable
          128   3493: i.crypto_boost_trims
          129   3514: g_bOrigTrimsStored
          130   3533: g_bBoostForCryptoApplied
          131   3558: g_orig_ACTTRIMVDDF
          132   3577: g_orig_MEMLDOACTIVETRIM
          133   3601: g_orig_LPTRIMVDDF
          134   3619: g_orig_MEMLPLDOTRIM
          135   3639: g_orig_TVRGVREFTRIM
          136   3659: g_ui32VDDFAdjustCodes
          137   3681: g_i32LatestVddfActTrim
          138   3704: g_i32LatestLDOActTrim
          139   3726: ..\..\..\..\..\mcu\apollo4l\hal\mcu\am_hal_mram.c
          140   3776: ../../../../../mcu/apollo4l/hal/mcu/am_hal_mram.c
          141   3826: ..\..\..\..\..\mcu\apollo4l\hal\am_hal_pin.c
          142   3871: ../../../../../mcu/apollo4l/hal/am_hal_pin.c
          143   3916: ..\..\..\..\..\mcu\apollo4l\hal\am_hal_queue.c
          144   3963: ../../../../../mcu/apollo4l/hal/am_hal_queue.c
          145   4010: dc.s
          146   4015: ../clib/longlong.s
          147   4034: ../clib/stdlib.c
          148   4051: ../clib/heapaux.c
          149   4069: ../clib/angel/startup.s
          150   4093: !!!main
          151   4101: ../clib/angel/handlers.s
          152   4126: !!handler_copy
          153   4141: ../fplib/d2f.s
          154   4156: x$fpl$d2f
          155   4166: ../clib/angel/kernel.s
          156   4189: .ARM.Collect$$rtentry$$00000000
          157   4221: ../clib/angel/rt.s
          158   4240: ../clib/libinit.s
          159   4258: .ARM.Collect$$libinit$$00000001
          160   4290: .ARM.Collect$$libinit$$00000004
          161   4322: .ARM.Collect$$libinit$$0000000A
          162   4354: .ARM.Collect$$libinit$$0000000C
          163   4386: .ARM.Collect$$libinit$$0000000D
          164   4418: .ARM.Collect$$libinit$$0000000E
          165   4450: .ARM.Collect$$libinit$$00000011
          166   4482: .ARM.Collect$$libinit$$00000013
          167   4514: .ARM.Collect$$libinit$$00000015
          168   4546: .ARM.Collect$$libinit$$00000017
          169   4578: .ARM.Collect$$libinit$$00000019
          170   4610: .ARM.Collect$$libinit$$0000001B
          171   4642: .ARM.Collect$$libinit$$0000001D
          172   4674: .ARM.Collect$$libinit$$0000001F
          173   4706: .ARM.Collect$$libinit$$00000021
          174   4738: .ARM.Collect$$libinit$$00000023
          175   4770: .ARM.Collect$$libinit$$00000025
          176   4802: .ARM.Collect$$libinit$$0000002C
          177   4834: .ARM.Collect$$libinit$$0000002E
          178   4866: .ARM.Collect$$libinit$$00000030
          179   4898: .ARM.Collect$$libinit$$00000032
          180   4930: .ARM.Collect$$libinit$$00000033
          181   4962: ../fplib/dnaninf.s
          182   4981: x$fpl$dnaninf
          183   4995: ../fplib/fretinf.s
          184   5014: x$fpl$fretinf
          185   5028: ../fplib/usenofp.s
          186   5047: x$fpl$usenofp
          187   5061: .ARM.Collect$$rtentry$$00000002
          188   5093: .ARM.Collect$$rtentry$$00000009
          189   5125: .ARM.Collect$$rtentry$$0000000A
          190   5157: .ARM.Collect$$rtentry$$0000000C
          191   5189: .ARM.Collect$$rtentry$$0000000D
          192   5221: .ARM.Collect$$rtentry$$00000004
          193   5253: ../clib/armsys.c
          194   5270: ../fplib/fpinit.s
          195   5288: x$fpl$fpinit
          196   5301: ../clib/angel/sys.s
          197   5321: ../clib/signal.c
          198   5338: ../clib/angel/boardlib.s
          199   5363: .ARM.Collect$$libinit$$00000000
          200   5395: ../clib/angel/sysapp.c
          201   5418: .ARM.Collect$$rtexit$$00000000
          202   5449: ../clib/heapalloc.c
          203   5469: .ARM.Collect$$rtexit$$00000002
          204   5500: .ARM.Collect$$rtexit$$00000003
          205   5531: .ARM.Collect$$rtexit$$00000004
          206   5562: ../clib/signal.s
          207   5579: .ARM.Collect$$libshutdown$$00000000
          208   5615: .ARM.Collect$$libshutdown$$00000002
          209   5651: .ARM.Collect$$libshutdown$$00000004
          210   5687: .ARM.Collect$$libshutdown$$00000007
          211   5723: .ARM.Collect$$libshutdown$$0000000A
          212   5759: .ARM.Collect$$libshutdown$$0000000C
          213   5795: .ARM.Collect$$libshutdown$$0000000F
          214   5831: .ARM.Collect$$libshutdown$$00000010
          215   5867: ../clib/angel/dczerorl2.s
          216   5893: !!dczerorl2
          217   5905: ../clib/angel/scatter.s
          218   5929: !!!scatter
          219   5940: !!handler_zi
          220   5953: BuildAttributes$$THM_ISAv4$E$P$D$K$B$S$7EM$VFPi3$EXTD16$VFPS$VFMA$PE$A:L22UL41UL21$X:L11$S22US41US21$IEEE1$IW$USESV6$~STKCKD$USESV7$~SHL$OTIME$ROPI$EBA8$UX$STANDARDLIB$REQ8$PRES8$EABIv2
          221   6139: __ARM_use_no_argv
          222   6157: __Vectors
          223   6167: __Patchable
          224   6179: Reset_Handler
          225   6193: NMI_Handler
          226   6205: MemManage_Handler
          227   6223: BusFault_Handler
          228   6240: UsageFault_Handler
          229   6259: SVC_Handler
          230   6271: DebugMon_Handler
          231   6288: PendSV_Handler
          232   6303: SysTick_Handler
          233   6319: am_adc_isr
          234   6330: am_audadc0_isr
          235   6345: am_brownout_isr
          236   6361: am_cachecpu_isr
          237   6377: am_clkgen_isr
          238   6391: am_ctimer_isr
          239   6405: am_disp_isr
          240   6417: am_dsi_isr
          241   6428: am_dspi2s1_isr
          242   6443: am_dspi2s2_isr
          243   6458: am_dspi2s3_isr
          244   6473: am_gpio0_001f_isr
          245   6491: am_gpio0_203f_isr
          246   6509: am_gpio0_405f_isr
          247   6527: am_gpio0_607f_isr
          248   6545: am_gpio1_001f_isr
          249   6563: am_gpio1_203f_isr
          250   6581: am_gpio1_405f_isr
          251   6599: am_gpio1_607f_isr
          252   6617: am_gpu_isr
          253   6628: am_iomaster0_isr
          254   6645: am_iomaster1_isr
          255   6662: am_iomaster2_isr
          256   6679: am_iomaster3_isr
          257   6696: am_iomaster4_isr
          258   6713: am_iomaster5_isr
          259   6730: am_iomaster6_isr
          260   6747: am_iomaster7_isr
          261   6764: am_ioslave_acc_isr
          262   6783: am_ioslave_ios_isr
          263   6802: am_mspi0_isr
          264   6815: am_mspi1_isr
          265   6828: am_mspi2_isr
          266   6841: am_pdm0_isr
          267   6853: am_pdm1_isr
          268   6865: am_pdm2_isr
          269   6877: am_pdm3_isr
          270   6889: am_rtc_isr
          271   6900: am_sdio_isr
          272   6912: am_stimer_cmpr0_isr
          273   6932: am_stimer_cmpr1_isr
          274   6952: am_stimer_cmpr2_isr
          275   6972: am_stimer_cmpr3_isr
          276   6992: am_stimer_cmpr4_isr
          277   7012: am_stimer_cmpr5_isr
          278   7032: am_stimer_cmpr6_isr
          279   7052: am_stimer_cmpr7_isr
          280   7072: am_stimerof_isr
          281   7088: am_timer00_isr
          282   7103: am_timer01_isr
          283   7118: am_timer02_isr
          284   7133: am_timer03_isr
          285   7148: am_timer04_isr
          286   7163: am_timer05_isr
          287   7178: am_timer06_isr
          288   7193: am_timer07_isr
          289   7208: am_timer08_isr
          290   7223: am_timer09_isr
          291   7238: am_timer10_isr
          292   7253: am_timer11_isr
          293   7268: am_timer12_isr
          294   7283: am_timer13_isr
          295   7298: am_timer14_isr
          296   7313: am_timer15_isr
          297   7328: am_uart1_isr
          298   7341: am_uart2_isr
          299   7354: am_uart3_isr
          300   7367: am_uart_isr
          301   7379: am_usb_isr
          302   7390: am_vcomp_isr
          303   7403: am_watchdog_isr
          304   7419: __main
          305   7426: __scatterload
          306   7440: __scatterload_rt2
          307   7458: __scatterload_rt2_thumb_only
          308   7487: __scatterload_null
          309   7506: __decompress
          310   7519: __decompress1
          311   7533: __scatterload_copy
          312   7552: __scatterload_zeroinit
          313   7575: __rt_lib_init
          314   7589: __rt_lib_init_fp_1
          315   7608: __rt_lib_init_heap_1
          316   7629: __rt_lib_init_preinit_1
          317   7653: __rt_lib_init_rand_2
          318   7674: __rt_lib_init_user_alloc_1
          319   7701: __rt_lib_init_alloca_1
          320   7724: __rt_lib_init_argv_1
          321   7745: __rt_lib_init_atexit_1
          322   7768: __rt_lib_init_clock_1
          323   7790: __rt_lib_init_cpp_1
          324   7810: __rt_lib_init_exceptions_1
          325   7837: __rt_lib_init_fp_trap_1
          326   7861: __rt_lib_init_getenv_1
          327   7884: __rt_lib_init_lc_collate_1
          328   7911: __rt_lib_init_lc_ctype_1
          329   7936: __rt_lib_init_lc_monetary_1
          330   7964: __rt_lib_init_lc_numeric_1
          331   7991: __rt_lib_init_lc_time_1
          332   8015: __rt_lib_init_rand_1
          333   8036: __rt_lib_init_return
          334   8057: __rt_lib_init_signal_1
          335   8080: __rt_lib_init_stdio_1
          336   8102: __rt_lib_shutdown
          337   8120: __rt_lib_shutdown_cpp_1
          338   8144: __rt_lib_shutdown_fp_trap_1
          339   8172: __rt_lib_shutdown_heap_1
          340   8197: __rt_lib_shutdown_return
          341   8222: __rt_lib_shutdown_signal_1
          342   8249: __rt_lib_shutdown_stdio_1
          343   8275: __rt_lib_shutdown_user_alloc_1
          344   8306: __rt_entry
          345   8317: __rt_entry_presh_1
          346   8336: __rt_entry_sh
          347   8350: __rt_entry_li
          348   8364: __rt_entry_postsh_1
          349   8384: __rt_entry_main
          350   8400: __rt_entry_postli_1
          351   8420: __rt_exit
          352   8430: __rt_exit_ls
          353   8443: __rt_exit_prels_1
          354   8461: __rt_exit_exit
          355   8476: HardFault_Handler
          356   8494: getStackedReg
          357   8508: am_hal_interrupt_master_enable
          358   8539: am_hal_interrupt_master_disable
          359   8571: am_hal_interrupt_master_set
          360   8599: rand
          361   8604: __user_initial_stackheap
          362   8629: __aeabi_uldivmod
          363   8646: _ll_udiv
          364   8655: __aeabi_llsl
          365   8668: _ll_shift_l
          366   8680: __aeabi_llsr
          367   8693: _ll_ushift_r
          368   8706: srand
          369   8712: _rand_init
          370   8723: __use_two_region_memory
          371   8747: __rt_heap_escrow$2region
          372   8772: __rt_heap_expand$2region
          373   8797: __user_setup_stackheap
          374   8820: exit
          375   8825: __user_libspace
          376   8841: __user_perproc_libspace
          377   8865: __user_perthread_libspace
          378   8891: _sys_exit
          379   8901: __I$use$semihosting
          380   8921: __use_no_semihosting_swi
          381   8946: __ARM_common_memcpy4_5
          382   8969: __semihosting_library_function
          383   9000: am_bsp_i2s_pins_disable
          384   9024: am_bsp_i2s_pins_enable
          385   9047: am_bsp_itm_printf_enable
          386   9072: am_dspi2s0_isr
          387   9087: am_gpu_power_enable
          388   9107: am_hal_clkgen_control
          389   9129: am_hal_daxi_config
          390   9148: am_hal_daxi_control
          391   9168: am_hal_dcu_get
          392   9183: am_hal_dcu_update
          393   9201: am_hal_delay_us
          394   9217: am_hal_delay_us_status_change
          395   9247: am_hal_delay_us_status_check
          396   9276: am_hal_fault_status_get
          397   9300: am_hal_gpio_pinconfig
          398   9322: am_hal_i2s_configure
          399   9343: am_hal_i2s_deinitialize
          400   9367: am_hal_i2s_disable
          401   9386: am_hal_i2s_dma_configure
          402   9411: am_hal_i2s_dma_get_buffer
          403   9437: am_hal_i2s_dma_transfer_complete
          404   9470: am_hal_i2s_dma_transfer_start
          405   9500: am_hal_i2s_enable
          406   9518: am_hal_i2s_initialize
          407   9540: am_hal_i2s_interrupt_clear
          408   9567: am_hal_i2s_interrupt_service
          409   9596: am_hal_i2s_interrupt_status_get
          410   9628: am_hal_i2s_power_control
          411   9653: am_hal_itm_enable
          412   9671: am_hal_itm_print
          413   9688: am_hal_mcuctrl_control
          414   9711: am_hal_pwrctrl_periph_disable
          415   9741: am_hal_pwrctrl_periph_enable
          416   9770: am_hal_tpiu_enable
          417   9789: am_util_delay_ms
          418   9806: am_util_delay_us
          419   9823: am_util_faultisr_collect_data
          420   9853: am_util_stdio_printf
          421   9874: am_util_stdio_printf_init
          422   9900: am_util_stdio_terminal_clear
          423   9929: am_util_stdio_vsprintf
          424   9952: crypto_boost_trims
          425   9971: main
          426   9976: __aeabi_d2f
          427   9988: _d2f
          428   9993: __fpl_dnaninf
          429  10007: _fp_init
          430  10016: __fplib_config_fpu_vfp
          431  10039: __fplib_config_pureend_doubles
          432  10070: __fpl_fretinf
          433  10084: __I$use$fp
          434  10095: ui32MCUAllowed
          435  10110: ui32DSP0Allowed
          436  10126: ui32DSP1Allowed
          437  10142: ui32SharedAccess
          438  10159: sGlobalAccess
          439  10173: g_amHalMcuctrlArgDefault
          440  10198: g_am_hal_bootrom_helper
          441  10222: am_hal_gpio_pincfg_disabled
          442  10250: g_DefaultMcuMemCfg
          443  10269: g_DefaultSRAMCfg
          444  10286: am_hal_pwrctrl_peripheral_control
          445  10320: Region$$Table$$Base
          446  10340: Region$$Table$$Limit
          447  10361: pI2S0Handle
          448  10373: g_pfnCharPrint
          449  10388: g_ui32xtalhscap2trim
          450  10409: g_ui32xtalhscaptrim
          451  10429: g_AM_BSP_GPIO_ITM_SWO
          452  10451: g_AM_BSP_GPIO_I2S0_DATA
          453  10475: g_AM_BSP_GPIO_I2S0_SDOUT
          454  10500: g_AM_BSP_GPIO_I2S0_CLK
          455  10523: g_AM_BSP_GPIO_I2S0_WS
          456  10545: g_AM_BSP_GPIO_I2S0_SDIN
          457  10569: gDaxiConfig
          458  10581: gStartOff
          459  10591: gpDcuEnable
          460  10603: gpDcuLock
          461  10613: gDcuEnable
          462  10624: gDcuDisable
          463  10636: g_eCurrPwrMode
          464  10651: g_ui32TrimVer
          465  10665: g_ui32origSimobuckVDDStrim
          466  10692: g_ui32I2SDmaCpl
          467  10708: gFaultStack
          468  10720: am_hal_xtal_users
          469  10738: g_I2Shandles
          470  10751: _random_number_data
          471  10771: __libspace_start
          472  10788: __temporary_stack_top$libspace
          473  10819: psGlobalAccessPtr
          474  10837: ui32MCUClaimed
          475  10852: ui32DSP0Claimed
          476  10868: ui32DSP1Claimed
          477  10884: g_ui32I2S0RxDataBuffer
          478  10907: g_ui32I2S0TxDataBuffer
          479  10930: g_ui32I2S0TxDataBufferPingCopy
          480  10961: g_ui32I2S0TxDataBufferPongCopy


** Section #14 '.note' (SHT_NOTE)
    Size   : 32 bytes (alignment 4)


** Section #15 '.comment' (SHT_PROGBITS)
    Size   : 33452 bytes


** Section #16 '.shstrtab' (SHT_STRTAB)
    Size   : 164 bytes

            #  Offset String
        ====================================

            1      1: MCU_MRAM
            2     10: MCU_TCM
            3     18: SHARED_SRAM
            4     30: .debug_abbrev
            5     44: .debug_frame
            6     57: .debug_info
            7     69: .debug_line
            8     81: .debug_loc
            9     92: .debug_macinfo
           10    107: .debug_pubnames
           11    123: .symtab
           12    131: .strtab
           13    139: .note
           14    145: .comment
           15    154: .shstrtab


