
========================================================================

** ELF Header Information

    File Name: bin\pdm_fft.axf

    Machine class: ELFCLASS32 (32-bit)
    Data encoding: ELFDATA2LSB (Little endian)
    Header version: EV_CURRENT (Current version)
    Operating System ABI: none
    ABI Version: 0
    File Type: ET_EXEC (Executable) (2)
    Machine: EM_ARM (ARM)

    Image Entry point: 0x0000c135
    Flags: EF_ARM_HASENTRY + EF_ARM_ABI_FLOAT_HARD (0x05000402)

    ARM ELF revision: 5 (ABI version 2)

    Conforms to Hard float procedure-call standard

    Built with
    Component: ARM Compiler 6.16 Tool: armasm [5dfea300]
    Component: ARM Compiler 6.16 Tool: armlink [5dfeaa00]

    Header size: 52 bytes (0x34)
    Program header entry size: 32 bytes (0x20)
    Section header entry size: 40 bytes (0x28)

    Program header entries: 1
    Section header entries: 17

    Program header offset: 121628 (0x0001db1c)
    Section header offset: 121660 (0x0001db3c)

    Section header string table index: 16

========================================================================

** Program header #0 (PT_LOAD) [PF_X + PF_W + PF_R + PF_ARM_ENTRY]
    Size : 136024 bytes (48840 bytes in file)
    Virtual address: 0x0000c000 (Alignment 8)


========================================================================

** Section #1 'ROMEM' (SHT_PROGBITS) [SHF_ALLOC + SHF_EXECINSTR]
    Size   : 48804 bytes (alignment 4)
    Address: 0x0000c000

    $d
    RESET
    __Vectors
        0x0000c000:    10011000    ....    DCD    268505088
        0x0000c004:    0000c101    ....    DCD    49409
        0x0000c008:    0000c11f    ....    DCD    49439
        0x0000c00c:    0000c2d3    ....    DCD    49875
        0x0000c010:    0000c121    !...    DCD    49441
        0x0000c014:    0000c123    #...    DCD    49443
        0x0000c018:    0000c125    %...    DCD    49445
        0x0000c01c:    00000000    ....    DCD    0
        0x0000c020:    00000000    ....    DCD    0
        0x0000c024:    00000000    ....    DCD    0
        0x0000c028:    00000000    ....    DCD    0
        0x0000c02c:    0000c127    '...    DCD    49447
        0x0000c030:    0000c129    )...    DCD    49449
        0x0000c034:    00000000    ....    DCD    0
        0x0000c038:    0000c12b    +...    DCD    49451
        0x0000c03c:    0000c12d    -...    DCD    49453
        0x0000c040:    0000c12f    /...    DCD    49455
        0x0000c044:    0000c12f    /...    DCD    49455
        0x0000c048:    0000c12f    /...    DCD    49455
        0x0000c04c:    0000c12f    /...    DCD    49455
        0x0000c050:    0000c12f    /...    DCD    49455
        0x0000c054:    0000c12f    /...    DCD    49455
        0x0000c058:    0000c12f    /...    DCD    49455
        0x0000c05c:    0000c12f    /...    DCD    49455
        0x0000c060:    0000c12f    /...    DCD    49455
        0x0000c064:    0000c12f    /...    DCD    49455
        0x0000c068:    0000c12f    /...    DCD    49455
        0x0000c06c:    0000c12f    /...    DCD    49455
        0x0000c070:    0000c12f    /...    DCD    49455
        0x0000c074:    0000c12f    /...    DCD    49455
        0x0000c078:    0000c12f    /...    DCD    49455
        0x0000c07c:    0000c12f    /...    DCD    49455
        0x0000c080:    0000c12f    /...    DCD    49455
        0x0000c084:    0000c12f    /...    DCD    49455
        0x0000c088:    0000c12f    /...    DCD    49455
        0x0000c08c:    0000d465    e...    DCD    54373
        0x0000c090:    0000c12f    /...    DCD    49455
        0x0000c094:    0000c12f    /...    DCD    49455
        0x0000c098:    0000c12f    /...    DCD    49455
        0x0000c09c:    0000c12f    /...    DCD    49455
        0x0000c0a0:    0000c12f    /...    DCD    49455
        0x0000c0a4:    0000c12f    /...    DCD    49455
        0x0000c0a8:    0000c12f    /...    DCD    49455
        0x0000c0ac:    0000c12f    /...    DCD    49455
        0x0000c0b0:    0000c12f    /...    DCD    49455
        0x0000c0b4:    0000c12f    /...    DCD    49455
        0x0000c0b8:    0000c12f    /...    DCD    49455
        0x0000c0bc:    0000c12f    /...    DCD    49455
        0x0000c0c0:    0000c12f    /...    DCD    49455
        0x0000c0c4:    0000c12f    /...    DCD    49455
    __Patchable
        0x0000c0c8:    00000000    ....    DCD    0
        0x0000c0cc:    00000000    ....    DCD    0
        0x0000c0d0:    00000000    ....    DCD    0
        0x0000c0d4:    00000000    ....    DCD    0
        0x0000c0d8:    00000000    ....    DCD    0
        0x0000c0dc:    00000000    ....    DCD    0
        0x0000c0e0:    00000000    ....    DCD    0
        0x0000c0e4:    00000000    ....    DCD    0
        0x0000c0e8:    00000000    ....    DCD    0
        0x0000c0ec:    00000000    ....    DCD    0
        0x0000c0f0:    00000000    ....    DCD    0
        0x0000c0f4:    00000000    ....    DCD    0
        0x0000c0f8:    00000000    ....    DCD    0
        0x0000c0fc:    00000000    ....    DCD    0
    $t
    $v0
    Reset_Handler
        0x0000c100:    f64e5088    N..P    MOV      r0,#0xed88
        0x0000c104:    f2ce0000    ....    MOVT     r0,#0xe000
        0x0000c108:    6801        .h      LDR      r1,[r0,#0]
        0x0000c10a:    f4410170    A.p.    ORR      r1,r1,#0xf00000
        0x0000c10e:    6001        .`      STR      r1,[r0,#0]
        0x0000c110:    f3bf8f4f    ..O.    DSB      
        0x0000c114:    f3bf8f6f    ..o.    ISB      
        0x0000c118:    4805        .H      LDR      r0,[pc,#20] ; [0xc130] = 0xc135
        0x0000c11a:    4700        .G      BX       r0
        0x0000c11c:    e7fe        ..      B        0xc11c ; Reset_Handler + 28
    NMI_Handler
        0x0000c11e:    e7fe        ..      B        NMI_Handler ; 0xc11e
    MemManage_Handler
        0x0000c120:    e7fe        ..      B        MemManage_Handler ; 0xc120
    BusFault_Handler
        0x0000c122:    e7fe        ..      B        BusFault_Handler ; 0xc122
    UsageFault_Handler
        0x0000c124:    e7fe        ..      B        UsageFault_Handler ; 0xc124
    SVC_Handler
        0x0000c126:    e7fe        ..      B        SVC_Handler ; 0xc126
    DebugMon_Handler
        0x0000c128:    e7fe        ..      B        DebugMon_Handler ; 0xc128
    PendSV_Handler
        0x0000c12a:    e7fe        ..      B        PendSV_Handler ; 0xc12a
    SysTick_Handler
        0x0000c12c:    e7fe        ..      B        SysTick_Handler ; 0xc12c
    am_adc_isr
    am_ble_isr
    am_brownout_isr
    am_clkgen_isr
    am_ctimer_isr
    am_gpio_isr
    am_iomaster0_isr
    am_iomaster1_isr
    am_iomaster2_isr
    am_iomaster3_isr
    am_iomaster4_isr
    am_iomaster5_isr
    am_ioslave_acc_isr
    am_ioslave_ios_isr
    am_mspi0_isr
    am_mspi1_isr
    am_mspi2_isr
    am_rtc_isr
    am_scard_isr
    am_software0_isr
    am_stimer_cmpr0_isr
    am_stimer_cmpr1_isr
    am_stimer_cmpr2_isr
    am_stimer_cmpr3_isr
    am_stimer_cmpr4_isr
    am_stimer_cmpr5_isr
    am_stimer_cmpr6_isr
    am_stimer_cmpr7_isr
    am_stimer_isr
    am_uart0_isr
    am_uart1_isr
    am_uart_isr
    am_vcomp_isr
    am_watchdog_isr
        0x0000c12e:    e7fe        ..      B        am_adc_isr ; 0xc12e
    $d
        0x0000c130:    0000c135    5...    DCD    49461
    $t
    !!!main
    __main
        0x0000c134:    f000f802    ....    BL       __scatterload ; 0xc13c
        0x0000c138:    f000f83c    ..<.    BL       __rt_entry ; 0xc1b4
    !!!scatter
    __scatterload
    __scatterload_rt2
    __scatterload_rt2_thumb_only
        0x0000c13c:    a00a        ..      ADR      r0,{pc}+0x2c ; 0xc168
        0x0000c13e:    e8900c00    ....    LDM      r0,{r10,r11}
        0x0000c142:    4482        .D      ADD      r10,r10,r0
        0x0000c144:    4483        .D      ADD      r11,r11,r0
        0x0000c146:    f1aa0701    ....    SUB      r7,r10,#1
    __scatterload_null
        0x0000c14a:    45da        .E      CMP      r10,r11
        0x0000c14c:    d101        ..      BNE      0xc152 ; __scatterload_null + 8
        0x0000c14e:    f000f831    ..1.    BL       __rt_entry ; 0xc1b4
        0x0000c152:    f2af0e09    ....    ADR      lr,{pc}-7 ; 0xc14b
        0x0000c156:    e8ba000f    ....    LDM      r10!,{r0-r3}
        0x0000c15a:    f0130f01    ....    TST      r3,#1
        0x0000c15e:    bf18        ..      IT       NE
        0x0000c160:    1afb        ..      SUBNE    r3,r7,r3
        0x0000c162:    f0430301    C...    ORR      r3,r3,#1
        0x0000c166:    4718        .G      BX       r3
    $d
        0x0000c168:    0000bd0c    ....    DCD    48396
        0x0000c16c:    0000bd3c    <...    DCD    48444
    $t
    !!handler_copy
    __scatterload_copy
        0x0000c170:    3a10        .:      SUBS     r2,r2,#0x10
        0x0000c172:    bf24        $.      ITT      CS
        0x0000c174:    c878        x.      LDMCS    r0!,{r3-r6}
        0x0000c176:    c178        x.      STMCS    r1!,{r3-r6}
        0x0000c178:    d8fa        ..      BHI      __scatterload_copy ; 0xc170
        0x0000c17a:    0752        R.      LSLS     r2,r2,#29
        0x0000c17c:    bf24        $.      ITT      CS
        0x0000c17e:    c830        0.      LDMCS    r0!,{r4,r5}
        0x0000c180:    c130        0.      STMCS    r1!,{r4,r5}
        0x0000c182:    bf44        D.      ITT      MI
        0x0000c184:    6804        .h      LDRMI    r4,[r0,#0]
        0x0000c186:    600c        .`      STRMI    r4,[r1,#0]
        0x0000c188:    4770        pG      BX       lr
        0x0000c18a:    0000        ..      MOVS     r0,r0
    !!handler_zi
    __scatterload_zeroinit
        0x0000c18c:    2300        .#      MOVS     r3,#0
        0x0000c18e:    2400        .$      MOVS     r4,#0
        0x0000c190:    2500        .%      MOVS     r5,#0
        0x0000c192:    2600        .&      MOVS     r6,#0
        0x0000c194:    3a10        .:      SUBS     r2,r2,#0x10
        0x0000c196:    bf28        (.      IT       CS
        0x0000c198:    c178        x.      STMCS    r1!,{r3-r6}
        0x0000c19a:    d8fb        ..      BHI      0xc194 ; __scatterload_zeroinit + 8
        0x0000c19c:    0752        R.      LSLS     r2,r2,#29
        0x0000c19e:    bf28        (.      IT       CS
        0x0000c1a0:    c130        0.      STMCS    r1!,{r4,r5}
        0x0000c1a2:    bf48        H.      IT       MI
        0x0000c1a4:    600b        .`      STRMI    r3,[r1,#0]
        0x0000c1a6:    4770        pG      BX       lr
    .ARM.Collect$$libinit$$00000000
    __rt_lib_init
        0x0000c1a8:    b51f        ..      PUSH     {r0-r4,lr}
    .ARM.Collect$$libinit$$00000001
    __rt_lib_init_fp_1
        0x0000c1aa:    f002ff4e    ..N.    BL       _fp_init ; 0xf04a
    .ARM.Collect$$libinit$$00000004
    .ARM.Collect$$libinit$$0000000A
    .ARM.Collect$$libinit$$0000000C
    .ARM.Collect$$libinit$$0000000E
    .ARM.Collect$$libinit$$00000011
    .ARM.Collect$$libinit$$00000013
    .ARM.Collect$$libinit$$00000015
    .ARM.Collect$$libinit$$00000017
    .ARM.Collect$$libinit$$00000019
    .ARM.Collect$$libinit$$0000001B
    .ARM.Collect$$libinit$$0000001D
    .ARM.Collect$$libinit$$0000001F
    .ARM.Collect$$libinit$$00000021
    .ARM.Collect$$libinit$$00000023
    .ARM.Collect$$libinit$$00000025
    .ARM.Collect$$libinit$$0000002C
    .ARM.Collect$$libinit$$0000002E
    .ARM.Collect$$libinit$$00000030
    .ARM.Collect$$libinit$$00000032
    .ARM.Collect$$libinit$$00000033
    __rt_lib_init_alloca_1
    __rt_lib_init_argv_1
    __rt_lib_init_atexit_1
    __rt_lib_init_clock_1
    __rt_lib_init_cpp_1
    __rt_lib_init_exceptions_1
    __rt_lib_init_fp_trap_1
    __rt_lib_init_getenv_1
    __rt_lib_init_heap_1
    __rt_lib_init_lc_collate_1
    __rt_lib_init_lc_ctype_1
    __rt_lib_init_lc_monetary_1
    __rt_lib_init_lc_numeric_1
    __rt_lib_init_lc_time_1
    __rt_lib_init_preinit_1
    __rt_lib_init_rand_1
    __rt_lib_init_return
    __rt_lib_init_signal_1
    __rt_lib_init_stdio_1
    __rt_lib_init_user_alloc_1
        0x0000c1ae:    bd1f        ..      POP      {r0-r4,pc}
    .ARM.Collect$$libshutdown$$00000000
    __rt_lib_shutdown
        0x0000c1b0:    b510        ..      PUSH     {r4,lr}
    .ARM.Collect$$libshutdown$$00000002
    .ARM.Collect$$libshutdown$$00000004
    .ARM.Collect$$libshutdown$$00000007
    .ARM.Collect$$libshutdown$$0000000A
    .ARM.Collect$$libshutdown$$0000000C
    .ARM.Collect$$libshutdown$$0000000F
    .ARM.Collect$$libshutdown$$00000010
    __rt_lib_shutdown_cpp_1
    __rt_lib_shutdown_fp_trap_1
    __rt_lib_shutdown_heap_1
    __rt_lib_shutdown_return
    __rt_lib_shutdown_signal_1
    __rt_lib_shutdown_stdio_1
    __rt_lib_shutdown_user_alloc_1
        0x0000c1b2:    bd10        ..      POP      {r4,pc}
    .ARM.Collect$$rtentry$$00000000
    .ARM.Collect$$rtentry$$00000002
    .ARM.Collect$$rtentry$$00000004
    __rt_entry
    __rt_entry_presh_1
    __rt_entry_sh
        0x0000c1b4:    f000f858    ..X.    BL       __user_setup_stackheap ; 0xc268
        0x0000c1b8:    4611        .F      MOV      r1,r2
    .ARM.Collect$$rtentry$$00000009
    .ARM.Collect$$rtentry$$0000000A
    __rt_entry_li
    __rt_entry_postsh_1
        0x0000c1ba:    f7fffff5    ....    BL       __rt_lib_init ; 0xc1a8
    .ARM.Collect$$rtentry$$0000000C
    .ARM.Collect$$rtentry$$0000000D
    __rt_entry_main
    __rt_entry_postli_1
        0x0000c1be:    f002fc81    ....    BL       main ; 0xeac4
        0x0000c1c2:    f000f876    ..v.    BL       exit ; 0xc2b2
    .ARM.Collect$$rtexit$$00000000
    __rt_exit
        0x0000c1c6:    b403        ..      PUSH     {r0,r1}
    .ARM.Collect$$rtexit$$00000002
    .ARM.Collect$$rtexit$$00000003
    __rt_exit_ls
    __rt_exit_prels_1
        0x0000c1c8:    f7fffff2    ....    BL       __rt_lib_shutdown ; 0xc1b0
    .ARM.Collect$$rtexit$$00000004
    __rt_exit_exit
        0x0000c1cc:    bc03        ..      POP      {r0,r1}
        0x0000c1ce:    f000f879    ..y.    BL       _sys_exit ; 0xc2c4
        0x0000c1d2:    0000        ..      MOVS     r0,r0
    .text
    $v0
    __user_initial_stackheap
        0x0000c1d4:    4802        .H      LDR      r0,[pc,#8] ; [0xc1e0] = 0x100254b0
        0x0000c1d6:    4903        .I      LDR      r1,[pc,#12] ; [0xc1e4] = 0x10011000
        0x0000c1d8:    4a01        .J      LDR      r2,[pc,#4] ; [0xc1e0] = 0x100254b0
        0x0000c1da:    4b03        .K      LDR      r3,[pc,#12] ; [0xc1e8] = 0x10010000
        0x0000c1dc:    4770        pG      BX       lr
    $d
        0x0000c1de:    0000        ..      DCW    0
        0x0000c1e0:    100254b0    .T..    DCD    268588208
        0x0000c1e4:    10011000    ....    DCD    268505088
        0x0000c1e8:    10010000    ....    DCD    268500992
    $t
    .text
    __aeabi_memclr4
    __aeabi_memclr8
    __rt_memclr_w
        0x0000c1ec:    f04f0200    O...    MOV      r2,#0
    _memset_w
        0x0000c1f0:    b500        ..      PUSH     {lr}
        0x0000c1f2:    4613        .F      MOV      r3,r2
        0x0000c1f4:    4694        .F      MOV      r12,r2
        0x0000c1f6:    4696        .F      MOV      lr,r2
        0x0000c1f8:    3920         9      SUBS     r1,r1,#0x20
        0x0000c1fa:    bf22        ".      ITTT     CS
        0x0000c1fc:    e8a0500c    ...P    STMCS    r0!,{r2,r3,r12,lr}
        0x0000c200:    e8a0500c    ...P    STMCS    r0!,{r2,r3,r12,lr}
        0x0000c204:    f1b10120    .. .    SUBSCS   r1,r1,#0x20
        0x0000c208:    f4bfaff7    ....    BCS.W    0xc1fa ; _memset_w + 10
        0x0000c20c:    0709        ..      LSLS     r1,r1,#28
        0x0000c20e:    bf28        (.      IT       CS
        0x0000c210:    e8a0500c    ...P    STMCS    r0!,{r2,r3,r12,lr}
        0x0000c214:    bf48        H.      IT       MI
        0x0000c216:    c00c        ..      STMMI    r0!,{r2,r3}
        0x0000c218:    f85deb04    ]...    POP      {lr}
        0x0000c21c:    0089        ..      LSLS     r1,r1,#2
        0x0000c21e:    bf28        (.      IT       CS
        0x0000c220:    f8402b04    @..+    STRCS    r2,[r0],#4
        0x0000c224:    bf08        ..      IT       EQ
        0x0000c226:    4770        pG      BXEQ     lr
        0x0000c228:    bf48        H.      IT       MI
        0x0000c22a:    f8202b02     ..+    STRHMI   r2,[r0],#2
        0x0000c22e:    f0114f80    ...O    TST      r1,#0x40000000
        0x0000c232:    bf18        ..      IT       NE
        0x0000c234:    f8002b01    ...+    STRBNE   r2,[r0],#1
        0x0000c238:    4770        pG      BX       lr
    .text
    __use_two_region_memory
        0x0000c23a:    4770        pG      BX       lr
    __rt_heap_escrow$2region
        0x0000c23c:    4770        pG      BX       lr
    __rt_heap_expand$2region
        0x0000c23e:    4770        pG      BX       lr
    .text
    __read_errno
        0x0000c240:    b510        ..      PUSH     {r4,lr}
        0x0000c242:    f000f809    ....    BL       __aeabi_errno_addr ; 0xc258
        0x0000c246:    6800        .h      LDR      r0,[r0,#0]
        0x0000c248:    bd10        ..      POP      {r4,pc}
    __set_errno
        0x0000c24a:    b510        ..      PUSH     {r4,lr}
        0x0000c24c:    4604        .F      MOV      r4,r0
        0x0000c24e:    f000f803    ....    BL       __aeabi_errno_addr ; 0xc258
        0x0000c252:    6004        .`      STR      r4,[r0,#0]
        0x0000c254:    bd10        ..      POP      {r4,pc}
        0x0000c256:    0000        ..      MOVS     r0,r0
    .text
    __aeabi_errno_addr
    __errno$intlibspace
    __rt_errno_addr$intlibspace
        0x0000c258:    4800        .H      LDR      r0,[pc,#0] ; [0xc25c] = 0x10011020
        0x0000c25a:    4770        pG      BX       lr
    $d
        0x0000c25c:    10011020     ...    DCD    268505120
    $t
    .text
    __user_libspace
    __user_perproc_libspace
    __user_perthread_libspace
        0x0000c260:    4800        .H      LDR      r0,[pc,#0] ; [0xc264] = 0x10011020
        0x0000c262:    4770        pG      BX       lr
    $d
        0x0000c264:    10011020     ...    DCD    268505120
    $t
    .text
    __user_setup_stackheap
        0x0000c268:    4675        uF      MOV      r5,lr
        0x0000c26a:    f7fffff9    ....    BL       __user_libspace ; 0xc260
        0x0000c26e:    46ae        .F      MOV      lr,r5
        0x0000c270:    0005        ..      MOVS     r5,r0
        0x0000c272:    4669        iF      MOV      r1,sp
        0x0000c274:    4653        SF      MOV      r3,r10
        0x0000c276:    f0200007     ...    BIC      r0,r0,#7
        0x0000c27a:    4685        .F      MOV      sp,r0
        0x0000c27c:    b018        ..      ADD      sp,sp,#0x60
        0x0000c27e:    b520         .      PUSH     {r5,lr}
        0x0000c280:    f7ffffa8    ....    BL       __user_initial_stackheap ; 0xc1d4
        0x0000c284:    e8bd4020    .. @    POP      {r5,lr}
        0x0000c288:    f04f0600    O...    MOV      r6,#0
        0x0000c28c:    f04f0700    O...    MOV      r7,#0
        0x0000c290:    f04f0800    O...    MOV      r8,#0
        0x0000c294:    f04f0b00    O...    MOV      r11,#0
        0x0000c298:    46ac        .F      MOV      r12,r5
        0x0000c29a:    e8ac09c0    ....    STM      r12!,{r6-r8,r11}
        0x0000c29e:    e8ac09c0    ....    STM      r12!,{r6-r8,r11}
        0x0000c2a2:    e8ac09c0    ....    STM      r12!,{r6-r8,r11}
        0x0000c2a6:    e8ac09c0    ....    STM      r12!,{r6-r8,r11}
        0x0000c2aa:    f0210107    !...    BIC      r1,r1,#7
        0x0000c2ae:    468d        .F      MOV      sp,r1
        0x0000c2b0:    4770        pG      BX       lr
    .text
    exit
        0x0000c2b2:    b510        ..      PUSH     {r4,lr}
        0x0000c2b4:    4604        .F      MOV      r4,r0
        0x0000c2b6:    f3af8000    ....    NOP.W    
        0x0000c2ba:    4620         F      MOV      r0,r4
        0x0000c2bc:    e8bd4010    ...@    POP      {r4,lr}
        0x0000c2c0:    f7ffbf81    ....    B.W      __rt_exit ; 0xc1c6
    .text
    _sys_exit
        0x0000c2c4:    4901        .I      LDR      r1,[pc,#4] ; [0xc2cc] = 0x20026
        0x0000c2c6:    2018        .       MOVS     r0,#0x18
        0x0000c2c8:    beab        ..      BKPT     #0xab
        0x0000c2ca:    e7fe        ..      B        0xc2ca ; _sys_exit + 6
    $d
        0x0000c2cc:    00020026    &...    DCD    131110
    $t
    .text
    __I$use$semihosting
    __use_no_semihosting_swi
        0x0000c2d0:    4770        pG      BX       lr
    $t.0
    .text
    HardFault_Handler
    __semihosting_library_function
        0x0000c2d2:    b501        ..      PUSH     {r0,lr}
        0x0000c2d4:    f01e0f04    ....    TST      lr,#4
        0x0000c2d8:    bf0a        ..      ITET     EQ
        0x0000c2da:    f3ef8008    ....    MRSEQ    r0,MSP
        0x0000c2de:    f3ef8009    ....    MRSNE    r0,PSP
        0x0000c2e2:    f1100008    ....    ADDSEQ   r0,r0,#8
        0x0000c2e6:    f001f8ef    ....    BL       am_util_faultisr_collect_data ; 0xd4c8
        0x0000c2ea:    bd01        ..      POP      {r0,pc}
    am_bsp_itm_printf_enable
        0x0000c2ec:    b580        ..      PUSH     {r7,lr}
        0x0000c2ee:    b086        ..      SUB      sp,sp,#0x18
        0x0000c2f0:    f24540a4    E..@    MOV      r0,#0x54a4
        0x0000c2f4:    f2c10002    ....    MOVT     r0,#0x1002
        0x0000c2f8:    2101        .!      MOVS     r1,#1
        0x0000c2fa:    6001        .`      STR      r1,[r0,#0]
        0x0000c2fc:    f000fc0a    ....    BL       am_hal_itm_enable ; 0xcb14
        0x0000c300:    f2442040    D.@     MOV      r0,#0x4240
        0x0000c304:    f2c0000f    ....    MOVT     r0,#0xf
        0x0000c308:    9001        ..      STR      r0,[sp,#4]
        0x0000c30a:    a801        ..      ADD      r0,sp,#4
        0x0000c30c:    f001f860    ..`.    BL       am_hal_tpiu_enable ; 0xd3d0
        0x0000c310:    f64f104c    O.L.    MOV      r0,#0xf94c
        0x0000c314:    f2c00000    ....    MOVT     r0,#0
        0x0000c318:    6801        .h      LDR      r1,[r0,#0]
        0x0000c31a:    2029        )       MOVS     r0,#0x29
        0x0000c31c:    f000fa98    ....    BL       am_hal_gpio_pinconfig ; 0xc850
        0x0000c320:    f64c3059    L.Y0    MOV      r0,#0xcb59
        0x0000c324:    f2c00000    ....    MOVT     r0,#0
        0x0000c328:    f001fa5f    .._.    BL       am_util_stdio_printf_init ; 0xd7ea
        0x0000c32c:    b006        ..      ADD      sp,sp,#0x18
        0x0000c32e:    bd80        ..      POP      {r7,pc}
    am_hal_burst_ldo_patch_check
        0x0000c330:    f6430038    C.8.    MOV      r0,#0x3838
        0x0000c334:    f2c50002    ....    MOVT     r0,#0x5002
        0x0000c338:    6800        .h      LDR      r0,[r0,#0]
        0x0000c33a:    2101        .!      MOVS     r1,#1
        0x0000c33c:    f0000008    ....    AND      r0,r0,#8
        0x0000c340:    ea8100d0    ....    EOR      r0,r1,r0,LSR #3
        0x0000c344:    4770        pG      BX       lr
    am_hal_burst_mode_disable
        0x0000c346:    b570        p.      PUSH     {r4-r6,lr}
        0x0000c348:    b082        ..      SUB      sp,sp,#8
        0x0000c34a:    f241019c    A...    MOV      r1,#0x109c
        0x0000c34e:    f2c10101    ....    MOVT     r1,#0x1001
        0x0000c352:    7809        .x      LDRB     r1,[r1,#0]
        0x0000c354:    4604        .F      MOV      r4,r0
        0x0000c356:    b309        ..      CBZ      r1,0xc39c ; am_hal_burst_mode_disable + 86
        0x0000c358:    f2440534    D.4.    MOV      r5,#0x4034
        0x0000c35c:    f2c40500    ....    MOVT     r5,#0x4000
        0x0000c360:    f000fbcc    ....    BL       am_hal_interrupt_master_disable ; 0xcafc
        0x0000c364:    9001        ..      STR      r0,[sp,#4]
        0x0000c366:    4628        (F      MOV      r0,r5
        0x0000c368:    2100        .!      MOVS     r1,#0
        0x0000c36a:    f000fa5f    .._.    BL       am_hal_flash_store_ui32 ; 0xc82c
        0x0000c36e:    9801        ..      LDR      r0,[sp,#4]
        0x0000c370:    f000fbcc    ....    BL       am_hal_interrupt_master_set ; 0xcb0c
        0x0000c374:    f2410028    A.(.    MOV      r0,#0x1028
        0x0000c378:    f2c40002    ....    MOVT     r0,#0x4002
        0x0000c37c:    6801        .h      LDR      r1,[r0,#0]
        0x0000c37e:    2601        .&      MOVS     r6,#1
        0x0000c380:    f0214100    !..A    BIC      r1,r1,#0x80000000
        0x0000c384:    6001        .`      STR      r1,[r0,#0]
        0x0000c386:    f2427010    B..p    MOV      r0,#0x2710
        0x0000c38a:    4629        )F      MOV      r1,r5
        0x0000c38c:    2204        ."      MOVS     r2,#4
        0x0000c38e:    2300        .#      MOVS     r3,#0
        0x0000c390:    9600        ..      STR      r6,[sp,#0]
        0x0000c392:    f000fa13    ....    BL       am_hal_flash_delay_status_check ; 0xc7bc
        0x0000c396:    b138        8.      CBZ      r0,0xc3a8 ; am_hal_burst_mode_disable + 98
        0x0000c398:    7026        &p      STRB     r6,[r4,#0]
        0x0000c39a:    e00a        ..      B        0xc3b2 ; am_hal_burst_mode_disable + 108
        0x0000c39c:    4620         F      MOV      r0,r4
        0x0000c39e:    b002        ..      ADD      sp,sp,#8
        0x0000c3a0:    e8bd4070    ..p@    POP      {r4-r6,lr}
        0x0000c3a4:    f000b807    ....    B.W      am_hal_burst_mode_disable_w_manual_sequence ; 0xc3b6
        0x0000c3a8:    6828        (h      LDR      r0,[r5,#0]
        0x0000c3aa:    ea260090    &...    BIC      r0,r6,r0,LSR #2
        0x0000c3ae:    7020         p      STRB     r0,[r4,#0]
        0x0000c3b0:    2000        .       MOVS     r0,#0
        0x0000c3b2:    b002        ..      ADD      sp,sp,#8
        0x0000c3b4:    bd70        p.      POP      {r4-r6,pc}
    am_hal_burst_mode_disable_w_manual_sequence
        0x0000c3b6:    b510        ..      PUSH     {r4,lr}
        0x0000c3b8:    b150        P.      CBZ      r0,0xc3d0 ; am_hal_burst_mode_disable_w_manual_sequence + 26
        0x0000c3ba:    f241049c    A...    MOV      r4,#0x109c
        0x0000c3be:    f2c10401    ....    MOVT     r4,#0x1001
        0x0000c3c2:    2101        .!      MOVS     r1,#1
        0x0000c3c4:    7021        !p      STRB     r1,[r4,#0]
        0x0000c3c6:    f7ffffbe    ....    BL       am_hal_burst_mode_disable ; 0xc346
        0x0000c3ca:    2100        .!      MOVS     r1,#0
        0x0000c3cc:    7021        !p      STRB     r1,[r4,#0]
        0x0000c3ce:    e000        ..      B        0xc3d2 ; am_hal_burst_mode_disable_w_manual_sequence + 28
        0x0000c3d0:    2002        .       MOVS     r0,#2
        0x0000c3d2:    f6430138    C.8.    MOV      r1,#0x3838
        0x0000c3d6:    f2c50102    ....    MOVT     r1,#0x5002
        0x0000c3da:    6809        .h      LDR      r1,[r1,#0]
        0x0000c3dc:    0709        ..      LSLS     r1,r1,#28
        0x0000c3de:    bf48        H.      IT       MI
        0x0000c3e0:    bd10        ..      POPMI    {r4,pc}
        0x0000c3e2:    2164        d!      MOVS     r1,#0x64
        0x0000c3e4:    f2c40102    ....    MOVT     r1,#0x4002
        0x0000c3e8:    680a        .h      LDR      r2,[r1,#0]
        0x0000c3ea:    f0220204    "...    BIC      r2,r2,#4
        0x0000c3ee:    600a        .`      STR      r2,[r1,#0]
        0x0000c3f0:    680a        .h      LDR      r2,[r1,#0]
        0x0000c3f2:    f0220202    "...    BIC      r2,r2,#2
        0x0000c3f6:    600a        .`      STR      r2,[r1,#0]
        0x0000c3f8:    f8d12fc0    .../    LDR      r2,[r1,#0xfc0]
        0x0000c3fc:    f0220280    "...    BIC      r2,r2,#0x80
        0x0000c400:    f8c12fc0    .../    STR      r2,[r1,#0xfc0]
        0x0000c404:    bd10        ..      POP      {r4,pc}
    am_hal_burst_mode_enable
        0x0000c406:    b570        p.      PUSH     {r4-r6,lr}
        0x0000c408:    b082        ..      SUB      sp,sp,#8
        0x0000c40a:    f241019d    A...    MOV      r1,#0x109d
        0x0000c40e:    f2c10101    ....    MOVT     r1,#0x1001
        0x0000c412:    7809        .x      LDRB     r1,[r1,#0]
        0x0000c414:    4604        .F      MOV      r4,r0
        0x0000c416:    b1c9        ..      CBZ      r1,0xc44c ; am_hal_burst_mode_enable + 70
        0x0000c418:    f2410088    A...    MOV      r0,#0x1088
        0x0000c41c:    f2c10001    ....    MOVT     r0,#0x1001
        0x0000c420:    7800        .x      LDRB     r0,[r0,#0]
        0x0000c422:    b1c8        ..      CBZ      r0,0xc458 ; am_hal_burst_mode_enable + 82
        0x0000c424:    f2440534    D.4.    MOV      r5,#0x4034
        0x0000c428:    f2c40500    ....    MOVT     r5,#0x4000
        0x0000c42c:    6828        (h      LDR      r0,[r5,#0]
        0x0000c42e:    2601        .&      MOVS     r6,#1
        0x0000c430:    f0400001    @...    ORR      r0,r0,#1
        0x0000c434:    6028        (`      STR      r0,[r5,#0]
        0x0000c436:    f2427010    B..p    MOV      r0,#0x2710
        0x0000c43a:    4629        )F      MOV      r1,r5
        0x0000c43c:    2204        ."      MOVS     r2,#4
        0x0000c43e:    2304        .#      MOVS     r3,#4
        0x0000c440:    9600        ..      STR      r6,[sp,#0]
        0x0000c442:    f000f9bb    ....    BL       am_hal_flash_delay_status_check ; 0xc7bc
        0x0000c446:    b158        X.      CBZ      r0,0xc460 ; am_hal_burst_mode_enable + 90
        0x0000c448:    7026        &p      STRB     r6,[r4,#0]
        0x0000c44a:    e015        ..      B        0xc478 ; am_hal_burst_mode_enable + 114
        0x0000c44c:    4620         F      MOV      r0,r4
        0x0000c44e:    b002        ..      ADD      sp,sp,#8
        0x0000c450:    e8bd4070    ..p@    POP      {r4-r6,lr}
        0x0000c454:    f000b812    ....    B.W      am_hal_burst_mode_enable_w_manual_sequence ; 0xc47c
        0x0000c458:    2001        .       MOVS     r0,#1
        0x0000c45a:    7020         p      STRB     r0,[r4,#0]
        0x0000c45c:    2007        .       MOVS     r0,#7
        0x0000c45e:    e00b        ..      B        0xc478 ; am_hal_burst_mode_enable + 114
        0x0000c460:    6828        (h      LDR      r0,[r5,#0]
        0x0000c462:    0780        ..      LSLS     r0,r0,#30
        0x0000c464:    d402        ..      BMI      0xc46c ; am_hal_burst_mode_enable + 102
        0x0000c466:    2001        .       MOVS     r0,#1
        0x0000c468:    7020         p      STRB     r0,[r4,#0]
        0x0000c46a:    e005        ..      B        0xc478 ; am_hal_burst_mode_enable + 114
        0x0000c46c:    6828        (h      LDR      r0,[r5,#0]
        0x0000c46e:    2101        .!      MOVS     r1,#1
        0x0000c470:    ea210090    !...    BIC      r0,r1,r0,LSR #2
        0x0000c474:    7020         p      STRB     r0,[r4,#0]
        0x0000c476:    2000        .       MOVS     r0,#0
        0x0000c478:    b002        ..      ADD      sp,sp,#8
        0x0000c47a:    bd70        p.      POP      {r4-r6,pc}
    am_hal_burst_mode_enable_w_manual_sequence
        0x0000c47c:    b570        p.      PUSH     {r4-r6,lr}
        0x0000c47e:    b082        ..      SUB      sp,sp,#8
        0x0000c480:    f2410188    A...    MOV      r1,#0x1088
        0x0000c484:    f2c10101    ....    MOVT     r1,#0x1001
        0x0000c488:    7809        .x      LDRB     r1,[r1,#0]
        0x0000c48a:    4604        .F      MOV      r4,r0
        0x0000c48c:    2900        .)      CMP      r1,#0
        0x0000c48e:    d04d        M.      BEQ      0xc52c ; am_hal_burst_mode_enable_w_manual_sequence + 176
        0x0000c490:    f6430038    C.8.    MOV      r0,#0x3838
        0x0000c494:    f2c50002    ....    MOVT     r0,#0x5002
        0x0000c498:    6800        .h      LDR      r0,[r0,#0]
        0x0000c49a:    0700        ..      LSLS     r0,r0,#28
        0x0000c49c:    d44a        J.      BMI      0xc534 ; am_hal_burst_mode_enable_w_manual_sequence + 184
        0x0000c49e:    2560        `%      MOVS     r5,#0x60
        0x0000c4a0:    f2c40502    ....    MOVT     r5,#0x4002
        0x0000c4a4:    f000fb2a    ..*.    BL       am_hal_interrupt_master_disable ; 0xcafc
        0x0000c4a8:    9001        ..      STR      r0,[sp,#4]
        0x0000c4aa:    f000ff1d    ....    BL       am_hal_pwrctrl_wa_vddf_restore ; 0xd2e8
        0x0000c4ae:    6828        (h      LDR      r0,[r5,#0]
        0x0000c4b0:    f2410604    A...    MOV      r6,#0x1004
        0x0000c4b4:    f0400080    @...    ORR      r0,r0,#0x80
        0x0000c4b8:    6028        (`      STR      r0,[r5,#0]
        0x0000c4ba:    6828        (h      LDR      r0,[r5,#0]
        0x0000c4bc:    f2c40602    ....    MOVT     r6,#0x4002
        0x0000c4c0:    f0400040    @.@.    ORR      r0,r0,#0x40
        0x0000c4c4:    6028        (`      STR      r0,[r5,#0]
        0x0000c4c6:    6830        0h      LDR      r0,[r6,#0]
        0x0000c4c8:    6829        )h      LDR      r1,[r5,#0]
        0x0000c4ca:    f3c0005a    ..Z.    UBFX     r0,r0,#1,#27
        0x0000c4ce:    f3601145    `.E.    BFI      r1,r0,#5,#1
        0x0000c4d2:    6029        )`      STR      r1,[r5,#0]
        0x0000c4d4:    6828        (h      LDR      r0,[r5,#0]
        0x0000c4d6:    f4407080    @..p    ORR      r0,r0,#0x100
        0x0000c4da:    6028        (`      STR      r0,[r5,#0]
        0x0000c4dc:    20a0        .       MOVS     r0,#0xa0
        0x0000c4de:    f000f957    ..W.    BL       am_hal_flash_delay ; 0xc790
        0x0000c4e2:    6828        (h      LDR      r0,[r5,#0]
        0x0000c4e4:    f0400020    @. .    ORR      r0,r0,#0x20
        0x0000c4e8:    6028        (`      STR      r0,[r5,#0]
        0x0000c4ea:    6a30        0j      LDR      r0,[r6,#0x20]
        0x0000c4ec:    f0400080    @...    ORR      r0,r0,#0x80
        0x0000c4f0:    6230        0b      STR      r0,[r6,#0x20]
        0x0000c4f2:    f8d50fa0    ....    LDR      r0,[r5,#0xfa0]
        0x0000c4f6:    f0400001    @...    ORR      r0,r0,#1
        0x0000c4fa:    f8c50fa0    ....    STR      r0,[r5,#0xfa0]
        0x0000c4fe:    6869        ih      LDR      r1,[r5,#4]
        0x0000c500:    6868        hh      LDR      r0,[r5,#4]
        0x0000c502:    06c9        ..      LSLS     r1,r1,#27
        0x0000c504:    d422        ".      BMI      0xc54c ; am_hal_burst_mode_enable_w_manual_sequence + 208
        0x0000c506:    f0400008    @...    ORR      r0,r0,#8
        0x0000c50a:    6068        h`      STR      r0,[r5,#4]
        0x0000c50c:    6868        hh      LDR      r0,[r5,#4]
        0x0000c50e:    f0400001    @...    ORR      r0,r0,#1
        0x0000c512:    6068        h`      STR      r0,[r5,#4]
        0x0000c514:    6868        hh      LDR      r0,[r5,#4]
        0x0000c516:    f0400004    @...    ORR      r0,r0,#4
        0x0000c51a:    6068        h`      STR      r0,[r5,#4]
        0x0000c51c:    6868        hh      LDR      r0,[r5,#4]
        0x0000c51e:    f0200002     ...    BIC      r0,r0,#2
        0x0000c522:    6068        h`      STR      r0,[r5,#4]
        0x0000c524:    6868        hh      LDR      r0,[r5,#4]
        0x0000c526:    f0400010    @...    ORR      r0,r0,#0x10
        0x0000c52a:    e011        ..      B        0xc550 ; am_hal_burst_mode_enable_w_manual_sequence + 212
        0x0000c52c:    2001        .       MOVS     r0,#1
        0x0000c52e:    7020         p      STRB     r0,[r4,#0]
        0x0000c530:    2407        .$      MOVS     r4,#7
        0x0000c532:    e044        D.      B        0xc5be ; am_hal_burst_mode_enable_w_manual_sequence + 322
        0x0000c534:    f241059d    A...    MOV      r5,#0x109d
        0x0000c538:    f2c10501    ....    MOVT     r5,#0x1001
        0x0000c53c:    2001        .       MOVS     r0,#1
        0x0000c53e:    7028        (p      STRB     r0,[r5,#0]
        0x0000c540:    4620         F      MOV      r0,r4
        0x0000c542:    f7ffff60    ..`.    BL       am_hal_burst_mode_enable ; 0xc406
        0x0000c546:    2100        .!      MOVS     r1,#0
        0x0000c548:    7029        )p      STRB     r1,[r5,#0]
        0x0000c54a:    e039        9.      B        0xc5c0 ; am_hal_burst_mode_enable_w_manual_sequence + 324
        0x0000c54c:    f0400004    @...    ORR      r0,r0,#4
        0x0000c550:    6068        h`      STR      r0,[r5,#4]
        0x0000c552:    2020                MOVS     r0,#0x20
        0x0000c554:    f000f91c    ....    BL       am_hal_flash_delay ; 0xc790
        0x0000c558:    6868        hh      LDR      r0,[r5,#4]
        0x0000c55a:    f0400002    @...    ORR      r0,r0,#2
        0x0000c55e:    6068        h`      STR      r0,[r5,#4]
        0x0000c560:    2010        .       MOVS     r0,#0x10
        0x0000c562:    f000f915    ....    BL       am_hal_flash_delay ; 0xc790
        0x0000c566:    f241069d    A...    MOV      r6,#0x109d
        0x0000c56a:    f2c10601    ....    MOVT     r6,#0x1001
        0x0000c56e:    2001        .       MOVS     r0,#1
        0x0000c570:    7030        0p      STRB     r0,[r6,#0]
        0x0000c572:    4620         F      MOV      r0,r4
        0x0000c574:    f7ffff47    ..G.    BL       am_hal_burst_mode_enable ; 0xc406
        0x0000c578:    4604        .F      MOV      r4,r0
        0x0000c57a:    2000        .       MOVS     r0,#0
        0x0000c57c:    7030        0p      STRB     r0,[r6,#0]
        0x0000c57e:    f44f70c8    O..p    MOV      r0,#0x190
        0x0000c582:    f000f905    ....    BL       am_hal_flash_delay ; 0xc790
        0x0000c586:    6828        (h      LDR      r0,[r5,#0]
        0x0000c588:    f4207080     ..p    BIC      r0,r0,#0x100
        0x0000c58c:    6028        (`      STR      r0,[r5,#0]
        0x0000c58e:    6828        (h      LDR      r0,[r5,#0]
        0x0000c590:    f0200080     ...    BIC      r0,r0,#0x80
        0x0000c594:    6028        (`      STR      r0,[r5,#0]
        0x0000c596:    6828        (h      LDR      r0,[r5,#0]
        0x0000c598:    f0200040     .@.    BIC      r0,r0,#0x40
        0x0000c59c:    6028        (`      STR      r0,[r5,#0]
        0x0000c59e:    6828        (h      LDR      r0,[r5,#0]
        0x0000c5a0:    f0200020     . .    BIC      r0,r0,#0x20
        0x0000c5a4:    6028        (`      STR      r0,[r5,#0]
        0x0000c5a6:    6868        hh      LDR      r0,[r5,#4]
        0x0000c5a8:    07c0        ..      LSLS     r0,r0,#31
        0x0000c5aa:    d003        ..      BEQ      0xc5b4 ; am_hal_burst_mode_enable_w_manual_sequence + 312
        0x0000c5ac:    6868        hh      LDR      r0,[r5,#4]
        0x0000c5ae:    f0200001     ...    BIC      r0,r0,#1
        0x0000c5b2:    6068        h`      STR      r0,[r5,#4]
        0x0000c5b4:    f000fe79    ..y.    BL       am_hal_pwrctrl_wa_vddf_boost ; 0xd2aa
        0x0000c5b8:    9801        ..      LDR      r0,[sp,#4]
        0x0000c5ba:    f000faa7    ....    BL       am_hal_interrupt_master_set ; 0xcb0c
        0x0000c5be:    4620         F      MOV      r0,r4
        0x0000c5c0:    b002        ..      ADD      sp,sp,#8
        0x0000c5c2:    bd70        p.      POP      {r4-r6,pc}
    am_hal_cachectrl_config
        0x0000c5c4:    b5b0        ..      PUSH     {r4,r5,r7,lr}
        0x0000c5c6:    b082        ..      SUB      sp,sp,#8
        0x0000c5c8:    4604        .F      MOV      r4,r0
        0x0000c5ca:    f000fa97    ....    BL       am_hal_interrupt_master_disable ; 0xcafc
        0x0000c5ce:    f2480500    H...    MOVW     r5,#0x8000
        0x0000c5d2:    9001        ..      STR      r0,[sp,#4]
        0x0000c5d4:    f2c40501    ....    MOVT     r5,#0x4001
        0x0000c5d8:    6828        (h      LDR      r0,[r5,#0]
        0x0000c5da:    f4207040     .@p    BIC      r0,r0,#0x300
        0x0000c5de:    6028        (`      STR      r0,[r5,#0]
        0x0000c5e0:    9801        ..      LDR      r0,[sp,#4]
        0x0000c5e2:    f000fa93    ....    BL       am_hal_interrupt_master_set ; 0xcb0c
        0x0000c5e6:    78a1        .x      LDRB     r1,[r4,#2]
        0x0000c5e8:    7820         x      LDRB     r0,[r4,#0]
        0x0000c5ea:    7862        bx      LDRB     r2,[r4,#1]
        0x0000c5ec:    0049        I.      LSLS     r1,r1,#1
        0x0000c5ee:    b2c9        ..      UXTB     r1,r1
        0x0000c5f0:    f0020203    ....    AND      r2,r2,#3
        0x0000c5f4:    f3601107    `...    BFI      r1,r0,#4,#4
        0x0000c5f8:    ea412002    A..     ORR      r0,r1,r2,LSL #8
        0x0000c5fc:    f4401080    @...    ORR      r0,r0,#0x100000
        0x0000c600:    f4406180    @..a    ORR      r1,r0,#0x400
        0x0000c604:    2000        .       MOVS     r0,#0
        0x0000c606:    6029        )`      STR      r1,[r5,#0]
        0x0000c608:    b002        ..      ADD      sp,sp,#8
        0x0000c60a:    bdb0        ..      POP      {r4,r5,r7,pc}
    am_hal_cachectrl_enable
        0x0000c60c:    f2480100    H...    MOVW     r1,#0x8000
        0x0000c610:    f2c40101    ....    MOVT     r1,#0x4001
        0x0000c614:    6808        .h      LDR      r0,[r1,#0]
        0x0000c616:    f0400201    @...    ORR      r2,r0,#1
        0x0000c61a:    2000        .       MOVS     r0,#0
        0x0000c61c:    600a        .`      STR      r2,[r1,#0]
        0x0000c61e:    4770        pG      BX       lr
    am_hal_clkgen_control
        0x0000c620:    b510        ..      PUSH     {r4,lr}
        0x0000c622:    f2410284    A...    MOV      r2,#0x1084
        0x0000c626:    f2c10201    ....    MOVT     r2,#0x1001
        0x0000c62a:    6813        .h      LDR      r3,[r2,#0]
        0x0000c62c:    460c        .F      MOV      r4,r1
        0x0000c62e:    b92b        +.      CBNZ     r3,0xc63c ; am_hal_clkgen_control + 28
        0x0000c630:    f24f0100    O...    MOVW     r1,#0xf000
        0x0000c634:    f6c471ff    ...q    MOVT     r1,#0x4fff
        0x0000c638:    6809        .h      LDR      r1,[r1,#0]
        0x0000c63a:    6011        .`      STR      r1,[r2,#0]
        0x0000c63c:    2809        .(      CMP      r0,#9
        0x0000c63e:    d80f        ..      BHI      0xc660 ; am_hal_clkgen_control + 64
        0x0000c640:    e8dff000    ....    TBB      [pc,r0]
    $d.1
        0x0000c644:    20181005    ...     DCD    538447877
        0x0000c648:    544c4139    9ALT    DCD    1414283577
        0x0000c64c:    775e        ^w      DCW    30558
    $t.2
        0x0000c64e:    f244010c    D...    MOV      r1,#0x400c
        0x0000c652:    f2c40100    ....    MOVT     r1,#0x4000
        0x0000c656:    2047        G       MOVS     r0,#0x47
        0x0000c658:    6088        .`      STR      r0,[r1,#8]
        0x0000c65a:    2000        .       MOVS     r0,#0
        0x0000c65c:    60c8        .`      STR      r0,[r1,#0xc]
        0x0000c65e:    e03b        ;.      B        0xc6d8 ; am_hal_clkgen_control + 184
        0x0000c660:    2006        .       MOVS     r0,#6
        0x0000c662:    bd10        ..      POP      {r4,pc}
        0x0000c664:    f244000c    D...    MOV      r0,#0x400c
        0x0000c668:    f2c40000    ....    MOVT     r0,#0x4000
        0x0000c66c:    6801        .h      LDR      r1,[r0,#0]
        0x0000c66e:    f0210101    !...    BIC      r1,r1,#1
        0x0000c672:    e042        B.      B        0xc6fa ; am_hal_clkgen_control + 218
        0x0000c674:    f244000c    D...    MOV      r0,#0x400c
        0x0000c678:    f2c40000    ....    MOVT     r0,#0x4000
        0x0000c67c:    6801        .h      LDR      r1,[r0,#0]
        0x0000c67e:    f0210102    !...    BIC      r1,r1,#2
        0x0000c682:    e03a        :.      B        0xc6fa ; am_hal_clkgen_control + 218
        0x0000c684:    f2401020    @. .    MOVW     r0,#0x120
        0x0000c688:    f64f61ec    O..a    MOV      r1,#0xfeec
        0x0000c68c:    f2c40002    ....    MOVT     r0,#0x4002
        0x0000c690:    f6cf71ff    ...q    MOVT     r1,#0xffff
        0x0000c694:    5841        AX      LDR      r1,[r0,r1]
        0x0000c696:    b2c9        ..      UXTB     r1,r1
        0x0000c698:    2921        !)      CMP      r1,#0x21
        0x0000c69a:    d304        ..      BCC      0xc6a6 ; am_hal_clkgen_control + 134
        0x0000c69c:    6801        .h      LDR      r1,[r0,#0]
        0x0000c69e:    2201        ."      MOVS     r2,#1
        0x0000c6a0:    f3622109    b..!    BFI      r1,r2,#8,#2
        0x0000c6a4:    6001        .`      STR      r1,[r0,#0]
        0x0000c6a6:    f244000c    D...    MOV      r0,#0x400c
        0x0000c6aa:    f2c40000    ....    MOVT     r0,#0x4000
        0x0000c6ae:    6801        .h      LDR      r1,[r0,#0]
        0x0000c6b0:    f0410101    A...    ORR      r1,r1,#1
        0x0000c6b4:    e021        !.      B        0xc6fa ; am_hal_clkgen_control + 218
        0x0000c6b6:    f244000c    D...    MOV      r0,#0x400c
        0x0000c6ba:    f2c40000    ....    MOVT     r0,#0x4000
        0x0000c6be:    6801        .h      LDR      r1,[r0,#0]
        0x0000c6c0:    f0410102    A...    ORR      r1,r1,#2
        0x0000c6c4:    e019        ..      B        0xc6fa ; am_hal_clkgen_control + 218
        0x0000c6c6:    f244010c    D...    MOV      r1,#0x400c
        0x0000c6ca:    f2c40100    ....    MOVT     r1,#0x4000
        0x0000c6ce:    2047        G       MOVS     r0,#0x47
        0x0000c6d0:    6088        .`      STR      r0,[r1,#8]
        0x0000c6d2:    2001        .       MOVS     r0,#1
        0x0000c6d4:    60c8        .`      STR      r0,[r1,#0xc]
        0x0000c6d6:    2000        .       MOVS     r0,#0
        0x0000c6d8:    6088        .`      STR      r0,[r1,#8]
        0x0000c6da:    bd10        ..      POP      {r4,pc}
        0x0000c6dc:    f244000c    D...    MOV      r0,#0x400c
        0x0000c6e0:    f2c40000    ....    MOVT     r0,#0x4000
        0x0000c6e4:    6801        .h      LDR      r1,[r0,#0]
        0x0000c6e6:    f0210180    !...    BIC      r1,r1,#0x80
        0x0000c6ea:    e006        ..      B        0xc6fa ; am_hal_clkgen_control + 218
        0x0000c6ec:    f244000c    D...    MOV      r0,#0x400c
        0x0000c6f0:    f2c40000    ....    MOVT     r0,#0x4000
        0x0000c6f4:    6801        .h      LDR      r1,[r0,#0]
        0x0000c6f6:    f0410180    A...    ORR      r1,r1,#0x80
        0x0000c6fa:    6001        .`      STR      r1,[r0,#0]
        0x0000c6fc:    2000        .       MOVS     r0,#0
        0x0000c6fe:    bd10        ..      POP      {r4,pc}
        0x0000c700:    f2401020    @. .    MOVW     r0,#0x120
        0x0000c704:    f64f61ec    O..a    MOV      r1,#0xfeec
        0x0000c708:    f2c40002    ....    MOVT     r0,#0x4002
        0x0000c70c:    f6cf71ff    ...q    MOVT     r1,#0xffff
        0x0000c710:    5841        AX      LDR      r1,[r0,r1]
        0x0000c712:    b2c9        ..      UXTB     r1,r1
        0x0000c714:    2921        !)      CMP      r1,#0x21
        0x0000c716:    d307        ..      BCC      0xc728 ; am_hal_clkgen_control + 264
        0x0000c718:    6801        .h      LDR      r1,[r0,#0]
        0x0000c71a:    f4417140    A.@q    ORR      r1,r1,#0x300
        0x0000c71e:    6001        .`      STR      r1,[r0,#0]
        0x0000c720:    f44f507a    O.zP    MOV      r0,#0x3e80
        0x0000c724:    f000f834    ..4.    BL       am_hal_flash_delay ; 0xc790
        0x0000c728:    b164        d.      CBZ      r4,0xc744 ; am_hal_clkgen_control + 292
        0x0000c72a:    6820         h      LDR      r0,[r4,#0]
        0x0000c72c:    f0400001    @...    ORR      r0,r0,#1
        0x0000c730:    e00c        ..      B        0xc74c ; am_hal_clkgen_control + 300
        0x0000c732:    f244000c    D...    MOV      r0,#0x400c
        0x0000c736:    f2c40000    ....    MOVT     r0,#0x4000
        0x0000c73a:    6941        Ai      LDR      r1,[r0,#0x14]
        0x0000c73c:    f0210101    !...    BIC      r1,r1,#1
        0x0000c740:    6141        Aa      STR      r1,[r0,#0x14]
        0x0000c742:    e7db        ..      B        0xc6fc ; am_hal_clkgen_control + 220
        0x0000c744:    f64b0001    K...    MOV      r0,#0xb801
        0x0000c748:    f2c00025    ..%.    MOVT     r0,#0x25
        0x0000c74c:    f244010c    D...    MOV      r1,#0x400c
        0x0000c750:    f2c40100    ....    MOVT     r1,#0x4000
        0x0000c754:    6148        Ha      STR      r0,[r1,#0x14]
        0x0000c756:    e7d1        ..      B        0xc6fc ; am_hal_clkgen_control + 220
    am_hal_clkgen_status_get
        0x0000c758:    b1c0        ..      CBZ      r0,0xc78c ; am_hal_clkgen_status_get + 52
        0x0000c75a:    f2440118    D...    MOV      r1,#0x4018
        0x0000c75e:    f2c40100    ....    MOVT     r1,#0x4000
        0x0000c762:    680a        .h      LDR      r2,[r1,#0]
        0x0000c764:    07d2        ..      LSLS     r2,r2,#31
        0x0000c766:    f2436200    C..b    MOVW     r2,#0x3600
        0x0000c76a:    f2c0126e    ..n.    MOVT     r2,#0x16e
        0x0000c76e:    bf04        ..      ITT      EQ
        0x0000c770:    f6464200    F..B    MOVWEQ   r2,#0x6c00
        0x0000c774:    f2c022dc    ..."    MOVTEQ   r2,#0x2dc
        0x0000c778:    6002        .`      STR      r2,[r0,#0]
        0x0000c77a:    6849        Ih      LDR      r1,[r1,#4]
        0x0000c77c:    f0010201    ....    AND      r2,r1,#1
        0x0000c780:    f3c10140    ..@.    UBFX     r1,r1,#1,#1
        0x0000c784:    6042        B`      STR      r2,[r0,#4]
        0x0000c786:    7201        .r      STRB     r1,[r0,#8]
        0x0000c788:    2000        .       MOVS     r0,#0
        0x0000c78a:    4770        pG      BX       lr
        0x0000c78c:    2006        .       MOVS     r0,#6
        0x0000c78e:    4770        pG      BX       lr
    am_hal_flash_delay
        0x0000c790:    f2440134    D.4.    MOV      r1,#0x4034
        0x0000c794:    f2c40100    ....    MOVT     r1,#0x4000
        0x0000c798:    680a        .h      LDR      r2,[r1,#0]
        0x0000c79a:    f3c20180    ....    UBFX     r1,r2,#2,#1
        0x0000c79e:    4088        .@      LSLS     r0,r0,r1
        0x0000c7a0:    210e        .!      MOVS     r1,#0xe
        0x0000c7a2:    f0120f04    ....    TST      r2,#4
        0x0000c7a6:    bf08        ..      IT       EQ
        0x0000c7a8:    210b        .!      MOVEQ    r1,#0xb
        0x0000c7aa:    4281        .B      CMP      r1,r0
        0x0000c7ac:    bf28        (.      IT       CS
        0x0000c7ae:    4770        pG      BXCS     lr
        0x0000c7b0:    1a40        @.      SUBS     r0,r0,r1
        0x0000c7b2:    219d        .!      MOVS     r1,#0x9d
        0x0000c7b4:    f6c00100    ....    MOVT     r1,#0x800
        0x0000c7b8:    4708        .G      BX       r1
        0x0000c7ba:    0000        ..      MOVS     r0,r0
    am_hal_flash_delay_status_check
        0x0000c7bc:    e92d4ff0    -..O    PUSH     {r4-r11,lr}
        0x0000c7c0:    b081        ..      SUB      sp,sp,#4
        0x0000c7c2:    f8dd8028    ..(.    LDR      r8,[sp,#0x28]
        0x0000c7c6:    f2440934    D.4.    MOV      r9,#0x4034
        0x0000c7ca:    f2400b9d    @...    MOVW     r11,#0x9d
        0x0000c7ce:    461c        .F      MOV      r4,r3
        0x0000c7d0:    4615        .F      MOV      r5,r2
        0x0000c7d2:    460e        .F      MOV      r6,r1
        0x0000c7d4:    4607        .F      MOV      r7,r0
        0x0000c7d6:    f2c40900    ....    MOVT     r9,#0x4000
        0x0000c7da:    f04f0a10    O...    MOV      r10,#0x10
        0x0000c7de:    f6c00b00    ....    MOVT     r11,#0x800
        0x0000c7e2:    bf00        ..      NOP      
        0x0000c7e4:    6830        0h      LDR      r0,[r6,#0]
        0x0000c7e6:    f1b80f00    ....    CMP      r8,#0
        0x0000c7ea:    ea000005    ....    AND      r0,r0,r5
        0x0000c7ee:    d003        ..      BEQ      0xc7f8 ; am_hal_flash_delay_status_check + 60
        0x0000c7f0:    42a0        .B      CMP      r0,r4
        0x0000c7f2:    d103        ..      BNE      0xc7fc ; am_hal_flash_delay_status_check + 64
        0x0000c7f4:    e014        ..      B        0xc820 ; am_hal_flash_delay_status_check + 100
        0x0000c7f6:    bf00        ..      NOP      
        0x0000c7f8:    42a0        .B      CMP      r0,r4
        0x0000c7fa:    d111        ..      BNE      0xc820 ; am_hal_flash_delay_status_check + 100
        0x0000c7fc:    b197        ..      CBZ      r7,0xc824 ; am_hal_flash_delay_status_check + 104
        0x0000c7fe:    f8d90000    ....    LDR      r0,[r9,#0]
        0x0000c802:    3f01        .?      SUBS     r7,#1
        0x0000c804:    f3c00180    ....    UBFX     r1,r0,#2,#1
        0x0000c808:    f0100f04    ....    TST      r0,#4
        0x0000c80c:    f06f000d    o...    MVN      r0,#0xd
        0x0000c810:    bf08        ..      IT       EQ
        0x0000c812:    f06f000a    o...    MVNEQ    r0,#0xa
        0x0000c816:    fa0af101    ....    LSL      r1,r10,r1
        0x0000c81a:    4408        .D      ADD      r0,r0,r1
        0x0000c81c:    47d8        .G      BLX      r11
        0x0000c81e:    e7e1        ..      B        0xc7e4 ; am_hal_flash_delay_status_check + 40
        0x0000c820:    2000        .       MOVS     r0,#0
        0x0000c822:    e000        ..      B        0xc826 ; am_hal_flash_delay_status_check + 106
        0x0000c824:    2004        .       MOVS     r0,#4
        0x0000c826:    b001        ..      ADD      sp,sp,#4
        0x0000c828:    e8bd8ff0    ....    POP      {r4-r11,pc}
    am_hal_flash_store_ui32
        0x0000c82c:    b580        ..      PUSH     {r7,lr}
        0x0000c82e:    b084        ..      SUB      sp,sp,#0x10
        0x0000c830:    f24f0270    O.p.    MOV      r2,#0xf070
        0x0000c834:    f2c00200    ....    MOVT     r2,#0
        0x0000c838:    e9d23c00    ...<    LDRD     r3,r12,[r2,#0]
        0x0000c83c:    6892        .h      LDR      r2,[r2,#8]
        0x0000c83e:    e9cd3c01    ...<    STRD     r3,r12,[sp,#4]
        0x0000c842:    9203        ..      STR      r2,[sp,#0xc]
        0x0000c844:    aa01        ..      ADD      r2,sp,#4
        0x0000c846:    3201        .2      ADDS     r2,#1
        0x0000c848:    4790        .G      BLX      r2
        0x0000c84a:    b004        ..      ADD      sp,sp,#0x10
        0x0000c84c:    bd80        ..      POP      {r7,pc}
        0x0000c84e:    0000        ..      MOVS     r0,r0
    am_hal_gpio_pinconfig
        0x0000c850:    e92d4ff0    -..O    PUSH     {r4-r11,lr}
        0x0000c854:    b085        ..      SUB      sp,sp,#0x14
        0x0000c856:    2849        I(      CMP      r0,#0x49
        0x0000c858:    d904        ..      BLS      0xc864 ; am_hal_gpio_pinconfig + 20
        0x0000c85a:    2506        .%      MOVS     r5,#6
        0x0000c85c:    4628        (F      MOV      r0,r5
        0x0000c85e:    b005        ..      ADD      sp,sp,#0x14
        0x0000c860:    e8bd8ff0    ....    POP      {r4-r11,pc}
        0x0000c864:    b2ce        ..      UXTB     r6,r1
        0x0000c866:    4604        .F      MOV      r4,r0
        0x0000c868:    f2401200    @...    MOVW     r2,#0x100
        0x0000c86c:    f0060307    ....    AND      r3,r6,#7
        0x0000c870:    2000        .       MOVS     r0,#0
        0x0000c872:    f6c00200    ....    MOVT     r2,#0x800
        0x0000c876:    ebb01f56    ..V.    CMP      r0,r6,LSR #5
        0x0000c87a:    ea4f00c3    O...    LSL      r0,r3,#3
        0x0000c87e:    d01d        ..      BEQ      0xc8bc ; am_hal_gpio_pinconfig + 108
        0x0000c880:    0977        w.      LSRS     r7,r6,#5
        0x0000c882:    2ebf        ..      CMP      r6,#0xbf
        0x0000c884:    f0400001    @...    ORR      r0,r0,#1
        0x0000c888:    d80d        ..      BHI      0xc8a6 ; am_hal_gpio_pinconfig + 86
        0x0000c88a:    2f01        ./      CMP      r7,#1
        0x0000c88c:    d00b        ..      BEQ      0xc8a6 ; am_hal_gpio_pinconfig + 86
        0x0000c88e:    f64f16d4    O...    MOV      r6,#0xf9d4
        0x0000c892:    f2c00600    ....    MOVT     r6,#0
        0x0000c896:    5d36        6]      LDRB     r6,[r6,r4]
        0x0000c898:    4615        .F      MOV      r5,r2
        0x0000c89a:    07f6        ..      LSLS     r6,r6,#31
        0x0000c89c:    d0de        ..      BEQ      0xc85c ; am_hal_gpio_pinconfig + 12
        0x0000c89e:    ea401087    @...    ORR      r0,r0,r7,LSL #6
        0x0000c8a2:    3880        .8      SUBS     r0,r0,#0x80
        0x0000c8a4:    e00a        ..      B        0xc8bc ; am_hal_gpio_pinconfig + 108
        0x0000c8a6:    2f06        ./      CMP      r7,#6
        0x0000c8a8:    d103        ..      BNE      0xc8b2 ; am_hal_gpio_pinconfig + 98
        0x0000c8aa:    2c14        .,      CMP      r4,#0x14
        0x0000c8ac:    d006        ..      BEQ      0xc8bc ; am_hal_gpio_pinconfig + 108
        0x0000c8ae:    1c55        U.      ADDS     r5,r2,#1
        0x0000c8b0:    e7d4        ..      B        0xc85c ; am_hal_gpio_pinconfig + 12
        0x0000c8b2:    2c14        .,      CMP      r4,#0x14
        0x0000c8b4:    d102        ..      BNE      0xc8bc ; am_hal_gpio_pinconfig + 108
        0x0000c8b6:    2f01        ./      CMP      r7,#1
        0x0000c8b8:    4615        .F      MOV      r5,r2
        0x0000c8ba:    d0cf        ..      BEQ      0xc85c ; am_hal_gpio_pinconfig + 12
        0x0000c8bc:    f3c107c1    ....    UBFX     r7,r1,#3,#2
        0x0000c8c0:    b197        ..      CBZ      r7,0xc8e8 ; am_hal_gpio_pinconfig + 152
        0x0000c8c2:    2f02        ./      CMP      r7,#2
        0x0000c8c4:    f1020502    ....    ADD      r5,r2,#2
        0x0000c8c8:    d008        ..      BEQ      0xc8dc ; am_hal_gpio_pinconfig + 140
        0x0000c8ca:    2f01        ./      CMP      r7,#1
        0x0000c8cc:    d1c6        ..      BNE      0xc85c ; am_hal_gpio_pinconfig + 12
        0x0000c8ce:    2c24        $,      CMP      r4,#0x24
        0x0000c8d0:    d001        ..      BEQ      0xc8d6 ; am_hal_gpio_pinconfig + 134
        0x0000c8d2:    2c03        .,      CMP      r4,#3
        0x0000c8d4:    d1c2        ..      BNE      0xc85c ; am_hal_gpio_pinconfig + 12
        0x0000c8d6:    f0400040    @.@.    ORR      r0,r0,#0x40
        0x0000c8da:    e005        ..      B        0xc8e8 ; am_hal_gpio_pinconfig + 152
        0x0000c8dc:    2c29        ),      CMP      r4,#0x29
        0x0000c8de:    d001        ..      BEQ      0xc8e4 ; am_hal_gpio_pinconfig + 148
        0x0000c8e0:    2c25        %,      CMP      r4,#0x25
        0x0000c8e2:    d1bb        ..      BNE      0xc85c ; am_hal_gpio_pinconfig + 12
        0x0000c8e4:    f0400080    @...    ORR      r0,r0,#0x80
        0x0000c8e8:    f64f271e    O..'    MOV      r7,#0xfa1e
        0x0000c8ec:    f2c00700    ....    MOVT     r7,#0
        0x0000c8f0:    5d3f        ?]      LDRB     r7,[r7,r4]
        0x0000c8f2:    40df        .@      LSRS     r7,r7,r3
        0x0000c8f4:    07ff        ..      LSLS     r7,r7,#31
        0x0000c8f6:    f64f3790    O..7    MOV      r7,#0xfb90
        0x0000c8fa:    f2c00700    ....    MOVT     r7,#0
        0x0000c8fe:    5d3f        ?]      LDRB     r7,[r7,r4]
        0x0000c900:    bf18        ..      IT       NE
        0x0000c902:    f0400002    @...    ORRNE    r0,r0,#2
        0x0000c906:    429f        .B      CMP      r7,r3
        0x0000c908:    d127        '.      BNE      0xc95a ; am_hal_gpio_pinconfig + 266
        0x0000c90a:    0c0b        ..      LSRS     r3,r1,#16
        0x0000c90c:    f003070d    ....    AND      r7,r3,#0xd
        0x0000c910:    2f0d        ./      CMP      r7,#0xd
        0x0000c912:    f1020503    ....    ADD      r5,r2,#3
        0x0000c916:    d0a1        ..      BEQ      0xc85c ; am_hal_gpio_pinconfig + 12
        0x0000c918:    07df        ..      LSLS     r7,r3,#31
        0x0000c91a:    d103        ..      BNE      0xc924 ; am_hal_gpio_pinconfig + 212
        0x0000c91c:    f003070e    ....    AND      r7,r3,#0xe
        0x0000c920:    2f04        ./      CMP      r7,#4
        0x0000c922:    d89b        ..      BHI      0xc85c ; am_hal_gpio_pinconfig + 12
        0x0000c924:    01df        ..      LSLS     r7,r3,#7
        0x0000c926:    f0030330    ..0.    AND      r3,r3,#0x30
        0x0000c92a:    f3c14642    ..BF    UBFX     r6,r1,#17,#3
        0x0000c92e:    b2ff        ..      UXTB     r7,r7
        0x0000c930:    4433        3D      ADD      r3,r3,r6
        0x0000c932:    441f        .D      ADD      r7,r7,r3
        0x0000c934:    f64f2368    O.h#    MOV      r3,#0xfa68
        0x0000c938:    f2c00300    ....    MOVT     r3,#0
        0x0000c93c:    eb030684    ....    ADD      r6,r3,r4,LSL #2
        0x0000c940:    2300        .#      MOVS     r3,#0
        0x0000c942:    bf00        ..      NOP      
        0x0000c944:    7835        5x      LDRB     r5,[r6,#0]
        0x0000c946:    42af        .B      CMP      r7,r5
        0x0000c948:    f0008083    ....    BEQ.W    0xca52 ; am_hal_gpio_pinconfig + 514
        0x0000c94c:    3302        .3      ADDS     r3,#2
        0x0000c94e:    2b08        .+      CMP      r3,#8
        0x0000c950:    f1060601    ....    ADD      r6,r6,#1
        0x0000c954:    d1f6        ..      BNE      0xc944 ; am_hal_gpio_pinconfig + 244
        0x0000c956:    1d15        ..      ADDS     r5,r2,#4
        0x0000c958:    e780        ..      B        0xc85c ; am_hal_gpio_pinconfig + 12
        0x0000c95a:    2202        ."      MOVS     r2,#2
        0x0000c95c:    ea0222d1    ..."    AND      r2,r2,r1,LSR #11
        0x0000c960:    4310        .C      ORRS     r0,r0,r2
        0x0000c962:    2208        ."      MOVS     r2,#8
        0x0000c964:    f3c12381    ...#    UBFX     r3,r1,#10,#2
        0x0000c968:    ea022291    ..."    AND      r2,r2,r1,LSR #10
        0x0000c96c:    ea420243    B.C.    ORR      r2,r2,r3,LSL #1
        0x0000c970:    3b01        .;      SUBS     r3,#1
        0x0000c972:    1ecf        ..      SUBS     r7,r1,#3
        0x0000c974:    fab3f383    ....    CLZ      r3,r3
        0x0000c978:    fab7f787    ....    CLZ      r7,r7
        0x0000c97c:    095b        [.      LSRS     r3,r3,#5
        0x0000c97e:    097f        ..      LSRS     r7,r7,#5
        0x0000c980:    433b        ;C      ORRS     r3,r3,r7
        0x0000c982:    f4114fc0    ...O    TST      r1,#0x6000
        0x0000c986:    9303        ..      STR      r3,[sp,#0xc]
        0x0000c988:    bf07        ..      ITTEE    EQ
        0x0000c98a:    f3c133c0    ...3    UBFXEQ   r3,r1,#15,#1
        0x0000c98e:    ea420c03    B...    ORREQ    r12,r2,r3
        0x0000c992:    f3c13380    ...3    UBFXNE   r3,r1,#14,#1
        0x0000c996:    eb020c03    ....    ADDNE    r12,r2,r3
        0x0000c99a:    0a09        ..      LSRS     r1,r1,#8
        0x0000c99c:    f0010103    ....    AND      r1,r1,#3
        0x0000c9a0:    e8dff001    ....    TBB      [pc,r1]
    $d.1
        0x0000c9a4:    06080209    ....    DCD    101188105
    $t.2
        0x0000c9a8:    f0400004    @...    ORR      r0,r0,#4
        0x0000c9ac:    2100        .!      MOVS     r1,#0
        0x0000c9ae:    e002        ..      B        0xc9b6 ; am_hal_gpio_pinconfig + 358
        0x0000c9b0:    f0400004    @...    ORR      r0,r0,#4
        0x0000c9b4:    2101        .!      MOVS     r1,#1
        0x0000c9b6:    f06f0303    o...    MVN      r3,#3
        0x0000c9ba:    ea030a54    ..T.    AND      r10,r3,r4,LSR #1
        0x0000c9be:    231c        .#      MOVS     r3,#0x1c
        0x0000c9c0:    2518        .%      MOVS     r5,#0x18
        0x0000c9c2:    ea030384    ....    AND      r3,r3,r4,LSL #2
        0x0000c9c6:    ea0502c4    ....    AND      r2,r5,r4,LSL #3
        0x0000c9ca:    250f        .%      MOVS     r5,#0xf
        0x0000c9cc:    409d        .@      LSLS     r5,r5,r3
        0x0000c9ce:    43ed        .C      MVNS     r5,r5
        0x0000c9d0:    2600        .&      MOVS     r6,#0
        0x0000c9d2:    9502        ..      STR      r5,[sp,#8]
        0x0000c9d4:    25ff        .%      MOVS     r5,#0xff
        0x0000c9d6:    fa00f802    ....    LSL      r8,r0,r2
        0x0000c9da:    fa01f002    ....    LSL      r0,r1,r2
        0x0000c9de:    f2c40601    ....    MOVT     r6,#0x4001
        0x0000c9e2:    4095        .@      LSLS     r5,r5,r2
        0x0000c9e4:    9001        ..      STR      r0,[sp,#4]
        0x0000c9e6:    fa0cf003    ....    LSL      r0,r12,r3
        0x0000c9ea:    f1060b4c    ..L.    ADD      r11,r6,#0x4c
        0x0000c9ee:    f0240703    $...    BIC      r7,r4,#3
        0x0000c9f2:    f10609f8    ....    ADD      r9,r6,#0xf8
        0x0000c9f6:    43ed        .C      MVNS     r5,r5
        0x0000c9f8:    9000        ..      STR      r0,[sp,#0]
        0x0000c9fa:    f000f87f    ....    BL       am_hal_interrupt_master_disable ; 0xcafc
        0x0000c9fe:    9903        ..      LDR      r1,[sp,#0xc]
        0x0000ca00:    9004        ..      STR      r0,[sp,#0x10]
        0x0000ca02:    b151        Q.      CBZ      r1,0xca1a ; am_hal_gpio_pinconfig + 458
        0x0000ca04:    f004001f    ....    AND      r0,r4,#0x1f
        0x0000ca08:    2101        .!      MOVS     r1,#1
        0x0000ca0a:    fa01f000    ....    LSL      r0,r1,r0
        0x0000ca0e:    f3c41141    ..A.    UBFX     r1,r4,#5,#2
        0x0000ca12:    eb060181    ....    ADD      r1,r6,r1,LSL #2
        0x0000ca16:    f8c100c8    ....    STR      r0,[r1,#0xc8]
        0x0000ca1a:    2073        s       MOVS     r0,#0x73
        0x0000ca1c:    6770        pg      STR      r0,[r6,#0x74]
        0x0000ca1e:    59f0        .Y      LDR      r0,[r6,r7]
        0x0000ca20:    4028        (@      ANDS     r0,r0,r5
        0x0000ca22:    ea400008    @...    ORR      r0,r0,r8
        0x0000ca26:    51f0        .Q      STR      r0,[r6,r7]
        0x0000ca28:    f85a000b    Z...    LDR      r0,[r10,r11]
        0x0000ca2c:    9902        ..      LDR      r1,[sp,#8]
        0x0000ca2e:    4008        .@      ANDS     r0,r0,r1
        0x0000ca30:    9900        ..      LDR      r1,[sp,#0]
        0x0000ca32:    4308        .C      ORRS     r0,r0,r1
        0x0000ca34:    f84a000b    J...    STR      r0,[r10,r11]
        0x0000ca38:    f8570009    W...    LDR      r0,[r7,r9]
        0x0000ca3c:    9901        ..      LDR      r1,[sp,#4]
        0x0000ca3e:    4028        (@      ANDS     r0,r0,r5
        0x0000ca40:    4308        .C      ORRS     r0,r0,r1
        0x0000ca42:    2500        .%      MOVS     r5,#0
        0x0000ca44:    f8470009    G...    STR      r0,[r7,r9]
        0x0000ca48:    6775        ug      STR      r5,[r6,#0x74]
        0x0000ca4a:    9804        ..      LDR      r0,[sp,#0x10]
        0x0000ca4c:    f000f85e    ..^.    BL       am_hal_interrupt_master_set ; 0xcb0c
        0x0000ca50:    e704        ..      B        0xc85c ; am_hal_gpio_pinconfig + 12
        0x0000ca52:    2208        ."      MOVS     r2,#8
        0x0000ca54:    ea0242d1    ...B    AND      r2,r2,r1,LSR #19
        0x0000ca58:    ea430c02    C...    ORR      r12,r3,r2
        0x0000ca5c:    2200        ."      MOVS     r2,#0
        0x0000ca5e:    9203        ..      STR      r2,[sp,#0xc]
        0x0000ca60:    e79b        ..      B        0xc99a ; am_hal_gpio_pinconfig + 330
        0x0000ca62:    0000        ..      MOVS     r0,r0
    am_hal_gpio_state_write
        0x0000ca64:    b5b0        ..      PUSH     {r4,r5,r7,lr}
        0x0000ca66:    b082        ..      SUB      sp,sp,#8
        0x0000ca68:    2849        I(      CMP      r0,#0x49
        0x0000ca6a:    d901        ..      BLS      0xca70 ; am_hal_gpio_state_write + 12
        0x0000ca6c:    2405        .$      MOVS     r4,#5
        0x0000ca6e:    e040        @.      B        0xcaf2 ; am_hal_gpio_state_write + 142
        0x0000ca70:    460d        .F      MOV      r5,r1
        0x0000ca72:    2905        .)      CMP      r1,#5
        0x0000ca74:    d901        ..      BLS      0xca7a ; am_hal_gpio_state_write + 22
        0x0000ca76:    2406        .$      MOVS     r4,#6
        0x0000ca78:    e03b        ;.      B        0xcaf2 ; am_hal_gpio_state_write + 142
        0x0000ca7a:    4604        .F      MOV      r4,r0
        0x0000ca7c:    f000f83e    ..>.    BL       am_hal_interrupt_master_disable ; 0xcafc
        0x0000ca80:    2d05        .-      CMP      r5,#5
        0x0000ca82:    9001        ..      STR      r0,[sp,#4]
        0x0000ca84:    d838        8.      BHI      0xcaf8 ; am_hal_gpio_state_write + 148
        0x0000ca86:    f004001f    ....    AND      r0,r4,#0x1f
        0x0000ca8a:    2101        .!      MOVS     r1,#1
        0x0000ca8c:    fa01f000    ....    LSL      r0,r1,r0
        0x0000ca90:    210c        .!      MOVS     r1,#0xc
        0x0000ca92:    ea0101d4    ....    AND      r1,r1,r4,LSR #3
        0x0000ca96:    e8dff005    ....    TBB      [pc,r5]
    $d.6
        0x0000ca9a:    0903        ..      DCW    2307
        0x0000ca9c:    211b160f    ...!    DCD    555423247
    $t.7
        0x0000caa0:    228c        ."      MOVS     r2,#0x8c
        0x0000caa2:    f2c40201    ....    MOVT     r2,#0x4001
        0x0000caa6:    4411        .D      ADD      r1,r1,r2
        0x0000caa8:    6188        .a      STR      r0,[r1,#0x18]
        0x0000caaa:    e01e        ..      B        0xcaea ; am_hal_gpio_state_write + 134
        0x0000caac:    228c        ."      MOVS     r2,#0x8c
        0x0000caae:    f2c40201    ....    MOVT     r2,#0x4001
        0x0000cab2:    4411        .D      ADD      r1,r1,r2
        0x0000cab4:    60c8        .`      STR      r0,[r1,#0xc]
        0x0000cab6:    e018        ..      B        0xcaea ; am_hal_gpio_state_write + 134
        0x0000cab8:    228c        ."      MOVS     r2,#0x8c
        0x0000caba:    f2c40201    ....    MOVT     r2,#0x4001
        0x0000cabe:    588b        .X      LDR      r3,[r1,r2]
        0x0000cac0:    4058        X@      EORS     r0,r0,r3
        0x0000cac2:    5088        .P      STR      r0,[r1,r2]
        0x0000cac4:    e011        ..      B        0xcaea ; am_hal_gpio_state_write + 134
        0x0000cac6:    228c        ."      MOVS     r2,#0x8c
        0x0000cac8:    f2c40201    ....    MOVT     r2,#0x4001
        0x0000cacc:    4411        .D      ADD      r1,r1,r2
        0x0000cace:    e00b        ..      B        0xcae8 ; am_hal_gpio_state_write + 132
        0x0000cad0:    228c        ."      MOVS     r2,#0x8c
        0x0000cad2:    f2c40201    ....    MOVT     r2,#0x4001
        0x0000cad6:    4411        .D      ADD      r1,r1,r2
        0x0000cad8:    6308        .c      STR      r0,[r1,#0x30]
        0x0000cada:    e006        ..      B        0xcaea ; am_hal_gpio_state_write + 134
        0x0000cadc:    228c        ."      MOVS     r2,#0x8c
        0x0000cade:    f2c40201    ....    MOVT     r2,#0x4001
        0x0000cae2:    4411        .D      ADD      r1,r1,r2
        0x0000cae4:    6bca        .k      LDR      r2,[r1,#0x3c]
        0x0000cae6:    4050        P@      EORS     r0,r0,r2
        0x0000cae8:    63c8        .c      STR      r0,[r1,#0x3c]
        0x0000caea:    2400        .$      MOVS     r4,#0
        0x0000caec:    9801        ..      LDR      r0,[sp,#4]
        0x0000caee:    f000f80d    ....    BL       am_hal_interrupt_master_set ; 0xcb0c
        0x0000caf2:    4620         F      MOV      r0,r4
        0x0000caf4:    b002        ..      ADD      sp,sp,#8
        0x0000caf6:    bdb0        ..      POP      {r4,r5,r7,pc}
        0x0000caf8:    2406        .$      MOVS     r4,#6
        0x0000cafa:    e7f7        ..      B        0xcaec ; am_hal_gpio_state_write + 136
    am_hal_interrupt_master_disable
        0x0000cafc:    f3ef8010    ....    MRS      r0,PRIMASK
        0x0000cb00:    b672        r.      CPSID    i
        0x0000cb02:    4770        pG      BX       lr
    am_hal_interrupt_master_enable
        0x0000cb04:    f3ef8010    ....    MRS      r0,PRIMASK
        0x0000cb08:    b662        b.      CPSIE    i
        0x0000cb0a:    4770        pG      BX       lr
    am_hal_interrupt_master_set
        0x0000cb0c:    f3808810    ....    MSR      PRIMASK,r0
        0x0000cb10:    4770        pG      BX       lr
        0x0000cb12:    0000        ..      MOVS     r0,r0
    am_hal_itm_enable
        0x0000cb14:    f64e50fc    N..P    MOV      r0,#0xedfc
        0x0000cb18:    f2ce0000    ....    MOVT     r0,#0xe000
        0x0000cb1c:    6801        .h      LDR      r1,[r0,#0]
        0x0000cb1e:    f0417180    A..q    ORR      r1,r1,#0x1000000
        0x0000cb22:    6001        .`      STR      r1,[r0,#0]
        0x0000cb24:    6801        .h      LDR      r1,[r0,#0]
        0x0000cb26:    01c9        ..      LSLS     r1,r1,#7
        0x0000cb28:    d5fc        ..      BPL      0xcb24 ; am_hal_itm_enable + 16
        0x0000cb2a:    f6406000    @..`    MOVW     r0,#0xe00
        0x0000cb2e:    f64c6155    L.Ua    MOV      r1,#0xce55
        0x0000cb32:    f2ce0000    ....    MOVT     r0,#0xe000
        0x0000cb36:    f2cc51ac    ...Q    MOVT     r1,#0xc5ac
        0x0000cb3a:    f8c011b0    ....    STR      r1,[r0,#0x1b0]
        0x0000cb3e:    210f        .!      MOVS     r1,#0xf
        0x0000cb40:    6401        .d      STR      r1,[r0,#0x40]
        0x0000cb42:    f04f31ff    O..1    MOV      r1,#0xffffffff
        0x0000cb46:    6001        .`      STR      r1,[r0,#0]
        0x0000cb48:    f2405111    @..Q    MOV      r1,#0x511
        0x0000cb4c:    f2c00115    ....    MOVT     r1,#0x15
        0x0000cb50:    f8c01080    ....    STR      r1,[r0,#0x80]
        0x0000cb54:    4770        pG      BX       lr
        0x0000cb56:    0000        ..      MOVS     r0,r0
    am_hal_itm_print
        0x0000cb58:    2100        .!      MOVS     r1,#0
        0x0000cb5a:    bf00        ..      NOP      
        0x0000cb5c:    5c42        B\      LDRB     r2,[r0,r1]
        0x0000cb5e:    3101        .1      ADDS     r1,#1
        0x0000cb60:    2a00        .*      CMP      r2,#0
        0x0000cb62:    d1fb        ..      BNE      0xcb5c ; am_hal_itm_print + 4
        0x0000cb64:    3901        .9      SUBS     r1,#1
        0x0000cb66:    bf08        ..      IT       EQ
        0x0000cb68:    4770        pG      BXEQ     lr
        0x0000cb6a:    f04f4260    O.`B    MOV      r2,#0xe0000000
        0x0000cb6e:    bf00        ..      NOP      
        0x0000cb70:    f890c000    ....    LDRB     r12,[r0,#0]
        0x0000cb74:    6813        .h      LDR      r3,[r2,#0]
        0x0000cb76:    2b00        .+      CMP      r3,#0
        0x0000cb78:    d0fc        ..      BEQ      0xcb74 ; am_hal_itm_print + 28
        0x0000cb7a:    3001        .0      ADDS     r0,#1
        0x0000cb7c:    3901        .9      SUBS     r1,#1
        0x0000cb7e:    f882c000    ....    STRB     r12,[r2,#0]
        0x0000cb82:    d1f5        ..      BNE      0xcb70 ; am_hal_itm_print + 24
        0x0000cb84:    4770        pG      BX       lr
    am_hal_mcuctrl_info_get
        0x0000cb86:    b1e1        ..      CBZ      r1,0xcbc2 ; am_hal_mcuctrl_info_get + 60
        0x0000cb88:    2802        .(      CMP      r0,#2
        0x0000cb8a:    d01c        ..      BEQ      0xcbc6 ; am_hal_mcuctrl_info_get + 64
        0x0000cb8c:    2801        .(      CMP      r0,#1
        0x0000cb8e:    d037        7.      BEQ      0xcc00 ; am_hal_mcuctrl_info_get + 122
        0x0000cb90:    b9b8        ..      CBNZ     r0,0xcbc2 ; am_hal_mcuctrl_info_get + 60
        0x0000cb92:    2000        .       MOVS     r0,#0
        0x0000cb94:    f2c40002    ....    MOVT     r0,#0x4002
        0x0000cb98:    6982        .i      LDR      r2,[r0,#0x18]
        0x0000cb9a:    b2d2        ..      UXTB     r2,r2
        0x0000cb9c:    f3c21380    ....    UBFX     r3,r2,#6,#1
        0x0000cba0:    f3c20280    ....    UBFX     r2,r2,#2,#1
        0x0000cba4:    700b        .p      STRB     r3,[r1,#0]
        0x0000cba6:    704a        Jp      STRB     r2,[r1,#1]
        0x0000cba8:    f8d021a0    ...!    LDR      r2,[r0,#0x1a0]
        0x0000cbac:    f3c26281    ...b    UBFX     r2,r2,#26,#2
        0x0000cbb0:    710a        .q      STRB     r2,[r1,#4]
        0x0000cbb2:    6940        @i      LDR      r0,[r0,#0x14]
        0x0000cbb4:    f3c00240    ..@.    UBFX     r2,r0,#1,#1
        0x0000cbb8:    f0000001    ....    AND      r0,r0,#1
        0x0000cbbc:    708a        .p      STRB     r2,[r1,#2]
        0x0000cbbe:    70c8        .p      STRB     r0,[r1,#3]
        0x0000cbc0:    e06c        l.      B        0xcc9c ; am_hal_mcuctrl_info_get + 278
        0x0000cbc2:    2006        .       MOVS     r0,#6
        0x0000cbc4:    4770        pG      BX       lr
        0x0000cbc6:    2000        .       MOVS     r0,#0
        0x0000cbc8:    f2c40002    ....    MOVT     r0,#0x4002
        0x0000cbcc:    f8d021cc    ...!    LDR      r2,[r0,#0x1cc]
        0x0000cbd0:    b2d3        ..      UXTB     r3,r2
        0x0000cbd2:    f0020201    ....    AND      r2,r2,#1
        0x0000cbd6:    700a        .p      STRB     r2,[r1,#0]
        0x0000cbd8:    f3c30240    ..@.    UBFX     r2,r3,#1,#1
        0x0000cbdc:    720a        .r      STRB     r2,[r1,#8]
        0x0000cbde:    f3c30280    ....    UBFX     r2,r3,#2,#1
        0x0000cbe2:    740a        .t      STRB     r2,[r1,#0x10]
        0x0000cbe4:    f8d021c4    ...!    LDR      r2,[r0,#0x1c4]
        0x0000cbe8:    60ca        .`      STR      r2,[r1,#0xc]
        0x0000cbea:    f8d021c0    ...!    LDR      r2,[r0,#0x1c0]
        0x0000cbee:    684b        Kh      LDR      r3,[r1,#4]
        0x0000cbf0:    431a        .C      ORRS     r2,r2,r3
        0x0000cbf2:    604a        J`      STR      r2,[r1,#4]
        0x0000cbf4:    f8d001c8    ....    LDR      r0,[r0,#0x1c8]
        0x0000cbf8:    694a        Ji      LDR      r2,[r1,#0x14]
        0x0000cbfa:    4310        .C      ORRS     r0,r0,r2
        0x0000cbfc:    6148        Ha      STR      r0,[r1,#0x14]
        0x0000cbfe:    e04d        M.      B        0xcc9c ; am_hal_mcuctrl_info_get + 278
        0x0000cc00:    2000        .       MOVS     r0,#0
        0x0000cc02:    f2c40002    ....    MOVT     r0,#0x4002
        0x0000cc06:    6802        .h      LDR      r2,[r0,#0]
        0x0000cc08:    600a        .`      STR      r2,[r1,#0]
        0x0000cc0a:    6843        Ch      LDR      r3,[r0,#4]
        0x0000cc0c:    604b        K`      STR      r3,[r1,#4]
        0x0000cc0e:    6883        .h      LDR      r3,[r0,#8]
        0x0000cc10:    608b        .`      STR      r3,[r1,#8]
        0x0000cc12:    68c3        .h      LDR      r3,[r0,#0xc]
        0x0000cc14:    60cb        .`      STR      r3,[r1,#0xc]
        0x0000cc16:    6903        .i      LDR      r3,[r0,#0x10]
        0x0000cc18:    610b        .a      STR      r3,[r1,#0x10]
        0x0000cc1a:    6940        @i      LDR      r0,[r0,#0x14]
        0x0000cc1c:    f64f1354    O.T.    MOV      r3,#0xf954
        0x0000cc20:    6148        Ha      STR      r0,[r1,#0x14]
        0x0000cc22:    2001        .       MOVS     r0,#1
        0x0000cc24:    6188        .a      STR      r0,[r1,#0x18]
        0x0000cc26:    f3c25003    ...P    UBFX     r0,r2,#20,#4
        0x0000cc2a:    f2c00300    ....    MOVT     r3,#0
        0x0000cc2e:    f8530020    S. .    LDR      r0,[r3,r0,LSL #2]
        0x0000cc32:    f64f1394    O...    MOV      r3,#0xf994
        0x0000cc36:    f3c24203    ...B    UBFX     r2,r2,#16,#4
        0x0000cc3a:    f2c00300    ....    MOVT     r3,#0
        0x0000cc3e:    f8532022    S."     LDR      r2,[r3,r2,LSL #2]
        0x0000cc42:    e9c10207    ....    STRD     r0,r2,[r1,#0x1c]
        0x0000cc46:    f64070e0    @..p    MOVW     r0,#0xfe0
        0x0000cc4a:    f2cf0000    ....    MOVT     r0,#0xf000
        0x0000cc4e:    6802        .h      LDR      r2,[r0,#0]
        0x0000cc50:    b2d2        ..      UXTB     r2,r2
        0x0000cc52:    624a        Jb      STR      r2,[r1,#0x24]
        0x0000cc54:    6843        Ch      LDR      r3,[r0,#4]
        0x0000cc56:    f363220b    c.."    BFI      r2,r3,#8,#4
        0x0000cc5a:    624a        Jb      STR      r2,[r1,#0x24]
        0x0000cc5c:    6842        Bh      LDR      r2,[r0,#4]
        0x0000cc5e:    f3c21203    ....    UBFX     r2,r2,#4,#4
        0x0000cc62:    628a        .b      STR      r2,[r1,#0x28]
        0x0000cc64:    6883        .h      LDR      r3,[r0,#8]
        0x0000cc66:    f3631207    c...    BFI      r2,r3,#4,#4
        0x0000cc6a:    628a        .b      STR      r2,[r1,#0x28]
        0x0000cc6c:    6882        .h      LDR      r2,[r0,#8]
        0x0000cc6e:    f00202f0    ....    AND      r2,r2,#0xf0
        0x0000cc72:    62ca        .b      STR      r2,[r1,#0x2c]
        0x0000cc74:    68c3        .h      LDR      r3,[r0,#0xc]
        0x0000cc76:    f3c31303    ....    UBFX     r3,r3,#4,#4
        0x0000cc7a:    441a        .D      ADD      r2,r2,r3
        0x0000cc7c:    62ca        .b      STR      r2,[r1,#0x2c]
        0x0000cc7e:    69c2        .i      LDR      r2,[r0,#0x1c]
        0x0000cc80:    0612        ..      LSLS     r2,r2,#24
        0x0000cc82:    630a        .c      STR      r2,[r1,#0x30]
        0x0000cc84:    6983        .i      LDR      r3,[r0,#0x18]
        0x0000cc86:    f3634217    c..B    BFI      r2,r3,#16,#8
        0x0000cc8a:    630a        .c      STR      r2,[r1,#0x30]
        0x0000cc8c:    6943        Ci      LDR      r3,[r0,#0x14]
        0x0000cc8e:    f363220f    c.."    BFI      r2,r3,#8,#8
        0x0000cc92:    630a        .c      STR      r2,[r1,#0x30]
        0x0000cc94:    6900        .i      LDR      r0,[r0,#0x10]
        0x0000cc96:    b2c0        ..      UXTB     r0,r0
        0x0000cc98:    4410        .D      ADD      r0,r0,r2
        0x0000cc9a:    6308        .c      STR      r0,[r1,#0x30]
        0x0000cc9c:    2000        .       MOVS     r0,#0
        0x0000cc9e:    4770        pG      BX       lr
    am_hal_pdm_configure
        0x0000cca0:    b510        ..      PUSH     {r4,lr}
        0x0000cca2:    b084        ..      SUB      sp,sp,#0x10
        0x0000cca4:    2800        .(      CMP      r0,#0
        0x0000cca6:    f00080a7    ....    BEQ.W    0xcdf8 ; am_hal_pdm_configure + 344
        0x0000ccaa:    6800        .h      LDR      r0,[r0,#0]
        0x0000ccac:    f24562e2    E..b    MOV      r2,#0x56e2
        0x0000ccb0:    f020407e     .~@    BIC      r0,r0,#0xfe000000
        0x0000ccb4:    f2c012f9    ....    MOVT     r2,#0x1f9
        0x0000ccb8:    4290        .B      CMP      r0,r2
        0x0000ccba:    f040809d    @...    BNE.W    0xcdf8 ; am_hal_pdm_configure + 344
        0x0000ccbe:    f2410400    A...    MOVW     r4,#0x1000
        0x0000ccc2:    f2c50401    ....    MOVT     r4,#0x5001
        0x0000ccc6:    7f48        H.      LDRB     r0,[r1,#0x1d]
        0x0000ccc8:    6822        "h      LDR      r2,[r4,#0]
        0x0000ccca:    f000007f    ....    AND      r0,r0,#0x7f
        0x0000ccce:    f0220202    "...    BIC      r2,r2,#2
        0x0000ccd2:    ea420040    B.@.    ORR      r0,r2,r0,LSL #1
        0x0000ccd6:    6020         `      STR      r0,[r4,#0]
        0x0000ccd8:    6988        .i      LDR      r0,[r1,#0x18]
        0x0000ccda:    6822        "h      LDR      r2,[r4,#0]
        0x0000ccdc:    f3600284    `...    BFI      r2,r0,#2,#3
        0x0000cce0:    6022        "`      STR      r2,[r4,#0]
        0x0000cce2:    68c8        .h      LDR      r0,[r1,#0xc]
        0x0000cce4:    6822        "h      LDR      r2,[r4,#0]
        0x0000cce6:    f3601248    `.H.    BFI      r2,r0,#5,#4
        0x0000ccea:    6022        "`      STR      r2,[r4,#0]
        0x0000ccec:    7a08        .z      LDRB     r0,[r1,#8]
        0x0000ccee:    6822        "h      LDR      r2,[r4,#0]
        0x0000ccf0:    f4227200    "..r    BIC      r2,r2,#0x200
        0x0000ccf4:    ea422040    B.@     ORR      r0,r2,r0,LSL #9
        0x0000ccf8:    6020         `      STR      r0,[r4,#0]
        0x0000ccfa:    6848        Hh      LDR      r0,[r1,#4]
        0x0000ccfc:    6822        "h      LDR      r2,[r4,#0]
        0x0000ccfe:    f3602290    `.."    BFI      r2,r0,#10,#7
        0x0000cd02:    6022        "`      STR      r2,[r4,#0]
        0x0000cd04:    7808        .x      LDRB     r0,[r1,#0]
        0x0000cd06:    6822        "h      LDR      r2,[r4,#0]
        0x0000cd08:    f0000003    ....    AND      r0,r0,#3
        0x0000cd0c:    f42222c0    ".."    BIC      r2,r2,#0x60000
        0x0000cd10:    ea424040    B.@@    ORR      r0,r2,r0,LSL #17
        0x0000cd14:    6020         `      STR      r0,[r4,#0]
        0x0000cd16:    7848        Hx      LDRB     r0,[r1,#1]
        0x0000cd18:    6822        "h      LDR      r2,[r4,#0]
        0x0000cd1a:    f000001f    ....    AND      r0,r0,#0x1f
        0x0000cd1e:    f0227278    ".xr    BIC      r2,r2,#0x3e00000
        0x0000cd22:    ea425040    B.@P    ORR      r0,r2,r0,LSL #21
        0x0000cd26:    6020         `      STR      r0,[r4,#0]
        0x0000cd28:    7888        .x      LDRB     r0,[r1,#2]
        0x0000cd2a:    6822        "h      LDR      r2,[r4,#0]
        0x0000cd2c:    f000001f    ....    AND      r0,r0,#0x1f
        0x0000cd30:    f02242f8    "..B    BIC      r2,r2,#0x7c000000
        0x0000cd34:    ea426080    B..`    ORR      r0,r2,r0,LSL #26
        0x0000cd38:    6020         `      STR      r0,[r4,#0]
        0x0000cd3a:    7f88        ..      LDRB     r0,[r1,#0x1e]
        0x0000cd3c:    6822        "h      LDR      r2,[r4,#0]
        0x0000cd3e:    f0224200    "..B    BIC      r2,r2,#0x80000000
        0x0000cd42:    ea4270c0    B..p    ORR      r0,r2,r0,LSL #31
        0x0000cd46:    6020         `      STR      r0,[r4,#0]
        0x0000cd48:    6820         h      LDR      r0,[r4,#0]
        0x0000cd4a:    f0400001    @...    ORR      r0,r0,#1
        0x0000cd4e:    6020         `      STR      r0,[r4,#0]
        0x0000cd50:    6860        `h      LDR      r0,[r4,#4]
        0x0000cd52:    f0206080     ..`    BIC      r0,r0,#0x4000000
        0x0000cd56:    6060        ``      STR      r0,[r4,#4]
        0x0000cd58:    6860        `h      LDR      r0,[r4,#4]
        0x0000cd5a:    f0204000     ..@    BIC      r0,r0,#0x80000000
        0x0000cd5e:    6060        ``      STR      r0,[r4,#4]
        0x0000cd60:    6860        `h      LDR      r0,[r4,#4]
        0x0000cd62:    f0204080     ..@    BIC      r0,r0,#0x40000000
        0x0000cd66:    6060        ``      STR      r0,[r4,#4]
        0x0000cd68:    7d48        H}      LDRB     r0,[r1,#0x15]
        0x0000cd6a:    6862        bh      LDR      r2,[r4,#4]
        0x0000cd6c:    f36002c4    `...    BFI      r2,r0,#3,#2
        0x0000cd70:    6062        b`      STR      r2,[r4,#4]
        0x0000cd72:    7d08        .}      LDRB     r0,[r1,#0x14]
        0x0000cd74:    6862        bh      LDR      r2,[r4,#4]
        0x0000cd76:    f4227280    "..r    BIC      r2,r2,#0x100
        0x0000cd7a:    ea422000    B..     ORR      r0,r2,r0,LSL #8
        0x0000cd7e:    6060        ``      STR      r0,[r4,#4]
        0x0000cd80:    7c88        .|      LDRB     r0,[r1,#0x12]
        0x0000cd82:    6862        bh      LDR      r2,[r4,#4]
        0x0000cd84:    f0000001    ....    AND      r0,r0,#1
        0x0000cd88:    f4223280    "..2    BIC      r2,r2,#0x10000
        0x0000cd8c:    ea424000    B..@    ORR      r0,r2,r0,LSL #16
        0x0000cd90:    6060        ``      STR      r0,[r4,#4]
        0x0000cd92:    7cc8        .|      LDRB     r0,[r1,#0x13]
        0x0000cd94:    6862        bh      LDR      r2,[r4,#4]
        0x0000cd96:    f4223200    "..2    BIC      r2,r2,#0x20000
        0x0000cd9a:    ea424040    B.@@    ORR      r0,r2,r0,LSL #17
        0x0000cd9e:    6060        ``      STR      r0,[r4,#4]
        0x0000cda0:    7c48        H|      LDRB     r0,[r1,#0x11]
        0x0000cda2:    6862        bh      LDR      r2,[r4,#4]
        0x0000cda4:    f4222200    ".."    BIC      r2,r2,#0x80000
        0x0000cda8:    ea4240c0    B..@    ORR      r0,r2,r0,LSL #19
        0x0000cdac:    6060        ``      STR      r0,[r4,#4]
        0x0000cdae:    7f08        ..      LDRB     r0,[r1,#0x1c]
        0x0000cdb0:    6862        bh      LDR      r2,[r4,#4]
        0x0000cdb2:    f4221280    "...    BIC      r2,r2,#0x100000
        0x0000cdb6:    ea425000    B..P    ORR      r0,r2,r0,LSL #20
        0x0000cdba:    6060        ``      STR      r0,[r4,#4]
        0x0000cdbc:    7c08        .|      LDRB     r0,[r1,#0x10]
        0x0000cdbe:    6861        ah      LDR      r1,[r4,#4]
        0x0000cdc0:    f0000007    ....    AND      r0,r0,#7
        0x0000cdc4:    f0215160    !.`Q    BIC      r1,r1,#0x38000000
        0x0000cdc8:    ea4160c0    A..`    ORR      r0,r1,r0,LSL #27
        0x0000cdcc:    6060        ``      STR      r0,[r4,#4]
        0x0000cdce:    a801        ..      ADD      r0,sp,#4
        0x0000cdd0:    f7fffcc2    ....    BL       am_hal_clkgen_status_get ; 0xc758
        0x0000cdd4:    9801        ..      LDR      r0,[sp,#4]
        0x0000cdd6:    f6497181    I..q    MOV      r1,#0x9f81
        0x0000cdda:    f2c1615e    ..^a    MOVT     r1,#0x165e
        0x0000cdde:    fba00101    ....    UMULL    r0,r1,r0,r1
        0x0000cde2:    0c88        ..      LSRS     r0,r1,#18
        0x0000cde4:    2164        d!      MOVS     r1,#0x64
        0x0000cde6:    4348        HC      MULS     r0,r1,r0
        0x0000cde8:    f7fffcd2    ....    BL       am_hal_flash_delay ; 0xc790
        0x0000cdec:    6860        `h      LDR      r0,[r4,#4]
        0x0000cdee:    f0404080    @..@    ORR      r0,r0,#0x40000000
        0x0000cdf2:    6060        ``      STR      r0,[r4,#4]
        0x0000cdf4:    2000        .       MOVS     r0,#0
        0x0000cdf6:    e000        ..      B        0xcdfa ; am_hal_pdm_configure + 346
        0x0000cdf8:    2002        .       MOVS     r0,#2
        0x0000cdfa:    b004        ..      ADD      sp,sp,#0x10
        0x0000cdfc:    bd10        ..      POP      {r4,pc}
    am_hal_pdm_disable
        0x0000cdfe:    b1b0        ..      CBZ      r0,0xce2e ; am_hal_pdm_disable + 48
        0x0000ce00:    6800        .h      LDR      r0,[r0,#0]
        0x0000ce02:    f24561e2    E..a    MOV      r1,#0x56e2
        0x0000ce06:    f020407e     .~@    BIC      r0,r0,#0xfe000000
        0x0000ce0a:    f2c011f9    ....    MOVT     r1,#0x1f9
        0x0000ce0e:    4288        .B      CMP      r0,r1
        0x0000ce10:    d10d        ..      BNE      0xce2e ; am_hal_pdm_disable + 48
        0x0000ce12:    f2410004    A...    MOV      r0,#0x1004
        0x0000ce16:    f2c50001    ....    MOVT     r0,#0x5001
        0x0000ce1a:    6801        .h      LDR      r1,[r0,#0]
        0x0000ce1c:    f0214100    !..A    BIC      r1,r1,#0x80000000
        0x0000ce20:    6001        .`      STR      r1,[r0,#0]
        0x0000ce22:    6801        .h      LDR      r1,[r0,#0]
        0x0000ce24:    f0216180    !..a    BIC      r1,r1,#0x4000000
        0x0000ce28:    6001        .`      STR      r1,[r0,#0]
        0x0000ce2a:    2000        .       MOVS     r0,#0
        0x0000ce2c:    4770        pG      BX       lr
        0x0000ce2e:    2002        .       MOVS     r0,#2
        0x0000ce30:    4770        pG      BX       lr
        0x0000ce32:    0000        ..      MOVS     r0,r0
    am_hal_pdm_dma_start
        0x0000ce34:    b1f0        ..      CBZ      r0,0xce74 ; am_hal_pdm_dma_start + 64
        0x0000ce36:    6800        .h      LDR      r0,[r0,#0]
        0x0000ce38:    f24562e2    E..b    MOV      r2,#0x56e2
        0x0000ce3c:    f020407e     .~@    BIC      r0,r0,#0xfe000000
        0x0000ce40:    f2c012f9    ....    MOVT     r2,#0x1f9
        0x0000ce44:    4290        .B      CMP      r0,r2
        0x0000ce46:    d115        ..      BNE      0xce74 ; am_hal_pdm_dma_start + 64
        0x0000ce48:    8848        H.      LDRH     r0,[r1,#2]
        0x0000ce4a:    f04f5280    O..R    MOV      r2,#0x10000000
        0x0000ce4e:    ebb24f00    ...O    CMP      r2,r0,LSL #16
        0x0000ce52:    bf04        ..      ITT      EQ
        0x0000ce54:    2005        .       MOVEQ    r0,#5
        0x0000ce56:    4770        pG      BXEQ     lr
        0x0000ce58:    684a        Jh      LDR      r2,[r1,#4]
        0x0000ce5a:    2018        .       MOVS     r0,#0x18
        0x0000ce5c:    fbb2f3f0    ....    UDIV     r3,r2,r0
        0x0000ce60:    fb032310    ...#    MLS      r3,r3,r0,r2
        0x0000ce64:    b143        C.      CBZ      r3,0xce78 ; am_hal_pdm_dma_start + 68
        0x0000ce66:    3804        .8      SUBS     r0,#4
        0x0000ce68:    280f        .(      CMP      r0,#0xf
        0x0000ce6a:    bf9c        ..      ITT      LS
        0x0000ce6c:    f04f6000    O..`    MOVLS    r0,#0x8000000
        0x0000ce70:    4770        pG      BXLS     lr
        0x0000ce72:    e7f3        ..      B        0xce5c ; am_hal_pdm_dma_start + 40
        0x0000ce74:    2002        .       MOVS     r0,#2
        0x0000ce76:    4770        pG      BX       lr
        0x0000ce78:    f64f52d4    O..R    MOV      r2,#0xfdd4
        0x0000ce7c:    f2412340    A.@#    MOVW     r3,#0x1240
        0x0000ce80:    f6cf72ff    ...r    MOVT     r2,#0xffff
        0x0000ce84:    f2c50301    ....    MOVT     r3,#0x5001
        0x0000ce88:    5098        .P      STR      r0,[r3,r2]
        0x0000ce8a:    2000        .       MOVS     r0,#0
        0x0000ce8c:    6418        .d      STR      r0,[r3,#0x40]
        0x0000ce8e:    6c1a        .l      LDR      r2,[r3,#0x40]
        0x0000ce90:    f4227280    "..r    BIC      r2,r2,#0x100
        0x0000ce94:    641a        .d      STR      r2,[r3,#0x40]
        0x0000ce96:    6c1a        .l      LDR      r2,[r3,#0x40]
        0x0000ce98:    f0220204    "...    BIC      r2,r2,#4
        0x0000ce9c:    641a        .d      STR      r2,[r3,#0x40]
        0x0000ce9e:    684a        Jh      LDR      r2,[r1,#4]
        0x0000cea0:    649a        .d      STR      r2,[r3,#0x48]
        0x0000cea2:    6809        .h      LDR      r1,[r1,#0]
        0x0000cea4:    64d9        .d      STR      r1,[r3,#0x4c]
        0x0000cea6:    6819        .h      LDR      r1,[r3,#0]
        0x0000cea8:    f0410101    A...    ORR      r1,r1,#1
        0x0000ceac:    6019        .`      STR      r1,[r3,#0]
        0x0000ceae:    6c19        .l      LDR      r1,[r3,#0x40]
        0x0000ceb0:    f0410101    A...    ORR      r1,r1,#1
        0x0000ceb4:    6419        .d      STR      r1,[r3,#0x40]
        0x0000ceb6:    4770        pG      BX       lr
    am_hal_pdm_enable
        0x0000ceb8:    b1b0        ..      CBZ      r0,0xcee8 ; am_hal_pdm_enable + 48
        0x0000ceba:    6800        .h      LDR      r0,[r0,#0]
        0x0000cebc:    f24561e2    E..a    MOV      r1,#0x56e2
        0x0000cec0:    f020407e     .~@    BIC      r0,r0,#0xfe000000
        0x0000cec4:    f2c011f9    ....    MOVT     r1,#0x1f9
        0x0000cec8:    4288        .B      CMP      r0,r1
        0x0000ceca:    d10d        ..      BNE      0xcee8 ; am_hal_pdm_enable + 48
        0x0000cecc:    f2410004    A...    MOV      r0,#0x1004
        0x0000ced0:    f2c50001    ....    MOVT     r0,#0x5001
        0x0000ced4:    6801        .h      LDR      r1,[r0,#0]
        0x0000ced6:    f0414100    A..A    ORR      r1,r1,#0x80000000
        0x0000ceda:    6001        .`      STR      r1,[r0,#0]
        0x0000cedc:    6801        .h      LDR      r1,[r0,#0]
        0x0000cede:    f0416180    A..a    ORR      r1,r1,#0x4000000
        0x0000cee2:    6001        .`      STR      r1,[r0,#0]
        0x0000cee4:    2000        .       MOVS     r0,#0
        0x0000cee6:    4770        pG      BX       lr
        0x0000cee8:    2002        .       MOVS     r0,#2
        0x0000ceea:    4770        pG      BX       lr
    am_hal_pdm_fifo_flush
        0x0000ceec:    b180        ..      CBZ      r0,0xcf10 ; am_hal_pdm_fifo_flush + 36
        0x0000ceee:    6800        .h      LDR      r0,[r0,#0]
        0x0000cef0:    f24561e2    E..a    MOV      r1,#0x56e2
        0x0000cef4:    f020407e     .~@    BIC      r0,r0,#0xfe000000
        0x0000cef8:    f2c011f9    ....    MOVT     r1,#0x1f9
        0x0000cefc:    4288        .B      CMP      r0,r1
        0x0000cefe:    d107        ..      BNE      0xcf10 ; am_hal_pdm_fifo_flush + 36
        0x0000cf00:    f2410010    A...    MOV      r0,#0x1010
        0x0000cf04:    f2c50001    ....    MOVT     r0,#0x5001
        0x0000cf08:    2101        .!      MOVS     r1,#1
        0x0000cf0a:    6001        .`      STR      r1,[r0,#0]
        0x0000cf0c:    2000        .       MOVS     r0,#0
        0x0000cf0e:    4770        pG      BX       lr
        0x0000cf10:    2002        .       MOVS     r0,#2
        0x0000cf12:    4770        pG      BX       lr
    am_hal_pdm_initialize
        0x0000cf14:    b108        ..      CBZ      r0,0xcf1a ; am_hal_pdm_initialize + 6
        0x0000cf16:    2005        .       MOVS     r0,#5
        0x0000cf18:    4770        pG      BX       lr
        0x0000cf1a:    b1a1        ..      CBZ      r1,0xcf46 ; am_hal_pdm_initialize + 50
        0x0000cf1c:    f241028c    A...    MOV      r2,#0x108c
        0x0000cf20:    f2c10201    ....    MOVT     r2,#0x1001
        0x0000cf24:    6810        .h      LDR      r0,[r2,#0]
        0x0000cf26:    01c3        ..      LSLS     r3,r0,#7
        0x0000cf28:    bf44        D.      ITT      MI
        0x0000cf2a:    2007        .       MOVMI    r0,#7
        0x0000cf2c:    4770        pG      BXMI     lr
        0x0000cf2e:    f24563e2    E..c    MOV      r3,#0x56e2
        0x0000cf32:    f2c013f9    ....    MOVT     r3,#0x1f9
        0x0000cf36:    f3630018    c...    BFI      r0,r3,#0,#25
        0x0000cf3a:    6010        .`      STR      r0,[r2,#0]
        0x0000cf3c:    2000        .       MOVS     r0,#0
        0x0000cf3e:    6090        .`      STR      r0,[r2,#8]
        0x0000cf40:    7110        .q      STRB     r0,[r2,#4]
        0x0000cf42:    600a        .`      STR      r2,[r1,#0]
        0x0000cf44:    4770        pG      BX       lr
        0x0000cf46:    2006        .       MOVS     r0,#6
        0x0000cf48:    4770        pG      BX       lr
    am_hal_pdm_interrupt_clear
        0x0000cf4a:    b178        x.      CBZ      r0,0xcf6c ; am_hal_pdm_interrupt_clear + 34
        0x0000cf4c:    6800        .h      LDR      r0,[r0,#0]
        0x0000cf4e:    f24562e2    E..b    MOV      r2,#0x56e2
        0x0000cf52:    f020407e     .~@    BIC      r0,r0,#0xfe000000
        0x0000cf56:    f2c012f9    ....    MOVT     r2,#0x1f9
        0x0000cf5a:    4290        .B      CMP      r0,r2
        0x0000cf5c:    d106        ..      BNE      0xcf6c ; am_hal_pdm_interrupt_clear + 34
        0x0000cf5e:    f2412008    A..     MOV      r0,#0x1208
        0x0000cf62:    f2c50001    ....    MOVT     r0,#0x5001
        0x0000cf66:    6001        .`      STR      r1,[r0,#0]
        0x0000cf68:    2000        .       MOVS     r0,#0
        0x0000cf6a:    4770        pG      BX       lr
        0x0000cf6c:    2002        .       MOVS     r0,#2
        0x0000cf6e:    4770        pG      BX       lr
    am_hal_pdm_interrupt_enable
        0x0000cf70:    b188        ..      CBZ      r0,0xcf96 ; am_hal_pdm_interrupt_enable + 38
        0x0000cf72:    6800        .h      LDR      r0,[r0,#0]
        0x0000cf74:    f24562e2    E..b    MOV      r2,#0x56e2
        0x0000cf78:    f020407e     .~@    BIC      r0,r0,#0xfe000000
        0x0000cf7c:    f2c012f9    ....    MOVT     r2,#0x1f9
        0x0000cf80:    4290        .B      CMP      r0,r2
        0x0000cf82:    d108        ..      BNE      0xcf96 ; am_hal_pdm_interrupt_enable + 38
        0x0000cf84:    f2412000    A..     MOVW     r0,#0x1200
        0x0000cf88:    f2c50001    ....    MOVT     r0,#0x5001
        0x0000cf8c:    6802        .h      LDR      r2,[r0,#0]
        0x0000cf8e:    4311        .C      ORRS     r1,r1,r2
        0x0000cf90:    6001        .`      STR      r1,[r0,#0]
        0x0000cf92:    2000        .       MOVS     r0,#0
        0x0000cf94:    4770        pG      BX       lr
        0x0000cf96:    2002        .       MOVS     r0,#2
        0x0000cf98:    4770        pG      BX       lr
    am_hal_pdm_interrupt_status_get
        0x0000cf9a:    b1a0        ..      CBZ      r0,0xcfc6 ; am_hal_pdm_interrupt_status_get + 44
        0x0000cf9c:    6800        .h      LDR      r0,[r0,#0]
        0x0000cf9e:    f24563e2    E..c    MOV      r3,#0x56e2
        0x0000cfa2:    f020407e     .~@    BIC      r0,r0,#0xfe000000
        0x0000cfa6:    f2c013f9    ....    MOVT     r3,#0x1f9
        0x0000cfaa:    4298        .B      CMP      r0,r3
        0x0000cfac:    d10b        ..      BNE      0xcfc6 ; am_hal_pdm_interrupt_status_get + 44
        0x0000cfae:    f2412300    A..#    MOVW     r3,#0x1200
        0x0000cfb2:    f2c50301    ....    MOVT     r3,#0x5001
        0x0000cfb6:    6858        Xh      LDR      r0,[r3,#4]
        0x0000cfb8:    b112        ..      CBZ      r2,0xcfc0 ; am_hal_pdm_interrupt_status_get + 38
        0x0000cfba:    6008        .`      STR      r0,[r1,#0]
        0x0000cfbc:    681a        .h      LDR      r2,[r3,#0]
        0x0000cfbe:    4010        .@      ANDS     r0,r0,r2
        0x0000cfc0:    6008        .`      STR      r0,[r1,#0]
        0x0000cfc2:    2000        .       MOVS     r0,#0
        0x0000cfc4:    4770        pG      BX       lr
        0x0000cfc6:    2002        .       MOVS     r0,#2
        0x0000cfc8:    4770        pG      BX       lr
    am_hal_pdm_power_control
        0x0000cfca:    b5b0        ..      PUSH     {r4,r5,r7,lr}
        0x0000cfcc:    b082        ..      SUB      sp,sp,#8
        0x0000cfce:    4604        .F      MOV      r4,r0
        0x0000cfd0:    6800        .h      LDR      r0,[r0,#0]
        0x0000cfd2:    f24563e2    E..c    MOV      r3,#0x56e2
        0x0000cfd6:    f020407e     .~@    BIC      r0,r0,#0xfe000000
        0x0000cfda:    f2c013f9    ....    MOVT     r3,#0x1f9
        0x0000cfde:    4298        .B      CMP      r0,r3
        0x0000cfe0:    d113        ..      BNE      0xd00a ; am_hal_pdm_power_control + 64
        0x0000cfe2:    7a20         z      LDRB     r0,[r4,#8]
        0x0000cfe4:    1e4b        K.      SUBS     r3,r1,#1
        0x0000cfe6:    2b02        .+      CMP      r3,#2
        0x0000cfe8:    f100050f    ....    ADD      r5,r0,#0xf
        0x0000cfec:    d211        ..      BCS      0xd012 ; am_hal_pdm_power_control + 72
        0x0000cfee:    b13a        :.      CBZ      r2,0xd000 ; am_hal_pdm_power_control + 54
        0x0000cff0:    f7fffd84    ....    BL       am_hal_interrupt_master_disable ; 0xcafc
        0x0000cff4:    9000        ..      STR      r0,[sp,#0]
        0x0000cff6:    2001        .       MOVS     r0,#1
        0x0000cff8:    7120         q      STRB     r0,[r4,#4]
        0x0000cffa:    9800        ..      LDR      r0,[sp,#0]
        0x0000cffc:    f7fffd86    ....    BL       am_hal_interrupt_master_set ; 0xcb0c
        0x0000d000:    b2e8        ..      UXTB     r0,r5
        0x0000d002:    f000f875    ..u.    BL       am_hal_pwrctrl_periph_disable ; 0xd0f0
        0x0000d006:    2500        .%      MOVS     r5,#0
        0x0000d008:    e000        ..      B        0xd00c ; am_hal_pdm_power_control + 66
        0x0000d00a:    2502        .%      MOVS     r5,#2
        0x0000d00c:    4628        (F      MOV      r0,r5
        0x0000d00e:    b002        ..      ADD      sp,sp,#8
        0x0000d010:    bdb0        ..      POP      {r4,r5,r7,pc}
        0x0000d012:    b971        q.      CBNZ     r1,0xd032 ; am_hal_pdm_power_control + 104
        0x0000d014:    b17a        z.      CBZ      r2,0xd036 ; am_hal_pdm_power_control + 108
        0x0000d016:    7920         y      LDRB     r0,[r4,#4]
        0x0000d018:    b188        ..      CBZ      r0,0xd03e ; am_hal_pdm_power_control + 116
        0x0000d01a:    b2e8        ..      UXTB     r0,r5
        0x0000d01c:    f000f8b8    ....    BL       am_hal_pwrctrl_periph_enable ; 0xd190
        0x0000d020:    f7fffd6c    ..l.    BL       am_hal_interrupt_master_disable ; 0xcafc
        0x0000d024:    2500        .%      MOVS     r5,#0
        0x0000d026:    9001        ..      STR      r0,[sp,#4]
        0x0000d028:    7125        %q      STRB     r5,[r4,#4]
        0x0000d02a:    9801        ..      LDR      r0,[sp,#4]
        0x0000d02c:    f7fffd6e    ..n.    BL       am_hal_interrupt_master_set ; 0xcb0c
        0x0000d030:    e7ec        ..      B        0xd00c ; am_hal_pdm_power_control + 66
        0x0000d032:    2506        .%      MOVS     r5,#6
        0x0000d034:    e7ea        ..      B        0xd00c ; am_hal_pdm_power_control + 66
        0x0000d036:    b2e8        ..      UXTB     r0,r5
        0x0000d038:    f000f8aa    ....    BL       am_hal_pwrctrl_periph_enable ; 0xd190
        0x0000d03c:    e7e3        ..      B        0xd006 ; am_hal_pdm_power_control + 60
        0x0000d03e:    2507        .%      MOVS     r5,#7
        0x0000d040:    e7e4        ..      B        0xd00c ; am_hal_pdm_power_control + 66
    am_hal_pwrctrl_ldo_vddx_active_trim_adj_default
        0x0000d042:    b5b0        ..      PUSH     {r4,r5,r7,lr}
        0x0000d044:    b082        ..      SUB      sp,sp,#8
        0x0000d046:    460c        .F      MOV      r4,r1
        0x0000d048:    4605        .F      MOV      r5,r0
        0x0000d04a:    f7fffd57    ..W.    BL       am_hal_interrupt_master_disable ; 0xcafc
        0x0000d04e:    2d01        .-      CMP      r5,#1
        0x0000d050:    9001        ..      STR      r0,[sp,#4]
        0x0000d052:    d00b        ..      BEQ      0xd06c ; am_hal_pwrctrl_ldo_vddx_active_trim_adj_default + 42
        0x0000d054:    b9ad        ..      CBNZ     r5,0xd082 ; am_hal_pwrctrl_ldo_vddx_active_trim_adj_default + 64
        0x0000d056:    f7fff96b    ..k.    BL       am_hal_burst_ldo_patch_check ; 0xc330
        0x0000d05a:    b1a0        ..      CBZ      r0,0xd086 ; am_hal_pwrctrl_ldo_vddx_active_trim_adj_default + 68
        0x0000d05c:    f6430068    C.h.    MOV      r0,#0x3868
        0x0000d060:    f2c50002    ....    MOVT     r0,#0x5002
        0x0000d064:    6800        .h      LDR      r0,[r0,#0]
        0x0000d066:    f36f209f    o..     BFC      r0,#10,#22
        0x0000d06a:    e00d        ..      B        0xd088 ; am_hal_pwrctrl_ldo_vddx_active_trim_adj_default + 70
        0x0000d06c:    f7fff960    ..`.    BL       am_hal_burst_ldo_patch_check ; 0xc330
        0x0000d070:    b300        ..      CBZ      r0,0xd0b4 ; am_hal_pwrctrl_ldo_vddx_active_trim_adj_default + 114
        0x0000d072:    f6430068    C.h.    MOV      r0,#0x3868
        0x0000d076:    f2c50002    ....    MOVT     r0,#0x5002
        0x0000d07a:    6840        @h      LDR      r0,[r0,#4]
        0x0000d07c:    f000003f    ..?.    AND      r0,r0,#0x3f
        0x0000d080:    e019        ..      B        0xd0b6 ; am_hal_pwrctrl_ldo_vddx_active_trim_adj_default + 116
        0x0000d082:    2400        .$      MOVS     r4,#0
        0x0000d084:    e029        ).      B        0xd0da ; am_hal_pwrctrl_ldo_vddx_active_trim_adj_default + 152
        0x0000d086:    2000        .       MOVS     r0,#0
        0x0000d088:    1901        ..      ADDS     r1,r0,r4
        0x0000d08a:    f24032ff    @..2    MOV      r2,#0x3ff
        0x0000d08e:    4291        .B      CMP      r1,r2
        0x0000d090:    f24033ff    @..3    MOV      r3,#0x3ff
        0x0000d094:    bf38        8.      IT       CC
        0x0000d096:    460b        .F      MOVCC    r3,r1
        0x0000d098:    2900        .)      CMP      r1,#0
        0x0000d09a:    f2400180    @...    MOVW     r1,#0x80
        0x0000d09e:    f2c40102    ....    MOVT     r1,#0x4002
        0x0000d0a2:    bf48        H.      IT       MI
        0x0000d0a4:    2300        .#      MOVMI    r3,#0
        0x0000d0a6:    680d        .h      LDR      r5,[r1,#0]
        0x0000d0a8:    1a1c        ..      SUBS     r4,r3,r0
        0x0000d0aa:    ea250002    %...    BIC      r0,r5,r2
        0x0000d0ae:    4318        .C      ORRS     r0,r0,r3
        0x0000d0b0:    6008        .`      STR      r0,[r1,#0]
        0x0000d0b2:    e012        ..      B        0xd0da ; am_hal_pwrctrl_ldo_vddx_active_trim_adj_default + 152
        0x0000d0b4:    2000        .       MOVS     r0,#0
        0x0000d0b6:    1901        ..      ADDS     r1,r0,r4
        0x0000d0b8:    293f        ?)      CMP      r1,#0x3f
        0x0000d0ba:    460a        .F      MOV      r2,r1
        0x0000d0bc:    bf28        (.      IT       CS
        0x0000d0be:    223f        ?"      MOVCS    r2,#0x3f
        0x0000d0c0:    2900        .)      CMP      r1,#0
        0x0000d0c2:    f2400180    @...    MOVW     r1,#0x80
        0x0000d0c6:    f2c40102    ....    MOVT     r1,#0x4002
        0x0000d0ca:    bf48        H.      IT       MI
        0x0000d0cc:    2200        ."      MOVMI    r2,#0
        0x0000d0ce:    688b        .h      LDR      r3,[r1,#8]
        0x0000d0d0:    1a14        ..      SUBS     r4,r2,r0
        0x0000d0d2:    f023003f    #.?.    BIC      r0,r3,#0x3f
        0x0000d0d6:    4310        .C      ORRS     r0,r0,r2
        0x0000d0d8:    6088        .`      STR      r0,[r1,#8]
        0x0000d0da:    f44f70a0    O..p    MOV      r0,#0x140
        0x0000d0de:    f7fffb57    ..W.    BL       am_hal_flash_delay ; 0xc790
        0x0000d0e2:    9801        ..      LDR      r0,[sp,#4]
        0x0000d0e4:    f7fffd12    ....    BL       am_hal_interrupt_master_set ; 0xcb0c
        0x0000d0e8:    4620         F      MOV      r0,r4
        0x0000d0ea:    b002        ..      ADD      sp,sp,#8
        0x0000d0ec:    bdb0        ..      POP      {r4,r5,r7,pc}
        0x0000d0ee:    0000        ..      MOVS     r0,r0
    am_hal_pwrctrl_periph_disable
        0x0000d0f0:    b5f0        ..      PUSH     {r4-r7,lr}
        0x0000d0f2:    b081        ..      SUB      sp,sp,#4
        0x0000d0f4:    f2410508    A...    MOV      r5,#0x1008
        0x0000d0f8:    4604        .F      MOV      r4,r0
        0x0000d0fa:    f2c40502    ....    MOVT     r5,#0x4002
        0x0000d0fe:    f7fffcfd    ....    BL       am_hal_interrupt_master_disable ; 0xcafc
        0x0000d102:    f24f0180    O...    MOV      r1,#0xf080
        0x0000d106:    9000        ..      STR      r0,[sp,#0]
        0x0000d108:    eb040044    ..D.    ADD      r0,r4,r4,LSL #1
        0x0000d10c:    f2c00100    ....    MOVT     r1,#0
        0x0000d110:    eb010680    ....    ADD      r6,r1,r0,LSL #2
        0x0000d114:    f8564b04    V..K    LDR      r4,[r6],#4
        0x0000d118:    6828        (h      LDR      r0,[r5,#0]
        0x0000d11a:    43a0        .C      BICS     r0,r0,r4
        0x0000d11c:    6028        (`      STR      r0,[r5,#0]
        0x0000d11e:    9800        ..      LDR      r0,[sp,#0]
        0x0000d120:    f7fffcf4    ....    BL       am_hal_interrupt_master_set ; 0xcb0c
        0x0000d124:    6836        6h      LDR      r6,[r6,#0]
        0x0000d126:    2700        .'      MOVS     r7,#0
        0x0000d128:    20a0        .       MOVS     r0,#0xa0
        0x0000d12a:    f7fffb31    ..1.    BL       am_hal_flash_delay ; 0xc790
        0x0000d12e:    6928        (i      LDR      r0,[r5,#0x10]
        0x0000d130:    4206        .B      TST      r6,r0
        0x0000d132:    d003        ..      BEQ      0xd13c ; am_hal_pwrctrl_periph_disable + 76
        0x0000d134:    2f0a        ./      CMP      r7,#0xa
        0x0000d136:    f107070a    ....    ADD      r7,r7,#0xa
        0x0000d13a:    d3f5        ..      BCC      0xd128 ; am_hal_pwrctrl_periph_disable + 56
        0x0000d13c:    6928        (i      LDR      r0,[r5,#0x10]
        0x0000d13e:    4206        .B      TST      r6,r0
        0x0000d140:    d00d        ..      BEQ      0xd15e ; am_hal_pwrctrl_periph_disable + 110
        0x0000d142:    6829        )h      LDR      r1,[r5,#0]
        0x0000d144:    2e0f        ..      CMP      r6,#0xf
        0x0000d146:    f04f0001    O...    MOV      r0,#1
        0x0000d14a:    dc0a        ..      BGT      0xd162 ; am_hal_pwrctrl_periph_disable + 114
        0x0000d14c:    2e04        ..      CMP      r6,#4
        0x0000d14e:    d015        ..      BEQ      0xd17c ; am_hal_pwrctrl_periph_disable + 140
        0x0000d150:    2e08        ..      CMP      r6,#8
        0x0000d152:    d111        ..      BNE      0xd178 ; am_hal_pwrctrl_periph_disable + 136
        0x0000d154:    f0110f0e    ....    TST      r1,#0xe
        0x0000d158:    d10a        ..      BNE      0xd170 ; am_hal_pwrctrl_periph_disable + 128
        0x0000d15a:    2001        .       MOVS     r0,#1
        0x0000d15c:    e00c        ..      B        0xd178 ; am_hal_pwrctrl_periph_disable + 136
        0x0000d15e:    2000        .       MOVS     r0,#0
        0x0000d160:    e00a        ..      B        0xd178 ; am_hal_pwrctrl_periph_disable + 136
        0x0000d162:    2e10        ..      CMP      r6,#0x10
        0x0000d164:    d00f        ..      BEQ      0xd186 ; am_hal_pwrctrl_periph_disable + 150
        0x0000d166:    2e40        @.      CMP      r6,#0x40
        0x0000d168:    d106        ..      BNE      0xd178 ; am_hal_pwrctrl_periph_disable + 136
        0x0000d16a:    f4115f60    ..`_    TST      r1,#0x3800
        0x0000d16e:    d0f4        ..      BEQ      0xd15a ; am_hal_pwrctrl_periph_disable + 106
        0x0000d170:    ea140001    ....    ANDS     r0,r4,r1
        0x0000d174:    bf18        ..      IT       NE
        0x0000d176:    2001        .       MOVNE    r0,#1
        0x0000d178:    b001        ..      ADD      sp,sp,#4
        0x0000d17a:    bdf0        ..      POP      {r4-r7,pc}
        0x0000d17c:    f2405081    @..P    MOV      r0,#0x581
        0x0000d180:    4201        .B      TST      r1,r0
        0x0000d182:    d1f5        ..      BNE      0xd170 ; am_hal_pwrctrl_periph_disable + 128
        0x0000d184:    e7e9        ..      B        0xd15a ; am_hal_pwrctrl_periph_disable + 106
        0x0000d186:    f0110f70    ..p.    TST      r1,#0x70
        0x0000d18a:    d1f1        ..      BNE      0xd170 ; am_hal_pwrctrl_periph_disable + 128
        0x0000d18c:    e7e5        ..      B        0xd15a ; am_hal_pwrctrl_periph_disable + 106
        0x0000d18e:    0000        ..      MOVS     r0,r0
    am_hal_pwrctrl_periph_enable
        0x0000d190:    b5f0        ..      PUSH     {r4-r7,lr}
        0x0000d192:    b083        ..      SUB      sp,sp,#0xc
        0x0000d194:    f2410508    A...    MOV      r5,#0x1008
        0x0000d198:    4604        .F      MOV      r4,r0
        0x0000d19a:    f2c40502    ....    MOVT     r5,#0x4002
        0x0000d19e:    f7fffcad    ....    BL       am_hal_interrupt_master_disable ; 0xcafc
        0x0000d1a2:    f24f0180    O...    MOV      r1,#0xf080
        0x0000d1a6:    9002        ..      STR      r0,[sp,#8]
        0x0000d1a8:    eb040044    ..D.    ADD      r0,r4,r4,LSL #1
        0x0000d1ac:    f2c00100    ....    MOVT     r1,#0
        0x0000d1b0:    eb010680    ....    ADD      r6,r1,r0,LSL #2
        0x0000d1b4:    f8564b04    V..K    LDR      r4,[r6],#4
        0x0000d1b8:    6828        (h      LDR      r0,[r5,#0]
        0x0000d1ba:    4320         C      ORRS     r0,r0,r4
        0x0000d1bc:    6028        (`      STR      r0,[r5,#0]
        0x0000d1be:    9802        ..      LDR      r0,[sp,#8]
        0x0000d1c0:    f7fffca4    ....    BL       am_hal_interrupt_master_set ; 0xcb0c
        0x0000d1c4:    6836        6h      LDR      r6,[r6,#0]
        0x0000d1c6:    2700        .'      MOVS     r7,#0
        0x0000d1c8:    20a0        .       MOVS     r0,#0xa0
        0x0000d1ca:    f7fffae1    ....    BL       am_hal_flash_delay ; 0xc790
        0x0000d1ce:    6928        (i      LDR      r0,[r5,#0x10]
        0x0000d1d0:    4206        .B      TST      r6,r0
        0x0000d1d2:    d103        ..      BNE      0xd1dc ; am_hal_pwrctrl_periph_enable + 76
        0x0000d1d4:    2f0a        ./      CMP      r7,#0xa
        0x0000d1d6:    f107070a    ....    ADD      r7,r7,#0xa
        0x0000d1da:    d3f5        ..      BCC      0xd1c8 ; am_hal_pwrctrl_periph_enable + 56
        0x0000d1dc:    6928        (i      LDR      r0,[r5,#0x10]
        0x0000d1de:    4206        .B      TST      r6,r0
        0x0000d1e0:    d001        ..      BEQ      0xd1e6 ; am_hal_pwrctrl_periph_enable + 86
        0x0000d1e2:    2000        .       MOVS     r0,#0
        0x0000d1e4:    e009        ..      B        0xd1fa ; am_hal_pwrctrl_periph_enable + 106
        0x0000d1e6:    f7fffc89    ....    BL       am_hal_interrupt_master_disable ; 0xcafc
        0x0000d1ea:    9001        ..      STR      r0,[sp,#4]
        0x0000d1ec:    6828        (h      LDR      r0,[r5,#0]
        0x0000d1ee:    43a0        .C      BICS     r0,r0,r4
        0x0000d1f0:    6028        (`      STR      r0,[r5,#0]
        0x0000d1f2:    9801        ..      LDR      r0,[sp,#4]
        0x0000d1f4:    f7fffc8a    ....    BL       am_hal_interrupt_master_set ; 0xcb0c
        0x0000d1f8:    2001        .       MOVS     r0,#1
        0x0000d1fa:    b003        ..      ADD      sp,sp,#0xc
        0x0000d1fc:    bdf0        ..      POP      {r4-r7,pc}
    am_hal_pwrctrl_simobuck_vddx_active_trim_adj_default
        0x0000d1fe:    b570        p.      PUSH     {r4-r6,lr}
        0x0000d200:    b082        ..      SUB      sp,sp,#8
        0x0000d202:    460c        .F      MOV      r4,r1
        0x0000d204:    4605        .F      MOV      r5,r0
        0x0000d206:    f7fff893    ....    BL       am_hal_burst_ldo_patch_check ; 0xc330
        0x0000d20a:    b1a0        ..      CBZ      r0,0xd236 ; am_hal_pwrctrl_simobuck_vddx_active_trim_adj_default + 56
        0x0000d20c:    f2403650    @.P6    MOVW     r6,#0x350
        0x0000d210:    f2c40602    ....    MOVT     r6,#0x4002
        0x0000d214:    f7fffc72    ..r.    BL       am_hal_interrupt_master_disable ; 0xcafc
        0x0000d218:    2d01        .-      CMP      r5,#1
        0x0000d21a:    9001        ..      STR      r0,[sp,#4]
        0x0000d21c:    d00d        ..      BEQ      0xd23a ; am_hal_pwrctrl_simobuck_vddx_active_trim_adj_default + 60
        0x0000d21e:    b9bd        ..      CBNZ     r5,0xd250 ; am_hal_pwrctrl_simobuck_vddx_active_trim_adj_default + 82
        0x0000d220:    f7fff886    ....    BL       am_hal_burst_ldo_patch_check ; 0xc330
        0x0000d224:    b1b0        ..      CBZ      r0,0xd254 ; am_hal_pwrctrl_simobuck_vddx_active_trim_adj_default + 86
        0x0000d226:    f6430070    C.p.    MOV      r0,#0x3870
        0x0000d22a:    f2c50002    ....    MOVT     r0,#0x5002
        0x0000d22e:    6801        .h      LDR      r1,[r0,#0]
        0x0000d230:    f36f219f    o..!    BFC      r1,#10,#22
        0x0000d234:    e00f        ..      B        0xd256 ; am_hal_pwrctrl_simobuck_vddx_active_trim_adj_default + 88
        0x0000d236:    2400        .$      MOVS     r4,#0
        0x0000d238:    e034        4.      B        0xd2a4 ; am_hal_pwrctrl_simobuck_vddx_active_trim_adj_default + 166
        0x0000d23a:    f7fff879    ..y.    BL       am_hal_burst_ldo_patch_check ; 0xc330
        0x0000d23e:    b1d0        ..      CBZ      r0,0xd276 ; am_hal_pwrctrl_simobuck_vddx_active_trim_adj_default + 120
        0x0000d240:    f6430070    C.p.    MOV      r0,#0x3870
        0x0000d244:    f2c50002    ....    MOVT     r0,#0x5002
        0x0000d248:    6800        .h      LDR      r0,[r0,#0]
        0x0000d24a:    f3c04005    ...@    UBFX     r0,r0,#16,#6
        0x0000d24e:    e013        ..      B        0xd278 ; am_hal_pwrctrl_simobuck_vddx_active_trim_adj_default + 122
        0x0000d250:    2400        .$      MOVS     r4,#0
        0x0000d252:    e020         .      B        0xd296 ; am_hal_pwrctrl_simobuck_vddx_active_trim_adj_default + 152
        0x0000d254:    2100        .!      MOVS     r1,#0
        0x0000d256:    190a        ..      ADDS     r2,r1,r4
        0x0000d258:    f24033ff    @..3    MOV      r3,#0x3ff
        0x0000d25c:    f24030ff    @..0    MOV      r0,#0x3ff
        0x0000d260:    429a        .B      CMP      r2,r3
        0x0000d262:    bf38        8.      IT       CC
        0x0000d264:    4610        .F      MOVCC    r0,r2
        0x0000d266:    2a00        .*      CMP      r2,#0
        0x0000d268:    bf48        H.      IT       MI
        0x0000d26a:    2000        .       MOVMI    r0,#0
        0x0000d26c:    6832        2h      LDR      r2,[r6,#0]
        0x0000d26e:    1a44        D.      SUBS     r4,r0,r1
        0x0000d270:    ea220103    "...    BIC      r1,r2,r3
        0x0000d274:    e00d        ..      B        0xd292 ; am_hal_pwrctrl_simobuck_vddx_active_trim_adj_default + 148
        0x0000d276:    2000        .       MOVS     r0,#0
        0x0000d278:    1901        ..      ADDS     r1,r0,r4
        0x0000d27a:    460a        .F      MOV      r2,r1
        0x0000d27c:    293f        ?)      CMP      r1,#0x3f
        0x0000d27e:    bf28        (.      IT       CS
        0x0000d280:    223f        ?"      MOVCS    r2,#0x3f
        0x0000d282:    2900        .)      CMP      r1,#0
        0x0000d284:    bf48        H.      IT       MI
        0x0000d286:    2200        ."      MOVMI    r2,#0
        0x0000d288:    6831        1h      LDR      r1,[r6,#0]
        0x0000d28a:    1a14        ..      SUBS     r4,r2,r0
        0x0000d28c:    0410        ..      LSLS     r0,r2,#16
        0x0000d28e:    f421117c    !.|.    BIC      r1,r1,#0x3f0000
        0x0000d292:    4308        .C      ORRS     r0,r0,r1
        0x0000d294:    6030        0`      STR      r0,[r6,#0]
        0x0000d296:    f44f70a0    O..p    MOV      r0,#0x140
        0x0000d29a:    f7fffa79    ..y.    BL       am_hal_flash_delay ; 0xc790
        0x0000d29e:    9801        ..      LDR      r0,[sp,#4]
        0x0000d2a0:    f7fffc34    ..4.    BL       am_hal_interrupt_master_set ; 0xcb0c
        0x0000d2a4:    4620         F      MOV      r0,r4
        0x0000d2a6:    b002        ..      ADD      sp,sp,#8
        0x0000d2a8:    bd70        p.      POP      {r4-r6,pc}
    am_hal_pwrctrl_wa_vddf_boost
        0x0000d2aa:    b580        ..      PUSH     {r7,lr}
        0x0000d2ac:    b082        ..      SUB      sp,sp,#8
        0x0000d2ae:    f7fffc25    ..%.    BL       am_hal_interrupt_master_disable ; 0xcafc
        0x0000d2b2:    9001        ..      STR      r0,[sp,#4]
        0x0000d2b4:    f2410024    A.$.    MOV      r0,#0x1024
        0x0000d2b8:    f2c40002    ....    MOVT     r0,#0x4002
        0x0000d2bc:    6800        .h      LDR      r0,[r0,#0]
        0x0000d2be:    07c0        ..      LSLS     r0,r0,#31
        0x0000d2c0:    d104        ..      BNE      0xd2cc ; am_hal_pwrctrl_wa_vddf_boost + 34
        0x0000d2c2:    2001        .       MOVS     r0,#1
        0x0000d2c4:    2103        .!      MOVS     r1,#3
        0x0000d2c6:    f7fffebc    ....    BL       am_hal_pwrctrl_ldo_vddx_active_trim_adj_default ; 0xd042
        0x0000d2ca:    e003        ..      B        0xd2d4 ; am_hal_pwrctrl_wa_vddf_boost + 42
        0x0000d2cc:    2001        .       MOVS     r0,#1
        0x0000d2ce:    2105        .!      MOVS     r1,#5
        0x0000d2d0:    f7ffff95    ....    BL       am_hal_pwrctrl_simobuck_vddx_active_trim_adj_default ; 0xd1fe
        0x0000d2d4:    f44f70a0    O..p    MOV      r0,#0x140
        0x0000d2d8:    f7fffa5a    ..Z.    BL       am_hal_flash_delay ; 0xc790
        0x0000d2dc:    9801        ..      LDR      r0,[sp,#4]
        0x0000d2de:    b002        ..      ADD      sp,sp,#8
        0x0000d2e0:    e8bd4080    ...@    POP      {r7,lr}
        0x0000d2e4:    f7ffbc12    ....    B.W      am_hal_interrupt_master_set ; 0xcb0c
    am_hal_pwrctrl_wa_vddf_restore
        0x0000d2e8:    b580        ..      PUSH     {r7,lr}
        0x0000d2ea:    b082        ..      SUB      sp,sp,#8
        0x0000d2ec:    f7fffc06    ....    BL       am_hal_interrupt_master_disable ; 0xcafc
        0x0000d2f0:    9001        ..      STR      r0,[sp,#4]
        0x0000d2f2:    f2410024    A.$.    MOV      r0,#0x1024
        0x0000d2f6:    f2c40002    ....    MOVT     r0,#0x4002
        0x0000d2fa:    6800        .h      LDR      r0,[r0,#0]
        0x0000d2fc:    07c0        ..      LSLS     r0,r0,#31
        0x0000d2fe:    d104        ..      BNE      0xd30a ; am_hal_pwrctrl_wa_vddf_restore + 34
        0x0000d300:    2001        .       MOVS     r0,#1
        0x0000d302:    2100        .!      MOVS     r1,#0
        0x0000d304:    f7fffe9d    ....    BL       am_hal_pwrctrl_ldo_vddx_active_trim_adj_default ; 0xd042
        0x0000d308:    e003        ..      B        0xd312 ; am_hal_pwrctrl_wa_vddf_restore + 42
        0x0000d30a:    2001        .       MOVS     r0,#1
        0x0000d30c:    2100        .!      MOVS     r1,#0
        0x0000d30e:    f7ffff76    ..v.    BL       am_hal_pwrctrl_simobuck_vddx_active_trim_adj_default ; 0xd1fe
        0x0000d312:    f44f70a0    O..p    MOV      r0,#0x140
        0x0000d316:    f7fffa3b    ..;.    BL       am_hal_flash_delay ; 0xc790
        0x0000d31a:    9801        ..      LDR      r0,[sp,#4]
        0x0000d31c:    b002        ..      ADD      sp,sp,#8
        0x0000d31e:    e8bd4080    ...@    POP      {r7,lr}
        0x0000d322:    f7ffbbf3    ....    B        am_hal_interrupt_master_set ; 0xcb0c
        0x0000d326:    0000        ..      MOVS     r0,r0
    am_hal_sysctrl_sleep
        0x0000d328:    b5b0        ..      PUSH     {r4,r5,r7,lr}
        0x0000d32a:    b082        ..      SUB      sp,sp,#8
        0x0000d32c:    4604        .F      MOV      r4,r0
        0x0000d32e:    f7fffbe5    ....    BL       am_hal_interrupt_master_disable ; 0xcafc
        0x0000d332:    9000        ..      STR      r0,[sp,#0]
        0x0000d334:    f2410098    A...    MOV      r0,#0x1098
        0x0000d338:    f2c10001    ....    MOVT     r0,#0x1001
        0x0000d33c:    6801        .h      LDR      r1,[r0,#0]
        0x0000d33e:    3101        .1      ADDS     r1,#1
        0x0000d340:    6001        .`      STR      r1,[r0,#0]
        0x0000d342:    f2440034    D.4.    MOV      r0,#0x4034
        0x0000d346:    f2c40000    ....    MOVT     r0,#0x4000
        0x0000d34a:    6800        .h      LDR      r0,[r0,#0]
        0x0000d34c:    f0100504    ....    ANDS     r5,r0,#4
        0x0000d350:    d00a        ..      BEQ      0xd368 ; am_hal_sysctrl_sleep + 64
        0x0000d352:    f10d0007    ....    ADD      r0,sp,#7
        0x0000d356:    f7fefff6    ....    BL       am_hal_burst_mode_disable ; 0xc346
        0x0000d35a:    bb08        ..      CBNZ     r0,0xd3a0 ; am_hal_sysctrl_sleep + 120
        0x0000d35c:    f89d0007    ....    LDRB     r0,[sp,#7]
        0x0000d360:    2801        .(      CMP      r0,#1
        0x0000d362:    d11d        ..      BNE      0xd3a0 ; am_hal_sysctrl_sleep + 120
        0x0000d364:    f7ffffc0    ....    BL       am_hal_pwrctrl_wa_vddf_restore ; 0xd2e8
        0x0000d368:    f64e5010    N..P    MOV      r0,#0xed10
        0x0000d36c:    f2ce0000    ....    MOVT     r0,#0xe000
        0x0000d370:    b1bc        ..      CBZ      r4,0xd3a2 ; am_hal_sysctrl_sleep + 122
        0x0000d372:    f2402150    @.P!    MOVW     r1,#0x250
        0x0000d376:    f2c40102    ....    MOVT     r1,#0x4002
        0x0000d37a:    6809        .h      LDR      r1,[r1,#0]
        0x0000d37c:    07c9        ..      LSLS     r1,r1,#31
        0x0000d37e:    d110        ..      BNE      0xd3a2 ; am_hal_sysctrl_sleep + 122
        0x0000d380:    f2410184    A...    MOV      r1,#0x1084
        0x0000d384:    f2c10101    ....    MOVT     r1,#0x1001
        0x0000d388:    680a        .h      LDR      r2,[r1,#0]
        0x0000d38a:    b92a        *.      CBNZ     r2,0xd398 ; am_hal_sysctrl_sleep + 112
        0x0000d38c:    f24f0200    O...    MOVW     r2,#0xf000
        0x0000d390:    f6c472ff    ...r    MOVT     r2,#0x4fff
        0x0000d394:    6812        .h      LDR      r2,[r2,#0]
        0x0000d396:    600a        .`      STR      r2,[r1,#0]
        0x0000d398:    6801        .h      LDR      r1,[r0,#0]
        0x0000d39a:    f0410104    A...    ORR      r1,r1,#4
        0x0000d39e:    e003        ..      B        0xd3a8 ; am_hal_sysctrl_sleep + 128
        0x0000d3a0:    e7fe        ..      B        0xd3a0 ; am_hal_sysctrl_sleep + 120
        0x0000d3a2:    6801        .h      LDR      r1,[r0,#0]
        0x0000d3a4:    f0210104    !...    BIC      r1,r1,#4
        0x0000d3a8:    6001        .`      STR      r1,[r0,#0]
        0x0000d3aa:    2000        .       MOVS     r0,#0
        0x0000d3ac:    f3bf8f4f    ..O.    DSB      
        0x0000d3b0:    f6c570ff    ...p    MOVT     r0,#0x5fff
        0x0000d3b4:    6800        .h      LDR      r0,[r0,#0]
        0x0000d3b6:    bf30        0.      WFI      
        0x0000d3b8:    f3bf8f6f    ..o.    ISB      
        0x0000d3bc:    b11d        ..      CBZ      r5,0xd3c6 ; am_hal_sysctrl_sleep + 158
        0x0000d3be:    f10d0007    ....    ADD      r0,sp,#7
        0x0000d3c2:    f7fff820    .. .    BL       am_hal_burst_mode_enable ; 0xc406
        0x0000d3c6:    9800        ..      LDR      r0,[sp,#0]
        0x0000d3c8:    f7fffba0    ....    BL       am_hal_interrupt_master_set ; 0xcb0c
        0x0000d3cc:    b002        ..      ADD      sp,sp,#8
        0x0000d3ce:    bdb0        ..      POP      {r4,r5,r7,pc}
    am_hal_tpiu_enable
        0x0000d3d0:    b570        p.      PUSH     {r4-r6,lr}
        0x0000d3d2:    b084        ..      SUB      sp,sp,#0x10
        0x0000d3d4:    6806        .h      LDR      r6,[r0,#0]
        0x0000d3d6:    f6407400    @..t    MOVW     r4,#0xf00
        0x0000d3da:    2504        .%      MOVS     r5,#4
        0x0000d3dc:    f2ce0404    ....    MOVT     r4,#0xe004
        0x0000d3e0:    f2ce0504    ....    MOVT     r5,#0xe004
        0x0000d3e4:    2200        ."      MOVS     r2,#0
        0x0000d3e6:    f8c52300    ...#    STR      r2,[r5,#0x300]
        0x0000d3ea:    b1ce        ..      CBZ      r6,0xd420 ; am_hal_tpiu_enable + 80
        0x0000d3ec:    2001        .       MOVS     r0,#1
        0x0000d3ee:    6028        (`      STR      r0,[r5,#0]
        0x0000d3f0:    a801        ..      ADD      r0,sp,#4
        0x0000d3f2:    f7fff9b1    ....    BL       am_hal_clkgen_status_get ; 0xc758
        0x0000d3f6:    9801        ..      LDR      r0,[sp,#4]
        0x0000d3f8:    1c41        A.      ADDS     r1,r0,#1
        0x0000d3fa:    d01f        ..      BEQ      0xd43c ; am_hal_tpiu_enable + 108
        0x0000d3fc:    f24a3280    J..2    MOV      r2,#0xa380
        0x0000d400:    f5a64161    ..aA    SUB      r1,r6,#0xe100
        0x0000d404:    f2c0021d    ....    MOVT     r2,#0x1d
        0x0000d408:    08c0        ..      LSRS     r0,r0,#3
        0x0000d40a:    4291        .B      CMP      r1,r2
        0x0000d40c:    bf84        ..      ITT      HI
        0x0000d40e:    f2442640    D.@&    MOVHI    r6,#0x4240
        0x0000d412:    f2c0060f    ....    MOVTHI   r6,#0xf
        0x0000d416:    fbb0f0f6    ....    UDIV     r0,r0,r6
        0x0000d41a:    3801        .8      SUBS     r0,#1
        0x0000d41c:    b280        ..      UXTH     r0,r0
        0x0000d41e:    e00e        ..      B        0xd43e ; am_hal_tpiu_enable + 110
        0x0000d420:    e9d01301    ....    LDRD     r1,r3,[r0,#4]
        0x0000d424:    e9d00603    ....    LDRD     r0,r6,[r0,#0xc]
        0x0000d428:    60ee        .`      STR      r6,[r5,#0xc]
        0x0000d42a:    f8c530ec    ...0    STR      r3,[r5,#0xec]
        0x0000d42e:    3801        .8      SUBS     r0,#1
        0x0000d430:    2301        .#      MOVS     r3,#1
        0x0000d432:    fa03f000    ....    LSL      r0,r3,r0
        0x0000d436:    6028        (`      STR      r0,[r5,#0]
        0x0000d438:    6022        "`      STR      r2,[r4,#0]
        0x0000d43a:    e008        ..      B        0xd44e ; am_hal_tpiu_enable + 126
        0x0000d43c:    2005        .       MOVS     r0,#5
        0x0000d43e:    60e8        .`      STR      r0,[r5,#0xc]
        0x0000d440:    2002        .       MOVS     r0,#2
        0x0000d442:    f8c500ec    ....    STR      r0,[r5,#0xec]
        0x0000d446:    2000        .       MOVS     r0,#0
        0x0000d448:    6020         `      STR      r0,[r4,#0]
        0x0000d44a:    f2402101    @..!    MOV      r1,#0x201
        0x0000d44e:    f2402050    @.P     MOVW     r0,#0x250
        0x0000d452:    f2c40002    ....    MOVT     r0,#0x4002
        0x0000d456:    6001        .`      STR      r1,[r0,#0]
        0x0000d458:    f44f7048    O.Hp    MOV      r0,#0x320
        0x0000d45c:    f7fff998    ....    BL       am_hal_flash_delay ; 0xc790
        0x0000d460:    b004        ..      ADD      sp,sp,#0x10
        0x0000d462:    bd70        p.      POP      {r4-r6,pc}
    am_pdm0_isr
        0x0000d464:    b5b0        ..      PUSH     {r4,r5,r7,lr}
        0x0000d466:    b082        ..      SUB      sp,sp,#8
        0x0000d468:    f2410480    A...    MOVW     r4,#0x1080
        0x0000d46c:    f2c10401    ....    MOVT     r4,#0x1001
        0x0000d470:    6820         h      LDR      r0,[r4,#0]
        0x0000d472:    a901        ..      ADD      r1,sp,#4
        0x0000d474:    2201        ."      MOVS     r2,#1
        0x0000d476:    2501        .%      MOVS     r5,#1
        0x0000d478:    f7fffd8f    ....    BL       am_hal_pdm_interrupt_status_get ; 0xcf9a
        0x0000d47c:    6820         h      LDR      r0,[r4,#0]
        0x0000d47e:    9901        ..      LDR      r1,[sp,#4]
        0x0000d480:    f7fffd63    ..c.    BL       am_hal_pdm_interrupt_clear ; 0xcf4a
        0x0000d484:    f89d0004    ....    LDRB     r0,[sp,#4]
        0x0000d488:    0700        ..      LSLS     r0,r0,#28
        0x0000d48a:    d507        ..      BPL      0xd49c ; am_pdm0_isr + 56
        0x0000d48c:    6820         h      LDR      r0,[r4,#0]
        0x0000d48e:    f7fffcb6    ....    BL       am_hal_pdm_disable ; 0xcdfe
        0x0000d492:    f241009e    A...    MOV      r0,#0x109e
        0x0000d496:    f2c10001    ....    MOVT     r0,#0x1001
        0x0000d49a:    7005        .p      STRB     r5,[r0,#0]
        0x0000d49c:    b002        ..      ADD      sp,sp,#8
        0x0000d49e:    bdb0        ..      POP      {r4,r5,r7,pc}
    am_util_delay_ms
        0x0000d4a0:    b510        ..      PUSH     {r4,lr}
        0x0000d4a2:    b084        ..      SUB      sp,sp,#0x10
        0x0000d4a4:    4604        .F      MOV      r4,r0
        0x0000d4a6:    a801        ..      ADD      r0,sp,#4
        0x0000d4a8:    f7fff956    ..V.    BL       am_hal_clkgen_status_get ; 0xc758
        0x0000d4ac:    9801        ..      LDR      r0,[sp,#4]
        0x0000d4ae:    f64111f1    A...    MOV      r1,#0x19f1
        0x0000d4b2:    f2c05176    ..vQ    MOVT     r1,#0x576
        0x0000d4b6:    fba00101    ....    UMULL    r0,r1,r0,r1
        0x0000d4ba:    0988        ..      LSRS     r0,r1,#6
        0x0000d4bc:    4360        `C      MULS     r0,r4,r0
        0x0000d4be:    f7fff967    ..g.    BL       am_hal_flash_delay ; 0xc790
        0x0000d4c2:    b004        ..      ADD      sp,sp,#0x10
        0x0000d4c4:    bd10        ..      POP      {r4,pc}
        0x0000d4c6:    0000        ..      MOVS     r0,r0
    am_util_faultisr_collect_data
        0x0000d4c8:    b092        ..      SUB      sp,sp,#0x48
        0x0000d4ca:    4604        .F      MOV      r4,r0
        0x0000d4cc:    4668        hF      MOV      r0,sp
        0x0000d4ce:    2118        .!      MOVS     r1,#0x18
        0x0000d4d0:    f7fefe8c    ....    BL       __aeabi_memclr4 ; 0xc1ec
        0x0000d4d4:    2500        .%      MOVS     r5,#0
        0x0000d4d6:    f64e5028    N.(P    MOV      r0,#0xed28
        0x0000d4da:    9507        ..      STR      r5,[sp,#0x1c]
        0x0000d4dc:    f2ce0000    ....    MOVT     r0,#0xe000
        0x0000d4e0:    6801        .h      LDR      r1,[r0,#0]
        0x0000d4e2:    9107        ..      STR      r1,[sp,#0x1c]
        0x0000d4e4:    9907        ..      LDR      r1,[sp,#0x1c]
        0x0000d4e6:    f88d101b    ....    STRB     r1,[sp,#0x1b]
        0x0000d4ea:    9907        ..      LDR      r1,[sp,#0x1c]
        0x0000d4ec:    0a09        ..      LSRS     r1,r1,#8
        0x0000d4ee:    f88d101a    ....    STRB     r1,[sp,#0x1a]
        0x0000d4f2:    9907        ..      LDR      r1,[sp,#0x1c]
        0x0000d4f4:    0c09        ..      LSRS     r1,r1,#16
        0x0000d4f6:    f8ad1018    ....    STRH     r1,[sp,#0x18]
        0x0000d4fa:    6900        .i      LDR      r0,[r0,#0x10]
        0x0000d4fc:    9008        ..      STR      r0,[sp,#0x20]
        0x0000d4fe:    f89d001a    ....    LDRB     r0,[sp,#0x1a]
        0x0000d502:    0780        ..      LSLS     r0,r0,#30
        0x0000d504:    d402        ..      BMI      0xd50c ; am_util_faultisr_collect_data + 68
        0x0000d506:    f04f30ff    O..0    MOV      r0,#0xffffffff
        0x0000d50a:    e003        ..      B        0xd514 ; am_util_faultisr_collect_data + 76
        0x0000d50c:    2006        .       MOVS     r0,#6
        0x0000d50e:    4621        !F      MOV      r1,r4
        0x0000d510:    f001fad3    ....    BL       getStackedReg ; 0xeaba
        0x0000d514:    9009        ..      STR      r0,[sp,#0x24]
        0x0000d516:    2000        .       MOVS     r0,#0
        0x0000d518:    4621        !F      MOV      r1,r4
        0x0000d51a:    f001face    ....    BL       getStackedReg ; 0xeaba
        0x0000d51e:    9011        ..      STR      r0,[sp,#0x44]
        0x0000d520:    2001        .       MOVS     r0,#1
        0x0000d522:    4621        !F      MOV      r1,r4
        0x0000d524:    f001fac9    ....    BL       getStackedReg ; 0xeaba
        0x0000d528:    9010        ..      STR      r0,[sp,#0x40]
        0x0000d52a:    2002        .       MOVS     r0,#2
        0x0000d52c:    4621        !F      MOV      r1,r4
        0x0000d52e:    f001fac4    ....    BL       getStackedReg ; 0xeaba
        0x0000d532:    900f        ..      STR      r0,[sp,#0x3c]
        0x0000d534:    2003        .       MOVS     r0,#3
        0x0000d536:    4621        !F      MOV      r1,r4
        0x0000d538:    f001fabf    ....    BL       getStackedReg ; 0xeaba
        0x0000d53c:    900e        ..      STR      r0,[sp,#0x38]
        0x0000d53e:    2004        .       MOVS     r0,#4
        0x0000d540:    4621        !F      MOV      r1,r4
        0x0000d542:    f001faba    ....    BL       getStackedReg ; 0xeaba
        0x0000d546:    900d        ..      STR      r0,[sp,#0x34]
        0x0000d548:    2005        .       MOVS     r0,#5
        0x0000d54a:    4621        !F      MOV      r1,r4
        0x0000d54c:    f001fab5    ....    BL       getStackedReg ; 0xeaba
        0x0000d550:    900c        ..      STR      r0,[sp,#0x30]
        0x0000d552:    2006        .       MOVS     r0,#6
        0x0000d554:    4621        !F      MOV      r1,r4
        0x0000d556:    f001fab0    ....    BL       getStackedReg ; 0xeaba
        0x0000d55a:    900b        ..      STR      r0,[sp,#0x2c]
        0x0000d55c:    2007        .       MOVS     r0,#7
        0x0000d55e:    4621        !F      MOV      r1,r4
        0x0000d560:    f001faab    ....    BL       getStackedReg ; 0xeaba
        0x0000d564:    900a        ..      STR      r0,[sp,#0x28]
        0x0000d566:    4669        iF      MOV      r1,sp
        0x0000d568:    2002        .       MOVS     r0,#2
        0x0000d56a:    f7fffb0c    ....    BL       am_hal_mcuctrl_info_get ; 0xcb86
        0x0000d56e:    f64f4016    O..@    MOV      r0,#0xfc16
        0x0000d572:    f2c00000    ....    MOVT     r0,#0
        0x0000d576:    f000f915    ....    BL       am_util_stdio_printf ; 0xd7a4
        0x0000d57a:    9911        ..      LDR      r1,[sp,#0x44]
        0x0000d57c:    f64f50a0    O..P    MOV      r0,#0xfda0
        0x0000d580:    f2c00000    ....    MOVT     r0,#0
        0x0000d584:    f000f90e    ....    BL       am_util_stdio_printf ; 0xd7a4
        0x0000d588:    9910        ..      LDR      r1,[sp,#0x40]
        0x0000d58a:    f64f50b2    O..P    MOV      r0,#0xfdb2
        0x0000d58e:    f2c00000    ....    MOVT     r0,#0
        0x0000d592:    f000f907    ....    BL       am_util_stdio_printf ; 0xd7a4
        0x0000d596:    990f        ..      LDR      r1,[sp,#0x3c]
        0x0000d598:    f64f50c4    O..P    MOV      r0,#0xfdc4
        0x0000d59c:    f2c00000    ....    MOVT     r0,#0
        0x0000d5a0:    f000f900    ....    BL       am_util_stdio_printf ; 0xd7a4
        0x0000d5a4:    990e        ..      LDR      r1,[sp,#0x38]
        0x0000d5a6:    f64f50d6    O..P    MOV      r0,#0xfdd6
        0x0000d5aa:    f2c00000    ....    MOVT     r0,#0
        0x0000d5ae:    f000f8f9    ....    BL       am_util_stdio_printf ; 0xd7a4
        0x0000d5b2:    990d        ..      LDR      r1,[sp,#0x34]
        0x0000d5b4:    f64f6034    O.4`    MOV      r0,#0xfe34
        0x0000d5b8:    f2c00000    ....    MOVT     r0,#0
        0x0000d5bc:    f000f8f2    ....    BL       am_util_stdio_printf ; 0xd7a4
        0x0000d5c0:    990c        ..      LDR      r1,[sp,#0x30]
        0x0000d5c2:    f64f50fa    O..P    MOV      r0,#0xfdfa
        0x0000d5c6:    f2c00000    ....    MOVT     r0,#0
        0x0000d5ca:    f000f8eb    ....    BL       am_util_stdio_printf ; 0xd7a4
        0x0000d5ce:    990b        ..      LDR      r1,[sp,#0x2c]
        0x0000d5d0:    f64f50e8    O..P    MOV      r0,#0xfde8
        0x0000d5d4:    f2c00000    ....    MOVT     r0,#0
        0x0000d5d8:    f000f8e4    ....    BL       am_util_stdio_printf ; 0xd7a4
        0x0000d5dc:    990a        ..      LDR      r1,[sp,#0x28]
        0x0000d5de:    f64f6046    O.F`    MOV      r0,#0xfe46
        0x0000d5e2:    f2c00000    ....    MOVT     r0,#0
        0x0000d5e6:    f000f8dd    ....    BL       am_util_stdio_printf ; 0xd7a4
        0x0000d5ea:    f64f4041    O.A@    MOV      r0,#0xfc41
        0x0000d5ee:    f2c00000    ....    MOVT     r0,#0
        0x0000d5f2:    f000f8d7    ....    BL       am_util_stdio_printf ; 0xd7a4
        0x0000d5f6:    9909        ..      LDR      r1,[sp,#0x24]
        0x0000d5f8:    f64f6058    O.X`    MOV      r0,#0xfe58
        0x0000d5fc:    f2c00000    ....    MOVT     r0,#0
        0x0000d600:    f000f8d0    ....    BL       am_util_stdio_printf ; 0xd7a4
        0x0000d604:    9908        ..      LDR      r1,[sp,#0x20]
        0x0000d606:    f64f600c    O..`    MOV      r0,#0xfe0c
        0x0000d60a:    f2c00000    ....    MOVT     r0,#0
        0x0000d60e:    f000f8c9    ....    BL       am_util_stdio_printf ; 0xd7a4
        0x0000d612:    f89d101b    ....    LDRB     r1,[sp,#0x1b]
        0x0000d616:    a041        A.      ADR      r0,{pc}+0x106 ; 0xd71c
        0x0000d618:    f000f8c4    ....    BL       am_util_stdio_printf ; 0xd7a4
        0x0000d61c:    f89d101a    ....    LDRB     r1,[sp,#0x1a]
        0x0000d620:    a04a        J.      ADR      r0,{pc}+0x12c ; 0xd74c
        0x0000d622:    f000f8bf    ....    BL       am_util_stdio_printf ; 0xd7a4
        0x0000d626:    f8bd1018    ....    LDRH     r1,[sp,#0x18]
        0x0000d62a:    a053        S.      ADR      r0,{pc}+0x14e ; 0xd778
        0x0000d62c:    f000f8ba    ....    BL       am_util_stdio_printf ; 0xd7a4
        0x0000d630:    f64f4676    O.vF    MOV      r6,#0xfc76
        0x0000d634:    f64f5a06    O..Z    MOV      r10,#0xfd06
        0x0000d638:    f64f47ce    O..G    MOV      r7,#0xfcce
        0x0000d63c:    f64f4bb3    O..K    MOV      r11,#0xfcb3
        0x0000d640:    f64f48eb    O..H    MOV      r8,#0xfceb
        0x0000d644:    f64f4959    O.YI    MOV      r9,#0xfc59
        0x0000d648:    2480        .$      MOVS     r4,#0x80
        0x0000d64a:    f2c00600    ....    MOVT     r6,#0
        0x0000d64e:    f2c00a00    ....    MOVT     r10,#0
        0x0000d652:    f2c00700    ....    MOVT     r7,#0
        0x0000d656:    f2c00b00    ....    MOVT     r11,#0
        0x0000d65a:    f2c00800    ....    MOVT     r8,#0
        0x0000d65e:    f2c00900    ....    MOVT     r9,#0
        0x0000d662:    bf00        ..      NOP      
        0x0000d664:    f89d001a    ....    LDRB     r0,[sp,#0x1a]
        0x0000d668:    4020         @      ANDS     r0,r0,r4
        0x0000d66a:    b2c1        ..      UXTB     r1,r0
        0x0000d66c:    290f        .)      CMP      r1,#0xf
        0x0000d66e:    dc0d        ..      BGT      0xd68c ; am_util_faultisr_collect_data + 452
        0x0000d670:    1e48        H.      SUBS     r0,r1,#1
        0x0000d672:    2807        .(      CMP      r0,#7
        0x0000d674:    d826        &.      BHI      0xd6c4 ; am_util_faultisr_collect_data + 508
        0x0000d676:    e8dff000    ....    TBB      [pc,r0]
    $d.3
        0x0000d67a:    1804        ..      DCW    6148
        0x0000d67c:    25251d25    %.%%    DCD    623189285
        0x0000d680:    1f25        %.      DCW    7973
    $t.4
        0x0000d682:    f64f5026    O.&P    MOV      r0,#0xfd26
        0x0000d686:    f2c00000    ....    MOVT     r0,#0
        0x0000d68a:    e019        ..      B        0xd6c0 ; am_util_faultisr_collect_data + 504
        0x0000d68c:    293f        ?)      CMP      r1,#0x3f
        0x0000d68e:    dc05        ..      BGT      0xd69c ; am_util_faultisr_collect_data + 468
        0x0000d690:    2910        .)      CMP      r1,#0x10
        0x0000d692:    d013        ..      BEQ      0xd6bc ; am_util_faultisr_collect_data + 500
        0x0000d694:    2920         )      CMP      r1,#0x20
        0x0000d696:    d115        ..      BNE      0xd6c4 ; am_util_faultisr_collect_data + 508
        0x0000d698:    4640        @F      MOV      r0,r8
        0x0000d69a:    e011        ..      B        0xd6c0 ; am_util_faultisr_collect_data + 504
        0x0000d69c:    2980        .)      CMP      r1,#0x80
        0x0000d69e:    4630        0F      MOV      r0,r6
        0x0000d6a0:    d00e        ..      BEQ      0xd6c0 ; am_util_faultisr_collect_data + 504
        0x0000d6a2:    2940        @)      CMP      r1,#0x40
        0x0000d6a4:    d10e        ..      BNE      0xd6c4 ; am_util_faultisr_collect_data + 508
        0x0000d6a6:    4648        HF      MOV      r0,r9
        0x0000d6a8:    e00a        ..      B        0xd6c0 ; am_util_faultisr_collect_data + 504
        0x0000d6aa:    f64f4094    O..@    MOV      r0,#0xfc94
        0x0000d6ae:    f2c00000    ....    MOVT     r0,#0
        0x0000d6b2:    e005        ..      B        0xd6c0 ; am_util_faultisr_collect_data + 504
        0x0000d6b4:    4650        PF      MOV      r0,r10
        0x0000d6b6:    e003        ..      B        0xd6c0 ; am_util_faultisr_collect_data + 504
        0x0000d6b8:    4638        8F      MOV      r0,r7
        0x0000d6ba:    e001        ..      B        0xd6c0 ; am_util_faultisr_collect_data + 504
        0x0000d6bc:    4658        XF      MOV      r0,r11
        0x0000d6be:    bf00        ..      NOP      
        0x0000d6c0:    f000f870    ..p.    BL       am_util_stdio_printf ; 0xd7a4
        0x0000d6c4:    ebb50f54    ..T.    CMP      r5,r4,LSR #1
        0x0000d6c8:    ea4f0454    O.T.    LSR      r4,r4,#1
        0x0000d6cc:    d1ca        ..      BNE      0xd664 ; am_util_faultisr_collect_data + 412
        0x0000d6ce:    f64f4030    O.0@    MOV      r0,#0xfc30
        0x0000d6d2:    f2c00000    ....    MOVT     r0,#0
        0x0000d6d6:    f000f865    ..e.    BL       am_util_stdio_printf ; 0xd7a4
        0x0000d6da:    f89d0000    ....    LDRB     r0,[sp,#0]
        0x0000d6de:    b130        0.      CBZ      r0,0xd6ee ; am_util_faultisr_collect_data + 550
        0x0000d6e0:    9901        ..      LDR      r1,[sp,#4]
        0x0000d6e2:    f64f5062    O.bP    MOV      r0,#0xfd62
        0x0000d6e6:    f2c00000    ....    MOVT     r0,#0
        0x0000d6ea:    f000f85b    ..[.    BL       am_util_stdio_printf ; 0xd7a4
        0x0000d6ee:    f89d0008    ....    LDRB     r0,[sp,#8]
        0x0000d6f2:    b130        0.      CBZ      r0,0xd702 ; am_util_faultisr_collect_data + 570
        0x0000d6f4:    9903        ..      LDR      r1,[sp,#0xc]
        0x0000d6f6:    f64f5042    O.BP    MOV      r0,#0xfd42
        0x0000d6fa:    f2c00000    ....    MOVT     r0,#0
        0x0000d6fe:    f000f851    ..Q.    BL       am_util_stdio_printf ; 0xd7a4
        0x0000d702:    f89d0010    ....    LDRB     r0,[sp,#0x10]
        0x0000d706:    b138        8.      CBZ      r0,0xd718 ; am_util_faultisr_collect_data + 592
        0x0000d708:    9905        ..      LDR      r1,[sp,#0x14]
        0x0000d70a:    f64f5082    O..P    MOV      r0,#0xfd82
        0x0000d70e:    f2c00000    ....    MOVT     r0,#0
        0x0000d712:    f000f847    ..G.    BL       am_util_stdio_printf ; 0xd7a4
        0x0000d716:    bf00        ..      NOP      
        0x0000d718:    e7fe        ..      B        0xd718 ; am_util_faultisr_collect_data + 592
        0x0000d71a:    bf00        ..      NOP      
    $d.5
        0x0000d71c:    20202020            DCD    538976288
        0x0000d720:    52534d4d    MMSR    DCD    1381190989
        0x0000d724:    654d2820     (Me    DCD    1699555360
        0x0000d728:    674d206d    m Mg    DCD    1733107821
        0x0000d72c:    4620746d    mt F    DCD    1176532077
        0x0000d730:    746c7561    ault    DCD    1953264993
        0x0000d734:    61745320     Sta    DCD    1635013408
        0x0000d738:    20737574    tus     DCD    544437620
        0x0000d73c:    29676552    Reg)    DCD    694642002
        0x0000d740:    30203d20     = 0    DCD    807419168
        0x0000d744:    32302578    x%02    DCD    842016120
        0x0000d748:    00000a58    X...    DCD    2648
        0x0000d74c:    20202020            DCD    538976288
        0x0000d750:    52534642    BFSR    DCD    1381189186
        0x0000d754:    75422820     (Bu    DCD    1967269920
        0x0000d758:    61462073    s Fa    DCD    1631985779
        0x0000d75c:    20746c75    ult     DCD    544500853
        0x0000d760:    74617453    Stat    DCD    1952543827
        0x0000d764:    52207375    us R    DCD    1377858421
        0x0000d768:    20296765    eg)     DCD    539584357
        0x0000d76c:    7830203d    = 0x    DCD    2016419901
        0x0000d770:    58323025    %02X    DCD    1479684133
        0x0000d774:    0000000a    ....    DCD    10
        0x0000d778:    20202020            DCD    538976288
        0x0000d77c:    52534655    UFSR    DCD    1381189205
        0x0000d780:    73552820     (Us    DCD    1934960672
        0x0000d784:    20656761    age     DCD    543516513
        0x0000d788:    6c756146    Faul    DCD    1819631942
        0x0000d78c:    74532074    t St    DCD    1951604852
        0x0000d790:    73757461    atus    DCD    1937077345
        0x0000d794:    67655220     Reg    DCD    1734693408
        0x0000d798:    203d2029    ) =     DCD    540876841
        0x0000d79c:    30257830    0x%0    DCD    807761968
        0x0000d7a0:    000a5834    4X..    DCD    677940
    $t.9
    am_util_stdio_printf
        0x0000d7a4:    b083        ..      SUB      sp,sp,#0xc
        0x0000d7a6:    b5b0        ..      PUSH     {r4,r5,r7,lr}
        0x0000d7a8:    b081        ..      SUB      sp,sp,#4
        0x0000d7aa:    f10d0c14    ....    ADD      r12,sp,#0x14
        0x0000d7ae:    f24104a0    A...    MOVW     r4,#0x10a0
        0x0000d7b2:    e88c000e    ....    STM      r12,{r1-r3}
        0x0000d7b6:    f2c10402    ....    MOVT     r4,#0x1002
        0x0000d7ba:    6821        !h      LDR      r1,[r4,#0]
        0x0000d7bc:    b171        q.      CBZ      r1,0xd7dc ; am_util_stdio_printf + 56
        0x0000d7be:    f24105a4    A...    MOV      r5,#0x10a4
        0x0000d7c2:    f2c10502    ....    MOVT     r5,#0x1002
        0x0000d7c6:    4601        .F      MOV      r1,r0
        0x0000d7c8:    aa05        ..      ADD      r2,sp,#0x14
        0x0000d7ca:    4628        (F      MOV      r0,r5
        0x0000d7cc:    9200        ..      STR      r2,[sp,#0]
        0x0000d7ce:    f000f821    ..!.    BL       am_util_stdio_vsprintf ; 0xd814
        0x0000d7d2:    6821        !h      LDR      r1,[r4,#0]
        0x0000d7d4:    4604        .F      MOV      r4,r0
        0x0000d7d6:    4628        (F      MOV      r0,r5
        0x0000d7d8:    4788        .G      BLX      r1
        0x0000d7da:    e000        ..      B        0xd7de ; am_util_stdio_printf + 58
        0x0000d7dc:    2400        .$      MOVS     r4,#0
        0x0000d7de:    4620         F      MOV      r0,r4
        0x0000d7e0:    b001        ..      ADD      sp,sp,#4
        0x0000d7e2:    e8bd40b0    ...@    POP      {r4,r5,r7,lr}
        0x0000d7e6:    b003        ..      ADD      sp,sp,#0xc
        0x0000d7e8:    4770        pG      BX       lr
    am_util_stdio_printf_init
        0x0000d7ea:    f24101a0    A...    MOVW     r1,#0x10a0
        0x0000d7ee:    f2c10102    ....    MOVT     r1,#0x1002
        0x0000d7f2:    6008        .`      STR      r0,[r1,#0]
        0x0000d7f4:    4770        pG      BX       lr
        0x0000d7f6:    0000        ..      MOVS     r0,r0
    am_util_stdio_terminal_clear
        0x0000d7f8:    a001        ..      ADR      r0,{pc}+8 ; 0xd800
        0x0000d7fa:    f7ffbfd3    ....    B.W      am_util_stdio_printf ; 0xd7a4
        0x0000d7fe:    bf00        ..      NOP      
    $d.14
        0x0000d800:    0a0a0a0a    ....    DCD    168430090
        0x0000d804:    0a0a0a0a    ....    DCD    168430090
        0x0000d808:    0a0a0a0a    ....    DCD    168430090
        0x0000d80c:    0a0a0a0a    ....    DCD    168430090
        0x0000d810:    00000a0a    ....    DCD    2570
    $t.3
    am_util_stdio_vsprintf
        0x0000d814:    e92d4ff0    -..O    PUSH     {r4-r11,lr}
        0x0000d818:    b08b        ..      SUB      sp,sp,#0x2c
        0x0000d81a:    4683        .F      MOV      r11,r0
        0x0000d81c:    a806        ..      ADD      r0,sp,#0x18
        0x0000d81e:    f241089f    A...    MOV      r8,#0x109f
        0x0000d822:    4617        .F      MOV      r7,r2
        0x0000d824:    1e46        F.      SUBS     r6,r0,#1
        0x0000d826:    f10d0914    ....    ADD      r9,sp,#0x14
        0x0000d82a:    f2c10801    ....    MOVT     r8,#0x1001
        0x0000d82e:    240d        .$      MOVS     r4,#0xd
        0x0000d830:    2500        .%      MOVS     r5,#0
        0x0000d832:    1c48        H.      ADDS     r0,r1,#1
        0x0000d834:    f8101c01    ....    LDRB     r1,[r0,#-1]
        0x0000d838:    2900        .)      CMP      r1,#0
        0x0000d83a:    f000836b    ..k.    BEQ.W    0xdf14 ; am_util_stdio_vsprintf + 1792
        0x0000d83e:    2925        %)      CMP      r1,#0x25
        0x0000d840:    d016        ..      BEQ      0xd870 ; am_util_stdio_vsprintf + 92
        0x0000d842:    f1bb0f00    ....    CMP      r11,#0
        0x0000d846:    d00d        ..      BEQ      0xd864 ; am_util_stdio_vsprintf + 80
        0x0000d848:    290a        .)      CMP      r1,#0xa
        0x0000d84a:    d107        ..      BNE      0xd85c ; am_util_stdio_vsprintf + 72
        0x0000d84c:    f8982000    ...     LDRB     r2,[r8,#0]
        0x0000d850:    b122        ".      CBZ      r2,0xd85c ; am_util_stdio_vsprintf + 72
        0x0000d852:    f80b4b01    ...K    STRB     r4,[r11],#1
        0x0000d856:    f8101c01    ....    LDRB     r1,[r0,#-1]
        0x0000d85a:    3501        .5      ADDS     r5,#1
        0x0000d85c:    f80b1b01    ....    STRB     r1,[r11],#1
        0x0000d860:    e002        ..      B        0xd868 ; am_util_stdio_vsprintf + 84
        0x0000d862:    bf00        ..      NOP      
        0x0000d864:    f04f0b00    O...    MOV      r11,#0
        0x0000d868:    3501        .5      ADDS     r5,#1
        0x0000d86a:    3001        .0      ADDS     r0,#1
        0x0000d86c:    e7e2        ..      B        0xd834 ; am_util_stdio_vsprintf + 32
        0x0000d86e:    bf00        ..      NOP      
        0x0000d870:    4604        .F      MOV      r4,r0
        0x0000d872:    f814ab01    ....    LDRB     r10,[r4],#1
        0x0000d876:    9604        ..      STR      r6,[sp,#0x10]
        0x0000d878:    46d0        .F      MOV      r8,r10
        0x0000d87a:    f1ba0f30    ..0.    CMP      r10,#0x30
        0x0000d87e:    bf1c        ..      ITT      NE
        0x0000d880:    4604        .F      MOVNE    r4,r0
        0x0000d882:    f04f0820    O. .    MOVNE    r8,#0x20
        0x0000d886:    4620         F      MOV      r0,r4
        0x0000d888:    4649        IF      MOV      r1,r9
        0x0000d88a:    f001f88b    ....    BL       decstr_to_int ; 0xe9a4
        0x0000d88e:    9a05        ..      LDR      r2,[sp,#0x14]
        0x0000d890:    4649        IF      MOV      r1,r9
        0x0000d892:    5ca6        .\      LDRB     r6,[r4,r2]
        0x0000d894:    4681        .F      MOV      r9,r0
        0x0000d896:    2e73        s.      CMP      r6,#0x73
        0x0000d898:    bf18        ..      IT       NE
        0x0000d89a:    f1c90900    ....    RSBNE    r9,r9,#0
        0x0000d89e:    2800        .(      CMP      r0,#0
        0x0000d8a0:    bf58        X.      IT       PL
        0x0000d8a2:    4681        .F      MOVPL    r9,r0
        0x0000d8a4:    2e2e        ..      CMP      r6,#0x2e
        0x0000d8a6:    eb040c02    ....    ADD      r12,r4,r2
        0x0000d8aa:    d10b        ..      BNE      0xd8c4 ; am_util_stdio_vsprintf + 176
        0x0000d8ac:    463c        <F      MOV      r4,r7
        0x0000d8ae:    f10c0701    ....    ADD      r7,r12,#1
        0x0000d8b2:    4638        8F      MOV      r0,r7
        0x0000d8b4:    f001f876    ..v.    BL       decstr_to_int ; 0xe9a4
        0x0000d8b8:    9a05        ..      LDR      r2,[sp,#0x14]
        0x0000d8ba:    5cbe        .\      LDRB     r6,[r7,r2]
        0x0000d8bc:    eb070c02    ....    ADD      r12,r7,r2
        0x0000d8c0:    4627        'F      MOV      r7,r4
        0x0000d8c2:    e000        ..      B        0xd8c6 ; am_util_stdio_vsprintf + 178
        0x0000d8c4:    2006        .       MOVS     r0,#6
        0x0000d8c6:    2e6c        l.      CMP      r6,#0x6c
        0x0000d8c8:    d112        ..      BNE      0xd8f0 ; am_util_stdio_vsprintf + 220
        0x0000d8ca:    4663        cF      MOV      r3,r12
        0x0000d8cc:    f8131f01    ....    LDRB     r1,[r3,#1]!
        0x0000d8d0:    396c        l9      SUBS     r1,r1,#0x6c
        0x0000d8d2:    fab1f181    ....    CLZ      r1,r1
        0x0000d8d6:    ea4f1251    O.Q.    LSR      r2,r1,#5
        0x0000d8da:    f04f0101    O...    MOV      r1,#1
        0x0000d8de:    bf04        ..      ITT      EQ
        0x0000d8e0:    2102        .!      MOVEQ    r1,#2
        0x0000d8e2:    f10c0302    ....    ADDEQ    r3,r12,#2
        0x0000d8e6:    f81c6001    ...`    LDRB     r6,[r12,r1]
        0x0000d8ea:    469c        .F      MOV      r12,r3
        0x0000d8ec:    e001        ..      B        0xd8f2 ; am_util_stdio_vsprintf + 222
        0x0000d8ee:    bf00        ..      NOP      
        0x0000d8f0:    2200        ."      MOVS     r2,#0
        0x0000d8f2:    2e72        r.      CMP      r6,#0x72
        0x0000d8f4:    dc13        ..      BGT      0xd91e ; am_util_stdio_vsprintf + 266
        0x0000d8f6:    f1a60163    ..c.    SUB      r1,r6,#0x63
        0x0000d8fa:    2906        .)      CMP      r1,#6
        0x0000d8fc:    d81c        ..      BHI      0xd938 ; am_util_stdio_vsprintf + 292
        0x0000d8fe:    e8dff001    ....    TBB      [pc,r1]
    $d.4
        0x0000d902:    0480        ..      DCW    1152
        0x0000d904:    70702f70    p/pp    DCD    1886400368
        0x0000d908:    0004        ..      DCW    4
    $t.5
        0x0000d90a:    2a00        .*      CMP      r2,#0
        0x0000d90c:    f000808c    ....    BEQ.W    0xda28 ; am_util_stdio_vsprintf + 532
        0x0000d910:    1df8        ..      ADDS     r0,r7,#7
        0x0000d912:    f0200707     ...    BIC      r7,r0,#7
        0x0000d916:    687c        |h      LDR      r4,[r7,#4]
        0x0000d918:    f8570b08    W...    LDR      r0,[r7],#8
        0x0000d91c:    e087        ..      B        0xda2e ; am_util_stdio_vsprintf + 538
        0x0000d91e:    2e73        s.      CMP      r6,#0x73
        0x0000d920:    f00080a2    ....    BEQ.W    0xda68 ; am_util_stdio_vsprintf + 596
        0x0000d924:    2e75        u.      CMP      r6,#0x75
        0x0000d926:    f00080b5    ....    BEQ.W    0xda94 ; am_util_stdio_vsprintf + 640
        0x0000d92a:    2e78        x.      CMP      r6,#0x78
        0x0000d92c:    d159        Y.      BNE      0xd9e2 ; am_util_stdio_vsprintf + 462
        0x0000d92e:    f8cdc00c    ....    STR      r12,[sp,#0xc]
        0x0000d932:    f04f0c27    O.'.    MOV      r12,#0x27
        0x0000d936:    e007        ..      B        0xd948 ; am_util_stdio_vsprintf + 308
        0x0000d938:    2e46        F.      CMP      r6,#0x46
        0x0000d93a:    d011        ..      BEQ      0xd960 ; am_util_stdio_vsprintf + 332
        0x0000d93c:    2e58        X.      CMP      r6,#0x58
        0x0000d93e:    d150        P.      BNE      0xd9e2 ; am_util_stdio_vsprintf + 462
        0x0000d940:    f8cdc00c    ....    STR      r12,[sp,#0xc]
        0x0000d944:    f04f0c07    O...    MOV      r12,#7
        0x0000d948:    f8dde010    ....    LDR      lr,[sp,#0x10]
        0x0000d94c:    2a00        .*      CMP      r2,#0
        0x0000d94e:    f00080ab    ....    BEQ.W    0xdaa8 ; am_util_stdio_vsprintf + 660
        0x0000d952:    1df9        ..      ADDS     r1,r7,#7
        0x0000d954:    f0210707    !...    BIC      r7,r1,#7
        0x0000d958:    687c        |h      LDR      r4,[r7,#4]
        0x0000d95a:    f8571b08    W...    LDR      r1,[r7],#8
        0x0000d95e:    e0a6        ..      B        0xdaae ; am_util_stdio_vsprintf + 666
        0x0000d960:    f1bb0f00    ....    CMP      r11,#0
        0x0000d964:    f00080c4    ....    BEQ.W    0xdaf0 ; am_util_stdio_vsprintf + 732
        0x0000d968:    4604        .F      MOV      r4,r0
        0x0000d96a:    1df8        ..      ADDS     r0,r7,#7
        0x0000d96c:    f0200807     ...    BIC      r8,r0,#7
        0x0000d970:    ed980b00    ....    VLDR     d0,[r8,#0]
        0x0000d974:    46e1        .F      MOV      r9,r12
        0x0000d976:    ec510b10    Q...    VMOV     r0,r1,d0
        0x0000d97a:    f001fa6f    ..o.    BL       __aeabi_d2f ; 0xee5c
        0x0000d97e:    2114        .!      MOVS     r1,#0x14
        0x0000d980:    f8cb1000    ....    STR      r1,[r11,#0]
        0x0000d984:    f6426123    B.#a    MOV      r1,#0x2e23
        0x0000d988:    ee000a10    ....    VMOV     s0,r0
        0x0000d98c:    f2c00123    ..#.    MOVT     r1,#0x23
        0x0000d990:    f1011e0d    ....    ADD      lr,r1,#0xd000d
        0x0000d994:    eeb50a40    ..@.    VCMP.F32 s0,#0.0
        0x0000d998:    f64f76fe    O..v    MOV      r6,#0xfffe
        0x0000d99c:    46cc        .F      MOV      r12,r9
        0x0000d99e:    eef1fa10    ....    VMRS     APSR_nzcv,FPSCR
        0x0000d9a2:    4671        qF      MOV      r1,lr
        0x0000d9a4:    f2c006ff    ....    MOVT     r6,#0xff
        0x0000d9a8:    f000829f    ....    BEQ.W    0xdeea ; am_util_stdio_vsprintf + 1750
        0x0000d9ac:    f3c052c7    ...R    UBFX     r2,r0,#23,#8
        0x0000d9b0:    f6426123    B.#a    MOV      r1,#0x2e23
        0x0000d9b4:    2a9d        .*      CMP      r2,#0x9d
        0x0000d9b6:    f2c00123    ..#.    MOVT     r1,#0x23
        0x0000d9ba:    f2008296    ....    BHI.W    0xdeea ; am_util_stdio_vsprintf + 1750
        0x0000d9be:    2a68        h*      CMP      r2,#0x68
        0x0000d9c0:    4671        qF      MOV      r1,lr
        0x0000d9c2:    f0c08292    ....    BCC.W    0xdeea ; am_util_stdio_vsprintf + 1750
        0x0000d9c6:    4603        .F      MOV      r3,r0
        0x0000d9c8:    2101        .!      MOVS     r1,#1
        0x0000d9ca:    2a96        .*      CMP      r2,#0x96
        0x0000d9cc:    f36153df    a..S    BFI      r3,r1,#23,#9
        0x0000d9d0:    f0c08209    ....    BCC.W    0xdde6 ; am_util_stdio_vsprintf + 1490
        0x0000d9d4:    f1a20196    ....    SUB      r1,r2,#0x96
        0x0000d9d8:    fa03f101    ....    LSL      r1,r3,r1
        0x0000d9dc:    f04f0a00    O...    MOV      r10,#0
        0x0000d9e0:    e212        ..      B        0xde08 ; am_util_stdio_vsprintf + 1524
        0x0000d9e2:    f1bb0f00    ....    CMP      r11,#0
        0x0000d9e6:    bf14        ..      ITE      NE
        0x0000d9e8:    f80b6b01    ...k    STRBNE   r6,[r11],#1
        0x0000d9ec:    f04f0b00    O...    MOVEQ    r11,#0
        0x0000d9f0:    f241089f    A...    MOV      r8,#0x109f
        0x0000d9f4:    9e04        ..      LDR      r6,[sp,#0x10]
        0x0000d9f6:    f10d0914    ....    ADD      r9,sp,#0x14
        0x0000d9fa:    f2c10801    ....    MOVT     r8,#0x1001
        0x0000d9fe:    240d        .$      MOVS     r4,#0xd
        0x0000da00:    e010        ..      B        0xda24 ; am_util_stdio_vsprintf + 528
        0x0000da02:    f1bb0f00    ....    CMP      r11,#0
        0x0000da06:    bf1a        ..      ITTE     NE
        0x0000da08:    6838        8h      LDRNE    r0,[r7,#0]
        0x0000da0a:    f80b0b01    ....    STRBNE   r0,[r11],#1
        0x0000da0e:    f04f0b00    O...    MOVEQ    r11,#0
        0x0000da12:    f241089f    A...    MOV      r8,#0x109f
        0x0000da16:    9e04        ..      LDR      r6,[sp,#0x10]
        0x0000da18:    f10d0914    ....    ADD      r9,sp,#0x14
        0x0000da1c:    f2c10801    ....    MOVT     r8,#0x1001
        0x0000da20:    240d        .$      MOVS     r4,#0xd
        0x0000da22:    3704        .7      ADDS     r7,#4
        0x0000da24:    3501        .5      ADDS     r5,#1
        0x0000da26:    e26f        o.      B        0xdf08 ; am_util_stdio_vsprintf + 1780
        0x0000da28:    f8570b04    W...    LDR      r0,[r7],#4
        0x0000da2c:    17c4        ..      ASRS     r4,r0,#31
        0x0000da2e:    eb1070e4    ...p    ADDS     r0,r0,r4,ASR #31
        0x0000da32:    9e04        ..      LDR      r6,[sp,#0x10]
        0x0000da34:    ea807ee4    ...~    EOR      lr,r0,r4,ASR #31
        0x0000da38:    eb4470e4    D..p    ADC      r0,r4,r4,ASR #31
        0x0000da3c:    f1b90f00    ....    CMP      r9,#0
        0x0000da40:    ea8071e4    ...q    EOR      r1,r0,r4,ASR #31
        0x0000da44:    e9cdc703    ....    STRD     r12,r7,[sp,#0xc]
        0x0000da48:    d046        F.      BEQ      0xdad8 ; am_util_stdio_vsprintf + 708
        0x0000da4a:    ea5e0001    ^...    ORRS     r0,lr,r1
        0x0000da4e:    e9cd1e01    ....    STRD     r1,lr,[sp,#4]
        0x0000da52:    d07b        {.      BEQ      0xdb4c ; am_util_stdio_vsprintf + 824
        0x0000da54:    2700        .'      MOVS     r7,#0
        0x0000da56:    4670        pF      MOV      r0,lr
        0x0000da58:    f000ffd0    ....    BL       divu64_10 ; 0xe9fc
        0x0000da5c:    ea500201    P...    ORRS     r2,r0,r1
        0x0000da60:    f1070701    ....    ADD      r7,r7,#1
        0x0000da64:    d1f8        ..      BNE      0xda58 ; am_util_stdio_vsprintf + 580
        0x0000da66:    e072        r.      B        0xdb4e ; am_util_stdio_vsprintf + 826
        0x0000da68:    f8571b04    W...    LDR      r1,[r7],#4
        0x0000da6c:    2900        .)      CMP      r1,#0
        0x0000da6e:    f0008109    ....    BEQ.W    0xdc84 ; am_util_stdio_vsprintf + 1136
        0x0000da72:    7808        .x      LDRB     r0,[r1,#0]
        0x0000da74:    9e04        ..      LDR      r6,[sp,#0x10]
        0x0000da76:    2800        .(      CMP      r0,#0
        0x0000da78:    f04f040d    O...    MOV      r4,#0xd
        0x0000da7c:    46be        .F      MOV      lr,r7
        0x0000da7e:    f000812b    ..+.    BEQ.W    0xdcd8 ; am_util_stdio_vsprintf + 1220
        0x0000da82:    1c4a        J.      ADDS     r2,r1,#1
        0x0000da84:    2300        .#      MOVS     r3,#0
        0x0000da86:    bf00        ..      NOP      
        0x0000da88:    5cd7        .\      LDRB     r7,[r2,r3]
        0x0000da8a:    1c58        X.      ADDS     r0,r3,#1
        0x0000da8c:    2f00        ./      CMP      r7,#0
        0x0000da8e:    4603        .F      MOV      r3,r0
        0x0000da90:    d1fa        ..      BNE      0xda88 ; am_util_stdio_vsprintf + 628
        0x0000da92:    e122        ".      B        0xdcda ; am_util_stdio_vsprintf + 1222
        0x0000da94:    2a00        .*      CMP      r2,#0
        0x0000da96:    d03d        =.      BEQ      0xdb14 ; am_util_stdio_vsprintf + 768
        0x0000da98:    1df8        ..      ADDS     r0,r7,#7
        0x0000da9a:    f0200707     ...    BIC      r7,r0,#7
        0x0000da9e:    f8d7a004    ....    LDR      r10,[r7,#4]
        0x0000daa2:    f8574b08    W..K    LDR      r4,[r7],#8
        0x0000daa6:    e039        9.      B        0xdb1c ; am_util_stdio_vsprintf + 776
        0x0000daa8:    f8571b04    W...    LDR      r1,[r7],#4
        0x0000daac:    2400        .$      MOVS     r4,#0
        0x0000daae:    f1b90f00    ....    CMP      r9,#0
        0x0000dab2:    d027        '.      BEQ      0xdb04 ; am_util_stdio_vsprintf + 752
        0x0000dab4:    46ba        .F      MOV      r10,r7
        0x0000dab6:    ea510204    Q...    ORRS     r2,r1,r4
        0x0000daba:    f000808d    ....    BEQ.W    0xdbd8 ; am_util_stdio_vsprintf + 964
        0x0000dabe:    2700        .'      MOVS     r7,#0
        0x0000dac0:    460b        .F      MOV      r3,r1
        0x0000dac2:    4622        "F      MOV      r2,r4
        0x0000dac4:    091b        ..      LSRS     r3,r3,#4
        0x0000dac6:    ea437302    C..s    ORR      r3,r3,r2,LSL #28
        0x0000daca:    ea431612    C...    ORR      r6,r3,r2,LSR #4
        0x0000dace:    0912        ..      LSRS     r2,r2,#4
        0x0000dad0:    3701        .7      ADDS     r7,#1
        0x0000dad2:    2e00        ..      CMP      r6,#0
        0x0000dad4:    d1f6        ..      BNE      0xdac4 ; am_util_stdio_vsprintf + 688
        0x0000dad6:    e080        ..      B        0xdbda ; am_util_stdio_vsprintf + 966
        0x0000dad8:    f1b43fff    ...?    CMP      r4,#0xffffffff
        0x0000dadc:    f34080de    @...    BLE.W    0xdc9c ; am_util_stdio_vsprintf + 1160
        0x0000dae0:    f241089f    A...    MOV      r8,#0x109f
        0x0000dae4:    465f        _F      MOV      r7,r11
        0x0000dae6:    f10d0914    ....    ADD      r9,sp,#0x14
        0x0000daea:    f2c10801    ....    MOVT     r8,#0x1001
        0x0000daee:    e071        q.      B        0xdbd4 ; am_util_stdio_vsprintf + 960
        0x0000daf0:    f241089f    A...    MOV      r8,#0x109f
        0x0000daf4:    9e04        ..      LDR      r6,[sp,#0x10]
        0x0000daf6:    f04f0b00    O...    MOV      r11,#0
        0x0000dafa:    f10d0914    ....    ADD      r9,sp,#0x14
        0x0000dafe:    f2c10801    ....    MOVT     r8,#0x1001
        0x0000db02:    e12e        ..      B        0xdd62 ; am_util_stdio_vsprintf + 1358
        0x0000db04:    f241089f    A...    MOV      r8,#0x109f
        0x0000db08:    a806        ..      ADD      r0,sp,#0x18
        0x0000db0a:    f10d0914    ....    ADD      r9,sp,#0x14
        0x0000db0e:    f2c10801    ....    MOVT     r8,#0x1001
        0x0000db12:    e081        ..      B        0xdc18 ; am_util_stdio_vsprintf + 1028
        0x0000db14:    f8574b04    W..K    LDR      r4,[r7],#4
        0x0000db18:    f04f0a00    O...    MOV      r10,#0
        0x0000db1c:    9e04        ..      LDR      r6,[sp,#0x10]
        0x0000db1e:    f1b90f00    ....    CMP      r9,#0
        0x0000db22:    f8cdc00c    ....    STR      r12,[sp,#0xc]
        0x0000db26:    f00080b2    ....    BEQ.W    0xdc8e ; am_util_stdio_vsprintf + 1146
        0x0000db2a:    ea54000a    T...    ORRS     r0,r4,r10
        0x0000db2e:    9704        ..      STR      r7,[sp,#0x10]
        0x0000db30:    f00080e8    ....    BEQ.W    0xdd04 ; am_util_stdio_vsprintf + 1264
        0x0000db34:    2700        .'      MOVS     r7,#0
        0x0000db36:    4620         F      MOV      r0,r4
        0x0000db38:    4651        QF      MOV      r1,r10
        0x0000db3a:    bf00        ..      NOP      
        0x0000db3c:    f000ff5e    ..^.    BL       divu64_10 ; 0xe9fc
        0x0000db40:    ea500201    P...    ORRS     r2,r0,r1
        0x0000db44:    f1070701    ....    ADD      r7,r7,#1
        0x0000db48:    d1f8        ..      BNE      0xdb3c ; am_util_stdio_vsprintf + 808
        0x0000db4a:    e0dc        ..      B        0xdd06 ; am_util_stdio_vsprintf + 1266
        0x0000db4c:    2701        .'      MOVS     r7,#1
        0x0000db4e:    f1b43fff    ...?    CMP      r4,#0xffffffff
        0x0000db52:    eba90307    ....    SUB      r3,r9,r7
        0x0000db56:    dd02        ..      BLE      0xdb5e ; am_util_stdio_vsprintf + 842
        0x0000db58:    f10d0914    ....    ADD      r9,sp,#0x14
        0x0000db5c:    e012        ..      B        0xdb84 ; am_util_stdio_vsprintf + 880
        0x0000db5e:    f1ba0f30    ..0.    CMP      r10,#0x30
        0x0000db62:    f1a30301    ....    SUB      r3,r3,#1
        0x0000db66:    f10d0914    ....    ADD      r9,sp,#0x14
        0x0000db6a:    d10b        ..      BNE      0xdb84 ; am_util_stdio_vsprintf + 880
        0x0000db6c:    f1bb0f00    ....    CMP      r11,#0
        0x0000db70:    bf1a        ..      ITTE     NE
        0x0000db72:    212d        -!      MOVNE    r1,#0x2d
        0x0000db74:    f80b1b01    ....    STRBNE   r1,[r11],#1
        0x0000db78:    f04f0b00    O...    MOVEQ    r11,#0
        0x0000db7c:    e9dd1e01    ....    LDRD     r1,lr,[sp,#4]
        0x0000db80:    3501        .5      ADDS     r5,#1
        0x0000db82:    e001        ..      B        0xdb88 ; am_util_stdio_vsprintf + 884
        0x0000db84:    e9dd1e01    ....    LDRD     r1,lr,[sp,#4]
        0x0000db88:    2b01        .+      CMP      r3,#1
        0x0000db8a:    db09        ..      BLT      0xdba0 ; am_util_stdio_vsprintf + 908
        0x0000db8c:    4618        .F      MOV      r0,r3
        0x0000db8e:    465a        ZF      MOV      r2,r11
        0x0000db90:    2a00        .*      CMP      r2,#0
        0x0000db92:    bf14        ..      ITE      NE
        0x0000db94:    f8028b01    ....    STRBNE   r8,[r2],#1
        0x0000db98:    2200        ."      MOVEQ    r2,#0
        0x0000db9a:    3801        .8      SUBS     r0,#1
        0x0000db9c:    d1f8        ..      BNE      0xdb90 ; am_util_stdio_vsprintf + 892
        0x0000db9e:    e000        ..      B        0xdba2 ; am_util_stdio_vsprintf + 910
        0x0000dba0:    2300        .#      MOVS     r3,#0
        0x0000dba2:    f1bb0f00    ....    CMP      r11,#0
        0x0000dba6:    465f        _F      MOV      r7,r11
        0x0000dba8:    f241089f    A...    MOV      r8,#0x109f
        0x0000dbac:    bf18        ..      IT       NE
        0x0000dbae:    441f        .D      ADDNE    r7,r3
        0x0000dbb0:    f1ba0f30    ..0.    CMP      r10,#0x30
        0x0000dbb4:    441d        .D      ADD      r5,r5,r3
        0x0000dbb6:    f2c10801    ....    MOVT     r8,#0x1001
        0x0000dbba:    d00b        ..      BEQ      0xdbd4 ; am_util_stdio_vsprintf + 960
        0x0000dbbc:    f1b43fff    ...?    CMP      r4,#0xffffffff
        0x0000dbc0:    dc08        ..      BGT      0xdbd4 ; am_util_stdio_vsprintf + 960
        0x0000dbc2:    f1bb0f00    ....    CMP      r11,#0
        0x0000dbc6:    f04f040d    O...    MOV      r4,#0xd
        0x0000dbca:    d077        w.      BEQ      0xdcbc ; am_util_stdio_vsprintf + 1192
        0x0000dbcc:    202d        -       MOVS     r0,#0x2d
        0x0000dbce:    f8070b01    ....    STRB     r0,[r7],#1
        0x0000dbd2:    e074        t.      B        0xdcbe ; am_util_stdio_vsprintf + 1194
        0x0000dbd4:    240d        .$      MOVS     r4,#0xd
        0x0000dbd6:    e073        s.      B        0xdcc0 ; am_util_stdio_vsprintf + 1196
        0x0000dbd8:    2701        .'      MOVS     r7,#1
        0x0000dbda:    eba90307    ....    SUB      r3,r9,r7
        0x0000dbde:    2b01        .+      CMP      r3,#1
        0x0000dbe0:    db0c        ..      BLT      0xdbfc ; am_util_stdio_vsprintf + 1000
        0x0000dbe2:    eba70709    ....    SUB      r7,r7,r9
        0x0000dbe6:    465e        ^F      MOV      r6,r11
        0x0000dbe8:    f10d0914    ....    ADD      r9,sp,#0x14
        0x0000dbec:    2e00        ..      CMP      r6,#0
        0x0000dbee:    bf14        ..      ITE      NE
        0x0000dbf0:    f8068b01    ....    STRBNE   r8,[r6],#1
        0x0000dbf4:    2600        .&      MOVEQ    r6,#0
        0x0000dbf6:    3701        .7      ADDS     r7,#1
        0x0000dbf8:    d3f8        ..      BCC      0xdbec ; am_util_stdio_vsprintf + 984
        0x0000dbfa:    e002        ..      B        0xdc02 ; am_util_stdio_vsprintf + 1006
        0x0000dbfc:    2300        .#      MOVS     r3,#0
        0x0000dbfe:    f10d0914    ....    ADD      r9,sp,#0x14
        0x0000dc02:    f241089f    A...    MOV      r8,#0x109f
        0x0000dc06:    441d        .D      ADD      r5,r5,r3
        0x0000dc08:    a806        ..      ADD      r0,sp,#0x18
        0x0000dc0a:    f2c10801    ....    MOVT     r8,#0x1001
        0x0000dc0e:    4657        WF      MOV      r7,r10
        0x0000dc10:    f1bb0f00    ....    CMP      r11,#0
        0x0000dc14:    bf18        ..      IT       NE
        0x0000dc16:    449b        .D      ADDNE    r11,r11,r3
        0x0000dc18:    46ba        .F      MOV      r10,r7
        0x0000dc1a:    ea510204    Q...    ORRS     r2,r1,r4
        0x0000dc1e:    d015        ..      BEQ      0xdc4c ; am_util_stdio_vsprintf + 1080
        0x0000dc20:    2300        .#      MOVS     r3,#0
        0x0000dc22:    bf00        ..      NOP      
        0x0000dc24:    f001020f    ....    AND      r2,r1,#0xf
        0x0000dc28:    0909        ..      LSRS     r1,r1,#4
        0x0000dc2a:    ea417104    A..q    ORR      r1,r1,r4,LSL #28
        0x0000dc2e:    f1020630    ..0.    ADD      r6,r2,#0x30
        0x0000dc32:    2a09        .*      CMP      r2,#9
        0x0000dc34:    f1030701    ....    ADD      r7,r3,#1
        0x0000dc38:    ea411214    A...    ORR      r2,r1,r4,LSR #4
        0x0000dc3c:    bf88        ..      IT       HI
        0x0000dc3e:    4466        fD      ADDHI    r6,r6,r12
        0x0000dc40:    54c6        .T      STRB     r6,[r0,r3]
        0x0000dc42:    0924        $.      LSRS     r4,r4,#4
        0x0000dc44:    2a00        .*      CMP      r2,#0
        0x0000dc46:    463b        ;F      MOV      r3,r7
        0x0000dc48:    d1ec        ..      BNE      0xdc24 ; am_util_stdio_vsprintf + 1040
        0x0000dc4a:    e003        ..      B        0xdc54 ; am_util_stdio_vsprintf + 1088
        0x0000dc4c:    2030        0       MOVS     r0,#0x30
        0x0000dc4e:    f88d0018    ....    STRB     r0,[sp,#0x18]
        0x0000dc52:    2701        .'      MOVS     r7,#1
        0x0000dc54:    f8ddc00c    ....    LDR      r12,[sp,#0xc]
        0x0000dc58:    f1bb0f00    ....    CMP      r11,#0
        0x0000dc5c:    4676        vF      MOV      r6,lr
        0x0000dc5e:    f04f040d    O...    MOV      r4,#0xd
        0x0000dc62:    d008        ..      BEQ      0xdc76 ; am_util_stdio_vsprintf + 1122
        0x0000dc64:    4639        9F      MOV      r1,r7
        0x0000dc66:    4658        XF      MOV      r0,r11
        0x0000dc68:    5c72        r\      LDRB     r2,[r6,r1]
        0x0000dc6a:    3901        .9      SUBS     r1,#1
        0x0000dc6c:    f8002b01    ...+    STRB     r2,[r0],#1
        0x0000dc70:    d1fa        ..      BNE      0xdc68 ; am_util_stdio_vsprintf + 1108
        0x0000dc72:    2100        .!      MOVS     r1,#0
        0x0000dc74:    7001        .p      STRB     r1,[r0,#0]
        0x0000dc76:    f1bb0f00    ....    CMP      r11,#0
        0x0000dc7a:    bf18        ..      IT       NE
        0x0000dc7c:    44bb        .D      ADDNE    r11,r11,r7
        0x0000dc7e:    443d        =D      ADD      r5,r5,r7
        0x0000dc80:    4657        WF      MOV      r7,r10
        0x0000dc82:    e141        A.      B        0xdf08 ; am_util_stdio_vsprintf + 1780
        0x0000dc84:    9e04        ..      LDR      r6,[sp,#0x10]
        0x0000dc86:    46be        .F      MOV      lr,r7
        0x0000dc88:    2000        .       MOVS     r0,#0
        0x0000dc8a:    240d        .$      MOVS     r4,#0xd
        0x0000dc8c:    e025        %.      B        0xdcda ; am_util_stdio_vsprintf + 1222
        0x0000dc8e:    f241089f    A...    MOV      r8,#0x109f
        0x0000dc92:    f10d0914    ....    ADD      r9,sp,#0x14
        0x0000dc96:    f2c10801    ....    MOVT     r8,#0x1001
        0x0000dc9a:    e056        V.      B        0xdd4a ; am_util_stdio_vsprintf + 1334
        0x0000dc9c:    f241089f    A...    MOV      r8,#0x109f
        0x0000dca0:    f1bb0f00    ....    CMP      r11,#0
        0x0000dca4:    f10d0914    ....    ADD      r9,sp,#0x14
        0x0000dca8:    f2c10801    ....    MOVT     r8,#0x1001
        0x0000dcac:    f04f040d    O...    MOV      r4,#0xd
        0x0000dcb0:    d004        ..      BEQ      0xdcbc ; am_util_stdio_vsprintf + 1192
        0x0000dcb2:    202d        -       MOVS     r0,#0x2d
        0x0000dcb4:    f80b0b01    ....    STRB     r0,[r11],#1
        0x0000dcb8:    465f        _F      MOV      r7,r11
        0x0000dcba:    e000        ..      B        0xdcbe ; am_util_stdio_vsprintf + 1194
        0x0000dcbc:    2700        .'      MOVS     r7,#0
        0x0000dcbe:    3501        .5      ADDS     r5,#1
        0x0000dcc0:    4670        pF      MOV      r0,lr
        0x0000dcc2:    463a        :F      MOV      r2,r7
        0x0000dcc4:    f001f882    ....    BL       uint64_to_str ; 0xedcc
        0x0000dcc8:    2f00        ./      CMP      r7,#0
        0x0000dcca:    bf18        ..      IT       NE
        0x0000dccc:    4407        .D      ADDNE    r7,r0
        0x0000dcce:    46bb        .F      MOV      r11,r7
        0x0000dcd0:    e9ddc703    ....    LDRD     r12,r7,[sp,#0xc]
        0x0000dcd4:    4405        .D      ADD      r5,r5,r0
        0x0000dcd6:    e117        ..      B        0xdf08 ; am_util_stdio_vsprintf + 1780
        0x0000dcd8:    2000        .       MOVS     r0,#0
        0x0000dcda:    f1b90f01    ....    CMP      r9,#1
        0x0000dcde:    db4a        J.      BLT      0xdd76 ; am_util_stdio_vsprintf + 1378
        0x0000dce0:    4581        .E      CMP      r9,r0
        0x0000dce2:    d948        H.      BLS      0xdd76 ; am_util_stdio_vsprintf + 1378
        0x0000dce4:    eba90200    ....    SUB      r2,r9,r0
        0x0000dce8:    2a01        .*      CMP      r2,#1
        0x0000dcea:    db3c        <.      BLT      0xdd66 ; am_util_stdio_vsprintf + 1362
        0x0000dcec:    eba00309    ....    SUB      r3,r0,r9
        0x0000dcf0:    465f        _F      MOV      r7,r11
        0x0000dcf2:    bf00        ..      NOP      
        0x0000dcf4:    2f00        ./      CMP      r7,#0
        0x0000dcf6:    bf14        ..      ITE      NE
        0x0000dcf8:    f8078b01    ....    STRBNE   r8,[r7],#1
        0x0000dcfc:    2700        .'      MOVEQ    r7,#0
        0x0000dcfe:    3301        .3      ADDS     r3,#1
        0x0000dd00:    d3f8        ..      BCC      0xdcf4 ; am_util_stdio_vsprintf + 1248
        0x0000dd02:    e031        1.      B        0xdd68 ; am_util_stdio_vsprintf + 1364
        0x0000dd04:    2701        .'      MOVS     r7,#1
        0x0000dd06:    eba90007    ....    SUB      r0,r9,r7
        0x0000dd0a:    2801        .(      CMP      r0,#1
        0x0000dd0c:    db10        ..      BLT      0xdd30 ; am_util_stdio_vsprintf + 1308
        0x0000dd0e:    eba70109    ....    SUB      r1,r7,r9
        0x0000dd12:    9f04        ..      LDR      r7,[sp,#0x10]
        0x0000dd14:    465a        ZF      MOV      r2,r11
        0x0000dd16:    f10d0914    ....    ADD      r9,sp,#0x14
        0x0000dd1a:    bf00        ..      NOP      
        0x0000dd1c:    2a00        .*      CMP      r2,#0
        0x0000dd1e:    bf14        ..      ITE      NE
        0x0000dd20:    f8028b01    ....    STRBNE   r8,[r2],#1
        0x0000dd24:    2200        ."      MOVEQ    r2,#0
        0x0000dd26:    3101        .1      ADDS     r1,#1
        0x0000dd28:    d3f8        ..      BCC      0xdd1c ; am_util_stdio_vsprintf + 1288
        0x0000dd2a:    f241089f    A...    MOV      r8,#0x109f
        0x0000dd2e:    e005        ..      B        0xdd3c ; am_util_stdio_vsprintf + 1320
        0x0000dd30:    f241089f    A...    MOV      r8,#0x109f
        0x0000dd34:    9f04        ..      LDR      r7,[sp,#0x10]
        0x0000dd36:    2000        .       MOVS     r0,#0
        0x0000dd38:    f10d0914    ....    ADD      r9,sp,#0x14
        0x0000dd3c:    f2c10801    ....    MOVT     r8,#0x1001
        0x0000dd40:    4405        .D      ADD      r5,r5,r0
        0x0000dd42:    f1bb0f00    ....    CMP      r11,#0
        0x0000dd46:    bf18        ..      IT       NE
        0x0000dd48:    4483        .D      ADDNE    r11,r11,r0
        0x0000dd4a:    4620         F      MOV      r0,r4
        0x0000dd4c:    4651        QF      MOV      r1,r10
        0x0000dd4e:    465a        ZF      MOV      r2,r11
        0x0000dd50:    f001f83c    ..<.    BL       uint64_to_str ; 0xedcc
        0x0000dd54:    f1bb0f00    ....    CMP      r11,#0
        0x0000dd58:    bf18        ..      IT       NE
        0x0000dd5a:    4483        .D      ADDNE    r11,r11,r0
        0x0000dd5c:    f8ddc00c    ....    LDR      r12,[sp,#0xc]
        0x0000dd60:    4405        .D      ADD      r5,r5,r0
        0x0000dd62:    240d        .$      MOVS     r4,#0xd
        0x0000dd64:    e0d0        ..      B        0xdf08 ; am_util_stdio_vsprintf + 1780
        0x0000dd66:    2200        ."      MOVS     r2,#0
        0x0000dd68:    4415        .D      ADD      r5,r5,r2
        0x0000dd6a:    f04f0900    O...    MOV      r9,#0
        0x0000dd6e:    f1bb0f00    ....    CMP      r11,#0
        0x0000dd72:    bf18        ..      IT       NE
        0x0000dd74:    4493        .D      ADDNE    r11,r11,r2
        0x0000dd76:    780a        .x      LDRB     r2,[r1,#0]
        0x0000dd78:    b17a        z.      CBZ      r2,0xdd9a ; am_util_stdio_vsprintf + 1414
        0x0000dd7a:    3101        .1      ADDS     r1,#1
        0x0000dd7c:    4677        wF      MOV      r7,lr
        0x0000dd7e:    bf00        ..      NOP      
        0x0000dd80:    f1bb0f00    ....    CMP      r11,#0
        0x0000dd84:    bf14        ..      ITE      NE
        0x0000dd86:    f80b2b01    ...+    STRBNE   r2,[r11],#1
        0x0000dd8a:    f04f0b00    O...    MOVEQ    r11,#0
        0x0000dd8e:    f8112b01    ...+    LDRB     r2,[r1],#1
        0x0000dd92:    3501        .5      ADDS     r5,#1
        0x0000dd94:    2a00        .*      CMP      r2,#0
        0x0000dd96:    d1f3        ..      BNE      0xdd80 ; am_util_stdio_vsprintf + 1388
        0x0000dd98:    e000        ..      B        0xdd9c ; am_util_stdio_vsprintf + 1416
        0x0000dd9a:    4677        wF      MOV      r7,lr
        0x0000dd9c:    f1b90f00    ....    CMP      r9,#0
        0x0000dda0:    f00080ac    ....    BEQ.W    0xdefc ; am_util_stdio_vsprintf + 1768
        0x0000dda4:    f1c90100    ....    RSB      r1,r9,#0
        0x0000dda8:    4288        .B      CMP      r0,r1
        0x0000ddaa:    f08080a7    ....    BCS.W    0xdefc ; am_util_stdio_vsprintf + 1768
        0x0000ddae:    1a09        ..      SUBS     r1,r1,r0
        0x0000ddb0:    2901        .)      CMP      r1,#1
        0x0000ddb2:    db0b        ..      BLT      0xddcc ; am_util_stdio_vsprintf + 1464
        0x0000ddb4:    4448        HD      ADD      r0,r0,r9
        0x0000ddb6:    465a        ZF      MOV      r2,r11
        0x0000ddb8:    f10d0914    ....    ADD      r9,sp,#0x14
        0x0000ddbc:    2a00        .*      CMP      r2,#0
        0x0000ddbe:    bf14        ..      ITE      NE
        0x0000ddc0:    f8028b01    ....    STRBNE   r8,[r2],#1
        0x0000ddc4:    2200        ."      MOVEQ    r2,#0
        0x0000ddc6:    3001        .0      ADDS     r0,#1
        0x0000ddc8:    d3f8        ..      BCC      0xddbc ; am_util_stdio_vsprintf + 1448
        0x0000ddca:    e002        ..      B        0xddd2 ; am_util_stdio_vsprintf + 1470
        0x0000ddcc:    2100        .!      MOVS     r1,#0
        0x0000ddce:    f10d0914    ....    ADD      r9,sp,#0x14
        0x0000ddd2:    f241089f    A...    MOV      r8,#0x109f
        0x0000ddd6:    f2c10801    ....    MOVT     r8,#0x1001
        0x0000ddda:    f1bb0f00    ....    CMP      r11,#0
        0x0000ddde:    bf18        ..      IT       NE
        0x0000dde0:    448b        .D      ADDNE    r11,r11,r1
        0x0000dde2:    440d        .D      ADD      r5,r5,r1
        0x0000dde4:    e090        ..      B        0xdf08 ; am_util_stdio_vsprintf + 1780
        0x0000dde6:    2a7f        .*      CMP      r2,#0x7f
        0x0000dde8:    d309        ..      BCC      0xddfe ; am_util_stdio_vsprintf + 1514
        0x0000ddea:    f1c20196    ....    RSB      r1,r2,#0x96
        0x0000ddee:    3a7e        ~:      SUBS     r2,r2,#0x7e
        0x0000ddf0:    fa03f202    ....    LSL      r2,r3,r2
        0x0000ddf4:    fa23f101    #...    LSR      r1,r3,r1
        0x0000ddf8:    f0224a7f    "..J    BIC      r10,r2,#0xff000000
        0x0000ddfc:    e004        ..      B        0xde08 ; am_util_stdio_vsprintf + 1524
        0x0000ddfe:    f1c2017e    ..~.    RSB      r1,r2,#0x7e
        0x0000de02:    fa23fa01    #...    LSR      r10,r3,r1
        0x0000de06:    2100        .!      MOVS     r1,#0
        0x0000de08:    f1b03fff    ...?    CMP      r0,#0xffffffff
        0x0000de0c:    465f        _F      MOV      r7,r11
        0x0000de0e:    dc03        ..      BGT      0xde18 ; am_util_stdio_vsprintf + 1540
        0x0000de10:    465f        _F      MOV      r7,r11
        0x0000de12:    202d        -       MOVS     r0,#0x2d
        0x0000de14:    f8070b01    ....    STRB     r0,[r7],#1
        0x0000de18:    b131        1.      CBZ      r1,0xde28 ; am_util_stdio_vsprintf + 1556
        0x0000de1a:    2901        .)      CMP      r1,#1
        0x0000de1c:    f8cde008    ....    STR      lr,[sp,#8]
        0x0000de20:    db06        ..      BLT      0xde30 ; am_util_stdio_vsprintf + 1564
        0x0000de22:    4608        .F      MOV      r0,r1
        0x0000de24:    2100        .!      MOVS     r1,#0
        0x0000de26:    e008        ..      B        0xde3a ; am_util_stdio_vsprintf + 1574
        0x0000de28:    2130        0!      MOVS     r1,#0x30
        0x0000de2a:    f8071b01    ....    STRB     r1,[r7],#1
        0x0000de2e:    e011        ..      B        0xde54 ; am_util_stdio_vsprintf + 1600
        0x0000de30:    202d        -       MOVS     r0,#0x2d
        0x0000de32:    f8070b01    ....    STRB     r0,[r7],#1
        0x0000de36:    4248        HB      RSBS     r0,r1,#0
        0x0000de38:    17c1        ..      ASRS     r1,r0,#31
        0x0000de3a:    463a        :F      MOV      r2,r7
        0x0000de3c:    f000ffc6    ....    BL       uint64_to_str ; 0xedcc
        0x0000de40:    f8dde008    ....    LDR      lr,[sp,#8]
        0x0000de44:    46cc        .F      MOV      r12,r9
        0x0000de46:    2130        0!      MOVS     r1,#0x30
        0x0000de48:    3f01        .?      SUBS     r7,#1
        0x0000de4a:    bf00        ..      NOP      
        0x0000de4c:    f8170f01    ....    LDRB     r0,[r7,#1]!
        0x0000de50:    2800        .(      CMP      r0,#0
        0x0000de52:    d1fb        ..      BNE      0xde4c ; am_util_stdio_vsprintf + 1592
        0x0000de54:    4638        8F      MOV      r0,r7
        0x0000de56:    222e        ."      MOVS     r2,#0x2e
        0x0000de58:    f1ba0f00    ....    CMP      r10,#0
        0x0000de5c:    f8002b01    ...+    STRB     r2,[r0],#1
        0x0000de60:    d014        ..      BEQ      0xde8c ; am_util_stdio_vsprintf + 1656
        0x0000de62:    ebab0100    ....    SUB      r1,r11,r0
        0x0000de66:    3113        .1      ADDS     r1,r1,#0x13
        0x0000de68:    42a1        .B      CMP      r1,r4
        0x0000de6a:    bfc8        ..      IT       GT
        0x0000de6c:    4621        !F      MOVGT    r1,r4
        0x0000de6e:    2901        .)      CMP      r1,#1
        0x0000de70:    db10        ..      BLT      0xde94 ; am_util_stdio_vsprintf + 1664
        0x0000de72:    2730        0'      MOVS     r7,#0x30
        0x0000de74:    240d        .$      MOVS     r4,#0xd
        0x0000de76:    eb0a028a    ....    ADD      r2,r10,r10,LSL #2
        0x0000de7a:    eb0753d2    ...S    ADD      r3,r7,r2,LSR #23
        0x0000de7e:    f8003b01    ...;    STRB     r3,[r0],#1
        0x0000de82:    3901        .9      SUBS     r1,#1
        0x0000de84:    ea060a42    ..B.    AND      r10,r6,r2,LSL #1
        0x0000de88:    d1f5        ..      BNE      0xde76 ; am_util_stdio_vsprintf + 1634
        0x0000de8a:    e004        ..      B        0xde96 ; am_util_stdio_vsprintf + 1666
        0x0000de8c:    1cb8        ..      ADDS     r0,r7,#2
        0x0000de8e:    7079        yp      STRB     r1,[r7,#1]
        0x0000de90:    240d        .$      MOVS     r4,#0xd
        0x0000de92:    e015        ..      B        0xdec0 ; am_util_stdio_vsprintf + 1708
        0x0000de94:    240d        .$      MOVS     r4,#0xd
        0x0000de96:    1e41        A.      SUBS     r1,r0,#1
        0x0000de98:    4559        YE      CMP      r1,r11
        0x0000de9a:    d311        ..      BCC      0xdec0 ; am_util_stdio_vsprintf + 1708
        0x0000de9c:    eb0a028a    ....    ADD      r2,r10,r10,LSL #2
        0x0000dea0:    0052        R.      LSLS     r2,r2,#1
        0x0000dea2:    f1b26fa0    ...o    CMP      r2,#0x5000000
        0x0000dea6:    db0b        ..      BLT      0xdec0 ; am_util_stdio_vsprintf + 1708
        0x0000dea8:    9e04        ..      LDR      r6,[sp,#0x10]
        0x0000deaa:    780a        .x      LDRB     r2,[r1,#0]
        0x0000deac:    2a2e        .*      CMP      r2,#0x2e
        0x0000deae:    d003        ..      BEQ      0xdeb8 ; am_util_stdio_vsprintf + 1700
        0x0000deb0:    2a39        9*      CMP      r2,#0x39
        0x0000deb2:    d12c        ,.      BNE      0xdf0e ; am_util_stdio_vsprintf + 1786
        0x0000deb4:    2230        0"      MOVS     r2,#0x30
        0x0000deb6:    700a        .p      STRB     r2,[r1,#0]
        0x0000deb8:    3901        .9      SUBS     r1,#1
        0x0000deba:    4559        YE      CMP      r1,r11
        0x0000debc:    d2f5        ..      BCS      0xdeaa ; am_util_stdio_vsprintf + 1686
        0x0000debe:    e000        ..      B        0xdec2 ; am_util_stdio_vsprintf + 1710
        0x0000dec0:    9e04        ..      LDR      r6,[sp,#0x10]
        0x0000dec2:    eba0010b    ....    SUB      r1,r0,r11
        0x0000dec6:    f1b13fff    ...?    CMP      r1,#0xffffffff
        0x0000deca:    f04f0200    O...    MOV      r2,#0
        0x0000dece:    7002        .p      STRB     r2,[r0,#0]
        0x0000ded0:    dc10        ..      BGT      0xdef4 ; am_util_stdio_vsprintf + 1760
        0x0000ded2:    f6426223    B.#b    MOV      r2,#0x2e23
        0x0000ded6:    1c48        H.      ADDS     r0,r1,#1
        0x0000ded8:    f2c00223    ..#.    MOVT     r2,#0x23
        0x0000dedc:    bf18        ..      IT       NE
        0x0000dede:    f1021e1c    ....    ADDNE    lr,r2,#0x1c001c
        0x0000dee2:    1c88        ..      ADDS     r0,r1,#2
        0x0000dee4:    bf08        ..      IT       EQ
        0x0000dee6:    4696        .F      MOVEQ    lr,r2
        0x0000dee8:    4671        qF      MOV      r1,lr
        0x0000deea:    9e04        ..      LDR      r6,[sp,#0x10]
        0x0000deec:    f8cb1000    ....    STR      r1,[r11,#0]
        0x0000def0:    2103        .!      MOVS     r1,#3
        0x0000def2:    240d        .$      MOVS     r4,#0xd
        0x0000def4:    f1080708    ....    ADD      r7,r8,#8
        0x0000def8:    440d        .D      ADD      r5,r5,r1
        0x0000defa:    448b        .D      ADD      r11,r11,r1
        0x0000defc:    f241089f    A...    MOV      r8,#0x109f
        0x0000df00:    f10d0914    ....    ADD      r9,sp,#0x14
        0x0000df04:    f2c10801    ....    MOVT     r8,#0x1001
        0x0000df08:    f10c0101    ....    ADD      r1,r12,#1
        0x0000df0c:    e491        ..      B        0xd832 ; am_util_stdio_vsprintf + 30
        0x0000df0e:    3201        .2      ADDS     r2,#1
        0x0000df10:    700a        .p      STRB     r2,[r1,#0]
        0x0000df12:    e7d6        ..      B        0xdec2 ; am_util_stdio_vsprintf + 1710
        0x0000df14:    f1bb0f00    ....    CMP      r11,#0
        0x0000df18:    bf1c        ..      ITT      NE
        0x0000df1a:    2000        .       MOVNE    r0,#0
        0x0000df1c:    f88b0000    ....    STRBNE   r0,[r11,#0]
        0x0000df20:    4628        (F      MOV      r0,r5
        0x0000df22:    b00b        ..      ADD      sp,sp,#0x2c
        0x0000df24:    e8bd8ff0    ....    POP      {r4-r11,pc}
    arm_bitreversal_f32
        0x0000df28:    e92d4ff0    -..O    PUSH     {r4-r11,lr}
        0x0000df2c:    b081        ..      SUB      sp,sp,#4
        0x0000df2e:    2601        .&      MOVS     r6,#1
        0x0000df30:    f06f0401    o...    MVN      r4,#1
        0x0000df34:    ea4f0e51    O.Q.    LSR      lr,r1,#1
        0x0000df38:    eb060751    ..Q.    ADD      r7,r6,r1,LSR #1
        0x0000df3c:    eb040851    ..Q.    ADD      r8,r4,r1,LSR #1
        0x0000df40:    ea4f0942    O.B.    LSL      r9,r2,#1
        0x0000df44:    2400        .$      MOVS     r4,#0
        0x0000df46:    2500        .%      MOVS     r5,#0
        0x0000df48:    9700        ..      STR      r7,[sp,#0]
        0x0000df4a:    bf00        ..      NOP      
        0x0000df4c:    b2ae        ..      UXTH     r6,r5
        0x0000df4e:    42b4        .B      CMP      r4,r6
        0x0000df50:    ea4f0544    O.D.    LSL      r5,r4,#1
        0x0000df54:    d22b        +.      BCS      0xdfae ; arm_bitreversal_f32 + 134
        0x0000df56:    f8501036    P.6.    LDR      r1,[r0,r6,LSL #3]
        0x0000df5a:    f8507025    P.%p    LDR      r7,[r0,r5,LSL #2]
        0x0000df5e:    00f2        ..      LSLS     r2,r6,#3
        0x0000df60:    f8401025    @.%.    STR      r1,[r0,r5,LSL #2]
        0x0000df64:    f0450101    E...    ORR      r1,r5,#1
        0x0000df68:    3204        .2      ADDS     r2,#4
        0x0000df6a:    f8407036    @.6p    STR      r7,[r0,r6,LSL #3]
        0x0000df6e:    5887        .X      LDR      r7,[r0,r2]
        0x0000df70:    f850a021    P.!.    LDR      r10,[r0,r1,LSL #2]
        0x0000df74:    f8407021    @.!p    STR      r7,[r0,r1,LSL #2]
        0x0000df78:    f840a002    @...    STR      r10,[r0,r2]
        0x0000df7c:    9a00        ..      LDR      r2,[sp,#0]
        0x0000df7e:    18a1        ..      ADDS     r1,r4,r2
        0x0000df80:    4432        2D      ADD      r2,r2,r6
        0x0000df82:    f850b031    P.1.    LDR      r11,[r0,r1,LSL #3]
        0x0000df86:    f8507032    P.2p    LDR      r7,[r0,r2,LSL #3]
        0x0000df8a:    ea4f0ac1    O...    LSL      r10,r1,#3
        0x0000df8e:    ea4f0cc2    O...    LSL      r12,r2,#3
        0x0000df92:    f8407031    @.1p    STR      r7,[r0,r1,LSL #3]
        0x0000df96:    f840b032    @.2.    STR      r11,[r0,r2,LSL #3]
        0x0000df9a:    f10a0104    ....    ADD      r1,r10,#4
        0x0000df9e:    f10c0204    ....    ADD      r2,r12,#4
        0x0000dfa2:    5887        .X      LDR      r7,[r0,r2]
        0x0000dfa4:    f850c001    P...    LDR      r12,[r0,r1]
        0x0000dfa8:    5047        GP      STR      r7,[r0,r1]
        0x0000dfaa:    f840c002    @...    STR      r12,[r0,r2]
        0x0000dfae:    eb06010e    ....    ADD      r1,r6,lr
        0x0000dfb2:    eb000685    ....    ADD      r6,r0,r5,LSL #2
        0x0000dfb6:    f8507031    P.1p    LDR      r7,[r0,r1,LSL #3]
        0x0000dfba:    e9d65a02    ...Z    LDRD     r5,r10,[r6,#8]
        0x0000dfbe:    ea4f0cc1    O...    LSL      r12,r1,#3
        0x0000dfc2:    60b7        .`      STR      r7,[r6,#8]
        0x0000dfc4:    f10c0704    ....    ADD      r7,r12,#4
        0x0000dfc8:    f8405031    @.1P    STR      r5,[r0,r1,LSL #3]
        0x0000dfcc:    1ca1        ..      ADDS     r1,r4,#2
        0x0000dfce:    59c2        .Y      LDR      r2,[r0,r7]
        0x0000dfd0:    881d        ..      LDRH     r5,[r3,#0]
        0x0000dfd2:    b28c        ..      UXTH     r4,r1
        0x0000dfd4:    4544        DE      CMP      r4,r8
        0x0000dfd6:    444b        KD      ADD      r3,r3,r9
        0x0000dfd8:    60f2        .`      STR      r2,[r6,#0xc]
        0x0000dfda:    f840a007    @...    STR      r10,[r0,r7]
        0x0000dfde:    d9b5        ..      BLS      0xdf4c ; arm_bitreversal_f32 + 36
        0x0000dfe0:    b001        ..      ADD      sp,sp,#4
        0x0000dfe2:    e8bd8ff0    ....    POP      {r4-r11,pc}
    arm_cfft_radix4_f32
        0x0000dfe6:    b570        p.      PUSH     {r4-r6,lr}
        0x0000dfe8:    4604        .F      MOV      r4,r0
        0x0000dfea:    7880        .x      LDRB     r0,[r0,#2]
        0x0000dfec:    8825        %.      LDRH     r5,[r4,#0]
        0x0000dfee:    6862        bh      LDR      r2,[r4,#4]
        0x0000dff0:    89a3        ..      LDRH     r3,[r4,#0xc]
        0x0000dff2:    2801        .(      CMP      r0,#1
        0x0000dff4:    460e        .F      MOV      r6,r1
        0x0000dff6:    d106        ..      BNE      0xe006 ; arm_cfft_radix4_f32 + 32
        0x0000dff8:    ed940a04    ....    VLDR     s0,[r4,#0x10]
        0x0000dffc:    4630        0F      MOV      r0,r6
        0x0000dffe:    4629        )F      MOV      r1,r5
        0x0000e000:    f000fb12    ....    BL       arm_radix4_butterfly_inverse_f32 ; 0xe628
        0x0000e004:    e003        ..      B        0xe00e ; arm_cfft_radix4_f32 + 40
        0x0000e006:    4630        0F      MOV      r0,r6
        0x0000e008:    4629        )F      MOV      r1,r5
        0x0000e00a:    f000f95f    .._.    BL       arm_radix4_butterfly_f32 ; 0xe2cc
        0x0000e00e:    78e0        .x      LDRB     r0,[r4,#3]
        0x0000e010:    2801        .(      CMP      r0,#1
        0x0000e012:    bf18        ..      IT       NE
        0x0000e014:    bd70        p.      POPNE    {r4-r6,pc}
        0x0000e016:    8821        !.      LDRH     r1,[r4,#0]
        0x0000e018:    89e2        ..      LDRH     r2,[r4,#0xe]
        0x0000e01a:    68a3        .h      LDR      r3,[r4,#8]
        0x0000e01c:    4630        0F      MOV      r0,r6
        0x0000e01e:    e8bd4070    ..p@    POP      {r4-r6,lr}
        0x0000e022:    f7ffbf81    ....    B.W      arm_bitreversal_f32 ; 0xdf28
        0x0000e026:    0000        ..      MOVS     r0,r0
    arm_cfft_radix4_init_f32
        0x0000e028:    f64f6c74    O.tl    MOV      r12,#0xfe74
        0x0000e02c:    7082        .p      STRB     r2,[r0,#2]
        0x0000e02e:    f24f124c    O.L.    MOV      r2,#0xf14c
        0x0000e032:    f2c00c00    ....    MOVT     r12,#0
        0x0000e036:    70c3        .p      STRB     r3,[r0,#3]
        0x0000e038:    f2c00200    ....    MOVT     r2,#0
        0x0000e03c:    29ff        .)      CMP      r1,#0xff
        0x0000e03e:    f04f03ff    O...    MOV      r3,#0xff
        0x0000e042:    8001        ..      STRH     r1,[r0,#0]
        0x0000e044:    f8c0c004    ....    STR      r12,[r0,#4]
        0x0000e048:    dd0d        ..      BLE      0xe066 ; arm_cfft_radix4_init_f32 + 62
        0x0000e04a:    f5b17f80    ....    CMP      r1,#0x100
        0x0000e04e:    d013        ..      BEQ      0xe078 ; arm_cfft_radix4_init_f32 + 80
        0x0000e050:    f5b15f80    ..._    CMP      r1,#0x1000
        0x0000e054:    d015        ..      BEQ      0xe082 ; arm_cfft_radix4_init_f32 + 90
        0x0000e056:    f5b16f80    ...o    CMP      r1,#0x400
        0x0000e05a:    d122        ".      BNE      0xe0a2 ; arm_cfft_radix4_init_f32 + 122
        0x0000e05c:    ed9f0a16    ....    VLDR     s0,[pc,#88] ; [0xe0b8] = 0x3a800000
        0x0000e060:    3206        .2      ADDS     r2,#6
        0x0000e062:    2104        .!      MOVS     r1,#4
        0x0000e064:    e017        ..      B        0xe096 ; arm_cfft_radix4_init_f32 + 110
        0x0000e066:    2910        .)      CMP      r1,#0x10
        0x0000e068:    d00f        ..      BEQ      0xe08a ; arm_cfft_radix4_init_f32 + 98
        0x0000e06a:    2940        @)      CMP      r1,#0x40
        0x0000e06c:    d119        ..      BNE      0xe0a2 ; arm_cfft_radix4_init_f32 + 122
        0x0000e06e:    ed9f0a10    ....    VLDR     s0,[pc,#64] ; [0xe0b0] = 0x3c800000
        0x0000e072:    327e        ~2      ADDS     r2,r2,#0x7e
        0x0000e074:    2140        @!      MOVS     r1,#0x40
        0x0000e076:    e00e        ..      B        0xe096 ; arm_cfft_radix4_init_f32 + 110
        0x0000e078:    ed9f0a0e    ....    VLDR     s0,[pc,#56] ; [0xe0b4] = 0x3b800000
        0x0000e07c:    321e        .2      ADDS     r2,r2,#0x1e
        0x0000e07e:    2110        .!      MOVS     r1,#0x10
        0x0000e080:    e009        ..      B        0xe096 ; arm_cfft_radix4_init_f32 + 110
        0x0000e082:    ed9f0a09    ....    VLDR     s0,[pc,#36] ; [0xe0a8] = 0x39800000
        0x0000e086:    2101        .!      MOVS     r1,#1
        0x0000e088:    e005        ..      B        0xe096 ; arm_cfft_radix4_init_f32 + 110
        0x0000e08a:    ed9f0a08    ....    VLDR     s0,[pc,#32] ; [0xe0ac] = 0x3d800000
        0x0000e08e:    f50272ff    ...r    ADD      r2,r2,#0x1fe
        0x0000e092:    f44f7180    O..q    MOV      r1,#0x100
        0x0000e096:    2300        .#      MOVS     r3,#0
        0x0000e098:    8181        ..      STRH     r1,[r0,#0xc]
        0x0000e09a:    81c1        ..      STRH     r1,[r0,#0xe]
        0x0000e09c:    6082        .`      STR      r2,[r0,#8]
        0x0000e09e:    ed800a04    ....    VSTR     s0,[r0,#0x10]
        0x0000e0a2:    b258        X.      SXTB     r0,r3
        0x0000e0a4:    4770        pG      BX       lr
        0x0000e0a6:    bf00        ..      NOP      
    $d.1
        0x0000e0a8:    39800000    ...9    DCD    964689920
        0x0000e0ac:    3d800000    ...=    DCD    1031798784
        0x0000e0b0:    3c800000    ...<    DCD    1015021568
        0x0000e0b4:    3b800000    ...;    DCD    998244352
        0x0000e0b8:    3a800000    ...:    DCD    981467136
    $t.0
    arm_cmplx_mag_f32
        0x0000e0bc:    e92d43f0    -..C    PUSH     {r4-r9,lr}
        0x0000e0c0:    b081        ..      SUB      sp,sp,#4
        0x0000e0c2:    ed2d8b02    -...    VPUSH    {d8}
        0x0000e0c6:    460c        .F      MOV      r4,r1
        0x0000e0c8:    2100        .!      MOVS     r1,#0
        0x0000e0ca:    4690        .F      MOV      r8,r2
        0x0000e0cc:    ebb10f92    ....    CMP      r1,r2,LSR #2
        0x0000e0d0:    4605        .F      MOV      r5,r0
        0x0000e0d2:    d074        t.      BEQ      0xe1be ; arm_cmplx_mag_f32 + 258
        0x0000e0d4:    ea4f0798    O...    LSR      r7,r8,#2
        0x0000e0d8:    ed950a00    ....    VLDR     s0,[r5,#0]
        0x0000e0dc:    ed951a01    ....    VLDR     s2,[r5,#4]
        0x0000e0e0:    ee200a00     ...    VMUL.F32 s0,s0,s0
        0x0000e0e4:    ee211a01    !...    VMUL.F32 s2,s2,s2
        0x0000e0e8:    ee308a01    0...    VADD.F32 s16,s0,s2
        0x0000e0ec:    eeb00a48    ..H.    VMOV.F32 s0,s16
        0x0000e0f0:    f000fe96    ....    BL       __hardfp_sqrtf ; 0xee20
        0x0000e0f4:    eeb40a40    ..@.    VCMP.F32 s0,s0
        0x0000e0f8:    eef1fa10    ....    VMRS     APSR_nzcv,FPSCR
        0x0000e0fc:    d649        I.      BVS      0xe192 ; arm_cmplx_mag_f32 + 214
        0x0000e0fe:    ed840a00    ....    VSTR     s0,[r4,#0]
        0x0000e102:    ed950a02    ....    VLDR     s0,[r5,#8]
        0x0000e106:    ed951a03    ....    VLDR     s2,[r5,#0xc]
        0x0000e10a:    ee200a00     ...    VMUL.F32 s0,s0,s0
        0x0000e10e:    ee211a01    !...    VMUL.F32 s2,s2,s2
        0x0000e112:    ee308a01    0...    VADD.F32 s16,s0,s2
        0x0000e116:    eeb00a48    ..H.    VMOV.F32 s0,s16
        0x0000e11a:    f000fe81    ....    BL       __hardfp_sqrtf ; 0xee20
        0x0000e11e:    eeb40a40    ..@.    VCMP.F32 s0,s0
        0x0000e122:    eef1fa10    ....    VMRS     APSR_nzcv,FPSCR
        0x0000e126:    d639        9.      BVS      0xe19c ; arm_cmplx_mag_f32 + 224
        0x0000e128:    ed840a01    ....    VSTR     s0,[r4,#4]
        0x0000e12c:    ed950a04    ....    VLDR     s0,[r5,#0x10]
        0x0000e130:    ed951a05    ....    VLDR     s2,[r5,#0x14]
        0x0000e134:    ee200a00     ...    VMUL.F32 s0,s0,s0
        0x0000e138:    ee211a01    !...    VMUL.F32 s2,s2,s2
        0x0000e13c:    ee308a01    0...    VADD.F32 s16,s0,s2
        0x0000e140:    eeb00a48    ..H.    VMOV.F32 s0,s16
        0x0000e144:    f000fe6c    ..l.    BL       __hardfp_sqrtf ; 0xee20
        0x0000e148:    eeb40a40    ..@.    VCMP.F32 s0,s0
        0x0000e14c:    eef1fa10    ....    VMRS     APSR_nzcv,FPSCR
        0x0000e150:    d629        ).      BVS      0xe1a6 ; arm_cmplx_mag_f32 + 234
        0x0000e152:    ed840a02    ....    VSTR     s0,[r4,#8]
        0x0000e156:    ed950a06    ....    VLDR     s0,[r5,#0x18]
        0x0000e15a:    ed951a07    ....    VLDR     s2,[r5,#0x1c]
        0x0000e15e:    ee200a00     ...    VMUL.F32 s0,s0,s0
        0x0000e162:    ee211a01    !...    VMUL.F32 s2,s2,s2
        0x0000e166:    ee308a01    0...    VADD.F32 s16,s0,s2
        0x0000e16a:    eeb00a48    ..H.    VMOV.F32 s0,s16
        0x0000e16e:    f1050920    .. .    ADD      r9,r5,#0x20
        0x0000e172:    f1040610    ....    ADD      r6,r4,#0x10
        0x0000e176:    f000fe53    ..S.    BL       __hardfp_sqrtf ; 0xee20
        0x0000e17a:    eeb40a40    ..@.    VCMP.F32 s0,s0
        0x0000e17e:    eef1fa10    ....    VMRS     APSR_nzcv,FPSCR
        0x0000e182:    d615        ..      BVS      0xe1b0 ; arm_cmplx_mag_f32 + 244
        0x0000e184:    ed840a03    ....    VSTR     s0,[r4,#0xc]
        0x0000e188:    3f01        .?      SUBS     r7,#1
        0x0000e18a:    464d        MF      MOV      r5,r9
        0x0000e18c:    4634        4F      MOV      r4,r6
        0x0000e18e:    d1a3        ..      BNE      0xe0d8 ; arm_cmplx_mag_f32 + 28
        0x0000e190:    e013        ..      B        0xe1ba ; arm_cmplx_mag_f32 + 254
        0x0000e192:    eeb00a48    ..H.    VMOV.F32 s0,s16
        0x0000e196:    f000fe43    ..C.    BL       __hardfp_sqrtf ; 0xee20
        0x0000e19a:    e7b0        ..      B        0xe0fe ; arm_cmplx_mag_f32 + 66
        0x0000e19c:    eeb00a48    ..H.    VMOV.F32 s0,s16
        0x0000e1a0:    f000fe3e    ..>.    BL       __hardfp_sqrtf ; 0xee20
        0x0000e1a4:    e7c0        ..      B        0xe128 ; arm_cmplx_mag_f32 + 108
        0x0000e1a6:    eeb00a48    ..H.    VMOV.F32 s0,s16
        0x0000e1aa:    f000fe39    ..9.    BL       __hardfp_sqrtf ; 0xee20
        0x0000e1ae:    e7d0        ..      B        0xe152 ; arm_cmplx_mag_f32 + 150
        0x0000e1b0:    eeb00a48    ..H.    VMOV.F32 s0,s16
        0x0000e1b4:    f000fe34    ..4.    BL       __hardfp_sqrtf ; 0xee20
        0x0000e1b8:    e7e4        ..      B        0xe184 ; arm_cmplx_mag_f32 + 200
        0x0000e1ba:    4634        4F      MOV      r4,r6
        0x0000e1bc:    464d        MF      MOV      r5,r9
        0x0000e1be:    f0180603    ....    ANDS     r6,r8,#3
        0x0000e1c2:    d020         .      BEQ      0xe206 ; arm_cmplx_mag_f32 + 330
        0x0000e1c4:    ed950a00    ....    VLDR     s0,[r5,#0]
        0x0000e1c8:    ed951a01    ....    VLDR     s2,[r5,#4]
        0x0000e1cc:    ee200a00     ...    VMUL.F32 s0,s0,s0
        0x0000e1d0:    ee211a01    !...    VMUL.F32 s2,s2,s2
        0x0000e1d4:    ee308a01    0...    VADD.F32 s16,s0,s2
        0x0000e1d8:    eeb00a48    ..H.    VMOV.F32 s0,s16
        0x0000e1dc:    1d27        '.      ADDS     r7,r4,#4
        0x0000e1de:    f000fe1f    ....    BL       __hardfp_sqrtf ; 0xee20
        0x0000e1e2:    eeb40a40    ..@.    VCMP.F32 s0,s0
        0x0000e1e6:    eef1fa10    ....    VMRS     APSR_nzcv,FPSCR
        0x0000e1ea:    d607        ..      BVS      0xe1fc ; arm_cmplx_mag_f32 + 320
        0x0000e1ec:    ed840a00    ....    VSTR     s0,[r4,#0]
        0x0000e1f0:    3e01        .>      SUBS     r6,#1
        0x0000e1f2:    f1050508    ....    ADD      r5,r5,#8
        0x0000e1f6:    463c        <F      MOV      r4,r7
        0x0000e1f8:    d1e4        ..      BNE      0xe1c4 ; arm_cmplx_mag_f32 + 264
        0x0000e1fa:    e004        ..      B        0xe206 ; arm_cmplx_mag_f32 + 330
        0x0000e1fc:    eeb00a48    ..H.    VMOV.F32 s0,s16
        0x0000e200:    f000fe0e    ....    BL       __hardfp_sqrtf ; 0xee20
        0x0000e204:    e7f2        ..      B        0xe1ec ; arm_cmplx_mag_f32 + 304
        0x0000e206:    ecbd8b02    ....    VPOP     {d8}
        0x0000e20a:    b001        ..      ADD      sp,sp,#4
        0x0000e20c:    e8bd83f0    ....    POP      {r4-r9,pc}
    arm_max_f32
        0x0000e210:    b5f0        ..      PUSH     {r4-r7,lr}
        0x0000e212:    ed900a00    ....    VLDR     s0,[r0,#0]
        0x0000e216:    1e4c        L.      SUBS     r4,r1,#1
        0x0000e218:    f04f0c00    O...    MOV      r12,#0
        0x0000e21c:    ebbc0f94    ....    CMP      r12,r4,LSR #2
        0x0000e220:    f1000e04    ....    ADD      lr,r0,#4
        0x0000e224:    d03b        ;.      BEQ      0xe29e ; arm_max_f32 + 142
        0x0000e226:    2701        .'      MOVS     r7,#1
        0x0000e228:    4626        &F      MOV      r6,r4
        0x0000e22a:    08a5        ..      LSRS     r5,r4,#2
        0x0000e22c:    f3670601    g...    BFI      r6,r7,#0,#2
        0x0000e230:    f04f0c00    O...    MOV      r12,#0
        0x0000e234:    2704        .'      MOVS     r7,#4
        0x0000e236:    bf00        ..      NOP      
        0x0000e238:    ed9e1a00    ....    VLDR     s2,[lr,#0]
        0x0000e23c:    ed9e2a01    ...*    VLDR     s4,[lr,#4]
        0x0000e240:    ed9e3a02    ...:    VLDR     s6,[lr,#8]
        0x0000e244:    eeb40a41    ..A.    VCMP.F32 s0,s2
        0x0000e248:    ed9e4a03    ...J    VLDR     s8,[lr,#0xc]
        0x0000e24c:    eef1fa10    ....    VMRS     APSR_nzcv,FPSCR
        0x0000e250:    bfbc        ..      ITT      LT
        0x0000e252:    eeb00a41    ..A.    VMOVLT.F32 s0,s2
        0x0000e256:    f1a70c03    ....    SUBLT    r12,r7,#3
        0x0000e25a:    eeb40a42    ..B.    VCMP.F32 s0,s4
        0x0000e25e:    eef1fa10    ....    VMRS     APSR_nzcv,FPSCR
        0x0000e262:    bfbc        ..      ITT      LT
        0x0000e264:    eeb00a42    ..B.    VMOVLT.F32 s0,s4
        0x0000e268:    f1a70c02    ....    SUBLT    r12,r7,#2
        0x0000e26c:    eeb40a43    ..C.    VCMP.F32 s0,s6
        0x0000e270:    eef1fa10    ....    VMRS     APSR_nzcv,FPSCR
        0x0000e274:    bfbc        ..      ITT      LT
        0x0000e276:    eeb00a43    ..C.    VMOVLT.F32 s0,s6
        0x0000e27a:    f1a70c01    ....    SUBLT    r12,r7,#1
        0x0000e27e:    eeb40a44    ..D.    VCMP.F32 s0,s8
        0x0000e282:    eef1fa10    ....    VMRS     APSR_nzcv,FPSCR
        0x0000e286:    bfbc        ..      ITT      LT
        0x0000e288:    eeb00a44    ..D.    VMOVLT.F32 s0,s8
        0x0000e28c:    46bc        .F      MOVLT    r12,r7
        0x0000e28e:    3d01        .=      SUBS     r5,#1
        0x0000e290:    f1070704    ....    ADD      r7,r7,#4
        0x0000e294:    f10e0e10    ....    ADD      lr,lr,#0x10
        0x0000e298:    d1ce        ..      BNE      0xe238 ; arm_max_f32 + 40
        0x0000e29a:    eb000e86    ....    ADD      lr,r0,r6,LSL #2
        0x0000e29e:    f0140003    ....    ANDS     r0,r4,#3
        0x0000e2a2:    d00e        ..      BEQ      0xe2c2 ; arm_max_f32 + 178
        0x0000e2a4:    4240        @B      RSBS     r0,r0,#0
        0x0000e2a6:    bf00        ..      NOP      
        0x0000e2a8:    ecbe1a01    ....    VLDM     lr!,{s2}
        0x0000e2ac:    eeb40a41    ..A.    VCMP.F32 s0,s2
        0x0000e2b0:    eef1fa10    ....    VMRS     APSR_nzcv,FPSCR
        0x0000e2b4:    bfbc        ..      ITT      LT
        0x0000e2b6:    eeb00a41    ..A.    VMOVLT.F32 s0,s2
        0x0000e2ba:    eb010c00    ....    ADDLT    r12,r1,r0
        0x0000e2be:    3001        .0      ADDS     r0,#1
        0x0000e2c0:    d3f2        ..      BCC      0xe2a8 ; arm_max_f32 + 152
        0x0000e2c2:    ed820a00    ....    VSTR     s0,[r2,#0]
        0x0000e2c6:    f8c3c000    ....    STR      r12,[r3,#0]
        0x0000e2ca:    bdf0        ..      POP      {r4-r7,pc}
    arm_radix4_butterfly_f32
        0x0000e2cc:    e92d4ff0    -..O    PUSH     {r4-r11,lr}
        0x0000e2d0:    b088        ..      SUB      sp,sp,#0x20
        0x0000e2d2:    ea4f0991    O...    LSR      r9,r1,#2
        0x0000e2d6:    ea4f1609    O...    LSL      r6,r9,#4
        0x0000e2da:    eb090749    ..I.    ADD      r7,r9,r9,LSL #1
        0x0000e2de:    9606        ..      STR      r6,[sp,#0x18]
        0x0000e2e0:    ea4f06c9    O...    LSL      r6,r9,#3
        0x0000e2e4:    00ff        ..      LSLS     r7,r7,#3
        0x0000e2e6:    e9cd6204    ...b    STRD     r6,r2,[sp,#0x10]
        0x0000e2ea:    1d16        ..      ADDS     r6,r2,#4
        0x0000e2ec:    eb030243    ..C.    ADD      r2,r3,r3,LSL #1
        0x0000e2f0:    9707        ..      STR      r7,[sp,#0x1c]
        0x0000e2f2:    1d07        ..      ADDS     r7,r0,#4
        0x0000e2f4:    ea4f1a03    O...    LSL      r10,r3,#4
        0x0000e2f8:    ea4f0bc3    O...    LSL      r11,r3,#3
        0x0000e2fc:    ea4f0cc2    O...    LSL      r12,r2,#3
        0x0000e300:    4634        4F      MOV      r4,r6
        0x0000e302:    4632        2F      MOV      r2,r6
        0x0000e304:    461d        .F      MOV      r5,r3
        0x0000e306:    9303        ..      STR      r3,[sp,#0xc]
        0x0000e308:    f8cd9000    ....    STR      r9,[sp,#0]
        0x0000e30c:    9b04        ..      LDR      r3,[sp,#0x10]
        0x0000e30e:    ed170a01    ....    VLDR     s0,[r7,#-4]
        0x0000e312:    18fd        ..      ADDS     r5,r7,r3
        0x0000e314:    9b06        ..      LDR      r3,[sp,#0x18]
        0x0000e316:    ed971a00    ....    VLDR     s2,[r7,#0]
        0x0000e31a:    eb070e03    ....    ADD      lr,r7,r3
        0x0000e31e:    9b07        ..      LDR      r3,[sp,#0x1c]
        0x0000e320:    ed152a01    ...*    VLDR     s4,[r5,#-4]
        0x0000e324:    eb070803    ....    ADD      r8,r7,r3
        0x0000e328:    ed953a00    ...:    VLDR     s6,[r5,#0]
        0x0000e32c:    ed1e4a01    ...J    VLDR     s8,[lr,#-4]
        0x0000e330:    ed9e5a00    ...Z    VLDR     s10,[lr,#0]
        0x0000e334:    ed186a01    ...j    VLDR     s12,[r8,#-4]
        0x0000e338:    ed987a00    ...z    VLDR     s14,[r8,#0]
        0x0000e33c:    ee700a04    p...    VADD.F32 s1,s0,s8
        0x0000e340:    ee721a06    r...    VADD.F32 s3,s4,s12
        0x0000e344:    ee712a05    q..*    VADD.F32 s5,s2,s10
        0x0000e348:    ee733a07    s..:    VADD.F32 s7,s6,s14
        0x0000e34c:    ee322a46    2.F*    VSUB.F32 s4,s4,s12
        0x0000e350:    ee311a45    1.E.    VSUB.F32 s2,s2,s10
        0x0000e354:    ee305aa1    0..Z    VADD.F32 s10,s1,s3
        0x0000e358:    ee326aa3    2..j    VADD.F32 s12,s5,s7
        0x0000e35c:    ed524a01    R..J    VLDR     s9,[r2,#-4]
        0x0000e360:    ee300a44    0.D.    VSUB.F32 s0,s0,s8
        0x0000e364:    ed924a00    ...J    VLDR     s8,[r2,#0]
        0x0000e368:    ee333a47    3.G:    VSUB.F32 s6,s6,s14
        0x0000e36c:    ed075a01    ...Z    VSTR     s10,[r7,#-4]
        0x0000e370:    ed876a00    ...j    VSTR     s12,[r7,#0]
        0x0000e374:    ee305a03    0..Z    VADD.F32 s10,s0,s6
        0x0000e378:    ee316a42    1.Bj    VSUB.F32 s12,s2,s4
        0x0000e37c:    ee307ae1    0..z    VSUB.F32 s14,s1,s3
        0x0000e380:    ee720ae3    r...    VSUB.F32 s1,s5,s7
        0x0000e384:    ee300a43    0.C.    VSUB.F32 s0,s0,s6
        0x0000e388:    ee311a02    1...    VADD.F32 s2,s2,s4
        0x0000e38c:    ed142a01    ...*    VLDR     s4,[r4,#-4]
        0x0000e390:    ed943a00    ...:    VLDR     s6,[r4,#0]
        0x0000e394:    ed561a01    V...    VLDR     s3,[r6,#-4]
        0x0000e398:    edd62a00    ...*    VLDR     s5,[r6,#0]
        0x0000e39c:    ee653a02    e..:    VMUL.F32 s7,s10,s4
        0x0000e3a0:    ee262a02    &..*    VMUL.F32 s4,s12,s4
        0x0000e3a4:    ee266a03    &..j    VMUL.F32 s12,s12,s6
        0x0000e3a8:    ee253a03    %..:    VMUL.F32 s6,s10,s6
        0x0000e3ac:    ee275a24    '.$Z    VMUL.F32 s10,s14,s9
        0x0000e3b0:    ee644aa0    d..J    VMUL.F32 s9,s9,s1
        0x0000e3b4:    ee600a84    `...    VMUL.F32 s1,s1,s8
        0x0000e3b8:    ee274a04    '..J    VMUL.F32 s8,s14,s8
        0x0000e3bc:    ee207a21     .!z    VMUL.F32 s14,s0,s3
        0x0000e3c0:    ee611a21    a.!.    VMUL.F32 s3,s2,s3
        0x0000e3c4:    ee211a22    !.".    VMUL.F32 s2,s2,s5
        0x0000e3c8:    ee200a22     .".    VMUL.F32 s0,s0,s5
        0x0000e3cc:    ee336a86    3..j    VADD.F32 s12,s7,s12
        0x0000e3d0:    ee322a43    2.C*    VSUB.F32 s4,s4,s6
        0x0000e3d4:    ee353a20    5. :    VADD.F32 s6,s10,s1
        0x0000e3d8:    ee344ac4    4..J    VSUB.F32 s8,s9,s8
        0x0000e3dc:    ee371a01    7...    VADD.F32 s2,s14,s2
        0x0000e3e0:    ee310ac0    1...    VSUB.F32 s0,s3,s0
        0x0000e3e4:    f1b90901    ....    SUBS     r9,r9,#1
        0x0000e3e8:    f1070708    ....    ADD      r7,r7,#8
        0x0000e3ec:    4452        RD      ADD      r2,r2,r10
        0x0000e3ee:    445c        \D      ADD      r4,r4,r11
        0x0000e3f0:    4466        fD      ADD      r6,r6,r12
        0x0000e3f2:    ed053a01    ...:    VSTR     s6,[r5,#-4]
        0x0000e3f6:    ed854a00    ...J    VSTR     s8,[r5,#0]
        0x0000e3fa:    ed0e6a01    ...j    VSTR     s12,[lr,#-4]
        0x0000e3fe:    ed8e2a00    ...*    VSTR     s4,[lr,#0]
        0x0000e402:    ed081a01    ....    VSTR     s2,[r8,#-4]
        0x0000e406:    ed880a00    ....    VSTR     s0,[r8,#0]
        0x0000e40a:    f47faf7f    ....    BNE      0xe30c ; arm_radix4_butterfly_f32 + 64
        0x0000e40e:    2914        .)      CMP      r1,#0x14
        0x0000e410:    f0c080c1    ....    BCC.W    0xe596 ; arm_radix4_butterfly_f32 + 714
        0x0000e414:    9d00        ..      LDR      r5,[sp,#0]
        0x0000e416:    9001        ..      STR      r0,[sp,#4]
        0x0000e418:    462a        *F      MOV      r2,r5
        0x0000e41a:    bf00        ..      NOP      
        0x0000e41c:    9204        ..      STR      r2,[sp,#0x10]
        0x0000e41e:    9a03        ..      LDR      r2,[sp,#0xc]
        0x0000e420:    08ab        ..      LSRS     r3,r5,#2
        0x0000e422:    0092        ..      LSLS     r2,r2,#2
        0x0000e424:    9203        ..      STR      r2,[sp,#0xc]
        0x0000e426:    b292        ..      UXTH     r2,r2
        0x0000e428:    9207        ..      STR      r2,[sp,#0x1c]
        0x0000e42a:    f04f32ff    O..2    MOV      r2,#0xffffffff
        0x0000e42e:    eb020295    ....    ADD      r2,r2,r5,LSR #2
        0x0000e432:    9206        ..      STR      r2,[sp,#0x18]
        0x0000e434:    eb030243    ..C.    ADD      r2,r3,r3,LSL #1
        0x0000e438:    00d7        ..      LSLS     r7,r2,#3
        0x0000e43a:    00da        ..      LSLS     r2,r3,#3
        0x0000e43c:    00ee        ..      LSLS     r6,r5,#3
        0x0000e43e:    1d14        ..      ADDS     r4,r2,#4
        0x0000e440:    ea4f1e03    O...    LSL      lr,r3,#4
        0x0000e444:    f04f0c00    O...    MOV      r12,#0
        0x0000e448:    4602        .F      MOV      r2,r0
        0x0000e44a:    f04f0900    O...    MOV      r9,#0
        0x0000e44e:    9302        ..      STR      r3,[sp,#8]
        0x0000e450:    4690        .F      MOV      r8,r2
        0x0000e452:    9a05        ..      LDR      r2,[sp,#0x14]
        0x0000e454:    ea4f03c9    O...    LSL      r3,r9,#3
        0x0000e458:    eb0200c9    ....    ADD      r0,r2,r9,LSL #3
        0x0000e45c:    ed900a00    ....    VLDR     s0,[r0,#0]
        0x0000e460:    1d18        ..      ADDS     r0,r3,#4
        0x0000e462:    4410        .D      ADD      r0,r0,r2
        0x0000e464:    ed901a00    ....    VLDR     s2,[r0,#0]
        0x0000e468:    eb021009    ....    ADD      r0,r2,r9,LSL #4
        0x0000e46c:    ea4f1309    O...    LSL      r3,r9,#4
        0x0000e470:    ed902a00    ...*    VLDR     s4,[r0,#0]
        0x0000e474:    1d18        ..      ADDS     r0,r3,#4
        0x0000e476:    4410        .D      ADD      r0,r0,r2
        0x0000e478:    ed903a00    ...:    VLDR     s6,[r0,#0]
        0x0000e47c:    eb090049    ..I.    ADD      r0,r9,r9,LSL #1
        0x0000e480:    eb0203c0    ....    ADD      r3,r2,r0,LSL #3
        0x0000e484:    00c0        ..      LSLS     r0,r0,#3
        0x0000e486:    3004        .0      ADDS     r0,#4
        0x0000e488:    4410        .D      ADD      r0,r0,r2
        0x0000e48a:    ed934a00    ...J    VLDR     s8,[r3,#0]
        0x0000e48e:    ed905a00    ...Z    VLDR     s10,[r0,#0]
        0x0000e492:    4642        BF      MOV      r2,r8
        0x0000e494:    4640        @F      MOV      r0,r8
        0x0000e496:    46e0        .F      MOV      r8,r12
        0x0000e498:    eb000a04    ....    ADD      r10,r0,r4
        0x0000e49c:    eb000b0e    ....    ADD      r11,r0,lr
        0x0000e4a0:    19c3        ..      ADDS     r3,r0,r7
        0x0000e4a2:    ed906a00    ...j    VLDR     s12,[r0,#0]
        0x0000e4a6:    ed1a7a01    ...z    VLDR     s14,[r10,#-4]
        0x0000e4aa:    eddb0a00    ....    VLDR     s1,[r11,#0]
        0x0000e4ae:    edd31a00    ....    VLDR     s3,[r3,#0]
        0x0000e4b2:    ee762a60    v.`*    VSUB.F32 s5,s12,s1
        0x0000e4b6:    ee366a20    6. j    VADD.F32 s12,s12,s1
        0x0000e4ba:    ee770a61    w.a.    VSUB.F32 s1,s14,s3
        0x0000e4be:    ee377a21    7.!z    VADD.F32 s14,s14,s3
        0x0000e4c2:    edd01a01    ....    VLDR     s3,[r0,#4]
        0x0000e4c6:    edda3a00    ...:    VLDR     s7,[r10,#0]
        0x0000e4ca:    eddb4a01    ...J    VLDR     s9,[r11,#4]
        0x0000e4ce:    edd35a01    ...Z    VLDR     s11,[r3,#4]
        0x0000e4d2:    ee716ae4    q..j    VSUB.F32 s13,s3,s9
        0x0000e4d6:    ee711aa4    q...    VADD.F32 s3,s3,s9
        0x0000e4da:    ee734ae5    s..J    VSUB.F32 s9,s7,s11
        0x0000e4de:    ee733aa5    s..:    VADD.F32 s7,s7,s11
        0x0000e4e2:    ee725aa4    r..Z    VADD.F32 s11,s5,s9
        0x0000e4e6:    ee722ae4    r..*    VSUB.F32 s5,s5,s9
        0x0000e4ea:    ee764ae0    v..J    VSUB.F32 s9,s13,s1
        0x0000e4ee:    ee760aa0    v...    VADD.F32 s1,s13,s1
        0x0000e4f2:    ee766a47    v.Gj    VSUB.F32 s13,s12,s14
        0x0000e4f6:    ee366a07    6..j    VADD.F32 s12,s12,s14
        0x0000e4fa:    ee317ae3    1..z    VSUB.F32 s14,s3,s7
        0x0000e4fe:    ee711aa3    q...    VADD.F32 s3,s3,s7
        0x0000e502:    ed806a00    ...j    VSTR     s12,[r0,#0]
        0x0000e506:    edc01a01    ....    VSTR     s3,[r0,#4]
        0x0000e50a:    ee206a25     .%j    VMUL.F32 s12,s0,s11
        0x0000e50e:    ee611a24    a.$.    VMUL.F32 s3,s2,s9
        0x0000e512:    ee316a86    1..j    VADD.F32 s12,s3,s12
        0x0000e516:    ee601a24    `.$.    VMUL.F32 s3,s0,s9
        0x0000e51a:    ee613a25    a.%:    VMUL.F32 s7,s2,s11
        0x0000e51e:    ee711ae3    q...    VSUB.F32 s3,s3,s7
        0x0000e522:    ee623a26    b.&:    VMUL.F32 s7,s4,s13
        0x0000e526:    ee634a07    c..J    VMUL.F32 s9,s6,s14
        0x0000e52a:    ee733aa4    s..:    VADD.F32 s7,s7,s9
        0x0000e52e:    ee227a07    "..z    VMUL.F32 s14,s4,s14
        0x0000e532:    ee634a26    c.&J    VMUL.F32 s9,s6,s13
        0x0000e536:    ee377a64    7.dz    VSUB.F32 s14,s14,s9
        0x0000e53a:    ee644a22    d."J    VMUL.F32 s9,s8,s5
        0x0000e53e:    ee655a20    e. Z    VMUL.F32 s11,s10,s1
        0x0000e542:    ee640a20    d. .    VMUL.F32 s1,s8,s1
        0x0000e546:    ee652a22    e."*    VMUL.F32 s5,s10,s5
        0x0000e54a:    44a8        .D      ADD      r8,r8,r5
        0x0000e54c:    ee754aa4    u..J    VADD.F32 s9,s11,s9
        0x0000e550:    ee700ae2    p...    VSUB.F32 s1,s1,s5
        0x0000e554:    4588        .E      CMP      r8,r1
        0x0000e556:    4430        0D      ADD      r0,r0,r6
        0x0000e558:    ed4a3a01    J..:    VSTR     s7,[r10,#-4]
        0x0000e55c:    ed8a7a00    ...z    VSTR     s14,[r10,#0]
        0x0000e560:    ed8b6a00    ...j    VSTR     s12,[r11,#0]
        0x0000e564:    edcb1a01    ....    VSTR     s3,[r11,#4]
        0x0000e568:    edc34a00    ...J    VSTR     s9,[r3,#0]
        0x0000e56c:    edc30a01    ....    VSTR     s1,[r3,#4]
        0x0000e570:    d392        ..      BCC      0xe498 ; arm_radix4_butterfly_f32 + 460
        0x0000e572:    9807        ..      LDR      r0,[sp,#0x1c]
        0x0000e574:    f10c0c01    ....    ADD      r12,r12,#1
        0x0000e578:    4481        .D      ADD      r9,r9,r0
        0x0000e57a:    9806        ..      LDR      r0,[sp,#0x18]
        0x0000e57c:    3208        .2      ADDS     r2,r2,#8
        0x0000e57e:    4584        .E      CMP      r12,r0
        0x0000e580:    f67faf66    ..f.    BLS      0xe450 ; arm_radix4_butterfly_f32 + 388
        0x0000e584:    9804        ..      LDR      r0,[sp,#0x10]
        0x0000e586:    2813        .(      CMP      r0,#0x13
        0x0000e588:    ea4f0090    O...    LSR      r0,r0,#2
        0x0000e58c:    4602        .F      MOV      r2,r0
        0x0000e58e:    e9dd0501    ....    LDRD     r0,r5,[sp,#4]
        0x0000e592:    f63faf43    ?.C.    BHI      0xe41c ; arm_radix4_butterfly_f32 + 336
        0x0000e596:    9900        ..      LDR      r1,[sp,#0]
        0x0000e598:    ed900a00    ....    VLDR     s0,[r0,#0]
        0x0000e59c:    ed901a01    ....    VLDR     s2,[r0,#4]
        0x0000e5a0:    ed902a02    ...*    VLDR     s4,[r0,#8]
        0x0000e5a4:    ed903a03    ...:    VLDR     s6,[r0,#0xc]
        0x0000e5a8:    ed904a04    ...J    VLDR     s8,[r0,#0x10]
        0x0000e5ac:    ed905a05    ...Z    VLDR     s10,[r0,#0x14]
        0x0000e5b0:    ed906a06    ...j    VLDR     s12,[r0,#0x18]
        0x0000e5b4:    ed907a07    ...z    VLDR     s14,[r0,#0x1c]
        0x0000e5b8:    ee700a04    p...    VADD.F32 s1,s0,s8
        0x0000e5bc:    ee300a44    0.D.    VSUB.F32 s0,s0,s8
        0x0000e5c0:    ee314a05    1..J    VADD.F32 s8,s2,s10
        0x0000e5c4:    ee311a45    1.E.    VSUB.F32 s2,s2,s10
        0x0000e5c8:    ee325a06    2..Z    VADD.F32 s10,s4,s12
        0x0000e5cc:    ee731a07    s...    VADD.F32 s3,s6,s14
        0x0000e5d0:    ee322a46    2.F*    VSUB.F32 s4,s4,s12
        0x0000e5d4:    ee333a47    3.G:    VSUB.F32 s6,s6,s14
        0x0000e5d8:    ee306a85    0..j    VADD.F32 s12,s1,s10
        0x0000e5dc:    ee347a21    4.!z    VADD.F32 s14,s8,s3
        0x0000e5e0:    ee305ac5    0..Z    VSUB.F32 s10,s1,s10
        0x0000e5e4:    ee344a61    4.aJ    VSUB.F32 s8,s8,s3
        0x0000e5e8:    ee700a03    p...    VADD.F32 s1,s0,s6
        0x0000e5ec:    ee711a42    q.B.    VSUB.F32 s3,s2,s4
        0x0000e5f0:    ee300a43    0.C.    VSUB.F32 s0,s0,s6
        0x0000e5f4:    ee311a02    1...    VADD.F32 s2,s2,s4
        0x0000e5f8:    ed806a00    ...j    VSTR     s12,[r0,#0]
        0x0000e5fc:    ed807a01    ...z    VSTR     s14,[r0,#4]
        0x0000e600:    ed805a02    ...Z    VSTR     s10,[r0,#8]
        0x0000e604:    ed804a03    ...J    VSTR     s8,[r0,#0xc]
        0x0000e608:    edc00a04    ....    VSTR     s1,[r0,#0x10]
        0x0000e60c:    edc01a05    ....    VSTR     s3,[r0,#0x14]
        0x0000e610:    ed800a06    ....    VSTR     s0,[r0,#0x18]
        0x0000e614:    ed801a07    ....    VSTR     s2,[r0,#0x1c]
        0x0000e618:    3901        .9      SUBS     r1,#1
        0x0000e61a:    f1000020    .. .    ADD      r0,r0,#0x20
        0x0000e61e:    d1bb        ..      BNE      0xe598 ; arm_radix4_butterfly_f32 + 716
        0x0000e620:    b008        ..      ADD      sp,sp,#0x20
        0x0000e622:    e8bd8ff0    ....    POP      {r4-r11,pc}
        0x0000e626:    0000        ..      MOVS     r0,r0
    arm_radix4_butterfly_inverse_f32
        0x0000e628:    e92d4ff0    -..O    PUSH     {r4-r11,lr}
        0x0000e62c:    b088        ..      SUB      sp,sp,#0x20
        0x0000e62e:    ea4f0991    O...    LSR      r9,r1,#2
        0x0000e632:    ea4f1609    O...    LSL      r6,r9,#4
        0x0000e636:    eb090749    ..I.    ADD      r7,r9,r9,LSL #1
        0x0000e63a:    9606        ..      STR      r6,[sp,#0x18]
        0x0000e63c:    ea4f06c9    O...    LSL      r6,r9,#3
        0x0000e640:    00ff        ..      LSLS     r7,r7,#3
        0x0000e642:    e9cd6204    ...b    STRD     r6,r2,[sp,#0x10]
        0x0000e646:    1d16        ..      ADDS     r6,r2,#4
        0x0000e648:    eb030243    ..C.    ADD      r2,r3,r3,LSL #1
        0x0000e64c:    9707        ..      STR      r7,[sp,#0x1c]
        0x0000e64e:    1d07        ..      ADDS     r7,r0,#4
        0x0000e650:    ea4f1a03    O...    LSL      r10,r3,#4
        0x0000e654:    ea4f0bc3    O...    LSL      r11,r3,#3
        0x0000e658:    ea4f0cc2    O...    LSL      r12,r2,#3
        0x0000e65c:    4634        4F      MOV      r4,r6
        0x0000e65e:    4632        2F      MOV      r2,r6
        0x0000e660:    461d        .F      MOV      r5,r3
        0x0000e662:    9303        ..      STR      r3,[sp,#0xc]
        0x0000e664:    f8cd9000    ....    STR      r9,[sp,#0]
        0x0000e668:    9b06        ..      LDR      r3,[sp,#0x18]
        0x0000e66a:    ed171a01    ....    VLDR     s2,[r7,#-4]
        0x0000e66e:    18fd        ..      ADDS     r5,r7,r3
        0x0000e670:    9b04        ..      LDR      r3,[sp,#0x10]
        0x0000e672:    ed972a00    ...*    VLDR     s4,[r7,#0]
        0x0000e676:    eb070803    ....    ADD      r8,r7,r3
        0x0000e67a:    9b07        ..      LDR      r3,[sp,#0x1c]
        0x0000e67c:    ed153a01    ...:    VLDR     s6,[r5,#-4]
        0x0000e680:    eb070e03    ....    ADD      lr,r7,r3
        0x0000e684:    ed954a00    ...J    VLDR     s8,[r5,#0]
        0x0000e688:    ed185a01    ...Z    VLDR     s10,[r8,#-4]
        0x0000e68c:    ed986a00    ...j    VLDR     s12,[r8,#0]
        0x0000e690:    ed1e7a01    ...z    VLDR     s14,[lr,#-4]
        0x0000e694:    edde0a00    ....    VLDR     s1,[lr,#0]
        0x0000e698:    ee711a03    q...    VADD.F32 s3,s2,s6
        0x0000e69c:    ee752a07    u..*    VADD.F32 s5,s10,s14
        0x0000e6a0:    ee723a04    r..:    VADD.F32 s7,s4,s8
        0x0000e6a4:    ee764a20    v. J    VADD.F32 s9,s12,s1
        0x0000e6a8:    ee355a47    5.GZ    VSUB.F32 s10,s10,s14
        0x0000e6ac:    ee322a44    2.D*    VSUB.F32 s4,s4,s8
        0x0000e6b0:    ee364a60    6.`J    VSUB.F32 s8,s12,s1
        0x0000e6b4:    ee316aa2    1..j    VADD.F32 s12,s3,s5
        0x0000e6b8:    ee337aa4    3..z    VADD.F32 s14,s7,s9
        0x0000e6bc:    ed525a01    R..Z    VLDR     s11,[r2,#-4]
        0x0000e6c0:    ee311a43    1.C.    VSUB.F32 s2,s2,s6
        0x0000e6c4:    ed923a00    ...:    VLDR     s6,[r2,#0]
        0x0000e6c8:    ed076a01    ...j    VSTR     s12,[r7,#-4]
        0x0000e6cc:    ed877a00    ...z    VSTR     s14,[r7,#0]
        0x0000e6d0:    ee316a44    1.Dj    VSUB.F32 s12,s2,s8
        0x0000e6d4:    ee327a05    2..z    VADD.F32 s14,s4,s10
        0x0000e6d8:    ee710ae2    q...    VSUB.F32 s1,s3,s5
        0x0000e6dc:    ee731ae4    s...    VSUB.F32 s3,s7,s9
        0x0000e6e0:    ee311a04    1...    VADD.F32 s2,s2,s8
        0x0000e6e4:    ee322a45    2.E*    VSUB.F32 s4,s4,s10
        0x0000e6e8:    ed144a01    ...J    VLDR     s8,[r4,#-4]
        0x0000e6ec:    ed945a00    ...Z    VLDR     s10,[r4,#0]
        0x0000e6f0:    ed562a01    V..*    VLDR     s5,[r6,#-4]
        0x0000e6f4:    edd63a00    ...:    VLDR     s7,[r6,#0]
        0x0000e6f8:    ee664a04    f..J    VMUL.F32 s9,s12,s8
        0x0000e6fc:    ee274a04    '..J    VMUL.F32 s8,s14,s8
        0x0000e700:    ee277a05    '..z    VMUL.F32 s14,s14,s10
        0x0000e704:    ee265a05    &..Z    VMUL.F32 s10,s12,s10
        0x0000e708:    ee206aa5     ..j    VMUL.F32 s12,s1,s11
        0x0000e70c:    ee655aa1    e..Z    VMUL.F32 s11,s11,s3
        0x0000e710:    ee611a83    a...    VMUL.F32 s3,s3,s6
        0x0000e714:    ee203a83     ..:    VMUL.F32 s6,s1,s6
        0x0000e718:    ee610a22    a.".    VMUL.F32 s1,s2,s5
        0x0000e71c:    ee622a22    b."*    VMUL.F32 s5,s4,s5
        0x0000e720:    ee222a23    ".#*    VMUL.F32 s4,s4,s7
        0x0000e724:    ee211a23    !.#.    VMUL.F32 s2,s2,s7
        0x0000e728:    ee347ac7    4..z    VSUB.F32 s14,s9,s14
        0x0000e72c:    ee344a05    4..J    VADD.F32 s8,s8,s10
        0x0000e730:    ee365a61    6.aZ    VSUB.F32 s10,s12,s3
        0x0000e734:    ee353a83    5..:    VADD.F32 s6,s11,s6
        0x0000e738:    ee302ac2    0..*    VSUB.F32 s4,s1,s4
        0x0000e73c:    ee321a81    2...    VADD.F32 s2,s5,s2
        0x0000e740:    f1b90901    ....    SUBS     r9,r9,#1
        0x0000e744:    f1070708    ....    ADD      r7,r7,#8
        0x0000e748:    4452        RD      ADD      r2,r2,r10
        0x0000e74a:    445c        \D      ADD      r4,r4,r11
        0x0000e74c:    4466        fD      ADD      r6,r6,r12
        0x0000e74e:    ed085a01    ...Z    VSTR     s10,[r8,#-4]
        0x0000e752:    ed883a00    ...:    VSTR     s6,[r8,#0]
        0x0000e756:    ed057a01    ...z    VSTR     s14,[r5,#-4]
        0x0000e75a:    ed854a00    ...J    VSTR     s8,[r5,#0]
        0x0000e75e:    ed0e2a01    ...*    VSTR     s4,[lr,#-4]
        0x0000e762:    ed8e1a00    ....    VSTR     s2,[lr,#0]
        0x0000e766:    f47faf7f    ....    BNE      0xe668 ; arm_radix4_butterfly_inverse_f32 + 64
        0x0000e76a:    2914        .)      CMP      r1,#0x14
        0x0000e76c:    f0c080c1    ....    BCC.W    0xe8f2 ; arm_radix4_butterfly_inverse_f32 + 714
        0x0000e770:    9d00        ..      LDR      r5,[sp,#0]
        0x0000e772:    9001        ..      STR      r0,[sp,#4]
        0x0000e774:    462a        *F      MOV      r2,r5
        0x0000e776:    bf00        ..      NOP      
        0x0000e778:    9204        ..      STR      r2,[sp,#0x10]
        0x0000e77a:    9a03        ..      LDR      r2,[sp,#0xc]
        0x0000e77c:    08ab        ..      LSRS     r3,r5,#2
        0x0000e77e:    0092        ..      LSLS     r2,r2,#2
        0x0000e780:    9203        ..      STR      r2,[sp,#0xc]
        0x0000e782:    b292        ..      UXTH     r2,r2
        0x0000e784:    9207        ..      STR      r2,[sp,#0x1c]
        0x0000e786:    f04f32ff    O..2    MOV      r2,#0xffffffff
        0x0000e78a:    eb020295    ....    ADD      r2,r2,r5,LSR #2
        0x0000e78e:    9206        ..      STR      r2,[sp,#0x18]
        0x0000e790:    eb030243    ..C.    ADD      r2,r3,r3,LSL #1
        0x0000e794:    00d7        ..      LSLS     r7,r2,#3
        0x0000e796:    00da        ..      LSLS     r2,r3,#3
        0x0000e798:    00ee        ..      LSLS     r6,r5,#3
        0x0000e79a:    1d14        ..      ADDS     r4,r2,#4
        0x0000e79c:    ea4f1e03    O...    LSL      lr,r3,#4
        0x0000e7a0:    f04f0c00    O...    MOV      r12,#0
        0x0000e7a4:    4602        .F      MOV      r2,r0
        0x0000e7a6:    f04f0900    O...    MOV      r9,#0
        0x0000e7aa:    9302        ..      STR      r3,[sp,#8]
        0x0000e7ac:    4690        .F      MOV      r8,r2
        0x0000e7ae:    9a05        ..      LDR      r2,[sp,#0x14]
        0x0000e7b0:    ea4f03c9    O...    LSL      r3,r9,#3
        0x0000e7b4:    eb0200c9    ....    ADD      r0,r2,r9,LSL #3
        0x0000e7b8:    ed901a00    ....    VLDR     s2,[r0,#0]
        0x0000e7bc:    1d18        ..      ADDS     r0,r3,#4
        0x0000e7be:    4410        .D      ADD      r0,r0,r2
        0x0000e7c0:    ed902a00    ...*    VLDR     s4,[r0,#0]
        0x0000e7c4:    eb021009    ....    ADD      r0,r2,r9,LSL #4
        0x0000e7c8:    ea4f1309    O...    LSL      r3,r9,#4
        0x0000e7cc:    ed903a00    ...:    VLDR     s6,[r0,#0]
        0x0000e7d0:    1d18        ..      ADDS     r0,r3,#4
        0x0000e7d2:    4410        .D      ADD      r0,r0,r2
        0x0000e7d4:    ed904a00    ...J    VLDR     s8,[r0,#0]
        0x0000e7d8:    eb090049    ..I.    ADD      r0,r9,r9,LSL #1
        0x0000e7dc:    eb0203c0    ....    ADD      r3,r2,r0,LSL #3
        0x0000e7e0:    00c0        ..      LSLS     r0,r0,#3
        0x0000e7e2:    3004        .0      ADDS     r0,#4
        0x0000e7e4:    4410        .D      ADD      r0,r0,r2
        0x0000e7e6:    ed935a00    ...Z    VLDR     s10,[r3,#0]
        0x0000e7ea:    ed906a00    ...j    VLDR     s12,[r0,#0]
        0x0000e7ee:    4642        BF      MOV      r2,r8
        0x0000e7f0:    4640        @F      MOV      r0,r8
        0x0000e7f2:    46e0        .F      MOV      r8,r12
        0x0000e7f4:    eb000a04    ....    ADD      r10,r0,r4
        0x0000e7f8:    eb000b0e    ....    ADD      r11,r0,lr
        0x0000e7fc:    19c3        ..      ADDS     r3,r0,r7
        0x0000e7fe:    ed907a00    ...z    VLDR     s14,[r0,#0]
        0x0000e802:    ed5a0a01    Z...    VLDR     s1,[r10,#-4]
        0x0000e806:    eddb1a00    ....    VLDR     s3,[r11,#0]
        0x0000e80a:    edd32a00    ...*    VLDR     s5,[r3,#0]
        0x0000e80e:    ee773a61    w.a:    VSUB.F32 s7,s14,s3
        0x0000e812:    ee377a21    7.!z    VADD.F32 s14,s14,s3
        0x0000e816:    ee701ae2    p...    VSUB.F32 s3,s1,s5
        0x0000e81a:    ee700aa2    p...    VADD.F32 s1,s1,s5
        0x0000e81e:    edd02a01    ...*    VLDR     s5,[r0,#4]
        0x0000e822:    edda4a00    ...J    VLDR     s9,[r10,#0]
        0x0000e826:    eddb5a01    ...Z    VLDR     s11,[r11,#4]
        0x0000e82a:    edd36a01    ...j    VLDR     s13,[r3,#4]
        0x0000e82e:    ee727ae5    r..z    VSUB.F32 s15,s5,s11
        0x0000e832:    ee722aa5    r..*    VADD.F32 s5,s5,s11
        0x0000e836:    ee745ae6    t..Z    VSUB.F32 s11,s9,s13
        0x0000e83a:    ee744aa6    t..J    VADD.F32 s9,s9,s13
        0x0000e83e:    ee736ae5    s..j    VSUB.F32 s13,s7,s11
        0x0000e842:    ee733aa5    s..:    VADD.F32 s7,s7,s11
        0x0000e846:    ee775aa1    w..Z    VADD.F32 s11,s15,s3
        0x0000e84a:    ee771ae1    w...    VSUB.F32 s3,s15,s3
        0x0000e84e:    ee777a60    w.`z    VSUB.F32 s15,s14,s1
        0x0000e852:    ee377a20    7. z    VADD.F32 s14,s14,s1
        0x0000e856:    ee720ae4    r...    VSUB.F32 s1,s5,s9
        0x0000e85a:    ee722aa4    r..*    VADD.F32 s5,s5,s9
        0x0000e85e:    ed807a00    ...z    VSTR     s14,[r0,#0]
        0x0000e862:    edc02a01    ...*    VSTR     s5,[r0,#4]
        0x0000e866:    ee217a26    !.&z    VMUL.F32 s14,s2,s13
        0x0000e86a:    ee622a25    b.%*    VMUL.F32 s5,s4,s11
        0x0000e86e:    ee377a62    7.bz    VSUB.F32 s14,s14,s5
        0x0000e872:    ee612a25    a.%*    VMUL.F32 s5,s2,s11
        0x0000e876:    ee624a26    b.&J    VMUL.F32 s9,s4,s13
        0x0000e87a:    ee722aa4    r..*    VADD.F32 s5,s5,s9
        0x0000e87e:    ee634a27    c.'J    VMUL.F32 s9,s6,s15
        0x0000e882:    ee645a20    d. Z    VMUL.F32 s11,s8,s1
        0x0000e886:    ee744ae5    t..J    VSUB.F32 s9,s9,s11
        0x0000e88a:    ee630a20    c. .    VMUL.F32 s1,s6,s1
        0x0000e88e:    ee645a27    d.'Z    VMUL.F32 s11,s8,s15
        0x0000e892:    ee750aa0    u...    VADD.F32 s1,s11,s1
        0x0000e896:    ee655a23    e.#Z    VMUL.F32 s11,s10,s7
        0x0000e89a:    ee666a21    f.!j    VMUL.F32 s13,s12,s3
        0x0000e89e:    ee651a21    e.!.    VMUL.F32 s3,s10,s3
        0x0000e8a2:    ee663a23    f.#:    VMUL.F32 s7,s12,s7
        0x0000e8a6:    44a8        .D      ADD      r8,r8,r5
        0x0000e8a8:    ee755ae6    u..Z    VSUB.F32 s11,s11,s13
        0x0000e8ac:    ee711aa3    q...    VADD.F32 s3,s3,s7
        0x0000e8b0:    4588        .E      CMP      r8,r1
        0x0000e8b2:    4430        0D      ADD      r0,r0,r6
        0x0000e8b4:    ed4a4a01    J..J    VSTR     s9,[r10,#-4]
        0x0000e8b8:    edca0a00    ....    VSTR     s1,[r10,#0]
        0x0000e8bc:    ed8b7a00    ...z    VSTR     s14,[r11,#0]
        0x0000e8c0:    edcb2a01    ...*    VSTR     s5,[r11,#4]
        0x0000e8c4:    edc35a00    ...Z    VSTR     s11,[r3,#0]
        0x0000e8c8:    edc31a01    ....    VSTR     s3,[r3,#4]
        0x0000e8cc:    d392        ..      BCC      0xe7f4 ; arm_radix4_butterfly_inverse_f32 + 460
        0x0000e8ce:    9807        ..      LDR      r0,[sp,#0x1c]
        0x0000e8d0:    f10c0c01    ....    ADD      r12,r12,#1
        0x0000e8d4:    4481        .D      ADD      r9,r9,r0
        0x0000e8d6:    9806        ..      LDR      r0,[sp,#0x18]
        0x0000e8d8:    3208        .2      ADDS     r2,r2,#8
        0x0000e8da:    4584        .E      CMP      r12,r0
        0x0000e8dc:    f67faf66    ..f.    BLS      0xe7ac ; arm_radix4_butterfly_inverse_f32 + 388
        0x0000e8e0:    9804        ..      LDR      r0,[sp,#0x10]
        0x0000e8e2:    2813        .(      CMP      r0,#0x13
        0x0000e8e4:    ea4f0090    O...    LSR      r0,r0,#2
        0x0000e8e8:    4602        .F      MOV      r2,r0
        0x0000e8ea:    e9dd0501    ....    LDRD     r0,r5,[sp,#4]
        0x0000e8ee:    f63faf43    ?.C.    BHI      0xe778 ; arm_radix4_butterfly_inverse_f32 + 336
        0x0000e8f2:    9900        ..      LDR      r1,[sp,#0]
        0x0000e8f4:    ed901a00    ....    VLDR     s2,[r0,#0]
        0x0000e8f8:    ed902a01    ...*    VLDR     s4,[r0,#4]
        0x0000e8fc:    ed903a02    ...:    VLDR     s6,[r0,#8]
        0x0000e900:    ed904a03    ...J    VLDR     s8,[r0,#0xc]
        0x0000e904:    ed905a04    ...Z    VLDR     s10,[r0,#0x10]
        0x0000e908:    ed906a05    ...j    VLDR     s12,[r0,#0x14]
        0x0000e90c:    ed907a06    ...z    VLDR     s14,[r0,#0x18]
        0x0000e910:    edd00a07    ....    VLDR     s1,[r0,#0x1c]
        0x0000e914:    ee711a05    q...    VADD.F32 s3,s2,s10
        0x0000e918:    ee311a45    1.E.    VSUB.F32 s2,s2,s10
        0x0000e91c:    ee325a06    2..Z    VADD.F32 s10,s4,s12
        0x0000e920:    ee322a46    2.F*    VSUB.F32 s4,s4,s12
        0x0000e924:    ee336a07    3..j    VADD.F32 s12,s6,s14
        0x0000e928:    ee742a20    t. *    VADD.F32 s5,s8,s1
        0x0000e92c:    ee333a47    3.G:    VSUB.F32 s6,s6,s14
        0x0000e930:    ee344a60    4.`J    VSUB.F32 s8,s8,s1
        0x0000e934:    ee317a86    1..z    VADD.F32 s14,s3,s12
        0x0000e938:    ee750a22    u.".    VADD.F32 s1,s10,s5
        0x0000e93c:    ee316ac6    1..j    VSUB.F32 s12,s3,s12
        0x0000e940:    ee355a62    5.bZ    VSUB.F32 s10,s10,s5
        0x0000e944:    ee711a44    q.D.    VSUB.F32 s3,s2,s8
        0x0000e948:    ee722a03    r..*    VADD.F32 s5,s4,s6
        0x0000e94c:    ee311a04    1...    VADD.F32 s2,s2,s8
        0x0000e950:    ee322a43    2.C*    VSUB.F32 s4,s4,s6
        0x0000e954:    ee273a00    '..:    VMUL.F32 s6,s14,s0
        0x0000e958:    ee204a80     ..J    VMUL.F32 s8,s1,s0
        0x0000e95c:    ee266a00    &..j    VMUL.F32 s12,s12,s0
        0x0000e960:    ee255a00    %..Z    VMUL.F32 s10,s10,s0
        0x0000e964:    ee217a80    !..z    VMUL.F32 s14,s3,s0
        0x0000e968:    ee620a80    b...    VMUL.F32 s1,s5,s0
        0x0000e96c:    ee211a00    !...    VMUL.F32 s2,s2,s0
        0x0000e970:    ee222a00    "..*    VMUL.F32 s4,s4,s0
        0x0000e974:    ed803a00    ...:    VSTR     s6,[r0,#0]
        0x0000e978:    ed804a01    ...J    VSTR     s8,[r0,#4]
        0x0000e97c:    ed806a02    ...j    VSTR     s12,[r0,#8]
        0x0000e980:    ed805a03    ...Z    VSTR     s10,[r0,#0xc]
        0x0000e984:    ed807a04    ...z    VSTR     s14,[r0,#0x10]
        0x0000e988:    edc00a05    ....    VSTR     s1,[r0,#0x14]
        0x0000e98c:    ed801a06    ....    VSTR     s2,[r0,#0x18]
        0x0000e990:    ed802a07    ...*    VSTR     s4,[r0,#0x1c]
        0x0000e994:    3901        .9      SUBS     r1,#1
        0x0000e996:    f1000020    .. .    ADD      r0,r0,#0x20
        0x0000e99a:    d1ab        ..      BNE      0xe8f4 ; arm_radix4_butterfly_inverse_f32 + 716
        0x0000e99c:    b008        ..      ADD      sp,sp,#0x20
        0x0000e99e:    e8bd8ff0    ....    POP      {r4-r11,pc}
        0x0000e9a2:    0000        ..      MOVS     r0,r0
    decstr_to_int
        0x0000e9a4:    b510        ..      PUSH     {r4,lr}
        0x0000e9a6:    4603        .F      MOV      r3,r0
        0x0000e9a8:    f813cb01    ....    LDRB     r12,[r3],#1
        0x0000e9ac:    f1bc0e2d    ..-.    SUBS     lr,r12,#0x2d
        0x0000e9b0:    bf18        ..      IT       NE
        0x0000e9b2:    4603        .F      MOVNE    r3,r0
        0x0000e9b4:    781a        .x      LDRB     r2,[r3,#0]
        0x0000e9b6:    fabefe8e    ....    CLZ      lr,lr
        0x0000e9ba:    f1a20030    ..0.    SUB      r0,r2,#0x30
        0x0000e9be:    2809        .(      CMP      r0,#9
        0x0000e9c0:    ea4f1e5e    O.^.    LSR      lr,lr,#5
        0x0000e9c4:    d811        ..      BHI      0xe9ea ; decstr_to_int + 70
        0x0000e9c6:    3301        .3      ADDS     r3,#1
        0x0000e9c8:    2000        .       MOVS     r0,#0
        0x0000e9ca:    bf00        ..      NOP      
        0x0000e9cc:    eb000080    ....    ADD      r0,r0,r0,LSL #2
        0x0000e9d0:    eb020040    ..@.    ADD      r0,r2,r0,LSL #1
        0x0000e9d4:    f8132b01    ...+    LDRB     r2,[r3],#1
        0x0000e9d8:    f10e0e01    ....    ADD      lr,lr,#1
        0x0000e9dc:    f1a20430    ..0.    SUB      r4,r2,#0x30
        0x0000e9e0:    2c0a        .,      CMP      r4,#0xa
        0x0000e9e2:    f1a00030    ..0.    SUB      r0,r0,#0x30
        0x0000e9e6:    d3f1        ..      BCC      0xe9cc ; decstr_to_int + 40
        0x0000e9e8:    e000        ..      B        0xe9ec ; decstr_to_int + 72
        0x0000e9ea:    2000        .       MOVS     r0,#0
        0x0000e9ec:    b109        ..      CBZ      r1,0xe9f2 ; decstr_to_int + 78
        0x0000e9ee:    f8c1e000    ....    STR      lr,[r1,#0]
        0x0000e9f2:    f1bc0f2d    ..-.    CMP      r12,#0x2d
        0x0000e9f6:    bf08        ..      IT       EQ
        0x0000e9f8:    4240        @B      RSBEQ    r0,r0,#0
        0x0000e9fa:    bd10        ..      POP      {r4,pc}
    divu64_10
        0x0000e9fc:    b999        ..      CBNZ     r1,0xea26 ; divu64_10 + 42
        0x0000e9fe:    0841        A.      LSRS     r1,r0,#1
        0x0000ea00:    eb010190    ....    ADD      r1,r1,r0,LSR #2
        0x0000ea04:    eb011111    ....    ADD      r1,r1,r1,LSR #4
        0x0000ea08:    eb012111    ...!    ADD      r1,r1,r1,LSR #8
        0x0000ea0c:    eb014111    ...A    ADD      r1,r1,r1,LSR #16
        0x0000ea10:    08ca        ..      LSRS     r2,r1,#3
        0x0000ea12:    eb020282    ....    ADD      r2,r2,r2,LSL #2
        0x0000ea16:    eba00042    ..B.    SUB      r0,r0,r2,LSL #1
        0x0000ea1a:    3006        .0      ADDS     r0,#6
        0x0000ea1c:    0900        ..      LSRS     r0,r0,#4
        0x0000ea1e:    eb0000d1    ....    ADD      r0,r0,r1,LSR #3
        0x0000ea22:    2100        .!      MOVS     r1,#0
        0x0000ea24:    4770        pG      BX       lr
        0x0000ea26:    b510        ..      PUSH     {r4,lr}
        0x0000ea28:    ea5f0c51    _.Q.    LSRS     r12,r1,#1
        0x0000ea2c:    ea4f0290    O...    LSR      r2,r0,#2
        0x0000ea30:    ea4f0330    O.0.    RRX      r3,r0
        0x0000ea34:    ea427281    B..r    ORR      r2,r2,r1,LSL #30
        0x0000ea38:    eb130e02    ....    ADDS     lr,r3,r2
        0x0000ea3c:    eb4c0391    L...    ADC      r3,r12,r1,LSR #2
        0x0000ea40:    ea4f121e    O...    LSR      r2,lr,#4
        0x0000ea44:    ea427203    B..r    ORR      r2,r2,r3,LSL #28
        0x0000ea48:    ea4f1c13    O...    LSR      r12,r3,#4
        0x0000ea4c:    eb1e0e02    ....    ADDS     lr,lr,r2
        0x0000ea50:    eb43030c    C...    ADC      r3,r3,r12
        0x0000ea54:    ea4f221e    O.."    LSR      r2,lr,#8
        0x0000ea58:    ea426203    B..b    ORR      r2,r2,r3,LSL #24
        0x0000ea5c:    ea4f2c13    O..,    LSR      r12,r3,#8
        0x0000ea60:    eb1e0e02    ....    ADDS     lr,lr,r2
        0x0000ea64:    eb43030c    C...    ADC      r3,r3,r12
        0x0000ea68:    ea4f421e    O..B    LSR      r2,lr,#16
        0x0000ea6c:    ea424203    B..B    ORR      r2,r2,r3,LSL #16
        0x0000ea70:    ea4f4c13    O..L    LSR      r12,r3,#16
        0x0000ea74:    eb12020e    ....    ADDS     r2,r2,lr
        0x0000ea78:    eb43030c    C...    ADC      r3,r3,r12
        0x0000ea7c:    18d2        ..      ADDS     r2,r2,r3
        0x0000ea7e:    f1430c00    C...    ADC      r12,r3,#0
        0x0000ea82:    08d2        ..      LSRS     r2,r2,#3
        0x0000ea84:    ea42724c    B.Lr    ORR      r2,r2,r12,LSL #29
        0x0000ea88:    f06f0309    o...    MVN      r3,#9
        0x0000ea8c:    fba2e303    ....    UMULL    lr,r3,r2,r3
        0x0000ea90:    ea4f04dc    O...    LSR      r4,r12,#3
        0x0000ea94:    1a9b        ..      SUBS     r3,r3,r2
        0x0000ea96:    eb040484    ....    ADD      r4,r4,r4,LSL #2
        0x0000ea9a:    eba30344    ..D.    SUB      r3,r3,r4,LSL #1
        0x0000ea9e:    eb10000e    ....    ADDS     r0,r0,lr
        0x0000eaa2:    4159        YA      ADCS     r1,r1,r3
        0x0000eaa4:    3006        .0      ADDS     r0,#6
        0x0000eaa6:    f1410100    A...    ADC      r1,r1,#0
        0x0000eaaa:    0900        ..      LSRS     r0,r0,#4
        0x0000eaac:    ea407001    @..p    ORR      r0,r0,r1,LSL #28
        0x0000eab0:    090b        ..      LSRS     r3,r1,#4
        0x0000eab2:    1880        ..      ADDS     r0,r0,r2
        0x0000eab4:    eb4301dc    C...    ADC      r1,r3,r12,LSR #3
        0x0000eab8:    bd10        ..      POP      {r4,pc}
    getStackedReg
        0x0000eaba:    0080        ..      LSLS     r0,r0,#2
        0x0000eabc:    1840        @.      ADDS     r0,r0,r1
        0x0000eabe:    6800        .h      LDR      r0,[r0,#0]
        0x0000eac0:    4770        pG      BX       lr
        0x0000eac2:    0000        ..      MOVS     r0,r0
    main
        0x0000eac4:    2000        .       MOVS     r0,#0
        0x0000eac6:    2100        .!      MOVS     r1,#0
        0x0000eac8:    2400        .$      MOVS     r4,#0
        0x0000eaca:    f7fdfda9    ....    BL       am_hal_clkgen_control ; 0xc620
        0x0000eace:    f24f007c    O.|.    MOV      r0,#0xf07c
        0x0000ead2:    f2c00000    ....    MOVT     r0,#0
        0x0000ead6:    f7fdfd75    ..u.    BL       am_hal_cachectrl_config ; 0xc5c4
        0x0000eada:    f7fdfd97    ....    BL       am_hal_cachectrl_enable ; 0xc60c
        0x0000eade:    f7fdfc05    ....    BL       am_bsp_itm_printf_enable ; 0xc2ec
        0x0000eae2:    f7fefe89    ....    BL       am_util_stdio_terminal_clear ; 0xd7f8
        0x0000eae6:    a012        ..      ADR      r0,{pc}+0x4a ; 0xeb30
        0x0000eae8:    f7fefe5c    ..\.    BL       am_util_stdio_printf ; 0xd7a4
        0x0000eaec:    f000f935    ..5.    BL       pdm_init ; 0xed5a
        0x0000eaf0:    f000f880    ....    BL       pdm_config_print ; 0xebf4
        0x0000eaf4:    f2410080    A...    MOVW     r0,#0x1080
        0x0000eaf8:    f2c10001    ....    MOVT     r0,#0x1001
        0x0000eafc:    6800        .h      LDR      r0,[r0,#0]
        0x0000eafe:    f7fef9f5    ....    BL       am_hal_pdm_fifo_flush ; 0xceec
        0x0000eb02:    f000f90d    ....    BL       pdm_data_get ; 0xed20
        0x0000eb06:    f241059e    A...    MOV      r5,#0x109e
        0x0000eb0a:    f2c10501    ....    MOVT     r5,#0x1001
        0x0000eb0e:    bf00        ..      NOP      
        0x0000eb10:    f7fdfff4    ....    BL       am_hal_interrupt_master_disable ; 0xcafc
        0x0000eb14:    7828        (x      LDRB     r0,[r5,#0]
        0x0000eb16:    b120         .      CBZ      r0,0xeb22 ; main + 94
        0x0000eb18:    702c        ,p      STRB     r4,[r5,#0]
        0x0000eb1a:    f000f813    ....    BL       pcm_fft_print ; 0xeb44
        0x0000eb1e:    f000f8ff    ....    BL       pdm_data_get ; 0xed20
        0x0000eb22:    2001        .       MOVS     r0,#1
        0x0000eb24:    f7fefc00    ....    BL       am_hal_sysctrl_sleep ; 0xd328
        0x0000eb28:    f7fdffec    ....    BL       am_hal_interrupt_master_enable ; 0xcb04
        0x0000eb2c:    e7f0        ..      B        0xeb10 ; main + 76
        0x0000eb2e:    bf00        ..      NOP      
    $d.8
        0x0000eb30:    204d4450    PDM     DCD    541934672
        0x0000eb34:    20544646    FFT     DCD    542393926
        0x0000eb38:    6d617865    exam    DCD    1835104357
        0x0000eb3c:    2e656c70    ple.    DCD    778398832
        0x0000eb40:    00000a0a    ....    DCD    2570
    $t.5
    pcm_fft_print
        0x0000eb44:    b5b0        ..      PUSH     {r4,r5,r7,lr}
        0x0000eb46:    b088        ..      SUB      sp,sp,#0x20
        0x0000eb48:    f24900a0    I...    MOV      r0,#0x90a0
        0x0000eb4c:    f2c10001    ....    MOVT     r0,#0x1001
        0x0000eb50:    f24142a4    A..B    MOV      r2,#0x14a4
        0x0000eb54:    3004        .0      ADDS     r0,#4
        0x0000eb56:    2100        .!      MOVS     r1,#0
        0x0000eb58:    f2c10202    ....    MOVT     r2,#0x1002
        0x0000eb5c:    2300        .#      MOVS     r3,#0
        0x0000eb5e:    bf00        ..      NOP      
        0x0000eb60:    f9325013    2..P    LDRSH    r5,[r2,r3,LSL #1]
        0x0000eb64:    3301        .3      ADDS     r3,#1
        0x0000eb66:    ee005a10    ...Z    VMOV     s0,r5
        0x0000eb6a:    eeb80ac0    ....    VCVT.F32.S32 s0,s0
        0x0000eb6e:    ed000a01    ....    VSTR     s0,[r0,#-4]
        0x0000eb72:    6001        .`      STR      r1,[r0,#0]
        0x0000eb74:    f5b35f80    ..._    CMP      r3,#0x1000
        0x0000eb78:    f1000008    ....    ADD      r0,r0,#8
        0x0000eb7c:    d1f0        ..      BNE      0xeb60 ; pcm_fft_print + 28
        0x0000eb7e:    ac01        ..      ADD      r4,sp,#4
        0x0000eb80:    4620         F      MOV      r0,r4
        0x0000eb82:    f44f5180    O..Q    MOV      r1,#0x1000
        0x0000eb86:    2200        ."      MOVS     r2,#0
        0x0000eb88:    2301        .#      MOVS     r3,#1
        0x0000eb8a:    f7fffa4d    ..M.    BL       arm_cfft_radix4_init_f32 ; 0xe028
        0x0000eb8e:    f24905a0    I...    MOV      r5,#0x90a0
        0x0000eb92:    f2c10501    ....    MOVT     r5,#0x1001
        0x0000eb96:    4620         F      MOV      r0,r4
        0x0000eb98:    4629        )F      MOV      r1,r5
        0x0000eb9a:    f7fffa24    ..$.    BL       arm_cfft_radix4_f32 ; 0xdfe6
        0x0000eb9e:    f24104a0    A...    MOVW     r4,#0x10a0
        0x0000eba2:    f2c10401    ....    MOVT     r4,#0x1001
        0x0000eba6:    4628        (F      MOV      r0,r5
        0x0000eba8:    4621        !F      MOV      r1,r4
        0x0000ebaa:    f44f5280    O..R    MOV      r2,#0x1000
        0x0000ebae:    f7fffa85    ....    BL       arm_cmplx_mag_f32 ; 0xe0bc
        0x0000ebb2:    aa07        ..      ADD      r2,sp,#0x1c
        0x0000ebb4:    ab06        ..      ADD      r3,sp,#0x18
        0x0000ebb6:    4620         F      MOV      r0,r4
        0x0000ebb8:    f44f6100    O..a    MOV      r1,#0x800
        0x0000ebbc:    f7fffb28    ..(.    BL       arm_max_f32 ; 0xe210
        0x0000ebc0:    f24540a8    E..@    MOV      r0,#0x54a8
        0x0000ebc4:    f2c10002    ....    MOVT     r0,#0x1002
        0x0000ebc8:    6800        .h      LDR      r0,[r0,#0]
        0x0000ebca:    9906        ..      LDR      r1,[sp,#0x18]
        0x0000ebcc:    4348        HC      MULS     r0,r1,r0
        0x0000ebce:    0b01        ..      LSRS     r1,r0,#12
        0x0000ebd0:    a002        ..      ADR      r0,{pc}+0xc ; 0xebdc
        0x0000ebd2:    f7fefde7    ....    BL       am_util_stdio_printf ; 0xd7a4
        0x0000ebd6:    b008        ..      ADD      sp,sp,#0x20
        0x0000ebd8:    bdb0        ..      POP      {r4,r5,r7,pc}
        0x0000ebda:    bf00        ..      NOP      
    $d.6
        0x0000ebdc:    64756f4c    Loud    DCD    1685417804
        0x0000ebe0:    20747365    est     DCD    544502629
        0x0000ebe4:    71657266    freq    DCD    1902473830
        0x0000ebe8:    636e6575    uenc    DCD    1668179317
        0x0000ebec:    25203a79    y: %    DCD    622869113
        0x0000ebf0:    00000a64    d...    DCD    2660
    $t.1
    pdm_config_print
        0x0000ebf4:    b570        p.      PUSH     {r4-r6,lr}
        0x0000ebf6:    ed2d8b02    -...    VPUSH    {d8}
        0x0000ebfa:    f2410500    A...    MOVW     r5,#0x1000
        0x0000ebfe:    f2c10501    ....    MOVT     r5,#0x1001
        0x0000ec02:    7c29        )|      LDRB     r1,[r5,#0x10]
        0x0000ec04:    7828        (x      LDRB     r0,[r5,#0]
        0x0000ec06:    1e4a        J.      SUBS     r2,r1,#1
        0x0000ec08:    b2d3        ..      UXTB     r3,r2
        0x0000ec0a:    2100        .!      MOVS     r1,#0
        0x0000ec0c:    2b06        .+      CMP      r3,#6
        0x0000ec0e:    f04f0400    O...    MOV      r4,#0
        0x0000ec12:    d803        ..      BHI      0xec1c ; pdm_config_print + 40
        0x0000ec14:    b252        R.      SXTB     r2,r2
        0x0000ec16:    a320         .      ADR      r3,{pc}+0x82 ; 0xec98
        0x0000ec18:    f8534022    S."@    LDR      r4,[r3,r2,LSL #2]
        0x0000ec1c:    686b        kh      LDR      r3,[r5,#4]
        0x0000ec1e:    2202        ."      MOVS     r2,#2
        0x0000ec20:    2804        .(      CMP      r0,#4
        0x0000ec22:    bf38        8.      IT       CC
        0x0000ec24:    eb020140    ..@.    ADDCC    r1,r2,r0,LSL #1
        0x0000ec28:    fb03f001    ....    MUL      r0,r3,r1
        0x0000ec2c:    fbb4f0f0    ....    UDIV     r0,r4,r0
        0x0000ec30:    f24546a8    E..F    MOV      r6,#0x54a8
        0x0000ec34:    f2c10602    ....    MOVT     r6,#0x1002
        0x0000ec38:    ee000a10    ....    VMOV     s0,r0
        0x0000ec3c:    ed9f1a1d    ....    VLDR     s2,[pc,#116] ; [0xecb4] = 0x39800000
        0x0000ec40:    6030        0`      STR      r0,[r6,#0]
        0x0000ec42:    eeb80a40    ..@.    VCVT.F32.U32 s0,s0
        0x0000ec46:    a01c        ..      ADR      r0,{pc}+0x72 ; 0xecb8
        0x0000ec48:    ee208a01     ...    VMUL.F32 s16,s0,s2
        0x0000ec4c:    f7fefdaa    ....    BL       am_util_stdio_printf ; 0xd7a4
        0x0000ec50:    f64f30da    O..0    MOV      r0,#0xfbda
        0x0000ec54:    f2c00000    ....    MOVT     r0,#0
        0x0000ec58:    4621        !F      MOV      r1,r4
        0x0000ec5a:    f7fefda3    ....    BL       am_util_stdio_printf ; 0xd7a4
        0x0000ec5e:    6869        ih      LDR      r1,[r5,#4]
        0x0000ec60:    f64f30f8    O..0    MOV      r0,#0xfbf8
        0x0000ec64:    f2c00000    ....    MOVT     r0,#0
        0x0000ec68:    f7fefd9c    ....    BL       am_util_stdio_printf ; 0xd7a4
        0x0000ec6c:    6831        1h      LDR      r1,[r6,#0]
        0x0000ec6e:    a015        ..      ADR      r0,{pc}+0x56 ; 0xecc4
        0x0000ec70:    f7fefd98    ....    BL       am_util_stdio_printf ; 0xd7a4
        0x0000ec74:    a01b        ..      ADR      r0,{pc}+0x70 ; 0xece4
        0x0000ec76:    f44f5180    O..Q    MOV      r1,#0x1000
        0x0000ec7a:    f7fefd93    ....    BL       am_util_stdio_printf ; 0xd7a4
        0x0000ec7e:    ee180a10    ....    VMOV     r0,s16
        0x0000ec82:    f000f971    ..q.    BL       __aeabi_f2d ; 0xef68
        0x0000ec86:    4602        .F      MOV      r2,r0
        0x0000ec88:    a01e        ..      ADR      r0,{pc}+0x7c ; 0xed04
        0x0000ec8a:    460b        .F      MOV      r3,r1
        0x0000ec8c:    ecbd8b02    ....    VPOP     {d8}
        0x0000ec90:    e8bd4070    ..p@    POP      {r4-r6,lr}
        0x0000ec94:    f7febd86    ....    B        am_util_stdio_printf ; 0xd7a4
    $d.2
        0x0000ec98:    00b71b00    ....    DCD    12000000
        0x0000ec9c:    005b8d80    ..[.    DCD    6000000
        0x0000eca0:    002dc6c0    ..-.    DCD    3000000
        0x0000eca4:    0016e360    `...    DCD    1500000
        0x0000eca8:    000b71b0    .q..    DCD    750000
        0x0000ecac:    0005b8d8    ....    DCD    375000
        0x0000ecb0:    0002da78    x...    DCD    187000
        0x0000ecb4:    39800000    ...9    DCD    964689920
        0x0000ecb8:    74746553    Sett    DCD    1953785171
        0x0000ecbc:    73676e69    ings    DCD    1936158313
        0x0000ecc0:    00000a3a    :...    DCD    2618
        0x0000ecc4:    65666645    Effe    DCD    1701209669
        0x0000ecc8:    76697463    ctiv    DCD    1986622563
        0x0000eccc:    61532065    e Sa    DCD    1632837733
        0x0000ecd0:    656c706d    mple    DCD    1701605485
        0x0000ecd4:    65724620     Fre    DCD    1701987872
        0x0000ecd8:    203a2e71    q.:     DCD    540683889
        0x0000ecdc:    64323125    %12d    DCD    1681010981
        0x0000ece0:    0000000a    ....    DCD    10
        0x0000ece4:    20544646    FFT     DCD    542393926
        0x0000ece8:    676e654c    Leng    DCD    1735288140
        0x0000ecec:    203a6874    th:     DCD    540698740
        0x0000ecf0:    20202020            DCD    538976288
        0x0000ecf4:    20202020            DCD    538976288
        0x0000ecf8:    20202020            DCD    538976288
        0x0000ecfc:    64323125    %12d    DCD    1681010981
        0x0000ed00:    00000a0a    ....    DCD    2570
        0x0000ed04:    20544646    FFT     DCD    542393926
        0x0000ed08:    6f736552    Reso    DCD    1869833554
        0x0000ed0c:    6974756c    luti    DCD    1769239916
        0x0000ed10:    203a6e6f    on:     DCD    540700271
        0x0000ed14:    2e353125    %15.    DCD    775237925
        0x0000ed18:    48206633    3f H    DCD    1210082867
        0x0000ed1c:    00000a7a    z...    DCD    2682
    $t.3
    pdm_data_get
        0x0000ed20:    b510        ..      PUSH     {r4,lr}
        0x0000ed22:    b082        ..      SUB      sp,sp,#8
        0x0000ed24:    f24140a4    A..@    MOV      r0,#0x14a4
        0x0000ed28:    f2410480    A...    MOVW     r4,#0x1080
        0x0000ed2c:    f2c10002    ....    MOVT     r0,#0x1002
        0x0000ed30:    f2c10401    ....    MOVT     r4,#0x1001
        0x0000ed34:    9000        ..      STR      r0,[sp,#0]
        0x0000ed36:    6820         h      LDR      r0,[r4,#0]
        0x0000ed38:    f44f5100    O..Q    MOV      r1,#0x2000
        0x0000ed3c:    9101        ..      STR      r1,[sp,#4]
        0x0000ed3e:    f7fef8bb    ....    BL       am_hal_pdm_enable ; 0xceb8
        0x0000ed42:    2064        d       MOVS     r0,#0x64
        0x0000ed44:    f7fefbac    ....    BL       am_util_delay_ms ; 0xd4a0
        0x0000ed48:    6820         h      LDR      r0,[r4,#0]
        0x0000ed4a:    f7fef8cf    ....    BL       am_hal_pdm_fifo_flush ; 0xceec
        0x0000ed4e:    6820         h      LDR      r0,[r4,#0]
        0x0000ed50:    4669        iF      MOV      r1,sp
        0x0000ed52:    f7fef86f    ..o.    BL       am_hal_pdm_dma_start ; 0xce34
        0x0000ed56:    b002        ..      ADD      sp,sp,#8
        0x0000ed58:    bd10        ..      POP      {r4,pc}
    pdm_init
        0x0000ed5a:    b510        ..      PUSH     {r4,lr}
        0x0000ed5c:    f2410480    A...    MOVW     r4,#0x1080
        0x0000ed60:    f2c10401    ....    MOVT     r4,#0x1001
        0x0000ed64:    2000        .       MOVS     r0,#0
        0x0000ed66:    4621        !F      MOV      r1,r4
        0x0000ed68:    f7fef8d4    ....    BL       am_hal_pdm_initialize ; 0xcf14
        0x0000ed6c:    6820         h      LDR      r0,[r4,#0]
        0x0000ed6e:    2100        .!      MOVS     r1,#0
        0x0000ed70:    2200        ."      MOVS     r2,#0
        0x0000ed72:    f7fef92a    ..*.    BL       am_hal_pdm_power_control ; 0xcfca
        0x0000ed76:    6820         h      LDR      r0,[r4,#0]
        0x0000ed78:    f2410100    A...    MOVW     r1,#0x1000
        0x0000ed7c:    f2c10101    ....    MOVT     r1,#0x1001
        0x0000ed80:    f7fdff8e    ....    BL       am_hal_pdm_configure ; 0xcca0
        0x0000ed84:    6820         h      LDR      r0,[r4,#0]
        0x0000ed86:    f7fef897    ....    BL       am_hal_pdm_enable ; 0xceb8
        0x0000ed8a:    200b        .       MOVS     r0,#0xb
        0x0000ed8c:    2107        .!      MOVS     r1,#7
        0x0000ed8e:    f7fdfd5f    .._.    BL       am_hal_gpio_pinconfig ; 0xc850
        0x0000ed92:    200c        .       MOVS     r0,#0xc
        0x0000ed94:    2105        .!      MOVS     r1,#5
        0x0000ed96:    f7fdfd5b    ..[.    BL       am_hal_gpio_pinconfig ; 0xc850
        0x0000ed9a:    200e        .       MOVS     r0,#0xe
        0x0000ed9c:    2100        .!      MOVS     r1,#0
        0x0000ed9e:    f7fdfe61    ..a.    BL       am_hal_gpio_state_write ; 0xca64
        0x0000eda2:    f64f1050    O.P.    MOV      r0,#0xf950
        0x0000eda6:    f2c00000    ....    MOVT     r0,#0
        0x0000edaa:    6801        .h      LDR      r1,[r0,#0]
        0x0000edac:    200e        .       MOVS     r0,#0xe
        0x0000edae:    f7fdfd4f    ..O.    BL       am_hal_gpio_pinconfig ; 0xc850
        0x0000edb2:    6820         h      LDR      r0,[r4,#0]
        0x0000edb4:    211e        .!      MOVS     r1,#0x1e
        0x0000edb6:    f7fef8db    ....    BL       am_hal_pdm_interrupt_enable ; 0xcf70
        0x0000edba:    f24e1000    N...    MOVW     r0,#0xe100
        0x0000edbe:    f2ce0000    ....    MOVT     r0,#0xe000
        0x0000edc2:    f44f2100    O..!    MOV      r1,#0x80000
        0x0000edc6:    6001        .`      STR      r1,[r0,#0]
        0x0000edc8:    bd10        ..      POP      {r4,pc}
        0x0000edca:    0000        ..      MOVS     r0,r0
    uint64_to_str
        0x0000edcc:    b5f0        ..      PUSH     {r4-r7,lr}
        0x0000edce:    b087        ..      SUB      sp,sp,#0x1c
        0x0000edd0:    4614        .F      MOV      r4,r2
        0x0000edd2:    4605        .F      MOV      r5,r0
        0x0000edd4:    2000        .       MOVS     r0,#0
        0x0000edd6:    f10d0603    ....    ADD      r6,sp,#3
        0x0000edda:    bf00        ..      NOP      
        0x0000eddc:    4607        .F      MOV      r7,r0
        0x0000edde:    4628        (F      MOV      r0,r5
        0x0000ede0:    f7fffe0c    ....    BL       divu64_10 ; 0xe9fc
        0x0000ede4:    4602        .F      MOV      r2,r0
        0x0000ede6:    eb000080    ....    ADD      r0,r0,r0,LSL #2
        0x0000edea:    eba50040    ..@.    SUB      r0,r5,r0,LSL #1
        0x0000edee:    f1000330    ..0.    ADD      r3,r0,#0x30
        0x0000edf2:    1c78        x.      ADDS     r0,r7,#1
        0x0000edf4:    55f3        .U      STRB     r3,[r6,r7]
        0x0000edf6:    ea520701    R...    ORRS     r7,r2,r1
        0x0000edfa:    4615        .F      MOV      r5,r2
        0x0000edfc:    d1ee        ..      BNE      0xeddc ; uint64_to_str + 16
        0x0000edfe:    b16c        l.      CBZ      r4,0xee1c ; uint64_to_str + 80
        0x0000ee00:    2801        .(      CMP      r0,#1
        0x0000ee02:    f8043b01    ...;    STRB     r3,[r4],#1
        0x0000ee06:    d007        ..      BEQ      0xee18 ; uint64_to_str + 76
        0x0000ee08:    1eb1        ..      SUBS     r1,r6,#2
        0x0000ee0a:    4602        .F      MOV      r2,r0
        0x0000ee0c:    5c8b        .\      LDRB     r3,[r1,r2]
        0x0000ee0e:    3a01        .:      SUBS     r2,#1
        0x0000ee10:    2a01        .*      CMP      r2,#1
        0x0000ee12:    f8043b01    ...;    STRB     r3,[r4],#1
        0x0000ee16:    d1f9        ..      BNE      0xee0c ; uint64_to_str + 64
        0x0000ee18:    2100        .!      MOVS     r1,#0
        0x0000ee1a:    7021        !p      STRB     r1,[r4,#0]
        0x0000ee1c:    b007        ..      ADD      sp,sp,#0x1c
        0x0000ee1e:    bdf0        ..      POP      {r4-r7,pc}
    $t
    i.__hardfp_sqrtf
    __hardfp_sqrtf
        0x0000ee20:    b510        ..      PUSH     {r4,lr}
        0x0000ee22:    ed2d8b02    -...    VPUSH    {d8}
        0x0000ee26:    eeb18ac0    ....    VSQRT.F32 s16,s0
        0x0000ee2a:    ee180a10    ....    VMOV     r0,s16
        0x0000ee2e:    f0204000     ..@    BIC      r0,r0,#0x80000000
        0x0000ee32:    f1c040ff    ...@    RSB      r0,r0,#0x7f800000
        0x0000ee36:    0fc0        ..      LSRS     r0,r0,#31
        0x0000ee38:    d00a        ..      BEQ      0xee50 ; __hardfp_sqrtf + 48
        0x0000ee3a:    ee100a10    ....    VMOV     r0,s0
        0x0000ee3e:    f0204000     ..@    BIC      r0,r0,#0x80000000
        0x0000ee42:    f1c040ff    ...@    RSB      r0,r0,#0x7f800000
        0x0000ee46:    0fc0        ..      LSRS     r0,r0,#31
        0x0000ee48:    bf04        ..      ITT      EQ
        0x0000ee4a:    2001        .       MOVEQ    r0,#1
        0x0000ee4c:    f7fdf9fd    ....    BLEQ     __set_errno ; 0xc24a
        0x0000ee50:    eeb00a48    ..H.    VMOV.F32 s0,s16
        0x0000ee54:    ecbd8b02    ....    VPOP     {d8}
        0x0000ee58:    bd10        ..      POP      {r4,pc}
        0x0000ee5a:    0000        ..      MOVS     r0,r0
    x$fpl$d2f
    $v0
    __aeabi_d2f
    _d2f
        0x0000ee5c:    f0214200    !..B    BIC      r2,r1,#0x80000000
        0x0000ee60:    f0014300    ...C    AND      r3,r1,#0x80000000
        0x0000ee64:    f1a25260    ..`R    SUB      r2,r2,#0x38000000
        0x0000ee68:    f5b21f80    ....    CMP      r2,#0x100000
        0x0000ee6c:    bf28        (.      IT       CS
        0x0000ee6e:    f1d26c7f    ...l    RSBSCS   r12,r2,#0xff00000
        0x0000ee72:    d90b        ..      BLS      0xee8c ; __aeabi_d2f + 48
        0x0000ee74:    ea5f1c00    _...    LSLS     r12,r0,#4
        0x0000ee78:    ea4302c2    C...    ORR      r2,r3,r2,LSL #3
        0x0000ee7c:    eb427050    B.Pp    ADC      r0,r2,r0,LSR #29
        0x0000ee80:    bf18        ..      IT       NE
        0x0000ee82:    4770        pG      BXNE     lr
        0x0000ee84:    bf28        (.      IT       CS
        0x0000ee86:    f0200001     ...    BICCS    r0,r0,#1
        0x0000ee8a:    4770        pG      BX       lr
        0x0000ee8c:    f5b21f80    ....    CMP      r2,#0x100000
        0x0000ee90:    bfbc        ..      ITT      LT
        0x0000ee92:    4618        .F      MOVLT    r0,r3
        0x0000ee94:    4770        pG      BXLT     lr
        0x0000ee96:    ea4f0c41    O.A.    LSL      r12,r1,#1
        0x0000ee9a:    f51c1f00    ....    CMN      r12,#0x200000
        0x0000ee9e:    d202        ..      BCS      0xeea6 ; __aeabi_d2f + 74
        0x0000eea0:    4608        .F      MOV      r0,r1
        0x0000eea2:    f000b8df    ....    B.W      __fpl_fretinf ; 0xf064
        0x0000eea6:    b570        p.      PUSH     {r4-r6,lr}
        0x0000eea8:    f000f809    ....    BL       __fpl_dnaninf ; 0xeebe
    $d
        0x0000eeac:    89000000    ....    DCD    2298478592
    $t
        0x0000eeb0:    f7ffbff6    ....    B.W      0xeea0 ; __aeabi_d2f + 68
        0x0000eeb4:    f04f4000    O..@    MOV      r0,#0x80000000
        0x0000eeb8:    f5a00080    ....    SUB      r0,r0,#0x400000
        0x0000eebc:    4770        pG      BX       lr
    x$fpl$dnaninf
    $v0
    __fpl_dnaninf
        0x0000eebe:    f10e0e02    ....    ADD      lr,lr,#2
        0x0000eec2:    f02e0e03    ....    BIC      lr,lr,#3
        0x0000eec6:    f85e6b04    ^..k    LDR      r6,[lr],#4
        0x0000eeca:    4236        6B      TST      r6,r6
        0x0000eecc:    d405        ..      BMI      0xeeda ; __fpl_dnaninf + 28
        0x0000eece:    2a01        .*      CMP      r2,#1
        0x0000eed0:    eb430503    C...    ADC      r5,r3,r3
        0x0000eed4:    f5151f00    ....    CMN      r5,#0x200000
        0x0000eed8:    d812        ..      BHI      0xef00 ; __fpl_dnaninf + 66
        0x0000eeda:    2801        .(      CMP      r0,#1
        0x0000eedc:    eb410c01    A...    ADC      r12,r1,r1
        0x0000eee0:    f51c1f00    ....    CMN      r12,#0x200000
        0x0000eee4:    d80c        ..      BHI      0xef00 ; __fpl_dnaninf + 66
        0x0000eee6:    d10e        ..      BNE      0xef06 ; __fpl_dnaninf + 72
        0x0000eee8:    ea4f7cd1    O..|    LSR      r12,r1,#31
        0x0000eeec:    eb0c0c4c    ..L.    ADD      r12,r12,r12,LSL #1
        0x0000eef0:    f10c0c02    ....    ADD      r12,r12,#2
        0x0000eef4:    f5151f00    ....    CMN      r5,#0x200000
        0x0000eef8:    bf08        ..      IT       EQ
        0x0000eefa:    eb4c7cd3    L..|    ADCEQ    r12,r12,r3,LSR #31
        0x0000eefe:    e004        ..      B        0xef0a ; __fpl_dnaninf + 76
        0x0000ef00:    f04f0c08    O...    MOV      r12,#8
        0x0000ef04:    e001        ..      B        0xef0a ; __fpl_dnaninf + 76
        0x0000ef06:    ea4f7cd3    O..|    LSR      r12,r3,#31
        0x0000ef0a:    eb0c054c    ..L.    ADD      r5,r12,r12,LSL #1
        0x0000ef0e:    fa26f605    &...    LSR      r6,r6,r5
        0x0000ef12:    f0060607    ....    AND      r6,r6,#7
        0x0000ef16:    f1b60c04    ....    SUBS     r12,r6,#4
        0x0000ef1a:    d206        ..      BCS      0xef2a ; __fpl_dnaninf + 108
        0x0000ef1c:    eb0e0c86    ....    ADD      r12,lr,r6,LSL #2
        0x0000ef20:    e8bd4070    ..p@    POP      {r4-r6,lr}
        0x0000ef24:    f04c0c01    L...    ORR      r12,r12,#1
        0x0000ef28:    4760        `G      BX       r12
        0x0000ef2a:    e8dff00c    ....    TBB      [pc,r12]
    $d
        0x0000ef2e:    0b09        ..      DCW    2825
        0x0000ef30:    0202        ..      DCW    514
    $t
        0x0000ef32:    f04f4100    O..A    MOV      r1,#0x80000000
        0x0000ef36:    f5a12100    ...!    SUB      r1,r1,#0x80000
        0x0000ef3a:    f04f0000    O...    MOV      r0,#0
        0x0000ef3e:    bd70        p.      POP      {r4-r6,pc}
        0x0000ef40:    4619        .F      MOV      r1,r3
        0x0000ef42:    4610        .F      MOV      r0,r2
        0x0000ef44:    2801        .(      CMP      r0,#1
        0x0000ef46:    eb510401    Q...    ADCS     r4,r1,r1
        0x0000ef4a:    bf18        ..      IT       NE
        0x0000ef4c:    f5d41400    ....    RSBSNE   r4,r4,#0x200000
        0x0000ef50:    bf84        ..      ITT      HI
        0x0000ef52:    2000        .       MOVHI    r0,#0
        0x0000ef54:    f0014100    ...A    ANDHI    r1,r1,#0x80000000
        0x0000ef58:    bd70        p.      POP      {r4-r6,pc}
    x$fpl$dretinf
    $v0
    __fpl_dretinf
        0x0000ef5a:    0808        ..      LSRS     r0,r1,#32
        0x0000ef5c:    f5a01100    ....    SUB      r1,r0,#0x200000
        0x0000ef60:    ea4f0131    O.1.    RRX      r1,r1
        0x0000ef64:    4770        pG      BX       lr
        0x0000ef66:    0000        ..      MOVS     r0,r0
    x$fpl$f2d
    $v0
    __aeabi_f2d
    _f2d
        0x0000ef68:    0043        C.      LSLS     r3,r0,#1
        0x0000ef6a:    ea4f0cd3    O...    LSR      r12,r3,#3
        0x0000ef6e:    ea4f0c3c    O.<.    RRX      r12,r12
        0x0000ef72:    4043        C@      EORS     r3,r3,r0
        0x0000ef74:    bf1f        ..      ITTTT    NE
        0x0000ef76:    0740        @.      LSLNE    r0,r0,#29
        0x0000ef78:    f10c5160    ..`Q    ADDNE    r1,r12,#0x38000000
        0x0000ef7c:    f0134ffe    ...O    TSTNE    r3,#0x7f000000
        0x0000ef80:    4770        pG      BXNE     lr
        0x0000ef82:    f01c6f00    ...o    TST      r12,#0x8000000
        0x0000ef86:    d103        ..      BNE      0xef90 ; __aeabi_f2d + 40
        0x0000ef88:    f00c4100    ...A    AND      r1,r12,#0x80000000
        0x0000ef8c:    2000        .       MOVS     r0,#0
        0x0000ef8e:    4770        pG      BX       lr
        0x0000ef90:    f00c4300    ...C    AND      r3,r12,#0x80000000
        0x0000ef94:    ea437050    C.Pp    ORR      r0,r3,r0,LSR #29
        0x0000ef98:    ea4000cc    @...    ORR      r0,r0,r12,LSL #3
        0x0000ef9c:    b510        ..      PUSH     {r4,lr}
        0x0000ef9e:    f000f80e    ....    BL       __fpl_fnaninf ; 0xefbe
        0x0000efa2:    bf00        ..      NOP      
    $d
        0x0000efa4:    92000000    ....    DCD    2449473536
    $t
        0x0000efa8:    ea4f0100    O...    MOV.W    r1,r0
        0x0000efac:    f7ffbfd5    ....    B.W      __fpl_dretinf ; 0xef5a
        0x0000efb0:    f04f4100    O..A    MOV      r1,#0x80000000
        0x0000efb4:    f5a12100    ...!    SUB      r1,r1,#0x80000
        0x0000efb8:    f04f0000    O...    MOV      r0,#0
        0x0000efbc:    4770        pG      BX       lr
    x$fpl$fnaninf
    $v0
    __fpl_fnaninf
        0x0000efbe:    f10e0e02    ....    ADD      lr,lr,#2
        0x0000efc2:    f02e0e03    ....    BIC      lr,lr,#3
        0x0000efc6:    f85e4b04    ^..K    LDR      r4,[lr],#4
        0x0000efca:    4224        $B      TST      r4,r4
        0x0000efcc:    d404        ..      BMI      0xefd8 ; __fpl_fnaninf + 26
        0x0000efce:    ea4f0241    O.A.    LSL      r2,r1,#1
        0x0000efd2:    f1b24f7f    ...O    CMP      r2,#0xff000000
        0x0000efd6:    d811        ..      BHI      0xeffc ; __fpl_fnaninf + 62
        0x0000efd8:    ea4f0340    O.@.    LSL      r3,r0,#1
        0x0000efdc:    f1b34f7f    ...O    CMP      r3,#0xff000000
        0x0000efe0:    d80c        ..      BHI      0xeffc ; __fpl_fnaninf + 62
        0x0000efe2:    d10e        ..      BNE      0xf002 ; __fpl_fnaninf + 68
        0x0000efe4:    ea4f7cd0    O..|    LSR      r12,r0,#31
        0x0000efe8:    eb0c0c4c    ..L.    ADD      r12,r12,r12,LSL #1
        0x0000efec:    f10c0c02    ....    ADD      r12,r12,#2
        0x0000eff0:    f1b24f7f    ...O    CMP      r2,#0xff000000
        0x0000eff4:    bf08        ..      IT       EQ
        0x0000eff6:    eb4c7cd1    L..|    ADCEQ    r12,r12,r1,LSR #31
        0x0000effa:    e004        ..      B        0xf006 ; __fpl_fnaninf + 72
        0x0000effc:    f04f0c08    O...    MOV      r12,#8
        0x0000f000:    e001        ..      B        0xf006 ; __fpl_fnaninf + 72
        0x0000f002:    ea4f7cd1    O..|    LSR      r12,r1,#31
        0x0000f006:    eb0c034c    ..L.    ADD      r3,r12,r12,LSL #1
        0x0000f00a:    fa24f403    $...    LSR      r4,r4,r3
        0x0000f00e:    f0040407    ....    AND      r4,r4,#7
        0x0000f012:    f1b40c04    ....    SUBS     r12,r4,#4
        0x0000f016:    d206        ..      BCS      0xf026 ; __fpl_fnaninf + 104
        0x0000f018:    eb0e0c84    ....    ADD      r12,lr,r4,LSL #2
        0x0000f01c:    e8bd4010    ...@    POP      {r4,lr}
        0x0000f020:    f04c0c01    L...    ORR      r12,r12,#1
        0x0000f024:    4760        `G      BX       r12
        0x0000f026:    e8dff00c    ....    TBB      [pc,r12]
    $d
        0x0000f02a:    0807        ..      DCW    2055
        0x0000f02c:    0202        ..      DCW    514
    $t
        0x0000f02e:    f04f4000    O..@    MOV      r0,#0x80000000
        0x0000f032:    f5a00080    ....    SUB      r0,r0,#0x400000
        0x0000f036:    bd10        ..      POP      {r4,pc}
        0x0000f038:    4608        .F      MOV      r0,r1
        0x0000f03a:    0042        B.      LSLS     r2,r0,#1
        0x0000f03c:    bf18        ..      IT       NE
        0x0000f03e:    f1d27280    ...r    RSBSNE   r2,r2,#0x1000000
        0x0000f042:    bf88        ..      IT       HI
        0x0000f044:    f0004000    ...@    ANDHI    r0,r0,#0x80000000
        0x0000f048:    bd10        ..      POP      {r4,pc}
    x$fpl$fpinit
    $v0
    _fp_init
        0x0000f04a:    eef10a10    ....    VMRS     r0,FPSCR
        0x0000f04e:    f64f71ff    O..q    MOV      r1,#0xffff
        0x0000f052:    f2c031c0    ...1    MOVT     r1,#0x3c0
        0x0000f056:    ea200001     ...    BIC      r0,r0,r1
        0x0000f05a:    f0407040    @.@p    ORR      r0,r0,#0x3000000
        0x0000f05e:    eee10a10    ....    VMSR     FPSCR,r0
    __fplib_config_fpu_vfp
    __fplib_config_pureend_doubles
        0x0000f062:    4770        pG      BX       lr
    x$fpl$fretinf
    $v0
    __fpl_fretinf
        0x0000f064:    21ff        .!      MOVS     r1,#0xff
        0x0000f066:    ea4150d0    A..P    ORR      r0,r1,r0,LSR #23
        0x0000f06a:    05c0        ..      LSLS     r0,r0,#23
        0x0000f06c:    4770        pG      BX       lr
    x$fpl$usenofp
    __I$use$fp
        0x0000f06e:    0000        ..      MOVS     r0,r0
    $d.realdata
    .L__const.am_hal_flash_store_ui32.SRAM_write_ui32
        0x0000f070:    bf006001    .`..    DCD    3204472833
        0x0000f074:    bf006800    .h..    DCD    3204474880
        0x0000f078:    bf004770    pG..    DCD    3204466544
    am_hal_cachectrl_defaults
        0x0000f07c:    00000308    ....    DCD    776
    am_hal_pwrctrl_peripheral_control
        0x0000f080:    00000000    ....    DCD    0
        0x0000f084:    00000000    ....    DCD    0
        0x0000f088:    00000000    ....    DCD    0
        0x0000f08c:    00000001    ....    DCD    1
        0x0000f090:    00000004    ....    DCD    4
        0x0000f094:    00000004    ....    DCD    4
        0x0000f098:    00000002    ....    DCD    2
        0x0000f09c:    00000008    ....    DCD    8
        0x0000f0a0:    00000008    ....    DCD    8
        0x0000f0a4:    00000004    ....    DCD    4
        0x0000f0a8:    00000008    ....    DCD    8
        0x0000f0ac:    00000008    ....    DCD    8
        0x0000f0b0:    00000008    ....    DCD    8
        0x0000f0b4:    00000008    ....    DCD    8
        0x0000f0b8:    00000008    ....    DCD    8
        0x0000f0bc:    00000010    ....    DCD    16
        0x0000f0c0:    00000010    ....    DCD    16
        0x0000f0c4:    00000010    ....    DCD    16
        0x0000f0c8:    00000020     ...    DCD    32
        0x0000f0cc:    00000010    ....    DCD    16
        0x0000f0d0:    00000010    ....    DCD    16
        0x0000f0d4:    00000040    @...    DCD    64
        0x0000f0d8:    00000010    ....    DCD    16
        0x0000f0dc:    00000010    ....    DCD    16
        0x0000f0e0:    00000080    ....    DCD    128
        0x0000f0e4:    00000004    ....    DCD    4
        0x0000f0e8:    00000004    ....    DCD    4
        0x0000f0ec:    00000100    ....    DCD    256
        0x0000f0f0:    00000004    ....    DCD    4
        0x0000f0f4:    00000004    ....    DCD    4
        0x0000f0f8:    00000200    ....    DCD    512
        0x0000f0fc:    00000020     ...    DCD    32
        0x0000f100:    00000020     ...    DCD    32
        0x0000f104:    00000400    ....    DCD    1024
        0x0000f108:    00000004    ....    DCD    4
        0x0000f10c:    00000004    ....    DCD    4
        0x0000f110:    00000800    ....    DCD    2048
        0x0000f114:    00000040    @...    DCD    64
        0x0000f118:    00000040    @...    DCD    64
        0x0000f11c:    00001000    ....    DCD    4096
        0x0000f120:    00000040    @...    DCD    64
        0x0000f124:    00000040    @...    DCD    64
        0x0000f128:    00002000    . ..    DCD    8192
        0x0000f12c:    00000040    @...    DCD    64
        0x0000f130:    00000040    @...    DCD    64
        0x0000f134:    00004000    .@..    DCD    16384
        0x0000f138:    00000080    ....    DCD    128
        0x0000f13c:    00000080    ....    DCD    128
        0x0000f140:    00008000    ....    DCD    32768
        0x0000f144:    00000100    ....    DCD    256
        0x0000f148:    00000100    ....    DCD    256
    armBitRevTable
        0x0000f14c:    02000400    ....    DCD    33555456
        0x0000f150:    01000600    ....    DCD    16778752
        0x0000f154:    03000500    ....    DCD    50332928
        0x0000f158:    00800700    ....    DCD    8390400
        0x0000f15c:    02800480    ....    DCD    41944192
        0x0000f160:    01800680    ....    DCD    25167488
        0x0000f164:    03800580    ....    DCD    58721664
        0x0000f168:    00400780    ..@.    DCD    4196224
        0x0000f16c:    02400440    @.@.    DCD    37749824
        0x0000f170:    01400640    @.@.    DCD    20973120
        0x0000f174:    03400540    @.@.    DCD    54527296
        0x0000f178:    00c00740    @...    DCD    12584768
        0x0000f17c:    02c004c0    ....    DCD    46138560
        0x0000f180:    01c006c0    ....    DCD    29361856
        0x0000f184:    03c005c0    ....    DCD    62916032
        0x0000f188:    002007c0    .. .    DCD    2099136
        0x0000f18c:    02200420     . .    DCD    35652640
        0x0000f190:    01200620     . .    DCD    18875936
        0x0000f194:    03200520     . .    DCD    52430112
        0x0000f198:    00a00720     ...    DCD    10487584
        0x0000f19c:    02a004a0    ....    DCD    44041376
        0x0000f1a0:    01a006a0    ....    DCD    27264672
        0x0000f1a4:    03a005a0    ....    DCD    60818848
        0x0000f1a8:    006007a0    ..`.    DCD    6293408
        0x0000f1ac:    02600460    `.`.    DCD    39847008
        0x0000f1b0:    01600660    `.`.    DCD    23070304
        0x0000f1b4:    03600560    `.`.    DCD    56624480
        0x0000f1b8:    00e00760    `...    DCD    14681952
        0x0000f1bc:    02e004e0    ....    DCD    48235744
        0x0000f1c0:    01e006e0    ....    DCD    31459040
        0x0000f1c4:    03e005e0    ....    DCD    65013216
        0x0000f1c8:    001007e0    ....    DCD    1050592
        0x0000f1cc:    02100410    ....    DCD    34604048
        0x0000f1d0:    01100610    ....    DCD    17827344
        0x0000f1d4:    03100510    ....    DCD    51381520
        0x0000f1d8:    00900710    ....    DCD    9438992
        0x0000f1dc:    02900490    ....    DCD    42992784
        0x0000f1e0:    01900690    ....    DCD    26216080
        0x0000f1e4:    03900590    ....    DCD    59770256
        0x0000f1e8:    00500790    ..P.    DCD    5244816
        0x0000f1ec:    02500450    P.P.    DCD    38798416
        0x0000f1f0:    01500650    P.P.    DCD    22021712
        0x0000f1f4:    03500550    P.P.    DCD    55575888
        0x0000f1f8:    00d00750    P...    DCD    13633360
        0x0000f1fc:    02d004d0    ....    DCD    47187152
        0x0000f200:    01d006d0    ....    DCD    30410448
        0x0000f204:    03d005d0    ....    DCD    63964624
        0x0000f208:    003007d0    ..0.    DCD    3147728
        0x0000f20c:    02300430    0.0.    DCD    36701232
        0x0000f210:    01300630    0.0.    DCD    19924528
        0x0000f214:    03300530    0.0.    DCD    53478704
        0x0000f218:    00b00730    0...    DCD    11536176
        0x0000f21c:    02b004b0    ....    DCD    45089968
        0x0000f220:    01b006b0    ....    DCD    28313264
        0x0000f224:    03b005b0    ....    DCD    61867440
        0x0000f228:    007007b0    ..p.    DCD    7342000
        0x0000f22c:    02700470    p.p.    DCD    40895600
        0x0000f230:    01700670    p.p.    DCD    24118896
        0x0000f234:    03700570    p.p.    DCD    57673072
        0x0000f238:    00f00770    p...    DCD    15730544
        0x0000f23c:    02f004f0    ....    DCD    49284336
        0x0000f240:    01f006f0    ....    DCD    32507632
        0x0000f244:    03f005f0    ....    DCD    66061808
        0x0000f248:    000807f0    ....    DCD    526320
        0x0000f24c:    02080408    ....    DCD    34079752
        0x0000f250:    01080608    ....    DCD    17303048
        0x0000f254:    03080508    ....    DCD    50857224
        0x0000f258:    00880708    ....    DCD    8914696
        0x0000f25c:    02880488    ....    DCD    42468488
        0x0000f260:    01880688    ....    DCD    25691784
        0x0000f264:    03880588    ....    DCD    59245960
        0x0000f268:    00480788    ..H.    DCD    4720520
        0x0000f26c:    02480448    H.H.    DCD    38274120
        0x0000f270:    01480648    H.H.    DCD    21497416
        0x0000f274:    03480548    H.H.    DCD    55051592
        0x0000f278:    00c80748    H...    DCD    13109064
        0x0000f27c:    02c804c8    ....    DCD    46662856
        0x0000f280:    01c806c8    ....    DCD    29886152
        0x0000f284:    03c805c8    ....    DCD    63440328
        0x0000f288:    002807c8    ..(.    DCD    2623432
        0x0000f28c:    02280428    (.(.    DCD    36176936
        0x0000f290:    01280628    (.(.    DCD    19400232
        0x0000f294:    03280528    (.(.    DCD    52954408
        0x0000f298:    00a80728    (...    DCD    11011880
        0x0000f29c:    02a804a8    ....    DCD    44565672
        0x0000f2a0:    01a806a8    ....    DCD    27788968
        0x0000f2a4:    03a805a8    ....    DCD    61343144
        0x0000f2a8:    006807a8    ..h.    DCD    6817704
        0x0000f2ac:    02680468    h.h.    DCD    40371304
        0x0000f2b0:    01680668    h.h.    DCD    23594600
        0x0000f2b4:    03680568    h.h.    DCD    57148776
        0x0000f2b8:    00e80768    h...    DCD    15206248
        0x0000f2bc:    02e804e8    ....    DCD    48760040
        0x0000f2c0:    01e806e8    ....    DCD    31983336
        0x0000f2c4:    03e805e8    ....    DCD    65537512
        0x0000f2c8:    001807e8    ....    DCD    1574888
        0x0000f2cc:    02180418    ....    DCD    35128344
        0x0000f2d0:    01180618    ....    DCD    18351640
        0x0000f2d4:    03180518    ....    DCD    51905816
        0x0000f2d8:    00980718    ....    DCD    9963288
        0x0000f2dc:    02980498    ....    DCD    43517080
        0x0000f2e0:    01980698    ....    DCD    26740376
        0x0000f2e4:    03980598    ....    DCD    60294552
        0x0000f2e8:    00580798    ..X.    DCD    5769112
        0x0000f2ec:    02580458    X.X.    DCD    39322712
        0x0000f2f0:    01580658    X.X.    DCD    22546008
        0x0000f2f4:    03580558    X.X.    DCD    56100184
        0x0000f2f8:    00d80758    X...    DCD    14157656
        0x0000f2fc:    02d804d8    ....    DCD    47711448
        0x0000f300:    01d806d8    ....    DCD    30934744
        0x0000f304:    03d805d8    ....    DCD    64488920
        0x0000f308:    003807d8    ..8.    DCD    3672024
        0x0000f30c:    02380438    8.8.    DCD    37225528
        0x0000f310:    01380638    8.8.    DCD    20448824
        0x0000f314:    03380538    8.8.    DCD    54003000
        0x0000f318:    00b80738    8...    DCD    12060472
        0x0000f31c:    02b804b8    ....    DCD    45614264
        0x0000f320:    01b806b8    ....    DCD    28837560
        0x0000f324:    03b805b8    ....    DCD    62391736
        0x0000f328:    007807b8    ..x.    DCD    7866296
        0x0000f32c:    02780478    x.x.    DCD    41419896
        0x0000f330:    01780678    x.x.    DCD    24643192
        0x0000f334:    03780578    x.x.    DCD    58197368
        0x0000f338:    00f80778    x...    DCD    16254840
        0x0000f33c:    02f804f8    ....    DCD    49808632
        0x0000f340:    01f806f8    ....    DCD    33031928
        0x0000f344:    03f805f8    ....    DCD    66586104
        0x0000f348:    000407f8    ....    DCD    264184
        0x0000f34c:    02040404    ....    DCD    33817604
        0x0000f350:    01040604    ....    DCD    17040900
        0x0000f354:    03040504    ....    DCD    50595076
        0x0000f358:    00840704    ....    DCD    8652548
        0x0000f35c:    02840484    ....    DCD    42206340
        0x0000f360:    01840684    ....    DCD    25429636
        0x0000f364:    03840584    ....    DCD    58983812
        0x0000f368:    00440784    ..D.    DCD    4458372
        0x0000f36c:    02440444    D.D.    DCD    38011972
        0x0000f370:    01440644    D.D.    DCD    21235268
        0x0000f374:    03440544    D.D.    DCD    54789444
        0x0000f378:    00c40744    D...    DCD    12846916
        0x0000f37c:    02c404c4    ....    DCD    46400708
        0x0000f380:    01c406c4    ....    DCD    29624004
        0x0000f384:    03c405c4    ....    DCD    63178180
        0x0000f388:    002407c4    ..$.    DCD    2361284
        0x0000f38c:    02240424    $.$.    DCD    35914788
        0x0000f390:    01240624    $.$.    DCD    19138084
        0x0000f394:    03240524    $.$.    DCD    52692260
        0x0000f398:    00a40724    $...    DCD    10749732
        0x0000f39c:    02a404a4    ....    DCD    44303524
        0x0000f3a0:    01a406a4    ....    DCD    27526820
        0x0000f3a4:    03a405a4    ....    DCD    61080996
        0x0000f3a8:    006407a4    ..d.    DCD    6555556
        0x0000f3ac:    02640464    d.d.    DCD    40109156
        0x0000f3b0:    01640664    d.d.    DCD    23332452
        0x0000f3b4:    03640564    d.d.    DCD    56886628
        0x0000f3b8:    00e40764    d...    DCD    14944100
        0x0000f3bc:    02e404e4    ....    DCD    48497892
        0x0000f3c0:    01e406e4    ....    DCD    31721188
        0x0000f3c4:    03e405e4    ....    DCD    65275364
        0x0000f3c8:    001407e4    ....    DCD    1312740
        0x0000f3cc:    02140414    ....    DCD    34866196
        0x0000f3d0:    01140614    ....    DCD    18089492
        0x0000f3d4:    03140514    ....    DCD    51643668
        0x0000f3d8:    00940714    ....    DCD    9701140
        0x0000f3dc:    02940494    ....    DCD    43254932
        0x0000f3e0:    01940694    ....    DCD    26478228
        0x0000f3e4:    03940594    ....    DCD    60032404
        0x0000f3e8:    00540794    ..T.    DCD    5506964
        0x0000f3ec:    02540454    T.T.    DCD    39060564
        0x0000f3f0:    01540654    T.T.    DCD    22283860
        0x0000f3f4:    03540554    T.T.    DCD    55838036
        0x0000f3f8:    00d40754    T...    DCD    13895508
        0x0000f3fc:    02d404d4    ....    DCD    47449300
        0x0000f400:    01d406d4    ....    DCD    30672596
        0x0000f404:    03d405d4    ....    DCD    64226772
        0x0000f408:    003407d4    ..4.    DCD    3409876
        0x0000f40c:    02340434    4.4.    DCD    36963380
        0x0000f410:    01340634    4.4.    DCD    20186676
        0x0000f414:    03340534    4.4.    DCD    53740852
        0x0000f418:    00b40734    4...    DCD    11798324
        0x0000f41c:    02b404b4    ....    DCD    45352116
        0x0000f420:    01b406b4    ....    DCD    28575412
        0x0000f424:    03b405b4    ....    DCD    62129588
        0x0000f428:    007407b4    ..t.    DCD    7604148
        0x0000f42c:    02740474    t.t.    DCD    41157748
        0x0000f430:    01740674    t.t.    DCD    24381044
        0x0000f434:    03740574    t.t.    DCD    57935220
        0x0000f438:    00f40774    t...    DCD    15992692
        0x0000f43c:    02f404f4    ....    DCD    49546484
        0x0000f440:    01f406f4    ....    DCD    32769780
        0x0000f444:    03f405f4    ....    DCD    66323956
        0x0000f448:    000c07f4    ....    DCD    788468
        0x0000f44c:    020c040c    ....    DCD    34341900
        0x0000f450:    010c060c    ....    DCD    17565196
        0x0000f454:    030c050c    ....    DCD    51119372
        0x0000f458:    008c070c    ....    DCD    9176844
        0x0000f45c:    028c048c    ....    DCD    42730636
        0x0000f460:    018c068c    ....    DCD    25953932
        0x0000f464:    038c058c    ....    DCD    59508108
        0x0000f468:    004c078c    ..L.    DCD    4982668
        0x0000f46c:    024c044c    L.L.    DCD    38536268
        0x0000f470:    014c064c    L.L.    DCD    21759564
        0x0000f474:    034c054c    L.L.    DCD    55313740
        0x0000f478:    00cc074c    L...    DCD    13371212
        0x0000f47c:    02cc04cc    ....    DCD    46925004
        0x0000f480:    01cc06cc    ....    DCD    30148300
        0x0000f484:    03cc05cc    ....    DCD    63702476
        0x0000f488:    002c07cc    ..,.    DCD    2885580
        0x0000f48c:    022c042c    ,.,.    DCD    36439084
        0x0000f490:    012c062c    ,.,.    DCD    19662380
        0x0000f494:    032c052c    ,.,.    DCD    53216556
        0x0000f498:    00ac072c    ,...    DCD    11274028
        0x0000f49c:    02ac04ac    ....    DCD    44827820
        0x0000f4a0:    01ac06ac    ....    DCD    28051116
        0x0000f4a4:    03ac05ac    ....    DCD    61605292
        0x0000f4a8:    006c07ac    ..l.    DCD    7079852
        0x0000f4ac:    026c046c    l.l.    DCD    40633452
        0x0000f4b0:    016c066c    l.l.    DCD    23856748
        0x0000f4b4:    036c056c    l.l.    DCD    57410924
        0x0000f4b8:    00ec076c    l...    DCD    15468396
        0x0000f4bc:    02ec04ec    ....    DCD    49022188
        0x0000f4c0:    01ec06ec    ....    DCD    32245484
        0x0000f4c4:    03ec05ec    ....    DCD    65799660
        0x0000f4c8:    001c07ec    ....    DCD    1837036
        0x0000f4cc:    021c041c    ....    DCD    35390492
        0x0000f4d0:    011c061c    ....    DCD    18613788
        0x0000f4d4:    031c051c    ....    DCD    52167964
        0x0000f4d8:    009c071c    ....    DCD    10225436
        0x0000f4dc:    029c049c    ....    DCD    43779228
        0x0000f4e0:    019c069c    ....    DCD    27002524
        0x0000f4e4:    039c059c    ....    DCD    60556700
        0x0000f4e8:    005c079c    ..\.    DCD    6031260
        0x0000f4ec:    025c045c    \.\.    DCD    39584860
        0x0000f4f0:    015c065c    \.\.    DCD    22808156
        0x0000f4f4:    035c055c    \.\.    DCD    56362332
        0x0000f4f8:    00dc075c    \...    DCD    14419804
        0x0000f4fc:    02dc04dc    ....    DCD    47973596
        0x0000f500:    01dc06dc    ....    DCD    31196892
        0x0000f504:    03dc05dc    ....    DCD    64751068
        0x0000f508:    003c07dc    ..<.    DCD    3934172
        0x0000f50c:    023c043c    <.<.    DCD    37487676
        0x0000f510:    013c063c    <.<.    DCD    20710972
        0x0000f514:    033c053c    <.<.    DCD    54265148
        0x0000f518:    00bc073c    <...    DCD    12322620
        0x0000f51c:    02bc04bc    ....    DCD    45876412
        0x0000f520:    01bc06bc    ....    DCD    29099708
        0x0000f524:    03bc05bc    ....    DCD    62653884
        0x0000f528:    007c07bc    ..|.    DCD    8128444
        0x0000f52c:    027c047c    |.|.    DCD    41682044
        0x0000f530:    017c067c    |.|.    DCD    24905340
        0x0000f534:    037c057c    |.|.    DCD    58459516
        0x0000f538:    00fc077c    |...    DCD    16516988
        0x0000f53c:    02fc04fc    ....    DCD    50070780
        0x0000f540:    01fc06fc    ....    DCD    33294076
        0x0000f544:    03fc05fc    ....    DCD    66848252
        0x0000f548:    000207fc    ....    DCD    133116
        0x0000f54c:    02020402    ....    DCD    33686530
        0x0000f550:    01020602    ....    DCD    16909826
        0x0000f554:    03020502    ....    DCD    50464002
        0x0000f558:    00820702    ....    DCD    8521474
        0x0000f55c:    02820482    ....    DCD    42075266
        0x0000f560:    01820682    ....    DCD    25298562
        0x0000f564:    03820582    ....    DCD    58852738
        0x0000f568:    00420782    ..B.    DCD    4327298
        0x0000f56c:    02420442    B.B.    DCD    37880898
        0x0000f570:    01420642    B.B.    DCD    21104194
        0x0000f574:    03420542    B.B.    DCD    54658370
        0x0000f578:    00c20742    B...    DCD    12715842
        0x0000f57c:    02c204c2    ....    DCD    46269634
        0x0000f580:    01c206c2    ....    DCD    29492930
        0x0000f584:    03c205c2    ....    DCD    63047106
        0x0000f588:    002207c2    ..".    DCD    2230210
        0x0000f58c:    02220422    ".".    DCD    35783714
        0x0000f590:    01220622    ".".    DCD    19007010
        0x0000f594:    03220522    ".".    DCD    52561186
        0x0000f598:    00a20722    "...    DCD    10618658
        0x0000f59c:    02a204a2    ....    DCD    44172450
        0x0000f5a0:    01a206a2    ....    DCD    27395746
        0x0000f5a4:    03a205a2    ....    DCD    60949922
        0x0000f5a8:    006207a2    ..b.    DCD    6424482
        0x0000f5ac:    02620462    b.b.    DCD    39978082
        0x0000f5b0:    01620662    b.b.    DCD    23201378
        0x0000f5b4:    03620562    b.b.    DCD    56755554
        0x0000f5b8:    00e20762    b...    DCD    14813026
        0x0000f5bc:    02e204e2    ....    DCD    48366818
        0x0000f5c0:    01e206e2    ....    DCD    31590114
        0x0000f5c4:    03e205e2    ....    DCD    65144290
        0x0000f5c8:    001207e2    ....    DCD    1181666
        0x0000f5cc:    02120412    ....    DCD    34735122
        0x0000f5d0:    01120612    ....    DCD    17958418
        0x0000f5d4:    03120512    ....    DCD    51512594
        0x0000f5d8:    00920712    ....    DCD    9570066
        0x0000f5dc:    02920492    ....    DCD    43123858
        0x0000f5e0:    01920692    ....    DCD    26347154
        0x0000f5e4:    03920592    ....    DCD    59901330
        0x0000f5e8:    00520792    ..R.    DCD    5375890
        0x0000f5ec:    02520452    R.R.    DCD    38929490
        0x0000f5f0:    01520652    R.R.    DCD    22152786
        0x0000f5f4:    03520552    R.R.    DCD    55706962
        0x0000f5f8:    00d20752    R...    DCD    13764434
        0x0000f5fc:    02d204d2    ....    DCD    47318226
        0x0000f600:    01d206d2    ....    DCD    30541522
        0x0000f604:    03d205d2    ....    DCD    64095698
        0x0000f608:    003207d2    ..2.    DCD    3278802
        0x0000f60c:    02320432    2.2.    DCD    36832306
        0x0000f610:    01320632    2.2.    DCD    20055602
        0x0000f614:    03320532    2.2.    DCD    53609778
        0x0000f618:    00b20732    2...    DCD    11667250
        0x0000f61c:    02b204b2    ....    DCD    45221042
        0x0000f620:    01b206b2    ....    DCD    28444338
        0x0000f624:    03b205b2    ....    DCD    61998514
        0x0000f628:    007207b2    ..r.    DCD    7473074
        0x0000f62c:    02720472    r.r.    DCD    41026674
        0x0000f630:    01720672    r.r.    DCD    24249970
        0x0000f634:    03720572    r.r.    DCD    57804146
        0x0000f638:    00f20772    r...    DCD    15861618
        0x0000f63c:    02f204f2    ....    DCD    49415410
        0x0000f640:    01f206f2    ....    DCD    32638706
        0x0000f644:    03f205f2    ....    DCD    66192882
        0x0000f648:    000a07f2    ....    DCD    657394
        0x0000f64c:    020a040a    ....    DCD    34210826
        0x0000f650:    010a060a    ....    DCD    17434122
        0x0000f654:    030a050a    ....    DCD    50988298
        0x0000f658:    008a070a    ....    DCD    9045770
        0x0000f65c:    028a048a    ....    DCD    42599562
        0x0000f660:    018a068a    ....    DCD    25822858
        0x0000f664:    038a058a    ....    DCD    59377034
        0x0000f668:    004a078a    ..J.    DCD    4851594
        0x0000f66c:    024a044a    J.J.    DCD    38405194
        0x0000f670:    014a064a    J.J.    DCD    21628490
        0x0000f674:    034a054a    J.J.    DCD    55182666
        0x0000f678:    00ca074a    J...    DCD    13240138
        0x0000f67c:    02ca04ca    ....    DCD    46793930
        0x0000f680:    01ca06ca    ....    DCD    30017226
        0x0000f684:    03ca05ca    ....    DCD    63571402
        0x0000f688:    002a07ca    ..*.    DCD    2754506
        0x0000f68c:    022a042a    *.*.    DCD    36308010
        0x0000f690:    012a062a    *.*.    DCD    19531306
        0x0000f694:    032a052a    *.*.    DCD    53085482
        0x0000f698:    00aa072a    *...    DCD    11142954
        0x0000f69c:    02aa04aa    ....    DCD    44696746
        0x0000f6a0:    01aa06aa    ....    DCD    27920042
        0x0000f6a4:    03aa05aa    ....    DCD    61474218
        0x0000f6a8:    006a07aa    ..j.    DCD    6948778
        0x0000f6ac:    026a046a    j.j.    DCD    40502378
        0x0000f6b0:    016a066a    j.j.    DCD    23725674
        0x0000f6b4:    036a056a    j.j.    DCD    57279850
        0x0000f6b8:    00ea076a    j...    DCD    15337322
        0x0000f6bc:    02ea04ea    ....    DCD    48891114
        0x0000f6c0:    01ea06ea    ....    DCD    32114410
        0x0000f6c4:    03ea05ea    ....    DCD    65668586
        0x0000f6c8:    001a07ea    ....    DCD    1705962
        0x0000f6cc:    021a041a    ....    DCD    35259418
        0x0000f6d0:    011a061a    ....    DCD    18482714
        0x0000f6d4:    031a051a    ....    DCD    52036890
        0x0000f6d8:    009a071a    ....    DCD    10094362
        0x0000f6dc:    029a049a    ....    DCD    43648154
        0x0000f6e0:    019a069a    ....    DCD    26871450
        0x0000f6e4:    039a059a    ....    DCD    60425626
        0x0000f6e8:    005a079a    ..Z.    DCD    5900186
        0x0000f6ec:    025a045a    Z.Z.    DCD    39453786
        0x0000f6f0:    015a065a    Z.Z.    DCD    22677082
        0x0000f6f4:    035a055a    Z.Z.    DCD    56231258
        0x0000f6f8:    00da075a    Z...    DCD    14288730
        0x0000f6fc:    02da04da    ....    DCD    47842522
        0x0000f700:    01da06da    ....    DCD    31065818
        0x0000f704:    03da05da    ....    DCD    64619994
        0x0000f708:    003a07da    ..:.    DCD    3803098
        0x0000f70c:    023a043a    :.:.    DCD    37356602
        0x0000f710:    013a063a    :.:.    DCD    20579898
        0x0000f714:    033a053a    :.:.    DCD    54134074
        0x0000f718:    00ba073a    :...    DCD    12191546
        0x0000f71c:    02ba04ba    ....    DCD    45745338
        0x0000f720:    01ba06ba    ....    DCD    28968634
        0x0000f724:    03ba05ba    ....    DCD    62522810
        0x0000f728:    007a07ba    ..z.    DCD    7997370
        0x0000f72c:    027a047a    z.z.    DCD    41550970
        0x0000f730:    017a067a    z.z.    DCD    24774266
        0x0000f734:    037a057a    z.z.    DCD    58328442
        0x0000f738:    00fa077a    z...    DCD    16385914
        0x0000f73c:    02fa04fa    ....    DCD    49939706
        0x0000f740:    01fa06fa    ....    DCD    33163002
        0x0000f744:    03fa05fa    ....    DCD    66717178
        0x0000f748:    000607fa    ....    DCD    395258
        0x0000f74c:    02060406    ....    DCD    33948678
        0x0000f750:    01060606    ....    DCD    17171974
        0x0000f754:    03060506    ....    DCD    50726150
        0x0000f758:    00860706    ....    DCD    8783622
        0x0000f75c:    02860486    ....    DCD    42337414
        0x0000f760:    01860686    ....    DCD    25560710
        0x0000f764:    03860586    ....    DCD    59114886
        0x0000f768:    00460786    ..F.    DCD    4589446
        0x0000f76c:    02460446    F.F.    DCD    38143046
        0x0000f770:    01460646    F.F.    DCD    21366342
        0x0000f774:    03460546    F.F.    DCD    54920518
        0x0000f778:    00c60746    F...    DCD    12977990
        0x0000f77c:    02c604c6    ....    DCD    46531782
        0x0000f780:    01c606c6    ....    DCD    29755078
        0x0000f784:    03c605c6    ....    DCD    63309254
        0x0000f788:    002607c6    ..&.    DCD    2492358
        0x0000f78c:    02260426    &.&.    DCD    36045862
        0x0000f790:    01260626    &.&.    DCD    19269158
        0x0000f794:    03260526    &.&.    DCD    52823334
        0x0000f798:    00a60726    &...    DCD    10880806
        0x0000f79c:    02a604a6    ....    DCD    44434598
        0x0000f7a0:    01a606a6    ....    DCD    27657894
        0x0000f7a4:    03a605a6    ....    DCD    61212070
        0x0000f7a8:    006607a6    ..f.    DCD    6686630
        0x0000f7ac:    02660466    f.f.    DCD    40240230
        0x0000f7b0:    01660666    f.f.    DCD    23463526
        0x0000f7b4:    03660566    f.f.    DCD    57017702
        0x0000f7b8:    00e60766    f...    DCD    15075174
        0x0000f7bc:    02e604e6    ....    DCD    48628966
        0x0000f7c0:    01e606e6    ....    DCD    31852262
        0x0000f7c4:    03e605e6    ....    DCD    65406438
        0x0000f7c8:    001607e6    ....    DCD    1443814
        0x0000f7cc:    02160416    ....    DCD    34997270
        0x0000f7d0:    01160616    ....    DCD    18220566
        0x0000f7d4:    03160516    ....    DCD    51774742
        0x0000f7d8:    00960716    ....    DCD    9832214
        0x0000f7dc:    02960496    ....    DCD    43386006
        0x0000f7e0:    01960696    ....    DCD    26609302
        0x0000f7e4:    03960596    ....    DCD    60163478
        0x0000f7e8:    00560796    ..V.    DCD    5638038
        0x0000f7ec:    02560456    V.V.    DCD    39191638
        0x0000f7f0:    01560656    V.V.    DCD    22414934
        0x0000f7f4:    03560556    V.V.    DCD    55969110
        0x0000f7f8:    00d60756    V...    DCD    14026582
        0x0000f7fc:    02d604d6    ....    DCD    47580374
        0x0000f800:    01d606d6    ....    DCD    30803670
        0x0000f804:    03d605d6    ....    DCD    64357846
        0x0000f808:    003607d6    ..6.    DCD    3540950
        0x0000f80c:    02360436    6.6.    DCD    37094454
        0x0000f810:    01360636    6.6.    DCD    20317750
        0x0000f814:    03360536    6.6.    DCD    53871926
        0x0000f818:    00b60736    6...    DCD    11929398
        0x0000f81c:    02b604b6    ....    DCD    45483190
        0x0000f820:    01b606b6    ....    DCD    28706486
        0x0000f824:    03b605b6    ....    DCD    62260662
        0x0000f828:    007607b6    ..v.    DCD    7735222
        0x0000f82c:    02760476    v.v.    DCD    41288822
        0x0000f830:    01760676    v.v.    DCD    24512118
        0x0000f834:    03760576    v.v.    DCD    58066294
        0x0000f838:    00f60776    v...    DCD    16123766
        0x0000f83c:    02f604f6    ....    DCD    49677558
        0x0000f840:    01f606f6    ....    DCD    32900854
        0x0000f844:    03f605f6    ....    DCD    66455030
        0x0000f848:    000e07f6    ....    DCD    919542
        0x0000f84c:    020e040e    ....    DCD    34472974
        0x0000f850:    010e060e    ....    DCD    17696270
        0x0000f854:    030e050e    ....    DCD    51250446
        0x0000f858:    008e070e    ....    DCD    9307918
        0x0000f85c:    028e048e    ....    DCD    42861710
        0x0000f860:    018e068e    ....    DCD    26085006
        0x0000f864:    038e058e    ....    DCD    59639182
        0x0000f868:    004e078e    ..N.    DCD    5113742
        0x0000f86c:    024e044e    N.N.    DCD    38667342
        0x0000f870:    014e064e    N.N.    DCD    21890638
        0x0000f874:    034e054e    N.N.    DCD    55444814
        0x0000f878:    00ce074e    N...    DCD    13502286
        0x0000f87c:    02ce04ce    ....    DCD    47056078
        0x0000f880:    01ce06ce    ....    DCD    30279374
        0x0000f884:    03ce05ce    ....    DCD    63833550
        0x0000f888:    002e07ce    ....    DCD    3016654
        0x0000f88c:    022e042e    ....    DCD    36570158
        0x0000f890:    012e062e    ....    DCD    19793454
        0x0000f894:    032e052e    ....    DCD    53347630
        0x0000f898:    00ae072e    ....    DCD    11405102
        0x0000f89c:    02ae04ae    ....    DCD    44958894
        0x0000f8a0:    01ae06ae    ....    DCD    28182190
        0x0000f8a4:    03ae05ae    ....    DCD    61736366
        0x0000f8a8:    006e07ae    ..n.    DCD    7210926
        0x0000f8ac:    026e046e    n.n.    DCD    40764526
        0x0000f8b0:    016e066e    n.n.    DCD    23987822
        0x0000f8b4:    036e056e    n.n.    DCD    57541998
        0x0000f8b8:    00ee076e    n...    DCD    15599470
        0x0000f8bc:    02ee04ee    ....    DCD    49153262
        0x0000f8c0:    01ee06ee    ....    DCD    32376558
        0x0000f8c4:    03ee05ee    ....    DCD    65930734
        0x0000f8c8:    001e07ee    ....    DCD    1968110
        0x0000f8cc:    021e041e    ....    DCD    35521566
        0x0000f8d0:    011e061e    ....    DCD    18744862
        0x0000f8d4:    031e051e    ....    DCD    52299038
        0x0000f8d8:    009e071e    ....    DCD    10356510
        0x0000f8dc:    029e049e    ....    DCD    43910302
        0x0000f8e0:    019e069e    ....    DCD    27133598
        0x0000f8e4:    039e059e    ....    DCD    60687774
        0x0000f8e8:    005e079e    ..^.    DCD    6162334
        0x0000f8ec:    025e045e    ^.^.    DCD    39715934
        0x0000f8f0:    015e065e    ^.^.    DCD    22939230
        0x0000f8f4:    035e055e    ^.^.    DCD    56493406
        0x0000f8f8:    00de075e    ^...    DCD    14550878
        0x0000f8fc:    02de04de    ....    DCD    48104670
        0x0000f900:    01de06de    ....    DCD    31327966
        0x0000f904:    03de05de    ....    DCD    64882142
        0x0000f908:    003e07de    ..>.    DCD    4065246
        0x0000f90c:    023e043e    >.>.    DCD    37618750
        0x0000f910:    013e063e    >.>.    DCD    20842046
        0x0000f914:    033e053e    >.>.    DCD    54396222
        0x0000f918:    00be073e    >...    DCD    12453694
        0x0000f91c:    02be04be    ....    DCD    46007486
        0x0000f920:    01be06be    ....    DCD    29230782
        0x0000f924:    03be05be    ....    DCD    62784958
        0x0000f928:    007e07be    ..~.    DCD    8259518
        0x0000f92c:    027e047e    ~.~.    DCD    41813118
        0x0000f930:    017e067e    ~.~.    DCD    25036414
        0x0000f934:    037e057e    ~.~.    DCD    58590590
        0x0000f938:    00fe077e    ~...    DCD    16648062
        0x0000f93c:    02fe04fe    ....    DCD    50201854
        0x0000f940:    01fe06fe    ....    DCD    33425150
        0x0000f944:    03fe05fe    ....    DCD    66979326
        0x0000f948:    000107fe    ....    DCD    67582
    g_AM_BSP_GPIO_ITM_SWO
        0x0000f94c:    00000002    ....    DCD    2
    g_AM_HAL_GPIO_OUTPUT
        0x0000f950:    00000403    ....    DCD    1027
    g_am_hal_mcuctrl_flash_size
        0x0000f954:    00004000    .@..    DCD    16384
        0x0000f958:    00008000    ....    DCD    32768
        0x0000f95c:    00010000    ....    DCD    65536
        0x0000f960:    00020000    ....    DCD    131072
        0x0000f964:    00040000    ....    DCD    262144
        0x0000f968:    00080000    ....    DCD    524288
        0x0000f96c:    00100000    ....    DCD    1048576
        0x0000f970:    00200000    .. .    DCD    2097152
        0x0000f974:    00180000    ....    DCD    1572864
        0x0000f978:    00000000    ....    DCD    0
        0x0000f97c:    00000000    ....    DCD    0
        0x0000f980:    00000000    ....    DCD    0
        0x0000f984:    00000000    ....    DCD    0
        0x0000f988:    00000000    ....    DCD    0
        0x0000f98c:    00000000    ....    DCD    0
        0x0000f990:    00000000    ....    DCD    0
    g_am_hal_mcuctrl_sram_size
        0x0000f994:    00004000    .@..    DCD    16384
        0x0000f998:    00008000    ....    DCD    32768
        0x0000f99c:    00010000    ....    DCD    65536
        0x0000f9a0:    00020000    ....    DCD    131072
        0x0000f9a4:    00040000    ....    DCD    262144
        0x0000f9a8:    00080000    ....    DCD    524288
        0x0000f9ac:    00100000    ....    DCD    1048576
        0x0000f9b0:    00060000    ....    DCD    393216
        0x0000f9b4:    000c0000    ....    DCD    786432
        0x0000f9b8:    00000000    ....    DCD    0
        0x0000f9bc:    00000000    ....    DCD    0
        0x0000f9c0:    00000000    ....    DCD    0
        0x0000f9c4:    00000000    ....    DCD    0
        0x0000f9c8:    00000000    ....    DCD    0
        0x0000f9cc:    00000000    ....    DCD    0
        0x0000f9d0:    00000000    ....    DCD    0
    g_ui8Bit76Capabilities
        0x0000f9d4:    02800101    ....    DCD    41943297
        0x0000f9d8:    80010180    ....    DCD    2147549568
        0x0000f9dc:    80800101    ....    DCD    2155872513
        0x0000f9e0:    80808080    ....    DCD    2155905152
        0x0000f9e4:    80808080    ....    DCD    2155905152
        0x0000f9e8:    80808008    ....    DCD    2155905032
        0x0000f9ec:    01800180    ....    DCD    25166208
        0x0000f9f0:    80808080    ....    DCD    2155905152
        0x0000f9f4:    80808080    ....    DCD    2155905152
        0x0000f9f8:    01800402    ....    DCD    25166850
        0x0000f9fc:    01010401    ....    DCD    16843777
        0x0000fa00:    80808080    ....    DCD    2155905152
        0x0000fa04:    80800101    ....    DCD    2155872513
        0x0000fa08:    80808080    ....    DCD    2155905152
        0x0000fa0c:    80808080    ....    DCD    2155905152
        0x0000fa10:    80808080    ....    DCD    2155905152
        0x0000fa14:    80808080    ....    DCD    2155905152
        0x0000fa18:    80808080    ....    DCD    2155905152
        0x0000fa1c:    8080        ..      DCW    32896
    g_ui8Inpen
        0x0000fa1e:    2323        ##      DCW    8995
        0x0000fa20:    03a16227    'b..    DCD    60908071
        0x0000fa24:    53031087    ...S    DCD    1392709767
        0x0000fa28:    8151e100    ..Q.    DCD    2169626880
        0x0000fa2c:    c4055541    AU..    DCD    3288683841
        0x0000fa30:    b1014080    .@..    DCD    2969649280
        0x0000fa34:    31144140    @A.1    DCD    823411008
        0x0000fa38:    f10031a0    .1..    DCD    4043321760
        0x0000fa3c:    21911180    ...!    DCD    563155328
        0x0000fa40:    11e511c1    ....    DCD    300224961
        0x0000fa44:    00373045    E07.    DCD    3616837
        0x0000fa48:    71003130    01.q    DCD    1895838000
        0x0000fa4c:    31304000    .@01    DCD    825245696
        0x0000fa50:    01010100    ....    DCD    16843008
        0x0000fa54:    01010101    ....    DCD    16843009
        0x0000fa58:    a0010101    ....    DCD    2684420353
        0x0000fa5c:    0101a050    P...    DCD    16883792
        0x0000fa60:    a0010101    ....    DCD    2684420353
        0x0000fa64:    50a0a0a0    ...P    DCD    1352704160
    g_ui8NCEtable
        0x0000fa68:    0112a4a3    ....    DCD    17999011
        0x0000fa6c:    a4a2a1a0    ....    DCD    2762121632
        0x0000fa70:    92b502b3    ....    DCD    2461336243
        0x0000fa74:    82858483    ....    DCD    2189788291
        0x0000fa78:    91019493    ....    DCD    2432799891
        0x0000fa7c:    ffffffff    ....    DCD    4294967295
        0x0000fa80:    ffffffff    ....    DCD    4294967295
        0x0000fa84:    00951201    ....    DCD    9769473
        0x0000fa88:    80028483    ....    DCD    2147648643
        0x0000fa8c:    b2b5b401    ....    DCD    2998252545
        0x0000fa90:    0011a4a3    ....    DCD    1156259
        0x0000fa94:    83828180    ....    DCD    2206368128
        0x0000fa98:    10850283    ....    DCD    277152387
        0x0000fa9c:    90959493    ....    DCD    2425722003
        0x0000faa0:    a4a212a0    ....    DCD    2762085024
        0x0000faa4:    00b2b101    ....    DCD    11710721
        0x0000faa8:    85b20280    ....    DCD    2243035776
        0x0000faac:    94029190    ....    DCD    2483196304
        0x0000fab0:    a3a2a102    ....    DCD    2745344258
        0x0000fab4:    00b311b0    ....    DCD    11735472
        0x0000fab8:    92950012    ....    DCD    2459238418
        0x0000fabc:    0102a4a3    ....    DCD    16950435
        0x0000fac0:    02b5b4b3    ....    DCD    45462707
        0x0000fac4:    84828180    ....    DCD    2223145344
        0x0000fac8:    95920190    ....    DCD    2509373840
        0x0000facc:    a0a501a3    ....    DCD    2695168419
        0x0000fad0:    b1b5b4b3    ....    DCD    2981475507
        0x0000fad4:    81008402    ....    DCD    2164294658
        0x0000fad8:    00959493    ....    DCD    9802899
        0x0000fadc:    a1a512a3    ....    DCD    2711949987
        0x0000fae0:    b002b400    ....    DCD    2952967168
        0x0000fae4:    84820201    ....    DCD    2223112705
        0x0000fae8:    1001b190    ....    DCD    268546448
        0x0000faec:    a59211a0    ....    DCD    2777813408
        0x0000faf0:    11b202b0    ....    DCD    296878768
        0x0000faf4:    02828101    ....    DCD    42107137
        0x0000faf8:    10959493    ....    DCD    278238355
        0x0000fafc:    00a5a493    ....    DCD    10855571
        0x0000fb00:    b512b1b0    ....    DCD    3037901232
        0x0000fb04:    ffffffff    ....    DCD    4294967295
        0x0000fb08:    ffffffff    ....    DCD    4294967295
        0x0000fb0c:    10119102    ....    DCD    269586690
        0x0000fb10:    85820180    ....    DCD    2239889792
        0x0000fb14:    10029190    ....    DCD    268603792
        0x0000fb18:    a5a200a0    ....    DCD    2778857632
        0x0000fb1c:    b185b4b3    ....    DCD    2978329779
        0x0000fb20:    10020183    ....    DCD    268566915
        0x0000fb24:    93928111    ....    DCD    2475852049
        0x0000fb28:    12a2a101    ....    DCD    312647937
        0x0000fb2c:    81b211b0    ....    DCD    2175930800
        0x0000fb30:    80b20201    ....    DCD    2159149569
        0x0000fb34:    809291a4    ....    DCD    2157089188
        0x0000fb38:    9200a190    ....    DCD    2449514896
        0x0000fb3c:    8202b1a0    ....    DCD    2181214624
        0x0000fb40:    83858402    ....    DCD    2206565378
        0x0000fb44:    84950083    ....    DCD    2224357507
        0x0000fb48:    10a5b4a3    ....    DCD    279295139
        0x0000fb4c:    90b5b400    ....    DCD    2427827200
        0x0000fb50:    b50081b3    ....    DCD    3036709299
        0x0000fb54:    00929111    ....    DCD    9605393
        0x0000fb58:    b0a2a110    ....    DCD    2963448080
        0x0000fb5c:    0102b100    ....    DCD    16953600
        0x0000fb60:    11858410    ....    DCD    293962768
        0x0000fb64:    00029401    ....    DCD    168961
        0x0000fb68:    10a5a480    ....    DCD    279291008
        0x0000fb6c:    93a50090    ....    DCD    2477064336
        0x0000fb70:    94828101    ....    DCD    2491580673
        0x0000fb74:    95b291b0    ....    DCD    2511507888
        0x0000fb78:    a0a20083    ....    DCD    2694971523
        0x0000fb7c:    0100b193    ....    DCD    16822675
        0x0000fb80:    118502a3    ....    DCD    293929635
        0x0000fb84:    a1b094b3    ....    DCD    2712704179
        0x0000fb88:    a2010200    ....    DCD    2717975040
        0x0000fb8c:    02b5b401    ....    DCD    45462529
    g_ui8nCEpins
        0x0000fb90:    02070707    ....    DCD    34014983
        0x0000fb94:    00080802    ....    DCD    526338
        0x0000fb98:    01020202    ....    DCD    16908802
        0x0000fb9c:    01010101    ....    DCD    16843009
        0x0000fba0:    01010101    ....    DCD    16843009
        0x0000fba4:    01010101    ....    DCD    16843009
        0x0000fba8:    01010101    ....    DCD    16843009
        0x0000fbac:    01010101    ....    DCD    16843009
        0x0000fbb0:    01010101    ....    DCD    16843009
        0x0000fbb4:    08010101    ....    DCD    134283521
        0x0000fbb8:    01010008    ....    DCD    16842760
        0x0000fbbc:    01010101    ....    DCD    16843009
        0x0000fbc0:    01010101    ....    DCD    16843009
        0x0000fbc4:    01010101    ....    DCD    16843009
        0x0000fbc8:    01010101    ....    DCD    16843009
        0x0000fbcc:    01010101    ....    DCD    16843009
        0x0000fbd0:    01010101    ....    DCD    16843009
        0x0000fbd4:    01010101    ....    DCD    16843009
        0x0000fbd8:    0101        ..      DCW    257
    .L.str.1
        0x0000fbda:    4450        PD      DCW    17488
        0x0000fbdc:    6c43204d    M Cl    DCD    1816338509
        0x0000fbe0:    206b636f    ock     DCD    543908719
        0x0000fbe4:    297a4828    (Hz)    DCD    695879720
        0x0000fbe8:    2020203a    :       DCD    538976314
        0x0000fbec:    20202020            DCD    538976288
        0x0000fbf0:    31252020      %1    DCD    824516640
        0x0000fbf4:    000a6432    2d..    DCD    681010
    .L.str.2
        0x0000fbf8:    69636544    Deci    DCD    1768121668
        0x0000fbfc:    6974616d    mati    DCD    1769234797
        0x0000fc00:    52206e6f    on R    DCD    1377857135
        0x0000fc04:    3a657461    ate:    DCD    979727457
        0x0000fc08:    20202020            DCD    538976288
        0x0000fc0c:    20202020            DCD    538976288
        0x0000fc10:    64323125    %12d    DCD    1681010981
        0x0000fc14:    000a        ..      DCW    10
    .L.str
        0x0000fc16:    6148        Ha      DCW    24904
        0x0000fc18:    46206472    rd F    DCD    1176527986
        0x0000fc1c:    746c7561    ault    DCD    1953264993
        0x0000fc20:    61747320     sta    DCD    1635021600
        0x0000fc24:    64656b63    cked    DCD    1684368227
        0x0000fc28:    74616420     dat    DCD    1952539680
        0x0000fc2c:    000a3a61    a:..    DCD    670305
    .L.str.23
        0x0000fc30:    2055434d    MCU     DCD    542458701
        0x0000fc34:    6c756146    Faul    DCD    1819631942
        0x0000fc38:    61642074    t da    DCD    1633951860
        0x0000fc3c:    0a3a6174    ta:.    DCD    171598196
        0x0000fc40:    00          .       DCB    0
    .L.str.9
        0x0000fc41:    4f7468      Oth     DCB    79,116,104
        0x0000fc44:    48207265    er H    DCD    1210085989
        0x0000fc48:    20647261    ard     DCD    543453793
        0x0000fc4c:    6c756146    Faul    DCD    1819631942
        0x0000fc50:    61642074    t da    DCD    1633951860
        0x0000fc54:    0a3a6174    ta:.    DCD    171598196
        0x0000fc58:    00          .       DCB    0
    .L.str.16
        0x0000fc59:    202020              DCB    32,32,32
        0x0000fc5c:    20202020            DCD    538976288
        0x0000fc60:    53464220     BFS    DCD    1397113376
        0x0000fc64:    69622052    R bi    DCD    1768038482
        0x0000fc68:    203a3674    t6:     DCD    540685940
        0x0000fc6c:    45534552    RESE    DCD    1163085138
        0x0000fc70:    44455652    RVED    DCD    1145394770
        0x0000fc74:    000a        ..      DCW    10
    .L.str.15
        0x0000fc76:    2020                DCW    8224
        0x0000fc78:    20202020            DCD    538976288
        0x0000fc7c:    46422020      BF    DCD    1178738720
        0x0000fc80:    62205253    SR b    DCD    1646285395
        0x0000fc84:    3a377469    it7:    DCD    976712809
        0x0000fc88:    41464220     BFA    DCD    1095123488
        0x0000fc8c:    4c415652    RVAL    DCD    1279350354
        0x0000fc90:    000a4449    ID..    DCD    672841
    .L.str.21
        0x0000fc94:    20202020            DCD    538976288
        0x0000fc98:    20202020            DCD    538976288
        0x0000fc9c:    52534642    BFSR    DCD    1381189186
        0x0000fca0:    74696220     bit    DCD    1953063456
        0x0000fca4:    50203a31    1: P    DCD    1344289329
        0x0000fca8:    49434552    RECI    DCD    1229145426
        0x0000fcac:    52454553    SEER    DCD    1380271443
        0x0000fcb0:    0a52        R.      DCW    2642
        0x0000fcb2:    00          .       DCB    0
    .L.str.18
        0x0000fcb3:    20                  DCB    32
        0x0000fcb4:    20202020            DCD    538976288
        0x0000fcb8:    42202020       B    DCD    1109401632
        0x0000fcbc:    20525346    FSR     DCD    542266182
        0x0000fcc0:    34746962    bit4    DCD    880044386
        0x0000fcc4:    5453203a    : ST    DCD    1414733882
        0x0000fcc8:    5252454b    KERR    DCD    1381123403
        0x0000fccc:    000a        ..      DCW    10
    .L.str.19
        0x0000fcce:    2020                DCW    8224
        0x0000fcd0:    20202020            DCD    538976288
        0x0000fcd4:    46422020      BF    DCD    1178738720
        0x0000fcd8:    62205253    SR b    DCD    1646285395
        0x0000fcdc:    3a337469    it3:    DCD    976450665
        0x0000fce0:    534e5520     UNS    DCD    1397642528
        0x0000fce4:    52454b54    TKER    DCD    1380272980
        0x0000fce8:    0a52        R.      DCW    2642
        0x0000fcea:    00          .       DCB    0
    .L.str.17
        0x0000fceb:    20                  DCB    32
        0x0000fcec:    20202020            DCD    538976288
        0x0000fcf0:    42202020       B    DCD    1109401632
        0x0000fcf4:    20525346    FSR     DCD    542266182
        0x0000fcf8:    35746962    bit5    DCD    896821602
        0x0000fcfc:    534c203a    : LS    DCD    1397497914
        0x0000fd00:    52524550    PERR    DCD    1381123408
        0x0000fd04:    000a        ..      DCW    10
    .L.str.20
        0x0000fd06:    2020                DCW    8224
        0x0000fd08:    20202020            DCD    538976288
        0x0000fd0c:    46422020      BF    DCD    1178738720
        0x0000fd10:    62205253    SR b    DCD    1646285395
        0x0000fd14:    3a327469    it2:    DCD    976385129
        0x0000fd18:    504d4920     IMP    DCD    1347242272
        0x0000fd1c:    49434552    RECI    DCD    1229145426
        0x0000fd20:    52524553    SERR    DCD    1381123411
        0x0000fd24:    000a        ..      DCW    10
    .L.str.22
        0x0000fd26:    2020                DCW    8224
        0x0000fd28:    20202020            DCD    538976288
        0x0000fd2c:    46422020      BF    DCD    1178738720
        0x0000fd30:    62205253    SR b    DCD    1646285395
        0x0000fd34:    3a307469    it0:    DCD    976254057
        0x0000fd38:    55424920     IBU    DCD    1430407456
        0x0000fd3c:    52524553    SERR    DCD    1381123411
        0x0000fd40:    000a        ..      DCW    10
    .L.str.25
        0x0000fd42:    2020                DCW    8224
        0x0000fd44:    4f434420     DCO    DCD    1329808416
        0x0000fd48:    46204544    DE F    DCD    1176520004
        0x0000fd4c:    746c7561    ault    DCD    1953264993
        0x0000fd50:    64644120     Add    DCD    1684291872
        0x0000fd54:    73736572    ress    DCD    1936942450
        0x0000fd58:    7830203a    : 0x    DCD    2016419898
        0x0000fd5c:    58383025    %08X    DCD    1480077349
        0x0000fd60:    000a        ..      DCW    10
    .L.str.24
        0x0000fd62:    2020                DCW    8224
        0x0000fd64:    4f434920     ICO    DCD    1329809696
        0x0000fd68:    46204544    DE F    DCD    1176520004
        0x0000fd6c:    746c7561    ault    DCD    1953264993
        0x0000fd70:    64644120     Add    DCD    1684291872
        0x0000fd74:    73736572    ress    DCD    1936942450
        0x0000fd78:    7830203a    : 0x    DCD    2016419898
        0x0000fd7c:    58383025    %08X    DCD    1480077349
        0x0000fd80:    000a        ..      DCW    10
    .L.str.26
        0x0000fd82:    2020                DCW    8224
        0x0000fd84:    53595320     SYS    DCD    1398362912
        0x0000fd88:    75614620     Fau    DCD    1969309216
        0x0000fd8c:    4120746c    lt A    DCD    1092645996
        0x0000fd90:    65726464    ddre    DCD    1701995620
        0x0000fd94:    203a7373    ss:     DCD    540701555
        0x0000fd98:    30257830    0x%0    DCD    807761968
        0x0000fd9c:    000a5838    8X..    DCD    677944
    .L.str.1
        0x0000fda0:    20202020            DCD    538976288
        0x0000fda4:    20203052    R0      DCD    538980434
        0x0000fda8:    7830203d    = 0x    DCD    2016419901
        0x0000fdac:    58383025    %08X    DCD    1480077349
        0x0000fdb0:    000a        ..      DCW    10
    .L.str.2
        0x0000fdb2:    2020                DCW    8224
        0x0000fdb4:    31522020      R1    DCD    827465760
        0x0000fdb8:    203d2020      =     DCD    540876832
        0x0000fdbc:    30257830    0x%0    DCD    807761968
        0x0000fdc0:    000a5838    8X..    DCD    677944
    .L.str.3
        0x0000fdc4:    20202020            DCD    538976288
        0x0000fdc8:    20203252    R2      DCD    538980946
        0x0000fdcc:    7830203d    = 0x    DCD    2016419901
        0x0000fdd0:    58383025    %08X    DCD    1480077349
        0x0000fdd4:    000a        ..      DCW    10
    .L.str.4
        0x0000fdd6:    2020                DCW    8224
        0x0000fdd8:    33522020      R3    DCD    861020192
        0x0000fddc:    203d2020      =     DCD    540876832
        0x0000fde0:    30257830    0x%0    DCD    807761968
        0x0000fde4:    000a5838    8X..    DCD    677944
    .L.str.7
        0x0000fde8:    20202020            DCD    538976288
        0x0000fdec:    20204350    PC      DCD    538985296
        0x0000fdf0:    7830203d    = 0x    DCD    2016419901
        0x0000fdf4:    58383025    %08X    DCD    1480077349
        0x0000fdf8:    000a        ..      DCW    10
    .L.str.6
        0x0000fdfa:    2020                DCW    8224
        0x0000fdfc:    524c2020      LR    DCD    1380720672
        0x0000fe00:    203d2020      =     DCD    540876832
        0x0000fe04:    30257830    0x%0    DCD    807761968
        0x0000fe08:    000a5838    8X..    DCD    677944
    .L.str.11
        0x0000fe0c:    20202020            DCD    538976288
        0x0000fe10:    52414642    BFAR    DCD    1380009538
        0x0000fe14:    75422820     (Bu    DCD    1967269920
        0x0000fe18:    61462073    s Fa    DCD    1631985779
        0x0000fe1c:    20746c75    ult     DCD    544500853
        0x0000fe20:    72646441    Addr    DCD    1919181889
        0x0000fe24:    67655220     Reg    DCD    1734693408
        0x0000fe28:    203d2029    ) =     DCD    540876841
        0x0000fe2c:    30257830    0x%0    DCD    807761968
        0x0000fe30:    000a5838    8X..    DCD    677944
    .L.str.5
        0x0000fe34:    20202020            DCD    538976288
        0x0000fe38:    20323152    R12     DCD    540160338
        0x0000fe3c:    7830203d    = 0x    DCD    2016419901
        0x0000fe40:    58383025    %08X    DCD    1480077349
        0x0000fe44:    000a        ..      DCW    10
    .L.str.8
        0x0000fe46:    2020                DCW    8224
        0x0000fe48:    53502020      PS    DCD    1397760032
        0x0000fe4c:    203d2052    R =     DCD    540876882
        0x0000fe50:    30257830    0x%0    DCD    807761968
        0x0000fe54:    000a5838    8X..    DCD    677944
    .L.str.10
        0x0000fe58:    20202020            DCD    538976288
        0x0000fe5c:    6c756146    Faul    DCD    1819631942
        0x0000fe60:    64612074    t ad    DCD    1684086900
        0x0000fe64:    73657264    dres    DCD    1936028260
        0x0000fe68:    203d2073    s =     DCD    540876915
        0x0000fe6c:    30257830    0x%0    DCD    807761968
        0x0000fe70:    000a5838    8X..    DCD    677944
    twiddleCoef_4096
        0x0000fe74:    3f800000    ...?    DCD    1065353216
        0x0000fe78:    00000000    ....    DCD    0
        0x0000fe7c:    3f7fffec    ...?    DCD    1065353196
        0x0000fe80:    3ac90fd4    ...:    DCD    986255316
        0x0000fe84:    3f7fffb1    ...?    DCD    1065353137
        0x0000fe88:    3b490fc7    ..I;    DCD    994643911
        0x0000fe8c:    3f7fff4e    N..?    DCD    1065353038
        0x0000fe90:    3b96cbc1    ...;    DCD    999738305
        0x0000fe94:    3f7ffec4    ...?    DCD    1065352900
        0x0000fe98:    3bc90f89    ...;    DCD    1003032457
        0x0000fe9c:    3f7ffe13    ...?    DCD    1065352723
        0x0000fea0:    3bfb5330    0S.;    DCD    1006326576
        0x0000fea4:    3f7ffd39    9..?    DCD    1065352505
        0x0000fea8:    3c16cb59    Y..<    DCD    1008126809
        0x0000feac:    3f7ffc39    9..?    DCD    1065352249
        0x0000feb0:    3c2fed02    ../<    DCD    1009773826
        0x0000feb4:    3f7ffb11    ...?    DCD    1065351953
        0x0000feb8:    3c490e90    ..I<    DCD    1011420816
        0x0000febc:    3f7ff9c1    ...?    DCD    1065351617
        0x0000fec0:    3c623000    .0b<    DCD    1013067776
        0x0000fec4:    3f7ff84a    J..?    DCD    1065351242
        0x0000fec8:    3c7b514b    KQ{<    DCD    1014714699
        0x0000fecc:    3f7ff6ac    ...?    DCD    1065350828
        0x0000fed0:    3c8a3938    89.<    DCD    1015691576
        0x0000fed4:    3f7ff4e6    ...?    DCD    1065350374
        0x0000fed8:    3c96c9b6    ...<    DCD    1016514998
        0x0000fedc:    3f7ff2f8    ...?    DCD    1065349880
        0x0000fee0:    3ca35a1c    .Z.<    DCD    1017338396
        0x0000fee4:    3f7ff0e3    ...?    DCD    1065349347
        0x0000fee8:    3cafea69    i..<    DCD    1018161769
        0x0000feec:    3f7feea7    ...?    DCD    1065348775
        0x0000fef0:    3cbc7a9b    .z.<    DCD    1018985115
        0x0000fef4:    3f7fec43    C..?    DCD    1065348163
        0x0000fef8:    3cc90ab0    ...<    DCD    1019808432
        0x0000fefc:    3f7fe9b8    ...?    DCD    1065347512
        0x0000ff00:    3cd59aa6    ...<    DCD    1020631718
        0x0000ff04:    3f7fe705    ...?    DCD    1065346821
        0x0000ff08:    3ce22a7b    {*.<    DCD    1021454971
        0x0000ff0c:    3f7fe42b    +..?    DCD    1065346091
        0x0000ff10:    3ceeba2d    -..<    DCD    1022278189
        0x0000ff14:    3f7fe129    )..?    DCD    1065345321
        0x0000ff18:    3cfb49b9    .I.<    DCD    1023101369
        0x0000ff1c:    3f7fde00    ...?    DCD    1065344512
        0x0000ff20:    3d03ec90    ...=    DCD    1023667344
        0x0000ff24:    3f7fdaaf    ...?    DCD    1065343663
        0x0000ff28:    3d0a342f    /4.=    DCD    1024078895
        0x0000ff2c:    3f7fd737    7..?    DCD    1065342775
        0x0000ff30:    3d107bb8    .{.=    DCD    1024490424
        0x0000ff34:    3f7fd398    ...?    DCD    1065341848
        0x0000ff38:    3d16c32c    ,..=    DCD    1024901932
        0x0000ff3c:    3f7fcfd1    ...?    DCD    1065340881
        0x0000ff40:    3d1d0a88    ...=    DCD    1025313416
        0x0000ff44:    3f7fcbe2    ...?    DCD    1065339874
        0x0000ff48:    3d2351cc    .Q#=    DCD    1025724876
        0x0000ff4c:    3f7fc7cc    ...?    DCD    1065338828
        0x0000ff50:    3d2998f6    ..)=    DCD    1026136310
        0x0000ff54:    3f7fc38f    ...?    DCD    1065337743
        0x0000ff58:    3d2fe007    ../=    DCD    1026547719
        0x0000ff5c:    3f7fbf2a    *..?    DCD    1065336618
        0x0000ff60:    3d3626fc    .&6=    DCD    1026959100
        0x0000ff64:    3f7fba9e    ...?    DCD    1065335454
        0x0000ff68:    3d3c6dd5    .m<=    DCD    1027370453
        0x0000ff6c:    3f7fb5ea    ...?    DCD    1065334250
        0x0000ff70:    3d42b491    ..B=    DCD    1027781777
        0x0000ff74:    3f7fb10f    ...?    DCD    1065333007
        0x0000ff78:    3d48fb2f    /.H=    DCD    1028193071
        0x0000ff7c:    3f7fac0d    ...?    DCD    1065331725
        0x0000ff80:    3d4f41af    .AO=    DCD    1028604335
        0x0000ff84:    3f7fa6e3    ...?    DCD    1065330403
        0x0000ff88:    3d55880e    ..U=    DCD    1029015566
        0x0000ff8c:    3f7fa191    ...?    DCD    1065329041
        0x0000ff90:    3d5bce4c    L.[=    DCD    1029426764
        0x0000ff94:    3f7f9c18    ...?    DCD    1065327640
        0x0000ff98:    3d621468    h.b=    DCD    1029837928
        0x0000ff9c:    3f7f9678    x..?    DCD    1065326200
        0x0000ffa0:    3d685a62    bZh=    DCD    1030249058
        0x0000ffa4:    3f7f90b1    ...?    DCD    1065324721
        0x0000ffa8:    3d6ea038    8.n=    DCD    1030660152
        0x0000ffac:    3f7f8ac2    ...?    DCD    1065323202
        0x0000ffb0:    3d74e5e9    ..t=    DCD    1031071209
        0x0000ffb4:    3f7f84ab    ...?    DCD    1065321643
        0x0000ffb8:    3d7b2b74    t+{=    DCD    1031482228
        0x0000ffbc:    3f7f7e6d    m~.?    DCD    1065320045
        0x0000ffc0:    3d80b86c    l..=    DCD    1031845996
        0x0000ffc4:    3f7f7808    .x.?    DCD    1065318408
        0x0000ffc8:    3d83db0a    ...=    DCD    1032051466
        0x0000ffcc:    3f7f717b    {q.?    DCD    1065316731
        0x0000ffd0:    3d86fd94    ...=    DCD    1032256916
        0x0000ffd4:    3f7f6ac7    .j.?    DCD    1065315015
        0x0000ffd8:    3d8a200a    . .=    DCD    1032462346
        0x0000ffdc:    3f7f63ec    .c.?    DCD    1065313260
        0x0000ffe0:    3d8d426a    jB.=    DCD    1032667754
        0x0000ffe4:    3f7f5ce9    .\.?    DCD    1065311465
        0x0000ffe8:    3d9064b4    .d.=    DCD    1032873140
        0x0000ffec:    3f7f55bf    .U.?    DCD    1065309631
        0x0000fff0:    3d9386e7    ...=    DCD    1033078503
        0x0000fff4:    3f7f4e6d    mN.?    DCD    1065307757
        0x0000fff8:    3d96a905    ...=    DCD    1033283845
        0x0000fffc:    3f7f46f4    .F.?    DCD    1065305844
        0x00010000:    3d99cb0a    ...=    DCD    1033489162
        0x00010004:    3f7f3f54    T?.?    DCD    1065303892
        0x00010008:    3d9cecf9    ...=    DCD    1033694457
        0x0001000c:    3f7f378d    .7.?    DCD    1065301901
        0x00010010:    3da00ecf    ...=    DCD    1033899727
        0x00010014:    3f7f2f9d    ./.?    DCD    1065299869
        0x00010018:    3da3308c    .0.=    DCD    1034104972
        0x0001001c:    3f7f2787    .'.?    DCD    1065297799
        0x00010020:    3da65230    0R.=    DCD    1034310192
        0x00010024:    3f7f1f49    I..?    DCD    1065295689
        0x00010028:    3da973ba    .s.=    DCD    1034515386
        0x0001002c:    3f7f16e4    ...?    DCD    1065293540
        0x00010030:    3dac952b    +..=    DCD    1034720555
        0x00010034:    3f7f0e58    X..?    DCD    1065291352
        0x00010038:    3dafb680    ...=    DCD    1034925696
        0x0001003c:    3f7f05a4    ...?    DCD    1065289124
        0x00010040:    3db2d7bb    ...=    DCD    1035130811
        0x00010044:    3f7efcc9    ..~?    DCD    1065286857
        0x00010048:    3db5f8da    ...=    DCD    1035335898
        0x0001004c:    3f7ef3c7    ..~?    DCD    1065284551
        0x00010050:    3db919dd    ...=    DCD    1035540957
        0x00010054:    3f7eea9d    ..~?    DCD    1065282205
        0x00010058:    3dbc3ac3    .:.=    DCD    1035745987
        0x0001005c:    3f7ee14c    L.~?    DCD    1065279820
        0x00010060:    3dbf5b8d    .[.=    DCD    1035950989
        0x00010064:    3f7ed7d4    ..~?    DCD    1065277396
        0x00010068:    3dc27c39    9|.=    DCD    1036155961
        0x0001006c:    3f7ece34    4.~?    DCD    1065274932
        0x00010070:    3dc59cc6    ...=    DCD    1036360902
        0x00010074:    3f7ec46d    m.~?    DCD    1065272429
        0x00010078:    3dc8bd36    6..=    DCD    1036565814
        0x0001007c:    3f7eba7f    ..~?    DCD    1065269887
        0x00010080:    3dcbdd86    ...=    DCD    1036770694
        0x00010084:    3f7eb069    i.~?    DCD    1065267305
        0x00010088:    3dcefdb7    ...=    DCD    1036975543
        0x0001008c:    3f7ea62d    -.~?    DCD    1065264685
        0x00010090:    3dd21dc8    ...=    DCD    1037180360
        0x00010094:    3f7e9bc9    ..~?    DCD    1065262025
        0x00010098:    3dd53db9    .=.=    DCD    1037385145
        0x0001009c:    3f7e913d    =.~?    DCD    1065259325
        0x000100a0:    3dd85d89    .].=    DCD    1037589897
        0x000100a4:    3f7e868b    ..~?    DCD    1065256587
        0x000100a8:    3ddb7d37    7}.=    DCD    1037794615
        0x000100ac:    3f7e7bb1    .{~?    DCD    1065253809
        0x000100b0:    3dde9cc4    ...=    DCD    1037999300
        0x000100b4:    3f7e70b0    .p~?    DCD    1065250992
        0x000100b8:    3de1bc2e    ...=    DCD    1038203950
        0x000100bc:    3f7e6588    .e~?    DCD    1065248136
        0x000100c0:    3de4db76    v..=    DCD    1038408566
        0x000100c4:    3f7e5a38    8Z~?    DCD    1065245240
        0x000100c8:    3de7fa9a    ...=    DCD    1038613146
        0x000100cc:    3f7e4ec1    .N~?    DCD    1065242305
        0x000100d0:    3deb199a    ...=    DCD    1038817690
        0x000100d4:    3f7e4323    #C~?    DCD    1065239331
        0x000100d8:    3dee3876    v8.=    DCD    1039022198
        0x000100dc:    3f7e375e    ^7~?    DCD    1065236318
        0x000100e0:    3df1572e    .W.=    DCD    1039226670
        0x000100e4:    3f7e2b72    r+~?    DCD    1065233266
        0x000100e8:    3df475c0    .u.=    DCD    1039431104
        0x000100ec:    3f7e1f5e    ^.~?    DCD    1065230174
        0x000100f0:    3df7942c    ,..=    DCD    1039635500
        0x000100f4:    3f7e1324    $.~?    DCD    1065227044
        0x000100f8:    3dfab273    s..=    DCD    1039839859
        0x000100fc:    3f7e06c2    ..~?    DCD    1065223874
        0x00010100:    3dfdd092    ...=    DCD    1040044178
        0x00010104:    3f7dfa38    8.}?    DCD    1065220664
        0x00010108:    3e007745    Ew.>    DCD    1040217925
        0x0001010c:    3f7ded88    ..}?    DCD    1065217416
        0x00010110:    3e02062e    ...>    DCD    1040320046
        0x00010114:    3f7de0b1    ..}?    DCD    1065214129
        0x00010118:    3e039502    ...>    DCD    1040422146
        0x0001011c:    3f7dd3b2    ..}?    DCD    1065210802
        0x00010120:    3e0523c2    .#.>    DCD    1040524226
        0x00010124:    3f7dc68c    ..}?    DCD    1065207436
        0x00010128:    3e06b26e    n..>    DCD    1040626286
        0x0001012c:    3f7db940    @.}?    DCD    1065204032
        0x00010130:    3e084105    .A.>    DCD    1040728325
        0x00010134:    3f7dabcc    ..}?    DCD    1065200588
        0x00010138:    3e09cf86    ...>    DCD    1040830342
        0x0001013c:    3f7d9e30    0.}?    DCD    1065197104
        0x00010140:    3e0b5df3    .].>    DCD    1040932339
        0x00010144:    3f7d906e    n.}?    DCD    1065193582
        0x00010148:    3e0cec4a    J..>    DCD    1041034314
        0x0001014c:    3f7d8285    ..}?    DCD    1065190021
        0x00010150:    3e0e7a8b    .z.>    DCD    1041136267
        0x00010154:    3f7d7474    tt}?    DCD    1065186420
        0x00010158:    3e1008b7    ...>    DCD    1041238199
        0x0001015c:    3f7d663d    =f}?    DCD    1065182781
        0x00010160:    3e1196cc    ...>    DCD    1041340108
        0x00010164:    3f7d57de    .W}?    DCD    1065179102
        0x00010168:    3e1324ca    .$.>    DCD    1041441994
        0x0001016c:    3f7d4959    YI}?    DCD    1065175385
        0x00010170:    3e14b2b2    ...>    DCD    1041543858
        0x00010174:    3f7d3aac    .:}?    DCD    1065171628
        0x00010178:    3e164083    .@.>    DCD    1041645699
        0x0001017c:    3f7d2bd8    .+}?    DCD    1065167832
        0x00010180:    3e17ce3d    =..>    DCD    1041747517
        0x00010184:    3f7d1cdd    ..}?    DCD    1065163997
        0x00010188:    3e195be0    .[.>    DCD    1041849312
        0x0001018c:    3f7d0dbc    ..}?    DCD    1065160124
        0x00010190:    3e1ae96b    k..>    DCD    1041951083
        0x00010194:    3f7cfe73    s.|?    DCD    1065156211
        0x00010198:    3e1c76de    .v.>    DCD    1042052830
        0x0001019c:    3f7cef03    ..|?    DCD    1065152259
        0x000101a0:    3e1e0438    8..>    DCD    1042154552
        0x000101a4:    3f7cdf6c    l.|?    DCD    1065148268
        0x000101a8:    3e1f917b    {..>    DCD    1042256251
        0x000101ac:    3f7ccfae    ..|?    DCD    1065144238
        0x000101b0:    3e211ea5    ..!>    DCD    1042357925
        0x000101b4:    3f7cbfc9    ..|?    DCD    1065140169
        0x000101b8:    3e22abb6    ..">    DCD    1042459574
        0x000101bc:    3f7cafbd    ..|?    DCD    1065136061
        0x000101c0:    3e2438ad    .8$>    DCD    1042561197
        0x000101c4:    3f7c9f8a    ..|?    DCD    1065131914
        0x000101c8:    3e25c58c    ..%>    DCD    1042662796
        0x000101cc:    3f7c8f31    1.|?    DCD    1065127729
        0x000101d0:    3e275251    QR'>    DCD    1042764369
        0x000101d4:    3f7c7eb0    .~|?    DCD    1065123504
        0x000101d8:    3e28defc    ..(>    DCD    1042865916
        0x000101dc:    3f7c6e08    .n|?    DCD    1065119240
        0x000101e0:    3e2a6b8d    .k*>    DCD    1042967437
        0x000101e4:    3f7c5d3a    :]|?    DCD    1065114938
        0x000101e8:    3e2bf804    ..+>    DCD    1043068932
        0x000101ec:    3f7c4c44    DL|?    DCD    1065110596
        0x000101f0:    3e2d8461    a.->    DCD    1043170401
        0x000101f4:    3f7c3b28    (;|?    DCD    1065106216
        0x000101f8:    3e2f10a2    ../>    DCD    1043271842
        0x000101fc:    3f7c29e5    .)|?    DCD    1065101797
        0x00010200:    3e309cc9    ..0>    DCD    1043373257
        0x00010204:    3f7c187a    z.|?    DCD    1065097338
        0x00010208:    3e3228d4    .(2>    DCD    1043474644
        0x0001020c:    3f7c06e9    ..|?    DCD    1065092841
        0x00010210:    3e33b4c4    ..3>    DCD    1043576004
        0x00010214:    3f7bf531    1.{?    DCD    1065088305
        0x00010218:    3e354098    .@5>    DCD    1043677336
        0x0001021c:    3f7be353    S.{?    DCD    1065083731
        0x00010220:    3e36cc50    P.6>    DCD    1043778640
        0x00010224:    3f7bd14d    M.{?    DCD    1065079117
        0x00010228:    3e3857ec    .W8>    DCD    1043879916
        0x0001022c:    3f7bbf20     .{?    DCD    1065074464
        0x00010230:    3e39e36c    l.9>    DCD    1043981164
        0x00010234:    3f7baccd    ..{?    DCD    1065069773
        0x00010238:    3e3b6ecf    .n;>    DCD    1044082383
        0x0001023c:    3f7b9a53    S.{?    DCD    1065065043
        0x00010240:    3e3cfa15    ..<>    DCD    1044183573
        0x00010244:    3f7b87b2    ..{?    DCD    1065060274
        0x00010248:    3e3e853e    >.>>    DCD    1044284734
        0x0001024c:    3f7b74ea    .t{?    DCD    1065055466
        0x00010250:    3e401049    I.@>    DCD    1044385865
        0x00010254:    3f7b61fc    .a{?    DCD    1065050620
        0x00010258:    3e419b37    7.A>    DCD    1044486967
        0x0001025c:    3f7b4ee7    .N{?    DCD    1065045735
        0x00010260:    3e432607    .&C>    DCD    1044588039
        0x00010264:    3f7b3bab    .;{?    DCD    1065040811
        0x00010268:    3e44b0b9    ..D>    DCD    1044689081
        0x0001026c:    3f7b2848    H({?    DCD    1065035848
        0x00010270:    3e463b4d    M;F>    DCD    1044790093
        0x00010274:    3f7b14be    ..{?    DCD    1065030846
        0x00010278:    3e47c5c2    ..G>    DCD    1044891074
        0x0001027c:    3f7b010e    ..{?    DCD    1065025806
        0x00010280:    3e495018    .PI>    DCD    1044992024
        0x00010284:    3f7aed37    7.z?    DCD    1065020727
        0x00010288:    3e4ada4f    O.J>    DCD    1045092943
        0x0001028c:    3f7ad93a    :.z?    DCD    1065015610
        0x00010290:    3e4c6467    gdL>    DCD    1045193831
        0x00010294:    3f7ac516    ..z?    DCD    1065010454
        0x00010298:    3e4dee60    `.M>    DCD    1045294688
        0x0001029c:    3f7ab0cb    ..z?    DCD    1065005259
        0x000102a0:    3e4f7838    8xO>    DCD    1045395512
        0x000102a4:    3f7a9c59    Y.z?    DCD    1065000025
        0x000102a8:    3e5101f1    ..Q>    DCD    1045496305
        0x000102ac:    3f7a87c1    ..z?    DCD    1064994753
        0x000102b0:    3e528b89    ..R>    DCD    1045597065
        0x000102b4:    3f7a7302    .sz?    DCD    1064989442
        0x000102b8:    3e541501    ..T>    DCD    1045697793
        0x000102bc:    3f7a5e1c    .^z?    DCD    1064984092
        0x000102c0:    3e559e58    X.U>    DCD    1045798488
        0x000102c4:    3f7a4910    .Iz?    DCD    1064978704
        0x000102c8:    3e57278f    .'W>    DCD    1045899151
        0x000102cc:    3f7a33dd    .3z?    DCD    1064973277
        0x000102d0:    3e58b0a4    ..X>    DCD    1045999780
        0x000102d4:    3f7a1e84    ..z?    DCD    1064967812
        0x000102d8:    3e5a3997    .9Z>    DCD    1046100375
        0x000102dc:    3f7a0904    ..z?    DCD    1064962308
        0x000102e0:    3e5bc26a    j.[>    DCD    1046200938
        0x000102e4:    3f79f35e    ^.y?    DCD    1064956766
        0x000102e8:    3e5d4b1a    .K]>    DCD    1046301466
        0x000102ec:    3f79dd91    ..y?    DCD    1064951185
        0x000102f0:    3e5ed3a8    ..^>    DCD    1046401960
        0x000102f4:    3f79c79d    ..y?    DCD    1064945565
        0x000102f8:    3e605c13    .\`>    DCD    1046502419
        0x000102fc:    3f79b183    ..y?    DCD    1064939907
        0x00010300:    3e61e45c    \.a>    DCD    1046602844
        0x00010304:    3f799b43    C.y?    DCD    1064934211
        0x00010308:    3e636c83    .lc>    DCD    1046703235
        0x0001030c:    3f7984dc    ..y?    DCD    1064928476
        0x00010310:    3e64f486    ..d>    DCD    1046803590
        0x00010314:    3f796e4e    Nny?    DCD    1064922702
        0x00010318:    3e667c66    f|f>    DCD    1046903910
        0x0001031c:    3f79579a    .Wy?    DCD    1064916890
        0x00010320:    3e680422    ".h>    DCD    1047004194
        0x00010324:    3f7940c0    .@y?    DCD    1064911040
        0x00010328:    3e698bba    ..i>    DCD    1047104442
        0x0001032c:    3f7929bf    .)y?    DCD    1064905151
        0x00010330:    3e6b132f    /.k>    DCD    1047204655
        0x00010334:    3f791298    ..y?    DCD    1064899224
        0x00010338:    3e6c9a7f    ..l>    DCD    1047304831
        0x0001033c:    3f78fb4a    J.x?    DCD    1064893258
        0x00010340:    3e6e21ab    .!n>    DCD    1047404971
        0x00010344:    3f78e3d6    ..x?    DCD    1064887254
        0x00010348:    3e6fa8b2    ..o>    DCD    1047505074
        0x0001034c:    3f78cc3b    ;.x?    DCD    1064881211
        0x00010350:    3e712f94    ./q>    DCD    1047605140
        0x00010354:    3f78b47b    {.x?    DCD    1064875131
        0x00010358:    3e72b651    Q.r>    DCD    1047705169
        0x0001035c:    3f789c93    ..x?    DCD    1064869011
        0x00010360:    3e743ce8    .<t>    DCD    1047805160
        0x00010364:    3f788486    ..x?    DCD    1064862854
        0x00010368:    3e75c35a    Z.u>    DCD    1047905114
        0x0001036c:    3f786c52    Rlx?    DCD    1064856658
        0x00010370:    3e7749a6    .Iw>    DCD    1048005030
        0x00010374:    3f7853f8    .Sx?    DCD    1064850424
        0x00010378:    3e78cfcc    ..x>    DCD    1048104908
        0x0001037c:    3f783b77    w;x?    DCD    1064844151
        0x00010380:    3e7a55cb    .Uz>    DCD    1048204747
        0x00010384:    3f7822d1    ."x?    DCD    1064837841
        0x00010388:    3e7bdba4    ..{>    DCD    1048304548
        0x0001038c:    3f780a04    ..x?    DCD    1064831492
        0x00010390:    3e7d6156    Va}>    DCD    1048404310
        0x00010394:    3f77f110    ..w?    DCD    1064825104
        0x00010398:    3e7ee6e1    ..~>    DCD    1048504033
        0x0001039c:    3f77d7f7    ..w?    DCD    1064818679
        0x000103a0:    3e803622    "6.>    DCD    1048589858
        0x000103a4:    3f77beb7    ..w?    DCD    1064812215
        0x000103a8:    3e80f8c0    ...>    DCD    1048639680
        0x000103ac:    3f77a551    Q.w?    DCD    1064805713
        0x000103b0:    3e81bb4a    J..>    DCD    1048689482
        0x000103b4:    3f778bc5    ..w?    DCD    1064799173
        0x000103b8:    3e827dc0    .}.>    DCD    1048739264
        0x000103bc:    3f777213    .rw?    DCD    1064792595
        0x000103c0:    3e834022    "@.>    DCD    1048789026
        0x000103c4:    3f77583a    :Xw?    DCD    1064785978
        0x000103c8:    3e840270    p..>    DCD    1048838768
        0x000103cc:    3f773e3c    <>w?    DCD    1064779324
        0x000103d0:    3e84c4aa    ...>    DCD    1048888490
        0x000103d4:    3f772417    .$w?    DCD    1064772631
        0x000103d8:    3e8586ce    ...>    DCD    1048938190
        0x000103dc:    3f7709cc    ..w?    DCD    1064765900
        0x000103e0:    3e8648df    .H.>    DCD    1048987871
        0x000103e4:    3f76ef5b    [.v?    DCD    1064759131
        0x000103e8:    3e870ada    ...>    DCD    1049037530
        0x000103ec:    3f76d4c4    ..v?    DCD    1064752324
        0x000103f0:    3e87ccc1    ...>    DCD    1049087169
        0x000103f4:    3f76ba07    ..v?    DCD    1064745479
        0x000103f8:    3e888e93    ...>    DCD    1049136787
        0x000103fc:    3f769f24    $.v?    DCD    1064738596
        0x00010400:    3e895050    PP.>    DCD    1049186384
        0x00010404:    3f76841b    ..v?    DCD    1064731675
        0x00010408:    3e8a11f8    ...>    DCD    1049235960
        0x0001040c:    3f7668ec    .hv?    DCD    1064724716
        0x00010410:    3e8ad38a    ...>    DCD    1049285514
        0x00010414:    3f764d97    .Mv?    DCD    1064717719
        0x00010418:    3e8b9507    ...>    DCD    1049335047
        0x0001041c:    3f76321b    .2v?    DCD    1064710683
        0x00010420:    3e8c566e    nV.>    DCD    1049384558
        0x00010424:    3f76167a    z.v?    DCD    1064703610
        0x00010428:    3e8d17c0    ...>    DCD    1049434048
        0x0001042c:    3f75fab3    ..u?    DCD    1064696499
        0x00010430:    3e8dd8fc    ...>    DCD    1049483516
        0x00010434:    3f75dec6    ..u?    DCD    1064689350
        0x00010438:    3e8e9a22    "..>    DCD    1049532962
        0x0001043c:    3f75c2b3    ..u?    DCD    1064682163
        0x00010440:    3e8f5b32    2[.>    DCD    1049582386
        0x00010444:    3f75a67b    {.u?    DCD    1064674939
        0x00010448:    3e901c2c    ,..>    DCD    1049631788
        0x0001044c:    3f758a1c    ..u?    DCD    1064667676
        0x00010450:    3e90dd10    ...>    DCD    1049681168
        0x00010454:    3f756d97    .mu?    DCD    1064660375
        0x00010458:    3e919ddd    ...>    DCD    1049730525
        0x0001045c:    3f7550ed    .Pu?    DCD    1064653037
        0x00010460:    3e925e94    .^.>    DCD    1049779860
        0x00010464:    3f75341d    .4u?    DCD    1064645661
        0x00010468:    3e931f35    5..>    DCD    1049829173
        0x0001046c:    3f751727    '.u?    DCD    1064638247
        0x00010470:    3e93dfbf    ...>    DCD    1049878463
        0x00010474:    3f74fa0b    ..t?    DCD    1064630795
        0x00010478:    3e94a031    1..>    DCD    1049927729
        0x0001047c:    3f74dcc9    ..t?    DCD    1064623305
        0x00010480:    3e95608d    .`.>    DCD    1049976973
        0x00010484:    3f74bf62    b.t?    DCD    1064615778
        0x00010488:    3e9620d2    . .>    DCD    1050026194
        0x0001048c:    3f74a1d5    ..t?    DCD    1064608213
        0x00010490:    3e96e100    ...>    DCD    1050075392
        0x00010494:    3f748422    ".t?    DCD    1064600610
        0x00010498:    3e97a117    ...>    DCD    1050124567
        0x0001049c:    3f746649    Ift?    DCD    1064592969
        0x000104a0:    3e986116    .a.>    DCD    1050173718
        0x000104a4:    3f74484b    KHt?    DCD    1064585291
        0x000104a8:    3e9920fe    . .>    DCD    1050222846
        0x000104ac:    3f742a27    '*t?    DCD    1064577575
        0x000104b0:    3e99e0ce    ...>    DCD    1050271950
        0x000104b4:    3f740bdd    ..t?    DCD    1064569821
        0x000104b8:    3e9aa086    ...>    DCD    1050321030
        0x000104bc:    3f73ed6e    n.s?    DCD    1064562030
        0x000104c0:    3e9b6027    '`.>    DCD    1050370087
        0x000104c4:    3f73ced9    ..s?    DCD    1064554201
        0x000104c8:    3e9c1faf    ...>    DCD    1050419119
        0x000104cc:    3f73b01f    ..s?    DCD    1064546335
        0x000104d0:    3e9cdf20     ..>    DCD    1050468128
        0x000104d4:    3f73913f    ?.s?    DCD    1064538431
        0x000104d8:    3e9d9e78    x..>    DCD    1050517112
        0x000104dc:    3f737239    9rs?    DCD    1064530489
        0x000104e0:    3e9e5db8    .].>    DCD    1050566072
        0x000104e4:    3f73530e    .Ss?    DCD    1064522510
        0x000104e8:    3e9f1cdf    ...>    DCD    1050615007
        0x000104ec:    3f7333be    .3s?    DCD    1064514494
        0x000104f0:    3e9fdbee    ...>    DCD    1050663918
        0x000104f4:    3f731447    G.s?    DCD    1064506439
        0x000104f8:    3ea09ae5    ...>    DCD    1050712805
        0x000104fc:    3f72f4ac    ..r?    DCD    1064498348
        0x00010500:    3ea159c2    .Y.>    DCD    1050761666
        0x00010504:    3f72d4eb    ..r?    DCD    1064490219
        0x00010508:    3ea21887    ...>    DCD    1050810503
        0x0001050c:    3f72b504    ..r?    DCD    1064482052
        0x00010510:    3ea2d733    3..>    DCD    1050859315
        0x00010514:    3f7294f8    ..r?    DCD    1064473848
        0x00010518:    3ea395c5    ...>    DCD    1050908101
        0x0001051c:    3f7274c7    .tr?    DCD    1064465607
        0x00010520:    3ea4543f    ?T.>    DCD    1050956863
        0x00010524:    3f725470    pTr?    DCD    1064457328
        0x00010528:    3ea5129f    ...>    DCD    1051005599
        0x0001052c:    3f7233f4    .3r?    DCD    1064449012
        0x00010530:    3ea5d0e5    ...>    DCD    1051054309
        0x00010534:    3f721352    R.r?    DCD    1064440658
        0x00010538:    3ea68f12    ...>    DCD    1051102994
        0x0001053c:    3f71f28c    ..q?    DCD    1064432268
        0x00010540:    3ea74d25    %M.>    DCD    1051151653
        0x00010544:    3f71d19f    ..q?    DCD    1064423839
        0x00010548:    3ea80b1f    ...>    DCD    1051200287
        0x0001054c:    3f71b08e    ..q?    DCD    1064415374
        0x00010550:    3ea8c8fe    ...>    DCD    1051248894
        0x00010554:    3f718f57    W.q?    DCD    1064406871
        0x00010558:    3ea986c4    ...>    DCD    1051297476
        0x0001055c:    3f716dfb    .mq?    DCD    1064398331
        0x00010560:    3eaa446f    oD.>    DCD    1051346031
        0x00010564:    3f714c7a    zLq?    DCD    1064389754
        0x00010568:    3eab0201    ...>    DCD    1051394561
        0x0001056c:    3f712ad4    .*q?    DCD    1064381140
        0x00010570:    3eabbf77    w..>    DCD    1051443063
        0x00010574:    3f710908    ..q?    DCD    1064372488
        0x00010578:    3eac7cd4    .|.>    DCD    1051491540
        0x0001057c:    3f70e717    ..p?    DCD    1064363799
        0x00010580:    3ead3a15    .:.>    DCD    1051539989
        0x00010584:    3f70c502    ..p?    DCD    1064355074
        0x00010588:    3eadf73c    <..>    DCD    1051588412
        0x0001058c:    3f70a2c6    ..p?    DCD    1064346310
        0x00010590:    3eaeb449    I..>    DCD    1051636809
        0x00010594:    3f708066    f.p?    DCD    1064337510
        0x00010598:    3eaf713a    :q.>    DCD    1051685178
        0x0001059c:    3f705de1    .]p?    DCD    1064328673
        0x000105a0:    3eb02e10    ...>    DCD    1051733520
        0x000105a4:    3f703b37    7;p?    DCD    1064319799
        0x000105a8:    3eb0eacb    ...>    DCD    1051781835
        0x000105ac:    3f701867    g.p?    DCD    1064310887
        0x000105b0:    3eb1a76b    k..>    DCD    1051830123
        0x000105b4:    3f6ff573    s.o?    DCD    1064301939
        0x000105b8:    3eb263ef    .c.>    DCD    1051878383
        0x000105bc:    3f6fd25a    Z.o?    DCD    1064292954
        0x000105c0:    3eb32058    X .>    DCD    1051926616
        0x000105c4:    3f6faf1b    ..o?    DCD    1064283931
        0x000105c8:    3eb3dca5    ...>    DCD    1051974821
        0x000105cc:    3f6f8bb8    ..o?    DCD    1064274872
        0x000105d0:    3eb498d6    ...>    DCD    1052022998
        0x000105d4:    3f6f6830    0ho?    DCD    1064265776
        0x000105d8:    3eb554ec    .T.>    DCD    1052071148
        0x000105dc:    3f6f4483    .Do?    DCD    1064256643
        0x000105e0:    3eb610e6    ...>    DCD    1052119270
        0x000105e4:    3f6f20b0    . o?    DCD    1064247472
        0x000105e8:    3eb6ccc3    ...>    DCD    1052167363
        0x000105ec:    3f6efcba    ..n?    DCD    1064238266
        0x000105f0:    3eb78884    ...>    DCD    1052215428
        0x000105f4:    3f6ed89e    ..n?    DCD    1064229022
        0x000105f8:    3eb8442a    *D.>    DCD    1052263466
        0x000105fc:    3f6eb45d    ].n?    DCD    1064219741
        0x00010600:    3eb8ffb2    ...>    DCD    1052311474
        0x00010604:    3f6e8ff8    ..n?    DCD    1064210424
        0x00010608:    3eb9bb1e    ...>    DCD    1052359454
        0x0001060c:    3f6e6b6d    mkn?    DCD    1064201069
        0x00010610:    3eba766e    nv.>    DCD    1052407406
        0x00010614:    3f6e46be    .Fn?    DCD    1064191678
        0x00010618:    3ebb31a0    .1.>    DCD    1052455328
        0x0001061c:    3f6e21eb    .!n?    DCD    1064182251
        0x00010620:    3ebbecb6    ...>    DCD    1052503222
        0x00010624:    3f6dfcf2    ..m?    DCD    1064172786
        0x00010628:    3ebca7af    ...>    DCD    1052551087
        0x0001062c:    3f6dd7d5    ..m?    DCD    1064163285
        0x00010630:    3ebd628b    .b.>    DCD    1052598923
        0x00010634:    3f6db293    ..m?    DCD    1064153747
        0x00010638:    3ebe1d4a    J..>    DCD    1052646730
        0x0001063c:    3f6d8d2d    -.m?    DCD    1064144173
        0x00010640:    3ebed7eb    ...>    DCD    1052694507
        0x00010644:    3f6d67a1    .gm?    DCD    1064134561
        0x00010648:    3ebf926f    o..>    DCD    1052742255
        0x0001064c:    3f6d41f2    .Am?    DCD    1064124914
        0x00010650:    3ec04cd5    .L.>    DCD    1052789973
        0x00010654:    3f6d1c1d    ..m?    DCD    1064115229
        0x00010658:    3ec1071e    ...>    DCD    1052837662
        0x0001065c:    3f6cf624    $.l?    DCD    1064105508
        0x00010660:    3ec1c148    H..>    DCD    1052885320
        0x00010664:    3f6cd007    ..l?    DCD    1064095751
        0x00010668:    3ec27b55    U{.>    DCD    1052932949
        0x0001066c:    3f6ca9c5    ..l?    DCD    1064085957
        0x00010670:    3ec33544    D5.>    DCD    1052980548
        0x00010674:    3f6c835e    ^.l?    DCD    1064076126
        0x00010678:    3ec3ef15    ...>    DCD    1053028117
        0x0001067c:    3f6c5cd4    .\l?    DCD    1064066260
        0x00010680:    3ec4a8c8    ...>    DCD    1053075656
        0x00010684:    3f6c3624    $6l?    DCD    1064056356
        0x00010688:    3ec5625c    \b.>    DCD    1053123164
        0x0001068c:    3f6c0f50    P.l?    DCD    1064046416
        0x00010690:    3ec61bd2    ...>    DCD    1053170642
        0x00010694:    3f6be858    X.k?    DCD    1064036440
        0x00010698:    3ec6d529    )..>    DCD    1053218089
        0x0001069c:    3f6bc13b    ;.k?    DCD    1064026427
        0x000106a0:    3ec78e62    b..>    DCD    1053265506
        0x000106a4:    3f6b99fb    ..k?    DCD    1064016379
        0x000106a8:    3ec8477c    |G.>    DCD    1053312892
        0x000106ac:    3f6b7295    .rk?    DCD    1064006293
        0x000106b0:    3ec90077    w..>    DCD    1053360247
        0x000106b4:    3f6b4b0c    .Kk?    DCD    1063996172
        0x000106b8:    3ec9b953    S..>    DCD    1053407571
        0x000106bc:    3f6b235e    ^#k?    DCD    1063986014
        0x000106c0:    3eca7210    .r.>    DCD    1053454864
        0x000106c4:    3f6afb8c    ..j?    DCD    1063975820
        0x000106c8:    3ecb2aae    .*.>    DCD    1053502126
        0x000106cc:    3f6ad395    ..j?    DCD    1063965589
        0x000106d0:    3ecbe32c    ,..>    DCD    1053549356
        0x000106d4:    3f6aab7b    {.j?    DCD    1063955323
        0x000106d8:    3ecc9b8b    ...>    DCD    1053596555
        0x000106dc:    3f6a833c    <.j?    DCD    1063945020
        0x000106e0:    3ecd53ca    .S.>    DCD    1053643722
        0x000106e4:    3f6a5ad9    .Zj?    DCD    1063934681
        0x000106e8:    3ece0bea    ...>    DCD    1053690858
        0x000106ec:    3f6a3252    R2j?    DCD    1063924306
        0x000106f0:    3ecec3ea    ...>    DCD    1053737962
        0x000106f4:    3f6a09a7    ..j?    DCD    1063913895
        0x000106f8:    3ecf7bca    .{.>    DCD    1053785034
        0x000106fc:    3f69e0d7    ..i?    DCD    1063903447
        0x00010700:    3ed0338a    .3.>    DCD    1053832074
        0x00010704:    3f69b7e4    ..i?    DCD    1063892964
        0x00010708:    3ed0eb2a    *..>    DCD    1053879082
        0x0001070c:    3f698ecc    ..i?    DCD    1063882444
        0x00010710:    3ed1a2aa    ...>    DCD    1053926058
        0x00010714:    3f696591    .ei?    DCD    1063871889
        0x00010718:    3ed25a09    .Z.>    DCD    1053973001
        0x0001071c:    3f693c32    2<i?    DCD    1063861298
        0x00010720:    3ed31148    H..>    DCD    1054019912
        0x00010724:    3f6912ae    ..i?    DCD    1063850670
        0x00010728:    3ed3c867    g..>    DCD    1054066791
        0x0001072c:    3f68e907    ..h?    DCD    1063840007
        0x00010730:    3ed47f64    d..>    DCD    1054113636
        0x00010734:    3f68bf3c    <.h?    DCD    1063829308
        0x00010738:    3ed53641    A6.>    DCD    1054160449
        0x0001073c:    3f68954c    L.h?    DCD    1063818572
        0x00010740:    3ed5ecfd    ...>    DCD    1054207229
        0x00010744:    3f686b39    9kh?    DCD    1063807801
        0x00010748:    3ed6a399    ...>    DCD    1054253977
        0x0001074c:    3f684103    .Ah?    DCD    1063796995
        0x00010750:    3ed75a13    .Z.>    DCD    1054300691
        0x00010754:    3f6816a8    ..h?    DCD    1063786152
        0x00010758:    3ed8106b    k..>    DCD    1054347371
        0x0001075c:    3f67ec2a    *.g?    DCD    1063775274
        0x00010760:    3ed8c6a3    ...>    DCD    1054394019
        0x00010764:    3f67c187    ..g?    DCD    1063764359
        0x00010768:    3ed97cb9    .|.>    DCD    1054440633
        0x0001076c:    3f6796c1    ..g?    DCD    1063753409
        0x00010770:    3eda32ad    .2.>    DCD    1054487213
        0x00010774:    3f676bd8    .kg?    DCD    1063742424
        0x00010778:    3edae880    ...>    DCD    1054533760
        0x0001077c:    3f6740ca    .@g?    DCD    1063731402
        0x00010780:    3edb9e31    1..>    DCD    1054580273
        0x00010784:    3f671599    ..g?    DCD    1063720345
        0x00010788:    3edc53c1    .S.>    DCD    1054626753
        0x0001078c:    3f66ea45    E.f?    DCD    1063709253
        0x00010790:    3edd092e    ...>    DCD    1054673198
        0x00010794:    3f66becc    ..f?    DCD    1063698124
        0x00010798:    3eddbe79    y..>    DCD    1054719609
        0x0001079c:    3f669330    0.f?    DCD    1063686960
        0x000107a0:    3ede73a2    .s.>    DCD    1054765986
        0x000107a4:    3f666771    qgf?    DCD    1063675761
        0x000107a8:    3edf28a9    .(.>    DCD    1054812329
        0x000107ac:    3f663b8e    .;f?    DCD    1063664526
        0x000107b0:    3edfdd8d    ...>    DCD    1054858637
        0x000107b4:    3f660f88    ..f?    DCD    1063653256
        0x000107b8:    3ee0924f    O..>    DCD    1054904911
        0x000107bc:    3f65e35e    ^.e?    DCD    1063641950
        0x000107c0:    3ee146ee    .F.>    DCD    1054951150
        0x000107c4:    3f65b710    ..e?    DCD    1063630608
        0x000107c8:    3ee1fb6a    j..>    DCD    1054997354
        0x000107cc:    3f658aa0    ..e?    DCD    1063619232
        0x000107d0:    3ee2afc4    ...>    DCD    1055043524
        0x000107d4:    3f655e0b    .^e?    DCD    1063607819
        0x000107d8:    3ee363fa    .c.>    DCD    1055089658
        0x000107dc:    3f653154    T1e?    DCD    1063596372
        0x000107e0:    3ee4180e    ...>    DCD    1055135758
        0x000107e4:    3f650479    y.e?    DCD    1063584889
        0x000107e8:    3ee4cbfe    ...>    DCD    1055181822
        0x000107ec:    3f64d77b    {.d?    DCD    1063573371
        0x000107f0:    3ee57fcb    ...>    DCD    1055227851
        0x000107f4:    3f64aa59    Y.d?    DCD    1063561817
        0x000107f8:    3ee63375    u3.>    DCD    1055273845
        0x000107fc:    3f647d14    .}d?    DCD    1063550228
        0x00010800:    3ee6e6fb    ...>    DCD    1055319803
        0x00010804:    3f644fac    .Od?    DCD    1063538604
        0x00010808:    3ee79a5d    ]..>    DCD    1055365725
        0x0001080c:    3f642221    !"d?    DCD    1063526945
        0x00010810:    3ee84d9c    .M.>    DCD    1055411612
        0x00010814:    3f63f473    s.c?    DCD    1063515251
        0x00010818:    3ee900b7    ...>    DCD    1055457463
        0x0001081c:    3f63c6a1    ..c?    DCD    1063503521
        0x00010820:    3ee9b3ae    ...>    DCD    1055503278
        0x00010824:    3f6398ac    ..c?    DCD    1063491756
        0x00010828:    3eea6681    .f.>    DCD    1055549057
        0x0001082c:    3f636a95    .jc?    DCD    1063479957
        0x00010830:    3eeb1930    0..>    DCD    1055594800
        0x00010834:    3f633c5a    Z<c?    DCD    1063468122
        0x00010838:    3eebcbbb    ...>    DCD    1055640507
        0x0001083c:    3f630dfc    ..c?    DCD    1063456252
        0x00010840:    3eec7e21    !~.>    DCD    1055686177
        0x00010844:    3f62df7b    {.b?    DCD    1063444347
        0x00010848:    3eed3063    c0.>    DCD    1055731811
        0x0001084c:    3f62b0d7    ..b?    DCD    1063432407
        0x00010850:    3eede280    ...>    DCD    1055777408
        0x00010854:    3f628210    ..b?    DCD    1063420432
        0x00010858:    3eee9479    y..>    DCD    1055822969
        0x0001085c:    3f625326    &Sb?    DCD    1063408422
        0x00010860:    3eef464c    LF.>    DCD    1055868492
        0x00010864:    3f62241a    .$b?    DCD    1063396378
        0x00010868:    3eeff7fb    ...>    DCD    1055913979
        0x0001086c:    3f61f4ea    ..a?    DCD    1063384298
        0x00010870:    3ef0a985    ...>    DCD    1055959429
        0x00010874:    3f61c598    ..a?    DCD    1063372184
        0x00010878:    3ef15aea    .Z.>    DCD    1056004842
        0x0001087c:    3f619622    ".a?    DCD    1063360034
        0x00010880:    3ef20c29    )..>    DCD    1056050217
        0x00010884:    3f61668a    .fa?    DCD    1063347850
        0x00010888:    3ef2bd43    C..>    DCD    1056095555
        0x0001088c:    3f6136d0    .6a?    DCD    1063335632
        0x00010890:    3ef36e38    8n.>    DCD    1056140856
        0x00010894:    3f6106f2    ..a?    DCD    1063323378
        0x00010898:    3ef41f07    ...>    DCD    1056186119
        0x0001089c:    3f60d6f2    ..`?    DCD    1063311090
        0x000108a0:    3ef4cfb1    ...>    DCD    1056231345
        0x000108a4:    3f60a6cf    ..`?    DCD    1063298767
        0x000108a8:    3ef58035    5..>    DCD    1056276533
        0x000108ac:    3f607689    .v`?    DCD    1063286409
        0x000108b0:    3ef63093    .0.>    DCD    1056321683
        0x000108b4:    3f604621    !F`?    DCD    1063274017
        0x000108b8:    3ef6e0cb    ...>    DCD    1056366795
        0x000108bc:    3f601596    ..`?    DCD    1063261590
        0x000108c0:    3ef790dc    ...>    DCD    1056411868
        0x000108c4:    3f5fe4e9    .._?    DCD    1063249129
        0x000108c8:    3ef840c8    .@.>    DCD    1056456904
        0x000108cc:    3f5fb419    .._?    DCD    1063236633
        0x000108d0:    3ef8f08e    ...>    DCD    1056501902
        0x000108d4:    3f5f8327    '._?    DCD    1063224103
        0x000108d8:    3ef9a02d    -..>    DCD    1056546861
        0x000108dc:    3f5f5212    .R_?    DCD    1063211538
        0x000108e0:    3efa4fa5    .O.>    DCD    1056591781
        0x000108e4:    3f5f20db    . _?    DCD    1063198939
        0x000108e8:    3efafef7    ...>    DCD    1056636663
        0x000108ec:    3f5eef81    ..^?    DCD    1063186305
        0x000108f0:    3efbae22    "..>    DCD    1056681506
        0x000108f4:    3f5ebe05    ..^?    DCD    1063173637
        0x000108f8:    3efc5d27    '].>    DCD    1056726311
        0x000108fc:    3f5e8c67    g.^?    DCD    1063160935
        0x00010900:    3efd0c04    ...>    DCD    1056771076
        0x00010904:    3f5e5aa6    .Z^?    DCD    1063148198
        0x00010908:    3efdbabb    ...>    DCD    1056815803
        0x0001090c:    3f5e28c3    .(^?    DCD    1063135427
        0x00010910:    3efe694a    Ji.>    DCD    1056860490
        0x00010914:    3f5df6be    ..]?    DCD    1063122622
        0x00010918:    3eff17b2    ...>    DCD    1056905138
        0x0001091c:    3f5dc497    ..]?    DCD    1063109783
        0x00010920:    3effc5f3    ...>    DCD    1056949747
        0x00010924:    3f5d924d    M.]?    DCD    1063096909
        0x00010928:    3f003a06    .:.?    DCD    1056979462
        0x0001092c:    3f5d5fe1    ._]?    DCD    1063084001
        0x00010930:    3f0090ff    ...?    DCD    1057001727
        0x00010934:    3f5d2d53    S-]?    DCD    1063071059
        0x00010938:    3f00e7e4    ...?    DCD    1057023972
        0x0001093c:    3f5cfaa3    ..\?    DCD    1063058083
        0x00010940:    3f013eb5    .>.?    DCD    1057046197
        0x00010944:    3f5cc7d1    ..\?    DCD    1063045073
        0x00010948:    3f019573    s..?    DCD    1057068403
        0x0001094c:    3f5c94dd    ..\?    DCD    1063032029
        0x00010950:    3f01ec1c    ...?    DCD    1057090588
        0x00010954:    3f5c61c7    .a\?    DCD    1063018951
        0x00010958:    3f0242b1    .B.?    DCD    1057112753
        0x0001095c:    3f5c2e8e    ..\?    DCD    1063005838
        0x00010960:    3f029932    2..?    DCD    1057134898
        0x00010964:    3f5bfb34    4.[?    DCD    1062992692
        0x00010968:    3f02ef9f    ...?    DCD    1057157023
        0x0001096c:    3f5bc7b8    ..[?    DCD    1062979512
        0x00010970:    3f0345f8    .E.?    DCD    1057179128
        0x00010974:    3f5b941a    ..[?    DCD    1062966298
        0x00010978:    3f039c3d    =..?    DCD    1057201213
        0x0001097c:    3f5b605a    Z`[?    DCD    1062953050
        0x00010980:    3f03f26d    m..?    DCD    1057223277
        0x00010984:    3f5b2c79    y,[?    DCD    1062939769
        0x00010988:    3f044889    .H.?    DCD    1057245321
        0x0001098c:    3f5af875    u.Z?    DCD    1062926453
        0x00010990:    3f049e91    ...?    DCD    1057267345
        0x00010994:    3f5ac450    P.Z?    DCD    1062913104
        0x00010998:    3f04f484    ...?    DCD    1057289348
        0x0001099c:    3f5a9009    ..Z?    DCD    1062899721
        0x000109a0:    3f054a62    bJ.?    DCD    1057311330
        0x000109a4:    3f5a5ba0    .[Z?    DCD    1062886304
        0x000109a8:    3f05a02c    ,..?    DCD    1057333292
        0x000109ac:    3f5a2716    .'Z?    DCD    1062872854
        0x000109b0:    3f05f5e2    ...?    DCD    1057355234
        0x000109b4:    3f59f26a    j.Y?    DCD    1062859370
        0x000109b8:    3f064b82    .K.?    DCD    1057377154
        0x000109bc:    3f59bd9c    ..Y?    DCD    1062845852
        0x000109c0:    3f06a10e    ...?    DCD    1057399054
        0x000109c4:    3f5988ad    ..Y?    DCD    1062832301
        0x000109c8:    3f06f686    ...?    DCD    1057420934
        0x000109cc:    3f59539c    .SY?    DCD    1062818716
        0x000109d0:    3f074be8    .K.?    DCD    1057442792
        0x000109d4:    3f591e6a    j.Y?    DCD    1062805098
        0x000109d8:    3f07a136    6..?    DCD    1057464630
        0x000109dc:    3f58e917    ..X?    DCD    1062791447
        0x000109e0:    3f07f66f    o..?    DCD    1057486447
        0x000109e4:    3f58b3a1    ..X?    DCD    1062777761
        0x000109e8:    3f084b92    .K.?    DCD    1057508242
        0x000109ec:    3f587e0b    .~X?    DCD    1062764043
        0x000109f0:    3f08a0a1    ...?    DCD    1057530017
        0x000109f4:    3f584853    SHX?    DCD    1062750291
        0x000109f8:    3f08f59b    ...?    DCD    1057551771
        0x000109fc:    3f581279    y.X?    DCD    1062736505
        0x00010a00:    3f094a7f    .J.?    DCD    1057573503
        0x00010a04:    3f57dc7f    ..W?    DCD    1062722687
        0x00010a08:    3f099f4e    N..?    DCD    1057595214
        0x00010a0c:    3f57a663    c.W?    DCD    1062708835
        0x00010a10:    3f09f409    ...?    DCD    1057616905
        0x00010a14:    3f577026    &pW?    DCD    1062694950
        0x00010a18:    3f0a48ad    .H.?    DCD    1057638573
        0x00010a1c:    3f5739c7    .9W?    DCD    1062681031
        0x00010a20:    3f0a9d3d    =..?    DCD    1057660221
        0x00010a24:    3f570348    H.W?    DCD    1062667080
        0x00010a28:    3f0af1b7    ...?    DCD    1057681847
        0x00010a2c:    3f56cca7    ..V?    DCD    1062653095
        0x00010a30:    3f0b461c    .F.?    DCD    1057703452
        0x00010a34:    3f5695e5    ..V?    DCD    1062639077
        0x00010a38:    3f0b9a6b    k..?    DCD    1057725035
        0x00010a3c:    3f565f02    ._V?    DCD    1062625026
        0x00010a40:    3f0beea5    ...?    DCD    1057746597
        0x00010a44:    3f5627fe    .'V?    DCD    1062610942
        0x00010a48:    3f0c42c9    .B.?    DCD    1057768137
        0x00010a4c:    3f55f0d9    ..U?    DCD    1062596825
        0x00010a50:    3f0c96d7    ...?    DCD    1057789655
        0x00010a54:    3f55b993    ..U?    DCD    1062582675
        0x00010a58:    3f0cead0    ...?    DCD    1057811152
        0x00010a5c:    3f55822c    ,.U?    DCD    1062568492
        0x00010a60:    3f0d3eb3    .>.?    DCD    1057832627
        0x00010a64:    3f554aa4    .JU?    DCD    1062554276
        0x00010a68:    3f0d9281    ...?    DCD    1057854081
        0x00010a6c:    3f5512fb    ..U?    DCD    1062540027
        0x00010a70:    3f0de638    8..?    DCD    1057875512
        0x00010a74:    3f54db31    1.T?    DCD    1062525745
        0x00010a78:    3f0e39da    .9.?    DCD    1057896922
        0x00010a7c:    3f54a347    G.T?    DCD    1062511431
        0x00010a80:    3f0e8d65    e..?    DCD    1057918309
        0x00010a84:    3f546b3b    ;kT?    DCD    1062497083
        0x00010a88:    3f0ee0db    ...?    DCD    1057939675
        0x00010a8c:    3f54330f    .3T?    DCD    1062482703
        0x00010a90:    3f0f343b    ;4.?    DCD    1057961019
        0x00010a94:    3f53fac3    ..S?    DCD    1062468291
        0x00010a98:    3f0f8784    ...?    DCD    1057982340
        0x00010a9c:    3f53c255    U.S?    DCD    1062453845
        0x00010aa0:    3f0fdab8    ...?    DCD    1058003640
        0x00010aa4:    3f5389c7    ..S?    DCD    1062439367
        0x00010aa8:    3f102dd5    .-.?    DCD    1058024917
        0x00010aac:    3f535118    .QS?    DCD    1062424856
        0x00010ab0:    3f1080dc    ...?    DCD    1058046172
        0x00010ab4:    3f531849    I.S?    DCD    1062410313
        0x00010ab8:    3f10d3cd    ...?    DCD    1058067405
        0x00010abc:    3f52df59    Y.R?    DCD    1062395737
        0x00010ac0:    3f1126a7    .&.?    DCD    1058088615
        0x00010ac4:    3f52a649    I.R?    DCD    1062381129
        0x00010ac8:    3f11796b    ky.?    DCD    1058109803
        0x00010acc:    3f526d18    .mR?    DCD    1062366488
        0x00010ad0:    3f11cc19    ...?    DCD    1058130969
        0x00010ad4:    3f5233c6    .3R?    DCD    1062351814
        0x00010ad8:    3f121eb0    ...?    DCD    1058152112
        0x00010adc:    3f51fa54    T.Q?    DCD    1062337108
        0x00010ae0:    3f127130    0q.?    DCD    1058173232
        0x00010ae4:    3f51c0c2    ..Q?    DCD    1062322370
        0x00010ae8:    3f12c39a    ...?    DCD    1058194330
        0x00010aec:    3f518710    ..Q?    DCD    1062307600
        0x00010af0:    3f1315ee    ...?    DCD    1058215406
        0x00010af4:    3f514d3d    =MQ?    DCD    1062292797
        0x00010af8:    3f13682a    *h.?    DCD    1058236458
        0x00010afc:    3f51134a    J.Q?    DCD    1062277962
        0x00010b00:    3f13ba50    P..?    DCD    1058257488
        0x00010b04:    3f50d937    7.P?    DCD    1062263095
        0x00010b08:    3f140c5f    _..?    DCD    1058278495
        0x00010b0c:    3f509f03    ..P?    DCD    1062248195
        0x00010b10:    3f145e58    X^.?    DCD    1058299480
        0x00010b14:    3f5064af    .dP?    DCD    1062233263
        0x00010b18:    3f14b039    9..?    DCD    1058320441
        0x00010b1c:    3f502a3b    ;*P?    DCD    1062218299
        0x00010b20:    3f150204    ...?    DCD    1058341380
        0x00010b24:    3f4fefa8    ..O?    DCD    1062203304
        0x00010b28:    3f1553b7    .S.?    DCD    1058362295
        0x00010b2c:    3f4fb4f4    ..O?    DCD    1062188276
        0x00010b30:    3f15a554    T..?    DCD    1058383188
        0x00010b34:    3f4f7a1f    .zO?    DCD    1062173215
        0x00010b38:    3f15f6d9    ...?    DCD    1058404057
        0x00010b3c:    3f4f3f2b    +?O?    DCD    1062158123
        0x00010b40:    3f164847    GH.?    DCD    1058424903
        0x00010b44:    3f4f0417    ..O?    DCD    1062142999
        0x00010b48:    3f16999f    ...?    DCD    1058445727
        0x00010b4c:    3f4ec8e4    ..N?    DCD    1062127844
        0x00010b50:    3f16eadf    ...?    DCD    1058466527
        0x00010b54:    3f4e8d90    ..N?    DCD    1062112656
        0x00010b58:    3f173c07    .<.?    DCD    1058487303
        0x00010b5c:    3f4e521c    .RN?    DCD    1062097436
        0x00010b60:    3f178d18    ...?    DCD    1058508056
        0x00010b64:    3f4e1689    ..N?    DCD    1062082185
        0x00010b68:    3f17de12    ...?    DCD    1058528786
        0x00010b6c:    3f4ddad5    ..M?    DCD    1062066901
        0x00010b70:    3f182ef5    ...?    DCD    1058549493
        0x00010b74:    3f4d9f02    ..M?    DCD    1062051586
        0x00010b78:    3f187fc0    ...?    DCD    1058570176
        0x00010b7c:    3f4d6310    .cM?    DCD    1062036240
        0x00010b80:    3f18d073    s..?    DCD    1058590835
        0x00010b84:    3f4d26fd    .&M?    DCD    1062020861
        0x00010b88:    3f19210f    .!.?    DCD    1058611471
        0x00010b8c:    3f4ceacb    ..L?    DCD    1062005451
        0x00010b90:    3f197194    .q.?    DCD    1058632084
        0x00010b94:    3f4cae79    y.L?    DCD    1061990009
        0x00010b98:    3f19c200    ...?    DCD    1058652672
        0x00010b9c:    3f4c7208    .rL?    DCD    1061974536
        0x00010ba0:    3f1a1255    U..?    DCD    1058673237
        0x00010ba4:    3f4c3578    x5L?    DCD    1061959032
        0x00010ba8:    3f1a6293    .b.?    DCD    1058693779
        0x00010bac:    3f4bf8c7    ..K?    DCD    1061943495
        0x00010bb0:    3f1ab2b8    ...?    DCD    1058714296
        0x00010bb4:    3f4bbbf8    ..K?    DCD    1061927928
        0x00010bb8:    3f1b02c6    ...?    DCD    1058734790
        0x00010bbc:    3f4b7f09    ..K?    DCD    1061912329
        0x00010bc0:    3f1b52bb    .R.?    DCD    1058755259
        0x00010bc4:    3f4b41fa    .AK?    DCD    1061896698
        0x00010bc8:    3f1ba299    ...?    DCD    1058775705
        0x00010bcc:    3f4b04cc    ..K?    DCD    1061881036
        0x00010bd0:    3f1bf25f    _..?    DCD    1058796127
        0x00010bd4:    3f4ac77f    ..J?    DCD    1061865343
        0x00010bd8:    3f1c420c    .B.?    DCD    1058816524
        0x00010bdc:    3f4a8a13    ..J?    DCD    1061849619
        0x00010be0:    3f1c91a2    ...?    DCD    1058836898
        0x00010be4:    3f4a4c87    .LJ?    DCD    1061833863
        0x00010be8:    3f1ce11f    ...?    DCD    1058857247
        0x00010bec:    3f4a0edc    ..J?    DCD    1061818076
        0x00010bf0:    3f1d3084    .0.?    DCD    1058877572
        0x00010bf4:    3f49d112    ..I?    DCD    1061802258
        0x00010bf8:    3f1d7fd1    ...?    DCD    1058897873
        0x00010bfc:    3f499329    ).I?    DCD    1061786409
        0x00010c00:    3f1dcf06    ...?    DCD    1058918150
        0x00010c04:    3f495521    !UI?    DCD    1061770529
        0x00010c08:    3f1e1e22    "..?    DCD    1058938402
        0x00010c0c:    3f4916fa    ..I?    DCD    1061754618
        0x00010c10:    3f1e6d26    &m.?    DCD    1058958630
        0x00010c14:    3f48d8b3    ..H?    DCD    1061738675
        0x00010c18:    3f1ebc12    ...?    DCD    1058978834
        0x00010c1c:    3f489a4e    N.H?    DCD    1061722702
        0x00010c20:    3f1f0ae5    ...?    DCD    1058999013
        0x00010c24:    3f485bca    .[H?    DCD    1061706698
        0x00010c28:    3f1f599f    .Y.?    DCD    1059019167
        0x00010c2c:    3f481d27    '.H?    DCD    1061690663
        0x00010c30:    3f1fa841    A..?    DCD    1059039297
        0x00010c34:    3f47de65    e.G?    DCD    1061674597
        0x00010c38:    3f1ff6cb    ...?    DCD    1059059403
        0x00010c3c:    3f479f84    ..G?    DCD    1061658500
        0x00010c40:    3f20453b    ;E ?    DCD    1059079483
        0x00010c44:    3f476085    .`G?    DCD    1061642373
        0x00010c48:    3f209393    .. ?    DCD    1059099539
        0x00010c4c:    3f472167    g!G?    DCD    1061626215
        0x00010c50:    3f20e1d2    .. ?    DCD    1059119570
        0x00010c54:    3f46e22a    *.F?    DCD    1061610026
        0x00010c58:    3f212ff9    ./!?    DCD    1059139577
        0x00010c5c:    3f46a2ce    ..F?    DCD    1061593806
        0x00010c60:    3f217e06    .~!?    DCD    1059159558
        0x00010c64:    3f466354    TcF?    DCD    1061577556
        0x00010c68:    3f21cbfb    ..!?    DCD    1059179515
        0x00010c6c:    3f4623bb    .#F?    DCD    1061561275
        0x00010c70:    3f2219d7    .."?    DCD    1059199447
        0x00010c74:    3f45e403    ..E?    DCD    1061544963
        0x00010c78:    3f226799    .g"?    DCD    1059219353
        0x00010c7c:    3f45a42d    -.E?    DCD    1061528621
        0x00010c80:    3f22b543    C."?    DCD    1059239235
        0x00010c84:    3f456439    9dE?    DCD    1061512249
        0x00010c88:    3f2302d3    ..#?    DCD    1059259091
        0x00010c8c:    3f452426    &$E?    DCD    1061495846
        0x00010c90:    3f23504b    KP#?    DCD    1059278923
        0x00010c94:    3f44e3f5    ..D?    DCD    1061479413
        0x00010c98:    3f239da9    ..#?    DCD    1059298729
        0x00010c9c:    3f44a3a5    ..D?    DCD    1061462949
        0x00010ca0:    3f23eaee    ..#?    DCD    1059318510
        0x00010ca4:    3f446337    7cD?    DCD    1061446455
        0x00010ca8:    3f24381a    .8$?    DCD    1059338266
        0x00010cac:    3f4422ab    ."D?    DCD    1061429931
        0x00010cb0:    3f24852c    ,.$?    DCD    1059357996
        0x00010cb4:    3f43e200    ..C?    DCD    1061413376
        0x00010cb8:    3f24d225    %.$?    DCD    1059377701
        0x00010cbc:    3f43a138    8.C?    DCD    1061396792
        0x00010cc0:    3f251f04    ..%?    DCD    1059397380
        0x00010cc4:    3f436051    Q`C?    DCD    1061380177
        0x00010cc8:    3f256bcb    .k%?    DCD    1059417035
        0x00010ccc:    3f431f4c    L.C?    DCD    1061363532
        0x00010cd0:    3f25b877    w.%?    DCD    1059436663
        0x00010cd4:    3f42de29    ).B?    DCD    1061346857
        0x00010cd8:    3f26050a    ..&?    DCD    1059456266
        0x00010cdc:    3f429ce8    ..B?    DCD    1061330152
        0x00010ce0:    3f265184    .Q&?    DCD    1059475844
        0x00010ce4:    3f425b89    .[B?    DCD    1061313417
        0x00010ce8:    3f269de3    ..&?    DCD    1059495395
        0x00010cec:    3f421a0b    ..B?    DCD    1061296651
        0x00010cf0:    3f26ea2a    *.&?    DCD    1059514922
        0x00010cf4:    3f41d870    p.A?    DCD    1061279856
        0x00010cf8:    3f273656    V6'?    DCD    1059534422
        0x00010cfc:    3f4196b7    ..A?    DCD    1061263031
        0x00010d00:    3f278268    h.'?    DCD    1059553896
        0x00010d04:    3f4154e1    .TA?    DCD    1061246177
        0x00010d08:    3f27ce61    a.'?    DCD    1059573345
        0x00010d0c:    3f4112ec    ..A?    DCD    1061229292
        0x00010d10:    3f281a40    @.(?    DCD    1059592768
        0x00010d14:    3f40d0da    ..@?    DCD    1061212378
        0x00010d18:    3f286605    .f(?    DCD    1059612165
        0x00010d1c:    3f408ea9    ..@?    DCD    1061195433
        0x00010d20:    3f28b1b0    ..(?    DCD    1059631536
        0x00010d24:    3f404c5c    \L@?    DCD    1061178460
        0x00010d28:    3f28fd41    A.(?    DCD    1059650881
        0x00010d2c:    3f4009f0    ..@?    DCD    1061161456
        0x00010d30:    3f2948b8    .H)?    DCD    1059670200
        0x00010d34:    3f3fc767    g.??    DCD    1061144423
        0x00010d38:    3f299415    ..)?    DCD    1059689493
        0x00010d3c:    3f3f84c0    ..??    DCD    1061127360
        0x00010d40:    3f29df57    W.)?    DCD    1059708759
        0x00010d44:    3f3f41fc    .A??    DCD    1061110268
        0x00010d48:    3f2a2a80    .**?    DCD    1059728000
        0x00010d4c:    3f3eff1b    ..>?    DCD    1061093147
        0x00010d50:    3f2a758e    .u*?    DCD    1059747214
        0x00010d54:    3f3ebc1b    ..>?    DCD    1061075995
        0x00010d58:    3f2ac082    ..*?    DCD    1059766402
        0x00010d5c:    3f3e78ff    .x>?    DCD    1061058815
        0x00010d60:    3f2b0b5b    [.+?    DCD    1059785563
        0x00010d64:    3f3e35c5    .5>?    DCD    1061041605
        0x00010d68:    3f2b561b    .V+?    DCD    1059804699
        0x00010d6c:    3f3df26e    n.=?    DCD    1061024366
        0x00010d70:    3f2ba0bf    ..+?    DCD    1059823807
        0x00010d74:    3f3daef9    ..=?    DCD    1061007097
        0x00010d78:    3f2beb4a    J.+?    DCD    1059842890
        0x00010d7c:    3f3d6b67    gk=?    DCD    1060989799
        0x00010d80:    3f2c35b9    .5,?    DCD    1059861945
        0x00010d84:    3f3d27b8    .'=?    DCD    1060972472
        0x00010d88:    3f2c800f    ..,?    DCD    1059880975
        0x00010d8c:    3f3ce3ec    ..<?    DCD    1060955116
        0x00010d90:    3f2cca49    I.,?    DCD    1059899977
        0x00010d94:    3f3ca003    ..<?    DCD    1060937731
        0x00010d98:    3f2d1469    i.-?    DCD    1059918953
        0x00010d9c:    3f3c5bfc    .[<?    DCD    1060920316
        0x00010da0:    3f2d5e6f    o^-?    DCD    1059937903
        0x00010da4:    3f3c17d9    ..<?    DCD    1060902873
        0x00010da8:    3f2da859    Y.-?    DCD    1059956825
        0x00010dac:    3f3bd398    ..;?    DCD    1060885400
        0x00010db0:    3f2df229    ).-?    DCD    1059975721
        0x00010db4:    3f3b8f3b    ;.;?    DCD    1060867899
        0x00010db8:    3f2e3bde    .;.?    DCD    1059994590
        0x00010dbc:    3f3b4ac1    .J;?    DCD    1060850369
        0x00010dc0:    3f2e8578    x..?    DCD    1060013432
        0x00010dc4:    3f3b0629    ).;?    DCD    1060832809
        0x00010dc8:    3f2ecef7    ...?    DCD    1060032247
        0x00010dcc:    3f3ac175    u.:?    DCD    1060815221
        0x00010dd0:    3f2f185b    [./?    DCD    1060051035
        0x00010dd4:    3f3a7ca4    .|:?    DCD    1060797604
        0x00010dd8:    3f2f61a5    .a/?    DCD    1060069797
        0x00010ddc:    3f3a37b7    .7:?    DCD    1060779959
        0x00010de0:    3f2faad3    ../?    DCD    1060088531
        0x00010de4:    3f39f2ac    ..9?    DCD    1060762284
        0x00010de8:    3f2ff3e6    ../?    DCD    1060107238
        0x00010dec:    3f39ad85    ..9?    DCD    1060744581
        0x00010df0:    3f303cde    .<0?    DCD    1060125918
        0x00010df4:    3f396842    Bh9?    DCD    1060726850
        0x00010df8:    3f3085bb    ..0?    DCD    1060144571
        0x00010dfc:    3f3922e1    ."9?    DCD    1060709089
        0x00010e00:    3f30ce7c    |.0?    DCD    1060163196
        0x00010e04:    3f38dd65    e.8?    DCD    1060691301
        0x00010e08:    3f311722    ".1?    DCD    1060181794
        0x00010e0c:    3f3897cb    ..8?    DCD    1060673483
        0x00010e10:    3f315fad    ._1?    DCD    1060200365
        0x00010e14:    3f385216    .R8?    DCD    1060655638
        0x00010e18:    3f31a81d    ..1?    DCD    1060218909
        0x00010e1c:    3f380c43    C.8?    DCD    1060637763
        0x00010e20:    3f31f071    q.1?    DCD    1060237425
        0x00010e24:    3f37c655    U.7?    DCD    1060619861
        0x00010e28:    3f3238aa    .82?    DCD    1060255914
        0x00010e2c:    3f37804a    J.7?    DCD    1060601930
        0x00010e30:    3f3280c7    ..2?    DCD    1060274375
        0x00010e34:    3f373a23    #:7?    DCD    1060583971
        0x00010e38:    3f32c8c9    ..2?    DCD    1060292809
        0x00010e3c:    3f36f3df    ..6?    DCD    1060565983
        0x00010e40:    3f3310af    ..3?    DCD    1060311215
        0x00010e44:    3f36ad7f    ..6?    DCD    1060547967
        0x00010e48:    3f33587a    zX3?    DCD    1060329594
        0x00010e4c:    3f366704    .g6?    DCD    1060529924
        0x00010e50:    3f33a029    ).3?    DCD    1060347945
        0x00010e54:    3f36206c    l 6?    DCD    1060511852
        0x00010e58:    3f33e7bc    ..3?    DCD    1060366268
        0x00010e5c:    3f35d9b8    ..5?    DCD    1060493752
        0x00010e60:    3f342f34    4/4?    DCD    1060384564
        0x00010e64:    3f3592e7    ..5?    DCD    1060475623
        0x00010e68:    3f34768f    .v4?    DCD    1060402831
        0x00010e6c:    3f354bfb    .K5?    DCD    1060457467
        0x00010e70:    3f34bdcf    ..4?    DCD    1060421071
        0x00010e74:    3f3504f3    ..5?    DCD    1060439283
        0x00010e78:    3f3504f3    ..5?    DCD    1060439283
        0x00010e7c:    3f34bdcf    ..4?    DCD    1060421071
        0x00010e80:    3f354bfb    .K5?    DCD    1060457467
        0x00010e84:    3f34768f    .v4?    DCD    1060402831
        0x00010e88:    3f3592e7    ..5?    DCD    1060475623
        0x00010e8c:    3f342f34    4/4?    DCD    1060384564
        0x00010e90:    3f35d9b8    ..5?    DCD    1060493752
        0x00010e94:    3f33e7bc    ..3?    DCD    1060366268
        0x00010e98:    3f36206c    l 6?    DCD    1060511852
        0x00010e9c:    3f33a029    ).3?    DCD    1060347945
        0x00010ea0:    3f366704    .g6?    DCD    1060529924
        0x00010ea4:    3f33587a    zX3?    DCD    1060329594
        0x00010ea8:    3f36ad7f    ..6?    DCD    1060547967
        0x00010eac:    3f3310af    ..3?    DCD    1060311215
        0x00010eb0:    3f36f3df    ..6?    DCD    1060565983
        0x00010eb4:    3f32c8c9    ..2?    DCD    1060292809
        0x00010eb8:    3f373a23    #:7?    DCD    1060583971
        0x00010ebc:    3f3280c7    ..2?    DCD    1060274375
        0x00010ec0:    3f37804a    J.7?    DCD    1060601930
        0x00010ec4:    3f3238aa    .82?    DCD    1060255914
        0x00010ec8:    3f37c655    U.7?    DCD    1060619861
        0x00010ecc:    3f31f071    q.1?    DCD    1060237425
        0x00010ed0:    3f380c43    C.8?    DCD    1060637763
        0x00010ed4:    3f31a81d    ..1?    DCD    1060218909
        0x00010ed8:    3f385216    .R8?    DCD    1060655638
        0x00010edc:    3f315fad    ._1?    DCD    1060200365
        0x00010ee0:    3f3897cb    ..8?    DCD    1060673483
        0x00010ee4:    3f311722    ".1?    DCD    1060181794
        0x00010ee8:    3f38dd65    e.8?    DCD    1060691301
        0x00010eec:    3f30ce7c    |.0?    DCD    1060163196
        0x00010ef0:    3f3922e1    ."9?    DCD    1060709089
        0x00010ef4:    3f3085bb    ..0?    DCD    1060144571
        0x00010ef8:    3f396842    Bh9?    DCD    1060726850
        0x00010efc:    3f303cde    .<0?    DCD    1060125918
        0x00010f00:    3f39ad85    ..9?    DCD    1060744581
        0x00010f04:    3f2ff3e6    ../?    DCD    1060107238
        0x00010f08:    3f39f2ac    ..9?    DCD    1060762284
        0x00010f0c:    3f2faad3    ../?    DCD    1060088531
        0x00010f10:    3f3a37b7    .7:?    DCD    1060779959
        0x00010f14:    3f2f61a5    .a/?    DCD    1060069797
        0x00010f18:    3f3a7ca4    .|:?    DCD    1060797604
        0x00010f1c:    3f2f185b    [./?    DCD    1060051035
        0x00010f20:    3f3ac175    u.:?    DCD    1060815221
        0x00010f24:    3f2ecef7    ...?    DCD    1060032247
        0x00010f28:    3f3b0629    ).;?    DCD    1060832809
        0x00010f2c:    3f2e8578    x..?    DCD    1060013432
        0x00010f30:    3f3b4ac1    .J;?    DCD    1060850369
        0x00010f34:    3f2e3bde    .;.?    DCD    1059994590
        0x00010f38:    3f3b8f3b    ;.;?    DCD    1060867899
        0x00010f3c:    3f2df229    ).-?    DCD    1059975721
        0x00010f40:    3f3bd398    ..;?    DCD    1060885400
        0x00010f44:    3f2da859    Y.-?    DCD    1059956825
        0x00010f48:    3f3c17d9    ..<?    DCD    1060902873
        0x00010f4c:    3f2d5e6f    o^-?    DCD    1059937903
        0x00010f50:    3f3c5bfc    .[<?    DCD    1060920316
        0x00010f54:    3f2d1469    i.-?    DCD    1059918953
        0x00010f58:    3f3ca003    ..<?    DCD    1060937731
        0x00010f5c:    3f2cca49    I.,?    DCD    1059899977
        0x00010f60:    3f3ce3ec    ..<?    DCD    1060955116
        0x00010f64:    3f2c800f    ..,?    DCD    1059880975
        0x00010f68:    3f3d27b8    .'=?    DCD    1060972472
        0x00010f6c:    3f2c35b9    .5,?    DCD    1059861945
        0x00010f70:    3f3d6b67    gk=?    DCD    1060989799
        0x00010f74:    3f2beb4a    J.+?    DCD    1059842890
        0x00010f78:    3f3daef9    ..=?    DCD    1061007097
        0x00010f7c:    3f2ba0bf    ..+?    DCD    1059823807
        0x00010f80:    3f3df26e    n.=?    DCD    1061024366
        0x00010f84:    3f2b561b    .V+?    DCD    1059804699
        0x00010f88:    3f3e35c5    .5>?    DCD    1061041605
        0x00010f8c:    3f2b0b5b    [.+?    DCD    1059785563
        0x00010f90:    3f3e78ff    .x>?    DCD    1061058815
        0x00010f94:    3f2ac082    ..*?    DCD    1059766402
        0x00010f98:    3f3ebc1b    ..>?    DCD    1061075995
        0x00010f9c:    3f2a758e    .u*?    DCD    1059747214
        0x00010fa0:    3f3eff1b    ..>?    DCD    1061093147
        0x00010fa4:    3f2a2a80    .**?    DCD    1059728000
        0x00010fa8:    3f3f41fc    .A??    DCD    1061110268
        0x00010fac:    3f29df57    W.)?    DCD    1059708759
        0x00010fb0:    3f3f84c0    ..??    DCD    1061127360
        0x00010fb4:    3f299415    ..)?    DCD    1059689493
        0x00010fb8:    3f3fc767    g.??    DCD    1061144423
        0x00010fbc:    3f2948b8    .H)?    DCD    1059670200
        0x00010fc0:    3f4009f0    ..@?    DCD    1061161456
        0x00010fc4:    3f28fd41    A.(?    DCD    1059650881
        0x00010fc8:    3f404c5c    \L@?    DCD    1061178460
        0x00010fcc:    3f28b1b0    ..(?    DCD    1059631536
        0x00010fd0:    3f408ea9    ..@?    DCD    1061195433
        0x00010fd4:    3f286605    .f(?    DCD    1059612165
        0x00010fd8:    3f40d0da    ..@?    DCD    1061212378
        0x00010fdc:    3f281a40    @.(?    DCD    1059592768
        0x00010fe0:    3f4112ec    ..A?    DCD    1061229292
        0x00010fe4:    3f27ce61    a.'?    DCD    1059573345
        0x00010fe8:    3f4154e1    .TA?    DCD    1061246177
        0x00010fec:    3f278268    h.'?    DCD    1059553896
        0x00010ff0:    3f4196b7    ..A?    DCD    1061263031
        0x00010ff4:    3f273656    V6'?    DCD    1059534422
        0x00010ff8:    3f41d870    p.A?    DCD    1061279856
        0x00010ffc:    3f26ea2a    *.&?    DCD    1059514922
        0x00011000:    3f421a0b    ..B?    DCD    1061296651
        0x00011004:    3f269de3    ..&?    DCD    1059495395
        0x00011008:    3f425b89    .[B?    DCD    1061313417
        0x0001100c:    3f265184    .Q&?    DCD    1059475844
        0x00011010:    3f429ce8    ..B?    DCD    1061330152
        0x00011014:    3f26050a    ..&?    DCD    1059456266
        0x00011018:    3f42de29    ).B?    DCD    1061346857
        0x0001101c:    3f25b877    w.%?    DCD    1059436663
        0x00011020:    3f431f4c    L.C?    DCD    1061363532
        0x00011024:    3f256bcb    .k%?    DCD    1059417035
        0x00011028:    3f436051    Q`C?    DCD    1061380177
        0x0001102c:    3f251f04    ..%?    DCD    1059397380
        0x00011030:    3f43a138    8.C?    DCD    1061396792
        0x00011034:    3f24d225    %.$?    DCD    1059377701
        0x00011038:    3f43e200    ..C?    DCD    1061413376
        0x0001103c:    3f24852c    ,.$?    DCD    1059357996
        0x00011040:    3f4422ab    ."D?    DCD    1061429931
        0x00011044:    3f24381a    .8$?    DCD    1059338266
        0x00011048:    3f446337    7cD?    DCD    1061446455
        0x0001104c:    3f23eaee    ..#?    DCD    1059318510
        0x00011050:    3f44a3a5    ..D?    DCD    1061462949
        0x00011054:    3f239da9    ..#?    DCD    1059298729
        0x00011058:    3f44e3f5    ..D?    DCD    1061479413
        0x0001105c:    3f23504b    KP#?    DCD    1059278923
        0x00011060:    3f452426    &$E?    DCD    1061495846
        0x00011064:    3f2302d3    ..#?    DCD    1059259091
        0x00011068:    3f456439    9dE?    DCD    1061512249
        0x0001106c:    3f22b543    C."?    DCD    1059239235
        0x00011070:    3f45a42d    -.E?    DCD    1061528621
        0x00011074:    3f226799    .g"?    DCD    1059219353
        0x00011078:    3f45e403    ..E?    DCD    1061544963
        0x0001107c:    3f2219d7    .."?    DCD    1059199447
        0x00011080:    3f4623bb    .#F?    DCD    1061561275
        0x00011084:    3f21cbfb    ..!?    DCD    1059179515
        0x00011088:    3f466354    TcF?    DCD    1061577556
        0x0001108c:    3f217e06    .~!?    DCD    1059159558
        0x00011090:    3f46a2ce    ..F?    DCD    1061593806
        0x00011094:    3f212ff9    ./!?    DCD    1059139577
        0x00011098:    3f46e22a    *.F?    DCD    1061610026
        0x0001109c:    3f20e1d2    .. ?    DCD    1059119570
        0x000110a0:    3f472167    g!G?    DCD    1061626215
        0x000110a4:    3f209393    .. ?    DCD    1059099539
        0x000110a8:    3f476085    .`G?    DCD    1061642373
        0x000110ac:    3f20453b    ;E ?    DCD    1059079483
        0x000110b0:    3f479f84    ..G?    DCD    1061658500
        0x000110b4:    3f1ff6cb    ...?    DCD    1059059403
        0x000110b8:    3f47de65    e.G?    DCD    1061674597
        0x000110bc:    3f1fa841    A..?    DCD    1059039297
        0x000110c0:    3f481d27    '.H?    DCD    1061690663
        0x000110c4:    3f1f599f    .Y.?    DCD    1059019167
        0x000110c8:    3f485bca    .[H?    DCD    1061706698
        0x000110cc:    3f1f0ae5    ...?    DCD    1058999013
        0x000110d0:    3f489a4e    N.H?    DCD    1061722702
        0x000110d4:    3f1ebc12    ...?    DCD    1058978834
        0x000110d8:    3f48d8b3    ..H?    DCD    1061738675
        0x000110dc:    3f1e6d26    &m.?    DCD    1058958630
        0x000110e0:    3f4916fa    ..I?    DCD    1061754618
        0x000110e4:    3f1e1e22    "..?    DCD    1058938402
        0x000110e8:    3f495521    !UI?    DCD    1061770529
        0x000110ec:    3f1dcf06    ...?    DCD    1058918150
        0x000110f0:    3f499329    ).I?    DCD    1061786409
        0x000110f4:    3f1d7fd1    ...?    DCD    1058897873
        0x000110f8:    3f49d112    ..I?    DCD    1061802258
        0x000110fc:    3f1d3084    .0.?    DCD    1058877572
        0x00011100:    3f4a0edc    ..J?    DCD    1061818076
        0x00011104:    3f1ce11f    ...?    DCD    1058857247
        0x00011108:    3f4a4c87    .LJ?    DCD    1061833863
        0x0001110c:    3f1c91a2    ...?    DCD    1058836898
        0x00011110:    3f4a8a13    ..J?    DCD    1061849619
        0x00011114:    3f1c420c    .B.?    DCD    1058816524
        0x00011118:    3f4ac77f    ..J?    DCD    1061865343
        0x0001111c:    3f1bf25f    _..?    DCD    1058796127
        0x00011120:    3f4b04cc    ..K?    DCD    1061881036
        0x00011124:    3f1ba299    ...?    DCD    1058775705
        0x00011128:    3f4b41fa    .AK?    DCD    1061896698
        0x0001112c:    3f1b52bb    .R.?    DCD    1058755259
        0x00011130:    3f4b7f09    ..K?    DCD    1061912329
        0x00011134:    3f1b02c6    ...?    DCD    1058734790
        0x00011138:    3f4bbbf8    ..K?    DCD    1061927928
        0x0001113c:    3f1ab2b8    ...?    DCD    1058714296
        0x00011140:    3f4bf8c7    ..K?    DCD    1061943495
        0x00011144:    3f1a6293    .b.?    DCD    1058693779
        0x00011148:    3f4c3578    x5L?    DCD    1061959032
        0x0001114c:    3f1a1255    U..?    DCD    1058673237
        0x00011150:    3f4c7208    .rL?    DCD    1061974536
        0x00011154:    3f19c200    ...?    DCD    1058652672
        0x00011158:    3f4cae79    y.L?    DCD    1061990009
        0x0001115c:    3f197194    .q.?    DCD    1058632084
        0x00011160:    3f4ceacb    ..L?    DCD    1062005451
        0x00011164:    3f19210f    .!.?    DCD    1058611471
        0x00011168:    3f4d26fd    .&M?    DCD    1062020861
        0x0001116c:    3f18d073    s..?    DCD    1058590835
        0x00011170:    3f4d6310    .cM?    DCD    1062036240
        0x00011174:    3f187fc0    ...?    DCD    1058570176
        0x00011178:    3f4d9f02    ..M?    DCD    1062051586
        0x0001117c:    3f182ef5    ...?    DCD    1058549493
        0x00011180:    3f4ddad5    ..M?    DCD    1062066901
        0x00011184:    3f17de12    ...?    DCD    1058528786
        0x00011188:    3f4e1689    ..N?    DCD    1062082185
        0x0001118c:    3f178d18    ...?    DCD    1058508056
        0x00011190:    3f4e521c    .RN?    DCD    1062097436
        0x00011194:    3f173c07    .<.?    DCD    1058487303
        0x00011198:    3f4e8d90    ..N?    DCD    1062112656
        0x0001119c:    3f16eadf    ...?    DCD    1058466527
        0x000111a0:    3f4ec8e4    ..N?    DCD    1062127844
        0x000111a4:    3f16999f    ...?    DCD    1058445727
        0x000111a8:    3f4f0417    ..O?    DCD    1062142999
        0x000111ac:    3f164847    GH.?    DCD    1058424903
        0x000111b0:    3f4f3f2b    +?O?    DCD    1062158123
        0x000111b4:    3f15f6d9    ...?    DCD    1058404057
        0x000111b8:    3f4f7a1f    .zO?    DCD    1062173215
        0x000111bc:    3f15a554    T..?    DCD    1058383188
        0x000111c0:    3f4fb4f4    ..O?    DCD    1062188276
        0x000111c4:    3f1553b7    .S.?    DCD    1058362295
        0x000111c8:    3f4fefa8    ..O?    DCD    1062203304
        0x000111cc:    3f150204    ...?    DCD    1058341380
        0x000111d0:    3f502a3b    ;*P?    DCD    1062218299
        0x000111d4:    3f14b039    9..?    DCD    1058320441
        0x000111d8:    3f5064af    .dP?    DCD    1062233263
        0x000111dc:    3f145e58    X^.?    DCD    1058299480
        0x000111e0:    3f509f03    ..P?    DCD    1062248195
        0x000111e4:    3f140c5f    _..?    DCD    1058278495
        0x000111e8:    3f50d937    7.P?    DCD    1062263095
        0x000111ec:    3f13ba50    P..?    DCD    1058257488
        0x000111f0:    3f51134a    J.Q?    DCD    1062277962
        0x000111f4:    3f13682a    *h.?    DCD    1058236458
        0x000111f8:    3f514d3d    =MQ?    DCD    1062292797
        0x000111fc:    3f1315ee    ...?    DCD    1058215406
        0x00011200:    3f518710    ..Q?    DCD    1062307600
        0x00011204:    3f12c39a    ...?    DCD    1058194330
        0x00011208:    3f51c0c2    ..Q?    DCD    1062322370
        0x0001120c:    3f127130    0q.?    DCD    1058173232
        0x00011210:    3f51fa54    T.Q?    DCD    1062337108
        0x00011214:    3f121eb0    ...?    DCD    1058152112
        0x00011218:    3f5233c6    .3R?    DCD    1062351814
        0x0001121c:    3f11cc19    ...?    DCD    1058130969
        0x00011220:    3f526d18    .mR?    DCD    1062366488
        0x00011224:    3f11796b    ky.?    DCD    1058109803
        0x00011228:    3f52a649    I.R?    DCD    1062381129
        0x0001122c:    3f1126a7    .&.?    DCD    1058088615
        0x00011230:    3f52df59    Y.R?    DCD    1062395737
        0x00011234:    3f10d3cd    ...?    DCD    1058067405
        0x00011238:    3f531849    I.S?    DCD    1062410313
        0x0001123c:    3f1080dc    ...?    DCD    1058046172
        0x00011240:    3f535118    .QS?    DCD    1062424856
        0x00011244:    3f102dd5    .-.?    DCD    1058024917
        0x00011248:    3f5389c7    ..S?    DCD    1062439367
        0x0001124c:    3f0fdab8    ...?    DCD    1058003640
        0x00011250:    3f53c255    U.S?    DCD    1062453845
        0x00011254:    3f0f8784    ...?    DCD    1057982340
        0x00011258:    3f53fac3    ..S?    DCD    1062468291
        0x0001125c:    3f0f343b    ;4.?    DCD    1057961019
        0x00011260:    3f54330f    .3T?    DCD    1062482703
        0x00011264:    3f0ee0db    ...?    DCD    1057939675
        0x00011268:    3f546b3b    ;kT?    DCD    1062497083
        0x0001126c:    3f0e8d65    e..?    DCD    1057918309
        0x00011270:    3f54a347    G.T?    DCD    1062511431
        0x00011274:    3f0e39da    .9.?    DCD    1057896922
        0x00011278:    3f54db31    1.T?    DCD    1062525745
        0x0001127c:    3f0de638    8..?    DCD    1057875512
        0x00011280:    3f5512fb    ..U?    DCD    1062540027
        0x00011284:    3f0d9281    ...?    DCD    1057854081
        0x00011288:    3f554aa4    .JU?    DCD    1062554276
        0x0001128c:    3f0d3eb3    .>.?    DCD    1057832627
        0x00011290:    3f55822c    ,.U?    DCD    1062568492
        0x00011294:    3f0cead0    ...?    DCD    1057811152
        0x00011298:    3f55b993    ..U?    DCD    1062582675
        0x0001129c:    3f0c96d7    ...?    DCD    1057789655
        0x000112a0:    3f55f0d9    ..U?    DCD    1062596825
        0x000112a4:    3f0c42c9    .B.?    DCD    1057768137
        0x000112a8:    3f5627fe    .'V?    DCD    1062610942
        0x000112ac:    3f0beea5    ...?    DCD    1057746597
        0x000112b0:    3f565f02    ._V?    DCD    1062625026
        0x000112b4:    3f0b9a6b    k..?    DCD    1057725035
        0x000112b8:    3f5695e5    ..V?    DCD    1062639077
        0x000112bc:    3f0b461c    .F.?    DCD    1057703452
        0x000112c0:    3f56cca7    ..V?    DCD    1062653095
        0x000112c4:    3f0af1b7    ...?    DCD    1057681847
        0x000112c8:    3f570348    H.W?    DCD    1062667080
        0x000112cc:    3f0a9d3d    =..?    DCD    1057660221
        0x000112d0:    3f5739c7    .9W?    DCD    1062681031
        0x000112d4:    3f0a48ad    .H.?    DCD    1057638573
        0x000112d8:    3f577026    &pW?    DCD    1062694950
        0x000112dc:    3f09f409    ...?    DCD    1057616905
        0x000112e0:    3f57a663    c.W?    DCD    1062708835
        0x000112e4:    3f099f4e    N..?    DCD    1057595214
        0x000112e8:    3f57dc7f    ..W?    DCD    1062722687
        0x000112ec:    3f094a7f    .J.?    DCD    1057573503
        0x000112f0:    3f581279    y.X?    DCD    1062736505
        0x000112f4:    3f08f59b    ...?    DCD    1057551771
        0x000112f8:    3f584853    SHX?    DCD    1062750291
        0x000112fc:    3f08a0a1    ...?    DCD    1057530017
        0x00011300:    3f587e0b    .~X?    DCD    1062764043
        0x00011304:    3f084b92    .K.?    DCD    1057508242
        0x00011308:    3f58b3a1    ..X?    DCD    1062777761
        0x0001130c:    3f07f66f    o..?    DCD    1057486447
        0x00011310:    3f58e917    ..X?    DCD    1062791447
        0x00011314:    3f07a136    6..?    DCD    1057464630
        0x00011318:    3f591e6a    j.Y?    DCD    1062805098
        0x0001131c:    3f074be8    .K.?    DCD    1057442792
        0x00011320:    3f59539c    .SY?    DCD    1062818716
        0x00011324:    3f06f686    ...?    DCD    1057420934
        0x00011328:    3f5988ad    ..Y?    DCD    1062832301
        0x0001132c:    3f06a10e    ...?    DCD    1057399054
        0x00011330:    3f59bd9c    ..Y?    DCD    1062845852
        0x00011334:    3f064b82    .K.?    DCD    1057377154
        0x00011338:    3f59f26a    j.Y?    DCD    1062859370
        0x0001133c:    3f05f5e2    ...?    DCD    1057355234
        0x00011340:    3f5a2716    .'Z?    DCD    1062872854
        0x00011344:    3f05a02c    ,..?    DCD    1057333292
        0x00011348:    3f5a5ba0    .[Z?    DCD    1062886304
        0x0001134c:    3f054a62    bJ.?    DCD    1057311330
        0x00011350:    3f5a9009    ..Z?    DCD    1062899721
        0x00011354:    3f04f484    ...?    DCD    1057289348
        0x00011358:    3f5ac450    P.Z?    DCD    1062913104
        0x0001135c:    3f049e91    ...?    DCD    1057267345
        0x00011360:    3f5af875    u.Z?    DCD    1062926453
        0x00011364:    3f044889    .H.?    DCD    1057245321
        0x00011368:    3f5b2c79    y,[?    DCD    1062939769
        0x0001136c:    3f03f26d    m..?    DCD    1057223277
        0x00011370:    3f5b605a    Z`[?    DCD    1062953050
        0x00011374:    3f039c3d    =..?    DCD    1057201213
        0x00011378:    3f5b941a    ..[?    DCD    1062966298
        0x0001137c:    3f0345f8    .E.?    DCD    1057179128
        0x00011380:    3f5bc7b8    ..[?    DCD    1062979512
        0x00011384:    3f02ef9f    ...?    DCD    1057157023
        0x00011388:    3f5bfb34    4.[?    DCD    1062992692
        0x0001138c:    3f029932    2..?    DCD    1057134898
        0x00011390:    3f5c2e8e    ..\?    DCD    1063005838
        0x00011394:    3f0242b1    .B.?    DCD    1057112753
        0x00011398:    3f5c61c7    .a\?    DCD    1063018951
        0x0001139c:    3f01ec1c    ...?    DCD    1057090588
        0x000113a0:    3f5c94dd    ..\?    DCD    1063032029
        0x000113a4:    3f019573    s..?    DCD    1057068403
        0x000113a8:    3f5cc7d1    ..\?    DCD    1063045073
        0x000113ac:    3f013eb5    .>.?    DCD    1057046197
        0x000113b0:    3f5cfaa3    ..\?    DCD    1063058083
        0x000113b4:    3f00e7e4    ...?    DCD    1057023972
        0x000113b8:    3f5d2d53    S-]?    DCD    1063071059
        0x000113bc:    3f0090ff    ...?    DCD    1057001727
        0x000113c0:    3f5d5fe1    ._]?    DCD    1063084001
        0x000113c4:    3f003a06    .:.?    DCD    1056979462
        0x000113c8:    3f5d924d    M.]?    DCD    1063096909
        0x000113cc:    3effc5f3    ...>    DCD    1056949747
        0x000113d0:    3f5dc497    ..]?    DCD    1063109783
        0x000113d4:    3eff17b2    ...>    DCD    1056905138
        0x000113d8:    3f5df6be    ..]?    DCD    1063122622
        0x000113dc:    3efe694a    Ji.>    DCD    1056860490
        0x000113e0:    3f5e28c3    .(^?    DCD    1063135427
        0x000113e4:    3efdbabb    ...>    DCD    1056815803
        0x000113e8:    3f5e5aa6    .Z^?    DCD    1063148198
        0x000113ec:    3efd0c04    ...>    DCD    1056771076
        0x000113f0:    3f5e8c67    g.^?    DCD    1063160935
        0x000113f4:    3efc5d27    '].>    DCD    1056726311
        0x000113f8:    3f5ebe05    ..^?    DCD    1063173637
        0x000113fc:    3efbae22    "..>    DCD    1056681506
        0x00011400:    3f5eef81    ..^?    DCD    1063186305
        0x00011404:    3efafef7    ...>    DCD    1056636663
        0x00011408:    3f5f20db    . _?    DCD    1063198939
        0x0001140c:    3efa4fa5    .O.>    DCD    1056591781
        0x00011410:    3f5f5212    .R_?    DCD    1063211538
        0x00011414:    3ef9a02d    -..>    DCD    1056546861
        0x00011418:    3f5f8327    '._?    DCD    1063224103
        0x0001141c:    3ef8f08e    ...>    DCD    1056501902
        0x00011420:    3f5fb419    .._?    DCD    1063236633
        0x00011424:    3ef840c8    .@.>    DCD    1056456904
        0x00011428:    3f5fe4e9    .._?    DCD    1063249129
        0x0001142c:    3ef790dc    ...>    DCD    1056411868
        0x00011430:    3f601596    ..`?    DCD    1063261590
        0x00011434:    3ef6e0cb    ...>    DCD    1056366795
        0x00011438:    3f604621    !F`?    DCD    1063274017
        0x0001143c:    3ef63093    .0.>    DCD    1056321683
        0x00011440:    3f607689    .v`?    DCD    1063286409
        0x00011444:    3ef58035    5..>    DCD    1056276533
        0x00011448:    3f60a6cf    ..`?    DCD    1063298767
        0x0001144c:    3ef4cfb1    ...>    DCD    1056231345
        0x00011450:    3f60d6f2    ..`?    DCD    1063311090
        0x00011454:    3ef41f07    ...>    DCD    1056186119
        0x00011458:    3f6106f2    ..a?    DCD    1063323378
        0x0001145c:    3ef36e38    8n.>    DCD    1056140856
        0x00011460:    3f6136d0    .6a?    DCD    1063335632
        0x00011464:    3ef2bd43    C..>    DCD    1056095555
        0x00011468:    3f61668a    .fa?    DCD    1063347850
        0x0001146c:    3ef20c29    )..>    DCD    1056050217
        0x00011470:    3f619622    ".a?    DCD    1063360034
        0x00011474:    3ef15aea    .Z.>    DCD    1056004842
        0x00011478:    3f61c598    ..a?    DCD    1063372184
        0x0001147c:    3ef0a985    ...>    DCD    1055959429
        0x00011480:    3f61f4ea    ..a?    DCD    1063384298
        0x00011484:    3eeff7fb    ...>    DCD    1055913979
        0x00011488:    3f62241a    .$b?    DCD    1063396378
        0x0001148c:    3eef464c    LF.>    DCD    1055868492
        0x00011490:    3f625326    &Sb?    DCD    1063408422
        0x00011494:    3eee9479    y..>    DCD    1055822969
        0x00011498:    3f628210    ..b?    DCD    1063420432
        0x0001149c:    3eede280    ...>    DCD    1055777408
        0x000114a0:    3f62b0d7    ..b?    DCD    1063432407
        0x000114a4:    3eed3063    c0.>    DCD    1055731811
        0x000114a8:    3f62df7b    {.b?    DCD    1063444347
        0x000114ac:    3eec7e21    !~.>    DCD    1055686177
        0x000114b0:    3f630dfc    ..c?    DCD    1063456252
        0x000114b4:    3eebcbbb    ...>    DCD    1055640507
        0x000114b8:    3f633c5a    Z<c?    DCD    1063468122
        0x000114bc:    3eeb1930    0..>    DCD    1055594800
        0x000114c0:    3f636a95    .jc?    DCD    1063479957
        0x000114c4:    3eea6681    .f.>    DCD    1055549057
        0x000114c8:    3f6398ac    ..c?    DCD    1063491756
        0x000114cc:    3ee9b3ae    ...>    DCD    1055503278
        0x000114d0:    3f63c6a1    ..c?    DCD    1063503521
        0x000114d4:    3ee900b7    ...>    DCD    1055457463
        0x000114d8:    3f63f473    s.c?    DCD    1063515251
        0x000114dc:    3ee84d9c    .M.>    DCD    1055411612
        0x000114e0:    3f642221    !"d?    DCD    1063526945
        0x000114e4:    3ee79a5d    ]..>    DCD    1055365725
        0x000114e8:    3f644fac    .Od?    DCD    1063538604
        0x000114ec:    3ee6e6fb    ...>    DCD    1055319803
        0x000114f0:    3f647d14    .}d?    DCD    1063550228
        0x000114f4:    3ee63375    u3.>    DCD    1055273845
        0x000114f8:    3f64aa59    Y.d?    DCD    1063561817
        0x000114fc:    3ee57fcb    ...>    DCD    1055227851
        0x00011500:    3f64d77b    {.d?    DCD    1063573371
        0x00011504:    3ee4cbfe    ...>    DCD    1055181822
        0x00011508:    3f650479    y.e?    DCD    1063584889
        0x0001150c:    3ee4180e    ...>    DCD    1055135758
        0x00011510:    3f653154    T1e?    DCD    1063596372
        0x00011514:    3ee363fa    .c.>    DCD    1055089658
        0x00011518:    3f655e0b    .^e?    DCD    1063607819
        0x0001151c:    3ee2afc4    ...>    DCD    1055043524
        0x00011520:    3f658aa0    ..e?    DCD    1063619232
        0x00011524:    3ee1fb6a    j..>    DCD    1054997354
        0x00011528:    3f65b710    ..e?    DCD    1063630608
        0x0001152c:    3ee146ee    .F.>    DCD    1054951150
        0x00011530:    3f65e35e    ^.e?    DCD    1063641950
        0x00011534:    3ee0924f    O..>    DCD    1054904911
        0x00011538:    3f660f88    ..f?    DCD    1063653256
        0x0001153c:    3edfdd8d    ...>    DCD    1054858637
        0x00011540:    3f663b8e    .;f?    DCD    1063664526
        0x00011544:    3edf28a9    .(.>    DCD    1054812329
        0x00011548:    3f666771    qgf?    DCD    1063675761
        0x0001154c:    3ede73a2    .s.>    DCD    1054765986
        0x00011550:    3f669330    0.f?    DCD    1063686960
        0x00011554:    3eddbe79    y..>    DCD    1054719609
        0x00011558:    3f66becc    ..f?    DCD    1063698124
        0x0001155c:    3edd092e    ...>    DCD    1054673198
        0x00011560:    3f66ea45    E.f?    DCD    1063709253
        0x00011564:    3edc53c1    .S.>    DCD    1054626753
        0x00011568:    3f671599    ..g?    DCD    1063720345
        0x0001156c:    3edb9e31    1..>    DCD    1054580273
        0x00011570:    3f6740ca    .@g?    DCD    1063731402
        0x00011574:    3edae880    ...>    DCD    1054533760
        0x00011578:    3f676bd8    .kg?    DCD    1063742424
        0x0001157c:    3eda32ad    .2.>    DCD    1054487213
        0x00011580:    3f6796c1    ..g?    DCD    1063753409
        0x00011584:    3ed97cb9    .|.>    DCD    1054440633
        0x00011588:    3f67c187    ..g?    DCD    1063764359
        0x0001158c:    3ed8c6a3    ...>    DCD    1054394019
        0x00011590:    3f67ec2a    *.g?    DCD    1063775274
        0x00011594:    3ed8106b    k..>    DCD    1054347371
        0x00011598:    3f6816a8    ..h?    DCD    1063786152
        0x0001159c:    3ed75a13    .Z.>    DCD    1054300691
        0x000115a0:    3f684103    .Ah?    DCD    1063796995
        0x000115a4:    3ed6a399    ...>    DCD    1054253977
        0x000115a8:    3f686b39    9kh?    DCD    1063807801
        0x000115ac:    3ed5ecfd    ...>    DCD    1054207229
        0x000115b0:    3f68954c    L.h?    DCD    1063818572
        0x000115b4:    3ed53641    A6.>    DCD    1054160449
        0x000115b8:    3f68bf3c    <.h?    DCD    1063829308
        0x000115bc:    3ed47f64    d..>    DCD    1054113636
        0x000115c0:    3f68e907    ..h?    DCD    1063840007
        0x000115c4:    3ed3c867    g..>    DCD    1054066791
        0x000115c8:    3f6912ae    ..i?    DCD    1063850670
        0x000115cc:    3ed31148    H..>    DCD    1054019912
        0x000115d0:    3f693c32    2<i?    DCD    1063861298
        0x000115d4:    3ed25a09    .Z.>    DCD    1053973001
        0x000115d8:    3f696591    .ei?    DCD    1063871889
        0x000115dc:    3ed1a2aa    ...>    DCD    1053926058
        0x000115e0:    3f698ecc    ..i?    DCD    1063882444
        0x000115e4:    3ed0eb2a    *..>    DCD    1053879082
        0x000115e8:    3f69b7e4    ..i?    DCD    1063892964
        0x000115ec:    3ed0338a    .3.>    DCD    1053832074
        0x000115f0:    3f69e0d7    ..i?    DCD    1063903447
        0x000115f4:    3ecf7bca    .{.>    DCD    1053785034
        0x000115f8:    3f6a09a7    ..j?    DCD    1063913895
        0x000115fc:    3ecec3ea    ...>    DCD    1053737962
        0x00011600:    3f6a3252    R2j?    DCD    1063924306
        0x00011604:    3ece0bea    ...>    DCD    1053690858
        0x00011608:    3f6a5ad9    .Zj?    DCD    1063934681
        0x0001160c:    3ecd53ca    .S.>    DCD    1053643722
        0x00011610:    3f6a833c    <.j?    DCD    1063945020
        0x00011614:    3ecc9b8b    ...>    DCD    1053596555
        0x00011618:    3f6aab7b    {.j?    DCD    1063955323
        0x0001161c:    3ecbe32c    ,..>    DCD    1053549356
        0x00011620:    3f6ad395    ..j?    DCD    1063965589
        0x00011624:    3ecb2aae    .*.>    DCD    1053502126
        0x00011628:    3f6afb8c    ..j?    DCD    1063975820
        0x0001162c:    3eca7210    .r.>    DCD    1053454864
        0x00011630:    3f6b235e    ^#k?    DCD    1063986014
        0x00011634:    3ec9b953    S..>    DCD    1053407571
        0x00011638:    3f6b4b0c    .Kk?    DCD    1063996172
        0x0001163c:    3ec90077    w..>    DCD    1053360247
        0x00011640:    3f6b7295    .rk?    DCD    1064006293
        0x00011644:    3ec8477c    |G.>    DCD    1053312892
        0x00011648:    3f6b99fb    ..k?    DCD    1064016379
        0x0001164c:    3ec78e62    b..>    DCD    1053265506
        0x00011650:    3f6bc13b    ;.k?    DCD    1064026427
        0x00011654:    3ec6d529    )..>    DCD    1053218089
        0x00011658:    3f6be858    X.k?    DCD    1064036440
        0x0001165c:    3ec61bd2    ...>    DCD    1053170642
        0x00011660:    3f6c0f50    P.l?    DCD    1064046416
        0x00011664:    3ec5625c    \b.>    DCD    1053123164
        0x00011668:    3f6c3624    $6l?    DCD    1064056356
        0x0001166c:    3ec4a8c8    ...>    DCD    1053075656
        0x00011670:    3f6c5cd4    .\l?    DCD    1064066260
        0x00011674:    3ec3ef15    ...>    DCD    1053028117
        0x00011678:    3f6c835e    ^.l?    DCD    1064076126
        0x0001167c:    3ec33544    D5.>    DCD    1052980548
        0x00011680:    3f6ca9c5    ..l?    DCD    1064085957
        0x00011684:    3ec27b55    U{.>    DCD    1052932949
        0x00011688:    3f6cd007    ..l?    DCD    1064095751
        0x0001168c:    3ec1c148    H..>    DCD    1052885320
        0x00011690:    3f6cf624    $.l?    DCD    1064105508
        0x00011694:    3ec1071e    ...>    DCD    1052837662
        0x00011698:    3f6d1c1d    ..m?    DCD    1064115229
        0x0001169c:    3ec04cd5    .L.>    DCD    1052789973
        0x000116a0:    3f6d41f2    .Am?    DCD    1064124914
        0x000116a4:    3ebf926f    o..>    DCD    1052742255
        0x000116a8:    3f6d67a1    .gm?    DCD    1064134561
        0x000116ac:    3ebed7eb    ...>    DCD    1052694507
        0x000116b0:    3f6d8d2d    -.m?    DCD    1064144173
        0x000116b4:    3ebe1d4a    J..>    DCD    1052646730
        0x000116b8:    3f6db293    ..m?    DCD    1064153747
        0x000116bc:    3ebd628b    .b.>    DCD    1052598923
        0x000116c0:    3f6dd7d5    ..m?    DCD    1064163285
        0x000116c4:    3ebca7af    ...>    DCD    1052551087
        0x000116c8:    3f6dfcf2    ..m?    DCD    1064172786
        0x000116cc:    3ebbecb6    ...>    DCD    1052503222
        0x000116d0:    3f6e21eb    .!n?    DCD    1064182251
        0x000116d4:    3ebb31a0    .1.>    DCD    1052455328
        0x000116d8:    3f6e46be    .Fn?    DCD    1064191678
        0x000116dc:    3eba766e    nv.>    DCD    1052407406
        0x000116e0:    3f6e6b6d    mkn?    DCD    1064201069
        0x000116e4:    3eb9bb1e    ...>    DCD    1052359454
        0x000116e8:    3f6e8ff8    ..n?    DCD    1064210424
        0x000116ec:    3eb8ffb2    ...>    DCD    1052311474
        0x000116f0:    3f6eb45d    ].n?    DCD    1064219741
        0x000116f4:    3eb8442a    *D.>    DCD    1052263466
        0x000116f8:    3f6ed89e    ..n?    DCD    1064229022
        0x000116fc:    3eb78884    ...>    DCD    1052215428
        0x00011700:    3f6efcba    ..n?    DCD    1064238266
        0x00011704:    3eb6ccc3    ...>    DCD    1052167363
        0x00011708:    3f6f20b0    . o?    DCD    1064247472
        0x0001170c:    3eb610e6    ...>    DCD    1052119270
        0x00011710:    3f6f4483    .Do?    DCD    1064256643
        0x00011714:    3eb554ec    .T.>    DCD    1052071148
        0x00011718:    3f6f6830    0ho?    DCD    1064265776
        0x0001171c:    3eb498d6    ...>    DCD    1052022998
        0x00011720:    3f6f8bb8    ..o?    DCD    1064274872
        0x00011724:    3eb3dca5    ...>    DCD    1051974821
        0x00011728:    3f6faf1b    ..o?    DCD    1064283931
        0x0001172c:    3eb32058    X .>    DCD    1051926616
        0x00011730:    3f6fd25a    Z.o?    DCD    1064292954
        0x00011734:    3eb263ef    .c.>    DCD    1051878383
        0x00011738:    3f6ff573    s.o?    DCD    1064301939
        0x0001173c:    3eb1a76b    k..>    DCD    1051830123
        0x00011740:    3f701867    g.p?    DCD    1064310887
        0x00011744:    3eb0eacb    ...>    DCD    1051781835
        0x00011748:    3f703b37    7;p?    DCD    1064319799
        0x0001174c:    3eb02e10    ...>    DCD    1051733520
        0x00011750:    3f705de1    .]p?    DCD    1064328673
        0x00011754:    3eaf713a    :q.>    DCD    1051685178
        0x00011758:    3f708066    f.p?    DCD    1064337510
        0x0001175c:    3eaeb449    I..>    DCD    1051636809
        0x00011760:    3f70a2c6    ..p?    DCD    1064346310
        0x00011764:    3eadf73c    <..>    DCD    1051588412
        0x00011768:    3f70c502    ..p?    DCD    1064355074
        0x0001176c:    3ead3a15    .:.>    DCD    1051539989
        0x00011770:    3f70e717    ..p?    DCD    1064363799
        0x00011774:    3eac7cd4    .|.>    DCD    1051491540
        0x00011778:    3f710908    ..q?    DCD    1064372488
        0x0001177c:    3eabbf77    w..>    DCD    1051443063
        0x00011780:    3f712ad4    .*q?    DCD    1064381140
        0x00011784:    3eab0201    ...>    DCD    1051394561
        0x00011788:    3f714c7a    zLq?    DCD    1064389754
        0x0001178c:    3eaa446f    oD.>    DCD    1051346031
        0x00011790:    3f716dfb    .mq?    DCD    1064398331
        0x00011794:    3ea986c4    ...>    DCD    1051297476
        0x00011798:    3f718f57    W.q?    DCD    1064406871
        0x0001179c:    3ea8c8fe    ...>    DCD    1051248894
        0x000117a0:    3f71b08e    ..q?    DCD    1064415374
        0x000117a4:    3ea80b1f    ...>    DCD    1051200287
        0x000117a8:    3f71d19f    ..q?    DCD    1064423839
        0x000117ac:    3ea74d25    %M.>    DCD    1051151653
        0x000117b0:    3f71f28c    ..q?    DCD    1064432268
        0x000117b4:    3ea68f12    ...>    DCD    1051102994
        0x000117b8:    3f721352    R.r?    DCD    1064440658
        0x000117bc:    3ea5d0e5    ...>    DCD    1051054309
        0x000117c0:    3f7233f4    .3r?    DCD    1064449012
        0x000117c4:    3ea5129f    ...>    DCD    1051005599
        0x000117c8:    3f725470    pTr?    DCD    1064457328
        0x000117cc:    3ea4543f    ?T.>    DCD    1050956863
        0x000117d0:    3f7274c7    .tr?    DCD    1064465607
        0x000117d4:    3ea395c5    ...>    DCD    1050908101
        0x000117d8:    3f7294f8    ..r?    DCD    1064473848
        0x000117dc:    3ea2d733    3..>    DCD    1050859315
        0x000117e0:    3f72b504    ..r?    DCD    1064482052
        0x000117e4:    3ea21887    ...>    DCD    1050810503
        0x000117e8:    3f72d4eb    ..r?    DCD    1064490219
        0x000117ec:    3ea159c2    .Y.>    DCD    1050761666
        0x000117f0:    3f72f4ac    ..r?    DCD    1064498348
        0x000117f4:    3ea09ae5    ...>    DCD    1050712805
        0x000117f8:    3f731447    G.s?    DCD    1064506439
        0x000117fc:    3e9fdbee    ...>    DCD    1050663918
        0x00011800:    3f7333be    .3s?    DCD    1064514494
        0x00011804:    3e9f1cdf    ...>    DCD    1050615007
        0x00011808:    3f73530e    .Ss?    DCD    1064522510
        0x0001180c:    3e9e5db8    .].>    DCD    1050566072
        0x00011810:    3f737239    9rs?    DCD    1064530489
        0x00011814:    3e9d9e78    x..>    DCD    1050517112
        0x00011818:    3f73913f    ?.s?    DCD    1064538431
        0x0001181c:    3e9cdf20     ..>    DCD    1050468128
        0x00011820:    3f73b01f    ..s?    DCD    1064546335
        0x00011824:    3e9c1faf    ...>    DCD    1050419119
        0x00011828:    3f73ced9    ..s?    DCD    1064554201
        0x0001182c:    3e9b6027    '`.>    DCD    1050370087
        0x00011830:    3f73ed6e    n.s?    DCD    1064562030
        0x00011834:    3e9aa086    ...>    DCD    1050321030
        0x00011838:    3f740bdd    ..t?    DCD    1064569821
        0x0001183c:    3e99e0ce    ...>    DCD    1050271950
        0x00011840:    3f742a27    '*t?    DCD    1064577575
        0x00011844:    3e9920fe    . .>    DCD    1050222846
        0x00011848:    3f74484b    KHt?    DCD    1064585291
        0x0001184c:    3e986116    .a.>    DCD    1050173718
        0x00011850:    3f746649    Ift?    DCD    1064592969
        0x00011854:    3e97a117    ...>    DCD    1050124567
        0x00011858:    3f748422    ".t?    DCD    1064600610
        0x0001185c:    3e96e100    ...>    DCD    1050075392
        0x00011860:    3f74a1d5    ..t?    DCD    1064608213
        0x00011864:    3e9620d2    . .>    DCD    1050026194
        0x00011868:    3f74bf62    b.t?    DCD    1064615778
        0x0001186c:    3e95608d    .`.>    DCD    1049976973
        0x00011870:    3f74dcc9    ..t?    DCD    1064623305
        0x00011874:    3e94a031    1..>    DCD    1049927729
        0x00011878:    3f74fa0b    ..t?    DCD    1064630795
        0x0001187c:    3e93dfbf    ...>    DCD    1049878463
        0x00011880:    3f751727    '.u?    DCD    1064638247
        0x00011884:    3e931f35    5..>    DCD    1049829173
        0x00011888:    3f75341d    .4u?    DCD    1064645661
        0x0001188c:    3e925e94    .^.>    DCD    1049779860
        0x00011890:    3f7550ed    .Pu?    DCD    1064653037
        0x00011894:    3e919ddd    ...>    DCD    1049730525
        0x00011898:    3f756d97    .mu?    DCD    1064660375
        0x0001189c:    3e90dd10    ...>    DCD    1049681168
        0x000118a0:    3f758a1c    ..u?    DCD    1064667676
        0x000118a4:    3e901c2c    ,..>    DCD    1049631788
        0x000118a8:    3f75a67b    {.u?    DCD    1064674939
        0x000118ac:    3e8f5b32    2[.>    DCD    1049582386
        0x000118b0:    3f75c2b3    ..u?    DCD    1064682163
        0x000118b4:    3e8e9a22    "..>    DCD    1049532962
        0x000118b8:    3f75dec6    ..u?    DCD    1064689350
        0x000118bc:    3e8dd8fc    ...>    DCD    1049483516
        0x000118c0:    3f75fab3    ..u?    DCD    1064696499
        0x000118c4:    3e8d17c0    ...>    DCD    1049434048
        0x000118c8:    3f76167a    z.v?    DCD    1064703610
        0x000118cc:    3e8c566e    nV.>    DCD    1049384558
        0x000118d0:    3f76321b    .2v?    DCD    1064710683
        0x000118d4:    3e8b9507    ...>    DCD    1049335047
        0x000118d8:    3f764d97    .Mv?    DCD    1064717719
        0x000118dc:    3e8ad38a    ...>    DCD    1049285514
        0x000118e0:    3f7668ec    .hv?    DCD    1064724716
        0x000118e4:    3e8a11f8    ...>    DCD    1049235960
        0x000118e8:    3f76841b    ..v?    DCD    1064731675
        0x000118ec:    3e895050    PP.>    DCD    1049186384
        0x000118f0:    3f769f24    $.v?    DCD    1064738596
        0x000118f4:    3e888e93    ...>    DCD    1049136787
        0x000118f8:    3f76ba07    ..v?    DCD    1064745479
        0x000118fc:    3e87ccc1    ...>    DCD    1049087169
        0x00011900:    3f76d4c4    ..v?    DCD    1064752324
        0x00011904:    3e870ada    ...>    DCD    1049037530
        0x00011908:    3f76ef5b    [.v?    DCD    1064759131
        0x0001190c:    3e8648df    .H.>    DCD    1048987871
        0x00011910:    3f7709cc    ..w?    DCD    1064765900
        0x00011914:    3e8586ce    ...>    DCD    1048938190
        0x00011918:    3f772417    .$w?    DCD    1064772631
        0x0001191c:    3e84c4aa    ...>    DCD    1048888490
        0x00011920:    3f773e3c    <>w?    DCD    1064779324
        0x00011924:    3e840270    p..>    DCD    1048838768
        0x00011928:    3f77583a    :Xw?    DCD    1064785978
        0x0001192c:    3e834022    "@.>    DCD    1048789026
        0x00011930:    3f777213    .rw?    DCD    1064792595
        0x00011934:    3e827dc0    .}.>    DCD    1048739264
        0x00011938:    3f778bc5    ..w?    DCD    1064799173
        0x0001193c:    3e81bb4a    J..>    DCD    1048689482
        0x00011940:    3f77a551    Q.w?    DCD    1064805713
        0x00011944:    3e80f8c0    ...>    DCD    1048639680
        0x00011948:    3f77beb7    ..w?    DCD    1064812215
        0x0001194c:    3e803622    "6.>    DCD    1048589858
        0x00011950:    3f77d7f7    ..w?    DCD    1064818679
        0x00011954:    3e7ee6e1    ..~>    DCD    1048504033
        0x00011958:    3f77f110    ..w?    DCD    1064825104
        0x0001195c:    3e7d6156    Va}>    DCD    1048404310
        0x00011960:    3f780a04    ..x?    DCD    1064831492
        0x00011964:    3e7bdba4    ..{>    DCD    1048304548
        0x00011968:    3f7822d1    ."x?    DCD    1064837841
        0x0001196c:    3e7a55cb    .Uz>    DCD    1048204747
        0x00011970:    3f783b77    w;x?    DCD    1064844151
        0x00011974:    3e78cfcc    ..x>    DCD    1048104908
        0x00011978:    3f7853f8    .Sx?    DCD    1064850424
        0x0001197c:    3e7749a6    .Iw>    DCD    1048005030
        0x00011980:    3f786c52    Rlx?    DCD    1064856658
        0x00011984:    3e75c35a    Z.u>    DCD    1047905114
        0x00011988:    3f788486    ..x?    DCD    1064862854
        0x0001198c:    3e743ce8    .<t>    DCD    1047805160
        0x00011990:    3f789c93    ..x?    DCD    1064869011
        0x00011994:    3e72b651    Q.r>    DCD    1047705169
        0x00011998:    3f78b47b    {.x?    DCD    1064875131
        0x0001199c:    3e712f94    ./q>    DCD    1047605140
        0x000119a0:    3f78cc3b    ;.x?    DCD    1064881211
        0x000119a4:    3e6fa8b2    ..o>    DCD    1047505074
        0x000119a8:    3f78e3d6    ..x?    DCD    1064887254
        0x000119ac:    3e6e21ab    .!n>    DCD    1047404971
        0x000119b0:    3f78fb4a    J.x?    DCD    1064893258
        0x000119b4:    3e6c9a7f    ..l>    DCD    1047304831
        0x000119b8:    3f791298    ..y?    DCD    1064899224
        0x000119bc:    3e6b132f    /.k>    DCD    1047204655
        0x000119c0:    3f7929bf    .)y?    DCD    1064905151
        0x000119c4:    3e698bba    ..i>    DCD    1047104442
        0x000119c8:    3f7940c0    .@y?    DCD    1064911040
        0x000119cc:    3e680422    ".h>    DCD    1047004194
        0x000119d0:    3f79579a    .Wy?    DCD    1064916890
        0x000119d4:    3e667c66    f|f>    DCD    1046903910
        0x000119d8:    3f796e4e    Nny?    DCD    1064922702
        0x000119dc:    3e64f486    ..d>    DCD    1046803590
        0x000119e0:    3f7984dc    ..y?    DCD    1064928476
        0x000119e4:    3e636c83    .lc>    DCD    1046703235
        0x000119e8:    3f799b43    C.y?    DCD    1064934211
        0x000119ec:    3e61e45c    \.a>    DCD    1046602844
        0x000119f0:    3f79b183    ..y?    DCD    1064939907
        0x000119f4:    3e605c13    .\`>    DCD    1046502419
        0x000119f8:    3f79c79d    ..y?    DCD    1064945565
        0x000119fc:    3e5ed3a8    ..^>    DCD    1046401960
        0x00011a00:    3f79dd91    ..y?    DCD    1064951185
        0x00011a04:    3e5d4b1a    .K]>    DCD    1046301466
        0x00011a08:    3f79f35e    ^.y?    DCD    1064956766
        0x00011a0c:    3e5bc26a    j.[>    DCD    1046200938
        0x00011a10:    3f7a0904    ..z?    DCD    1064962308
        0x00011a14:    3e5a3997    .9Z>    DCD    1046100375
        0x00011a18:    3f7a1e84    ..z?    DCD    1064967812
        0x00011a1c:    3e58b0a4    ..X>    DCD    1045999780
        0x00011a20:    3f7a33dd    .3z?    DCD    1064973277
        0x00011a24:    3e57278f    .'W>    DCD    1045899151
        0x00011a28:    3f7a4910    .Iz?    DCD    1064978704
        0x00011a2c:    3e559e58    X.U>    DCD    1045798488
        0x00011a30:    3f7a5e1c    .^z?    DCD    1064984092
        0x00011a34:    3e541501    ..T>    DCD    1045697793
        0x00011a38:    3f7a7302    .sz?    DCD    1064989442
        0x00011a3c:    3e528b89    ..R>    DCD    1045597065
        0x00011a40:    3f7a87c1    ..z?    DCD    1064994753
        0x00011a44:    3e5101f1    ..Q>    DCD    1045496305
        0x00011a48:    3f7a9c59    Y.z?    DCD    1065000025
        0x00011a4c:    3e4f7838    8xO>    DCD    1045395512
        0x00011a50:    3f7ab0cb    ..z?    DCD    1065005259
        0x00011a54:    3e4dee60    `.M>    DCD    1045294688
        0x00011a58:    3f7ac516    ..z?    DCD    1065010454
        0x00011a5c:    3e4c6467    gdL>    DCD    1045193831
        0x00011a60:    3f7ad93a    :.z?    DCD    1065015610
        0x00011a64:    3e4ada4f    O.J>    DCD    1045092943
        0x00011a68:    3f7aed37    7.z?    DCD    1065020727
        0x00011a6c:    3e495018    .PI>    DCD    1044992024
        0x00011a70:    3f7b010e    ..{?    DCD    1065025806
        0x00011a74:    3e47c5c2    ..G>    DCD    1044891074
        0x00011a78:    3f7b14be    ..{?    DCD    1065030846
        0x00011a7c:    3e463b4d    M;F>    DCD    1044790093
        0x00011a80:    3f7b2848    H({?    DCD    1065035848
        0x00011a84:    3e44b0b9    ..D>    DCD    1044689081
        0x00011a88:    3f7b3bab    .;{?    DCD    1065040811
        0x00011a8c:    3e432607    .&C>    DCD    1044588039
        0x00011a90:    3f7b4ee7    .N{?    DCD    1065045735
        0x00011a94:    3e419b37    7.A>    DCD    1044486967
        0x00011a98:    3f7b61fc    .a{?    DCD    1065050620
        0x00011a9c:    3e401049    I.@>    DCD    1044385865
        0x00011aa0:    3f7b74ea    .t{?    DCD    1065055466
        0x00011aa4:    3e3e853e    >.>>    DCD    1044284734
        0x00011aa8:    3f7b87b2    ..{?    DCD    1065060274
        0x00011aac:    3e3cfa15    ..<>    DCD    1044183573
        0x00011ab0:    3f7b9a53    S.{?    DCD    1065065043
        0x00011ab4:    3e3b6ecf    .n;>    DCD    1044082383
        0x00011ab8:    3f7baccd    ..{?    DCD    1065069773
        0x00011abc:    3e39e36c    l.9>    DCD    1043981164
        0x00011ac0:    3f7bbf20     .{?    DCD    1065074464
        0x00011ac4:    3e3857ec    .W8>    DCD    1043879916
        0x00011ac8:    3f7bd14d    M.{?    DCD    1065079117
        0x00011acc:    3e36cc50    P.6>    DCD    1043778640
        0x00011ad0:    3f7be353    S.{?    DCD    1065083731
        0x00011ad4:    3e354098    .@5>    DCD    1043677336
        0x00011ad8:    3f7bf531    1.{?    DCD    1065088305
        0x00011adc:    3e33b4c4    ..3>    DCD    1043576004
        0x00011ae0:    3f7c06e9    ..|?    DCD    1065092841
        0x00011ae4:    3e3228d4    .(2>    DCD    1043474644
        0x00011ae8:    3f7c187a    z.|?    DCD    1065097338
        0x00011aec:    3e309cc9    ..0>    DCD    1043373257
        0x00011af0:    3f7c29e5    .)|?    DCD    1065101797
        0x00011af4:    3e2f10a2    ../>    DCD    1043271842
        0x00011af8:    3f7c3b28    (;|?    DCD    1065106216
        0x00011afc:    3e2d8461    a.->    DCD    1043170401
        0x00011b00:    3f7c4c44    DL|?    DCD    1065110596
        0x00011b04:    3e2bf804    ..+>    DCD    1043068932
        0x00011b08:    3f7c5d3a    :]|?    DCD    1065114938
        0x00011b0c:    3e2a6b8d    .k*>    DCD    1042967437
        0x00011b10:    3f7c6e08    .n|?    DCD    1065119240
        0x00011b14:    3e28defc    ..(>    DCD    1042865916
        0x00011b18:    3f7c7eb0    .~|?    DCD    1065123504
        0x00011b1c:    3e275251    QR'>    DCD    1042764369
        0x00011b20:    3f7c8f31    1.|?    DCD    1065127729
        0x00011b24:    3e25c58c    ..%>    DCD    1042662796
        0x00011b28:    3f7c9f8a    ..|?    DCD    1065131914
        0x00011b2c:    3e2438ad    .8$>    DCD    1042561197
        0x00011b30:    3f7cafbd    ..|?    DCD    1065136061
        0x00011b34:    3e22abb6    ..">    DCD    1042459574
        0x00011b38:    3f7cbfc9    ..|?    DCD    1065140169
        0x00011b3c:    3e211ea5    ..!>    DCD    1042357925
        0x00011b40:    3f7ccfae    ..|?    DCD    1065144238
        0x00011b44:    3e1f917b    {..>    DCD    1042256251
        0x00011b48:    3f7cdf6c    l.|?    DCD    1065148268
        0x00011b4c:    3e1e0438    8..>    DCD    1042154552
        0x00011b50:    3f7cef03    ..|?    DCD    1065152259
        0x00011b54:    3e1c76de    .v.>    DCD    1042052830
        0x00011b58:    3f7cfe73    s.|?    DCD    1065156211
        0x00011b5c:    3e1ae96b    k..>    DCD    1041951083
        0x00011b60:    3f7d0dbc    ..}?    DCD    1065160124
        0x00011b64:    3e195be0    .[.>    DCD    1041849312
        0x00011b68:    3f7d1cdd    ..}?    DCD    1065163997
        0x00011b6c:    3e17ce3d    =..>    DCD    1041747517
        0x00011b70:    3f7d2bd8    .+}?    DCD    1065167832
        0x00011b74:    3e164083    .@.>    DCD    1041645699
        0x00011b78:    3f7d3aac    .:}?    DCD    1065171628
        0x00011b7c:    3e14b2b2    ...>    DCD    1041543858
        0x00011b80:    3f7d4959    YI}?    DCD    1065175385
        0x00011b84:    3e1324ca    .$.>    DCD    1041441994
        0x00011b88:    3f7d57de    .W}?    DCD    1065179102
        0x00011b8c:    3e1196cc    ...>    DCD    1041340108
        0x00011b90:    3f7d663d    =f}?    DCD    1065182781
        0x00011b94:    3e1008b7    ...>    DCD    1041238199
        0x00011b98:    3f7d7474    tt}?    DCD    1065186420
        0x00011b9c:    3e0e7a8b    .z.>    DCD    1041136267
        0x00011ba0:    3f7d8285    ..}?    DCD    1065190021
        0x00011ba4:    3e0cec4a    J..>    DCD    1041034314
        0x00011ba8:    3f7d906e    n.}?    DCD    1065193582
        0x00011bac:    3e0b5df3    .].>    DCD    1040932339
        0x00011bb0:    3f7d9e30    0.}?    DCD    1065197104
        0x00011bb4:    3e09cf86    ...>    DCD    1040830342
        0x00011bb8:    3f7dabcc    ..}?    DCD    1065200588
        0x00011bbc:    3e084105    .A.>    DCD    1040728325
        0x00011bc0:    3f7db940    @.}?    DCD    1065204032
        0x00011bc4:    3e06b26e    n..>    DCD    1040626286
        0x00011bc8:    3f7dc68c    ..}?    DCD    1065207436
        0x00011bcc:    3e0523c2    .#.>    DCD    1040524226
        0x00011bd0:    3f7dd3b2    ..}?    DCD    1065210802
        0x00011bd4:    3e039502    ...>    DCD    1040422146
        0x00011bd8:    3f7de0b1    ..}?    DCD    1065214129
        0x00011bdc:    3e02062e    ...>    DCD    1040320046
        0x00011be0:    3f7ded88    ..}?    DCD    1065217416
        0x00011be4:    3e007745    Ew.>    DCD    1040217925
        0x00011be8:    3f7dfa38    8.}?    DCD    1065220664
        0x00011bec:    3dfdd092    ...=    DCD    1040044178
        0x00011bf0:    3f7e06c2    ..~?    DCD    1065223874
        0x00011bf4:    3dfab273    s..=    DCD    1039839859
        0x00011bf8:    3f7e1324    $.~?    DCD    1065227044
        0x00011bfc:    3df7942c    ,..=    DCD    1039635500
        0x00011c00:    3f7e1f5e    ^.~?    DCD    1065230174
        0x00011c04:    3df475c0    .u.=    DCD    1039431104
        0x00011c08:    3f7e2b72    r+~?    DCD    1065233266
        0x00011c0c:    3df1572e    .W.=    DCD    1039226670
        0x00011c10:    3f7e375e    ^7~?    DCD    1065236318
        0x00011c14:    3dee3876    v8.=    DCD    1039022198
        0x00011c18:    3f7e4323    #C~?    DCD    1065239331
        0x00011c1c:    3deb199a    ...=    DCD    1038817690
        0x00011c20:    3f7e4ec1    .N~?    DCD    1065242305
        0x00011c24:    3de7fa9a    ...=    DCD    1038613146
        0x00011c28:    3f7e5a38    8Z~?    DCD    1065245240
        0x00011c2c:    3de4db76    v..=    DCD    1038408566
        0x00011c30:    3f7e6588    .e~?    DCD    1065248136
        0x00011c34:    3de1bc2e    ...=    DCD    1038203950
        0x00011c38:    3f7e70b0    .p~?    DCD    1065250992
        0x00011c3c:    3dde9cc4    ...=    DCD    1037999300
        0x00011c40:    3f7e7bb1    .{~?    DCD    1065253809
        0x00011c44:    3ddb7d37    7}.=    DCD    1037794615
        0x00011c48:    3f7e868b    ..~?    DCD    1065256587
        0x00011c4c:    3dd85d89    .].=    DCD    1037589897
        0x00011c50:    3f7e913d    =.~?    DCD    1065259325
        0x00011c54:    3dd53db9    .=.=    DCD    1037385145
        0x00011c58:    3f7e9bc9    ..~?    DCD    1065262025
        0x00011c5c:    3dd21dc8    ...=    DCD    1037180360
        0x00011c60:    3f7ea62d    -.~?    DCD    1065264685
        0x00011c64:    3dcefdb7    ...=    DCD    1036975543
        0x00011c68:    3f7eb069    i.~?    DCD    1065267305
        0x00011c6c:    3dcbdd86    ...=    DCD    1036770694
        0x00011c70:    3f7eba7f    ..~?    DCD    1065269887
        0x00011c74:    3dc8bd36    6..=    DCD    1036565814
        0x00011c78:    3f7ec46d    m.~?    DCD    1065272429
        0x00011c7c:    3dc59cc6    ...=    DCD    1036360902
        0x00011c80:    3f7ece34    4.~?    DCD    1065274932
        0x00011c84:    3dc27c39    9|.=    DCD    1036155961
        0x00011c88:    3f7ed7d4    ..~?    DCD    1065277396
        0x00011c8c:    3dbf5b8d    .[.=    DCD    1035950989
        0x00011c90:    3f7ee14c    L.~?    DCD    1065279820
        0x00011c94:    3dbc3ac3    .:.=    DCD    1035745987
        0x00011c98:    3f7eea9d    ..~?    DCD    1065282205
        0x00011c9c:    3db919dd    ...=    DCD    1035540957
        0x00011ca0:    3f7ef3c7    ..~?    DCD    1065284551
        0x00011ca4:    3db5f8da    ...=    DCD    1035335898
        0x00011ca8:    3f7efcc9    ..~?    DCD    1065286857
        0x00011cac:    3db2d7bb    ...=    DCD    1035130811
        0x00011cb0:    3f7f05a4    ...?    DCD    1065289124
        0x00011cb4:    3dafb680    ...=    DCD    1034925696
        0x00011cb8:    3f7f0e58    X..?    DCD    1065291352
        0x00011cbc:    3dac952b    +..=    DCD    1034720555
        0x00011cc0:    3f7f16e4    ...?    DCD    1065293540
        0x00011cc4:    3da973ba    .s.=    DCD    1034515386
        0x00011cc8:    3f7f1f49    I..?    DCD    1065295689
        0x00011ccc:    3da65230    0R.=    DCD    1034310192
        0x00011cd0:    3f7f2787    .'.?    DCD    1065297799
        0x00011cd4:    3da3308c    .0.=    DCD    1034104972
        0x00011cd8:    3f7f2f9d    ./.?    DCD    1065299869
        0x00011cdc:    3da00ecf    ...=    DCD    1033899727
        0x00011ce0:    3f7f378d    .7.?    DCD    1065301901
        0x00011ce4:    3d9cecf9    ...=    DCD    1033694457
        0x00011ce8:    3f7f3f54    T?.?    DCD    1065303892
        0x00011cec:    3d99cb0a    ...=    DCD    1033489162
        0x00011cf0:    3f7f46f4    .F.?    DCD    1065305844
        0x00011cf4:    3d96a905    ...=    DCD    1033283845
        0x00011cf8:    3f7f4e6d    mN.?    DCD    1065307757
        0x00011cfc:    3d9386e7    ...=    DCD    1033078503
        0x00011d00:    3f7f55bf    .U.?    DCD    1065309631
        0x00011d04:    3d9064b4    .d.=    DCD    1032873140
        0x00011d08:    3f7f5ce9    .\.?    DCD    1065311465
        0x00011d0c:    3d8d426a    jB.=    DCD    1032667754
        0x00011d10:    3f7f63ec    .c.?    DCD    1065313260
        0x00011d14:    3d8a200a    . .=    DCD    1032462346
        0x00011d18:    3f7f6ac7    .j.?    DCD    1065315015
        0x00011d1c:    3d86fd94    ...=    DCD    1032256916
        0x00011d20:    3f7f717b    {q.?    DCD    1065316731
        0x00011d24:    3d83db0a    ...=    DCD    1032051466
        0x00011d28:    3f7f7808    .x.?    DCD    1065318408
        0x00011d2c:    3d80b86c    l..=    DCD    1031845996
        0x00011d30:    3f7f7e6d    m~.?    DCD    1065320045
        0x00011d34:    3d7b2b74    t+{=    DCD    1031482228
        0x00011d38:    3f7f84ab    ...?    DCD    1065321643
        0x00011d3c:    3d74e5e9    ..t=    DCD    1031071209
        0x00011d40:    3f7f8ac2    ...?    DCD    1065323202
        0x00011d44:    3d6ea038    8.n=    DCD    1030660152
        0x00011d48:    3f7f90b1    ...?    DCD    1065324721
        0x00011d4c:    3d685a62    bZh=    DCD    1030249058
        0x00011d50:    3f7f9678    x..?    DCD    1065326200
        0x00011d54:    3d621468    h.b=    DCD    1029837928
        0x00011d58:    3f7f9c18    ...?    DCD    1065327640
        0x00011d5c:    3d5bce4c    L.[=    DCD    1029426764
        0x00011d60:    3f7fa191    ...?    DCD    1065329041
        0x00011d64:    3d55880e    ..U=    DCD    1029015566
        0x00011d68:    3f7fa6e3    ...?    DCD    1065330403
        0x00011d6c:    3d4f41af    .AO=    DCD    1028604335
        0x00011d70:    3f7fac0d    ...?    DCD    1065331725
        0x00011d74:    3d48fb2f    /.H=    DCD    1028193071
        0x00011d78:    3f7fb10f    ...?    DCD    1065333007
        0x00011d7c:    3d42b491    ..B=    DCD    1027781777
        0x00011d80:    3f7fb5ea    ...?    DCD    1065334250
        0x00011d84:    3d3c6dd5    .m<=    DCD    1027370453
        0x00011d88:    3f7fba9e    ...?    DCD    1065335454
        0x00011d8c:    3d3626fc    .&6=    DCD    1026959100
        0x00011d90:    3f7fbf2a    *..?    DCD    1065336618
        0x00011d94:    3d2fe007    ../=    DCD    1026547719
        0x00011d98:    3f7fc38f    ...?    DCD    1065337743
        0x00011d9c:    3d2998f6    ..)=    DCD    1026136310
        0x00011da0:    3f7fc7cc    ...?    DCD    1065338828
        0x00011da4:    3d2351cc    .Q#=    DCD    1025724876
        0x00011da8:    3f7fcbe2    ...?    DCD    1065339874
        0x00011dac:    3d1d0a88    ...=    DCD    1025313416
        0x00011db0:    3f7fcfd1    ...?    DCD    1065340881
        0x00011db4:    3d16c32c    ,..=    DCD    1024901932
        0x00011db8:    3f7fd398    ...?    DCD    1065341848
        0x00011dbc:    3d107bb8    .{.=    DCD    1024490424
        0x00011dc0:    3f7fd737    7..?    DCD    1065342775
        0x00011dc4:    3d0a342f    /4.=    DCD    1024078895
        0x00011dc8:    3f7fdaaf    ...?    DCD    1065343663
        0x00011dcc:    3d03ec90    ...=    DCD    1023667344
        0x00011dd0:    3f7fde00    ...?    DCD    1065344512
        0x00011dd4:    3cfb49b9    .I.<    DCD    1023101369
        0x00011dd8:    3f7fe129    )..?    DCD    1065345321
        0x00011ddc:    3ceeba2d    -..<    DCD    1022278189
        0x00011de0:    3f7fe42b    +..?    DCD    1065346091
        0x00011de4:    3ce22a7b    {*.<    DCD    1021454971
        0x00011de8:    3f7fe705    ...?    DCD    1065346821
        0x00011dec:    3cd59aa6    ...<    DCD    1020631718
        0x00011df0:    3f7fe9b8    ...?    DCD    1065347512
        0x00011df4:    3cc90ab0    ...<    DCD    1019808432
        0x00011df8:    3f7fec43    C..?    DCD    1065348163
        0x00011dfc:    3cbc7a9b    .z.<    DCD    1018985115
        0x00011e00:    3f7feea7    ...?    DCD    1065348775
        0x00011e04:    3cafea69    i..<    DCD    1018161769
        0x00011e08:    3f7ff0e3    ...?    DCD    1065349347
        0x00011e0c:    3ca35a1c    .Z.<    DCD    1017338396
        0x00011e10:    3f7ff2f8    ...?    DCD    1065349880
        0x00011e14:    3c96c9b6    ...<    DCD    1016514998
        0x00011e18:    3f7ff4e6    ...?    DCD    1065350374
        0x00011e1c:    3c8a3938    89.<    DCD    1015691576
        0x00011e20:    3f7ff6ac    ...?    DCD    1065350828
        0x00011e24:    3c7b514b    KQ{<    DCD    1014714699
        0x00011e28:    3f7ff84a    J..?    DCD    1065351242
        0x00011e2c:    3c623000    .0b<    DCD    1013067776
        0x00011e30:    3f7ff9c1    ...?    DCD    1065351617
        0x00011e34:    3c490e90    ..I<    DCD    1011420816
        0x00011e38:    3f7ffb11    ...?    DCD    1065351953
        0x00011e3c:    3c2fed02    ../<    DCD    1009773826
        0x00011e40:    3f7ffc39    9..?    DCD    1065352249
        0x00011e44:    3c16cb59    Y..<    DCD    1008126809
        0x00011e48:    3f7ffd39    9..?    DCD    1065352505
        0x00011e4c:    3bfb5330    0S.;    DCD    1006326576
        0x00011e50:    3f7ffe13    ...?    DCD    1065352723
        0x00011e54:    3bc90f89    ...;    DCD    1003032457
        0x00011e58:    3f7ffec4    ...?    DCD    1065352900
        0x00011e5c:    3b96cbc1    ...;    DCD    999738305
        0x00011e60:    3f7fff4e    N..?    DCD    1065353038
        0x00011e64:    3b490fc7    ..I;    DCD    994643911
        0x00011e68:    3f7fffb1    ...?    DCD    1065353137
        0x00011e6c:    3ac90fd4    ...:    DCD    986255316
        0x00011e70:    3f7fffec    ...?    DCD    1065353196
        0x00011e74:    00000000    ....    DCD    0
        0x00011e78:    3f800000    ...?    DCD    1065353216
        0x00011e7c:    bac90fd4    ....    DCD    3133738964
        0x00011e80:    3f7fffec    ...?    DCD    1065353196
        0x00011e84:    bb490fc7    ..I.    DCD    3142127559
        0x00011e88:    3f7fffb1    ...?    DCD    1065353137
        0x00011e8c:    bb96cbc1    ....    DCD    3147221953
        0x00011e90:    3f7fff4e    N..?    DCD    1065353038
        0x00011e94:    bbc90f89    ....    DCD    3150516105
        0x00011e98:    3f7ffec4    ...?    DCD    1065352900
        0x00011e9c:    bbfb5330    0S..    DCD    3153810224
        0x00011ea0:    3f7ffe13    ...?    DCD    1065352723
        0x00011ea4:    bc16cb59    Y...    DCD    3155610457
        0x00011ea8:    3f7ffd39    9..?    DCD    1065352505
        0x00011eac:    bc2fed02    ../.    DCD    3157257474
        0x00011eb0:    3f7ffc39    9..?    DCD    1065352249
        0x00011eb4:    bc490e90    ..I.    DCD    3158904464
        0x00011eb8:    3f7ffb11    ...?    DCD    1065351953
        0x00011ebc:    bc623000    .0b.    DCD    3160551424
        0x00011ec0:    3f7ff9c1    ...?    DCD    1065351617
        0x00011ec4:    bc7b514b    KQ{.    DCD    3162198347
        0x00011ec8:    3f7ff84a    J..?    DCD    1065351242
        0x00011ecc:    bc8a3938    89..    DCD    3163175224
        0x00011ed0:    3f7ff6ac    ...?    DCD    1065350828
        0x00011ed4:    bc96c9b6    ....    DCD    3163998646
        0x00011ed8:    3f7ff4e6    ...?    DCD    1065350374
        0x00011edc:    bca35a1c    .Z..    DCD    3164822044
        0x00011ee0:    3f7ff2f8    ...?    DCD    1065349880
        0x00011ee4:    bcafea69    i...    DCD    3165645417
        0x00011ee8:    3f7ff0e3    ...?    DCD    1065349347
        0x00011eec:    bcbc7a9b    .z..    DCD    3166468763
        0x00011ef0:    3f7feea7    ...?    DCD    1065348775
        0x00011ef4:    bcc90ab0    ....    DCD    3167292080
        0x00011ef8:    3f7fec43    C..?    DCD    1065348163
        0x00011efc:    bcd59aa6    ....    DCD    3168115366
        0x00011f00:    3f7fe9b8    ...?    DCD    1065347512
        0x00011f04:    bce22a7b    {*..    DCD    3168938619
        0x00011f08:    3f7fe705    ...?    DCD    1065346821
        0x00011f0c:    bceeba2d    -...    DCD    3169761837
        0x00011f10:    3f7fe42b    +..?    DCD    1065346091
        0x00011f14:    bcfb49b9    .I..    DCD    3170585017
        0x00011f18:    3f7fe129    )..?    DCD    1065345321
        0x00011f1c:    bd03ec90    ....    DCD    3171150992
        0x00011f20:    3f7fde00    ...?    DCD    1065344512
        0x00011f24:    bd0a342f    /4..    DCD    3171562543
        0x00011f28:    3f7fdaaf    ...?    DCD    1065343663
        0x00011f2c:    bd107bb8    .{..    DCD    3171974072
        0x00011f30:    3f7fd737    7..?    DCD    1065342775
        0x00011f34:    bd16c32c    ,...    DCD    3172385580
        0x00011f38:    3f7fd398    ...?    DCD    1065341848
        0x00011f3c:    bd1d0a88    ....    DCD    3172797064
        0x00011f40:    3f7fcfd1    ...?    DCD    1065340881
        0x00011f44:    bd2351cc    .Q#.    DCD    3173208524
        0x00011f48:    3f7fcbe2    ...?    DCD    1065339874
        0x00011f4c:    bd2998f6    ..).    DCD    3173619958
        0x00011f50:    3f7fc7cc    ...?    DCD    1065338828
        0x00011f54:    bd2fe007    ../.    DCD    3174031367
        0x00011f58:    3f7fc38f    ...?    DCD    1065337743
        0x00011f5c:    bd3626fc    .&6.    DCD    3174442748
        0x00011f60:    3f7fbf2a    *..?    DCD    1065336618
        0x00011f64:    bd3c6dd5    .m<.    DCD    3174854101
        0x00011f68:    3f7fba9e    ...?    DCD    1065335454
        0x00011f6c:    bd42b491    ..B.    DCD    3175265425
        0x00011f70:    3f7fb5ea    ...?    DCD    1065334250
        0x00011f74:    bd48fb2f    /.H.    DCD    3175676719
        0x00011f78:    3f7fb10f    ...?    DCD    1065333007
        0x00011f7c:    bd4f41af    .AO.    DCD    3176087983
        0x00011f80:    3f7fac0d    ...?    DCD    1065331725
        0x00011f84:    bd55880e    ..U.    DCD    3176499214
        0x00011f88:    3f7fa6e3    ...?    DCD    1065330403
        0x00011f8c:    bd5bce4c    L.[.    DCD    3176910412
        0x00011f90:    3f7fa191    ...?    DCD    1065329041
        0x00011f94:    bd621468    h.b.    DCD    3177321576
        0x00011f98:    3f7f9c18    ...?    DCD    1065327640
        0x00011f9c:    bd685a62    bZh.    DCD    3177732706
        0x00011fa0:    3f7f9678    x..?    DCD    1065326200
        0x00011fa4:    bd6ea038    8.n.    DCD    3178143800
        0x00011fa8:    3f7f90b1    ...?    DCD    1065324721
        0x00011fac:    bd74e5e9    ..t.    DCD    3178554857
        0x00011fb0:    3f7f8ac2    ...?    DCD    1065323202
        0x00011fb4:    bd7b2b74    t+{.    DCD    3178965876
        0x00011fb8:    3f7f84ab    ...?    DCD    1065321643
        0x00011fbc:    bd80b86c    l...    DCD    3179329644
        0x00011fc0:    3f7f7e6d    m~.?    DCD    1065320045
        0x00011fc4:    bd83db0a    ....    DCD    3179535114
        0x00011fc8:    3f7f7808    .x.?    DCD    1065318408
        0x00011fcc:    bd86fd94    ....    DCD    3179740564
        0x00011fd0:    3f7f717b    {q.?    DCD    1065316731
        0x00011fd4:    bd8a200a    . ..    DCD    3179945994
        0x00011fd8:    3f7f6ac7    .j.?    DCD    1065315015
        0x00011fdc:    bd8d426a    jB..    DCD    3180151402
        0x00011fe0:    3f7f63ec    .c.?    DCD    1065313260
        0x00011fe4:    bd9064b4    .d..    DCD    3180356788
        0x00011fe8:    3f7f5ce9    .\.?    DCD    1065311465
        0x00011fec:    bd9386e7    ....    DCD    3180562151
        0x00011ff0:    3f7f55bf    .U.?    DCD    1065309631
        0x00011ff4:    bd96a905    ....    DCD    3180767493
        0x00011ff8:    3f7f4e6d    mN.?    DCD    1065307757
        0x00011ffc:    bd99cb0a    ....    DCD    3180972810
        0x00012000:    3f7f46f4    .F.?    DCD    1065305844
        0x00012004:    bd9cecf9    ....    DCD    3181178105
        0x00012008:    3f7f3f54    T?.?    DCD    1065303892
        0x0001200c:    bda00ecf    ....    DCD    3181383375
        0x00012010:    3f7f378d    .7.?    DCD    1065301901
        0x00012014:    bda3308c    .0..    DCD    3181588620
        0x00012018:    3f7f2f9d    ./.?    DCD    1065299869
        0x0001201c:    bda65230    0R..    DCD    3181793840
        0x00012020:    3f7f2787    .'.?    DCD    1065297799
        0x00012024:    bda973ba    .s..    DCD    3181999034
        0x00012028:    3f7f1f49    I..?    DCD    1065295689
        0x0001202c:    bdac952b    +...    DCD    3182204203
        0x00012030:    3f7f16e4    ...?    DCD    1065293540
        0x00012034:    bdafb680    ....    DCD    3182409344
        0x00012038:    3f7f0e58    X..?    DCD    1065291352
        0x0001203c:    bdb2d7bb    ....    DCD    3182614459
        0x00012040:    3f7f05a4    ...?    DCD    1065289124
        0x00012044:    bdb5f8da    ....    DCD    3182819546
        0x00012048:    3f7efcc9    ..~?    DCD    1065286857
        0x0001204c:    bdb919dd    ....    DCD    3183024605
        0x00012050:    3f7ef3c7    ..~?    DCD    1065284551
        0x00012054:    bdbc3ac3    .:..    DCD    3183229635
        0x00012058:    3f7eea9d    ..~?    DCD    1065282205
        0x0001205c:    bdbf5b8d    .[..    DCD    3183434637
        0x00012060:    3f7ee14c    L.~?    DCD    1065279820
        0x00012064:    bdc27c39    9|..    DCD    3183639609
        0x00012068:    3f7ed7d4    ..~?    DCD    1065277396
        0x0001206c:    bdc59cc6    ....    DCD    3183844550
        0x00012070:    3f7ece34    4.~?    DCD    1065274932
        0x00012074:    bdc8bd36    6...    DCD    3184049462
        0x00012078:    3f7ec46d    m.~?    DCD    1065272429
        0x0001207c:    bdcbdd86    ....    DCD    3184254342
        0x00012080:    3f7eba7f    ..~?    DCD    1065269887
        0x00012084:    bdcefdb7    ....    DCD    3184459191
        0x00012088:    3f7eb069    i.~?    DCD    1065267305
        0x0001208c:    bdd21dc8    ....    DCD    3184664008
        0x00012090:    3f7ea62d    -.~?    DCD    1065264685
        0x00012094:    bdd53db9    .=..    DCD    3184868793
        0x00012098:    3f7e9bc9    ..~?    DCD    1065262025
        0x0001209c:    bdd85d89    .]..    DCD    3185073545
        0x000120a0:    3f7e913d    =.~?    DCD    1065259325
        0x000120a4:    bddb7d37    7}..    DCD    3185278263
        0x000120a8:    3f7e868b    ..~?    DCD    1065256587
        0x000120ac:    bdde9cc4    ....    DCD    3185482948
        0x000120b0:    3f7e7bb1    .{~?    DCD    1065253809
        0x000120b4:    bde1bc2e    ....    DCD    3185687598
        0x000120b8:    3f7e70b0    .p~?    DCD    1065250992
        0x000120bc:    bde4db76    v...    DCD    3185892214
        0x000120c0:    3f7e6588    .e~?    DCD    1065248136
        0x000120c4:    bde7fa9a    ....    DCD    3186096794
        0x000120c8:    3f7e5a38    8Z~?    DCD    1065245240
        0x000120cc:    bdeb199a    ....    DCD    3186301338
        0x000120d0:    3f7e4ec1    .N~?    DCD    1065242305
        0x000120d4:    bdee3876    v8..    DCD    3186505846
        0x000120d8:    3f7e4323    #C~?    DCD    1065239331
        0x000120dc:    bdf1572e    .W..    DCD    3186710318
        0x000120e0:    3f7e375e    ^7~?    DCD    1065236318
        0x000120e4:    bdf475c0    .u..    DCD    3186914752
        0x000120e8:    3f7e2b72    r+~?    DCD    1065233266
        0x000120ec:    bdf7942c    ,...    DCD    3187119148
        0x000120f0:    3f7e1f5e    ^.~?    DCD    1065230174
        0x000120f4:    bdfab273    s...    DCD    3187323507
        0x000120f8:    3f7e1324    $.~?    DCD    1065227044
        0x000120fc:    bdfdd092    ....    DCD    3187527826
        0x00012100:    3f7e06c2    ..~?    DCD    1065223874
        0x00012104:    be007745    Ew..    DCD    3187701573
        0x00012108:    3f7dfa38    8.}?    DCD    1065220664
        0x0001210c:    be02062e    ....    DCD    3187803694
        0x00012110:    3f7ded88    ..}?    DCD    1065217416
        0x00012114:    be039502    ....    DCD    3187905794
        0x00012118:    3f7de0b1    ..}?    DCD    1065214129
        0x0001211c:    be0523c2    .#..    DCD    3188007874
        0x00012120:    3f7dd3b2    ..}?    DCD    1065210802
        0x00012124:    be06b26e    n...    DCD    3188109934
        0x00012128:    3f7dc68c    ..}?    DCD    1065207436
        0x0001212c:    be084105    .A..    DCD    3188211973
        0x00012130:    3f7db940    @.}?    DCD    1065204032
        0x00012134:    be09cf86    ....    DCD    3188313990
        0x00012138:    3f7dabcc    ..}?    DCD    1065200588
        0x0001213c:    be0b5df3    .]..    DCD    3188415987
        0x00012140:    3f7d9e30    0.}?    DCD    1065197104
        0x00012144:    be0cec4a    J...    DCD    3188517962
        0x00012148:    3f7d906e    n.}?    DCD    1065193582
        0x0001214c:    be0e7a8b    .z..    DCD    3188619915
        0x00012150:    3f7d8285    ..}?    DCD    1065190021
        0x00012154:    be1008b7    ....    DCD    3188721847
        0x00012158:    3f7d7474    tt}?    DCD    1065186420
        0x0001215c:    be1196cc    ....    DCD    3188823756
        0x00012160:    3f7d663d    =f}?    DCD    1065182781
        0x00012164:    be1324ca    .$..    DCD    3188925642
        0x00012168:    3f7d57de    .W}?    DCD    1065179102
        0x0001216c:    be14b2b2    ....    DCD    3189027506
        0x00012170:    3f7d4959    YI}?    DCD    1065175385
        0x00012174:    be164083    .@..    DCD    3189129347
        0x00012178:    3f7d3aac    .:}?    DCD    1065171628
        0x0001217c:    be17ce3d    =...    DCD    3189231165
        0x00012180:    3f7d2bd8    .+}?    DCD    1065167832
        0x00012184:    be195be0    .[..    DCD    3189332960
        0x00012188:    3f7d1cdd    ..}?    DCD    1065163997
        0x0001218c:    be1ae96b    k...    DCD    3189434731
        0x00012190:    3f7d0dbc    ..}?    DCD    1065160124
        0x00012194:    be1c76de    .v..    DCD    3189536478
        0x00012198:    3f7cfe73    s.|?    DCD    1065156211
        0x0001219c:    be1e0438    8...    DCD    3189638200
        0x000121a0:    3f7cef03    ..|?    DCD    1065152259
        0x000121a4:    be1f917b    {...    DCD    3189739899
        0x000121a8:    3f7cdf6c    l.|?    DCD    1065148268
        0x000121ac:    be211ea5    ..!.    DCD    3189841573
        0x000121b0:    3f7ccfae    ..|?    DCD    1065144238
        0x000121b4:    be22abb6    ..".    DCD    3189943222
        0x000121b8:    3f7cbfc9    ..|?    DCD    1065140169
        0x000121bc:    be2438ad    .8$.    DCD    3190044845
        0x000121c0:    3f7cafbd    ..|?    DCD    1065136061
        0x000121c4:    be25c58c    ..%.    DCD    3190146444
        0x000121c8:    3f7c9f8a    ..|?    DCD    1065131914
        0x000121cc:    be275251    QR'.    DCD    3190248017
        0x000121d0:    3f7c8f31    1.|?    DCD    1065127729
        0x000121d4:    be28defc    ..(.    DCD    3190349564
        0x000121d8:    3f7c7eb0    .~|?    DCD    1065123504
        0x000121dc:    be2a6b8d    .k*.    DCD    3190451085
        0x000121e0:    3f7c6e08    .n|?    DCD    1065119240
        0x000121e4:    be2bf804    ..+.    DCD    3190552580
        0x000121e8:    3f7c5d3a    :]|?    DCD    1065114938
        0x000121ec:    be2d8461    a.-.    DCD    3190654049
        0x000121f0:    3f7c4c44    DL|?    DCD    1065110596
        0x000121f4:    be2f10a2    ../.    DCD    3190755490
        0x000121f8:    3f7c3b28    (;|?    DCD    1065106216
        0x000121fc:    be309cc9    ..0.    DCD    3190856905
        0x00012200:    3f7c29e5    .)|?    DCD    1065101797
        0x00012204:    be3228d4    .(2.    DCD    3190958292
        0x00012208:    3f7c187a    z.|?    DCD    1065097338
        0x0001220c:    be33b4c4    ..3.    DCD    3191059652
        0x00012210:    3f7c06e9    ..|?    DCD    1065092841
        0x00012214:    be354098    .@5.    DCD    3191160984
        0x00012218:    3f7bf531    1.{?    DCD    1065088305
        0x0001221c:    be36cc50    P.6.    DCD    3191262288
        0x00012220:    3f7be353    S.{?    DCD    1065083731
        0x00012224:    be3857ec    .W8.    DCD    3191363564
        0x00012228:    3f7bd14d    M.{?    DCD    1065079117
        0x0001222c:    be39e36c    l.9.    DCD    3191464812
        0x00012230:    3f7bbf20     .{?    DCD    1065074464
        0x00012234:    be3b6ecf    .n;.    DCD    3191566031
        0x00012238:    3f7baccd    ..{?    DCD    1065069773
        0x0001223c:    be3cfa15    ..<.    DCD    3191667221
        0x00012240:    3f7b9a53    S.{?    DCD    1065065043
        0x00012244:    be3e853e    >.>.    DCD    3191768382
        0x00012248:    3f7b87b2    ..{?    DCD    1065060274
        0x0001224c:    be401049    I.@.    DCD    3191869513
        0x00012250:    3f7b74ea    .t{?    DCD    1065055466
        0x00012254:    be419b37    7.A.    DCD    3191970615
        0x00012258:    3f7b61fc    .a{?    DCD    1065050620
        0x0001225c:    be432607    .&C.    DCD    3192071687
        0x00012260:    3f7b4ee7    .N{?    DCD    1065045735
        0x00012264:    be44b0b9    ..D.    DCD    3192172729
        0x00012268:    3f7b3bab    .;{?    DCD    1065040811
        0x0001226c:    be463b4d    M;F.    DCD    3192273741
        0x00012270:    3f7b2848    H({?    DCD    1065035848
        0x00012274:    be47c5c2    ..G.    DCD    3192374722
        0x00012278:    3f7b14be    ..{?    DCD    1065030846
        0x0001227c:    be495018    .PI.    DCD    3192475672
        0x00012280:    3f7b010e    ..{?    DCD    1065025806
        0x00012284:    be4ada4f    O.J.    DCD    3192576591
        0x00012288:    3f7aed37    7.z?    DCD    1065020727
        0x0001228c:    be4c6467    gdL.    DCD    3192677479
        0x00012290:    3f7ad93a    :.z?    DCD    1065015610
        0x00012294:    be4dee60    `.M.    DCD    3192778336
        0x00012298:    3f7ac516    ..z?    DCD    1065010454
        0x0001229c:    be4f7838    8xO.    DCD    3192879160
        0x000122a0:    3f7ab0cb    ..z?    DCD    1065005259
        0x000122a4:    be5101f1    ..Q.    DCD    3192979953
        0x000122a8:    3f7a9c59    Y.z?    DCD    1065000025
        0x000122ac:    be528b89    ..R.    DCD    3193080713
        0x000122b0:    3f7a87c1    ..z?    DCD    1064994753
        0x000122b4:    be541501    ..T.    DCD    3193181441
        0x000122b8:    3f7a7302    .sz?    DCD    1064989442
        0x000122bc:    be559e58    X.U.    DCD    3193282136
        0x000122c0:    3f7a5e1c    .^z?    DCD    1064984092
        0x000122c4:    be57278f    .'W.    DCD    3193382799
        0x000122c8:    3f7a4910    .Iz?    DCD    1064978704
        0x000122cc:    be58b0a4    ..X.    DCD    3193483428
        0x000122d0:    3f7a33dd    .3z?    DCD    1064973277
        0x000122d4:    be5a3997    .9Z.    DCD    3193584023
        0x000122d8:    3f7a1e84    ..z?    DCD    1064967812
        0x000122dc:    be5bc26a    j.[.    DCD    3193684586
        0x000122e0:    3f7a0904    ..z?    DCD    1064962308
        0x000122e4:    be5d4b1a    .K].    DCD    3193785114
        0x000122e8:    3f79f35e    ^.y?    DCD    1064956766
        0x000122ec:    be5ed3a8    ..^.    DCD    3193885608
        0x000122f0:    3f79dd91    ..y?    DCD    1064951185
        0x000122f4:    be605c13    .\`.    DCD    3193986067
        0x000122f8:    3f79c79d    ..y?    DCD    1064945565
        0x000122fc:    be61e45c    \.a.    DCD    3194086492
        0x00012300:    3f79b183    ..y?    DCD    1064939907
        0x00012304:    be636c83    .lc.    DCD    3194186883
        0x00012308:    3f799b43    C.y?    DCD    1064934211
        0x0001230c:    be64f486    ..d.    DCD    3194287238
        0x00012310:    3f7984dc    ..y?    DCD    1064928476
        0x00012314:    be667c66    f|f.    DCD    3194387558
        0x00012318:    3f796e4e    Nny?    DCD    1064922702
        0x0001231c:    be680422    ".h.    DCD    3194487842
        0x00012320:    3f79579a    .Wy?    DCD    1064916890
        0x00012324:    be698bba    ..i.    DCD    3194588090
        0x00012328:    3f7940c0    .@y?    DCD    1064911040
        0x0001232c:    be6b132f    /.k.    DCD    3194688303
        0x00012330:    3f7929bf    .)y?    DCD    1064905151
        0x00012334:    be6c9a7f    ..l.    DCD    3194788479
        0x00012338:    3f791298    ..y?    DCD    1064899224
        0x0001233c:    be6e21ab    .!n.    DCD    3194888619
        0x00012340:    3f78fb4a    J.x?    DCD    1064893258
        0x00012344:    be6fa8b2    ..o.    DCD    3194988722
        0x00012348:    3f78e3d6    ..x?    DCD    1064887254
        0x0001234c:    be712f94    ./q.    DCD    3195088788
        0x00012350:    3f78cc3b    ;.x?    DCD    1064881211
        0x00012354:    be72b651    Q.r.    DCD    3195188817
        0x00012358:    3f78b47b    {.x?    DCD    1064875131
        0x0001235c:    be743ce8    .<t.    DCD    3195288808
        0x00012360:    3f789c93    ..x?    DCD    1064869011
        0x00012364:    be75c35a    Z.u.    DCD    3195388762
        0x00012368:    3f788486    ..x?    DCD    1064862854
        0x0001236c:    be7749a6    .Iw.    DCD    3195488678
        0x00012370:    3f786c52    Rlx?    DCD    1064856658
        0x00012374:    be78cfcc    ..x.    DCD    3195588556
        0x00012378:    3f7853f8    .Sx?    DCD    1064850424
        0x0001237c:    be7a55cb    .Uz.    DCD    3195688395
        0x00012380:    3f783b77    w;x?    DCD    1064844151
        0x00012384:    be7bdba4    ..{.    DCD    3195788196
        0x00012388:    3f7822d1    ."x?    DCD    1064837841
        0x0001238c:    be7d6156    Va}.    DCD    3195887958
        0x00012390:    3f780a04    ..x?    DCD    1064831492
        0x00012394:    be7ee6e1    ..~.    DCD    3195987681
        0x00012398:    3f77f110    ..w?    DCD    1064825104
        0x0001239c:    be803622    "6..    DCD    3196073506
        0x000123a0:    3f77d7f7    ..w?    DCD    1064818679
        0x000123a4:    be80f8c0    ....    DCD    3196123328
        0x000123a8:    3f77beb7    ..w?    DCD    1064812215
        0x000123ac:    be81bb4a    J...    DCD    3196173130
        0x000123b0:    3f77a551    Q.w?    DCD    1064805713
        0x000123b4:    be827dc0    .}..    DCD    3196222912
        0x000123b8:    3f778bc5    ..w?    DCD    1064799173
        0x000123bc:    be834022    "@..    DCD    3196272674
        0x000123c0:    3f777213    .rw?    DCD    1064792595
        0x000123c4:    be840270    p...    DCD    3196322416
        0x000123c8:    3f77583a    :Xw?    DCD    1064785978
        0x000123cc:    be84c4aa    ....    DCD    3196372138
        0x000123d0:    3f773e3c    <>w?    DCD    1064779324
        0x000123d4:    be8586ce    ....    DCD    3196421838
        0x000123d8:    3f772417    .$w?    DCD    1064772631
        0x000123dc:    be8648df    .H..    DCD    3196471519
        0x000123e0:    3f7709cc    ..w?    DCD    1064765900
        0x000123e4:    be870ada    ....    DCD    3196521178
        0x000123e8:    3f76ef5b    [.v?    DCD    1064759131
        0x000123ec:    be87ccc1    ....    DCD    3196570817
        0x000123f0:    3f76d4c4    ..v?    DCD    1064752324
        0x000123f4:    be888e93    ....    DCD    3196620435
        0x000123f8:    3f76ba07    ..v?    DCD    1064745479
        0x000123fc:    be895050    PP..    DCD    3196670032
        0x00012400:    3f769f24    $.v?    DCD    1064738596
        0x00012404:    be8a11f8    ....    DCD    3196719608
        0x00012408:    3f76841b    ..v?    DCD    1064731675
        0x0001240c:    be8ad38a    ....    DCD    3196769162
        0x00012410:    3f7668ec    .hv?    DCD    1064724716
        0x00012414:    be8b9507    ....    DCD    3196818695
        0x00012418:    3f764d97    .Mv?    DCD    1064717719
        0x0001241c:    be8c566e    nV..    DCD    3196868206
        0x00012420:    3f76321b    .2v?    DCD    1064710683
        0x00012424:    be8d17c0    ....    DCD    3196917696
        0x00012428:    3f76167a    z.v?    DCD    1064703610
        0x0001242c:    be8dd8fc    ....    DCD    3196967164
        0x00012430:    3f75fab3    ..u?    DCD    1064696499
        0x00012434:    be8e9a22    "...    DCD    3197016610
        0x00012438:    3f75dec6    ..u?    DCD    1064689350
        0x0001243c:    be8f5b32    2[..    DCD    3197066034
        0x00012440:    3f75c2b3    ..u?    DCD    1064682163
        0x00012444:    be901c2c    ,...    DCD    3197115436
        0x00012448:    3f75a67b    {.u?    DCD    1064674939
        0x0001244c:    be90dd10    ....    DCD    3197164816
        0x00012450:    3f758a1c    ..u?    DCD    1064667676
        0x00012454:    be919ddd    ....    DCD    3197214173
        0x00012458:    3f756d97    .mu?    DCD    1064660375
        0x0001245c:    be925e94    .^..    DCD    3197263508
        0x00012460:    3f7550ed    .Pu?    DCD    1064653037
        0x00012464:    be931f35    5...    DCD    3197312821
        0x00012468:    3f75341d    .4u?    DCD    1064645661
        0x0001246c:    be93dfbf    ....    DCD    3197362111
        0x00012470:    3f751727    '.u?    DCD    1064638247
        0x00012474:    be94a031    1...    DCD    3197411377
        0x00012478:    3f74fa0b    ..t?    DCD    1064630795
        0x0001247c:    be95608d    .`..    DCD    3197460621
        0x00012480:    3f74dcc9    ..t?    DCD    1064623305
        0x00012484:    be9620d2    . ..    DCD    3197509842
        0x00012488:    3f74bf62    b.t?    DCD    1064615778
        0x0001248c:    be96e100    ....    DCD    3197559040
        0x00012490:    3f74a1d5    ..t?    DCD    1064608213
        0x00012494:    be97a117    ....    DCD    3197608215
        0x00012498:    3f748422    ".t?    DCD    1064600610
        0x0001249c:    be986116    .a..    DCD    3197657366
        0x000124a0:    3f746649    Ift?    DCD    1064592969
        0x000124a4:    be9920fe    . ..    DCD    3197706494
        0x000124a8:    3f74484b    KHt?    DCD    1064585291
        0x000124ac:    be99e0ce    ....    DCD    3197755598
        0x000124b0:    3f742a27    '*t?    DCD    1064577575
        0x000124b4:    be9aa086    ....    DCD    3197804678
        0x000124b8:    3f740bdd    ..t?    DCD    1064569821
        0x000124bc:    be9b6027    '`..    DCD    3197853735
        0x000124c0:    3f73ed6e    n.s?    DCD    1064562030
        0x000124c4:    be9c1faf    ....    DCD    3197902767
        0x000124c8:    3f73ced9    ..s?    DCD    1064554201
        0x000124cc:    be9cdf20     ...    DCD    3197951776
        0x000124d0:    3f73b01f    ..s?    DCD    1064546335
        0x000124d4:    be9d9e78    x...    DCD    3198000760
        0x000124d8:    3f73913f    ?.s?    DCD    1064538431
        0x000124dc:    be9e5db8    .]..    DCD    3198049720
        0x000124e0:    3f737239    9rs?    DCD    1064530489
        0x000124e4:    be9f1cdf    ....    DCD    3198098655
        0x000124e8:    3f73530e    .Ss?    DCD    1064522510
        0x000124ec:    be9fdbee    ....    DCD    3198147566
        0x000124f0:    3f7333be    .3s?    DCD    1064514494
        0x000124f4:    bea09ae5    ....    DCD    3198196453
        0x000124f8:    3f731447    G.s?    DCD    1064506439
        0x000124fc:    bea159c2    .Y..    DCD    3198245314
        0x00012500:    3f72f4ac    ..r?    DCD    1064498348
        0x00012504:    bea21887    ....    DCD    3198294151
        0x00012508:    3f72d4eb    ..r?    DCD    1064490219
        0x0001250c:    bea2d733    3...    DCD    3198342963
        0x00012510:    3f72b504    ..r?    DCD    1064482052
        0x00012514:    bea395c5    ....    DCD    3198391749
        0x00012518:    3f7294f8    ..r?    DCD    1064473848
        0x0001251c:    bea4543f    ?T..    DCD    3198440511
        0x00012520:    3f7274c7    .tr?    DCD    1064465607
        0x00012524:    bea5129f    ....    DCD    3198489247
        0x00012528:    3f725470    pTr?    DCD    1064457328
        0x0001252c:    bea5d0e5    ....    DCD    3198537957
        0x00012530:    3f7233f4    .3r?    DCD    1064449012
        0x00012534:    bea68f12    ....    DCD    3198586642
        0x00012538:    3f721352    R.r?    DCD    1064440658
        0x0001253c:    bea74d25    %M..    DCD    3198635301
        0x00012540:    3f71f28c    ..q?    DCD    1064432268
        0x00012544:    bea80b1f    ....    DCD    3198683935
        0x00012548:    3f71d19f    ..q?    DCD    1064423839
        0x0001254c:    bea8c8fe    ....    DCD    3198732542
        0x00012550:    3f71b08e    ..q?    DCD    1064415374
        0x00012554:    bea986c4    ....    DCD    3198781124
        0x00012558:    3f718f57    W.q?    DCD    1064406871
        0x0001255c:    beaa446f    oD..    DCD    3198829679
        0x00012560:    3f716dfb    .mq?    DCD    1064398331
        0x00012564:    beab0201    ....    DCD    3198878209
        0x00012568:    3f714c7a    zLq?    DCD    1064389754
        0x0001256c:    beabbf77    w...    DCD    3198926711
        0x00012570:    3f712ad4    .*q?    DCD    1064381140
        0x00012574:    beac7cd4    .|..    DCD    3198975188
        0x00012578:    3f710908    ..q?    DCD    1064372488
        0x0001257c:    bead3a15    .:..    DCD    3199023637
        0x00012580:    3f70e717    ..p?    DCD    1064363799
        0x00012584:    beadf73c    <...    DCD    3199072060
        0x00012588:    3f70c502    ..p?    DCD    1064355074
        0x0001258c:    beaeb449    I...    DCD    3199120457
        0x00012590:    3f70a2c6    ..p?    DCD    1064346310
        0x00012594:    beaf713a    :q..    DCD    3199168826
        0x00012598:    3f708066    f.p?    DCD    1064337510
        0x0001259c:    beb02e10    ....    DCD    3199217168
        0x000125a0:    3f705de1    .]p?    DCD    1064328673
        0x000125a4:    beb0eacb    ....    DCD    3199265483
        0x000125a8:    3f703b37    7;p?    DCD    1064319799
        0x000125ac:    beb1a76b    k...    DCD    3199313771
        0x000125b0:    3f701867    g.p?    DCD    1064310887
        0x000125b4:    beb263ef    .c..    DCD    3199362031
        0x000125b8:    3f6ff573    s.o?    DCD    1064301939
        0x000125bc:    beb32058    X ..    DCD    3199410264
        0x000125c0:    3f6fd25a    Z.o?    DCD    1064292954
        0x000125c4:    beb3dca5    ....    DCD    3199458469
        0x000125c8:    3f6faf1b    ..o?    DCD    1064283931
        0x000125cc:    beb498d6    ....    DCD    3199506646
        0x000125d0:    3f6f8bb8    ..o?    DCD    1064274872
        0x000125d4:    beb554ec    .T..    DCD    3199554796
        0x000125d8:    3f6f6830    0ho?    DCD    1064265776
        0x000125dc:    beb610e6    ....    DCD    3199602918
        0x000125e0:    3f6f4483    .Do?    DCD    1064256643
        0x000125e4:    beb6ccc3    ....    DCD    3199651011
        0x000125e8:    3f6f20b0    . o?    DCD    1064247472
        0x000125ec:    beb78884    ....    DCD    3199699076
        0x000125f0:    3f6efcba    ..n?    DCD    1064238266
        0x000125f4:    beb8442a    *D..    DCD    3199747114
        0x000125f8:    3f6ed89e    ..n?    DCD    1064229022
        0x000125fc:    beb8ffb2    ....    DCD    3199795122
        0x00012600:    3f6eb45d    ].n?    DCD    1064219741
        0x00012604:    beb9bb1e    ....    DCD    3199843102
        0x00012608:    3f6e8ff8    ..n?    DCD    1064210424
        0x0001260c:    beba766e    nv..    DCD    3199891054
        0x00012610:    3f6e6b6d    mkn?    DCD    1064201069
        0x00012614:    bebb31a0    .1..    DCD    3199938976
        0x00012618:    3f6e46be    .Fn?    DCD    1064191678
        0x0001261c:    bebbecb6    ....    DCD    3199986870
        0x00012620:    3f6e21eb    .!n?    DCD    1064182251
        0x00012624:    bebca7af    ....    DCD    3200034735
        0x00012628:    3f6dfcf2    ..m?    DCD    1064172786
        0x0001262c:    bebd628b    .b..    DCD    3200082571
        0x00012630:    3f6dd7d5    ..m?    DCD    1064163285
        0x00012634:    bebe1d4a    J...    DCD    3200130378
        0x00012638:    3f6db293    ..m?    DCD    1064153747
        0x0001263c:    bebed7eb    ....    DCD    3200178155
        0x00012640:    3f6d8d2d    -.m?    DCD    1064144173
        0x00012644:    bebf926f    o...    DCD    3200225903
        0x00012648:    3f6d67a1    .gm?    DCD    1064134561
        0x0001264c:    bec04cd5    .L..    DCD    3200273621
        0x00012650:    3f6d41f2    .Am?    DCD    1064124914
        0x00012654:    bec1071e    ....    DCD    3200321310
        0x00012658:    3f6d1c1d    ..m?    DCD    1064115229
        0x0001265c:    bec1c148    H...    DCD    3200368968
        0x00012660:    3f6cf624    $.l?    DCD    1064105508
        0x00012664:    bec27b55    U{..    DCD    3200416597
        0x00012668:    3f6cd007    ..l?    DCD    1064095751
        0x0001266c:    bec33544    D5..    DCD    3200464196
        0x00012670:    3f6ca9c5    ..l?    DCD    1064085957
        0x00012674:    bec3ef15    ....    DCD    3200511765
        0x00012678:    3f6c835e    ^.l?    DCD    1064076126
        0x0001267c:    bec4a8c8    ....    DCD    3200559304
        0x00012680:    3f6c5cd4    .\l?    DCD    1064066260
        0x00012684:    bec5625c    \b..    DCD    3200606812
        0x00012688:    3f6c3624    $6l?    DCD    1064056356
        0x0001268c:    bec61bd2    ....    DCD    3200654290
        0x00012690:    3f6c0f50    P.l?    DCD    1064046416
        0x00012694:    bec6d529    )...    DCD    3200701737
        0x00012698:    3f6be858    X.k?    DCD    1064036440
        0x0001269c:    bec78e62    b...    DCD    3200749154
        0x000126a0:    3f6bc13b    ;.k?    DCD    1064026427
        0x000126a4:    bec8477c    |G..    DCD    3200796540
        0x000126a8:    3f6b99fb    ..k?    DCD    1064016379
        0x000126ac:    bec90077    w...    DCD    3200843895
        0x000126b0:    3f6b7295    .rk?    DCD    1064006293
        0x000126b4:    bec9b953    S...    DCD    3200891219
        0x000126b8:    3f6b4b0c    .Kk?    DCD    1063996172
        0x000126bc:    beca7210    .r..    DCD    3200938512
        0x000126c0:    3f6b235e    ^#k?    DCD    1063986014
        0x000126c4:    becb2aae    .*..    DCD    3200985774
        0x000126c8:    3f6afb8c    ..j?    DCD    1063975820
        0x000126cc:    becbe32c    ,...    DCD    3201033004
        0x000126d0:    3f6ad395    ..j?    DCD    1063965589
        0x000126d4:    becc9b8b    ....    DCD    3201080203
        0x000126d8:    3f6aab7b    {.j?    DCD    1063955323
        0x000126dc:    becd53ca    .S..    DCD    3201127370
        0x000126e0:    3f6a833c    <.j?    DCD    1063945020
        0x000126e4:    bece0bea    ....    DCD    3201174506
        0x000126e8:    3f6a5ad9    .Zj?    DCD    1063934681
        0x000126ec:    becec3ea    ....    DCD    3201221610
        0x000126f0:    3f6a3252    R2j?    DCD    1063924306
        0x000126f4:    becf7bca    .{..    DCD    3201268682
        0x000126f8:    3f6a09a7    ..j?    DCD    1063913895
        0x000126fc:    bed0338a    .3..    DCD    3201315722
        0x00012700:    3f69e0d7    ..i?    DCD    1063903447
        0x00012704:    bed0eb2a    *...    DCD    3201362730
        0x00012708:    3f69b7e4    ..i?    DCD    1063892964
        0x0001270c:    bed1a2aa    ....    DCD    3201409706
        0x00012710:    3f698ecc    ..i?    DCD    1063882444
        0x00012714:    bed25a09    .Z..    DCD    3201456649
        0x00012718:    3f696591    .ei?    DCD    1063871889
        0x0001271c:    bed31148    H...    DCD    3201503560
        0x00012720:    3f693c32    2<i?    DCD    1063861298
        0x00012724:    bed3c867    g...    DCD    3201550439
        0x00012728:    3f6912ae    ..i?    DCD    1063850670
        0x0001272c:    bed47f64    d...    DCD    3201597284
        0x00012730:    3f68e907    ..h?    DCD    1063840007
        0x00012734:    bed53641    A6..    DCD    3201644097
        0x00012738:    3f68bf3c    <.h?    DCD    1063829308
        0x0001273c:    bed5ecfd    ....    DCD    3201690877
        0x00012740:    3f68954c    L.h?    DCD    1063818572
        0x00012744:    bed6a399    ....    DCD    3201737625
        0x00012748:    3f686b39    9kh?    DCD    1063807801
        0x0001274c:    bed75a13    .Z..    DCD    3201784339
        0x00012750:    3f684103    .Ah?    DCD    1063796995
        0x00012754:    bed8106b    k...    DCD    3201831019
        0x00012758:    3f6816a8    ..h?    DCD    1063786152
        0x0001275c:    bed8c6a3    ....    DCD    3201877667
        0x00012760:    3f67ec2a    *.g?    DCD    1063775274
        0x00012764:    bed97cb9    .|..    DCD    3201924281
        0x00012768:    3f67c187    ..g?    DCD    1063764359
        0x0001276c:    beda32ad    .2..    DCD    3201970861
        0x00012770:    3f6796c1    ..g?    DCD    1063753409
        0x00012774:    bedae880    ....    DCD    3202017408
        0x00012778:    3f676bd8    .kg?    DCD    1063742424
        0x0001277c:    bedb9e31    1...    DCD    3202063921
        0x00012780:    3f6740ca    .@g?    DCD    1063731402
        0x00012784:    bedc53c1    .S..    DCD    3202110401
        0x00012788:    3f671599    ..g?    DCD    1063720345
        0x0001278c:    bedd092e    ....    DCD    3202156846
        0x00012790:    3f66ea45    E.f?    DCD    1063709253
        0x00012794:    beddbe79    y...    DCD    3202203257
        0x00012798:    3f66becc    ..f?    DCD    1063698124
        0x0001279c:    bede73a2    .s..    DCD    3202249634
        0x000127a0:    3f669330    0.f?    DCD    1063686960
        0x000127a4:    bedf28a9    .(..    DCD    3202295977
        0x000127a8:    3f666771    qgf?    DCD    1063675761
        0x000127ac:    bedfdd8d    ....    DCD    3202342285
        0x000127b0:    3f663b8e    .;f?    DCD    1063664526
        0x000127b4:    bee0924f    O...    DCD    3202388559
        0x000127b8:    3f660f88    ..f?    DCD    1063653256
        0x000127bc:    bee146ee    .F..    DCD    3202434798
        0x000127c0:    3f65e35e    ^.e?    DCD    1063641950
        0x000127c4:    bee1fb6a    j...    DCD    3202481002
        0x000127c8:    3f65b710    ..e?    DCD    1063630608
        0x000127cc:    bee2afc4    ....    DCD    3202527172
        0x000127d0:    3f658aa0    ..e?    DCD    1063619232
        0x000127d4:    bee363fa    .c..    DCD    3202573306
        0x000127d8:    3f655e0b    .^e?    DCD    1063607819
        0x000127dc:    bee4180e    ....    DCD    3202619406
        0x000127e0:    3f653154    T1e?    DCD    1063596372
        0x000127e4:    bee4cbfe    ....    DCD    3202665470
        0x000127e8:    3f650479    y.e?    DCD    1063584889
        0x000127ec:    bee57fcb    ....    DCD    3202711499
        0x000127f0:    3f64d77b    {.d?    DCD    1063573371
        0x000127f4:    bee63375    u3..    DCD    3202757493
        0x000127f8:    3f64aa59    Y.d?    DCD    1063561817
        0x000127fc:    bee6e6fb    ....    DCD    3202803451
        0x00012800:    3f647d14    .}d?    DCD    1063550228
        0x00012804:    bee79a5d    ]...    DCD    3202849373
        0x00012808:    3f644fac    .Od?    DCD    1063538604
        0x0001280c:    bee84d9c    .M..    DCD    3202895260
        0x00012810:    3f642221    !"d?    DCD    1063526945
        0x00012814:    bee900b7    ....    DCD    3202941111
        0x00012818:    3f63f473    s.c?    DCD    1063515251
        0x0001281c:    bee9b3ae    ....    DCD    3202986926
        0x00012820:    3f63c6a1    ..c?    DCD    1063503521
        0x00012824:    beea6681    .f..    DCD    3203032705
        0x00012828:    3f6398ac    ..c?    DCD    1063491756
        0x0001282c:    beeb1930    0...    DCD    3203078448
        0x00012830:    3f636a95    .jc?    DCD    1063479957
        0x00012834:    beebcbbb    ....    DCD    3203124155
        0x00012838:    3f633c5a    Z<c?    DCD    1063468122
        0x0001283c:    beec7e21    !~..    DCD    3203169825
        0x00012840:    3f630dfc    ..c?    DCD    1063456252
        0x00012844:    beed3063    c0..    DCD    3203215459
        0x00012848:    3f62df7b    {.b?    DCD    1063444347
        0x0001284c:    beede280    ....    DCD    3203261056
        0x00012850:    3f62b0d7    ..b?    DCD    1063432407
        0x00012854:    beee9479    y...    DCD    3203306617
        0x00012858:    3f628210    ..b?    DCD    1063420432
        0x0001285c:    beef464c    LF..    DCD    3203352140
        0x00012860:    3f625326    &Sb?    DCD    1063408422
        0x00012864:    beeff7fb    ....    DCD    3203397627
        0x00012868:    3f62241a    .$b?    DCD    1063396378
        0x0001286c:    bef0a985    ....    DCD    3203443077
        0x00012870:    3f61f4ea    ..a?    DCD    1063384298
        0x00012874:    bef15aea    .Z..    DCD    3203488490
        0x00012878:    3f61c598    ..a?    DCD    1063372184
        0x0001287c:    bef20c29    )...    DCD    3203533865
        0x00012880:    3f619622    ".a?    DCD    1063360034
        0x00012884:    bef2bd43    C...    DCD    3203579203
        0x00012888:    3f61668a    .fa?    DCD    1063347850
        0x0001288c:    bef36e38    8n..    DCD    3203624504
        0x00012890:    3f6136d0    .6a?    DCD    1063335632
        0x00012894:    bef41f07    ....    DCD    3203669767
        0x00012898:    3f6106f2    ..a?    DCD    1063323378
        0x0001289c:    bef4cfb1    ....    DCD    3203714993
        0x000128a0:    3f60d6f2    ..`?    DCD    1063311090
        0x000128a4:    bef58035    5...    DCD    3203760181
        0x000128a8:    3f60a6cf    ..`?    DCD    1063298767
        0x000128ac:    bef63093    .0..    DCD    3203805331
        0x000128b0:    3f607689    .v`?    DCD    1063286409
        0x000128b4:    bef6e0cb    ....    DCD    3203850443
        0x000128b8:    3f604621    !F`?    DCD    1063274017
        0x000128bc:    bef790dc    ....    DCD    3203895516
        0x000128c0:    3f601596    ..`?    DCD    1063261590
        0x000128c4:    bef840c8    .@..    DCD    3203940552
        0x000128c8:    3f5fe4e9    .._?    DCD    1063249129
        0x000128cc:    bef8f08e    ....    DCD    3203985550
        0x000128d0:    3f5fb419    .._?    DCD    1063236633
        0x000128d4:    bef9a02d    -...    DCD    3204030509
        0x000128d8:    3f5f8327    '._?    DCD    1063224103
        0x000128dc:    befa4fa5    .O..    DCD    3204075429
        0x000128e0:    3f5f5212    .R_?    DCD    1063211538
        0x000128e4:    befafef7    ....    DCD    3204120311
        0x000128e8:    3f5f20db    . _?    DCD    1063198939
        0x000128ec:    befbae22    "...    DCD    3204165154
        0x000128f0:    3f5eef81    ..^?    DCD    1063186305
        0x000128f4:    befc5d27    ']..    DCD    3204209959
        0x000128f8:    3f5ebe05    ..^?    DCD    1063173637
        0x000128fc:    befd0c04    ....    DCD    3204254724
        0x00012900:    3f5e8c67    g.^?    DCD    1063160935
        0x00012904:    befdbabb    ....    DCD    3204299451
        0x00012908:    3f5e5aa6    .Z^?    DCD    1063148198
        0x0001290c:    befe694a    Ji..    DCD    3204344138
        0x00012910:    3f5e28c3    .(^?    DCD    1063135427
        0x00012914:    beff17b2    ....    DCD    3204388786
        0x00012918:    3f5df6be    ..]?    DCD    1063122622
        0x0001291c:    beffc5f3    ....    DCD    3204433395
        0x00012920:    3f5dc497    ..]?    DCD    1063109783
        0x00012924:    bf003a06    .:..    DCD    3204463110
        0x00012928:    3f5d924d    M.]?    DCD    1063096909
        0x0001292c:    bf0090ff    ....    DCD    3204485375
        0x00012930:    3f5d5fe1    ._]?    DCD    1063084001
        0x00012934:    bf00e7e4    ....    DCD    3204507620
        0x00012938:    3f5d2d53    S-]?    DCD    1063071059
        0x0001293c:    bf013eb5    .>..    DCD    3204529845
        0x00012940:    3f5cfaa3    ..\?    DCD    1063058083
        0x00012944:    bf019573    s...    DCD    3204552051
        0x00012948:    3f5cc7d1    ..\?    DCD    1063045073
        0x0001294c:    bf01ec1c    ....    DCD    3204574236
        0x00012950:    3f5c94dd    ..\?    DCD    1063032029
        0x00012954:    bf0242b1    .B..    DCD    3204596401
        0x00012958:    3f5c61c7    .a\?    DCD    1063018951
        0x0001295c:    bf029932    2...    DCD    3204618546
        0x00012960:    3f5c2e8e    ..\?    DCD    1063005838
        0x00012964:    bf02ef9f    ....    DCD    3204640671
        0x00012968:    3f5bfb34    4.[?    DCD    1062992692
        0x0001296c:    bf0345f8    .E..    DCD    3204662776
        0x00012970:    3f5bc7b8    ..[?    DCD    1062979512
        0x00012974:    bf039c3d    =...    DCD    3204684861
        0x00012978:    3f5b941a    ..[?    DCD    1062966298
        0x0001297c:    bf03f26d    m...    DCD    3204706925
        0x00012980:    3f5b605a    Z`[?    DCD    1062953050
        0x00012984:    bf044889    .H..    DCD    3204728969
        0x00012988:    3f5b2c79    y,[?    DCD    1062939769
        0x0001298c:    bf049e91    ....    DCD    3204750993
        0x00012990:    3f5af875    u.Z?    DCD    1062926453
        0x00012994:    bf04f484    ....    DCD    3204772996
        0x00012998:    3f5ac450    P.Z?    DCD    1062913104
        0x0001299c:    bf054a62    bJ..    DCD    3204794978
        0x000129a0:    3f5a9009    ..Z?    DCD    1062899721
        0x000129a4:    bf05a02c    ,...    DCD    3204816940
        0x000129a8:    3f5a5ba0    .[Z?    DCD    1062886304
        0x000129ac:    bf05f5e2    ....    DCD    3204838882
        0x000129b0:    3f5a2716    .'Z?    DCD    1062872854
        0x000129b4:    bf064b82    .K..    DCD    3204860802
        0x000129b8:    3f59f26a    j.Y?    DCD    1062859370
        0x000129bc:    bf06a10e    ....    DCD    3204882702
        0x000129c0:    3f59bd9c    ..Y?    DCD    1062845852
        0x000129c4:    bf06f686    ....    DCD    3204904582
        0x000129c8:    3f5988ad    ..Y?    DCD    1062832301
        0x000129cc:    bf074be8    .K..    DCD    3204926440
        0x000129d0:    3f59539c    .SY?    DCD    1062818716
        0x000129d4:    bf07a136    6...    DCD    3204948278
        0x000129d8:    3f591e6a    j.Y?    DCD    1062805098
        0x000129dc:    bf07f66f    o...    DCD    3204970095
        0x000129e0:    3f58e917    ..X?    DCD    1062791447
        0x000129e4:    bf084b92    .K..    DCD    3204991890
        0x000129e8:    3f58b3a1    ..X?    DCD    1062777761
        0x000129ec:    bf08a0a1    ....    DCD    3205013665
        0x000129f0:    3f587e0b    .~X?    DCD    1062764043
        0x000129f4:    bf08f59b    ....    DCD    3205035419
        0x000129f8:    3f584853    SHX?    DCD    1062750291
        0x000129fc:    bf094a7f    .J..    DCD    3205057151
        0x00012a00:    3f581279    y.X?    DCD    1062736505
        0x00012a04:    bf099f4e    N...    DCD    3205078862
        0x00012a08:    3f57dc7f    ..W?    DCD    1062722687
        0x00012a0c:    bf09f409    ....    DCD    3205100553
        0x00012a10:    3f57a663    c.W?    DCD    1062708835
        0x00012a14:    bf0a48ad    .H..    DCD    3205122221
        0x00012a18:    3f577026    &pW?    DCD    1062694950
        0x00012a1c:    bf0a9d3d    =...    DCD    3205143869
        0x00012a20:    3f5739c7    .9W?    DCD    1062681031
        0x00012a24:    bf0af1b7    ....    DCD    3205165495
        0x00012a28:    3f570348    H.W?    DCD    1062667080
        0x00012a2c:    bf0b461c    .F..    DCD    3205187100
        0x00012a30:    3f56cca7    ..V?    DCD    1062653095
        0x00012a34:    bf0b9a6b    k...    DCD    3205208683
        0x00012a38:    3f5695e5    ..V?    DCD    1062639077
        0x00012a3c:    bf0beea5    ....    DCD    3205230245
        0x00012a40:    3f565f02    ._V?    DCD    1062625026
        0x00012a44:    bf0c42c9    .B..    DCD    3205251785
        0x00012a48:    3f5627fe    .'V?    DCD    1062610942
        0x00012a4c:    bf0c96d7    ....    DCD    3205273303
        0x00012a50:    3f55f0d9    ..U?    DCD    1062596825
        0x00012a54:    bf0cead0    ....    DCD    3205294800
        0x00012a58:    3f55b993    ..U?    DCD    1062582675
        0x00012a5c:    bf0d3eb3    .>..    DCD    3205316275
        0x00012a60:    3f55822c    ,.U?    DCD    1062568492
        0x00012a64:    bf0d9281    ....    DCD    3205337729
        0x00012a68:    3f554aa4    .JU?    DCD    1062554276
        0x00012a6c:    bf0de638    8...    DCD    3205359160
        0x00012a70:    3f5512fb    ..U?    DCD    1062540027
        0x00012a74:    bf0e39da    .9..    DCD    3205380570
        0x00012a78:    3f54db31    1.T?    DCD    1062525745
        0x00012a7c:    bf0e8d65    e...    DCD    3205401957
        0x00012a80:    3f54a347    G.T?    DCD    1062511431
        0x00012a84:    bf0ee0db    ....    DCD    3205423323
        0x00012a88:    3f546b3b    ;kT?    DCD    1062497083
        0x00012a8c:    bf0f343b    ;4..    DCD    3205444667
        0x00012a90:    3f54330f    .3T?    DCD    1062482703
        0x00012a94:    bf0f8784    ....    DCD    3205465988
        0x00012a98:    3f53fac3    ..S?    DCD    1062468291
        0x00012a9c:    bf0fdab8    ....    DCD    3205487288
        0x00012aa0:    3f53c255    U.S?    DCD    1062453845
        0x00012aa4:    bf102dd5    .-..    DCD    3205508565
        0x00012aa8:    3f5389c7    ..S?    DCD    1062439367
        0x00012aac:    bf1080dc    ....    DCD    3205529820
        0x00012ab0:    3f535118    .QS?    DCD    1062424856
        0x00012ab4:    bf10d3cd    ....    DCD    3205551053
        0x00012ab8:    3f531849    I.S?    DCD    1062410313
        0x00012abc:    bf1126a7    .&..    DCD    3205572263
        0x00012ac0:    3f52df59    Y.R?    DCD    1062395737
        0x00012ac4:    bf11796b    ky..    DCD    3205593451
        0x00012ac8:    3f52a649    I.R?    DCD    1062381129
        0x00012acc:    bf11cc19    ....    DCD    3205614617
        0x00012ad0:    3f526d18    .mR?    DCD    1062366488
        0x00012ad4:    bf121eb0    ....    DCD    3205635760
        0x00012ad8:    3f5233c6    .3R?    DCD    1062351814
        0x00012adc:    bf127130    0q..    DCD    3205656880
        0x00012ae0:    3f51fa54    T.Q?    DCD    1062337108
        0x00012ae4:    bf12c39a    ....    DCD    3205677978
        0x00012ae8:    3f51c0c2    ..Q?    DCD    1062322370
        0x00012aec:    bf1315ee    ....    DCD    3205699054
        0x00012af0:    3f518710    ..Q?    DCD    1062307600
        0x00012af4:    bf13682a    *h..    DCD    3205720106
        0x00012af8:    3f514d3d    =MQ?    DCD    1062292797
        0x00012afc:    bf13ba50    P...    DCD    3205741136
        0x00012b00:    3f51134a    J.Q?    DCD    1062277962
        0x00012b04:    bf140c5f    _...    DCD    3205762143
        0x00012b08:    3f50d937    7.P?    DCD    1062263095
        0x00012b0c:    bf145e58    X^..    DCD    3205783128
        0x00012b10:    3f509f03    ..P?    DCD    1062248195
        0x00012b14:    bf14b039    9...    DCD    3205804089
        0x00012b18:    3f5064af    .dP?    DCD    1062233263
        0x00012b1c:    bf150204    ....    DCD    3205825028
        0x00012b20:    3f502a3b    ;*P?    DCD    1062218299
        0x00012b24:    bf1553b7    .S..    DCD    3205845943
        0x00012b28:    3f4fefa8    ..O?    DCD    1062203304
        0x00012b2c:    bf15a554    T...    DCD    3205866836
        0x00012b30:    3f4fb4f4    ..O?    DCD    1062188276
        0x00012b34:    bf15f6d9    ....    DCD    3205887705
        0x00012b38:    3f4f7a1f    .zO?    DCD    1062173215
        0x00012b3c:    bf164847    GH..    DCD    3205908551
        0x00012b40:    3f4f3f2b    +?O?    DCD    1062158123
        0x00012b44:    bf16999f    ....    DCD    3205929375
        0x00012b48:    3f4f0417    ..O?    DCD    1062142999
        0x00012b4c:    bf16eadf    ....    DCD    3205950175
        0x00012b50:    3f4ec8e4    ..N?    DCD    1062127844
        0x00012b54:    bf173c07    .<..    DCD    3205970951
        0x00012b58:    3f4e8d90    ..N?    DCD    1062112656
        0x00012b5c:    bf178d18    ....    DCD    3205991704
        0x00012b60:    3f4e521c    .RN?    DCD    1062097436
        0x00012b64:    bf17de12    ....    DCD    3206012434
        0x00012b68:    3f4e1689    ..N?    DCD    1062082185
        0x00012b6c:    bf182ef5    ....    DCD    3206033141
        0x00012b70:    3f4ddad5    ..M?    DCD    1062066901
        0x00012b74:    bf187fc0    ....    DCD    3206053824
        0x00012b78:    3f4d9f02    ..M?    DCD    1062051586
        0x00012b7c:    bf18d073    s...    DCD    3206074483
        0x00012b80:    3f4d6310    .cM?    DCD    1062036240
        0x00012b84:    bf19210f    .!..    DCD    3206095119
        0x00012b88:    3f4d26fd    .&M?    DCD    1062020861
        0x00012b8c:    bf197194    .q..    DCD    3206115732
        0x00012b90:    3f4ceacb    ..L?    DCD    1062005451
        0x00012b94:    bf19c200    ....    DCD    3206136320
        0x00012b98:    3f4cae79    y.L?    DCD    1061990009
        0x00012b9c:    bf1a1255    U...    DCD    3206156885
        0x00012ba0:    3f4c7208    .rL?    DCD    1061974536
        0x00012ba4:    bf1a6293    .b..    DCD    3206177427
        0x00012ba8:    3f4c3578    x5L?    DCD    1061959032
        0x00012bac:    bf1ab2b8    ....    DCD    3206197944
        0x00012bb0:    3f4bf8c7    ..K?    DCD    1061943495
        0x00012bb4:    bf1b02c6    ....    DCD    3206218438
        0x00012bb8:    3f4bbbf8    ..K?    DCD    1061927928
        0x00012bbc:    bf1b52bb    .R..    DCD    3206238907
        0x00012bc0:    3f4b7f09    ..K?    DCD    1061912329
        0x00012bc4:    bf1ba299    ....    DCD    3206259353
        0x00012bc8:    3f4b41fa    .AK?    DCD    1061896698
        0x00012bcc:    bf1bf25f    _...    DCD    3206279775
        0x00012bd0:    3f4b04cc    ..K?    DCD    1061881036
        0x00012bd4:    bf1c420c    .B..    DCD    3206300172
        0x00012bd8:    3f4ac77f    ..J?    DCD    1061865343
        0x00012bdc:    bf1c91a2    ....    DCD    3206320546
        0x00012be0:    3f4a8a13    ..J?    DCD    1061849619
        0x00012be4:    bf1ce11f    ....    DCD    3206340895
        0x00012be8:    3f4a4c87    .LJ?    DCD    1061833863
        0x00012bec:    bf1d3084    .0..    DCD    3206361220
        0x00012bf0:    3f4a0edc    ..J?    DCD    1061818076
        0x00012bf4:    bf1d7fd1    ....    DCD    3206381521
        0x00012bf8:    3f49d112    ..I?    DCD    1061802258
        0x00012bfc:    bf1dcf06    ....    DCD    3206401798
        0x00012c00:    3f499329    ).I?    DCD    1061786409
        0x00012c04:    bf1e1e22    "...    DCD    3206422050
        0x00012c08:    3f495521    !UI?    DCD    1061770529
        0x00012c0c:    bf1e6d26    &m..    DCD    3206442278
        0x00012c10:    3f4916fa    ..I?    DCD    1061754618
        0x00012c14:    bf1ebc12    ....    DCD    3206462482
        0x00012c18:    3f48d8b3    ..H?    DCD    1061738675
        0x00012c1c:    bf1f0ae5    ....    DCD    3206482661
        0x00012c20:    3f489a4e    N.H?    DCD    1061722702
        0x00012c24:    bf1f599f    .Y..    DCD    3206502815
        0x00012c28:    3f485bca    .[H?    DCD    1061706698
        0x00012c2c:    bf1fa841    A...    DCD    3206522945
        0x00012c30:    3f481d27    '.H?    DCD    1061690663
        0x00012c34:    bf1ff6cb    ....    DCD    3206543051
        0x00012c38:    3f47de65    e.G?    DCD    1061674597
        0x00012c3c:    bf20453b    ;E .    DCD    3206563131
        0x00012c40:    3f479f84    ..G?    DCD    1061658500
        0x00012c44:    bf209393    .. .    DCD    3206583187
        0x00012c48:    3f476085    .`G?    DCD    1061642373
        0x00012c4c:    bf20e1d2    .. .    DCD    3206603218
        0x00012c50:    3f472167    g!G?    DCD    1061626215
        0x00012c54:    bf212ff9    ./!.    DCD    3206623225
        0x00012c58:    3f46e22a    *.F?    DCD    1061610026
        0x00012c5c:    bf217e06    .~!.    DCD    3206643206
        0x00012c60:    3f46a2ce    ..F?    DCD    1061593806
        0x00012c64:    bf21cbfb    ..!.    DCD    3206663163
        0x00012c68:    3f466354    TcF?    DCD    1061577556
        0x00012c6c:    bf2219d7    ..".    DCD    3206683095
        0x00012c70:    3f4623bb    .#F?    DCD    1061561275
        0x00012c74:    bf226799    .g".    DCD    3206703001
        0x00012c78:    3f45e403    ..E?    DCD    1061544963
        0x00012c7c:    bf22b543    C.".    DCD    3206722883
        0x00012c80:    3f45a42d    -.E?    DCD    1061528621
        0x00012c84:    bf2302d3    ..#.    DCD    3206742739
        0x00012c88:    3f456439    9dE?    DCD    1061512249
        0x00012c8c:    bf23504b    KP#.    DCD    3206762571
        0x00012c90:    3f452426    &$E?    DCD    1061495846
        0x00012c94:    bf239da9    ..#.    DCD    3206782377
        0x00012c98:    3f44e3f5    ..D?    DCD    1061479413
        0x00012c9c:    bf23eaee    ..#.    DCD    3206802158
        0x00012ca0:    3f44a3a5    ..D?    DCD    1061462949
        0x00012ca4:    bf24381a    .8$.    DCD    3206821914
        0x00012ca8:    3f446337    7cD?    DCD    1061446455
        0x00012cac:    bf24852c    ,.$.    DCD    3206841644
        0x00012cb0:    3f4422ab    ."D?    DCD    1061429931
        0x00012cb4:    bf24d225    %.$.    DCD    3206861349
        0x00012cb8:    3f43e200    ..C?    DCD    1061413376
        0x00012cbc:    bf251f04    ..%.    DCD    3206881028
        0x00012cc0:    3f43a138    8.C?    DCD    1061396792
        0x00012cc4:    bf256bcb    .k%.    DCD    3206900683
        0x00012cc8:    3f436051    Q`C?    DCD    1061380177
        0x00012ccc:    bf25b877    w.%.    DCD    3206920311
        0x00012cd0:    3f431f4c    L.C?    DCD    1061363532
        0x00012cd4:    bf26050a    ..&.    DCD    3206939914
        0x00012cd8:    3f42de29    ).B?    DCD    1061346857
        0x00012cdc:    bf265184    .Q&.    DCD    3206959492
        0x00012ce0:    3f429ce8    ..B?    DCD    1061330152
        0x00012ce4:    bf269de3    ..&.    DCD    3206979043
        0x00012ce8:    3f425b89    .[B?    DCD    1061313417
        0x00012cec:    bf26ea2a    *.&.    DCD    3206998570
        0x00012cf0:    3f421a0b    ..B?    DCD    1061296651
        0x00012cf4:    bf273656    V6'.    DCD    3207018070
        0x00012cf8:    3f41d870    p.A?    DCD    1061279856
        0x00012cfc:    bf278268    h.'.    DCD    3207037544
        0x00012d00:    3f4196b7    ..A?    DCD    1061263031
        0x00012d04:    bf27ce61    a.'.    DCD    3207056993
        0x00012d08:    3f4154e1    .TA?    DCD    1061246177
        0x00012d0c:    bf281a40    @.(.    DCD    3207076416
        0x00012d10:    3f4112ec    ..A?    DCD    1061229292
        0x00012d14:    bf286605    .f(.    DCD    3207095813
        0x00012d18:    3f40d0da    ..@?    DCD    1061212378
        0x00012d1c:    bf28b1b0    ..(.    DCD    3207115184
        0x00012d20:    3f408ea9    ..@?    DCD    1061195433
        0x00012d24:    bf28fd41    A.(.    DCD    3207134529
        0x00012d28:    3f404c5c    \L@?    DCD    1061178460
        0x00012d2c:    bf2948b8    .H).    DCD    3207153848
        0x00012d30:    3f4009f0    ..@?    DCD    1061161456
        0x00012d34:    bf299415    ..).    DCD    3207173141
        0x00012d38:    3f3fc767    g.??    DCD    1061144423
        0x00012d3c:    bf29df57    W.).    DCD    3207192407
        0x00012d40:    3f3f84c0    ..??    DCD    1061127360
        0x00012d44:    bf2a2a80    .**.    DCD    3207211648
        0x00012d48:    3f3f41fc    .A??    DCD    1061110268
        0x00012d4c:    bf2a758e    .u*.    DCD    3207230862
        0x00012d50:    3f3eff1b    ..>?    DCD    1061093147
        0x00012d54:    bf2ac082    ..*.    DCD    3207250050
        0x00012d58:    3f3ebc1b    ..>?    DCD    1061075995
        0x00012d5c:    bf2b0b5b    [.+.    DCD    3207269211
        0x00012d60:    3f3e78ff    .x>?    DCD    1061058815
        0x00012d64:    bf2b561b    .V+.    DCD    3207288347
        0x00012d68:    3f3e35c5    .5>?    DCD    1061041605
        0x00012d6c:    bf2ba0bf    ..+.    DCD    3207307455
        0x00012d70:    3f3df26e    n.=?    DCD    1061024366
        0x00012d74:    bf2beb4a    J.+.    DCD    3207326538
        0x00012d78:    3f3daef9    ..=?    DCD    1061007097
        0x00012d7c:    bf2c35b9    .5,.    DCD    3207345593
        0x00012d80:    3f3d6b67    gk=?    DCD    1060989799
        0x00012d84:    bf2c800f    ..,.    DCD    3207364623
        0x00012d88:    3f3d27b8    .'=?    DCD    1060972472
        0x00012d8c:    bf2cca49    I.,.    DCD    3207383625
        0x00012d90:    3f3ce3ec    ..<?    DCD    1060955116
        0x00012d94:    bf2d1469    i.-.    DCD    3207402601
        0x00012d98:    3f3ca003    ..<?    DCD    1060937731
        0x00012d9c:    bf2d5e6f    o^-.    DCD    3207421551
        0x00012da0:    3f3c5bfc    .[<?    DCD    1060920316
        0x00012da4:    bf2da859    Y.-.    DCD    3207440473
        0x00012da8:    3f3c17d9    ..<?    DCD    1060902873
        0x00012dac:    bf2df229    ).-.    DCD    3207459369
        0x00012db0:    3f3bd398    ..;?    DCD    1060885400
        0x00012db4:    bf2e3bde    .;..    DCD    3207478238
        0x00012db8:    3f3b8f3b    ;.;?    DCD    1060867899
        0x00012dbc:    bf2e8578    x...    DCD    3207497080
        0x00012dc0:    3f3b4ac1    .J;?    DCD    1060850369
        0x00012dc4:    bf2ecef7    ....    DCD    3207515895
        0x00012dc8:    3f3b0629    ).;?    DCD    1060832809
        0x00012dcc:    bf2f185b    [./.    DCD    3207534683
        0x00012dd0:    3f3ac175    u.:?    DCD    1060815221
        0x00012dd4:    bf2f61a5    .a/.    DCD    3207553445
        0x00012dd8:    3f3a7ca4    .|:?    DCD    1060797604
        0x00012ddc:    bf2faad3    ../.    DCD    3207572179
        0x00012de0:    3f3a37b7    .7:?    DCD    1060779959
        0x00012de4:    bf2ff3e6    ../.    DCD    3207590886
        0x00012de8:    3f39f2ac    ..9?    DCD    1060762284
        0x00012dec:    bf303cde    .<0.    DCD    3207609566
        0x00012df0:    3f39ad85    ..9?    DCD    1060744581
        0x00012df4:    bf3085bb    ..0.    DCD    3207628219
        0x00012df8:    3f396842    Bh9?    DCD    1060726850
        0x00012dfc:    bf30ce7c    |.0.    DCD    3207646844
        0x00012e00:    3f3922e1    ."9?    DCD    1060709089
        0x00012e04:    bf311722    ".1.    DCD    3207665442
        0x00012e08:    3f38dd65    e.8?    DCD    1060691301
        0x00012e0c:    bf315fad    ._1.    DCD    3207684013
        0x00012e10:    3f3897cb    ..8?    DCD    1060673483
        0x00012e14:    bf31a81d    ..1.    DCD    3207702557
        0x00012e18:    3f385216    .R8?    DCD    1060655638
        0x00012e1c:    bf31f071    q.1.    DCD    3207721073
        0x00012e20:    3f380c43    C.8?    DCD    1060637763
        0x00012e24:    bf3238aa    .82.    DCD    3207739562
        0x00012e28:    3f37c655    U.7?    DCD    1060619861
        0x00012e2c:    bf3280c7    ..2.    DCD    3207758023
        0x00012e30:    3f37804a    J.7?    DCD    1060601930
        0x00012e34:    bf32c8c9    ..2.    DCD    3207776457
        0x00012e38:    3f373a23    #:7?    DCD    1060583971
        0x00012e3c:    bf3310af    ..3.    DCD    3207794863
        0x00012e40:    3f36f3df    ..6?    DCD    1060565983
        0x00012e44:    bf33587a    zX3.    DCD    3207813242
        0x00012e48:    3f36ad7f    ..6?    DCD    1060547967
        0x00012e4c:    bf33a029    ).3.    DCD    3207831593
        0x00012e50:    3f366704    .g6?    DCD    1060529924
        0x00012e54:    bf33e7bc    ..3.    DCD    3207849916
        0x00012e58:    3f36206c    l 6?    DCD    1060511852
        0x00012e5c:    bf342f34    4/4.    DCD    3207868212
        0x00012e60:    3f35d9b8    ..5?    DCD    1060493752
        0x00012e64:    bf34768f    .v4.    DCD    3207886479
        0x00012e68:    3f3592e7    ..5?    DCD    1060475623
        0x00012e6c:    bf34bdcf    ..4.    DCD    3207904719
        0x00012e70:    3f354bfb    .K5?    DCD    1060457467
        0x00012e74:    bf3504f3    ..5.    DCD    3207922931
        0x00012e78:    3f3504f3    ..5?    DCD    1060439283
        0x00012e7c:    bf354bfb    .K5.    DCD    3207941115
        0x00012e80:    3f34bdcf    ..4?    DCD    1060421071
        0x00012e84:    bf3592e7    ..5.    DCD    3207959271
        0x00012e88:    3f34768f    .v4?    DCD    1060402831
        0x00012e8c:    bf35d9b8    ..5.    DCD    3207977400
        0x00012e90:    3f342f34    4/4?    DCD    1060384564
        0x00012e94:    bf36206c    l 6.    DCD    3207995500
        0x00012e98:    3f33e7bc    ..3?    DCD    1060366268
        0x00012e9c:    bf366704    .g6.    DCD    3208013572
        0x00012ea0:    3f33a029    ).3?    DCD    1060347945
        0x00012ea4:    bf36ad7f    ..6.    DCD    3208031615
        0x00012ea8:    3f33587a    zX3?    DCD    1060329594
        0x00012eac:    bf36f3df    ..6.    DCD    3208049631
        0x00012eb0:    3f3310af    ..3?    DCD    1060311215
        0x00012eb4:    bf373a23    #:7.    DCD    3208067619
        0x00012eb8:    3f32c8c9    ..2?    DCD    1060292809
        0x00012ebc:    bf37804a    J.7.    DCD    3208085578
        0x00012ec0:    3f3280c7    ..2?    DCD    1060274375
        0x00012ec4:    bf37c655    U.7.    DCD    3208103509
        0x00012ec8:    3f3238aa    .82?    DCD    1060255914
        0x00012ecc:    bf380c43    C.8.    DCD    3208121411
        0x00012ed0:    3f31f071    q.1?    DCD    1060237425
        0x00012ed4:    bf385216    .R8.    DCD    3208139286
        0x00012ed8:    3f31a81d    ..1?    DCD    1060218909
        0x00012edc:    bf3897cb    ..8.    DCD    3208157131
        0x00012ee0:    3f315fad    ._1?    DCD    1060200365
        0x00012ee4:    bf38dd65    e.8.    DCD    3208174949
        0x00012ee8:    3f311722    ".1?    DCD    1060181794
        0x00012eec:    bf3922e1    ."9.    DCD    3208192737
        0x00012ef0:    3f30ce7c    |.0?    DCD    1060163196
        0x00012ef4:    bf396842    Bh9.    DCD    3208210498
        0x00012ef8:    3f3085bb    ..0?    DCD    1060144571
        0x00012efc:    bf39ad85    ..9.    DCD    3208228229
        0x00012f00:    3f303cde    .<0?    DCD    1060125918
        0x00012f04:    bf39f2ac    ..9.    DCD    3208245932
        0x00012f08:    3f2ff3e6    ../?    DCD    1060107238
        0x00012f0c:    bf3a37b7    .7:.    DCD    3208263607
        0x00012f10:    3f2faad3    ../?    DCD    1060088531
        0x00012f14:    bf3a7ca4    .|:.    DCD    3208281252
        0x00012f18:    3f2f61a5    .a/?    DCD    1060069797
        0x00012f1c:    bf3ac175    u.:.    DCD    3208298869
        0x00012f20:    3f2f185b    [./?    DCD    1060051035
        0x00012f24:    bf3b0629    ).;.    DCD    3208316457
        0x00012f28:    3f2ecef7    ...?    DCD    1060032247
        0x00012f2c:    bf3b4ac1    .J;.    DCD    3208334017
        0x00012f30:    3f2e8578    x..?    DCD    1060013432
        0x00012f34:    bf3b8f3b    ;.;.    DCD    3208351547
        0x00012f38:    3f2e3bde    .;.?    DCD    1059994590
        0x00012f3c:    bf3bd398    ..;.    DCD    3208369048
        0x00012f40:    3f2df229    ).-?    DCD    1059975721
        0x00012f44:    bf3c17d9    ..<.    DCD    3208386521
        0x00012f48:    3f2da859    Y.-?    DCD    1059956825
        0x00012f4c:    bf3c5bfc    .[<.    DCD    3208403964
        0x00012f50:    3f2d5e6f    o^-?    DCD    1059937903
        0x00012f54:    bf3ca003    ..<.    DCD    3208421379
        0x00012f58:    3f2d1469    i.-?    DCD    1059918953
        0x00012f5c:    bf3ce3ec    ..<.    DCD    3208438764
        0x00012f60:    3f2cca49    I.,?    DCD    1059899977
        0x00012f64:    bf3d27b8    .'=.    DCD    3208456120
        0x00012f68:    3f2c800f    ..,?    DCD    1059880975
        0x00012f6c:    bf3d6b67    gk=.    DCD    3208473447
        0x00012f70:    3f2c35b9    .5,?    DCD    1059861945
        0x00012f74:    bf3daef9    ..=.    DCD    3208490745
        0x00012f78:    3f2beb4a    J.+?    DCD    1059842890
        0x00012f7c:    bf3df26e    n.=.    DCD    3208508014
        0x00012f80:    3f2ba0bf    ..+?    DCD    1059823807
        0x00012f84:    bf3e35c5    .5>.    DCD    3208525253
        0x00012f88:    3f2b561b    .V+?    DCD    1059804699
        0x00012f8c:    bf3e78ff    .x>.    DCD    3208542463
        0x00012f90:    3f2b0b5b    [.+?    DCD    1059785563
        0x00012f94:    bf3ebc1b    ..>.    DCD    3208559643
        0x00012f98:    3f2ac082    ..*?    DCD    1059766402
        0x00012f9c:    bf3eff1b    ..>.    DCD    3208576795
        0x00012fa0:    3f2a758e    .u*?    DCD    1059747214
        0x00012fa4:    bf3f41fc    .A?.    DCD    3208593916
        0x00012fa8:    3f2a2a80    .**?    DCD    1059728000
        0x00012fac:    bf3f84c0    ..?.    DCD    3208611008
        0x00012fb0:    3f29df57    W.)?    DCD    1059708759
        0x00012fb4:    bf3fc767    g.?.    DCD    3208628071
        0x00012fb8:    3f299415    ..)?    DCD    1059689493
        0x00012fbc:    bf4009f0    ..@.    DCD    3208645104
        0x00012fc0:    3f2948b8    .H)?    DCD    1059670200
        0x00012fc4:    bf404c5c    \L@.    DCD    3208662108
        0x00012fc8:    3f28fd41    A.(?    DCD    1059650881
        0x00012fcc:    bf408ea9    ..@.    DCD    3208679081
        0x00012fd0:    3f28b1b0    ..(?    DCD    1059631536
        0x00012fd4:    bf40d0da    ..@.    DCD    3208696026
        0x00012fd8:    3f286605    .f(?    DCD    1059612165
        0x00012fdc:    bf4112ec    ..A.    DCD    3208712940
        0x00012fe0:    3f281a40    @.(?    DCD    1059592768
        0x00012fe4:    bf4154e1    .TA.    DCD    3208729825
        0x00012fe8:    3f27ce61    a.'?    DCD    1059573345
        0x00012fec:    bf4196b7    ..A.    DCD    3208746679
        0x00012ff0:    3f278268    h.'?    DCD    1059553896
        0x00012ff4:    bf41d870    p.A.    DCD    3208763504
        0x00012ff8:    3f273656    V6'?    DCD    1059534422
        0x00012ffc:    bf421a0b    ..B.    DCD    3208780299
        0x00013000:    3f26ea2a    *.&?    DCD    1059514922
        0x00013004:    bf425b89    .[B.    DCD    3208797065
        0x00013008:    3f269de3    ..&?    DCD    1059495395
        0x0001300c:    bf429ce8    ..B.    DCD    3208813800
        0x00013010:    3f265184    .Q&?    DCD    1059475844
        0x00013014:    bf42de29    ).B.    DCD    3208830505
        0x00013018:    3f26050a    ..&?    DCD    1059456266
        0x0001301c:    bf431f4c    L.C.    DCD    3208847180
        0x00013020:    3f25b877    w.%?    DCD    1059436663
        0x00013024:    bf436051    Q`C.    DCD    3208863825
        0x00013028:    3f256bcb    .k%?    DCD    1059417035
        0x0001302c:    bf43a138    8.C.    DCD    3208880440
        0x00013030:    3f251f04    ..%?    DCD    1059397380
        0x00013034:    bf43e200    ..C.    DCD    3208897024
        0x00013038:    3f24d225    %.$?    DCD    1059377701
        0x0001303c:    bf4422ab    ."D.    DCD    3208913579
        0x00013040:    3f24852c    ,.$?    DCD    1059357996
        0x00013044:    bf446337    7cD.    DCD    3208930103
        0x00013048:    3f24381a    .8$?    DCD    1059338266
        0x0001304c:    bf44a3a5    ..D.    DCD    3208946597
        0x00013050:    3f23eaee    ..#?    DCD    1059318510
        0x00013054:    bf44e3f5    ..D.    DCD    3208963061
        0x00013058:    3f239da9    ..#?    DCD    1059298729
        0x0001305c:    bf452426    &$E.    DCD    3208979494
        0x00013060:    3f23504b    KP#?    DCD    1059278923
        0x00013064:    bf456439    9dE.    DCD    3208995897
        0x00013068:    3f2302d3    ..#?    DCD    1059259091
        0x0001306c:    bf45a42d    -.E.    DCD    3209012269
        0x00013070:    3f22b543    C."?    DCD    1059239235
        0x00013074:    bf45e403    ..E.    DCD    3209028611
        0x00013078:    3f226799    .g"?    DCD    1059219353
        0x0001307c:    bf4623bb    .#F.    DCD    3209044923
        0x00013080:    3f2219d7    .."?    DCD    1059199447
        0x00013084:    bf466354    TcF.    DCD    3209061204
        0x00013088:    3f21cbfb    ..!?    DCD    1059179515
        0x0001308c:    bf46a2ce    ..F.    DCD    3209077454
        0x00013090:    3f217e06    .~!?    DCD    1059159558
        0x00013094:    bf46e22a    *.F.    DCD    3209093674
        0x00013098:    3f212ff9    ./!?    DCD    1059139577
        0x0001309c:    bf472167    g!G.    DCD    3209109863
        0x000130a0:    3f20e1d2    .. ?    DCD    1059119570
        0x000130a4:    bf476085    .`G.    DCD    3209126021
        0x000130a8:    3f209393    .. ?    DCD    1059099539
        0x000130ac:    bf479f84    ..G.    DCD    3209142148
        0x000130b0:    3f20453b    ;E ?    DCD    1059079483
        0x000130b4:    bf47de65    e.G.    DCD    3209158245
        0x000130b8:    3f1ff6cb    ...?    DCD    1059059403
        0x000130bc:    bf481d27    '.H.    DCD    3209174311
        0x000130c0:    3f1fa841    A..?    DCD    1059039297
        0x000130c4:    bf485bca    .[H.    DCD    3209190346
        0x000130c8:    3f1f599f    .Y.?    DCD    1059019167
        0x000130cc:    bf489a4e    N.H.    DCD    3209206350
        0x000130d0:    3f1f0ae5    ...?    DCD    1058999013
        0x000130d4:    bf48d8b3    ..H.    DCD    3209222323
        0x000130d8:    3f1ebc12    ...?    DCD    1058978834
        0x000130dc:    bf4916fa    ..I.    DCD    3209238266
        0x000130e0:    3f1e6d26    &m.?    DCD    1058958630
        0x000130e4:    bf495521    !UI.    DCD    3209254177
        0x000130e8:    3f1e1e22    "..?    DCD    1058938402
        0x000130ec:    bf499329    ).I.    DCD    3209270057
        0x000130f0:    3f1dcf06    ...?    DCD    1058918150
        0x000130f4:    bf49d112    ..I.    DCD    3209285906
        0x000130f8:    3f1d7fd1    ...?    DCD    1058897873
        0x000130fc:    bf4a0edc    ..J.    DCD    3209301724
        0x00013100:    3f1d3084    .0.?    DCD    1058877572
        0x00013104:    bf4a4c87    .LJ.    DCD    3209317511
        0x00013108:    3f1ce11f    ...?    DCD    1058857247
        0x0001310c:    bf4a8a13    ..J.    DCD    3209333267
        0x00013110:    3f1c91a2    ...?    DCD    1058836898
        0x00013114:    bf4ac77f    ..J.    DCD    3209348991
        0x00013118:    3f1c420c    .B.?    DCD    1058816524
        0x0001311c:    bf4b04cc    ..K.    DCD    3209364684
        0x00013120:    3f1bf25f    _..?    DCD    1058796127
        0x00013124:    bf4b41fa    .AK.    DCD    3209380346
        0x00013128:    3f1ba299    ...?    DCD    1058775705
        0x0001312c:    bf4b7f09    ..K.    DCD    3209395977
        0x00013130:    3f1b52bb    .R.?    DCD    1058755259
        0x00013134:    bf4bbbf8    ..K.    DCD    3209411576
        0x00013138:    3f1b02c6    ...?    DCD    1058734790
        0x0001313c:    bf4bf8c7    ..K.    DCD    3209427143
        0x00013140:    3f1ab2b8    ...?    DCD    1058714296
        0x00013144:    bf4c3578    x5L.    DCD    3209442680
        0x00013148:    3f1a6293    .b.?    DCD    1058693779
        0x0001314c:    bf4c7208    .rL.    DCD    3209458184
        0x00013150:    3f1a1255    U..?    DCD    1058673237
        0x00013154:    bf4cae79    y.L.    DCD    3209473657
        0x00013158:    3f19c200    ...?    DCD    1058652672
        0x0001315c:    bf4ceacb    ..L.    DCD    3209489099
        0x00013160:    3f197194    .q.?    DCD    1058632084
        0x00013164:    bf4d26fd    .&M.    DCD    3209504509
        0x00013168:    3f19210f    .!.?    DCD    1058611471
        0x0001316c:    bf4d6310    .cM.    DCD    3209519888
        0x00013170:    3f18d073    s..?    DCD    1058590835
        0x00013174:    bf4d9f02    ..M.    DCD    3209535234
        0x00013178:    3f187fc0    ...?    DCD    1058570176
        0x0001317c:    bf4ddad5    ..M.    DCD    3209550549
        0x00013180:    3f182ef5    ...?    DCD    1058549493
        0x00013184:    bf4e1689    ..N.    DCD    3209565833
        0x00013188:    3f17de12    ...?    DCD    1058528786
        0x0001318c:    bf4e521c    .RN.    DCD    3209581084
        0x00013190:    3f178d18    ...?    DCD    1058508056
        0x00013194:    bf4e8d90    ..N.    DCD    3209596304
        0x00013198:    3f173c07    .<.?    DCD    1058487303
        0x0001319c:    bf4ec8e4    ..N.    DCD    3209611492
        0x000131a0:    3f16eadf    ...?    DCD    1058466527
        0x000131a4:    bf4f0417    ..O.    DCD    3209626647
        0x000131a8:    3f16999f    ...?    DCD    1058445727
        0x000131ac:    bf4f3f2b    +?O.    DCD    3209641771
        0x000131b0:    3f164847    GH.?    DCD    1058424903
        0x000131b4:    bf4f7a1f    .zO.    DCD    3209656863
        0x000131b8:    3f15f6d9    ...?    DCD    1058404057
        0x000131bc:    bf4fb4f4    ..O.    DCD    3209671924
        0x000131c0:    3f15a554    T..?    DCD    1058383188
        0x000131c4:    bf4fefa8    ..O.    DCD    3209686952
        0x000131c8:    3f1553b7    .S.?    DCD    1058362295
        0x000131cc:    bf502a3b    ;*P.    DCD    3209701947
        0x000131d0:    3f150204    ...?    DCD    1058341380
        0x000131d4:    bf5064af    .dP.    DCD    3209716911
        0x000131d8:    3f14b039    9..?    DCD    1058320441
        0x000131dc:    bf509f03    ..P.    DCD    3209731843
        0x000131e0:    3f145e58    X^.?    DCD    1058299480
        0x000131e4:    bf50d937    7.P.    DCD    3209746743
        0x000131e8:    3f140c5f    _..?    DCD    1058278495
        0x000131ec:    bf51134a    J.Q.    DCD    3209761610
        0x000131f0:    3f13ba50    P..?    DCD    1058257488
        0x000131f4:    bf514d3d    =MQ.    DCD    3209776445
        0x000131f8:    3f13682a    *h.?    DCD    1058236458
        0x000131fc:    bf518710    ..Q.    DCD    3209791248
        0x00013200:    3f1315ee    ...?    DCD    1058215406
        0x00013204:    bf51c0c2    ..Q.    DCD    3209806018
        0x00013208:    3f12c39a    ...?    DCD    1058194330
        0x0001320c:    bf51fa54    T.Q.    DCD    3209820756
        0x00013210:    3f127130    0q.?    DCD    1058173232
        0x00013214:    bf5233c6    .3R.    DCD    3209835462
        0x00013218:    3f121eb0    ...?    DCD    1058152112
        0x0001321c:    bf526d18    .mR.    DCD    3209850136
        0x00013220:    3f11cc19    ...?    DCD    1058130969
        0x00013224:    bf52a649    I.R.    DCD    3209864777
        0x00013228:    3f11796b    ky.?    DCD    1058109803
        0x0001322c:    bf52df59    Y.R.    DCD    3209879385
        0x00013230:    3f1126a7    .&.?    DCD    1058088615
        0x00013234:    bf531849    I.S.    DCD    3209893961
        0x00013238:    3f10d3cd    ...?    DCD    1058067405
        0x0001323c:    bf535118    .QS.    DCD    3209908504
        0x00013240:    3f1080dc    ...?    DCD    1058046172
        0x00013244:    bf5389c7    ..S.    DCD    3209923015
        0x00013248:    3f102dd5    .-.?    DCD    1058024917
        0x0001324c:    bf53c255    U.S.    DCD    3209937493
        0x00013250:    3f0fdab8    ...?    DCD    1058003640
        0x00013254:    bf53fac3    ..S.    DCD    3209951939
        0x00013258:    3f0f8784    ...?    DCD    1057982340
        0x0001325c:    bf54330f    .3T.    DCD    3209966351
        0x00013260:    3f0f343b    ;4.?    DCD    1057961019
        0x00013264:    bf546b3b    ;kT.    DCD    3209980731
        0x00013268:    3f0ee0db    ...?    DCD    1057939675
        0x0001326c:    bf54a347    G.T.    DCD    3209995079
        0x00013270:    3f0e8d65    e..?    DCD    1057918309
        0x00013274:    bf54db31    1.T.    DCD    3210009393
        0x00013278:    3f0e39da    .9.?    DCD    1057896922
        0x0001327c:    bf5512fb    ..U.    DCD    3210023675
        0x00013280:    3f0de638    8..?    DCD    1057875512
        0x00013284:    bf554aa4    .JU.    DCD    3210037924
        0x00013288:    3f0d9281    ...?    DCD    1057854081
        0x0001328c:    bf55822c    ,.U.    DCD    3210052140
        0x00013290:    3f0d3eb3    .>.?    DCD    1057832627
        0x00013294:    bf55b993    ..U.    DCD    3210066323
        0x00013298:    3f0cead0    ...?    DCD    1057811152
        0x0001329c:    bf55f0d9    ..U.    DCD    3210080473
        0x000132a0:    3f0c96d7    ...?    DCD    1057789655
        0x000132a4:    bf5627fe    .'V.    DCD    3210094590
        0x000132a8:    3f0c42c9    .B.?    DCD    1057768137
        0x000132ac:    bf565f02    ._V.    DCD    3210108674
        0x000132b0:    3f0beea5    ...?    DCD    1057746597
        0x000132b4:    bf5695e5    ..V.    DCD    3210122725
        0x000132b8:    3f0b9a6b    k..?    DCD    1057725035
        0x000132bc:    bf56cca7    ..V.    DCD    3210136743
        0x000132c0:    3f0b461c    .F.?    DCD    1057703452
        0x000132c4:    bf570348    H.W.    DCD    3210150728
        0x000132c8:    3f0af1b7    ...?    DCD    1057681847
        0x000132cc:    bf5739c7    .9W.    DCD    3210164679
        0x000132d0:    3f0a9d3d    =..?    DCD    1057660221
        0x000132d4:    bf577026    &pW.    DCD    3210178598
        0x000132d8:    3f0a48ad    .H.?    DCD    1057638573
        0x000132dc:    bf57a663    c.W.    DCD    3210192483
        0x000132e0:    3f09f409    ...?    DCD    1057616905
        0x000132e4:    bf57dc7f    ..W.    DCD    3210206335
        0x000132e8:    3f099f4e    N..?    DCD    1057595214
        0x000132ec:    bf581279    y.X.    DCD    3210220153
        0x000132f0:    3f094a7f    .J.?    DCD    1057573503
        0x000132f4:    bf584853    SHX.    DCD    3210233939
        0x000132f8:    3f08f59b    ...?    DCD    1057551771
        0x000132fc:    bf587e0b    .~X.    DCD    3210247691
        0x00013300:    3f08a0a1    ...?    DCD    1057530017
        0x00013304:    bf58b3a1    ..X.    DCD    3210261409
        0x00013308:    3f084b92    .K.?    DCD    1057508242
        0x0001330c:    bf58e917    ..X.    DCD    3210275095
        0x00013310:    3f07f66f    o..?    DCD    1057486447
        0x00013314:    bf591e6a    j.Y.    DCD    3210288746
        0x00013318:    3f07a136    6..?    DCD    1057464630
        0x0001331c:    bf59539c    .SY.    DCD    3210302364
        0x00013320:    3f074be8    .K.?    DCD    1057442792
        0x00013324:    bf5988ad    ..Y.    DCD    3210315949
        0x00013328:    3f06f686    ...?    DCD    1057420934
        0x0001332c:    bf59bd9c    ..Y.    DCD    3210329500
        0x00013330:    3f06a10e    ...?    DCD    1057399054
        0x00013334:    bf59f26a    j.Y.    DCD    3210343018
        0x00013338:    3f064b82    .K.?    DCD    1057377154
        0x0001333c:    bf5a2716    .'Z.    DCD    3210356502
        0x00013340:    3f05f5e2    ...?    DCD    1057355234
        0x00013344:    bf5a5ba0    .[Z.    DCD    3210369952
        0x00013348:    3f05a02c    ,..?    DCD    1057333292
        0x0001334c:    bf5a9009    ..Z.    DCD    3210383369
        0x00013350:    3f054a62    bJ.?    DCD    1057311330
        0x00013354:    bf5ac450    P.Z.    DCD    3210396752
        0x00013358:    3f04f484    ...?    DCD    1057289348
        0x0001335c:    bf5af875    u.Z.    DCD    3210410101
        0x00013360:    3f049e91    ...?    DCD    1057267345
        0x00013364:    bf5b2c79    y,[.    DCD    3210423417
        0x00013368:    3f044889    .H.?    DCD    1057245321
        0x0001336c:    bf5b605a    Z`[.    DCD    3210436698
        0x00013370:    3f03f26d    m..?    DCD    1057223277
        0x00013374:    bf5b941a    ..[.    DCD    3210449946
        0x00013378:    3f039c3d    =..?    DCD    1057201213
        0x0001337c:    bf5bc7b8    ..[.    DCD    3210463160
        0x00013380:    3f0345f8    .E.?    DCD    1057179128
        0x00013384:    bf5bfb34    4.[.    DCD    3210476340
        0x00013388:    3f02ef9f    ...?    DCD    1057157023
        0x0001338c:    bf5c2e8e    ..\.    DCD    3210489486
        0x00013390:    3f029932    2..?    DCD    1057134898
        0x00013394:    bf5c61c7    .a\.    DCD    3210502599
        0x00013398:    3f0242b1    .B.?    DCD    1057112753
        0x0001339c:    bf5c94dd    ..\.    DCD    3210515677
        0x000133a0:    3f01ec1c    ...?    DCD    1057090588
        0x000133a4:    bf5cc7d1    ..\.    DCD    3210528721
        0x000133a8:    3f019573    s..?    DCD    1057068403
        0x000133ac:    bf5cfaa3    ..\.    DCD    3210541731
        0x000133b0:    3f013eb5    .>.?    DCD    1057046197
        0x000133b4:    bf5d2d53    S-].    DCD    3210554707
        0x000133b8:    3f00e7e4    ...?    DCD    1057023972
        0x000133bc:    bf5d5fe1    ._].    DCD    3210567649
        0x000133c0:    3f0090ff    ...?    DCD    1057001727
        0x000133c4:    bf5d924d    M.].    DCD    3210580557
        0x000133c8:    3f003a06    .:.?    DCD    1056979462
        0x000133cc:    bf5dc497    ..].    DCD    3210593431
        0x000133d0:    3effc5f3    ...>    DCD    1056949747
        0x000133d4:    bf5df6be    ..].    DCD    3210606270
        0x000133d8:    3eff17b2    ...>    DCD    1056905138
        0x000133dc:    bf5e28c3    .(^.    DCD    3210619075
        0x000133e0:    3efe694a    Ji.>    DCD    1056860490
        0x000133e4:    bf5e5aa6    .Z^.    DCD    3210631846
        0x000133e8:    3efdbabb    ...>    DCD    1056815803
        0x000133ec:    bf5e8c67    g.^.    DCD    3210644583
        0x000133f0:    3efd0c04    ...>    DCD    1056771076
        0x000133f4:    bf5ebe05    ..^.    DCD    3210657285
        0x000133f8:    3efc5d27    '].>    DCD    1056726311
        0x000133fc:    bf5eef81    ..^.    DCD    3210669953
        0x00013400:    3efbae22    "..>    DCD    1056681506
        0x00013404:    bf5f20db    . _.    DCD    3210682587
        0x00013408:    3efafef7    ...>    DCD    1056636663
        0x0001340c:    bf5f5212    .R_.    DCD    3210695186
        0x00013410:    3efa4fa5    .O.>    DCD    1056591781
        0x00013414:    bf5f8327    '._.    DCD    3210707751
        0x00013418:    3ef9a02d    -..>    DCD    1056546861
        0x0001341c:    bf5fb419    .._.    DCD    3210720281
        0x00013420:    3ef8f08e    ...>    DCD    1056501902
        0x00013424:    bf5fe4e9    .._.    DCD    3210732777
        0x00013428:    3ef840c8    .@.>    DCD    1056456904
        0x0001342c:    bf601596    ..`.    DCD    3210745238
        0x00013430:    3ef790dc    ...>    DCD    1056411868
        0x00013434:    bf604621    !F`.    DCD    3210757665
        0x00013438:    3ef6e0cb    ...>    DCD    1056366795
        0x0001343c:    bf607689    .v`.    DCD    3210770057
        0x00013440:    3ef63093    .0.>    DCD    1056321683
        0x00013444:    bf60a6cf    ..`.    DCD    3210782415
        0x00013448:    3ef58035    5..>    DCD    1056276533
        0x0001344c:    bf60d6f2    ..`.    DCD    3210794738
        0x00013450:    3ef4cfb1    ...>    DCD    1056231345
        0x00013454:    bf6106f2    ..a.    DCD    3210807026
        0x00013458:    3ef41f07    ...>    DCD    1056186119
        0x0001345c:    bf6136d0    .6a.    DCD    3210819280
        0x00013460:    3ef36e38    8n.>    DCD    1056140856
        0x00013464:    bf61668a    .fa.    DCD    3210831498
        0x00013468:    3ef2bd43    C..>    DCD    1056095555
        0x0001346c:    bf619622    ".a.    DCD    3210843682
        0x00013470:    3ef20c29    )..>    DCD    1056050217
        0x00013474:    bf61c598    ..a.    DCD    3210855832
        0x00013478:    3ef15aea    .Z.>    DCD    1056004842
        0x0001347c:    bf61f4ea    ..a.    DCD    3210867946
        0x00013480:    3ef0a985    ...>    DCD    1055959429
        0x00013484:    bf62241a    .$b.    DCD    3210880026
        0x00013488:    3eeff7fb    ...>    DCD    1055913979
        0x0001348c:    bf625326    &Sb.    DCD    3210892070
        0x00013490:    3eef464c    LF.>    DCD    1055868492
        0x00013494:    bf628210    ..b.    DCD    3210904080
        0x00013498:    3eee9479    y..>    DCD    1055822969
        0x0001349c:    bf62b0d7    ..b.    DCD    3210916055
        0x000134a0:    3eede280    ...>    DCD    1055777408
        0x000134a4:    bf62df7b    {.b.    DCD    3210927995
        0x000134a8:    3eed3063    c0.>    DCD    1055731811
        0x000134ac:    bf630dfc    ..c.    DCD    3210939900
        0x000134b0:    3eec7e21    !~.>    DCD    1055686177
        0x000134b4:    bf633c5a    Z<c.    DCD    3210951770
        0x000134b8:    3eebcbbb    ...>    DCD    1055640507
        0x000134bc:    bf636a95    .jc.    DCD    3210963605
        0x000134c0:    3eeb1930    0..>    DCD    1055594800
        0x000134c4:    bf6398ac    ..c.    DCD    3210975404
        0x000134c8:    3eea6681    .f.>    DCD    1055549057
        0x000134cc:    bf63c6a1    ..c.    DCD    3210987169
        0x000134d0:    3ee9b3ae    ...>    DCD    1055503278
        0x000134d4:    bf63f473    s.c.    DCD    3210998899
        0x000134d8:    3ee900b7    ...>    DCD    1055457463
        0x000134dc:    bf642221    !"d.    DCD    3211010593
        0x000134e0:    3ee84d9c    .M.>    DCD    1055411612
        0x000134e4:    bf644fac    .Od.    DCD    3211022252
        0x000134e8:    3ee79a5d    ]..>    DCD    1055365725
        0x000134ec:    bf647d14    .}d.    DCD    3211033876
        0x000134f0:    3ee6e6fb    ...>    DCD    1055319803
        0x000134f4:    bf64aa59    Y.d.    DCD    3211045465
        0x000134f8:    3ee63375    u3.>    DCD    1055273845
        0x000134fc:    bf64d77b    {.d.    DCD    3211057019
        0x00013500:    3ee57fcb    ...>    DCD    1055227851
        0x00013504:    bf650479    y.e.    DCD    3211068537
        0x00013508:    3ee4cbfe    ...>    DCD    1055181822
        0x0001350c:    bf653154    T1e.    DCD    3211080020
        0x00013510:    3ee4180e    ...>    DCD    1055135758
        0x00013514:    bf655e0b    .^e.    DCD    3211091467
        0x00013518:    3ee363fa    .c.>    DCD    1055089658
        0x0001351c:    bf658aa0    ..e.    DCD    3211102880
        0x00013520:    3ee2afc4    ...>    DCD    1055043524
        0x00013524:    bf65b710    ..e.    DCD    3211114256
        0x00013528:    3ee1fb6a    j..>    DCD    1054997354
        0x0001352c:    bf65e35e    ^.e.    DCD    3211125598
        0x00013530:    3ee146ee    .F.>    DCD    1054951150
        0x00013534:    bf660f88    ..f.    DCD    3211136904
        0x00013538:    3ee0924f    O..>    DCD    1054904911
        0x0001353c:    bf663b8e    .;f.    DCD    3211148174
        0x00013540:    3edfdd8d    ...>    DCD    1054858637
        0x00013544:    bf666771    qgf.    DCD    3211159409
        0x00013548:    3edf28a9    .(.>    DCD    1054812329
        0x0001354c:    bf669330    0.f.    DCD    3211170608
        0x00013550:    3ede73a2    .s.>    DCD    1054765986
        0x00013554:    bf66becc    ..f.    DCD    3211181772
        0x00013558:    3eddbe79    y..>    DCD    1054719609
        0x0001355c:    bf66ea45    E.f.    DCD    3211192901
        0x00013560:    3edd092e    ...>    DCD    1054673198
        0x00013564:    bf671599    ..g.    DCD    3211203993
        0x00013568:    3edc53c1    .S.>    DCD    1054626753
        0x0001356c:    bf6740ca    .@g.    DCD    3211215050
        0x00013570:    3edb9e31    1..>    DCD    1054580273
        0x00013574:    bf676bd8    .kg.    DCD    3211226072
        0x00013578:    3edae880    ...>    DCD    1054533760
        0x0001357c:    bf6796c1    ..g.    DCD    3211237057
        0x00013580:    3eda32ad    .2.>    DCD    1054487213
        0x00013584:    bf67c187    ..g.    DCD    3211248007
        0x00013588:    3ed97cb9    .|.>    DCD    1054440633
        0x0001358c:    bf67ec2a    *.g.    DCD    3211258922
        0x00013590:    3ed8c6a3    ...>    DCD    1054394019
        0x00013594:    bf6816a8    ..h.    DCD    3211269800
        0x00013598:    3ed8106b    k..>    DCD    1054347371
        0x0001359c:    bf684103    .Ah.    DCD    3211280643
        0x000135a0:    3ed75a13    .Z.>    DCD    1054300691
        0x000135a4:    bf686b39    9kh.    DCD    3211291449
        0x000135a8:    3ed6a399    ...>    DCD    1054253977
        0x000135ac:    bf68954c    L.h.    DCD    3211302220
        0x000135b0:    3ed5ecfd    ...>    DCD    1054207229
        0x000135b4:    bf68bf3c    <.h.    DCD    3211312956
        0x000135b8:    3ed53641    A6.>    DCD    1054160449
        0x000135bc:    bf68e907    ..h.    DCD    3211323655
        0x000135c0:    3ed47f64    d..>    DCD    1054113636
        0x000135c4:    bf6912ae    ..i.    DCD    3211334318
        0x000135c8:    3ed3c867    g..>    DCD    1054066791
        0x000135cc:    bf693c32    2<i.    DCD    3211344946
        0x000135d0:    3ed31148    H..>    DCD    1054019912
        0x000135d4:    bf696591    .ei.    DCD    3211355537
        0x000135d8:    3ed25a09    .Z.>    DCD    1053973001
        0x000135dc:    bf698ecc    ..i.    DCD    3211366092
        0x000135e0:    3ed1a2aa    ...>    DCD    1053926058
        0x000135e4:    bf69b7e4    ..i.    DCD    3211376612
        0x000135e8:    3ed0eb2a    *..>    DCD    1053879082
        0x000135ec:    bf69e0d7    ..i.    DCD    3211387095
        0x000135f0:    3ed0338a    .3.>    DCD    1053832074
        0x000135f4:    bf6a09a7    ..j.    DCD    3211397543
        0x000135f8:    3ecf7bca    .{.>    DCD    1053785034
        0x000135fc:    bf6a3252    R2j.    DCD    3211407954
        0x00013600:    3ecec3ea    ...>    DCD    1053737962
        0x00013604:    bf6a5ad9    .Zj.    DCD    3211418329
        0x00013608:    3ece0bea    ...>    DCD    1053690858
        0x0001360c:    bf6a833c    <.j.    DCD    3211428668
        0x00013610:    3ecd53ca    .S.>    DCD    1053643722
        0x00013614:    bf6aab7b    {.j.    DCD    3211438971
        0x00013618:    3ecc9b8b    ...>    DCD    1053596555
        0x0001361c:    bf6ad395    ..j.    DCD    3211449237
        0x00013620:    3ecbe32c    ,..>    DCD    1053549356
        0x00013624:    bf6afb8c    ..j.    DCD    3211459468
        0x00013628:    3ecb2aae    .*.>    DCD    1053502126
        0x0001362c:    bf6b235e    ^#k.    DCD    3211469662
        0x00013630:    3eca7210    .r.>    DCD    1053454864
        0x00013634:    bf6b4b0c    .Kk.    DCD    3211479820
        0x00013638:    3ec9b953    S..>    DCD    1053407571
        0x0001363c:    bf6b7295    .rk.    DCD    3211489941
        0x00013640:    3ec90077    w..>    DCD    1053360247
        0x00013644:    bf6b99fb    ..k.    DCD    3211500027
        0x00013648:    3ec8477c    |G.>    DCD    1053312892
        0x0001364c:    bf6bc13b    ;.k.    DCD    3211510075
        0x00013650:    3ec78e62    b..>    DCD    1053265506
        0x00013654:    bf6be858    X.k.    DCD    3211520088
        0x00013658:    3ec6d529    )..>    DCD    1053218089
        0x0001365c:    bf6c0f50    P.l.    DCD    3211530064
        0x00013660:    3ec61bd2    ...>    DCD    1053170642
        0x00013664:    bf6c3624    $6l.    DCD    3211540004
        0x00013668:    3ec5625c    \b.>    DCD    1053123164
        0x0001366c:    bf6c5cd4    .\l.    DCD    3211549908
        0x00013670:    3ec4a8c8    ...>    DCD    1053075656
        0x00013674:    bf6c835e    ^.l.    DCD    3211559774
        0x00013678:    3ec3ef15    ...>    DCD    1053028117
        0x0001367c:    bf6ca9c5    ..l.    DCD    3211569605
        0x00013680:    3ec33544    D5.>    DCD    1052980548
        0x00013684:    bf6cd007    ..l.    DCD    3211579399
        0x00013688:    3ec27b55    U{.>    DCD    1052932949
        0x0001368c:    bf6cf624    $.l.    DCD    3211589156
        0x00013690:    3ec1c148    H..>    DCD    1052885320
        0x00013694:    bf6d1c1d    ..m.    DCD    3211598877
        0x00013698:    3ec1071e    ...>    DCD    1052837662
        0x0001369c:    bf6d41f2    .Am.    DCD    3211608562
        0x000136a0:    3ec04cd5    .L.>    DCD    1052789973
        0x000136a4:    bf6d67a1    .gm.    DCD    3211618209
        0x000136a8:    3ebf926f    o..>    DCD    1052742255
        0x000136ac:    bf6d8d2d    -.m.    DCD    3211627821
        0x000136b0:    3ebed7eb    ...>    DCD    1052694507
        0x000136b4:    bf6db293    ..m.    DCD    3211637395
        0x000136b8:    3ebe1d4a    J..>    DCD    1052646730
        0x000136bc:    bf6dd7d5    ..m.    DCD    3211646933
        0x000136c0:    3ebd628b    .b.>    DCD    1052598923
        0x000136c4:    bf6dfcf2    ..m.    DCD    3211656434
        0x000136c8:    3ebca7af    ...>    DCD    1052551087
        0x000136cc:    bf6e21eb    .!n.    DCD    3211665899
        0x000136d0:    3ebbecb6    ...>    DCD    1052503222
        0x000136d4:    bf6e46be    .Fn.    DCD    3211675326
        0x000136d8:    3ebb31a0    .1.>    DCD    1052455328
        0x000136dc:    bf6e6b6d    mkn.    DCD    3211684717
        0x000136e0:    3eba766e    nv.>    DCD    1052407406
        0x000136e4:    bf6e8ff8    ..n.    DCD    3211694072
        0x000136e8:    3eb9bb1e    ...>    DCD    1052359454
        0x000136ec:    bf6eb45d    ].n.    DCD    3211703389
        0x000136f0:    3eb8ffb2    ...>    DCD    1052311474
        0x000136f4:    bf6ed89e    ..n.    DCD    3211712670
        0x000136f8:    3eb8442a    *D.>    DCD    1052263466
        0x000136fc:    bf6efcba    ..n.    DCD    3211721914
        0x00013700:    3eb78884    ...>    DCD    1052215428
        0x00013704:    bf6f20b0    . o.    DCD    3211731120
        0x00013708:    3eb6ccc3    ...>    DCD    1052167363
        0x0001370c:    bf6f4483    .Do.    DCD    3211740291
        0x00013710:    3eb610e6    ...>    DCD    1052119270
        0x00013714:    bf6f6830    0ho.    DCD    3211749424
        0x00013718:    3eb554ec    .T.>    DCD    1052071148
        0x0001371c:    bf6f8bb8    ..o.    DCD    3211758520
        0x00013720:    3eb498d6    ...>    DCD    1052022998
        0x00013724:    bf6faf1b    ..o.    DCD    3211767579
        0x00013728:    3eb3dca5    ...>    DCD    1051974821
        0x0001372c:    bf6fd25a    Z.o.    DCD    3211776602
        0x00013730:    3eb32058    X .>    DCD    1051926616
        0x00013734:    bf6ff573    s.o.    DCD    3211785587
        0x00013738:    3eb263ef    .c.>    DCD    1051878383
        0x0001373c:    bf701867    g.p.    DCD    3211794535
        0x00013740:    3eb1a76b    k..>    DCD    1051830123
        0x00013744:    bf703b37    7;p.    DCD    3211803447
        0x00013748:    3eb0eacb    ...>    DCD    1051781835
        0x0001374c:    bf705de1    .]p.    DCD    3211812321
        0x00013750:    3eb02e10    ...>    DCD    1051733520
        0x00013754:    bf708066    f.p.    DCD    3211821158
        0x00013758:    3eaf713a    :q.>    DCD    1051685178
        0x0001375c:    bf70a2c6    ..p.    DCD    3211829958
        0x00013760:    3eaeb449    I..>    DCD    1051636809
        0x00013764:    bf70c502    ..p.    DCD    3211838722
        0x00013768:    3eadf73c    <..>    DCD    1051588412
        0x0001376c:    bf70e717    ..p.    DCD    3211847447
        0x00013770:    3ead3a15    .:.>    DCD    1051539989
        0x00013774:    bf710908    ..q.    DCD    3211856136
        0x00013778:    3eac7cd4    .|.>    DCD    1051491540
        0x0001377c:    bf712ad4    .*q.    DCD    3211864788
        0x00013780:    3eabbf77    w..>    DCD    1051443063
        0x00013784:    bf714c7a    zLq.    DCD    3211873402
        0x00013788:    3eab0201    ...>    DCD    1051394561
        0x0001378c:    bf716dfb    .mq.    DCD    3211881979
        0x00013790:    3eaa446f    oD.>    DCD    1051346031
        0x00013794:    bf718f57    W.q.    DCD    3211890519
        0x00013798:    3ea986c4    ...>    DCD    1051297476
        0x0001379c:    bf71b08e    ..q.    DCD    3211899022
        0x000137a0:    3ea8c8fe    ...>    DCD    1051248894
        0x000137a4:    bf71d19f    ..q.    DCD    3211907487
        0x000137a8:    3ea80b1f    ...>    DCD    1051200287
        0x000137ac:    bf71f28c    ..q.    DCD    3211915916
        0x000137b0:    3ea74d25    %M.>    DCD    1051151653
        0x000137b4:    bf721352    R.r.    DCD    3211924306
        0x000137b8:    3ea68f12    ...>    DCD    1051102994
        0x000137bc:    bf7233f4    .3r.    DCD    3211932660
        0x000137c0:    3ea5d0e5    ...>    DCD    1051054309
        0x000137c4:    bf725470    pTr.    DCD    3211940976
        0x000137c8:    3ea5129f    ...>    DCD    1051005599
        0x000137cc:    bf7274c7    .tr.    DCD    3211949255
        0x000137d0:    3ea4543f    ?T.>    DCD    1050956863
        0x000137d4:    bf7294f8    ..r.    DCD    3211957496
        0x000137d8:    3ea395c5    ...>    DCD    1050908101
        0x000137dc:    bf72b504    ..r.    DCD    3211965700
        0x000137e0:    3ea2d733    3..>    DCD    1050859315
        0x000137e4:    bf72d4eb    ..r.    DCD    3211973867
        0x000137e8:    3ea21887    ...>    DCD    1050810503
        0x000137ec:    bf72f4ac    ..r.    DCD    3211981996
        0x000137f0:    3ea159c2    .Y.>    DCD    1050761666
        0x000137f4:    bf731447    G.s.    DCD    3211990087
        0x000137f8:    3ea09ae5    ...>    DCD    1050712805
        0x000137fc:    bf7333be    .3s.    DCD    3211998142
        0x00013800:    3e9fdbee    ...>    DCD    1050663918
        0x00013804:    bf73530e    .Ss.    DCD    3212006158
        0x00013808:    3e9f1cdf    ...>    DCD    1050615007
        0x0001380c:    bf737239    9rs.    DCD    3212014137
        0x00013810:    3e9e5db8    .].>    DCD    1050566072
        0x00013814:    bf73913f    ?.s.    DCD    3212022079
        0x00013818:    3e9d9e78    x..>    DCD    1050517112
        0x0001381c:    bf73b01f    ..s.    DCD    3212029983
        0x00013820:    3e9cdf20     ..>    DCD    1050468128
        0x00013824:    bf73ced9    ..s.    DCD    3212037849
        0x00013828:    3e9c1faf    ...>    DCD    1050419119
        0x0001382c:    bf73ed6e    n.s.    DCD    3212045678
        0x00013830:    3e9b6027    '`.>    DCD    1050370087
        0x00013834:    bf740bdd    ..t.    DCD    3212053469
        0x00013838:    3e9aa086    ...>    DCD    1050321030
        0x0001383c:    bf742a27    '*t.    DCD    3212061223
        0x00013840:    3e99e0ce    ...>    DCD    1050271950
        0x00013844:    bf74484b    KHt.    DCD    3212068939
        0x00013848:    3e9920fe    . .>    DCD    1050222846
        0x0001384c:    bf746649    Ift.    DCD    3212076617
        0x00013850:    3e986116    .a.>    DCD    1050173718
        0x00013854:    bf748422    ".t.    DCD    3212084258
        0x00013858:    3e97a117    ...>    DCD    1050124567
        0x0001385c:    bf74a1d5    ..t.    DCD    3212091861
        0x00013860:    3e96e100    ...>    DCD    1050075392
        0x00013864:    bf74bf62    b.t.    DCD    3212099426
        0x00013868:    3e9620d2    . .>    DCD    1050026194
        0x0001386c:    bf74dcc9    ..t.    DCD    3212106953
        0x00013870:    3e95608d    .`.>    DCD    1049976973
        0x00013874:    bf74fa0b    ..t.    DCD    3212114443
        0x00013878:    3e94a031    1..>    DCD    1049927729
        0x0001387c:    bf751727    '.u.    DCD    3212121895
        0x00013880:    3e93dfbf    ...>    DCD    1049878463
        0x00013884:    bf75341d    .4u.    DCD    3212129309
        0x00013888:    3e931f35    5..>    DCD    1049829173
        0x0001388c:    bf7550ed    .Pu.    DCD    3212136685
        0x00013890:    3e925e94    .^.>    DCD    1049779860
        0x00013894:    bf756d97    .mu.    DCD    3212144023
        0x00013898:    3e919ddd    ...>    DCD    1049730525
        0x0001389c:    bf758a1c    ..u.    DCD    3212151324
        0x000138a0:    3e90dd10    ...>    DCD    1049681168
        0x000138a4:    bf75a67b    {.u.    DCD    3212158587
        0x000138a8:    3e901c2c    ,..>    DCD    1049631788
        0x000138ac:    bf75c2b3    ..u.    DCD    3212165811
        0x000138b0:    3e8f5b32    2[.>    DCD    1049582386
        0x000138b4:    bf75dec6    ..u.    DCD    3212172998
        0x000138b8:    3e8e9a22    "..>    DCD    1049532962
        0x000138bc:    bf75fab3    ..u.    DCD    3212180147
        0x000138c0:    3e8dd8fc    ...>    DCD    1049483516
        0x000138c4:    bf76167a    z.v.    DCD    3212187258
        0x000138c8:    3e8d17c0    ...>    DCD    1049434048
        0x000138cc:    bf76321b    .2v.    DCD    3212194331
        0x000138d0:    3e8c566e    nV.>    DCD    1049384558
        0x000138d4:    bf764d97    .Mv.    DCD    3212201367
        0x000138d8:    3e8b9507    ...>    DCD    1049335047
        0x000138dc:    bf7668ec    .hv.    DCD    3212208364
        0x000138e0:    3e8ad38a    ...>    DCD    1049285514
        0x000138e4:    bf76841b    ..v.    DCD    3212215323
        0x000138e8:    3e8a11f8    ...>    DCD    1049235960
        0x000138ec:    bf769f24    $.v.    DCD    3212222244
        0x000138f0:    3e895050    PP.>    DCD    1049186384
        0x000138f4:    bf76ba07    ..v.    DCD    3212229127
        0x000138f8:    3e888e93    ...>    DCD    1049136787
        0x000138fc:    bf76d4c4    ..v.    DCD    3212235972
        0x00013900:    3e87ccc1    ...>    DCD    1049087169
        0x00013904:    bf76ef5b    [.v.    DCD    3212242779
        0x00013908:    3e870ada    ...>    DCD    1049037530
        0x0001390c:    bf7709cc    ..w.    DCD    3212249548
        0x00013910:    3e8648df    .H.>    DCD    1048987871
        0x00013914:    bf772417    .$w.    DCD    3212256279
        0x00013918:    3e8586ce    ...>    DCD    1048938190
        0x0001391c:    bf773e3c    <>w.    DCD    3212262972
        0x00013920:    3e84c4aa    ...>    DCD    1048888490
        0x00013924:    bf77583a    :Xw.    DCD    3212269626
        0x00013928:    3e840270    p..>    DCD    1048838768
        0x0001392c:    bf777213    .rw.    DCD    3212276243
        0x00013930:    3e834022    "@.>    DCD    1048789026
        0x00013934:    bf778bc5    ..w.    DCD    3212282821
        0x00013938:    3e827dc0    .}.>    DCD    1048739264
        0x0001393c:    bf77a551    Q.w.    DCD    3212289361
        0x00013940:    3e81bb4a    J..>    DCD    1048689482
        0x00013944:    bf77beb7    ..w.    DCD    3212295863
        0x00013948:    3e80f8c0    ...>    DCD    1048639680
        0x0001394c:    bf77d7f7    ..w.    DCD    3212302327
        0x00013950:    3e803622    "6.>    DCD    1048589858
        0x00013954:    bf77f110    ..w.    DCD    3212308752
        0x00013958:    3e7ee6e1    ..~>    DCD    1048504033
        0x0001395c:    bf780a04    ..x.    DCD    3212315140
        0x00013960:    3e7d6156    Va}>    DCD    1048404310
        0x00013964:    bf7822d1    ."x.    DCD    3212321489
        0x00013968:    3e7bdba4    ..{>    DCD    1048304548
        0x0001396c:    bf783b77    w;x.    DCD    3212327799
        0x00013970:    3e7a55cb    .Uz>    DCD    1048204747
        0x00013974:    bf7853f8    .Sx.    DCD    3212334072
        0x00013978:    3e78cfcc    ..x>    DCD    1048104908
        0x0001397c:    bf786c52    Rlx.    DCD    3212340306
        0x00013980:    3e7749a6    .Iw>    DCD    1048005030
        0x00013984:    bf788486    ..x.    DCD    3212346502
        0x00013988:    3e75c35a    Z.u>    DCD    1047905114
        0x0001398c:    bf789c93    ..x.    DCD    3212352659
        0x00013990:    3e743ce8    .<t>    DCD    1047805160
        0x00013994:    bf78b47b    {.x.    DCD    3212358779
        0x00013998:    3e72b651    Q.r>    DCD    1047705169
        0x0001399c:    bf78cc3b    ;.x.    DCD    3212364859
        0x000139a0:    3e712f94    ./q>    DCD    1047605140
        0x000139a4:    bf78e3d6    ..x.    DCD    3212370902
        0x000139a8:    3e6fa8b2    ..o>    DCD    1047505074
        0x000139ac:    bf78fb4a    J.x.    DCD    3212376906
        0x000139b0:    3e6e21ab    .!n>    DCD    1047404971
        0x000139b4:    bf791298    ..y.    DCD    3212382872
        0x000139b8:    3e6c9a7f    ..l>    DCD    1047304831
        0x000139bc:    bf7929bf    .)y.    DCD    3212388799
        0x000139c0:    3e6b132f    /.k>    DCD    1047204655
        0x000139c4:    bf7940c0    .@y.    DCD    3212394688
        0x000139c8:    3e698bba    ..i>    DCD    1047104442
        0x000139cc:    bf79579a    .Wy.    DCD    3212400538
        0x000139d0:    3e680422    ".h>    DCD    1047004194
        0x000139d4:    bf796e4e    Nny.    DCD    3212406350
        0x000139d8:    3e667c66    f|f>    DCD    1046903910
        0x000139dc:    bf7984dc    ..y.    DCD    3212412124
        0x000139e0:    3e64f486    ..d>    DCD    1046803590
        0x000139e4:    bf799b43    C.y.    DCD    3212417859
        0x000139e8:    3e636c83    .lc>    DCD    1046703235
        0x000139ec:    bf79b183    ..y.    DCD    3212423555
        0x000139f0:    3e61e45c    \.a>    DCD    1046602844
        0x000139f4:    bf79c79d    ..y.    DCD    3212429213
        0x000139f8:    3e605c13    .\`>    DCD    1046502419
        0x000139fc:    bf79dd91    ..y.    DCD    3212434833
        0x00013a00:    3e5ed3a8    ..^>    DCD    1046401960
        0x00013a04:    bf79f35e    ^.y.    DCD    3212440414
        0x00013a08:    3e5d4b1a    .K]>    DCD    1046301466
        0x00013a0c:    bf7a0904    ..z.    DCD    3212445956
        0x00013a10:    3e5bc26a    j.[>    DCD    1046200938
        0x00013a14:    bf7a1e84    ..z.    DCD    3212451460
        0x00013a18:    3e5a3997    .9Z>    DCD    1046100375
        0x00013a1c:    bf7a33dd    .3z.    DCD    3212456925
        0x00013a20:    3e58b0a4    ..X>    DCD    1045999780
        0x00013a24:    bf7a4910    .Iz.    DCD    3212462352
        0x00013a28:    3e57278f    .'W>    DCD    1045899151
        0x00013a2c:    bf7a5e1c    .^z.    DCD    3212467740
        0x00013a30:    3e559e58    X.U>    DCD    1045798488
        0x00013a34:    bf7a7302    .sz.    DCD    3212473090
        0x00013a38:    3e541501    ..T>    DCD    1045697793
        0x00013a3c:    bf7a87c1    ..z.    DCD    3212478401
        0x00013a40:    3e528b89    ..R>    DCD    1045597065
        0x00013a44:    bf7a9c59    Y.z.    DCD    3212483673
        0x00013a48:    3e5101f1    ..Q>    DCD    1045496305
        0x00013a4c:    bf7ab0cb    ..z.    DCD    3212488907
        0x00013a50:    3e4f7838    8xO>    DCD    1045395512
        0x00013a54:    bf7ac516    ..z.    DCD    3212494102
        0x00013a58:    3e4dee60    `.M>    DCD    1045294688
        0x00013a5c:    bf7ad93a    :.z.    DCD    3212499258
        0x00013a60:    3e4c6467    gdL>    DCD    1045193831
        0x00013a64:    bf7aed37    7.z.    DCD    3212504375
        0x00013a68:    3e4ada4f    O.J>    DCD    1045092943
        0x00013a6c:    bf7b010e    ..{.    DCD    3212509454
        0x00013a70:    3e495018    .PI>    DCD    1044992024
        0x00013a74:    bf7b14be    ..{.    DCD    3212514494
        0x00013a78:    3e47c5c2    ..G>    DCD    1044891074
        0x00013a7c:    bf7b2848    H({.    DCD    3212519496
        0x00013a80:    3e463b4d    M;F>    DCD    1044790093
        0x00013a84:    bf7b3bab    .;{.    DCD    3212524459
        0x00013a88:    3e44b0b9    ..D>    DCD    1044689081
        0x00013a8c:    bf7b4ee7    .N{.    DCD    3212529383
        0x00013a90:    3e432607    .&C>    DCD    1044588039
        0x00013a94:    bf7b61fc    .a{.    DCD    3212534268
        0x00013a98:    3e419b37    7.A>    DCD    1044486967
        0x00013a9c:    bf7b74ea    .t{.    DCD    3212539114
        0x00013aa0:    3e401049    I.@>    DCD    1044385865
        0x00013aa4:    bf7b87b2    ..{.    DCD    3212543922
        0x00013aa8:    3e3e853e    >.>>    DCD    1044284734
        0x00013aac:    bf7b9a53    S.{.    DCD    3212548691
        0x00013ab0:    3e3cfa15    ..<>    DCD    1044183573
        0x00013ab4:    bf7baccd    ..{.    DCD    3212553421
        0x00013ab8:    3e3b6ecf    .n;>    DCD    1044082383
        0x00013abc:    bf7bbf20     .{.    DCD    3212558112
        0x00013ac0:    3e39e36c    l.9>    DCD    1043981164
        0x00013ac4:    bf7bd14d    M.{.    DCD    3212562765
        0x00013ac8:    3e3857ec    .W8>    DCD    1043879916
        0x00013acc:    bf7be353    S.{.    DCD    3212567379
        0x00013ad0:    3e36cc50    P.6>    DCD    1043778640
        0x00013ad4:    bf7bf531    1.{.    DCD    3212571953
        0x00013ad8:    3e354098    .@5>    DCD    1043677336
        0x00013adc:    bf7c06e9    ..|.    DCD    3212576489
        0x00013ae0:    3e33b4c4    ..3>    DCD    1043576004
        0x00013ae4:    bf7c187a    z.|.    DCD    3212580986
        0x00013ae8:    3e3228d4    .(2>    DCD    1043474644
        0x00013aec:    bf7c29e5    .)|.    DCD    3212585445
        0x00013af0:    3e309cc9    ..0>    DCD    1043373257
        0x00013af4:    bf7c3b28    (;|.    DCD    3212589864
        0x00013af8:    3e2f10a2    ../>    DCD    1043271842
        0x00013afc:    bf7c4c44    DL|.    DCD    3212594244
        0x00013b00:    3e2d8461    a.->    DCD    1043170401
        0x00013b04:    bf7c5d3a    :]|.    DCD    3212598586
        0x00013b08:    3e2bf804    ..+>    DCD    1043068932
        0x00013b0c:    bf7c6e08    .n|.    DCD    3212602888
        0x00013b10:    3e2a6b8d    .k*>    DCD    1042967437
        0x00013b14:    bf7c7eb0    .~|.    DCD    3212607152
        0x00013b18:    3e28defc    ..(>    DCD    1042865916
        0x00013b1c:    bf7c8f31    1.|.    DCD    3212611377
        0x00013b20:    3e275251    QR'>    DCD    1042764369
        0x00013b24:    bf7c9f8a    ..|.    DCD    3212615562
        0x00013b28:    3e25c58c    ..%>    DCD    1042662796
        0x00013b2c:    bf7cafbd    ..|.    DCD    3212619709
        0x00013b30:    3e2438ad    .8$>    DCD    1042561197
        0x00013b34:    bf7cbfc9    ..|.    DCD    3212623817
        0x00013b38:    3e22abb6    ..">    DCD    1042459574
        0x00013b3c:    bf7ccfae    ..|.    DCD    3212627886
        0x00013b40:    3e211ea5    ..!>    DCD    1042357925
        0x00013b44:    bf7cdf6c    l.|.    DCD    3212631916
        0x00013b48:    3e1f917b    {..>    DCD    1042256251
        0x00013b4c:    bf7cef03    ..|.    DCD    3212635907
        0x00013b50:    3e1e0438    8..>    DCD    1042154552
        0x00013b54:    bf7cfe73    s.|.    DCD    3212639859
        0x00013b58:    3e1c76de    .v.>    DCD    1042052830
        0x00013b5c:    bf7d0dbc    ..}.    DCD    3212643772
        0x00013b60:    3e1ae96b    k..>    DCD    1041951083
        0x00013b64:    bf7d1cdd    ..}.    DCD    3212647645
        0x00013b68:    3e195be0    .[.>    DCD    1041849312
        0x00013b6c:    bf7d2bd8    .+}.    DCD    3212651480
        0x00013b70:    3e17ce3d    =..>    DCD    1041747517
        0x00013b74:    bf7d3aac    .:}.    DCD    3212655276
        0x00013b78:    3e164083    .@.>    DCD    1041645699
        0x00013b7c:    bf7d4959    YI}.    DCD    3212659033
        0x00013b80:    3e14b2b2    ...>    DCD    1041543858
        0x00013b84:    bf7d57de    .W}.    DCD    3212662750
        0x00013b88:    3e1324ca    .$.>    DCD    1041441994
        0x00013b8c:    bf7d663d    =f}.    DCD    3212666429
        0x00013b90:    3e1196cc    ...>    DCD    1041340108
        0x00013b94:    bf7d7474    tt}.    DCD    3212670068
        0x00013b98:    3e1008b7    ...>    DCD    1041238199
        0x00013b9c:    bf7d8285    ..}.    DCD    3212673669
        0x00013ba0:    3e0e7a8b    .z.>    DCD    1041136267
        0x00013ba4:    bf7d906e    n.}.    DCD    3212677230
        0x00013ba8:    3e0cec4a    J..>    DCD    1041034314
        0x00013bac:    bf7d9e30    0.}.    DCD    3212680752
        0x00013bb0:    3e0b5df3    .].>    DCD    1040932339
        0x00013bb4:    bf7dabcc    ..}.    DCD    3212684236
        0x00013bb8:    3e09cf86    ...>    DCD    1040830342
        0x00013bbc:    bf7db940    @.}.    DCD    3212687680
        0x00013bc0:    3e084105    .A.>    DCD    1040728325
        0x00013bc4:    bf7dc68c    ..}.    DCD    3212691084
        0x00013bc8:    3e06b26e    n..>    DCD    1040626286
        0x00013bcc:    bf7dd3b2    ..}.    DCD    3212694450
        0x00013bd0:    3e0523c2    .#.>    DCD    1040524226
        0x00013bd4:    bf7de0b1    ..}.    DCD    3212697777
        0x00013bd8:    3e039502    ...>    DCD    1040422146
        0x00013bdc:    bf7ded88    ..}.    DCD    3212701064
        0x00013be0:    3e02062e    ...>    DCD    1040320046
        0x00013be4:    bf7dfa38    8.}.    DCD    3212704312
        0x00013be8:    3e007745    Ew.>    DCD    1040217925
        0x00013bec:    bf7e06c2    ..~.    DCD    3212707522
        0x00013bf0:    3dfdd092    ...=    DCD    1040044178
        0x00013bf4:    bf7e1324    $.~.    DCD    3212710692
        0x00013bf8:    3dfab273    s..=    DCD    1039839859
        0x00013bfc:    bf7e1f5e    ^.~.    DCD    3212713822
        0x00013c00:    3df7942c    ,..=    DCD    1039635500
        0x00013c04:    bf7e2b72    r+~.    DCD    3212716914
        0x00013c08:    3df475c0    .u.=    DCD    1039431104
        0x00013c0c:    bf7e375e    ^7~.    DCD    3212719966
        0x00013c10:    3df1572e    .W.=    DCD    1039226670
        0x00013c14:    bf7e4323    #C~.    DCD    3212722979
        0x00013c18:    3dee3876    v8.=    DCD    1039022198
        0x00013c1c:    bf7e4ec1    .N~.    DCD    3212725953
        0x00013c20:    3deb199a    ...=    DCD    1038817690
        0x00013c24:    bf7e5a38    8Z~.    DCD    3212728888
        0x00013c28:    3de7fa9a    ...=    DCD    1038613146
        0x00013c2c:    bf7e6588    .e~.    DCD    3212731784
        0x00013c30:    3de4db76    v..=    DCD    1038408566
        0x00013c34:    bf7e70b0    .p~.    DCD    3212734640
        0x00013c38:    3de1bc2e    ...=    DCD    1038203950
        0x00013c3c:    bf7e7bb1    .{~.    DCD    3212737457
        0x00013c40:    3dde9cc4    ...=    DCD    1037999300
        0x00013c44:    bf7e868b    ..~.    DCD    3212740235
        0x00013c48:    3ddb7d37    7}.=    DCD    1037794615
        0x00013c4c:    bf7e913d    =.~.    DCD    3212742973
        0x00013c50:    3dd85d89    .].=    DCD    1037589897
        0x00013c54:    bf7e9bc9    ..~.    DCD    3212745673
        0x00013c58:    3dd53db9    .=.=    DCD    1037385145
        0x00013c5c:    bf7ea62d    -.~.    DCD    3212748333
        0x00013c60:    3dd21dc8    ...=    DCD    1037180360
        0x00013c64:    bf7eb069    i.~.    DCD    3212750953
        0x00013c68:    3dcefdb7    ...=    DCD    1036975543
        0x00013c6c:    bf7eba7f    ..~.    DCD    3212753535
        0x00013c70:    3dcbdd86    ...=    DCD    1036770694
        0x00013c74:    bf7ec46d    m.~.    DCD    3212756077
        0x00013c78:    3dc8bd36    6..=    DCD    1036565814
        0x00013c7c:    bf7ece34    4.~.    DCD    3212758580
        0x00013c80:    3dc59cc6    ...=    DCD    1036360902
        0x00013c84:    bf7ed7d4    ..~.    DCD    3212761044
        0x00013c88:    3dc27c39    9|.=    DCD    1036155961
        0x00013c8c:    bf7ee14c    L.~.    DCD    3212763468
        0x00013c90:    3dbf5b8d    .[.=    DCD    1035950989
        0x00013c94:    bf7eea9d    ..~.    DCD    3212765853
        0x00013c98:    3dbc3ac3    .:.=    DCD    1035745987
        0x00013c9c:    bf7ef3c7    ..~.    DCD    3212768199
        0x00013ca0:    3db919dd    ...=    DCD    1035540957
        0x00013ca4:    bf7efcc9    ..~.    DCD    3212770505
        0x00013ca8:    3db5f8da    ...=    DCD    1035335898
        0x00013cac:    bf7f05a4    ....    DCD    3212772772
        0x00013cb0:    3db2d7bb    ...=    DCD    1035130811
        0x00013cb4:    bf7f0e58    X...    DCD    3212775000
        0x00013cb8:    3dafb680    ...=    DCD    1034925696
        0x00013cbc:    bf7f16e4    ....    DCD    3212777188
        0x00013cc0:    3dac952b    +..=    DCD    1034720555
        0x00013cc4:    bf7f1f49    I...    DCD    3212779337
        0x00013cc8:    3da973ba    .s.=    DCD    1034515386
        0x00013ccc:    bf7f2787    .'..    DCD    3212781447
        0x00013cd0:    3da65230    0R.=    DCD    1034310192
        0x00013cd4:    bf7f2f9d    ./..    DCD    3212783517
        0x00013cd8:    3da3308c    .0.=    DCD    1034104972
        0x00013cdc:    bf7f378d    .7..    DCD    3212785549
        0x00013ce0:    3da00ecf    ...=    DCD    1033899727
        0x00013ce4:    bf7f3f54    T?..    DCD    3212787540
        0x00013ce8:    3d9cecf9    ...=    DCD    1033694457
        0x00013cec:    bf7f46f4    .F..    DCD    3212789492
        0x00013cf0:    3d99cb0a    ...=    DCD    1033489162
        0x00013cf4:    bf7f4e6d    mN..    DCD    3212791405
        0x00013cf8:    3d96a905    ...=    DCD    1033283845
        0x00013cfc:    bf7f55bf    .U..    DCD    3212793279
        0x00013d00:    3d9386e7    ...=    DCD    1033078503
        0x00013d04:    bf7f5ce9    .\..    DCD    3212795113
        0x00013d08:    3d9064b4    .d.=    DCD    1032873140
        0x00013d0c:    bf7f63ec    .c..    DCD    3212796908
        0x00013d10:    3d8d426a    jB.=    DCD    1032667754
        0x00013d14:    bf7f6ac7    .j..    DCD    3212798663
        0x00013d18:    3d8a200a    . .=    DCD    1032462346
        0x00013d1c:    bf7f717b    {q..    DCD    3212800379
        0x00013d20:    3d86fd94    ...=    DCD    1032256916
        0x00013d24:    bf7f7808    .x..    DCD    3212802056
        0x00013d28:    3d83db0a    ...=    DCD    1032051466
        0x00013d2c:    bf7f7e6d    m~..    DCD    3212803693
        0x00013d30:    3d80b86c    l..=    DCD    1031845996
        0x00013d34:    bf7f84ab    ....    DCD    3212805291
        0x00013d38:    3d7b2b74    t+{=    DCD    1031482228
        0x00013d3c:    bf7f8ac2    ....    DCD    3212806850
        0x00013d40:    3d74e5e9    ..t=    DCD    1031071209
        0x00013d44:    bf7f90b1    ....    DCD    3212808369
        0x00013d48:    3d6ea038    8.n=    DCD    1030660152
        0x00013d4c:    bf7f9678    x...    DCD    3212809848
        0x00013d50:    3d685a62    bZh=    DCD    1030249058
        0x00013d54:    bf7f9c18    ....    DCD    3212811288
        0x00013d58:    3d621468    h.b=    DCD    1029837928
        0x00013d5c:    bf7fa191    ....    DCD    3212812689
        0x00013d60:    3d5bce4c    L.[=    DCD    1029426764
        0x00013d64:    bf7fa6e3    ....    DCD    3212814051
        0x00013d68:    3d55880e    ..U=    DCD    1029015566
        0x00013d6c:    bf7fac0d    ....    DCD    3212815373
        0x00013d70:    3d4f41af    .AO=    DCD    1028604335
        0x00013d74:    bf7fb10f    ....    DCD    3212816655
        0x00013d78:    3d48fb2f    /.H=    DCD    1028193071
        0x00013d7c:    bf7fb5ea    ....    DCD    3212817898
        0x00013d80:    3d42b491    ..B=    DCD    1027781777
        0x00013d84:    bf7fba9e    ....    DCD    3212819102
        0x00013d88:    3d3c6dd5    .m<=    DCD    1027370453
        0x00013d8c:    bf7fbf2a    *...    DCD    3212820266
        0x00013d90:    3d3626fc    .&6=    DCD    1026959100
        0x00013d94:    bf7fc38f    ....    DCD    3212821391
        0x00013d98:    3d2fe007    ../=    DCD    1026547719
        0x00013d9c:    bf7fc7cc    ....    DCD    3212822476
        0x00013da0:    3d2998f6    ..)=    DCD    1026136310
        0x00013da4:    bf7fcbe2    ....    DCD    3212823522
        0x00013da8:    3d2351cc    .Q#=    DCD    1025724876
        0x00013dac:    bf7fcfd1    ....    DCD    3212824529
        0x00013db0:    3d1d0a88    ...=    DCD    1025313416
        0x00013db4:    bf7fd398    ....    DCD    3212825496
        0x00013db8:    3d16c32c    ,..=    DCD    1024901932
        0x00013dbc:    bf7fd737    7...    DCD    3212826423
        0x00013dc0:    3d107bb8    .{.=    DCD    1024490424
        0x00013dc4:    bf7fdaaf    ....    DCD    3212827311
        0x00013dc8:    3d0a342f    /4.=    DCD    1024078895
        0x00013dcc:    bf7fde00    ....    DCD    3212828160
        0x00013dd0:    3d03ec90    ...=    DCD    1023667344
        0x00013dd4:    bf7fe129    )...    DCD    3212828969
        0x00013dd8:    3cfb49b9    .I.<    DCD    1023101369
        0x00013ddc:    bf7fe42b    +...    DCD    3212829739
        0x00013de0:    3ceeba2d    -..<    DCD    1022278189
        0x00013de4:    bf7fe705    ....    DCD    3212830469
        0x00013de8:    3ce22a7b    {*.<    DCD    1021454971
        0x00013dec:    bf7fe9b8    ....    DCD    3212831160
        0x00013df0:    3cd59aa6    ...<    DCD    1020631718
        0x00013df4:    bf7fec43    C...    DCD    3212831811
        0x00013df8:    3cc90ab0    ...<    DCD    1019808432
        0x00013dfc:    bf7feea7    ....    DCD    3212832423
        0x00013e00:    3cbc7a9b    .z.<    DCD    1018985115
        0x00013e04:    bf7ff0e3    ....    DCD    3212832995
        0x00013e08:    3cafea69    i..<    DCD    1018161769
        0x00013e0c:    bf7ff2f8    ....    DCD    3212833528
        0x00013e10:    3ca35a1c    .Z.<    DCD    1017338396
        0x00013e14:    bf7ff4e6    ....    DCD    3212834022
        0x00013e18:    3c96c9b6    ...<    DCD    1016514998
        0x00013e1c:    bf7ff6ac    ....    DCD    3212834476
        0x00013e20:    3c8a3938    89.<    DCD    1015691576
        0x00013e24:    bf7ff84a    J...    DCD    3212834890
        0x00013e28:    3c7b514b    KQ{<    DCD    1014714699
        0x00013e2c:    bf7ff9c1    ....    DCD    3212835265
        0x00013e30:    3c623000    .0b<    DCD    1013067776
        0x00013e34:    bf7ffb11    ....    DCD    3212835601
        0x00013e38:    3c490e90    ..I<    DCD    1011420816
        0x00013e3c:    bf7ffc39    9...    DCD    3212835897
        0x00013e40:    3c2fed02    ../<    DCD    1009773826
        0x00013e44:    bf7ffd39    9...    DCD    3212836153
        0x00013e48:    3c16cb59    Y..<    DCD    1008126809
        0x00013e4c:    bf7ffe13    ....    DCD    3212836371
        0x00013e50:    3bfb5330    0S.;    DCD    1006326576
        0x00013e54:    bf7ffec4    ....    DCD    3212836548
        0x00013e58:    3bc90f89    ...;    DCD    1003032457
        0x00013e5c:    bf7fff4e    N...    DCD    3212836686
        0x00013e60:    3b96cbc1    ...;    DCD    999738305
        0x00013e64:    bf7fffb1    ....    DCD    3212836785
        0x00013e68:    3b490fc7    ..I;    DCD    994643911
        0x00013e6c:    bf7fffec    ....    DCD    3212836844
        0x00013e70:    3ac90fd4    ...:    DCD    986255316
        0x00013e74:    bf800000    ....    DCD    3212836864
        0x00013e78:    00000000    ....    DCD    0
        0x00013e7c:    bf7fffec    ....    DCD    3212836844
        0x00013e80:    bac90fd4    ....    DCD    3133738964
        0x00013e84:    bf7fffb1    ....    DCD    3212836785
        0x00013e88:    bb490fc7    ..I.    DCD    3142127559
        0x00013e8c:    bf7fff4e    N...    DCD    3212836686
        0x00013e90:    bb96cbc1    ....    DCD    3147221953
        0x00013e94:    bf7ffec4    ....    DCD    3212836548
        0x00013e98:    bbc90f89    ....    DCD    3150516105
        0x00013e9c:    bf7ffe13    ....    DCD    3212836371
        0x00013ea0:    bbfb5330    0S..    DCD    3153810224
        0x00013ea4:    bf7ffd39    9...    DCD    3212836153
        0x00013ea8:    bc16cb59    Y...    DCD    3155610457
        0x00013eac:    bf7ffc39    9...    DCD    3212835897
        0x00013eb0:    bc2fed02    ../.    DCD    3157257474
        0x00013eb4:    bf7ffb11    ....    DCD    3212835601
        0x00013eb8:    bc490e90    ..I.    DCD    3158904464
        0x00013ebc:    bf7ff9c1    ....    DCD    3212835265
        0x00013ec0:    bc623000    .0b.    DCD    3160551424
        0x00013ec4:    bf7ff84a    J...    DCD    3212834890
        0x00013ec8:    bc7b514b    KQ{.    DCD    3162198347
        0x00013ecc:    bf7ff6ac    ....    DCD    3212834476
        0x00013ed0:    bc8a3938    89..    DCD    3163175224
        0x00013ed4:    bf7ff4e6    ....    DCD    3212834022
        0x00013ed8:    bc96c9b6    ....    DCD    3163998646
        0x00013edc:    bf7ff2f8    ....    DCD    3212833528
        0x00013ee0:    bca35a1c    .Z..    DCD    3164822044
        0x00013ee4:    bf7ff0e3    ....    DCD    3212832995
        0x00013ee8:    bcafea69    i...    DCD    3165645417
        0x00013eec:    bf7feea7    ....    DCD    3212832423
        0x00013ef0:    bcbc7a9b    .z..    DCD    3166468763
        0x00013ef4:    bf7fec43    C...    DCD    3212831811
        0x00013ef8:    bcc90ab0    ....    DCD    3167292080
        0x00013efc:    bf7fe9b8    ....    DCD    3212831160
        0x00013f00:    bcd59aa6    ....    DCD    3168115366
        0x00013f04:    bf7fe705    ....    DCD    3212830469
        0x00013f08:    bce22a7b    {*..    DCD    3168938619
        0x00013f0c:    bf7fe42b    +...    DCD    3212829739
        0x00013f10:    bceeba2d    -...    DCD    3169761837
        0x00013f14:    bf7fe129    )...    DCD    3212828969
        0x00013f18:    bcfb49b9    .I..    DCD    3170585017
        0x00013f1c:    bf7fde00    ....    DCD    3212828160
        0x00013f20:    bd03ec90    ....    DCD    3171150992
        0x00013f24:    bf7fdaaf    ....    DCD    3212827311
        0x00013f28:    bd0a342f    /4..    DCD    3171562543
        0x00013f2c:    bf7fd737    7...    DCD    3212826423
        0x00013f30:    bd107bb8    .{..    DCD    3171974072
        0x00013f34:    bf7fd398    ....    DCD    3212825496
        0x00013f38:    bd16c32c    ,...    DCD    3172385580
        0x00013f3c:    bf7fcfd1    ....    DCD    3212824529
        0x00013f40:    bd1d0a88    ....    DCD    3172797064
        0x00013f44:    bf7fcbe2    ....    DCD    3212823522
        0x00013f48:    bd2351cc    .Q#.    DCD    3173208524
        0x00013f4c:    bf7fc7cc    ....    DCD    3212822476
        0x00013f50:    bd2998f6    ..).    DCD    3173619958
        0x00013f54:    bf7fc38f    ....    DCD    3212821391
        0x00013f58:    bd2fe007    ../.    DCD    3174031367
        0x00013f5c:    bf7fbf2a    *...    DCD    3212820266
        0x00013f60:    bd3626fc    .&6.    DCD    3174442748
        0x00013f64:    bf7fba9e    ....    DCD    3212819102
        0x00013f68:    bd3c6dd5    .m<.    DCD    3174854101
        0x00013f6c:    bf7fb5ea    ....    DCD    3212817898
        0x00013f70:    bd42b491    ..B.    DCD    3175265425
        0x00013f74:    bf7fb10f    ....    DCD    3212816655
        0x00013f78:    bd48fb2f    /.H.    DCD    3175676719
        0x00013f7c:    bf7fac0d    ....    DCD    3212815373
        0x00013f80:    bd4f41af    .AO.    DCD    3176087983
        0x00013f84:    bf7fa6e3    ....    DCD    3212814051
        0x00013f88:    bd55880e    ..U.    DCD    3176499214
        0x00013f8c:    bf7fa191    ....    DCD    3212812689
        0x00013f90:    bd5bce4c    L.[.    DCD    3176910412
        0x00013f94:    bf7f9c18    ....    DCD    3212811288
        0x00013f98:    bd621468    h.b.    DCD    3177321576
        0x00013f9c:    bf7f9678    x...    DCD    3212809848
        0x00013fa0:    bd685a62    bZh.    DCD    3177732706
        0x00013fa4:    bf7f90b1    ....    DCD    3212808369
        0x00013fa8:    bd6ea038    8.n.    DCD    3178143800
        0x00013fac:    bf7f8ac2    ....    DCD    3212806850
        0x00013fb0:    bd74e5e9    ..t.    DCD    3178554857
        0x00013fb4:    bf7f84ab    ....    DCD    3212805291
        0x00013fb8:    bd7b2b74    t+{.    DCD    3178965876
        0x00013fbc:    bf7f7e6d    m~..    DCD    3212803693
        0x00013fc0:    bd80b86c    l...    DCD    3179329644
        0x00013fc4:    bf7f7808    .x..    DCD    3212802056
        0x00013fc8:    bd83db0a    ....    DCD    3179535114
        0x00013fcc:    bf7f717b    {q..    DCD    3212800379
        0x00013fd0:    bd86fd94    ....    DCD    3179740564
        0x00013fd4:    bf7f6ac7    .j..    DCD    3212798663
        0x00013fd8:    bd8a200a    . ..    DCD    3179945994
        0x00013fdc:    bf7f63ec    .c..    DCD    3212796908
        0x00013fe0:    bd8d426a    jB..    DCD    3180151402
        0x00013fe4:    bf7f5ce9    .\..    DCD    3212795113
        0x00013fe8:    bd9064b4    .d..    DCD    3180356788
        0x00013fec:    bf7f55bf    .U..    DCD    3212793279
        0x00013ff0:    bd9386e7    ....    DCD    3180562151
        0x00013ff4:    bf7f4e6d    mN..    DCD    3212791405
        0x00013ff8:    bd96a905    ....    DCD    3180767493
        0x00013ffc:    bf7f46f4    .F..    DCD    3212789492
        0x00014000:    bd99cb0a    ....    DCD    3180972810
        0x00014004:    bf7f3f54    T?..    DCD    3212787540
        0x00014008:    bd9cecf9    ....    DCD    3181178105
        0x0001400c:    bf7f378d    .7..    DCD    3212785549
        0x00014010:    bda00ecf    ....    DCD    3181383375
        0x00014014:    bf7f2f9d    ./..    DCD    3212783517
        0x00014018:    bda3308c    .0..    DCD    3181588620
        0x0001401c:    bf7f2787    .'..    DCD    3212781447
        0x00014020:    bda65230    0R..    DCD    3181793840
        0x00014024:    bf7f1f49    I...    DCD    3212779337
        0x00014028:    bda973ba    .s..    DCD    3181999034
        0x0001402c:    bf7f16e4    ....    DCD    3212777188
        0x00014030:    bdac952b    +...    DCD    3182204203
        0x00014034:    bf7f0e58    X...    DCD    3212775000
        0x00014038:    bdafb680    ....    DCD    3182409344
        0x0001403c:    bf7f05a4    ....    DCD    3212772772
        0x00014040:    bdb2d7bb    ....    DCD    3182614459
        0x00014044:    bf7efcc9    ..~.    DCD    3212770505
        0x00014048:    bdb5f8da    ....    DCD    3182819546
        0x0001404c:    bf7ef3c7    ..~.    DCD    3212768199
        0x00014050:    bdb919dd    ....    DCD    3183024605
        0x00014054:    bf7eea9d    ..~.    DCD    3212765853
        0x00014058:    bdbc3ac3    .:..    DCD    3183229635
        0x0001405c:    bf7ee14c    L.~.    DCD    3212763468
        0x00014060:    bdbf5b8d    .[..    DCD    3183434637
        0x00014064:    bf7ed7d4    ..~.    DCD    3212761044
        0x00014068:    bdc27c39    9|..    DCD    3183639609
        0x0001406c:    bf7ece34    4.~.    DCD    3212758580
        0x00014070:    bdc59cc6    ....    DCD    3183844550
        0x00014074:    bf7ec46d    m.~.    DCD    3212756077
        0x00014078:    bdc8bd36    6...    DCD    3184049462
        0x0001407c:    bf7eba7f    ..~.    DCD    3212753535
        0x00014080:    bdcbdd86    ....    DCD    3184254342
        0x00014084:    bf7eb069    i.~.    DCD    3212750953
        0x00014088:    bdcefdb7    ....    DCD    3184459191
        0x0001408c:    bf7ea62d    -.~.    DCD    3212748333
        0x00014090:    bdd21dc8    ....    DCD    3184664008
        0x00014094:    bf7e9bc9    ..~.    DCD    3212745673
        0x00014098:    bdd53db9    .=..    DCD    3184868793
        0x0001409c:    bf7e913d    =.~.    DCD    3212742973
        0x000140a0:    bdd85d89    .]..    DCD    3185073545
        0x000140a4:    bf7e868b    ..~.    DCD    3212740235
        0x000140a8:    bddb7d37    7}..    DCD    3185278263
        0x000140ac:    bf7e7bb1    .{~.    DCD    3212737457
        0x000140b0:    bdde9cc4    ....    DCD    3185482948
        0x000140b4:    bf7e70b0    .p~.    DCD    3212734640
        0x000140b8:    bde1bc2e    ....    DCD    3185687598
        0x000140bc:    bf7e6588    .e~.    DCD    3212731784
        0x000140c0:    bde4db76    v...    DCD    3185892214
        0x000140c4:    bf7e5a38    8Z~.    DCD    3212728888
        0x000140c8:    bde7fa9a    ....    DCD    3186096794
        0x000140cc:    bf7e4ec1    .N~.    DCD    3212725953
        0x000140d0:    bdeb199a    ....    DCD    3186301338
        0x000140d4:    bf7e4323    #C~.    DCD    3212722979
        0x000140d8:    bdee3876    v8..    DCD    3186505846
        0x000140dc:    bf7e375e    ^7~.    DCD    3212719966
        0x000140e0:    bdf1572e    .W..    DCD    3186710318
        0x000140e4:    bf7e2b72    r+~.    DCD    3212716914
        0x000140e8:    bdf475c0    .u..    DCD    3186914752
        0x000140ec:    bf7e1f5e    ^.~.    DCD    3212713822
        0x000140f0:    bdf7942c    ,...    DCD    3187119148
        0x000140f4:    bf7e1324    $.~.    DCD    3212710692
        0x000140f8:    bdfab273    s...    DCD    3187323507
        0x000140fc:    bf7e06c2    ..~.    DCD    3212707522
        0x00014100:    bdfdd092    ....    DCD    3187527826
        0x00014104:    bf7dfa38    8.}.    DCD    3212704312
        0x00014108:    be007745    Ew..    DCD    3187701573
        0x0001410c:    bf7ded88    ..}.    DCD    3212701064
        0x00014110:    be02062e    ....    DCD    3187803694
        0x00014114:    bf7de0b1    ..}.    DCD    3212697777
        0x00014118:    be039502    ....    DCD    3187905794
        0x0001411c:    bf7dd3b2    ..}.    DCD    3212694450
        0x00014120:    be0523c2    .#..    DCD    3188007874
        0x00014124:    bf7dc68c    ..}.    DCD    3212691084
        0x00014128:    be06b26e    n...    DCD    3188109934
        0x0001412c:    bf7db940    @.}.    DCD    3212687680
        0x00014130:    be084105    .A..    DCD    3188211973
        0x00014134:    bf7dabcc    ..}.    DCD    3212684236
        0x00014138:    be09cf86    ....    DCD    3188313990
        0x0001413c:    bf7d9e30    0.}.    DCD    3212680752
        0x00014140:    be0b5df3    .]..    DCD    3188415987
        0x00014144:    bf7d906e    n.}.    DCD    3212677230
        0x00014148:    be0cec4a    J...    DCD    3188517962
        0x0001414c:    bf7d8285    ..}.    DCD    3212673669
        0x00014150:    be0e7a8b    .z..    DCD    3188619915
        0x00014154:    bf7d7474    tt}.    DCD    3212670068
        0x00014158:    be1008b7    ....    DCD    3188721847
        0x0001415c:    bf7d663d    =f}.    DCD    3212666429
        0x00014160:    be1196cc    ....    DCD    3188823756
        0x00014164:    bf7d57de    .W}.    DCD    3212662750
        0x00014168:    be1324ca    .$..    DCD    3188925642
        0x0001416c:    bf7d4959    YI}.    DCD    3212659033
        0x00014170:    be14b2b2    ....    DCD    3189027506
        0x00014174:    bf7d3aac    .:}.    DCD    3212655276
        0x00014178:    be164083    .@..    DCD    3189129347
        0x0001417c:    bf7d2bd8    .+}.    DCD    3212651480
        0x00014180:    be17ce3d    =...    DCD    3189231165
        0x00014184:    bf7d1cdd    ..}.    DCD    3212647645
        0x00014188:    be195be0    .[..    DCD    3189332960
        0x0001418c:    bf7d0dbc    ..}.    DCD    3212643772
        0x00014190:    be1ae96b    k...    DCD    3189434731
        0x00014194:    bf7cfe73    s.|.    DCD    3212639859
        0x00014198:    be1c76de    .v..    DCD    3189536478
        0x0001419c:    bf7cef03    ..|.    DCD    3212635907
        0x000141a0:    be1e0438    8...    DCD    3189638200
        0x000141a4:    bf7cdf6c    l.|.    DCD    3212631916
        0x000141a8:    be1f917b    {...    DCD    3189739899
        0x000141ac:    bf7ccfae    ..|.    DCD    3212627886
        0x000141b0:    be211ea5    ..!.    DCD    3189841573
        0x000141b4:    bf7cbfc9    ..|.    DCD    3212623817
        0x000141b8:    be22abb6    ..".    DCD    3189943222
        0x000141bc:    bf7cafbd    ..|.    DCD    3212619709
        0x000141c0:    be2438ad    .8$.    DCD    3190044845
        0x000141c4:    bf7c9f8a    ..|.    DCD    3212615562
        0x000141c8:    be25c58c    ..%.    DCD    3190146444
        0x000141cc:    bf7c8f31    1.|.    DCD    3212611377
        0x000141d0:    be275251    QR'.    DCD    3190248017
        0x000141d4:    bf7c7eb0    .~|.    DCD    3212607152
        0x000141d8:    be28defc    ..(.    DCD    3190349564
        0x000141dc:    bf7c6e08    .n|.    DCD    3212602888
        0x000141e0:    be2a6b8d    .k*.    DCD    3190451085
        0x000141e4:    bf7c5d3a    :]|.    DCD    3212598586
        0x000141e8:    be2bf804    ..+.    DCD    3190552580
        0x000141ec:    bf7c4c44    DL|.    DCD    3212594244
        0x000141f0:    be2d8461    a.-.    DCD    3190654049
        0x000141f4:    bf7c3b28    (;|.    DCD    3212589864
        0x000141f8:    be2f10a2    ../.    DCD    3190755490
        0x000141fc:    bf7c29e5    .)|.    DCD    3212585445
        0x00014200:    be309cc9    ..0.    DCD    3190856905
        0x00014204:    bf7c187a    z.|.    DCD    3212580986
        0x00014208:    be3228d4    .(2.    DCD    3190958292
        0x0001420c:    bf7c06e9    ..|.    DCD    3212576489
        0x00014210:    be33b4c4    ..3.    DCD    3191059652
        0x00014214:    bf7bf531    1.{.    DCD    3212571953
        0x00014218:    be354098    .@5.    DCD    3191160984
        0x0001421c:    bf7be353    S.{.    DCD    3212567379
        0x00014220:    be36cc50    P.6.    DCD    3191262288
        0x00014224:    bf7bd14d    M.{.    DCD    3212562765
        0x00014228:    be3857ec    .W8.    DCD    3191363564
        0x0001422c:    bf7bbf20     .{.    DCD    3212558112
        0x00014230:    be39e36c    l.9.    DCD    3191464812
        0x00014234:    bf7baccd    ..{.    DCD    3212553421
        0x00014238:    be3b6ecf    .n;.    DCD    3191566031
        0x0001423c:    bf7b9a53    S.{.    DCD    3212548691
        0x00014240:    be3cfa15    ..<.    DCD    3191667221
        0x00014244:    bf7b87b2    ..{.    DCD    3212543922
        0x00014248:    be3e853e    >.>.    DCD    3191768382
        0x0001424c:    bf7b74ea    .t{.    DCD    3212539114
        0x00014250:    be401049    I.@.    DCD    3191869513
        0x00014254:    bf7b61fc    .a{.    DCD    3212534268
        0x00014258:    be419b37    7.A.    DCD    3191970615
        0x0001425c:    bf7b4ee7    .N{.    DCD    3212529383
        0x00014260:    be432607    .&C.    DCD    3192071687
        0x00014264:    bf7b3bab    .;{.    DCD    3212524459
        0x00014268:    be44b0b9    ..D.    DCD    3192172729
        0x0001426c:    bf7b2848    H({.    DCD    3212519496
        0x00014270:    be463b4d    M;F.    DCD    3192273741
        0x00014274:    bf7b14be    ..{.    DCD    3212514494
        0x00014278:    be47c5c2    ..G.    DCD    3192374722
        0x0001427c:    bf7b010e    ..{.    DCD    3212509454
        0x00014280:    be495018    .PI.    DCD    3192475672
        0x00014284:    bf7aed37    7.z.    DCD    3212504375
        0x00014288:    be4ada4f    O.J.    DCD    3192576591
        0x0001428c:    bf7ad93a    :.z.    DCD    3212499258
        0x00014290:    be4c6467    gdL.    DCD    3192677479
        0x00014294:    bf7ac516    ..z.    DCD    3212494102
        0x00014298:    be4dee60    `.M.    DCD    3192778336
        0x0001429c:    bf7ab0cb    ..z.    DCD    3212488907
        0x000142a0:    be4f7838    8xO.    DCD    3192879160
        0x000142a4:    bf7a9c59    Y.z.    DCD    3212483673
        0x000142a8:    be5101f1    ..Q.    DCD    3192979953
        0x000142ac:    bf7a87c1    ..z.    DCD    3212478401
        0x000142b0:    be528b89    ..R.    DCD    3193080713
        0x000142b4:    bf7a7302    .sz.    DCD    3212473090
        0x000142b8:    be541501    ..T.    DCD    3193181441
        0x000142bc:    bf7a5e1c    .^z.    DCD    3212467740
        0x000142c0:    be559e58    X.U.    DCD    3193282136
        0x000142c4:    bf7a4910    .Iz.    DCD    3212462352
        0x000142c8:    be57278f    .'W.    DCD    3193382799
        0x000142cc:    bf7a33dd    .3z.    DCD    3212456925
        0x000142d0:    be58b0a4    ..X.    DCD    3193483428
        0x000142d4:    bf7a1e84    ..z.    DCD    3212451460
        0x000142d8:    be5a3997    .9Z.    DCD    3193584023
        0x000142dc:    bf7a0904    ..z.    DCD    3212445956
        0x000142e0:    be5bc26a    j.[.    DCD    3193684586
        0x000142e4:    bf79f35e    ^.y.    DCD    3212440414
        0x000142e8:    be5d4b1a    .K].    DCD    3193785114
        0x000142ec:    bf79dd91    ..y.    DCD    3212434833
        0x000142f0:    be5ed3a8    ..^.    DCD    3193885608
        0x000142f4:    bf79c79d    ..y.    DCD    3212429213
        0x000142f8:    be605c13    .\`.    DCD    3193986067
        0x000142fc:    bf79b183    ..y.    DCD    3212423555
        0x00014300:    be61e45c    \.a.    DCD    3194086492
        0x00014304:    bf799b43    C.y.    DCD    3212417859
        0x00014308:    be636c83    .lc.    DCD    3194186883
        0x0001430c:    bf7984dc    ..y.    DCD    3212412124
        0x00014310:    be64f486    ..d.    DCD    3194287238
        0x00014314:    bf796e4e    Nny.    DCD    3212406350
        0x00014318:    be667c66    f|f.    DCD    3194387558
        0x0001431c:    bf79579a    .Wy.    DCD    3212400538
        0x00014320:    be680422    ".h.    DCD    3194487842
        0x00014324:    bf7940c0    .@y.    DCD    3212394688
        0x00014328:    be698bba    ..i.    DCD    3194588090
        0x0001432c:    bf7929bf    .)y.    DCD    3212388799
        0x00014330:    be6b132f    /.k.    DCD    3194688303
        0x00014334:    bf791298    ..y.    DCD    3212382872
        0x00014338:    be6c9a7f    ..l.    DCD    3194788479
        0x0001433c:    bf78fb4a    J.x.    DCD    3212376906
        0x00014340:    be6e21ab    .!n.    DCD    3194888619
        0x00014344:    bf78e3d6    ..x.    DCD    3212370902
        0x00014348:    be6fa8b2    ..o.    DCD    3194988722
        0x0001434c:    bf78cc3b    ;.x.    DCD    3212364859
        0x00014350:    be712f94    ./q.    DCD    3195088788
        0x00014354:    bf78b47b    {.x.    DCD    3212358779
        0x00014358:    be72b651    Q.r.    DCD    3195188817
        0x0001435c:    bf789c93    ..x.    DCD    3212352659
        0x00014360:    be743ce8    .<t.    DCD    3195288808
        0x00014364:    bf788486    ..x.    DCD    3212346502
        0x00014368:    be75c35a    Z.u.    DCD    3195388762
        0x0001436c:    bf786c52    Rlx.    DCD    3212340306
        0x00014370:    be7749a6    .Iw.    DCD    3195488678
        0x00014374:    bf7853f8    .Sx.    DCD    3212334072
        0x00014378:    be78cfcc    ..x.    DCD    3195588556
        0x0001437c:    bf783b77    w;x.    DCD    3212327799
        0x00014380:    be7a55cb    .Uz.    DCD    3195688395
        0x00014384:    bf7822d1    ."x.    DCD    3212321489
        0x00014388:    be7bdba4    ..{.    DCD    3195788196
        0x0001438c:    bf780a04    ..x.    DCD    3212315140
        0x00014390:    be7d6156    Va}.    DCD    3195887958
        0x00014394:    bf77f110    ..w.    DCD    3212308752
        0x00014398:    be7ee6e1    ..~.    DCD    3195987681
        0x0001439c:    bf77d7f7    ..w.    DCD    3212302327
        0x000143a0:    be803622    "6..    DCD    3196073506
        0x000143a4:    bf77beb7    ..w.    DCD    3212295863
        0x000143a8:    be80f8c0    ....    DCD    3196123328
        0x000143ac:    bf77a551    Q.w.    DCD    3212289361
        0x000143b0:    be81bb4a    J...    DCD    3196173130
        0x000143b4:    bf778bc5    ..w.    DCD    3212282821
        0x000143b8:    be827dc0    .}..    DCD    3196222912
        0x000143bc:    bf777213    .rw.    DCD    3212276243
        0x000143c0:    be834022    "@..    DCD    3196272674
        0x000143c4:    bf77583a    :Xw.    DCD    3212269626
        0x000143c8:    be840270    p...    DCD    3196322416
        0x000143cc:    bf773e3c    <>w.    DCD    3212262972
        0x000143d0:    be84c4aa    ....    DCD    3196372138
        0x000143d4:    bf772417    .$w.    DCD    3212256279
        0x000143d8:    be8586ce    ....    DCD    3196421838
        0x000143dc:    bf7709cc    ..w.    DCD    3212249548
        0x000143e0:    be8648df    .H..    DCD    3196471519
        0x000143e4:    bf76ef5b    [.v.    DCD    3212242779
        0x000143e8:    be870ada    ....    DCD    3196521178
        0x000143ec:    bf76d4c4    ..v.    DCD    3212235972
        0x000143f0:    be87ccc1    ....    DCD    3196570817
        0x000143f4:    bf76ba07    ..v.    DCD    3212229127
        0x000143f8:    be888e93    ....    DCD    3196620435
        0x000143fc:    bf769f24    $.v.    DCD    3212222244
        0x00014400:    be895050    PP..    DCD    3196670032
        0x00014404:    bf76841b    ..v.    DCD    3212215323
        0x00014408:    be8a11f8    ....    DCD    3196719608
        0x0001440c:    bf7668ec    .hv.    DCD    3212208364
        0x00014410:    be8ad38a    ....    DCD    3196769162
        0x00014414:    bf764d97    .Mv.    DCD    3212201367
        0x00014418:    be8b9507    ....    DCD    3196818695
        0x0001441c:    bf76321b    .2v.    DCD    3212194331
        0x00014420:    be8c566e    nV..    DCD    3196868206
        0x00014424:    bf76167a    z.v.    DCD    3212187258
        0x00014428:    be8d17c0    ....    DCD    3196917696
        0x0001442c:    bf75fab3    ..u.    DCD    3212180147
        0x00014430:    be8dd8fc    ....    DCD    3196967164
        0x00014434:    bf75dec6    ..u.    DCD    3212172998
        0x00014438:    be8e9a22    "...    DCD    3197016610
        0x0001443c:    bf75c2b3    ..u.    DCD    3212165811
        0x00014440:    be8f5b32    2[..    DCD    3197066034
        0x00014444:    bf75a67b    {.u.    DCD    3212158587
        0x00014448:    be901c2c    ,...    DCD    3197115436
        0x0001444c:    bf758a1c    ..u.    DCD    3212151324
        0x00014450:    be90dd10    ....    DCD    3197164816
        0x00014454:    bf756d97    .mu.    DCD    3212144023
        0x00014458:    be919ddd    ....    DCD    3197214173
        0x0001445c:    bf7550ed    .Pu.    DCD    3212136685
        0x00014460:    be925e94    .^..    DCD    3197263508
        0x00014464:    bf75341d    .4u.    DCD    3212129309
        0x00014468:    be931f35    5...    DCD    3197312821
        0x0001446c:    bf751727    '.u.    DCD    3212121895
        0x00014470:    be93dfbf    ....    DCD    3197362111
        0x00014474:    bf74fa0b    ..t.    DCD    3212114443
        0x00014478:    be94a031    1...    DCD    3197411377
        0x0001447c:    bf74dcc9    ..t.    DCD    3212106953
        0x00014480:    be95608d    .`..    DCD    3197460621
        0x00014484:    bf74bf62    b.t.    DCD    3212099426
        0x00014488:    be9620d2    . ..    DCD    3197509842
        0x0001448c:    bf74a1d5    ..t.    DCD    3212091861
        0x00014490:    be96e100    ....    DCD    3197559040
        0x00014494:    bf748422    ".t.    DCD    3212084258
        0x00014498:    be97a117    ....    DCD    3197608215
        0x0001449c:    bf746649    Ift.    DCD    3212076617
        0x000144a0:    be986116    .a..    DCD    3197657366
        0x000144a4:    bf74484b    KHt.    DCD    3212068939
        0x000144a8:    be9920fe    . ..    DCD    3197706494
        0x000144ac:    bf742a27    '*t.    DCD    3212061223
        0x000144b0:    be99e0ce    ....    DCD    3197755598
        0x000144b4:    bf740bdd    ..t.    DCD    3212053469
        0x000144b8:    be9aa086    ....    DCD    3197804678
        0x000144bc:    bf73ed6e    n.s.    DCD    3212045678
        0x000144c0:    be9b6027    '`..    DCD    3197853735
        0x000144c4:    bf73ced9    ..s.    DCD    3212037849
        0x000144c8:    be9c1faf    ....    DCD    3197902767
        0x000144cc:    bf73b01f    ..s.    DCD    3212029983
        0x000144d0:    be9cdf20     ...    DCD    3197951776
        0x000144d4:    bf73913f    ?.s.    DCD    3212022079
        0x000144d8:    be9d9e78    x...    DCD    3198000760
        0x000144dc:    bf737239    9rs.    DCD    3212014137
        0x000144e0:    be9e5db8    .]..    DCD    3198049720
        0x000144e4:    bf73530e    .Ss.    DCD    3212006158
        0x000144e8:    be9f1cdf    ....    DCD    3198098655
        0x000144ec:    bf7333be    .3s.    DCD    3211998142
        0x000144f0:    be9fdbee    ....    DCD    3198147566
        0x000144f4:    bf731447    G.s.    DCD    3211990087
        0x000144f8:    bea09ae5    ....    DCD    3198196453
        0x000144fc:    bf72f4ac    ..r.    DCD    3211981996
        0x00014500:    bea159c2    .Y..    DCD    3198245314
        0x00014504:    bf72d4eb    ..r.    DCD    3211973867
        0x00014508:    bea21887    ....    DCD    3198294151
        0x0001450c:    bf72b504    ..r.    DCD    3211965700
        0x00014510:    bea2d733    3...    DCD    3198342963
        0x00014514:    bf7294f8    ..r.    DCD    3211957496
        0x00014518:    bea395c5    ....    DCD    3198391749
        0x0001451c:    bf7274c7    .tr.    DCD    3211949255
        0x00014520:    bea4543f    ?T..    DCD    3198440511
        0x00014524:    bf725470    pTr.    DCD    3211940976
        0x00014528:    bea5129f    ....    DCD    3198489247
        0x0001452c:    bf7233f4    .3r.    DCD    3211932660
        0x00014530:    bea5d0e5    ....    DCD    3198537957
        0x00014534:    bf721352    R.r.    DCD    3211924306
        0x00014538:    bea68f12    ....    DCD    3198586642
        0x0001453c:    bf71f28c    ..q.    DCD    3211915916
        0x00014540:    bea74d25    %M..    DCD    3198635301
        0x00014544:    bf71d19f    ..q.    DCD    3211907487
        0x00014548:    bea80b1f    ....    DCD    3198683935
        0x0001454c:    bf71b08e    ..q.    DCD    3211899022
        0x00014550:    bea8c8fe    ....    DCD    3198732542
        0x00014554:    bf718f57    W.q.    DCD    3211890519
        0x00014558:    bea986c4    ....    DCD    3198781124
        0x0001455c:    bf716dfb    .mq.    DCD    3211881979
        0x00014560:    beaa446f    oD..    DCD    3198829679
        0x00014564:    bf714c7a    zLq.    DCD    3211873402
        0x00014568:    beab0201    ....    DCD    3198878209
        0x0001456c:    bf712ad4    .*q.    DCD    3211864788
        0x00014570:    beabbf77    w...    DCD    3198926711
        0x00014574:    bf710908    ..q.    DCD    3211856136
        0x00014578:    beac7cd4    .|..    DCD    3198975188
        0x0001457c:    bf70e717    ..p.    DCD    3211847447
        0x00014580:    bead3a15    .:..    DCD    3199023637
        0x00014584:    bf70c502    ..p.    DCD    3211838722
        0x00014588:    beadf73c    <...    DCD    3199072060
        0x0001458c:    bf70a2c6    ..p.    DCD    3211829958
        0x00014590:    beaeb449    I...    DCD    3199120457
        0x00014594:    bf708066    f.p.    DCD    3211821158
        0x00014598:    beaf713a    :q..    DCD    3199168826
        0x0001459c:    bf705de1    .]p.    DCD    3211812321
        0x000145a0:    beb02e10    ....    DCD    3199217168
        0x000145a4:    bf703b37    7;p.    DCD    3211803447
        0x000145a8:    beb0eacb    ....    DCD    3199265483
        0x000145ac:    bf701867    g.p.    DCD    3211794535
        0x000145b0:    beb1a76b    k...    DCD    3199313771
        0x000145b4:    bf6ff573    s.o.    DCD    3211785587
        0x000145b8:    beb263ef    .c..    DCD    3199362031
        0x000145bc:    bf6fd25a    Z.o.    DCD    3211776602
        0x000145c0:    beb32058    X ..    DCD    3199410264
        0x000145c4:    bf6faf1b    ..o.    DCD    3211767579
        0x000145c8:    beb3dca5    ....    DCD    3199458469
        0x000145cc:    bf6f8bb8    ..o.    DCD    3211758520
        0x000145d0:    beb498d6    ....    DCD    3199506646
        0x000145d4:    bf6f6830    0ho.    DCD    3211749424
        0x000145d8:    beb554ec    .T..    DCD    3199554796
        0x000145dc:    bf6f4483    .Do.    DCD    3211740291
        0x000145e0:    beb610e6    ....    DCD    3199602918
        0x000145e4:    bf6f20b0    . o.    DCD    3211731120
        0x000145e8:    beb6ccc3    ....    DCD    3199651011
        0x000145ec:    bf6efcba    ..n.    DCD    3211721914
        0x000145f0:    beb78884    ....    DCD    3199699076
        0x000145f4:    bf6ed89e    ..n.    DCD    3211712670
        0x000145f8:    beb8442a    *D..    DCD    3199747114
        0x000145fc:    bf6eb45d    ].n.    DCD    3211703389
        0x00014600:    beb8ffb2    ....    DCD    3199795122
        0x00014604:    bf6e8ff8    ..n.    DCD    3211694072
        0x00014608:    beb9bb1e    ....    DCD    3199843102
        0x0001460c:    bf6e6b6d    mkn.    DCD    3211684717
        0x00014610:    beba766e    nv..    DCD    3199891054
        0x00014614:    bf6e46be    .Fn.    DCD    3211675326
        0x00014618:    bebb31a0    .1..    DCD    3199938976
        0x0001461c:    bf6e21eb    .!n.    DCD    3211665899
        0x00014620:    bebbecb6    ....    DCD    3199986870
        0x00014624:    bf6dfcf2    ..m.    DCD    3211656434
        0x00014628:    bebca7af    ....    DCD    3200034735
        0x0001462c:    bf6dd7d5    ..m.    DCD    3211646933
        0x00014630:    bebd628b    .b..    DCD    3200082571
        0x00014634:    bf6db293    ..m.    DCD    3211637395
        0x00014638:    bebe1d4a    J...    DCD    3200130378
        0x0001463c:    bf6d8d2d    -.m.    DCD    3211627821
        0x00014640:    bebed7eb    ....    DCD    3200178155
        0x00014644:    bf6d67a1    .gm.    DCD    3211618209
        0x00014648:    bebf926f    o...    DCD    3200225903
        0x0001464c:    bf6d41f2    .Am.    DCD    3211608562
        0x00014650:    bec04cd5    .L..    DCD    3200273621
        0x00014654:    bf6d1c1d    ..m.    DCD    3211598877
        0x00014658:    bec1071e    ....    DCD    3200321310
        0x0001465c:    bf6cf624    $.l.    DCD    3211589156
        0x00014660:    bec1c148    H...    DCD    3200368968
        0x00014664:    bf6cd007    ..l.    DCD    3211579399
        0x00014668:    bec27b55    U{..    DCD    3200416597
        0x0001466c:    bf6ca9c5    ..l.    DCD    3211569605
        0x00014670:    bec33544    D5..    DCD    3200464196
        0x00014674:    bf6c835e    ^.l.    DCD    3211559774
        0x00014678:    bec3ef15    ....    DCD    3200511765
        0x0001467c:    bf6c5cd4    .\l.    DCD    3211549908
        0x00014680:    bec4a8c8    ....    DCD    3200559304
        0x00014684:    bf6c3624    $6l.    DCD    3211540004
        0x00014688:    bec5625c    \b..    DCD    3200606812
        0x0001468c:    bf6c0f50    P.l.    DCD    3211530064
        0x00014690:    bec61bd2    ....    DCD    3200654290
        0x00014694:    bf6be858    X.k.    DCD    3211520088
        0x00014698:    bec6d529    )...    DCD    3200701737
        0x0001469c:    bf6bc13b    ;.k.    DCD    3211510075
        0x000146a0:    bec78e62    b...    DCD    3200749154
        0x000146a4:    bf6b99fb    ..k.    DCD    3211500027
        0x000146a8:    bec8477c    |G..    DCD    3200796540
        0x000146ac:    bf6b7295    .rk.    DCD    3211489941
        0x000146b0:    bec90077    w...    DCD    3200843895
        0x000146b4:    bf6b4b0c    .Kk.    DCD    3211479820
        0x000146b8:    bec9b953    S...    DCD    3200891219
        0x000146bc:    bf6b235e    ^#k.    DCD    3211469662
        0x000146c0:    beca7210    .r..    DCD    3200938512
        0x000146c4:    bf6afb8c    ..j.    DCD    3211459468
        0x000146c8:    becb2aae    .*..    DCD    3200985774
        0x000146cc:    bf6ad395    ..j.    DCD    3211449237
        0x000146d0:    becbe32c    ,...    DCD    3201033004
        0x000146d4:    bf6aab7b    {.j.    DCD    3211438971
        0x000146d8:    becc9b8b    ....    DCD    3201080203
        0x000146dc:    bf6a833c    <.j.    DCD    3211428668
        0x000146e0:    becd53ca    .S..    DCD    3201127370
        0x000146e4:    bf6a5ad9    .Zj.    DCD    3211418329
        0x000146e8:    bece0bea    ....    DCD    3201174506
        0x000146ec:    bf6a3252    R2j.    DCD    3211407954
        0x000146f0:    becec3ea    ....    DCD    3201221610
        0x000146f4:    bf6a09a7    ..j.    DCD    3211397543
        0x000146f8:    becf7bca    .{..    DCD    3201268682
        0x000146fc:    bf69e0d7    ..i.    DCD    3211387095
        0x00014700:    bed0338a    .3..    DCD    3201315722
        0x00014704:    bf69b7e4    ..i.    DCD    3211376612
        0x00014708:    bed0eb2a    *...    DCD    3201362730
        0x0001470c:    bf698ecc    ..i.    DCD    3211366092
        0x00014710:    bed1a2aa    ....    DCD    3201409706
        0x00014714:    bf696591    .ei.    DCD    3211355537
        0x00014718:    bed25a09    .Z..    DCD    3201456649
        0x0001471c:    bf693c32    2<i.    DCD    3211344946
        0x00014720:    bed31148    H...    DCD    3201503560
        0x00014724:    bf6912ae    ..i.    DCD    3211334318
        0x00014728:    bed3c867    g...    DCD    3201550439
        0x0001472c:    bf68e907    ..h.    DCD    3211323655
        0x00014730:    bed47f64    d...    DCD    3201597284
        0x00014734:    bf68bf3c    <.h.    DCD    3211312956
        0x00014738:    bed53641    A6..    DCD    3201644097
        0x0001473c:    bf68954c    L.h.    DCD    3211302220
        0x00014740:    bed5ecfd    ....    DCD    3201690877
        0x00014744:    bf686b39    9kh.    DCD    3211291449
        0x00014748:    bed6a399    ....    DCD    3201737625
        0x0001474c:    bf684103    .Ah.    DCD    3211280643
        0x00014750:    bed75a13    .Z..    DCD    3201784339
        0x00014754:    bf6816a8    ..h.    DCD    3211269800
        0x00014758:    bed8106b    k...    DCD    3201831019
        0x0001475c:    bf67ec2a    *.g.    DCD    3211258922
        0x00014760:    bed8c6a3    ....    DCD    3201877667
        0x00014764:    bf67c187    ..g.    DCD    3211248007
        0x00014768:    bed97cb9    .|..    DCD    3201924281
        0x0001476c:    bf6796c1    ..g.    DCD    3211237057
        0x00014770:    beda32ad    .2..    DCD    3201970861
        0x00014774:    bf676bd8    .kg.    DCD    3211226072
        0x00014778:    bedae880    ....    DCD    3202017408
        0x0001477c:    bf6740ca    .@g.    DCD    3211215050
        0x00014780:    bedb9e31    1...    DCD    3202063921
        0x00014784:    bf671599    ..g.    DCD    3211203993
        0x00014788:    bedc53c1    .S..    DCD    3202110401
        0x0001478c:    bf66ea45    E.f.    DCD    3211192901
        0x00014790:    bedd092e    ....    DCD    3202156846
        0x00014794:    bf66becc    ..f.    DCD    3211181772
        0x00014798:    beddbe79    y...    DCD    3202203257
        0x0001479c:    bf669330    0.f.    DCD    3211170608
        0x000147a0:    bede73a2    .s..    DCD    3202249634
        0x000147a4:    bf666771    qgf.    DCD    3211159409
        0x000147a8:    bedf28a9    .(..    DCD    3202295977
        0x000147ac:    bf663b8e    .;f.    DCD    3211148174
        0x000147b0:    bedfdd8d    ....    DCD    3202342285
        0x000147b4:    bf660f88    ..f.    DCD    3211136904
        0x000147b8:    bee0924f    O...    DCD    3202388559
        0x000147bc:    bf65e35e    ^.e.    DCD    3211125598
        0x000147c0:    bee146ee    .F..    DCD    3202434798
        0x000147c4:    bf65b710    ..e.    DCD    3211114256
        0x000147c8:    bee1fb6a    j...    DCD    3202481002
        0x000147cc:    bf658aa0    ..e.    DCD    3211102880
        0x000147d0:    bee2afc4    ....    DCD    3202527172
        0x000147d4:    bf655e0b    .^e.    DCD    3211091467
        0x000147d8:    bee363fa    .c..    DCD    3202573306
        0x000147dc:    bf653154    T1e.    DCD    3211080020
        0x000147e0:    bee4180e    ....    DCD    3202619406
        0x000147e4:    bf650479    y.e.    DCD    3211068537
        0x000147e8:    bee4cbfe    ....    DCD    3202665470
        0x000147ec:    bf64d77b    {.d.    DCD    3211057019
        0x000147f0:    bee57fcb    ....    DCD    3202711499
        0x000147f4:    bf64aa59    Y.d.    DCD    3211045465
        0x000147f8:    bee63375    u3..    DCD    3202757493
        0x000147fc:    bf647d14    .}d.    DCD    3211033876
        0x00014800:    bee6e6fb    ....    DCD    3202803451
        0x00014804:    bf644fac    .Od.    DCD    3211022252
        0x00014808:    bee79a5d    ]...    DCD    3202849373
        0x0001480c:    bf642221    !"d.    DCD    3211010593
        0x00014810:    bee84d9c    .M..    DCD    3202895260
        0x00014814:    bf63f473    s.c.    DCD    3210998899
        0x00014818:    bee900b7    ....    DCD    3202941111
        0x0001481c:    bf63c6a1    ..c.    DCD    3210987169
        0x00014820:    bee9b3ae    ....    DCD    3202986926
        0x00014824:    bf6398ac    ..c.    DCD    3210975404
        0x00014828:    beea6681    .f..    DCD    3203032705
        0x0001482c:    bf636a95    .jc.    DCD    3210963605
        0x00014830:    beeb1930    0...    DCD    3203078448
        0x00014834:    bf633c5a    Z<c.    DCD    3210951770
        0x00014838:    beebcbbb    ....    DCD    3203124155
        0x0001483c:    bf630dfc    ..c.    DCD    3210939900
        0x00014840:    beec7e21    !~..    DCD    3203169825
        0x00014844:    bf62df7b    {.b.    DCD    3210927995
        0x00014848:    beed3063    c0..    DCD    3203215459
        0x0001484c:    bf62b0d7    ..b.    DCD    3210916055
        0x00014850:    beede280    ....    DCD    3203261056
        0x00014854:    bf628210    ..b.    DCD    3210904080
        0x00014858:    beee9479    y...    DCD    3203306617
        0x0001485c:    bf625326    &Sb.    DCD    3210892070
        0x00014860:    beef464c    LF..    DCD    3203352140
        0x00014864:    bf62241a    .$b.    DCD    3210880026
        0x00014868:    beeff7fb    ....    DCD    3203397627
        0x0001486c:    bf61f4ea    ..a.    DCD    3210867946
        0x00014870:    bef0a985    ....    DCD    3203443077
        0x00014874:    bf61c598    ..a.    DCD    3210855832
        0x00014878:    bef15aea    .Z..    DCD    3203488490
        0x0001487c:    bf619622    ".a.    DCD    3210843682
        0x00014880:    bef20c29    )...    DCD    3203533865
        0x00014884:    bf61668a    .fa.    DCD    3210831498
        0x00014888:    bef2bd43    C...    DCD    3203579203
        0x0001488c:    bf6136d0    .6a.    DCD    3210819280
        0x00014890:    bef36e38    8n..    DCD    3203624504
        0x00014894:    bf6106f2    ..a.    DCD    3210807026
        0x00014898:    bef41f07    ....    DCD    3203669767
        0x0001489c:    bf60d6f2    ..`.    DCD    3210794738
        0x000148a0:    bef4cfb1    ....    DCD    3203714993
        0x000148a4:    bf60a6cf    ..`.    DCD    3210782415
        0x000148a8:    bef58035    5...    DCD    3203760181
        0x000148ac:    bf607689    .v`.    DCD    3210770057
        0x000148b0:    bef63093    .0..    DCD    3203805331
        0x000148b4:    bf604621    !F`.    DCD    3210757665
        0x000148b8:    bef6e0cb    ....    DCD    3203850443
        0x000148bc:    bf601596    ..`.    DCD    3210745238
        0x000148c0:    bef790dc    ....    DCD    3203895516
        0x000148c4:    bf5fe4e9    .._.    DCD    3210732777
        0x000148c8:    bef840c8    .@..    DCD    3203940552
        0x000148cc:    bf5fb419    .._.    DCD    3210720281
        0x000148d0:    bef8f08e    ....    DCD    3203985550
        0x000148d4:    bf5f8327    '._.    DCD    3210707751
        0x000148d8:    bef9a02d    -...    DCD    3204030509
        0x000148dc:    bf5f5212    .R_.    DCD    3210695186
        0x000148e0:    befa4fa5    .O..    DCD    3204075429
        0x000148e4:    bf5f20db    . _.    DCD    3210682587
        0x000148e8:    befafef7    ....    DCD    3204120311
        0x000148ec:    bf5eef81    ..^.    DCD    3210669953
        0x000148f0:    befbae22    "...    DCD    3204165154
        0x000148f4:    bf5ebe05    ..^.    DCD    3210657285
        0x000148f8:    befc5d27    ']..    DCD    3204209959
        0x000148fc:    bf5e8c67    g.^.    DCD    3210644583
        0x00014900:    befd0c04    ....    DCD    3204254724
        0x00014904:    bf5e5aa6    .Z^.    DCD    3210631846
        0x00014908:    befdbabb    ....    DCD    3204299451
        0x0001490c:    bf5e28c3    .(^.    DCD    3210619075
        0x00014910:    befe694a    Ji..    DCD    3204344138
        0x00014914:    bf5df6be    ..].    DCD    3210606270
        0x00014918:    beff17b2    ....    DCD    3204388786
        0x0001491c:    bf5dc497    ..].    DCD    3210593431
        0x00014920:    beffc5f3    ....    DCD    3204433395
        0x00014924:    bf5d924d    M.].    DCD    3210580557
        0x00014928:    bf003a06    .:..    DCD    3204463110
        0x0001492c:    bf5d5fe1    ._].    DCD    3210567649
        0x00014930:    bf0090ff    ....    DCD    3204485375
        0x00014934:    bf5d2d53    S-].    DCD    3210554707
        0x00014938:    bf00e7e4    ....    DCD    3204507620
        0x0001493c:    bf5cfaa3    ..\.    DCD    3210541731
        0x00014940:    bf013eb5    .>..    DCD    3204529845
        0x00014944:    bf5cc7d1    ..\.    DCD    3210528721
        0x00014948:    bf019573    s...    DCD    3204552051
        0x0001494c:    bf5c94dd    ..\.    DCD    3210515677
        0x00014950:    bf01ec1c    ....    DCD    3204574236
        0x00014954:    bf5c61c7    .a\.    DCD    3210502599
        0x00014958:    bf0242b1    .B..    DCD    3204596401
        0x0001495c:    bf5c2e8e    ..\.    DCD    3210489486
        0x00014960:    bf029932    2...    DCD    3204618546
        0x00014964:    bf5bfb34    4.[.    DCD    3210476340
        0x00014968:    bf02ef9f    ....    DCD    3204640671
        0x0001496c:    bf5bc7b8    ..[.    DCD    3210463160
        0x00014970:    bf0345f8    .E..    DCD    3204662776
        0x00014974:    bf5b941a    ..[.    DCD    3210449946
        0x00014978:    bf039c3d    =...    DCD    3204684861
        0x0001497c:    bf5b605a    Z`[.    DCD    3210436698
        0x00014980:    bf03f26d    m...    DCD    3204706925
        0x00014984:    bf5b2c79    y,[.    DCD    3210423417
        0x00014988:    bf044889    .H..    DCD    3204728969
        0x0001498c:    bf5af875    u.Z.    DCD    3210410101
        0x00014990:    bf049e91    ....    DCD    3204750993
        0x00014994:    bf5ac450    P.Z.    DCD    3210396752
        0x00014998:    bf04f484    ....    DCD    3204772996
        0x0001499c:    bf5a9009    ..Z.    DCD    3210383369
        0x000149a0:    bf054a62    bJ..    DCD    3204794978
        0x000149a4:    bf5a5ba0    .[Z.    DCD    3210369952
        0x000149a8:    bf05a02c    ,...    DCD    3204816940
        0x000149ac:    bf5a2716    .'Z.    DCD    3210356502
        0x000149b0:    bf05f5e2    ....    DCD    3204838882
        0x000149b4:    bf59f26a    j.Y.    DCD    3210343018
        0x000149b8:    bf064b82    .K..    DCD    3204860802
        0x000149bc:    bf59bd9c    ..Y.    DCD    3210329500
        0x000149c0:    bf06a10e    ....    DCD    3204882702
        0x000149c4:    bf5988ad    ..Y.    DCD    3210315949
        0x000149c8:    bf06f686    ....    DCD    3204904582
        0x000149cc:    bf59539c    .SY.    DCD    3210302364
        0x000149d0:    bf074be8    .K..    DCD    3204926440
        0x000149d4:    bf591e6a    j.Y.    DCD    3210288746
        0x000149d8:    bf07a136    6...    DCD    3204948278
        0x000149dc:    bf58e917    ..X.    DCD    3210275095
        0x000149e0:    bf07f66f    o...    DCD    3204970095
        0x000149e4:    bf58b3a1    ..X.    DCD    3210261409
        0x000149e8:    bf084b92    .K..    DCD    3204991890
        0x000149ec:    bf587e0b    .~X.    DCD    3210247691
        0x000149f0:    bf08a0a1    ....    DCD    3205013665
        0x000149f4:    bf584853    SHX.    DCD    3210233939
        0x000149f8:    bf08f59b    ....    DCD    3205035419
        0x000149fc:    bf581279    y.X.    DCD    3210220153
        0x00014a00:    bf094a7f    .J..    DCD    3205057151
        0x00014a04:    bf57dc7f    ..W.    DCD    3210206335
        0x00014a08:    bf099f4e    N...    DCD    3205078862
        0x00014a0c:    bf57a663    c.W.    DCD    3210192483
        0x00014a10:    bf09f409    ....    DCD    3205100553
        0x00014a14:    bf577026    &pW.    DCD    3210178598
        0x00014a18:    bf0a48ad    .H..    DCD    3205122221
        0x00014a1c:    bf5739c7    .9W.    DCD    3210164679
        0x00014a20:    bf0a9d3d    =...    DCD    3205143869
        0x00014a24:    bf570348    H.W.    DCD    3210150728
        0x00014a28:    bf0af1b7    ....    DCD    3205165495
        0x00014a2c:    bf56cca7    ..V.    DCD    3210136743
        0x00014a30:    bf0b461c    .F..    DCD    3205187100
        0x00014a34:    bf5695e5    ..V.    DCD    3210122725
        0x00014a38:    bf0b9a6b    k...    DCD    3205208683
        0x00014a3c:    bf565f02    ._V.    DCD    3210108674
        0x00014a40:    bf0beea5    ....    DCD    3205230245
        0x00014a44:    bf5627fe    .'V.    DCD    3210094590
        0x00014a48:    bf0c42c9    .B..    DCD    3205251785
        0x00014a4c:    bf55f0d9    ..U.    DCD    3210080473
        0x00014a50:    bf0c96d7    ....    DCD    3205273303
        0x00014a54:    bf55b993    ..U.    DCD    3210066323
        0x00014a58:    bf0cead0    ....    DCD    3205294800
        0x00014a5c:    bf55822c    ,.U.    DCD    3210052140
        0x00014a60:    bf0d3eb3    .>..    DCD    3205316275
        0x00014a64:    bf554aa4    .JU.    DCD    3210037924
        0x00014a68:    bf0d9281    ....    DCD    3205337729
        0x00014a6c:    bf5512fb    ..U.    DCD    3210023675
        0x00014a70:    bf0de638    8...    DCD    3205359160
        0x00014a74:    bf54db31    1.T.    DCD    3210009393
        0x00014a78:    bf0e39da    .9..    DCD    3205380570
        0x00014a7c:    bf54a347    G.T.    DCD    3209995079
        0x00014a80:    bf0e8d65    e...    DCD    3205401957
        0x00014a84:    bf546b3b    ;kT.    DCD    3209980731
        0x00014a88:    bf0ee0db    ....    DCD    3205423323
        0x00014a8c:    bf54330f    .3T.    DCD    3209966351
        0x00014a90:    bf0f343b    ;4..    DCD    3205444667
        0x00014a94:    bf53fac3    ..S.    DCD    3209951939
        0x00014a98:    bf0f8784    ....    DCD    3205465988
        0x00014a9c:    bf53c255    U.S.    DCD    3209937493
        0x00014aa0:    bf0fdab8    ....    DCD    3205487288
        0x00014aa4:    bf5389c7    ..S.    DCD    3209923015
        0x00014aa8:    bf102dd5    .-..    DCD    3205508565
        0x00014aac:    bf535118    .QS.    DCD    3209908504
        0x00014ab0:    bf1080dc    ....    DCD    3205529820
        0x00014ab4:    bf531849    I.S.    DCD    3209893961
        0x00014ab8:    bf10d3cd    ....    DCD    3205551053
        0x00014abc:    bf52df59    Y.R.    DCD    3209879385
        0x00014ac0:    bf1126a7    .&..    DCD    3205572263
        0x00014ac4:    bf52a649    I.R.    DCD    3209864777
        0x00014ac8:    bf11796b    ky..    DCD    3205593451
        0x00014acc:    bf526d18    .mR.    DCD    3209850136
        0x00014ad0:    bf11cc19    ....    DCD    3205614617
        0x00014ad4:    bf5233c6    .3R.    DCD    3209835462
        0x00014ad8:    bf121eb0    ....    DCD    3205635760
        0x00014adc:    bf51fa54    T.Q.    DCD    3209820756
        0x00014ae0:    bf127130    0q..    DCD    3205656880
        0x00014ae4:    bf51c0c2    ..Q.    DCD    3209806018
        0x00014ae8:    bf12c39a    ....    DCD    3205677978
        0x00014aec:    bf518710    ..Q.    DCD    3209791248
        0x00014af0:    bf1315ee    ....    DCD    3205699054
        0x00014af4:    bf514d3d    =MQ.    DCD    3209776445
        0x00014af8:    bf13682a    *h..    DCD    3205720106
        0x00014afc:    bf51134a    J.Q.    DCD    3209761610
        0x00014b00:    bf13ba50    P...    DCD    3205741136
        0x00014b04:    bf50d937    7.P.    DCD    3209746743
        0x00014b08:    bf140c5f    _...    DCD    3205762143
        0x00014b0c:    bf509f03    ..P.    DCD    3209731843
        0x00014b10:    bf145e58    X^..    DCD    3205783128
        0x00014b14:    bf5064af    .dP.    DCD    3209716911
        0x00014b18:    bf14b039    9...    DCD    3205804089
        0x00014b1c:    bf502a3b    ;*P.    DCD    3209701947
        0x00014b20:    bf150204    ....    DCD    3205825028
        0x00014b24:    bf4fefa8    ..O.    DCD    3209686952
        0x00014b28:    bf1553b7    .S..    DCD    3205845943
        0x00014b2c:    bf4fb4f4    ..O.    DCD    3209671924
        0x00014b30:    bf15a554    T...    DCD    3205866836
        0x00014b34:    bf4f7a1f    .zO.    DCD    3209656863
        0x00014b38:    bf15f6d9    ....    DCD    3205887705
        0x00014b3c:    bf4f3f2b    +?O.    DCD    3209641771
        0x00014b40:    bf164847    GH..    DCD    3205908551
        0x00014b44:    bf4f0417    ..O.    DCD    3209626647
        0x00014b48:    bf16999f    ....    DCD    3205929375
        0x00014b4c:    bf4ec8e4    ..N.    DCD    3209611492
        0x00014b50:    bf16eadf    ....    DCD    3205950175
        0x00014b54:    bf4e8d90    ..N.    DCD    3209596304
        0x00014b58:    bf173c07    .<..    DCD    3205970951
        0x00014b5c:    bf4e521c    .RN.    DCD    3209581084
        0x00014b60:    bf178d18    ....    DCD    3205991704
        0x00014b64:    bf4e1689    ..N.    DCD    3209565833
        0x00014b68:    bf17de12    ....    DCD    3206012434
        0x00014b6c:    bf4ddad5    ..M.    DCD    3209550549
        0x00014b70:    bf182ef5    ....    DCD    3206033141
        0x00014b74:    bf4d9f02    ..M.    DCD    3209535234
        0x00014b78:    bf187fc0    ....    DCD    3206053824
        0x00014b7c:    bf4d6310    .cM.    DCD    3209519888
        0x00014b80:    bf18d073    s...    DCD    3206074483
        0x00014b84:    bf4d26fd    .&M.    DCD    3209504509
        0x00014b88:    bf19210f    .!..    DCD    3206095119
        0x00014b8c:    bf4ceacb    ..L.    DCD    3209489099
        0x00014b90:    bf197194    .q..    DCD    3206115732
        0x00014b94:    bf4cae79    y.L.    DCD    3209473657
        0x00014b98:    bf19c200    ....    DCD    3206136320
        0x00014b9c:    bf4c7208    .rL.    DCD    3209458184
        0x00014ba0:    bf1a1255    U...    DCD    3206156885
        0x00014ba4:    bf4c3578    x5L.    DCD    3209442680
        0x00014ba8:    bf1a6293    .b..    DCD    3206177427
        0x00014bac:    bf4bf8c7    ..K.    DCD    3209427143
        0x00014bb0:    bf1ab2b8    ....    DCD    3206197944
        0x00014bb4:    bf4bbbf8    ..K.    DCD    3209411576
        0x00014bb8:    bf1b02c6    ....    DCD    3206218438
        0x00014bbc:    bf4b7f09    ..K.    DCD    3209395977
        0x00014bc0:    bf1b52bb    .R..    DCD    3206238907
        0x00014bc4:    bf4b41fa    .AK.    DCD    3209380346
        0x00014bc8:    bf1ba299    ....    DCD    3206259353
        0x00014bcc:    bf4b04cc    ..K.    DCD    3209364684
        0x00014bd0:    bf1bf25f    _...    DCD    3206279775
        0x00014bd4:    bf4ac77f    ..J.    DCD    3209348991
        0x00014bd8:    bf1c420c    .B..    DCD    3206300172
        0x00014bdc:    bf4a8a13    ..J.    DCD    3209333267
        0x00014be0:    bf1c91a2    ....    DCD    3206320546
        0x00014be4:    bf4a4c87    .LJ.    DCD    3209317511
        0x00014be8:    bf1ce11f    ....    DCD    3206340895
        0x00014bec:    bf4a0edc    ..J.    DCD    3209301724
        0x00014bf0:    bf1d3084    .0..    DCD    3206361220
        0x00014bf4:    bf49d112    ..I.    DCD    3209285906
        0x00014bf8:    bf1d7fd1    ....    DCD    3206381521
        0x00014bfc:    bf499329    ).I.    DCD    3209270057
        0x00014c00:    bf1dcf06    ....    DCD    3206401798
        0x00014c04:    bf495521    !UI.    DCD    3209254177
        0x00014c08:    bf1e1e22    "...    DCD    3206422050
        0x00014c0c:    bf4916fa    ..I.    DCD    3209238266
        0x00014c10:    bf1e6d26    &m..    DCD    3206442278
        0x00014c14:    bf48d8b3    ..H.    DCD    3209222323
        0x00014c18:    bf1ebc12    ....    DCD    3206462482
        0x00014c1c:    bf489a4e    N.H.    DCD    3209206350
        0x00014c20:    bf1f0ae5    ....    DCD    3206482661
        0x00014c24:    bf485bca    .[H.    DCD    3209190346
        0x00014c28:    bf1f599f    .Y..    DCD    3206502815
        0x00014c2c:    bf481d27    '.H.    DCD    3209174311
        0x00014c30:    bf1fa841    A...    DCD    3206522945
        0x00014c34:    bf47de65    e.G.    DCD    3209158245
        0x00014c38:    bf1ff6cb    ....    DCD    3206543051
        0x00014c3c:    bf479f84    ..G.    DCD    3209142148
        0x00014c40:    bf20453b    ;E .    DCD    3206563131
        0x00014c44:    bf476085    .`G.    DCD    3209126021
        0x00014c48:    bf209393    .. .    DCD    3206583187
        0x00014c4c:    bf472167    g!G.    DCD    3209109863
        0x00014c50:    bf20e1d2    .. .    DCD    3206603218
        0x00014c54:    bf46e22a    *.F.    DCD    3209093674
        0x00014c58:    bf212ff9    ./!.    DCD    3206623225
        0x00014c5c:    bf46a2ce    ..F.    DCD    3209077454
        0x00014c60:    bf217e06    .~!.    DCD    3206643206
        0x00014c64:    bf466354    TcF.    DCD    3209061204
        0x00014c68:    bf21cbfb    ..!.    DCD    3206663163
        0x00014c6c:    bf4623bb    .#F.    DCD    3209044923
        0x00014c70:    bf2219d7    ..".    DCD    3206683095
        0x00014c74:    bf45e403    ..E.    DCD    3209028611
        0x00014c78:    bf226799    .g".    DCD    3206703001
        0x00014c7c:    bf45a42d    -.E.    DCD    3209012269
        0x00014c80:    bf22b543    C.".    DCD    3206722883
        0x00014c84:    bf456439    9dE.    DCD    3208995897
        0x00014c88:    bf2302d3    ..#.    DCD    3206742739
        0x00014c8c:    bf452426    &$E.    DCD    3208979494
        0x00014c90:    bf23504b    KP#.    DCD    3206762571
        0x00014c94:    bf44e3f5    ..D.    DCD    3208963061
        0x00014c98:    bf239da9    ..#.    DCD    3206782377
        0x00014c9c:    bf44a3a5    ..D.    DCD    3208946597
        0x00014ca0:    bf23eaee    ..#.    DCD    3206802158
        0x00014ca4:    bf446337    7cD.    DCD    3208930103
        0x00014ca8:    bf24381a    .8$.    DCD    3206821914
        0x00014cac:    bf4422ab    ."D.    DCD    3208913579
        0x00014cb0:    bf24852c    ,.$.    DCD    3206841644
        0x00014cb4:    bf43e200    ..C.    DCD    3208897024
        0x00014cb8:    bf24d225    %.$.    DCD    3206861349
        0x00014cbc:    bf43a138    8.C.    DCD    3208880440
        0x00014cc0:    bf251f04    ..%.    DCD    3206881028
        0x00014cc4:    bf436051    Q`C.    DCD    3208863825
        0x00014cc8:    bf256bcb    .k%.    DCD    3206900683
        0x00014ccc:    bf431f4c    L.C.    DCD    3208847180
        0x00014cd0:    bf25b877    w.%.    DCD    3206920311
        0x00014cd4:    bf42de29    ).B.    DCD    3208830505
        0x00014cd8:    bf26050a    ..&.    DCD    3206939914
        0x00014cdc:    bf429ce8    ..B.    DCD    3208813800
        0x00014ce0:    bf265184    .Q&.    DCD    3206959492
        0x00014ce4:    bf425b89    .[B.    DCD    3208797065
        0x00014ce8:    bf269de3    ..&.    DCD    3206979043
        0x00014cec:    bf421a0b    ..B.    DCD    3208780299
        0x00014cf0:    bf26ea2a    *.&.    DCD    3206998570
        0x00014cf4:    bf41d870    p.A.    DCD    3208763504
        0x00014cf8:    bf273656    V6'.    DCD    3207018070
        0x00014cfc:    bf4196b7    ..A.    DCD    3208746679
        0x00014d00:    bf278268    h.'.    DCD    3207037544
        0x00014d04:    bf4154e1    .TA.    DCD    3208729825
        0x00014d08:    bf27ce61    a.'.    DCD    3207056993
        0x00014d0c:    bf4112ec    ..A.    DCD    3208712940
        0x00014d10:    bf281a40    @.(.    DCD    3207076416
        0x00014d14:    bf40d0da    ..@.    DCD    3208696026
        0x00014d18:    bf286605    .f(.    DCD    3207095813
        0x00014d1c:    bf408ea9    ..@.    DCD    3208679081
        0x00014d20:    bf28b1b0    ..(.    DCD    3207115184
        0x00014d24:    bf404c5c    \L@.    DCD    3208662108
        0x00014d28:    bf28fd41    A.(.    DCD    3207134529
        0x00014d2c:    bf4009f0    ..@.    DCD    3208645104
        0x00014d30:    bf2948b8    .H).    DCD    3207153848
        0x00014d34:    bf3fc767    g.?.    DCD    3208628071
        0x00014d38:    bf299415    ..).    DCD    3207173141
        0x00014d3c:    bf3f84c0    ..?.    DCD    3208611008
        0x00014d40:    bf29df57    W.).    DCD    3207192407
        0x00014d44:    bf3f41fc    .A?.    DCD    3208593916
        0x00014d48:    bf2a2a80    .**.    DCD    3207211648
        0x00014d4c:    bf3eff1b    ..>.    DCD    3208576795
        0x00014d50:    bf2a758e    .u*.    DCD    3207230862
        0x00014d54:    bf3ebc1b    ..>.    DCD    3208559643
        0x00014d58:    bf2ac082    ..*.    DCD    3207250050
        0x00014d5c:    bf3e78ff    .x>.    DCD    3208542463
        0x00014d60:    bf2b0b5b    [.+.    DCD    3207269211
        0x00014d64:    bf3e35c5    .5>.    DCD    3208525253
        0x00014d68:    bf2b561b    .V+.    DCD    3207288347
        0x00014d6c:    bf3df26e    n.=.    DCD    3208508014
        0x00014d70:    bf2ba0bf    ..+.    DCD    3207307455
        0x00014d74:    bf3daef9    ..=.    DCD    3208490745
        0x00014d78:    bf2beb4a    J.+.    DCD    3207326538
        0x00014d7c:    bf3d6b67    gk=.    DCD    3208473447
        0x00014d80:    bf2c35b9    .5,.    DCD    3207345593
        0x00014d84:    bf3d27b8    .'=.    DCD    3208456120
        0x00014d88:    bf2c800f    ..,.    DCD    3207364623
        0x00014d8c:    bf3ce3ec    ..<.    DCD    3208438764
        0x00014d90:    bf2cca49    I.,.    DCD    3207383625
        0x00014d94:    bf3ca003    ..<.    DCD    3208421379
        0x00014d98:    bf2d1469    i.-.    DCD    3207402601
        0x00014d9c:    bf3c5bfc    .[<.    DCD    3208403964
        0x00014da0:    bf2d5e6f    o^-.    DCD    3207421551
        0x00014da4:    bf3c17d9    ..<.    DCD    3208386521
        0x00014da8:    bf2da859    Y.-.    DCD    3207440473
        0x00014dac:    bf3bd398    ..;.    DCD    3208369048
        0x00014db0:    bf2df229    ).-.    DCD    3207459369
        0x00014db4:    bf3b8f3b    ;.;.    DCD    3208351547
        0x00014db8:    bf2e3bde    .;..    DCD    3207478238
        0x00014dbc:    bf3b4ac1    .J;.    DCD    3208334017
        0x00014dc0:    bf2e8578    x...    DCD    3207497080
        0x00014dc4:    bf3b0629    ).;.    DCD    3208316457
        0x00014dc8:    bf2ecef7    ....    DCD    3207515895
        0x00014dcc:    bf3ac175    u.:.    DCD    3208298869
        0x00014dd0:    bf2f185b    [./.    DCD    3207534683
        0x00014dd4:    bf3a7ca4    .|:.    DCD    3208281252
        0x00014dd8:    bf2f61a5    .a/.    DCD    3207553445
        0x00014ddc:    bf3a37b7    .7:.    DCD    3208263607
        0x00014de0:    bf2faad3    ../.    DCD    3207572179
        0x00014de4:    bf39f2ac    ..9.    DCD    3208245932
        0x00014de8:    bf2ff3e6    ../.    DCD    3207590886
        0x00014dec:    bf39ad85    ..9.    DCD    3208228229
        0x00014df0:    bf303cde    .<0.    DCD    3207609566
        0x00014df4:    bf396842    Bh9.    DCD    3208210498
        0x00014df8:    bf3085bb    ..0.    DCD    3207628219
        0x00014dfc:    bf3922e1    ."9.    DCD    3208192737
        0x00014e00:    bf30ce7c    |.0.    DCD    3207646844
        0x00014e04:    bf38dd65    e.8.    DCD    3208174949
        0x00014e08:    bf311722    ".1.    DCD    3207665442
        0x00014e0c:    bf3897cb    ..8.    DCD    3208157131
        0x00014e10:    bf315fad    ._1.    DCD    3207684013
        0x00014e14:    bf385216    .R8.    DCD    3208139286
        0x00014e18:    bf31a81d    ..1.    DCD    3207702557
        0x00014e1c:    bf380c43    C.8.    DCD    3208121411
        0x00014e20:    bf31f071    q.1.    DCD    3207721073
        0x00014e24:    bf37c655    U.7.    DCD    3208103509
        0x00014e28:    bf3238aa    .82.    DCD    3207739562
        0x00014e2c:    bf37804a    J.7.    DCD    3208085578
        0x00014e30:    bf3280c7    ..2.    DCD    3207758023
        0x00014e34:    bf373a23    #:7.    DCD    3208067619
        0x00014e38:    bf32c8c9    ..2.    DCD    3207776457
        0x00014e3c:    bf36f3df    ..6.    DCD    3208049631
        0x00014e40:    bf3310af    ..3.    DCD    3207794863
        0x00014e44:    bf36ad7f    ..6.    DCD    3208031615
        0x00014e48:    bf33587a    zX3.    DCD    3207813242
        0x00014e4c:    bf366704    .g6.    DCD    3208013572
        0x00014e50:    bf33a029    ).3.    DCD    3207831593
        0x00014e54:    bf36206c    l 6.    DCD    3207995500
        0x00014e58:    bf33e7bc    ..3.    DCD    3207849916
        0x00014e5c:    bf35d9b8    ..5.    DCD    3207977400
        0x00014e60:    bf342f34    4/4.    DCD    3207868212
        0x00014e64:    bf3592e7    ..5.    DCD    3207959271
        0x00014e68:    bf34768f    .v4.    DCD    3207886479
        0x00014e6c:    bf354bfb    .K5.    DCD    3207941115
        0x00014e70:    bf34bdcf    ..4.    DCD    3207904719
        0x00014e74:    bf3504f3    ..5.    DCD    3207922931
        0x00014e78:    bf3504f3    ..5.    DCD    3207922931
        0x00014e7c:    bf34bdcf    ..4.    DCD    3207904719
        0x00014e80:    bf354bfb    .K5.    DCD    3207941115
        0x00014e84:    bf34768f    .v4.    DCD    3207886479
        0x00014e88:    bf3592e7    ..5.    DCD    3207959271
        0x00014e8c:    bf342f34    4/4.    DCD    3207868212
        0x00014e90:    bf35d9b8    ..5.    DCD    3207977400
        0x00014e94:    bf33e7bc    ..3.    DCD    3207849916
        0x00014e98:    bf36206c    l 6.    DCD    3207995500
        0x00014e9c:    bf33a029    ).3.    DCD    3207831593
        0x00014ea0:    bf366704    .g6.    DCD    3208013572
        0x00014ea4:    bf33587a    zX3.    DCD    3207813242
        0x00014ea8:    bf36ad7f    ..6.    DCD    3208031615
        0x00014eac:    bf3310af    ..3.    DCD    3207794863
        0x00014eb0:    bf36f3df    ..6.    DCD    3208049631
        0x00014eb4:    bf32c8c9    ..2.    DCD    3207776457
        0x00014eb8:    bf373a23    #:7.    DCD    3208067619
        0x00014ebc:    bf3280c7    ..2.    DCD    3207758023
        0x00014ec0:    bf37804a    J.7.    DCD    3208085578
        0x00014ec4:    bf3238aa    .82.    DCD    3207739562
        0x00014ec8:    bf37c655    U.7.    DCD    3208103509
        0x00014ecc:    bf31f071    q.1.    DCD    3207721073
        0x00014ed0:    bf380c43    C.8.    DCD    3208121411
        0x00014ed4:    bf31a81d    ..1.    DCD    3207702557
        0x00014ed8:    bf385216    .R8.    DCD    3208139286
        0x00014edc:    bf315fad    ._1.    DCD    3207684013
        0x00014ee0:    bf3897cb    ..8.    DCD    3208157131
        0x00014ee4:    bf311722    ".1.    DCD    3207665442
        0x00014ee8:    bf38dd65    e.8.    DCD    3208174949
        0x00014eec:    bf30ce7c    |.0.    DCD    3207646844
        0x00014ef0:    bf3922e1    ."9.    DCD    3208192737
        0x00014ef4:    bf3085bb    ..0.    DCD    3207628219
        0x00014ef8:    bf396842    Bh9.    DCD    3208210498
        0x00014efc:    bf303cde    .<0.    DCD    3207609566
        0x00014f00:    bf39ad85    ..9.    DCD    3208228229
        0x00014f04:    bf2ff3e6    ../.    DCD    3207590886
        0x00014f08:    bf39f2ac    ..9.    DCD    3208245932
        0x00014f0c:    bf2faad3    ../.    DCD    3207572179
        0x00014f10:    bf3a37b7    .7:.    DCD    3208263607
        0x00014f14:    bf2f61a5    .a/.    DCD    3207553445
        0x00014f18:    bf3a7ca4    .|:.    DCD    3208281252
        0x00014f1c:    bf2f185b    [./.    DCD    3207534683
        0x00014f20:    bf3ac175    u.:.    DCD    3208298869
        0x00014f24:    bf2ecef7    ....    DCD    3207515895
        0x00014f28:    bf3b0629    ).;.    DCD    3208316457
        0x00014f2c:    bf2e8578    x...    DCD    3207497080
        0x00014f30:    bf3b4ac1    .J;.    DCD    3208334017
        0x00014f34:    bf2e3bde    .;..    DCD    3207478238
        0x00014f38:    bf3b8f3b    ;.;.    DCD    3208351547
        0x00014f3c:    bf2df229    ).-.    DCD    3207459369
        0x00014f40:    bf3bd398    ..;.    DCD    3208369048
        0x00014f44:    bf2da859    Y.-.    DCD    3207440473
        0x00014f48:    bf3c17d9    ..<.    DCD    3208386521
        0x00014f4c:    bf2d5e6f    o^-.    DCD    3207421551
        0x00014f50:    bf3c5bfc    .[<.    DCD    3208403964
        0x00014f54:    bf2d1469    i.-.    DCD    3207402601
        0x00014f58:    bf3ca003    ..<.    DCD    3208421379
        0x00014f5c:    bf2cca49    I.,.    DCD    3207383625
        0x00014f60:    bf3ce3ec    ..<.    DCD    3208438764
        0x00014f64:    bf2c800f    ..,.    DCD    3207364623
        0x00014f68:    bf3d27b8    .'=.    DCD    3208456120
        0x00014f6c:    bf2c35b9    .5,.    DCD    3207345593
        0x00014f70:    bf3d6b67    gk=.    DCD    3208473447
        0x00014f74:    bf2beb4a    J.+.    DCD    3207326538
        0x00014f78:    bf3daef9    ..=.    DCD    3208490745
        0x00014f7c:    bf2ba0bf    ..+.    DCD    3207307455
        0x00014f80:    bf3df26e    n.=.    DCD    3208508014
        0x00014f84:    bf2b561b    .V+.    DCD    3207288347
        0x00014f88:    bf3e35c5    .5>.    DCD    3208525253
        0x00014f8c:    bf2b0b5b    [.+.    DCD    3207269211
        0x00014f90:    bf3e78ff    .x>.    DCD    3208542463
        0x00014f94:    bf2ac082    ..*.    DCD    3207250050
        0x00014f98:    bf3ebc1b    ..>.    DCD    3208559643
        0x00014f9c:    bf2a758e    .u*.    DCD    3207230862
        0x00014fa0:    bf3eff1b    ..>.    DCD    3208576795
        0x00014fa4:    bf2a2a80    .**.    DCD    3207211648
        0x00014fa8:    bf3f41fc    .A?.    DCD    3208593916
        0x00014fac:    bf29df57    W.).    DCD    3207192407
        0x00014fb0:    bf3f84c0    ..?.    DCD    3208611008
        0x00014fb4:    bf299415    ..).    DCD    3207173141
        0x00014fb8:    bf3fc767    g.?.    DCD    3208628071
        0x00014fbc:    bf2948b8    .H).    DCD    3207153848
        0x00014fc0:    bf4009f0    ..@.    DCD    3208645104
        0x00014fc4:    bf28fd41    A.(.    DCD    3207134529
        0x00014fc8:    bf404c5c    \L@.    DCD    3208662108
        0x00014fcc:    bf28b1b0    ..(.    DCD    3207115184
        0x00014fd0:    bf408ea9    ..@.    DCD    3208679081
        0x00014fd4:    bf286605    .f(.    DCD    3207095813
        0x00014fd8:    bf40d0da    ..@.    DCD    3208696026
        0x00014fdc:    bf281a40    @.(.    DCD    3207076416
        0x00014fe0:    bf4112ec    ..A.    DCD    3208712940
        0x00014fe4:    bf27ce61    a.'.    DCD    3207056993
        0x00014fe8:    bf4154e1    .TA.    DCD    3208729825
        0x00014fec:    bf278268    h.'.    DCD    3207037544
        0x00014ff0:    bf4196b7    ..A.    DCD    3208746679
        0x00014ff4:    bf273656    V6'.    DCD    3207018070
        0x00014ff8:    bf41d870    p.A.    DCD    3208763504
        0x00014ffc:    bf26ea2a    *.&.    DCD    3206998570
        0x00015000:    bf421a0b    ..B.    DCD    3208780299
        0x00015004:    bf269de3    ..&.    DCD    3206979043
        0x00015008:    bf425b89    .[B.    DCD    3208797065
        0x0001500c:    bf265184    .Q&.    DCD    3206959492
        0x00015010:    bf429ce8    ..B.    DCD    3208813800
        0x00015014:    bf26050a    ..&.    DCD    3206939914
        0x00015018:    bf42de29    ).B.    DCD    3208830505
        0x0001501c:    bf25b877    w.%.    DCD    3206920311
        0x00015020:    bf431f4c    L.C.    DCD    3208847180
        0x00015024:    bf256bcb    .k%.    DCD    3206900683
        0x00015028:    bf436051    Q`C.    DCD    3208863825
        0x0001502c:    bf251f04    ..%.    DCD    3206881028
        0x00015030:    bf43a138    8.C.    DCD    3208880440
        0x00015034:    bf24d225    %.$.    DCD    3206861349
        0x00015038:    bf43e200    ..C.    DCD    3208897024
        0x0001503c:    bf24852c    ,.$.    DCD    3206841644
        0x00015040:    bf4422ab    ."D.    DCD    3208913579
        0x00015044:    bf24381a    .8$.    DCD    3206821914
        0x00015048:    bf446337    7cD.    DCD    3208930103
        0x0001504c:    bf23eaee    ..#.    DCD    3206802158
        0x00015050:    bf44a3a5    ..D.    DCD    3208946597
        0x00015054:    bf239da9    ..#.    DCD    3206782377
        0x00015058:    bf44e3f5    ..D.    DCD    3208963061
        0x0001505c:    bf23504b    KP#.    DCD    3206762571
        0x00015060:    bf452426    &$E.    DCD    3208979494
        0x00015064:    bf2302d3    ..#.    DCD    3206742739
        0x00015068:    bf456439    9dE.    DCD    3208995897
        0x0001506c:    bf22b543    C.".    DCD    3206722883
        0x00015070:    bf45a42d    -.E.    DCD    3209012269
        0x00015074:    bf226799    .g".    DCD    3206703001
        0x00015078:    bf45e403    ..E.    DCD    3209028611
        0x0001507c:    bf2219d7    ..".    DCD    3206683095
        0x00015080:    bf4623bb    .#F.    DCD    3209044923
        0x00015084:    bf21cbfb    ..!.    DCD    3206663163
        0x00015088:    bf466354    TcF.    DCD    3209061204
        0x0001508c:    bf217e06    .~!.    DCD    3206643206
        0x00015090:    bf46a2ce    ..F.    DCD    3209077454
        0x00015094:    bf212ff9    ./!.    DCD    3206623225
        0x00015098:    bf46e22a    *.F.    DCD    3209093674
        0x0001509c:    bf20e1d2    .. .    DCD    3206603218
        0x000150a0:    bf472167    g!G.    DCD    3209109863
        0x000150a4:    bf209393    .. .    DCD    3206583187
        0x000150a8:    bf476085    .`G.    DCD    3209126021
        0x000150ac:    bf20453b    ;E .    DCD    3206563131
        0x000150b0:    bf479f84    ..G.    DCD    3209142148
        0x000150b4:    bf1ff6cb    ....    DCD    3206543051
        0x000150b8:    bf47de65    e.G.    DCD    3209158245
        0x000150bc:    bf1fa841    A...    DCD    3206522945
        0x000150c0:    bf481d27    '.H.    DCD    3209174311
        0x000150c4:    bf1f599f    .Y..    DCD    3206502815
        0x000150c8:    bf485bca    .[H.    DCD    3209190346
        0x000150cc:    bf1f0ae5    ....    DCD    3206482661
        0x000150d0:    bf489a4e    N.H.    DCD    3209206350
        0x000150d4:    bf1ebc12    ....    DCD    3206462482
        0x000150d8:    bf48d8b3    ..H.    DCD    3209222323
        0x000150dc:    bf1e6d26    &m..    DCD    3206442278
        0x000150e0:    bf4916fa    ..I.    DCD    3209238266
        0x000150e4:    bf1e1e22    "...    DCD    3206422050
        0x000150e8:    bf495521    !UI.    DCD    3209254177
        0x000150ec:    bf1dcf06    ....    DCD    3206401798
        0x000150f0:    bf499329    ).I.    DCD    3209270057
        0x000150f4:    bf1d7fd1    ....    DCD    3206381521
        0x000150f8:    bf49d112    ..I.    DCD    3209285906
        0x000150fc:    bf1d3084    .0..    DCD    3206361220
        0x00015100:    bf4a0edc    ..J.    DCD    3209301724
        0x00015104:    bf1ce11f    ....    DCD    3206340895
        0x00015108:    bf4a4c87    .LJ.    DCD    3209317511
        0x0001510c:    bf1c91a2    ....    DCD    3206320546
        0x00015110:    bf4a8a13    ..J.    DCD    3209333267
        0x00015114:    bf1c420c    .B..    DCD    3206300172
        0x00015118:    bf4ac77f    ..J.    DCD    3209348991
        0x0001511c:    bf1bf25f    _...    DCD    3206279775
        0x00015120:    bf4b04cc    ..K.    DCD    3209364684
        0x00015124:    bf1ba299    ....    DCD    3206259353
        0x00015128:    bf4b41fa    .AK.    DCD    3209380346
        0x0001512c:    bf1b52bb    .R..    DCD    3206238907
        0x00015130:    bf4b7f09    ..K.    DCD    3209395977
        0x00015134:    bf1b02c6    ....    DCD    3206218438
        0x00015138:    bf4bbbf8    ..K.    DCD    3209411576
        0x0001513c:    bf1ab2b8    ....    DCD    3206197944
        0x00015140:    bf4bf8c7    ..K.    DCD    3209427143
        0x00015144:    bf1a6293    .b..    DCD    3206177427
        0x00015148:    bf4c3578    x5L.    DCD    3209442680
        0x0001514c:    bf1a1255    U...    DCD    3206156885
        0x00015150:    bf4c7208    .rL.    DCD    3209458184
        0x00015154:    bf19c200    ....    DCD    3206136320
        0x00015158:    bf4cae79    y.L.    DCD    3209473657
        0x0001515c:    bf197194    .q..    DCD    3206115732
        0x00015160:    bf4ceacb    ..L.    DCD    3209489099
        0x00015164:    bf19210f    .!..    DCD    3206095119
        0x00015168:    bf4d26fd    .&M.    DCD    3209504509
        0x0001516c:    bf18d073    s...    DCD    3206074483
        0x00015170:    bf4d6310    .cM.    DCD    3209519888
        0x00015174:    bf187fc0    ....    DCD    3206053824
        0x00015178:    bf4d9f02    ..M.    DCD    3209535234
        0x0001517c:    bf182ef5    ....    DCD    3206033141
        0x00015180:    bf4ddad5    ..M.    DCD    3209550549
        0x00015184:    bf17de12    ....    DCD    3206012434
        0x00015188:    bf4e1689    ..N.    DCD    3209565833
        0x0001518c:    bf178d18    ....    DCD    3205991704
        0x00015190:    bf4e521c    .RN.    DCD    3209581084
        0x00015194:    bf173c07    .<..    DCD    3205970951
        0x00015198:    bf4e8d90    ..N.    DCD    3209596304
        0x0001519c:    bf16eadf    ....    DCD    3205950175
        0x000151a0:    bf4ec8e4    ..N.    DCD    3209611492
        0x000151a4:    bf16999f    ....    DCD    3205929375
        0x000151a8:    bf4f0417    ..O.    DCD    3209626647
        0x000151ac:    bf164847    GH..    DCD    3205908551
        0x000151b0:    bf4f3f2b    +?O.    DCD    3209641771
        0x000151b4:    bf15f6d9    ....    DCD    3205887705
        0x000151b8:    bf4f7a1f    .zO.    DCD    3209656863
        0x000151bc:    bf15a554    T...    DCD    3205866836
        0x000151c0:    bf4fb4f4    ..O.    DCD    3209671924
        0x000151c4:    bf1553b7    .S..    DCD    3205845943
        0x000151c8:    bf4fefa8    ..O.    DCD    3209686952
        0x000151cc:    bf150204    ....    DCD    3205825028
        0x000151d0:    bf502a3b    ;*P.    DCD    3209701947
        0x000151d4:    bf14b039    9...    DCD    3205804089
        0x000151d8:    bf5064af    .dP.    DCD    3209716911
        0x000151dc:    bf145e58    X^..    DCD    3205783128
        0x000151e0:    bf509f03    ..P.    DCD    3209731843
        0x000151e4:    bf140c5f    _...    DCD    3205762143
        0x000151e8:    bf50d937    7.P.    DCD    3209746743
        0x000151ec:    bf13ba50    P...    DCD    3205741136
        0x000151f0:    bf51134a    J.Q.    DCD    3209761610
        0x000151f4:    bf13682a    *h..    DCD    3205720106
        0x000151f8:    bf514d3d    =MQ.    DCD    3209776445
        0x000151fc:    bf1315ee    ....    DCD    3205699054
        0x00015200:    bf518710    ..Q.    DCD    3209791248
        0x00015204:    bf12c39a    ....    DCD    3205677978
        0x00015208:    bf51c0c2    ..Q.    DCD    3209806018
        0x0001520c:    bf127130    0q..    DCD    3205656880
        0x00015210:    bf51fa54    T.Q.    DCD    3209820756
        0x00015214:    bf121eb0    ....    DCD    3205635760
        0x00015218:    bf5233c6    .3R.    DCD    3209835462
        0x0001521c:    bf11cc19    ....    DCD    3205614617
        0x00015220:    bf526d18    .mR.    DCD    3209850136
        0x00015224:    bf11796b    ky..    DCD    3205593451
        0x00015228:    bf52a649    I.R.    DCD    3209864777
        0x0001522c:    bf1126a7    .&..    DCD    3205572263
        0x00015230:    bf52df59    Y.R.    DCD    3209879385
        0x00015234:    bf10d3cd    ....    DCD    3205551053
        0x00015238:    bf531849    I.S.    DCD    3209893961
        0x0001523c:    bf1080dc    ....    DCD    3205529820
        0x00015240:    bf535118    .QS.    DCD    3209908504
        0x00015244:    bf102dd5    .-..    DCD    3205508565
        0x00015248:    bf5389c7    ..S.    DCD    3209923015
        0x0001524c:    bf0fdab8    ....    DCD    3205487288
        0x00015250:    bf53c255    U.S.    DCD    3209937493
        0x00015254:    bf0f8784    ....    DCD    3205465988
        0x00015258:    bf53fac3    ..S.    DCD    3209951939
        0x0001525c:    bf0f343b    ;4..    DCD    3205444667
        0x00015260:    bf54330f    .3T.    DCD    3209966351
        0x00015264:    bf0ee0db    ....    DCD    3205423323
        0x00015268:    bf546b3b    ;kT.    DCD    3209980731
        0x0001526c:    bf0e8d65    e...    DCD    3205401957
        0x00015270:    bf54a347    G.T.    DCD    3209995079
        0x00015274:    bf0e39da    .9..    DCD    3205380570
        0x00015278:    bf54db31    1.T.    DCD    3210009393
        0x0001527c:    bf0de638    8...    DCD    3205359160
        0x00015280:    bf5512fb    ..U.    DCD    3210023675
        0x00015284:    bf0d9281    ....    DCD    3205337729
        0x00015288:    bf554aa4    .JU.    DCD    3210037924
        0x0001528c:    bf0d3eb3    .>..    DCD    3205316275
        0x00015290:    bf55822c    ,.U.    DCD    3210052140
        0x00015294:    bf0cead0    ....    DCD    3205294800
        0x00015298:    bf55b993    ..U.    DCD    3210066323
        0x0001529c:    bf0c96d7    ....    DCD    3205273303
        0x000152a0:    bf55f0d9    ..U.    DCD    3210080473
        0x000152a4:    bf0c42c9    .B..    DCD    3205251785
        0x000152a8:    bf5627fe    .'V.    DCD    3210094590
        0x000152ac:    bf0beea5    ....    DCD    3205230245
        0x000152b0:    bf565f02    ._V.    DCD    3210108674
        0x000152b4:    bf0b9a6b    k...    DCD    3205208683
        0x000152b8:    bf5695e5    ..V.    DCD    3210122725
        0x000152bc:    bf0b461c    .F..    DCD    3205187100
        0x000152c0:    bf56cca7    ..V.    DCD    3210136743
        0x000152c4:    bf0af1b7    ....    DCD    3205165495
        0x000152c8:    bf570348    H.W.    DCD    3210150728
        0x000152cc:    bf0a9d3d    =...    DCD    3205143869
        0x000152d0:    bf5739c7    .9W.    DCD    3210164679
        0x000152d4:    bf0a48ad    .H..    DCD    3205122221
        0x000152d8:    bf577026    &pW.    DCD    3210178598
        0x000152dc:    bf09f409    ....    DCD    3205100553
        0x000152e0:    bf57a663    c.W.    DCD    3210192483
        0x000152e4:    bf099f4e    N...    DCD    3205078862
        0x000152e8:    bf57dc7f    ..W.    DCD    3210206335
        0x000152ec:    bf094a7f    .J..    DCD    3205057151
        0x000152f0:    bf581279    y.X.    DCD    3210220153
        0x000152f4:    bf08f59b    ....    DCD    3205035419
        0x000152f8:    bf584853    SHX.    DCD    3210233939
        0x000152fc:    bf08a0a1    ....    DCD    3205013665
        0x00015300:    bf587e0b    .~X.    DCD    3210247691
        0x00015304:    bf084b92    .K..    DCD    3204991890
        0x00015308:    bf58b3a1    ..X.    DCD    3210261409
        0x0001530c:    bf07f66f    o...    DCD    3204970095
        0x00015310:    bf58e917    ..X.    DCD    3210275095
        0x00015314:    bf07a136    6...    DCD    3204948278
        0x00015318:    bf591e6a    j.Y.    DCD    3210288746
        0x0001531c:    bf074be8    .K..    DCD    3204926440
        0x00015320:    bf59539c    .SY.    DCD    3210302364
        0x00015324:    bf06f686    ....    DCD    3204904582
        0x00015328:    bf5988ad    ..Y.    DCD    3210315949
        0x0001532c:    bf06a10e    ....    DCD    3204882702
        0x00015330:    bf59bd9c    ..Y.    DCD    3210329500
        0x00015334:    bf064b82    .K..    DCD    3204860802
        0x00015338:    bf59f26a    j.Y.    DCD    3210343018
        0x0001533c:    bf05f5e2    ....    DCD    3204838882
        0x00015340:    bf5a2716    .'Z.    DCD    3210356502
        0x00015344:    bf05a02c    ,...    DCD    3204816940
        0x00015348:    bf5a5ba0    .[Z.    DCD    3210369952
        0x0001534c:    bf054a62    bJ..    DCD    3204794978
        0x00015350:    bf5a9009    ..Z.    DCD    3210383369
        0x00015354:    bf04f484    ....    DCD    3204772996
        0x00015358:    bf5ac450    P.Z.    DCD    3210396752
        0x0001535c:    bf049e91    ....    DCD    3204750993
        0x00015360:    bf5af875    u.Z.    DCD    3210410101
        0x00015364:    bf044889    .H..    DCD    3204728969
        0x00015368:    bf5b2c79    y,[.    DCD    3210423417
        0x0001536c:    bf03f26d    m...    DCD    3204706925
        0x00015370:    bf5b605a    Z`[.    DCD    3210436698
        0x00015374:    bf039c3d    =...    DCD    3204684861
        0x00015378:    bf5b941a    ..[.    DCD    3210449946
        0x0001537c:    bf0345f8    .E..    DCD    3204662776
        0x00015380:    bf5bc7b8    ..[.    DCD    3210463160
        0x00015384:    bf02ef9f    ....    DCD    3204640671
        0x00015388:    bf5bfb34    4.[.    DCD    3210476340
        0x0001538c:    bf029932    2...    DCD    3204618546
        0x00015390:    bf5c2e8e    ..\.    DCD    3210489486
        0x00015394:    bf0242b1    .B..    DCD    3204596401
        0x00015398:    bf5c61c7    .a\.    DCD    3210502599
        0x0001539c:    bf01ec1c    ....    DCD    3204574236
        0x000153a0:    bf5c94dd    ..\.    DCD    3210515677
        0x000153a4:    bf019573    s...    DCD    3204552051
        0x000153a8:    bf5cc7d1    ..\.    DCD    3210528721
        0x000153ac:    bf013eb5    .>..    DCD    3204529845
        0x000153b0:    bf5cfaa3    ..\.    DCD    3210541731
        0x000153b4:    bf00e7e4    ....    DCD    3204507620
        0x000153b8:    bf5d2d53    S-].    DCD    3210554707
        0x000153bc:    bf0090ff    ....    DCD    3204485375
        0x000153c0:    bf5d5fe1    ._].    DCD    3210567649
        0x000153c4:    bf003a06    .:..    DCD    3204463110
        0x000153c8:    bf5d924d    M.].    DCD    3210580557
        0x000153cc:    beffc5f3    ....    DCD    3204433395
        0x000153d0:    bf5dc497    ..].    DCD    3210593431
        0x000153d4:    beff17b2    ....    DCD    3204388786
        0x000153d8:    bf5df6be    ..].    DCD    3210606270
        0x000153dc:    befe694a    Ji..    DCD    3204344138
        0x000153e0:    bf5e28c3    .(^.    DCD    3210619075
        0x000153e4:    befdbabb    ....    DCD    3204299451
        0x000153e8:    bf5e5aa6    .Z^.    DCD    3210631846
        0x000153ec:    befd0c04    ....    DCD    3204254724
        0x000153f0:    bf5e8c67    g.^.    DCD    3210644583
        0x000153f4:    befc5d27    ']..    DCD    3204209959
        0x000153f8:    bf5ebe05    ..^.    DCD    3210657285
        0x000153fc:    befbae22    "...    DCD    3204165154
        0x00015400:    bf5eef81    ..^.    DCD    3210669953
        0x00015404:    befafef7    ....    DCD    3204120311
        0x00015408:    bf5f20db    . _.    DCD    3210682587
        0x0001540c:    befa4fa5    .O..    DCD    3204075429
        0x00015410:    bf5f5212    .R_.    DCD    3210695186
        0x00015414:    bef9a02d    -...    DCD    3204030509
        0x00015418:    bf5f8327    '._.    DCD    3210707751
        0x0001541c:    bef8f08e    ....    DCD    3203985550
        0x00015420:    bf5fb419    .._.    DCD    3210720281
        0x00015424:    bef840c8    .@..    DCD    3203940552
        0x00015428:    bf5fe4e9    .._.    DCD    3210732777
        0x0001542c:    bef790dc    ....    DCD    3203895516
        0x00015430:    bf601596    ..`.    DCD    3210745238
        0x00015434:    bef6e0cb    ....    DCD    3203850443
        0x00015438:    bf604621    !F`.    DCD    3210757665
        0x0001543c:    bef63093    .0..    DCD    3203805331
        0x00015440:    bf607689    .v`.    DCD    3210770057
        0x00015444:    bef58035    5...    DCD    3203760181
        0x00015448:    bf60a6cf    ..`.    DCD    3210782415
        0x0001544c:    bef4cfb1    ....    DCD    3203714993
        0x00015450:    bf60d6f2    ..`.    DCD    3210794738
        0x00015454:    bef41f07    ....    DCD    3203669767
        0x00015458:    bf6106f2    ..a.    DCD    3210807026
        0x0001545c:    bef36e38    8n..    DCD    3203624504
        0x00015460:    bf6136d0    .6a.    DCD    3210819280
        0x00015464:    bef2bd43    C...    DCD    3203579203
        0x00015468:    bf61668a    .fa.    DCD    3210831498
        0x0001546c:    bef20c29    )...    DCD    3203533865
        0x00015470:    bf619622    ".a.    DCD    3210843682
        0x00015474:    bef15aea    .Z..    DCD    3203488490
        0x00015478:    bf61c598    ..a.    DCD    3210855832
        0x0001547c:    bef0a985    ....    DCD    3203443077
        0x00015480:    bf61f4ea    ..a.    DCD    3210867946
        0x00015484:    beeff7fb    ....    DCD    3203397627
        0x00015488:    bf62241a    .$b.    DCD    3210880026
        0x0001548c:    beef464c    LF..    DCD    3203352140
        0x00015490:    bf625326    &Sb.    DCD    3210892070
        0x00015494:    beee9479    y...    DCD    3203306617
        0x00015498:    bf628210    ..b.    DCD    3210904080
        0x0001549c:    beede280    ....    DCD    3203261056
        0x000154a0:    bf62b0d7    ..b.    DCD    3210916055
        0x000154a4:    beed3063    c0..    DCD    3203215459
        0x000154a8:    bf62df7b    {.b.    DCD    3210927995
        0x000154ac:    beec7e21    !~..    DCD    3203169825
        0x000154b0:    bf630dfc    ..c.    DCD    3210939900
        0x000154b4:    beebcbbb    ....    DCD    3203124155
        0x000154b8:    bf633c5a    Z<c.    DCD    3210951770
        0x000154bc:    beeb1930    0...    DCD    3203078448
        0x000154c0:    bf636a95    .jc.    DCD    3210963605
        0x000154c4:    beea6681    .f..    DCD    3203032705
        0x000154c8:    bf6398ac    ..c.    DCD    3210975404
        0x000154cc:    bee9b3ae    ....    DCD    3202986926
        0x000154d0:    bf63c6a1    ..c.    DCD    3210987169
        0x000154d4:    bee900b7    ....    DCD    3202941111
        0x000154d8:    bf63f473    s.c.    DCD    3210998899
        0x000154dc:    bee84d9c    .M..    DCD    3202895260
        0x000154e0:    bf642221    !"d.    DCD    3211010593
        0x000154e4:    bee79a5d    ]...    DCD    3202849373
        0x000154e8:    bf644fac    .Od.    DCD    3211022252
        0x000154ec:    bee6e6fb    ....    DCD    3202803451
        0x000154f0:    bf647d14    .}d.    DCD    3211033876
        0x000154f4:    bee63375    u3..    DCD    3202757493
        0x000154f8:    bf64aa59    Y.d.    DCD    3211045465
        0x000154fc:    bee57fcb    ....    DCD    3202711499
        0x00015500:    bf64d77b    {.d.    DCD    3211057019
        0x00015504:    bee4cbfe    ....    DCD    3202665470
        0x00015508:    bf650479    y.e.    DCD    3211068537
        0x0001550c:    bee4180e    ....    DCD    3202619406
        0x00015510:    bf653154    T1e.    DCD    3211080020
        0x00015514:    bee363fa    .c..    DCD    3202573306
        0x00015518:    bf655e0b    .^e.    DCD    3211091467
        0x0001551c:    bee2afc4    ....    DCD    3202527172
        0x00015520:    bf658aa0    ..e.    DCD    3211102880
        0x00015524:    bee1fb6a    j...    DCD    3202481002
        0x00015528:    bf65b710    ..e.    DCD    3211114256
        0x0001552c:    bee146ee    .F..    DCD    3202434798
        0x00015530:    bf65e35e    ^.e.    DCD    3211125598
        0x00015534:    bee0924f    O...    DCD    3202388559
        0x00015538:    bf660f88    ..f.    DCD    3211136904
        0x0001553c:    bedfdd8d    ....    DCD    3202342285
        0x00015540:    bf663b8e    .;f.    DCD    3211148174
        0x00015544:    bedf28a9    .(..    DCD    3202295977
        0x00015548:    bf666771    qgf.    DCD    3211159409
        0x0001554c:    bede73a2    .s..    DCD    3202249634
        0x00015550:    bf669330    0.f.    DCD    3211170608
        0x00015554:    beddbe79    y...    DCD    3202203257
        0x00015558:    bf66becc    ..f.    DCD    3211181772
        0x0001555c:    bedd092e    ....    DCD    3202156846
        0x00015560:    bf66ea45    E.f.    DCD    3211192901
        0x00015564:    bedc53c1    .S..    DCD    3202110401
        0x00015568:    bf671599    ..g.    DCD    3211203993
        0x0001556c:    bedb9e31    1...    DCD    3202063921
        0x00015570:    bf6740ca    .@g.    DCD    3211215050
        0x00015574:    bedae880    ....    DCD    3202017408
        0x00015578:    bf676bd8    .kg.    DCD    3211226072
        0x0001557c:    beda32ad    .2..    DCD    3201970861
        0x00015580:    bf6796c1    ..g.    DCD    3211237057
        0x00015584:    bed97cb9    .|..    DCD    3201924281
        0x00015588:    bf67c187    ..g.    DCD    3211248007
        0x0001558c:    bed8c6a3    ....    DCD    3201877667
        0x00015590:    bf67ec2a    *.g.    DCD    3211258922
        0x00015594:    bed8106b    k...    DCD    3201831019
        0x00015598:    bf6816a8    ..h.    DCD    3211269800
        0x0001559c:    bed75a13    .Z..    DCD    3201784339
        0x000155a0:    bf684103    .Ah.    DCD    3211280643
        0x000155a4:    bed6a399    ....    DCD    3201737625
        0x000155a8:    bf686b39    9kh.    DCD    3211291449
        0x000155ac:    bed5ecfd    ....    DCD    3201690877
        0x000155b0:    bf68954c    L.h.    DCD    3211302220
        0x000155b4:    bed53641    A6..    DCD    3201644097
        0x000155b8:    bf68bf3c    <.h.    DCD    3211312956
        0x000155bc:    bed47f64    d...    DCD    3201597284
        0x000155c0:    bf68e907    ..h.    DCD    3211323655
        0x000155c4:    bed3c867    g...    DCD    3201550439
        0x000155c8:    bf6912ae    ..i.    DCD    3211334318
        0x000155cc:    bed31148    H...    DCD    3201503560
        0x000155d0:    bf693c32    2<i.    DCD    3211344946
        0x000155d4:    bed25a09    .Z..    DCD    3201456649
        0x000155d8:    bf696591    .ei.    DCD    3211355537
        0x000155dc:    bed1a2aa    ....    DCD    3201409706
        0x000155e0:    bf698ecc    ..i.    DCD    3211366092
        0x000155e4:    bed0eb2a    *...    DCD    3201362730
        0x000155e8:    bf69b7e4    ..i.    DCD    3211376612
        0x000155ec:    bed0338a    .3..    DCD    3201315722
        0x000155f0:    bf69e0d7    ..i.    DCD    3211387095
        0x000155f4:    becf7bca    .{..    DCD    3201268682
        0x000155f8:    bf6a09a7    ..j.    DCD    3211397543
        0x000155fc:    becec3ea    ....    DCD    3201221610
        0x00015600:    bf6a3252    R2j.    DCD    3211407954
        0x00015604:    bece0bea    ....    DCD    3201174506
        0x00015608:    bf6a5ad9    .Zj.    DCD    3211418329
        0x0001560c:    becd53ca    .S..    DCD    3201127370
        0x00015610:    bf6a833c    <.j.    DCD    3211428668
        0x00015614:    becc9b8b    ....    DCD    3201080203
        0x00015618:    bf6aab7b    {.j.    DCD    3211438971
        0x0001561c:    becbe32c    ,...    DCD    3201033004
        0x00015620:    bf6ad395    ..j.    DCD    3211449237
        0x00015624:    becb2aae    .*..    DCD    3200985774
        0x00015628:    bf6afb8c    ..j.    DCD    3211459468
        0x0001562c:    beca7210    .r..    DCD    3200938512
        0x00015630:    bf6b235e    ^#k.    DCD    3211469662
        0x00015634:    bec9b953    S...    DCD    3200891219
        0x00015638:    bf6b4b0c    .Kk.    DCD    3211479820
        0x0001563c:    bec90077    w...    DCD    3200843895
        0x00015640:    bf6b7295    .rk.    DCD    3211489941
        0x00015644:    bec8477c    |G..    DCD    3200796540
        0x00015648:    bf6b99fb    ..k.    DCD    3211500027
        0x0001564c:    bec78e62    b...    DCD    3200749154
        0x00015650:    bf6bc13b    ;.k.    DCD    3211510075
        0x00015654:    bec6d529    )...    DCD    3200701737
        0x00015658:    bf6be858    X.k.    DCD    3211520088
        0x0001565c:    bec61bd2    ....    DCD    3200654290
        0x00015660:    bf6c0f50    P.l.    DCD    3211530064
        0x00015664:    bec5625c    \b..    DCD    3200606812
        0x00015668:    bf6c3624    $6l.    DCD    3211540004
        0x0001566c:    bec4a8c8    ....    DCD    3200559304
        0x00015670:    bf6c5cd4    .\l.    DCD    3211549908
        0x00015674:    bec3ef15    ....    DCD    3200511765
        0x00015678:    bf6c835e    ^.l.    DCD    3211559774
        0x0001567c:    bec33544    D5..    DCD    3200464196
        0x00015680:    bf6ca9c5    ..l.    DCD    3211569605
        0x00015684:    bec27b55    U{..    DCD    3200416597
        0x00015688:    bf6cd007    ..l.    DCD    3211579399
        0x0001568c:    bec1c148    H...    DCD    3200368968
        0x00015690:    bf6cf624    $.l.    DCD    3211589156
        0x00015694:    bec1071e    ....    DCD    3200321310
        0x00015698:    bf6d1c1d    ..m.    DCD    3211598877
        0x0001569c:    bec04cd5    .L..    DCD    3200273621
        0x000156a0:    bf6d41f2    .Am.    DCD    3211608562
        0x000156a4:    bebf926f    o...    DCD    3200225903
        0x000156a8:    bf6d67a1    .gm.    DCD    3211618209
        0x000156ac:    bebed7eb    ....    DCD    3200178155
        0x000156b0:    bf6d8d2d    -.m.    DCD    3211627821
        0x000156b4:    bebe1d4a    J...    DCD    3200130378
        0x000156b8:    bf6db293    ..m.    DCD    3211637395
        0x000156bc:    bebd628b    .b..    DCD    3200082571
        0x000156c0:    bf6dd7d5    ..m.    DCD    3211646933
        0x000156c4:    bebca7af    ....    DCD    3200034735
        0x000156c8:    bf6dfcf2    ..m.    DCD    3211656434
        0x000156cc:    bebbecb6    ....    DCD    3199986870
        0x000156d0:    bf6e21eb    .!n.    DCD    3211665899
        0x000156d4:    bebb31a0    .1..    DCD    3199938976
        0x000156d8:    bf6e46be    .Fn.    DCD    3211675326
        0x000156dc:    beba766e    nv..    DCD    3199891054
        0x000156e0:    bf6e6b6d    mkn.    DCD    3211684717
        0x000156e4:    beb9bb1e    ....    DCD    3199843102
        0x000156e8:    bf6e8ff8    ..n.    DCD    3211694072
        0x000156ec:    beb8ffb2    ....    DCD    3199795122
        0x000156f0:    bf6eb45d    ].n.    DCD    3211703389
        0x000156f4:    beb8442a    *D..    DCD    3199747114
        0x000156f8:    bf6ed89e    ..n.    DCD    3211712670
        0x000156fc:    beb78884    ....    DCD    3199699076
        0x00015700:    bf6efcba    ..n.    DCD    3211721914
        0x00015704:    beb6ccc3    ....    DCD    3199651011
        0x00015708:    bf6f20b0    . o.    DCD    3211731120
        0x0001570c:    beb610e6    ....    DCD    3199602918
        0x00015710:    bf6f4483    .Do.    DCD    3211740291
        0x00015714:    beb554ec    .T..    DCD    3199554796
        0x00015718:    bf6f6830    0ho.    DCD    3211749424
        0x0001571c:    beb498d6    ....    DCD    3199506646
        0x00015720:    bf6f8bb8    ..o.    DCD    3211758520
        0x00015724:    beb3dca5    ....    DCD    3199458469
        0x00015728:    bf6faf1b    ..o.    DCD    3211767579
        0x0001572c:    beb32058    X ..    DCD    3199410264
        0x00015730:    bf6fd25a    Z.o.    DCD    3211776602
        0x00015734:    beb263ef    .c..    DCD    3199362031
        0x00015738:    bf6ff573    s.o.    DCD    3211785587
        0x0001573c:    beb1a76b    k...    DCD    3199313771
        0x00015740:    bf701867    g.p.    DCD    3211794535
        0x00015744:    beb0eacb    ....    DCD    3199265483
        0x00015748:    bf703b37    7;p.    DCD    3211803447
        0x0001574c:    beb02e10    ....    DCD    3199217168
        0x00015750:    bf705de1    .]p.    DCD    3211812321
        0x00015754:    beaf713a    :q..    DCD    3199168826
        0x00015758:    bf708066    f.p.    DCD    3211821158
        0x0001575c:    beaeb449    I...    DCD    3199120457
        0x00015760:    bf70a2c6    ..p.    DCD    3211829958
        0x00015764:    beadf73c    <...    DCD    3199072060
        0x00015768:    bf70c502    ..p.    DCD    3211838722
        0x0001576c:    bead3a15    .:..    DCD    3199023637
        0x00015770:    bf70e717    ..p.    DCD    3211847447
        0x00015774:    beac7cd4    .|..    DCD    3198975188
        0x00015778:    bf710908    ..q.    DCD    3211856136
        0x0001577c:    beabbf77    w...    DCD    3198926711
        0x00015780:    bf712ad4    .*q.    DCD    3211864788
        0x00015784:    beab0201    ....    DCD    3198878209
        0x00015788:    bf714c7a    zLq.    DCD    3211873402
        0x0001578c:    beaa446f    oD..    DCD    3198829679
        0x00015790:    bf716dfb    .mq.    DCD    3211881979
        0x00015794:    bea986c4    ....    DCD    3198781124
        0x00015798:    bf718f57    W.q.    DCD    3211890519
        0x0001579c:    bea8c8fe    ....    DCD    3198732542
        0x000157a0:    bf71b08e    ..q.    DCD    3211899022
        0x000157a4:    bea80b1f    ....    DCD    3198683935
        0x000157a8:    bf71d19f    ..q.    DCD    3211907487
        0x000157ac:    bea74d25    %M..    DCD    3198635301
        0x000157b0:    bf71f28c    ..q.    DCD    3211915916
        0x000157b4:    bea68f12    ....    DCD    3198586642
        0x000157b8:    bf721352    R.r.    DCD    3211924306
        0x000157bc:    bea5d0e5    ....    DCD    3198537957
        0x000157c0:    bf7233f4    .3r.    DCD    3211932660
        0x000157c4:    bea5129f    ....    DCD    3198489247
        0x000157c8:    bf725470    pTr.    DCD    3211940976
        0x000157cc:    bea4543f    ?T..    DCD    3198440511
        0x000157d0:    bf7274c7    .tr.    DCD    3211949255
        0x000157d4:    bea395c5    ....    DCD    3198391749
        0x000157d8:    bf7294f8    ..r.    DCD    3211957496
        0x000157dc:    bea2d733    3...    DCD    3198342963
        0x000157e0:    bf72b504    ..r.    DCD    3211965700
        0x000157e4:    bea21887    ....    DCD    3198294151
        0x000157e8:    bf72d4eb    ..r.    DCD    3211973867
        0x000157ec:    bea159c2    .Y..    DCD    3198245314
        0x000157f0:    bf72f4ac    ..r.    DCD    3211981996
        0x000157f4:    bea09ae5    ....    DCD    3198196453
        0x000157f8:    bf731447    G.s.    DCD    3211990087
        0x000157fc:    be9fdbee    ....    DCD    3198147566
        0x00015800:    bf7333be    .3s.    DCD    3211998142
        0x00015804:    be9f1cdf    ....    DCD    3198098655
        0x00015808:    bf73530e    .Ss.    DCD    3212006158
        0x0001580c:    be9e5db8    .]..    DCD    3198049720
        0x00015810:    bf737239    9rs.    DCD    3212014137
        0x00015814:    be9d9e78    x...    DCD    3198000760
        0x00015818:    bf73913f    ?.s.    DCD    3212022079
        0x0001581c:    be9cdf20     ...    DCD    3197951776
        0x00015820:    bf73b01f    ..s.    DCD    3212029983
        0x00015824:    be9c1faf    ....    DCD    3197902767
        0x00015828:    bf73ced9    ..s.    DCD    3212037849
        0x0001582c:    be9b6027    '`..    DCD    3197853735
        0x00015830:    bf73ed6e    n.s.    DCD    3212045678
        0x00015834:    be9aa086    ....    DCD    3197804678
        0x00015838:    bf740bdd    ..t.    DCD    3212053469
        0x0001583c:    be99e0ce    ....    DCD    3197755598
        0x00015840:    bf742a27    '*t.    DCD    3212061223
        0x00015844:    be9920fe    . ..    DCD    3197706494
        0x00015848:    bf74484b    KHt.    DCD    3212068939
        0x0001584c:    be986116    .a..    DCD    3197657366
        0x00015850:    bf746649    Ift.    DCD    3212076617
        0x00015854:    be97a117    ....    DCD    3197608215
        0x00015858:    bf748422    ".t.    DCD    3212084258
        0x0001585c:    be96e100    ....    DCD    3197559040
        0x00015860:    bf74a1d5    ..t.    DCD    3212091861
        0x00015864:    be9620d2    . ..    DCD    3197509842
        0x00015868:    bf74bf62    b.t.    DCD    3212099426
        0x0001586c:    be95608d    .`..    DCD    3197460621
        0x00015870:    bf74dcc9    ..t.    DCD    3212106953
        0x00015874:    be94a031    1...    DCD    3197411377
        0x00015878:    bf74fa0b    ..t.    DCD    3212114443
        0x0001587c:    be93dfbf    ....    DCD    3197362111
        0x00015880:    bf751727    '.u.    DCD    3212121895
        0x00015884:    be931f35    5...    DCD    3197312821
        0x00015888:    bf75341d    .4u.    DCD    3212129309
        0x0001588c:    be925e94    .^..    DCD    3197263508
        0x00015890:    bf7550ed    .Pu.    DCD    3212136685
        0x00015894:    be919ddd    ....    DCD    3197214173
        0x00015898:    bf756d97    .mu.    DCD    3212144023
        0x0001589c:    be90dd10    ....    DCD    3197164816
        0x000158a0:    bf758a1c    ..u.    DCD    3212151324
        0x000158a4:    be901c2c    ,...    DCD    3197115436
        0x000158a8:    bf75a67b    {.u.    DCD    3212158587
        0x000158ac:    be8f5b32    2[..    DCD    3197066034
        0x000158b0:    bf75c2b3    ..u.    DCD    3212165811
        0x000158b4:    be8e9a22    "...    DCD    3197016610
        0x000158b8:    bf75dec6    ..u.    DCD    3212172998
        0x000158bc:    be8dd8fc    ....    DCD    3196967164
        0x000158c0:    bf75fab3    ..u.    DCD    3212180147
        0x000158c4:    be8d17c0    ....    DCD    3196917696
        0x000158c8:    bf76167a    z.v.    DCD    3212187258
        0x000158cc:    be8c566e    nV..    DCD    3196868206
        0x000158d0:    bf76321b    .2v.    DCD    3212194331
        0x000158d4:    be8b9507    ....    DCD    3196818695
        0x000158d8:    bf764d97    .Mv.    DCD    3212201367
        0x000158dc:    be8ad38a    ....    DCD    3196769162
        0x000158e0:    bf7668ec    .hv.    DCD    3212208364
        0x000158e4:    be8a11f8    ....    DCD    3196719608
        0x000158e8:    bf76841b    ..v.    DCD    3212215323
        0x000158ec:    be895050    PP..    DCD    3196670032
        0x000158f0:    bf769f24    $.v.    DCD    3212222244
        0x000158f4:    be888e93    ....    DCD    3196620435
        0x000158f8:    bf76ba07    ..v.    DCD    3212229127
        0x000158fc:    be87ccc1    ....    DCD    3196570817
        0x00015900:    bf76d4c4    ..v.    DCD    3212235972
        0x00015904:    be870ada    ....    DCD    3196521178
        0x00015908:    bf76ef5b    [.v.    DCD    3212242779
        0x0001590c:    be8648df    .H..    DCD    3196471519
        0x00015910:    bf7709cc    ..w.    DCD    3212249548
        0x00015914:    be8586ce    ....    DCD    3196421838
        0x00015918:    bf772417    .$w.    DCD    3212256279
        0x0001591c:    be84c4aa    ....    DCD    3196372138
        0x00015920:    bf773e3c    <>w.    DCD    3212262972
        0x00015924:    be840270    p...    DCD    3196322416
        0x00015928:    bf77583a    :Xw.    DCD    3212269626
        0x0001592c:    be834022    "@..    DCD    3196272674
        0x00015930:    bf777213    .rw.    DCD    3212276243
        0x00015934:    be827dc0    .}..    DCD    3196222912
        0x00015938:    bf778bc5    ..w.    DCD    3212282821
        0x0001593c:    be81bb4a    J...    DCD    3196173130
        0x00015940:    bf77a551    Q.w.    DCD    3212289361
        0x00015944:    be80f8c0    ....    DCD    3196123328
        0x00015948:    bf77beb7    ..w.    DCD    3212295863
        0x0001594c:    be803622    "6..    DCD    3196073506
        0x00015950:    bf77d7f7    ..w.    DCD    3212302327
        0x00015954:    be7ee6e1    ..~.    DCD    3195987681
        0x00015958:    bf77f110    ..w.    DCD    3212308752
        0x0001595c:    be7d6156    Va}.    DCD    3195887958
        0x00015960:    bf780a04    ..x.    DCD    3212315140
        0x00015964:    be7bdba4    ..{.    DCD    3195788196
        0x00015968:    bf7822d1    ."x.    DCD    3212321489
        0x0001596c:    be7a55cb    .Uz.    DCD    3195688395
        0x00015970:    bf783b77    w;x.    DCD    3212327799
        0x00015974:    be78cfcc    ..x.    DCD    3195588556
        0x00015978:    bf7853f8    .Sx.    DCD    3212334072
        0x0001597c:    be7749a6    .Iw.    DCD    3195488678
        0x00015980:    bf786c52    Rlx.    DCD    3212340306
        0x00015984:    be75c35a    Z.u.    DCD    3195388762
        0x00015988:    bf788486    ..x.    DCD    3212346502
        0x0001598c:    be743ce8    .<t.    DCD    3195288808
        0x00015990:    bf789c93    ..x.    DCD    3212352659
        0x00015994:    be72b651    Q.r.    DCD    3195188817
        0x00015998:    bf78b47b    {.x.    DCD    3212358779
        0x0001599c:    be712f94    ./q.    DCD    3195088788
        0x000159a0:    bf78cc3b    ;.x.    DCD    3212364859
        0x000159a4:    be6fa8b2    ..o.    DCD    3194988722
        0x000159a8:    bf78e3d6    ..x.    DCD    3212370902
        0x000159ac:    be6e21ab    .!n.    DCD    3194888619
        0x000159b0:    bf78fb4a    J.x.    DCD    3212376906
        0x000159b4:    be6c9a7f    ..l.    DCD    3194788479
        0x000159b8:    bf791298    ..y.    DCD    3212382872
        0x000159bc:    be6b132f    /.k.    DCD    3194688303
        0x000159c0:    bf7929bf    .)y.    DCD    3212388799
        0x000159c4:    be698bba    ..i.    DCD    3194588090
        0x000159c8:    bf7940c0    .@y.    DCD    3212394688
        0x000159cc:    be680422    ".h.    DCD    3194487842
        0x000159d0:    bf79579a    .Wy.    DCD    3212400538
        0x000159d4:    be667c66    f|f.    DCD    3194387558
        0x000159d8:    bf796e4e    Nny.    DCD    3212406350
        0x000159dc:    be64f486    ..d.    DCD    3194287238
        0x000159e0:    bf7984dc    ..y.    DCD    3212412124
        0x000159e4:    be636c83    .lc.    DCD    3194186883
        0x000159e8:    bf799b43    C.y.    DCD    3212417859
        0x000159ec:    be61e45c    \.a.    DCD    3194086492
        0x000159f0:    bf79b183    ..y.    DCD    3212423555
        0x000159f4:    be605c13    .\`.    DCD    3193986067
        0x000159f8:    bf79c79d    ..y.    DCD    3212429213
        0x000159fc:    be5ed3a8    ..^.    DCD    3193885608
        0x00015a00:    bf79dd91    ..y.    DCD    3212434833
        0x00015a04:    be5d4b1a    .K].    DCD    3193785114
        0x00015a08:    bf79f35e    ^.y.    DCD    3212440414
        0x00015a0c:    be5bc26a    j.[.    DCD    3193684586
        0x00015a10:    bf7a0904    ..z.    DCD    3212445956
        0x00015a14:    be5a3997    .9Z.    DCD    3193584023
        0x00015a18:    bf7a1e84    ..z.    DCD    3212451460
        0x00015a1c:    be58b0a4    ..X.    DCD    3193483428
        0x00015a20:    bf7a33dd    .3z.    DCD    3212456925
        0x00015a24:    be57278f    .'W.    DCD    3193382799
        0x00015a28:    bf7a4910    .Iz.    DCD    3212462352
        0x00015a2c:    be559e58    X.U.    DCD    3193282136
        0x00015a30:    bf7a5e1c    .^z.    DCD    3212467740
        0x00015a34:    be541501    ..T.    DCD    3193181441
        0x00015a38:    bf7a7302    .sz.    DCD    3212473090
        0x00015a3c:    be528b89    ..R.    DCD    3193080713
        0x00015a40:    bf7a87c1    ..z.    DCD    3212478401
        0x00015a44:    be5101f1    ..Q.    DCD    3192979953
        0x00015a48:    bf7a9c59    Y.z.    DCD    3212483673
        0x00015a4c:    be4f7838    8xO.    DCD    3192879160
        0x00015a50:    bf7ab0cb    ..z.    DCD    3212488907
        0x00015a54:    be4dee60    `.M.    DCD    3192778336
        0x00015a58:    bf7ac516    ..z.    DCD    3212494102
        0x00015a5c:    be4c6467    gdL.    DCD    3192677479
        0x00015a60:    bf7ad93a    :.z.    DCD    3212499258
        0x00015a64:    be4ada4f    O.J.    DCD    3192576591
        0x00015a68:    bf7aed37    7.z.    DCD    3212504375
        0x00015a6c:    be495018    .PI.    DCD    3192475672
        0x00015a70:    bf7b010e    ..{.    DCD    3212509454
        0x00015a74:    be47c5c2    ..G.    DCD    3192374722
        0x00015a78:    bf7b14be    ..{.    DCD    3212514494
        0x00015a7c:    be463b4d    M;F.    DCD    3192273741
        0x00015a80:    bf7b2848    H({.    DCD    3212519496
        0x00015a84:    be44b0b9    ..D.    DCD    3192172729
        0x00015a88:    bf7b3bab    .;{.    DCD    3212524459
        0x00015a8c:    be432607    .&C.    DCD    3192071687
        0x00015a90:    bf7b4ee7    .N{.    DCD    3212529383
        0x00015a94:    be419b37    7.A.    DCD    3191970615
        0x00015a98:    bf7b61fc    .a{.    DCD    3212534268
        0x00015a9c:    be401049    I.@.    DCD    3191869513
        0x00015aa0:    bf7b74ea    .t{.    DCD    3212539114
        0x00015aa4:    be3e853e    >.>.    DCD    3191768382
        0x00015aa8:    bf7b87b2    ..{.    DCD    3212543922
        0x00015aac:    be3cfa15    ..<.    DCD    3191667221
        0x00015ab0:    bf7b9a53    S.{.    DCD    3212548691
        0x00015ab4:    be3b6ecf    .n;.    DCD    3191566031
        0x00015ab8:    bf7baccd    ..{.    DCD    3212553421
        0x00015abc:    be39e36c    l.9.    DCD    3191464812
        0x00015ac0:    bf7bbf20     .{.    DCD    3212558112
        0x00015ac4:    be3857ec    .W8.    DCD    3191363564
        0x00015ac8:    bf7bd14d    M.{.    DCD    3212562765
        0x00015acc:    be36cc50    P.6.    DCD    3191262288
        0x00015ad0:    bf7be353    S.{.    DCD    3212567379
        0x00015ad4:    be354098    .@5.    DCD    3191160984
        0x00015ad8:    bf7bf531    1.{.    DCD    3212571953
        0x00015adc:    be33b4c4    ..3.    DCD    3191059652
        0x00015ae0:    bf7c06e9    ..|.    DCD    3212576489
        0x00015ae4:    be3228d4    .(2.    DCD    3190958292
        0x00015ae8:    bf7c187a    z.|.    DCD    3212580986
        0x00015aec:    be309cc9    ..0.    DCD    3190856905
        0x00015af0:    bf7c29e5    .)|.    DCD    3212585445
        0x00015af4:    be2f10a2    ../.    DCD    3190755490
        0x00015af8:    bf7c3b28    (;|.    DCD    3212589864
        0x00015afc:    be2d8461    a.-.    DCD    3190654049
        0x00015b00:    bf7c4c44    DL|.    DCD    3212594244
        0x00015b04:    be2bf804    ..+.    DCD    3190552580
        0x00015b08:    bf7c5d3a    :]|.    DCD    3212598586
        0x00015b0c:    be2a6b8d    .k*.    DCD    3190451085
        0x00015b10:    bf7c6e08    .n|.    DCD    3212602888
        0x00015b14:    be28defc    ..(.    DCD    3190349564
        0x00015b18:    bf7c7eb0    .~|.    DCD    3212607152
        0x00015b1c:    be275251    QR'.    DCD    3190248017
        0x00015b20:    bf7c8f31    1.|.    DCD    3212611377
        0x00015b24:    be25c58c    ..%.    DCD    3190146444
        0x00015b28:    bf7c9f8a    ..|.    DCD    3212615562
        0x00015b2c:    be2438ad    .8$.    DCD    3190044845
        0x00015b30:    bf7cafbd    ..|.    DCD    3212619709
        0x00015b34:    be22abb6    ..".    DCD    3189943222
        0x00015b38:    bf7cbfc9    ..|.    DCD    3212623817
        0x00015b3c:    be211ea5    ..!.    DCD    3189841573
        0x00015b40:    bf7ccfae    ..|.    DCD    3212627886
        0x00015b44:    be1f917b    {...    DCD    3189739899
        0x00015b48:    bf7cdf6c    l.|.    DCD    3212631916
        0x00015b4c:    be1e0438    8...    DCD    3189638200
        0x00015b50:    bf7cef03    ..|.    DCD    3212635907
        0x00015b54:    be1c76de    .v..    DCD    3189536478
        0x00015b58:    bf7cfe73    s.|.    DCD    3212639859
        0x00015b5c:    be1ae96b    k...    DCD    3189434731
        0x00015b60:    bf7d0dbc    ..}.    DCD    3212643772
        0x00015b64:    be195be0    .[..    DCD    3189332960
        0x00015b68:    bf7d1cdd    ..}.    DCD    3212647645
        0x00015b6c:    be17ce3d    =...    DCD    3189231165
        0x00015b70:    bf7d2bd8    .+}.    DCD    3212651480
        0x00015b74:    be164083    .@..    DCD    3189129347
        0x00015b78:    bf7d3aac    .:}.    DCD    3212655276
        0x00015b7c:    be14b2b2    ....    DCD    3189027506
        0x00015b80:    bf7d4959    YI}.    DCD    3212659033
        0x00015b84:    be1324ca    .$..    DCD    3188925642
        0x00015b88:    bf7d57de    .W}.    DCD    3212662750
        0x00015b8c:    be1196cc    ....    DCD    3188823756
        0x00015b90:    bf7d663d    =f}.    DCD    3212666429
        0x00015b94:    be1008b7    ....    DCD    3188721847
        0x00015b98:    bf7d7474    tt}.    DCD    3212670068
        0x00015b9c:    be0e7a8b    .z..    DCD    3188619915
        0x00015ba0:    bf7d8285    ..}.    DCD    3212673669
        0x00015ba4:    be0cec4a    J...    DCD    3188517962
        0x00015ba8:    bf7d906e    n.}.    DCD    3212677230
        0x00015bac:    be0b5df3    .]..    DCD    3188415987
        0x00015bb0:    bf7d9e30    0.}.    DCD    3212680752
        0x00015bb4:    be09cf86    ....    DCD    3188313990
        0x00015bb8:    bf7dabcc    ..}.    DCD    3212684236
        0x00015bbc:    be084105    .A..    DCD    3188211973
        0x00015bc0:    bf7db940    @.}.    DCD    3212687680
        0x00015bc4:    be06b26e    n...    DCD    3188109934
        0x00015bc8:    bf7dc68c    ..}.    DCD    3212691084
        0x00015bcc:    be0523c2    .#..    DCD    3188007874
        0x00015bd0:    bf7dd3b2    ..}.    DCD    3212694450
        0x00015bd4:    be039502    ....    DCD    3187905794
        0x00015bd8:    bf7de0b1    ..}.    DCD    3212697777
        0x00015bdc:    be02062e    ....    DCD    3187803694
        0x00015be0:    bf7ded88    ..}.    DCD    3212701064
        0x00015be4:    be007745    Ew..    DCD    3187701573
        0x00015be8:    bf7dfa38    8.}.    DCD    3212704312
        0x00015bec:    bdfdd092    ....    DCD    3187527826
        0x00015bf0:    bf7e06c2    ..~.    DCD    3212707522
        0x00015bf4:    bdfab273    s...    DCD    3187323507
        0x00015bf8:    bf7e1324    $.~.    DCD    3212710692
        0x00015bfc:    bdf7942c    ,...    DCD    3187119148
        0x00015c00:    bf7e1f5e    ^.~.    DCD    3212713822
        0x00015c04:    bdf475c0    .u..    DCD    3186914752
        0x00015c08:    bf7e2b72    r+~.    DCD    3212716914
        0x00015c0c:    bdf1572e    .W..    DCD    3186710318
        0x00015c10:    bf7e375e    ^7~.    DCD    3212719966
        0x00015c14:    bdee3876    v8..    DCD    3186505846
        0x00015c18:    bf7e4323    #C~.    DCD    3212722979
        0x00015c1c:    bdeb199a    ....    DCD    3186301338
        0x00015c20:    bf7e4ec1    .N~.    DCD    3212725953
        0x00015c24:    bde7fa9a    ....    DCD    3186096794
        0x00015c28:    bf7e5a38    8Z~.    DCD    3212728888
        0x00015c2c:    bde4db76    v...    DCD    3185892214
        0x00015c30:    bf7e6588    .e~.    DCD    3212731784
        0x00015c34:    bde1bc2e    ....    DCD    3185687598
        0x00015c38:    bf7e70b0    .p~.    DCD    3212734640
        0x00015c3c:    bdde9cc4    ....    DCD    3185482948
        0x00015c40:    bf7e7bb1    .{~.    DCD    3212737457
        0x00015c44:    bddb7d37    7}..    DCD    3185278263
        0x00015c48:    bf7e868b    ..~.    DCD    3212740235
        0x00015c4c:    bdd85d89    .]..    DCD    3185073545
        0x00015c50:    bf7e913d    =.~.    DCD    3212742973
        0x00015c54:    bdd53db9    .=..    DCD    3184868793
        0x00015c58:    bf7e9bc9    ..~.    DCD    3212745673
        0x00015c5c:    bdd21dc8    ....    DCD    3184664008
        0x00015c60:    bf7ea62d    -.~.    DCD    3212748333
        0x00015c64:    bdcefdb7    ....    DCD    3184459191
        0x00015c68:    bf7eb069    i.~.    DCD    3212750953
        0x00015c6c:    bdcbdd86    ....    DCD    3184254342
        0x00015c70:    bf7eba7f    ..~.    DCD    3212753535
        0x00015c74:    bdc8bd36    6...    DCD    3184049462
        0x00015c78:    bf7ec46d    m.~.    DCD    3212756077
        0x00015c7c:    bdc59cc6    ....    DCD    3183844550
        0x00015c80:    bf7ece34    4.~.    DCD    3212758580
        0x00015c84:    bdc27c39    9|..    DCD    3183639609
        0x00015c88:    bf7ed7d4    ..~.    DCD    3212761044
        0x00015c8c:    bdbf5b8d    .[..    DCD    3183434637
        0x00015c90:    bf7ee14c    L.~.    DCD    3212763468
        0x00015c94:    bdbc3ac3    .:..    DCD    3183229635
        0x00015c98:    bf7eea9d    ..~.    DCD    3212765853
        0x00015c9c:    bdb919dd    ....    DCD    3183024605
        0x00015ca0:    bf7ef3c7    ..~.    DCD    3212768199
        0x00015ca4:    bdb5f8da    ....    DCD    3182819546
        0x00015ca8:    bf7efcc9    ..~.    DCD    3212770505
        0x00015cac:    bdb2d7bb    ....    DCD    3182614459
        0x00015cb0:    bf7f05a4    ....    DCD    3212772772
        0x00015cb4:    bdafb680    ....    DCD    3182409344
        0x00015cb8:    bf7f0e58    X...    DCD    3212775000
        0x00015cbc:    bdac952b    +...    DCD    3182204203
        0x00015cc0:    bf7f16e4    ....    DCD    3212777188
        0x00015cc4:    bda973ba    .s..    DCD    3181999034
        0x00015cc8:    bf7f1f49    I...    DCD    3212779337
        0x00015ccc:    bda65230    0R..    DCD    3181793840
        0x00015cd0:    bf7f2787    .'..    DCD    3212781447
        0x00015cd4:    bda3308c    .0..    DCD    3181588620
        0x00015cd8:    bf7f2f9d    ./..    DCD    3212783517
        0x00015cdc:    bda00ecf    ....    DCD    3181383375
        0x00015ce0:    bf7f378d    .7..    DCD    3212785549
        0x00015ce4:    bd9cecf9    ....    DCD    3181178105
        0x00015ce8:    bf7f3f54    T?..    DCD    3212787540
        0x00015cec:    bd99cb0a    ....    DCD    3180972810
        0x00015cf0:    bf7f46f4    .F..    DCD    3212789492
        0x00015cf4:    bd96a905    ....    DCD    3180767493
        0x00015cf8:    bf7f4e6d    mN..    DCD    3212791405
        0x00015cfc:    bd9386e7    ....    DCD    3180562151
        0x00015d00:    bf7f55bf    .U..    DCD    3212793279
        0x00015d04:    bd9064b4    .d..    DCD    3180356788
        0x00015d08:    bf7f5ce9    .\..    DCD    3212795113
        0x00015d0c:    bd8d426a    jB..    DCD    3180151402
        0x00015d10:    bf7f63ec    .c..    DCD    3212796908
        0x00015d14:    bd8a200a    . ..    DCD    3179945994
        0x00015d18:    bf7f6ac7    .j..    DCD    3212798663
        0x00015d1c:    bd86fd94    ....    DCD    3179740564
        0x00015d20:    bf7f717b    {q..    DCD    3212800379
        0x00015d24:    bd83db0a    ....    DCD    3179535114
        0x00015d28:    bf7f7808    .x..    DCD    3212802056
        0x00015d2c:    bd80b86c    l...    DCD    3179329644
        0x00015d30:    bf7f7e6d    m~..    DCD    3212803693
        0x00015d34:    bd7b2b74    t+{.    DCD    3178965876
        0x00015d38:    bf7f84ab    ....    DCD    3212805291
        0x00015d3c:    bd74e5e9    ..t.    DCD    3178554857
        0x00015d40:    bf7f8ac2    ....    DCD    3212806850
        0x00015d44:    bd6ea038    8.n.    DCD    3178143800
        0x00015d48:    bf7f90b1    ....    DCD    3212808369
        0x00015d4c:    bd685a62    bZh.    DCD    3177732706
        0x00015d50:    bf7f9678    x...    DCD    3212809848
        0x00015d54:    bd621468    h.b.    DCD    3177321576
        0x00015d58:    bf7f9c18    ....    DCD    3212811288
        0x00015d5c:    bd5bce4c    L.[.    DCD    3176910412
        0x00015d60:    bf7fa191    ....    DCD    3212812689
        0x00015d64:    bd55880e    ..U.    DCD    3176499214
        0x00015d68:    bf7fa6e3    ....    DCD    3212814051
        0x00015d6c:    bd4f41af    .AO.    DCD    3176087983
        0x00015d70:    bf7fac0d    ....    DCD    3212815373
        0x00015d74:    bd48fb2f    /.H.    DCD    3175676719
        0x00015d78:    bf7fb10f    ....    DCD    3212816655
        0x00015d7c:    bd42b491    ..B.    DCD    3175265425
        0x00015d80:    bf7fb5ea    ....    DCD    3212817898
        0x00015d84:    bd3c6dd5    .m<.    DCD    3174854101
        0x00015d88:    bf7fba9e    ....    DCD    3212819102
        0x00015d8c:    bd3626fc    .&6.    DCD    3174442748
        0x00015d90:    bf7fbf2a    *...    DCD    3212820266
        0x00015d94:    bd2fe007    ../.    DCD    3174031367
        0x00015d98:    bf7fc38f    ....    DCD    3212821391
        0x00015d9c:    bd2998f6    ..).    DCD    3173619958
        0x00015da0:    bf7fc7cc    ....    DCD    3212822476
        0x00015da4:    bd2351cc    .Q#.    DCD    3173208524
        0x00015da8:    bf7fcbe2    ....    DCD    3212823522
        0x00015dac:    bd1d0a88    ....    DCD    3172797064
        0x00015db0:    bf7fcfd1    ....    DCD    3212824529
        0x00015db4:    bd16c32c    ,...    DCD    3172385580
        0x00015db8:    bf7fd398    ....    DCD    3212825496
        0x00015dbc:    bd107bb8    .{..    DCD    3171974072
        0x00015dc0:    bf7fd737    7...    DCD    3212826423
        0x00015dc4:    bd0a342f    /4..    DCD    3171562543
        0x00015dc8:    bf7fdaaf    ....    DCD    3212827311
        0x00015dcc:    bd03ec90    ....    DCD    3171150992
        0x00015dd0:    bf7fde00    ....    DCD    3212828160
        0x00015dd4:    bcfb49b9    .I..    DCD    3170585017
        0x00015dd8:    bf7fe129    )...    DCD    3212828969
        0x00015ddc:    bceeba2d    -...    DCD    3169761837
        0x00015de0:    bf7fe42b    +...    DCD    3212829739
        0x00015de4:    bce22a7b    {*..    DCD    3168938619
        0x00015de8:    bf7fe705    ....    DCD    3212830469
        0x00015dec:    bcd59aa6    ....    DCD    3168115366
        0x00015df0:    bf7fe9b8    ....    DCD    3212831160
        0x00015df4:    bcc90ab0    ....    DCD    3167292080
        0x00015df8:    bf7fec43    C...    DCD    3212831811
        0x00015dfc:    bcbc7a9b    .z..    DCD    3166468763
        0x00015e00:    bf7feea7    ....    DCD    3212832423
        0x00015e04:    bcafea69    i...    DCD    3165645417
        0x00015e08:    bf7ff0e3    ....    DCD    3212832995
        0x00015e0c:    bca35a1c    .Z..    DCD    3164822044
        0x00015e10:    bf7ff2f8    ....    DCD    3212833528
        0x00015e14:    bc96c9b6    ....    DCD    3163998646
        0x00015e18:    bf7ff4e6    ....    DCD    3212834022
        0x00015e1c:    bc8a3938    89..    DCD    3163175224
        0x00015e20:    bf7ff6ac    ....    DCD    3212834476
        0x00015e24:    bc7b514b    KQ{.    DCD    3162198347
        0x00015e28:    bf7ff84a    J...    DCD    3212834890
        0x00015e2c:    bc623000    .0b.    DCD    3160551424
        0x00015e30:    bf7ff9c1    ....    DCD    3212835265
        0x00015e34:    bc490e90    ..I.    DCD    3158904464
        0x00015e38:    bf7ffb11    ....    DCD    3212835601
        0x00015e3c:    bc2fed02    ../.    DCD    3157257474
        0x00015e40:    bf7ffc39    9...    DCD    3212835897
        0x00015e44:    bc16cb59    Y...    DCD    3155610457
        0x00015e48:    bf7ffd39    9...    DCD    3212836153
        0x00015e4c:    bbfb5330    0S..    DCD    3153810224
        0x00015e50:    bf7ffe13    ....    DCD    3212836371
        0x00015e54:    bbc90f89    ....    DCD    3150516105
        0x00015e58:    bf7ffec4    ....    DCD    3212836548
        0x00015e5c:    bb96cbc1    ....    DCD    3147221953
        0x00015e60:    bf7fff4e    N...    DCD    3212836686
        0x00015e64:    bb490fc7    ..I.    DCD    3142127559
        0x00015e68:    bf7fffb1    ....    DCD    3212836785
        0x00015e6c:    bac90fd4    ....    DCD    3133738964
        0x00015e70:    bf7fffec    ....    DCD    3212836844
        0x00015e74:    80000000    ....    DCD    2147483648
        0x00015e78:    bf800000    ....    DCD    3212836864
        0x00015e7c:    3ac90fd4    ...:    DCD    986255316
        0x00015e80:    bf7fffec    ....    DCD    3212836844
        0x00015e84:    3b490fc7    ..I;    DCD    994643911
        0x00015e88:    bf7fffb1    ....    DCD    3212836785
        0x00015e8c:    3b96cbc1    ...;    DCD    999738305
        0x00015e90:    bf7fff4e    N...    DCD    3212836686
        0x00015e94:    3bc90f89    ...;    DCD    1003032457
        0x00015e98:    bf7ffec4    ....    DCD    3212836548
        0x00015e9c:    3bfb5330    0S.;    DCD    1006326576
        0x00015ea0:    bf7ffe13    ....    DCD    3212836371
        0x00015ea4:    3c16cb59    Y..<    DCD    1008126809
        0x00015ea8:    bf7ffd39    9...    DCD    3212836153
        0x00015eac:    3c2fed02    ../<    DCD    1009773826
        0x00015eb0:    bf7ffc39    9...    DCD    3212835897
        0x00015eb4:    3c490e90    ..I<    DCD    1011420816
        0x00015eb8:    bf7ffb11    ....    DCD    3212835601
        0x00015ebc:    3c623000    .0b<    DCD    1013067776
        0x00015ec0:    bf7ff9c1    ....    DCD    3212835265
        0x00015ec4:    3c7b514b    KQ{<    DCD    1014714699
        0x00015ec8:    bf7ff84a    J...    DCD    3212834890
        0x00015ecc:    3c8a3938    89.<    DCD    1015691576
        0x00015ed0:    bf7ff6ac    ....    DCD    3212834476
        0x00015ed4:    3c96c9b6    ...<    DCD    1016514998
        0x00015ed8:    bf7ff4e6    ....    DCD    3212834022
        0x00015edc:    3ca35a1c    .Z.<    DCD    1017338396
        0x00015ee0:    bf7ff2f8    ....    DCD    3212833528
        0x00015ee4:    3cafea69    i..<    DCD    1018161769
        0x00015ee8:    bf7ff0e3    ....    DCD    3212832995
        0x00015eec:    3cbc7a9b    .z.<    DCD    1018985115
        0x00015ef0:    bf7feea7    ....    DCD    3212832423
        0x00015ef4:    3cc90ab0    ...<    DCD    1019808432
        0x00015ef8:    bf7fec43    C...    DCD    3212831811
        0x00015efc:    3cd59aa6    ...<    DCD    1020631718
        0x00015f00:    bf7fe9b8    ....    DCD    3212831160
        0x00015f04:    3ce22a7b    {*.<    DCD    1021454971
        0x00015f08:    bf7fe705    ....    DCD    3212830469
        0x00015f0c:    3ceeba2d    -..<    DCD    1022278189
        0x00015f10:    bf7fe42b    +...    DCD    3212829739
        0x00015f14:    3cfb49b9    .I.<    DCD    1023101369
        0x00015f18:    bf7fe129    )...    DCD    3212828969
        0x00015f1c:    3d03ec90    ...=    DCD    1023667344
        0x00015f20:    bf7fde00    ....    DCD    3212828160
        0x00015f24:    3d0a342f    /4.=    DCD    1024078895
        0x00015f28:    bf7fdaaf    ....    DCD    3212827311
        0x00015f2c:    3d107bb8    .{.=    DCD    1024490424
        0x00015f30:    bf7fd737    7...    DCD    3212826423
        0x00015f34:    3d16c32c    ,..=    DCD    1024901932
        0x00015f38:    bf7fd398    ....    DCD    3212825496
        0x00015f3c:    3d1d0a88    ...=    DCD    1025313416
        0x00015f40:    bf7fcfd1    ....    DCD    3212824529
        0x00015f44:    3d2351cc    .Q#=    DCD    1025724876
        0x00015f48:    bf7fcbe2    ....    DCD    3212823522
        0x00015f4c:    3d2998f6    ..)=    DCD    1026136310
        0x00015f50:    bf7fc7cc    ....    DCD    3212822476
        0x00015f54:    3d2fe007    ../=    DCD    1026547719
        0x00015f58:    bf7fc38f    ....    DCD    3212821391
        0x00015f5c:    3d3626fc    .&6=    DCD    1026959100
        0x00015f60:    bf7fbf2a    *...    DCD    3212820266
        0x00015f64:    3d3c6dd5    .m<=    DCD    1027370453
        0x00015f68:    bf7fba9e    ....    DCD    3212819102
        0x00015f6c:    3d42b491    ..B=    DCD    1027781777
        0x00015f70:    bf7fb5ea    ....    DCD    3212817898
        0x00015f74:    3d48fb2f    /.H=    DCD    1028193071
        0x00015f78:    bf7fb10f    ....    DCD    3212816655
        0x00015f7c:    3d4f41af    .AO=    DCD    1028604335
        0x00015f80:    bf7fac0d    ....    DCD    3212815373
        0x00015f84:    3d55880e    ..U=    DCD    1029015566
        0x00015f88:    bf7fa6e3    ....    DCD    3212814051
        0x00015f8c:    3d5bce4c    L.[=    DCD    1029426764
        0x00015f90:    bf7fa191    ....    DCD    3212812689
        0x00015f94:    3d621468    h.b=    DCD    1029837928
        0x00015f98:    bf7f9c18    ....    DCD    3212811288
        0x00015f9c:    3d685a62    bZh=    DCD    1030249058
        0x00015fa0:    bf7f9678    x...    DCD    3212809848
        0x00015fa4:    3d6ea038    8.n=    DCD    1030660152
        0x00015fa8:    bf7f90b1    ....    DCD    3212808369
        0x00015fac:    3d74e5e9    ..t=    DCD    1031071209
        0x00015fb0:    bf7f8ac2    ....    DCD    3212806850
        0x00015fb4:    3d7b2b74    t+{=    DCD    1031482228
        0x00015fb8:    bf7f84ab    ....    DCD    3212805291
        0x00015fbc:    3d80b86c    l..=    DCD    1031845996
        0x00015fc0:    bf7f7e6d    m~..    DCD    3212803693
        0x00015fc4:    3d83db0a    ...=    DCD    1032051466
        0x00015fc8:    bf7f7808    .x..    DCD    3212802056
        0x00015fcc:    3d86fd94    ...=    DCD    1032256916
        0x00015fd0:    bf7f717b    {q..    DCD    3212800379
        0x00015fd4:    3d8a200a    . .=    DCD    1032462346
        0x00015fd8:    bf7f6ac7    .j..    DCD    3212798663
        0x00015fdc:    3d8d426a    jB.=    DCD    1032667754
        0x00015fe0:    bf7f63ec    .c..    DCD    3212796908
        0x00015fe4:    3d9064b4    .d.=    DCD    1032873140
        0x00015fe8:    bf7f5ce9    .\..    DCD    3212795113
        0x00015fec:    3d9386e7    ...=    DCD    1033078503
        0x00015ff0:    bf7f55bf    .U..    DCD    3212793279
        0x00015ff4:    3d96a905    ...=    DCD    1033283845
        0x00015ff8:    bf7f4e6d    mN..    DCD    3212791405
        0x00015ffc:    3d99cb0a    ...=    DCD    1033489162
        0x00016000:    bf7f46f4    .F..    DCD    3212789492
        0x00016004:    3d9cecf9    ...=    DCD    1033694457
        0x00016008:    bf7f3f54    T?..    DCD    3212787540
        0x0001600c:    3da00ecf    ...=    DCD    1033899727
        0x00016010:    bf7f378d    .7..    DCD    3212785549
        0x00016014:    3da3308c    .0.=    DCD    1034104972
        0x00016018:    bf7f2f9d    ./..    DCD    3212783517
        0x0001601c:    3da65230    0R.=    DCD    1034310192
        0x00016020:    bf7f2787    .'..    DCD    3212781447
        0x00016024:    3da973ba    .s.=    DCD    1034515386
        0x00016028:    bf7f1f49    I...    DCD    3212779337
        0x0001602c:    3dac952b    +..=    DCD    1034720555
        0x00016030:    bf7f16e4    ....    DCD    3212777188
        0x00016034:    3dafb680    ...=    DCD    1034925696
        0x00016038:    bf7f0e58    X...    DCD    3212775000
        0x0001603c:    3db2d7bb    ...=    DCD    1035130811
        0x00016040:    bf7f05a4    ....    DCD    3212772772
        0x00016044:    3db5f8da    ...=    DCD    1035335898
        0x00016048:    bf7efcc9    ..~.    DCD    3212770505
        0x0001604c:    3db919dd    ...=    DCD    1035540957
        0x00016050:    bf7ef3c7    ..~.    DCD    3212768199
        0x00016054:    3dbc3ac3    .:.=    DCD    1035745987
        0x00016058:    bf7eea9d    ..~.    DCD    3212765853
        0x0001605c:    3dbf5b8d    .[.=    DCD    1035950989
        0x00016060:    bf7ee14c    L.~.    DCD    3212763468
        0x00016064:    3dc27c39    9|.=    DCD    1036155961
        0x00016068:    bf7ed7d4    ..~.    DCD    3212761044
        0x0001606c:    3dc59cc6    ...=    DCD    1036360902
        0x00016070:    bf7ece34    4.~.    DCD    3212758580
        0x00016074:    3dc8bd36    6..=    DCD    1036565814
        0x00016078:    bf7ec46d    m.~.    DCD    3212756077
        0x0001607c:    3dcbdd86    ...=    DCD    1036770694
        0x00016080:    bf7eba7f    ..~.    DCD    3212753535
        0x00016084:    3dcefdb7    ...=    DCD    1036975543
        0x00016088:    bf7eb069    i.~.    DCD    3212750953
        0x0001608c:    3dd21dc8    ...=    DCD    1037180360
        0x00016090:    bf7ea62d    -.~.    DCD    3212748333
        0x00016094:    3dd53db9    .=.=    DCD    1037385145
        0x00016098:    bf7e9bc9    ..~.    DCD    3212745673
        0x0001609c:    3dd85d89    .].=    DCD    1037589897
        0x000160a0:    bf7e913d    =.~.    DCD    3212742973
        0x000160a4:    3ddb7d37    7}.=    DCD    1037794615
        0x000160a8:    bf7e868b    ..~.    DCD    3212740235
        0x000160ac:    3dde9cc4    ...=    DCD    1037999300
        0x000160b0:    bf7e7bb1    .{~.    DCD    3212737457
        0x000160b4:    3de1bc2e    ...=    DCD    1038203950
        0x000160b8:    bf7e70b0    .p~.    DCD    3212734640
        0x000160bc:    3de4db76    v..=    DCD    1038408566
        0x000160c0:    bf7e6588    .e~.    DCD    3212731784
        0x000160c4:    3de7fa9a    ...=    DCD    1038613146
        0x000160c8:    bf7e5a38    8Z~.    DCD    3212728888
        0x000160cc:    3deb199a    ...=    DCD    1038817690
        0x000160d0:    bf7e4ec1    .N~.    DCD    3212725953
        0x000160d4:    3dee3876    v8.=    DCD    1039022198
        0x000160d8:    bf7e4323    #C~.    DCD    3212722979
        0x000160dc:    3df1572e    .W.=    DCD    1039226670
        0x000160e0:    bf7e375e    ^7~.    DCD    3212719966
        0x000160e4:    3df475c0    .u.=    DCD    1039431104
        0x000160e8:    bf7e2b72    r+~.    DCD    3212716914
        0x000160ec:    3df7942c    ,..=    DCD    1039635500
        0x000160f0:    bf7e1f5e    ^.~.    DCD    3212713822
        0x000160f4:    3dfab273    s..=    DCD    1039839859
        0x000160f8:    bf7e1324    $.~.    DCD    3212710692
        0x000160fc:    3dfdd092    ...=    DCD    1040044178
        0x00016100:    bf7e06c2    ..~.    DCD    3212707522
        0x00016104:    3e007745    Ew.>    DCD    1040217925
        0x00016108:    bf7dfa38    8.}.    DCD    3212704312
        0x0001610c:    3e02062e    ...>    DCD    1040320046
        0x00016110:    bf7ded88    ..}.    DCD    3212701064
        0x00016114:    3e039502    ...>    DCD    1040422146
        0x00016118:    bf7de0b1    ..}.    DCD    3212697777
        0x0001611c:    3e0523c2    .#.>    DCD    1040524226
        0x00016120:    bf7dd3b2    ..}.    DCD    3212694450
        0x00016124:    3e06b26e    n..>    DCD    1040626286
        0x00016128:    bf7dc68c    ..}.    DCD    3212691084
        0x0001612c:    3e084105    .A.>    DCD    1040728325
        0x00016130:    bf7db940    @.}.    DCD    3212687680
        0x00016134:    3e09cf86    ...>    DCD    1040830342
        0x00016138:    bf7dabcc    ..}.    DCD    3212684236
        0x0001613c:    3e0b5df3    .].>    DCD    1040932339
        0x00016140:    bf7d9e30    0.}.    DCD    3212680752
        0x00016144:    3e0cec4a    J..>    DCD    1041034314
        0x00016148:    bf7d906e    n.}.    DCD    3212677230
        0x0001614c:    3e0e7a8b    .z.>    DCD    1041136267
        0x00016150:    bf7d8285    ..}.    DCD    3212673669
        0x00016154:    3e1008b7    ...>    DCD    1041238199
        0x00016158:    bf7d7474    tt}.    DCD    3212670068
        0x0001615c:    3e1196cc    ...>    DCD    1041340108
        0x00016160:    bf7d663d    =f}.    DCD    3212666429
        0x00016164:    3e1324ca    .$.>    DCD    1041441994
        0x00016168:    bf7d57de    .W}.    DCD    3212662750
        0x0001616c:    3e14b2b2    ...>    DCD    1041543858
        0x00016170:    bf7d4959    YI}.    DCD    3212659033
        0x00016174:    3e164083    .@.>    DCD    1041645699
        0x00016178:    bf7d3aac    .:}.    DCD    3212655276
        0x0001617c:    3e17ce3d    =..>    DCD    1041747517
        0x00016180:    bf7d2bd8    .+}.    DCD    3212651480
        0x00016184:    3e195be0    .[.>    DCD    1041849312
        0x00016188:    bf7d1cdd    ..}.    DCD    3212647645
        0x0001618c:    3e1ae96b    k..>    DCD    1041951083
        0x00016190:    bf7d0dbc    ..}.    DCD    3212643772
        0x00016194:    3e1c76de    .v.>    DCD    1042052830
        0x00016198:    bf7cfe73    s.|.    DCD    3212639859
        0x0001619c:    3e1e0438    8..>    DCD    1042154552
        0x000161a0:    bf7cef03    ..|.    DCD    3212635907
        0x000161a4:    3e1f917b    {..>    DCD    1042256251
        0x000161a8:    bf7cdf6c    l.|.    DCD    3212631916
        0x000161ac:    3e211ea5    ..!>    DCD    1042357925
        0x000161b0:    bf7ccfae    ..|.    DCD    3212627886
        0x000161b4:    3e22abb6    ..">    DCD    1042459574
        0x000161b8:    bf7cbfc9    ..|.    DCD    3212623817
        0x000161bc:    3e2438ad    .8$>    DCD    1042561197
        0x000161c0:    bf7cafbd    ..|.    DCD    3212619709
        0x000161c4:    3e25c58c    ..%>    DCD    1042662796
        0x000161c8:    bf7c9f8a    ..|.    DCD    3212615562
        0x000161cc:    3e275251    QR'>    DCD    1042764369
        0x000161d0:    bf7c8f31    1.|.    DCD    3212611377
        0x000161d4:    3e28defc    ..(>    DCD    1042865916
        0x000161d8:    bf7c7eb0    .~|.    DCD    3212607152
        0x000161dc:    3e2a6b8d    .k*>    DCD    1042967437
        0x000161e0:    bf7c6e08    .n|.    DCD    3212602888
        0x000161e4:    3e2bf804    ..+>    DCD    1043068932
        0x000161e8:    bf7c5d3a    :]|.    DCD    3212598586
        0x000161ec:    3e2d8461    a.->    DCD    1043170401
        0x000161f0:    bf7c4c44    DL|.    DCD    3212594244
        0x000161f4:    3e2f10a2    ../>    DCD    1043271842
        0x000161f8:    bf7c3b28    (;|.    DCD    3212589864
        0x000161fc:    3e309cc9    ..0>    DCD    1043373257
        0x00016200:    bf7c29e5    .)|.    DCD    3212585445
        0x00016204:    3e3228d4    .(2>    DCD    1043474644
        0x00016208:    bf7c187a    z.|.    DCD    3212580986
        0x0001620c:    3e33b4c4    ..3>    DCD    1043576004
        0x00016210:    bf7c06e9    ..|.    DCD    3212576489
        0x00016214:    3e354098    .@5>    DCD    1043677336
        0x00016218:    bf7bf531    1.{.    DCD    3212571953
        0x0001621c:    3e36cc50    P.6>    DCD    1043778640
        0x00016220:    bf7be353    S.{.    DCD    3212567379
        0x00016224:    3e3857ec    .W8>    DCD    1043879916
        0x00016228:    bf7bd14d    M.{.    DCD    3212562765
        0x0001622c:    3e39e36c    l.9>    DCD    1043981164
        0x00016230:    bf7bbf20     .{.    DCD    3212558112
        0x00016234:    3e3b6ecf    .n;>    DCD    1044082383
        0x00016238:    bf7baccd    ..{.    DCD    3212553421
        0x0001623c:    3e3cfa15    ..<>    DCD    1044183573
        0x00016240:    bf7b9a53    S.{.    DCD    3212548691
        0x00016244:    3e3e853e    >.>>    DCD    1044284734
        0x00016248:    bf7b87b2    ..{.    DCD    3212543922
        0x0001624c:    3e401049    I.@>    DCD    1044385865
        0x00016250:    bf7b74ea    .t{.    DCD    3212539114
        0x00016254:    3e419b37    7.A>    DCD    1044486967
        0x00016258:    bf7b61fc    .a{.    DCD    3212534268
        0x0001625c:    3e432607    .&C>    DCD    1044588039
        0x00016260:    bf7b4ee7    .N{.    DCD    3212529383
        0x00016264:    3e44b0b9    ..D>    DCD    1044689081
        0x00016268:    bf7b3bab    .;{.    DCD    3212524459
        0x0001626c:    3e463b4d    M;F>    DCD    1044790093
        0x00016270:    bf7b2848    H({.    DCD    3212519496
        0x00016274:    3e47c5c2    ..G>    DCD    1044891074
        0x00016278:    bf7b14be    ..{.    DCD    3212514494
        0x0001627c:    3e495018    .PI>    DCD    1044992024
        0x00016280:    bf7b010e    ..{.    DCD    3212509454
        0x00016284:    3e4ada4f    O.J>    DCD    1045092943
        0x00016288:    bf7aed37    7.z.    DCD    3212504375
        0x0001628c:    3e4c6467    gdL>    DCD    1045193831
        0x00016290:    bf7ad93a    :.z.    DCD    3212499258
        0x00016294:    3e4dee60    `.M>    DCD    1045294688
        0x00016298:    bf7ac516    ..z.    DCD    3212494102
        0x0001629c:    3e4f7838    8xO>    DCD    1045395512
        0x000162a0:    bf7ab0cb    ..z.    DCD    3212488907
        0x000162a4:    3e5101f1    ..Q>    DCD    1045496305
        0x000162a8:    bf7a9c59    Y.z.    DCD    3212483673
        0x000162ac:    3e528b89    ..R>    DCD    1045597065
        0x000162b0:    bf7a87c1    ..z.    DCD    3212478401
        0x000162b4:    3e541501    ..T>    DCD    1045697793
        0x000162b8:    bf7a7302    .sz.    DCD    3212473090
        0x000162bc:    3e559e58    X.U>    DCD    1045798488
        0x000162c0:    bf7a5e1c    .^z.    DCD    3212467740
        0x000162c4:    3e57278f    .'W>    DCD    1045899151
        0x000162c8:    bf7a4910    .Iz.    DCD    3212462352
        0x000162cc:    3e58b0a4    ..X>    DCD    1045999780
        0x000162d0:    bf7a33dd    .3z.    DCD    3212456925
        0x000162d4:    3e5a3997    .9Z>    DCD    1046100375
        0x000162d8:    bf7a1e84    ..z.    DCD    3212451460
        0x000162dc:    3e5bc26a    j.[>    DCD    1046200938
        0x000162e0:    bf7a0904    ..z.    DCD    3212445956
        0x000162e4:    3e5d4b1a    .K]>    DCD    1046301466
        0x000162e8:    bf79f35e    ^.y.    DCD    3212440414
        0x000162ec:    3e5ed3a8    ..^>    DCD    1046401960
        0x000162f0:    bf79dd91    ..y.    DCD    3212434833
        0x000162f4:    3e605c13    .\`>    DCD    1046502419
        0x000162f8:    bf79c79d    ..y.    DCD    3212429213
        0x000162fc:    3e61e45c    \.a>    DCD    1046602844
        0x00016300:    bf79b183    ..y.    DCD    3212423555
        0x00016304:    3e636c83    .lc>    DCD    1046703235
        0x00016308:    bf799b43    C.y.    DCD    3212417859
        0x0001630c:    3e64f486    ..d>    DCD    1046803590
        0x00016310:    bf7984dc    ..y.    DCD    3212412124
        0x00016314:    3e667c66    f|f>    DCD    1046903910
        0x00016318:    bf796e4e    Nny.    DCD    3212406350
        0x0001631c:    3e680422    ".h>    DCD    1047004194
        0x00016320:    bf79579a    .Wy.    DCD    3212400538
        0x00016324:    3e698bba    ..i>    DCD    1047104442
        0x00016328:    bf7940c0    .@y.    DCD    3212394688
        0x0001632c:    3e6b132f    /.k>    DCD    1047204655
        0x00016330:    bf7929bf    .)y.    DCD    3212388799
        0x00016334:    3e6c9a7f    ..l>    DCD    1047304831
        0x00016338:    bf791298    ..y.    DCD    3212382872
        0x0001633c:    3e6e21ab    .!n>    DCD    1047404971
        0x00016340:    bf78fb4a    J.x.    DCD    3212376906
        0x00016344:    3e6fa8b2    ..o>    DCD    1047505074
        0x00016348:    bf78e3d6    ..x.    DCD    3212370902
        0x0001634c:    3e712f94    ./q>    DCD    1047605140
        0x00016350:    bf78cc3b    ;.x.    DCD    3212364859
        0x00016354:    3e72b651    Q.r>    DCD    1047705169
        0x00016358:    bf78b47b    {.x.    DCD    3212358779
        0x0001635c:    3e743ce8    .<t>    DCD    1047805160
        0x00016360:    bf789c93    ..x.    DCD    3212352659
        0x00016364:    3e75c35a    Z.u>    DCD    1047905114
        0x00016368:    bf788486    ..x.    DCD    3212346502
        0x0001636c:    3e7749a6    .Iw>    DCD    1048005030
        0x00016370:    bf786c52    Rlx.    DCD    3212340306
        0x00016374:    3e78cfcc    ..x>    DCD    1048104908
        0x00016378:    bf7853f8    .Sx.    DCD    3212334072
        0x0001637c:    3e7a55cb    .Uz>    DCD    1048204747
        0x00016380:    bf783b77    w;x.    DCD    3212327799
        0x00016384:    3e7bdba4    ..{>    DCD    1048304548
        0x00016388:    bf7822d1    ."x.    DCD    3212321489
        0x0001638c:    3e7d6156    Va}>    DCD    1048404310
        0x00016390:    bf780a04    ..x.    DCD    3212315140
        0x00016394:    3e7ee6e1    ..~>    DCD    1048504033
        0x00016398:    bf77f110    ..w.    DCD    3212308752
        0x0001639c:    3e803622    "6.>    DCD    1048589858
        0x000163a0:    bf77d7f7    ..w.    DCD    3212302327
        0x000163a4:    3e80f8c0    ...>    DCD    1048639680
        0x000163a8:    bf77beb7    ..w.    DCD    3212295863
        0x000163ac:    3e81bb4a    J..>    DCD    1048689482
        0x000163b0:    bf77a551    Q.w.    DCD    3212289361
        0x000163b4:    3e827dc0    .}.>    DCD    1048739264
        0x000163b8:    bf778bc5    ..w.    DCD    3212282821
        0x000163bc:    3e834022    "@.>    DCD    1048789026
        0x000163c0:    bf777213    .rw.    DCD    3212276243
        0x000163c4:    3e840270    p..>    DCD    1048838768
        0x000163c8:    bf77583a    :Xw.    DCD    3212269626
        0x000163cc:    3e84c4aa    ...>    DCD    1048888490
        0x000163d0:    bf773e3c    <>w.    DCD    3212262972
        0x000163d4:    3e8586ce    ...>    DCD    1048938190
        0x000163d8:    bf772417    .$w.    DCD    3212256279
        0x000163dc:    3e8648df    .H.>    DCD    1048987871
        0x000163e0:    bf7709cc    ..w.    DCD    3212249548
        0x000163e4:    3e870ada    ...>    DCD    1049037530
        0x000163e8:    bf76ef5b    [.v.    DCD    3212242779
        0x000163ec:    3e87ccc1    ...>    DCD    1049087169
        0x000163f0:    bf76d4c4    ..v.    DCD    3212235972
        0x000163f4:    3e888e93    ...>    DCD    1049136787
        0x000163f8:    bf76ba07    ..v.    DCD    3212229127
        0x000163fc:    3e895050    PP.>    DCD    1049186384
        0x00016400:    bf769f24    $.v.    DCD    3212222244
        0x00016404:    3e8a11f8    ...>    DCD    1049235960
        0x00016408:    bf76841b    ..v.    DCD    3212215323
        0x0001640c:    3e8ad38a    ...>    DCD    1049285514
        0x00016410:    bf7668ec    .hv.    DCD    3212208364
        0x00016414:    3e8b9507    ...>    DCD    1049335047
        0x00016418:    bf764d97    .Mv.    DCD    3212201367
        0x0001641c:    3e8c566e    nV.>    DCD    1049384558
        0x00016420:    bf76321b    .2v.    DCD    3212194331
        0x00016424:    3e8d17c0    ...>    DCD    1049434048
        0x00016428:    bf76167a    z.v.    DCD    3212187258
        0x0001642c:    3e8dd8fc    ...>    DCD    1049483516
        0x00016430:    bf75fab3    ..u.    DCD    3212180147
        0x00016434:    3e8e9a22    "..>    DCD    1049532962
        0x00016438:    bf75dec6    ..u.    DCD    3212172998
        0x0001643c:    3e8f5b32    2[.>    DCD    1049582386
        0x00016440:    bf75c2b3    ..u.    DCD    3212165811
        0x00016444:    3e901c2c    ,..>    DCD    1049631788
        0x00016448:    bf75a67b    {.u.    DCD    3212158587
        0x0001644c:    3e90dd10    ...>    DCD    1049681168
        0x00016450:    bf758a1c    ..u.    DCD    3212151324
        0x00016454:    3e919ddd    ...>    DCD    1049730525
        0x00016458:    bf756d97    .mu.    DCD    3212144023
        0x0001645c:    3e925e94    .^.>    DCD    1049779860
        0x00016460:    bf7550ed    .Pu.    DCD    3212136685
        0x00016464:    3e931f35    5..>    DCD    1049829173
        0x00016468:    bf75341d    .4u.    DCD    3212129309
        0x0001646c:    3e93dfbf    ...>    DCD    1049878463
        0x00016470:    bf751727    '.u.    DCD    3212121895
        0x00016474:    3e94a031    1..>    DCD    1049927729
        0x00016478:    bf74fa0b    ..t.    DCD    3212114443
        0x0001647c:    3e95608d    .`.>    DCD    1049976973
        0x00016480:    bf74dcc9    ..t.    DCD    3212106953
        0x00016484:    3e9620d2    . .>    DCD    1050026194
        0x00016488:    bf74bf62    b.t.    DCD    3212099426
        0x0001648c:    3e96e100    ...>    DCD    1050075392
        0x00016490:    bf74a1d5    ..t.    DCD    3212091861
        0x00016494:    3e97a117    ...>    DCD    1050124567
        0x00016498:    bf748422    ".t.    DCD    3212084258
        0x0001649c:    3e986116    .a.>    DCD    1050173718
        0x000164a0:    bf746649    Ift.    DCD    3212076617
        0x000164a4:    3e9920fe    . .>    DCD    1050222846
        0x000164a8:    bf74484b    KHt.    DCD    3212068939
        0x000164ac:    3e99e0ce    ...>    DCD    1050271950
        0x000164b0:    bf742a27    '*t.    DCD    3212061223
        0x000164b4:    3e9aa086    ...>    DCD    1050321030
        0x000164b8:    bf740bdd    ..t.    DCD    3212053469
        0x000164bc:    3e9b6027    '`.>    DCD    1050370087
        0x000164c0:    bf73ed6e    n.s.    DCD    3212045678
        0x000164c4:    3e9c1faf    ...>    DCD    1050419119
        0x000164c8:    bf73ced9    ..s.    DCD    3212037849
        0x000164cc:    3e9cdf20     ..>    DCD    1050468128
        0x000164d0:    bf73b01f    ..s.    DCD    3212029983
        0x000164d4:    3e9d9e78    x..>    DCD    1050517112
        0x000164d8:    bf73913f    ?.s.    DCD    3212022079
        0x000164dc:    3e9e5db8    .].>    DCD    1050566072
        0x000164e0:    bf737239    9rs.    DCD    3212014137
        0x000164e4:    3e9f1cdf    ...>    DCD    1050615007
        0x000164e8:    bf73530e    .Ss.    DCD    3212006158
        0x000164ec:    3e9fdbee    ...>    DCD    1050663918
        0x000164f0:    bf7333be    .3s.    DCD    3211998142
        0x000164f4:    3ea09ae5    ...>    DCD    1050712805
        0x000164f8:    bf731447    G.s.    DCD    3211990087
        0x000164fc:    3ea159c2    .Y.>    DCD    1050761666
        0x00016500:    bf72f4ac    ..r.    DCD    3211981996
        0x00016504:    3ea21887    ...>    DCD    1050810503
        0x00016508:    bf72d4eb    ..r.    DCD    3211973867
        0x0001650c:    3ea2d733    3..>    DCD    1050859315
        0x00016510:    bf72b504    ..r.    DCD    3211965700
        0x00016514:    3ea395c5    ...>    DCD    1050908101
        0x00016518:    bf7294f8    ..r.    DCD    3211957496
        0x0001651c:    3ea4543f    ?T.>    DCD    1050956863
        0x00016520:    bf7274c7    .tr.    DCD    3211949255
        0x00016524:    3ea5129f    ...>    DCD    1051005599
        0x00016528:    bf725470    pTr.    DCD    3211940976
        0x0001652c:    3ea5d0e5    ...>    DCD    1051054309
        0x00016530:    bf7233f4    .3r.    DCD    3211932660
        0x00016534:    3ea68f12    ...>    DCD    1051102994
        0x00016538:    bf721352    R.r.    DCD    3211924306
        0x0001653c:    3ea74d25    %M.>    DCD    1051151653
        0x00016540:    bf71f28c    ..q.    DCD    3211915916
        0x00016544:    3ea80b1f    ...>    DCD    1051200287
        0x00016548:    bf71d19f    ..q.    DCD    3211907487
        0x0001654c:    3ea8c8fe    ...>    DCD    1051248894
        0x00016550:    bf71b08e    ..q.    DCD    3211899022
        0x00016554:    3ea986c4    ...>    DCD    1051297476
        0x00016558:    bf718f57    W.q.    DCD    3211890519
        0x0001655c:    3eaa446f    oD.>    DCD    1051346031
        0x00016560:    bf716dfb    .mq.    DCD    3211881979
        0x00016564:    3eab0201    ...>    DCD    1051394561
        0x00016568:    bf714c7a    zLq.    DCD    3211873402
        0x0001656c:    3eabbf77    w..>    DCD    1051443063
        0x00016570:    bf712ad4    .*q.    DCD    3211864788
        0x00016574:    3eac7cd4    .|.>    DCD    1051491540
        0x00016578:    bf710908    ..q.    DCD    3211856136
        0x0001657c:    3ead3a15    .:.>    DCD    1051539989
        0x00016580:    bf70e717    ..p.    DCD    3211847447
        0x00016584:    3eadf73c    <..>    DCD    1051588412
        0x00016588:    bf70c502    ..p.    DCD    3211838722
        0x0001658c:    3eaeb449    I..>    DCD    1051636809
        0x00016590:    bf70a2c6    ..p.    DCD    3211829958
        0x00016594:    3eaf713a    :q.>    DCD    1051685178
        0x00016598:    bf708066    f.p.    DCD    3211821158
        0x0001659c:    3eb02e10    ...>    DCD    1051733520
        0x000165a0:    bf705de1    .]p.    DCD    3211812321
        0x000165a4:    3eb0eacb    ...>    DCD    1051781835
        0x000165a8:    bf703b37    7;p.    DCD    3211803447
        0x000165ac:    3eb1a76b    k..>    DCD    1051830123
        0x000165b0:    bf701867    g.p.    DCD    3211794535
        0x000165b4:    3eb263ef    .c.>    DCD    1051878383
        0x000165b8:    bf6ff573    s.o.    DCD    3211785587
        0x000165bc:    3eb32058    X .>    DCD    1051926616
        0x000165c0:    bf6fd25a    Z.o.    DCD    3211776602
        0x000165c4:    3eb3dca5    ...>    DCD    1051974821
        0x000165c8:    bf6faf1b    ..o.    DCD    3211767579
        0x000165cc:    3eb498d6    ...>    DCD    1052022998
        0x000165d0:    bf6f8bb8    ..o.    DCD    3211758520
        0x000165d4:    3eb554ec    .T.>    DCD    1052071148
        0x000165d8:    bf6f6830    0ho.    DCD    3211749424
        0x000165dc:    3eb610e6    ...>    DCD    1052119270
        0x000165e0:    bf6f4483    .Do.    DCD    3211740291
        0x000165e4:    3eb6ccc3    ...>    DCD    1052167363
        0x000165e8:    bf6f20b0    . o.    DCD    3211731120
        0x000165ec:    3eb78884    ...>    DCD    1052215428
        0x000165f0:    bf6efcba    ..n.    DCD    3211721914
        0x000165f4:    3eb8442a    *D.>    DCD    1052263466
        0x000165f8:    bf6ed89e    ..n.    DCD    3211712670
        0x000165fc:    3eb8ffb2    ...>    DCD    1052311474
        0x00016600:    bf6eb45d    ].n.    DCD    3211703389
        0x00016604:    3eb9bb1e    ...>    DCD    1052359454
        0x00016608:    bf6e8ff8    ..n.    DCD    3211694072
        0x0001660c:    3eba766e    nv.>    DCD    1052407406
        0x00016610:    bf6e6b6d    mkn.    DCD    3211684717
        0x00016614:    3ebb31a0    .1.>    DCD    1052455328
        0x00016618:    bf6e46be    .Fn.    DCD    3211675326
        0x0001661c:    3ebbecb6    ...>    DCD    1052503222
        0x00016620:    bf6e21eb    .!n.    DCD    3211665899
        0x00016624:    3ebca7af    ...>    DCD    1052551087
        0x00016628:    bf6dfcf2    ..m.    DCD    3211656434
        0x0001662c:    3ebd628b    .b.>    DCD    1052598923
        0x00016630:    bf6dd7d5    ..m.    DCD    3211646933
        0x00016634:    3ebe1d4a    J..>    DCD    1052646730
        0x00016638:    bf6db293    ..m.    DCD    3211637395
        0x0001663c:    3ebed7eb    ...>    DCD    1052694507
        0x00016640:    bf6d8d2d    -.m.    DCD    3211627821
        0x00016644:    3ebf926f    o..>    DCD    1052742255
        0x00016648:    bf6d67a1    .gm.    DCD    3211618209
        0x0001664c:    3ec04cd5    .L.>    DCD    1052789973
        0x00016650:    bf6d41f2    .Am.    DCD    3211608562
        0x00016654:    3ec1071e    ...>    DCD    1052837662
        0x00016658:    bf6d1c1d    ..m.    DCD    3211598877
        0x0001665c:    3ec1c148    H..>    DCD    1052885320
        0x00016660:    bf6cf624    $.l.    DCD    3211589156
        0x00016664:    3ec27b55    U{.>    DCD    1052932949
        0x00016668:    bf6cd007    ..l.    DCD    3211579399
        0x0001666c:    3ec33544    D5.>    DCD    1052980548
        0x00016670:    bf6ca9c5    ..l.    DCD    3211569605
        0x00016674:    3ec3ef15    ...>    DCD    1053028117
        0x00016678:    bf6c835e    ^.l.    DCD    3211559774
        0x0001667c:    3ec4a8c8    ...>    DCD    1053075656
        0x00016680:    bf6c5cd4    .\l.    DCD    3211549908
        0x00016684:    3ec5625c    \b.>    DCD    1053123164
        0x00016688:    bf6c3624    $6l.    DCD    3211540004
        0x0001668c:    3ec61bd2    ...>    DCD    1053170642
        0x00016690:    bf6c0f50    P.l.    DCD    3211530064
        0x00016694:    3ec6d529    )..>    DCD    1053218089
        0x00016698:    bf6be858    X.k.    DCD    3211520088
        0x0001669c:    3ec78e62    b..>    DCD    1053265506
        0x000166a0:    bf6bc13b    ;.k.    DCD    3211510075
        0x000166a4:    3ec8477c    |G.>    DCD    1053312892
        0x000166a8:    bf6b99fb    ..k.    DCD    3211500027
        0x000166ac:    3ec90077    w..>    DCD    1053360247
        0x000166b0:    bf6b7295    .rk.    DCD    3211489941
        0x000166b4:    3ec9b953    S..>    DCD    1053407571
        0x000166b8:    bf6b4b0c    .Kk.    DCD    3211479820
        0x000166bc:    3eca7210    .r.>    DCD    1053454864
        0x000166c0:    bf6b235e    ^#k.    DCD    3211469662
        0x000166c4:    3ecb2aae    .*.>    DCD    1053502126
        0x000166c8:    bf6afb8c    ..j.    DCD    3211459468
        0x000166cc:    3ecbe32c    ,..>    DCD    1053549356
        0x000166d0:    bf6ad395    ..j.    DCD    3211449237
        0x000166d4:    3ecc9b8b    ...>    DCD    1053596555
        0x000166d8:    bf6aab7b    {.j.    DCD    3211438971
        0x000166dc:    3ecd53ca    .S.>    DCD    1053643722
        0x000166e0:    bf6a833c    <.j.    DCD    3211428668
        0x000166e4:    3ece0bea    ...>    DCD    1053690858
        0x000166e8:    bf6a5ad9    .Zj.    DCD    3211418329
        0x000166ec:    3ecec3ea    ...>    DCD    1053737962
        0x000166f0:    bf6a3252    R2j.    DCD    3211407954
        0x000166f4:    3ecf7bca    .{.>    DCD    1053785034
        0x000166f8:    bf6a09a7    ..j.    DCD    3211397543
        0x000166fc:    3ed0338a    .3.>    DCD    1053832074
        0x00016700:    bf69e0d7    ..i.    DCD    3211387095
        0x00016704:    3ed0eb2a    *..>    DCD    1053879082
        0x00016708:    bf69b7e4    ..i.    DCD    3211376612
        0x0001670c:    3ed1a2aa    ...>    DCD    1053926058
        0x00016710:    bf698ecc    ..i.    DCD    3211366092
        0x00016714:    3ed25a09    .Z.>    DCD    1053973001
        0x00016718:    bf696591    .ei.    DCD    3211355537
        0x0001671c:    3ed31148    H..>    DCD    1054019912
        0x00016720:    bf693c32    2<i.    DCD    3211344946
        0x00016724:    3ed3c867    g..>    DCD    1054066791
        0x00016728:    bf6912ae    ..i.    DCD    3211334318
        0x0001672c:    3ed47f64    d..>    DCD    1054113636
        0x00016730:    bf68e907    ..h.    DCD    3211323655
        0x00016734:    3ed53641    A6.>    DCD    1054160449
        0x00016738:    bf68bf3c    <.h.    DCD    3211312956
        0x0001673c:    3ed5ecfd    ...>    DCD    1054207229
        0x00016740:    bf68954c    L.h.    DCD    3211302220
        0x00016744:    3ed6a399    ...>    DCD    1054253977
        0x00016748:    bf686b39    9kh.    DCD    3211291449
        0x0001674c:    3ed75a13    .Z.>    DCD    1054300691
        0x00016750:    bf684103    .Ah.    DCD    3211280643
        0x00016754:    3ed8106b    k..>    DCD    1054347371
        0x00016758:    bf6816a8    ..h.    DCD    3211269800
        0x0001675c:    3ed8c6a3    ...>    DCD    1054394019
        0x00016760:    bf67ec2a    *.g.    DCD    3211258922
        0x00016764:    3ed97cb9    .|.>    DCD    1054440633
        0x00016768:    bf67c187    ..g.    DCD    3211248007
        0x0001676c:    3eda32ad    .2.>    DCD    1054487213
        0x00016770:    bf6796c1    ..g.    DCD    3211237057
        0x00016774:    3edae880    ...>    DCD    1054533760
        0x00016778:    bf676bd8    .kg.    DCD    3211226072
        0x0001677c:    3edb9e31    1..>    DCD    1054580273
        0x00016780:    bf6740ca    .@g.    DCD    3211215050
        0x00016784:    3edc53c1    .S.>    DCD    1054626753
        0x00016788:    bf671599    ..g.    DCD    3211203993
        0x0001678c:    3edd092e    ...>    DCD    1054673198
        0x00016790:    bf66ea45    E.f.    DCD    3211192901
        0x00016794:    3eddbe79    y..>    DCD    1054719609
        0x00016798:    bf66becc    ..f.    DCD    3211181772
        0x0001679c:    3ede73a2    .s.>    DCD    1054765986
        0x000167a0:    bf669330    0.f.    DCD    3211170608
        0x000167a4:    3edf28a9    .(.>    DCD    1054812329
        0x000167a8:    bf666771    qgf.    DCD    3211159409
        0x000167ac:    3edfdd8d    ...>    DCD    1054858637
        0x000167b0:    bf663b8e    .;f.    DCD    3211148174
        0x000167b4:    3ee0924f    O..>    DCD    1054904911
        0x000167b8:    bf660f88    ..f.    DCD    3211136904
        0x000167bc:    3ee146ee    .F.>    DCD    1054951150
        0x000167c0:    bf65e35e    ^.e.    DCD    3211125598
        0x000167c4:    3ee1fb6a    j..>    DCD    1054997354
        0x000167c8:    bf65b710    ..e.    DCD    3211114256
        0x000167cc:    3ee2afc4    ...>    DCD    1055043524
        0x000167d0:    bf658aa0    ..e.    DCD    3211102880
        0x000167d4:    3ee363fa    .c.>    DCD    1055089658
        0x000167d8:    bf655e0b    .^e.    DCD    3211091467
        0x000167dc:    3ee4180e    ...>    DCD    1055135758
        0x000167e0:    bf653154    T1e.    DCD    3211080020
        0x000167e4:    3ee4cbfe    ...>    DCD    1055181822
        0x000167e8:    bf650479    y.e.    DCD    3211068537
        0x000167ec:    3ee57fcb    ...>    DCD    1055227851
        0x000167f0:    bf64d77b    {.d.    DCD    3211057019
        0x000167f4:    3ee63375    u3.>    DCD    1055273845
        0x000167f8:    bf64aa59    Y.d.    DCD    3211045465
        0x000167fc:    3ee6e6fb    ...>    DCD    1055319803
        0x00016800:    bf647d14    .}d.    DCD    3211033876
        0x00016804:    3ee79a5d    ]..>    DCD    1055365725
        0x00016808:    bf644fac    .Od.    DCD    3211022252
        0x0001680c:    3ee84d9c    .M.>    DCD    1055411612
        0x00016810:    bf642221    !"d.    DCD    3211010593
        0x00016814:    3ee900b7    ...>    DCD    1055457463
        0x00016818:    bf63f473    s.c.    DCD    3210998899
        0x0001681c:    3ee9b3ae    ...>    DCD    1055503278
        0x00016820:    bf63c6a1    ..c.    DCD    3210987169
        0x00016824:    3eea6681    .f.>    DCD    1055549057
        0x00016828:    bf6398ac    ..c.    DCD    3210975404
        0x0001682c:    3eeb1930    0..>    DCD    1055594800
        0x00016830:    bf636a95    .jc.    DCD    3210963605
        0x00016834:    3eebcbbb    ...>    DCD    1055640507
        0x00016838:    bf633c5a    Z<c.    DCD    3210951770
        0x0001683c:    3eec7e21    !~.>    DCD    1055686177
        0x00016840:    bf630dfc    ..c.    DCD    3210939900
        0x00016844:    3eed3063    c0.>    DCD    1055731811
        0x00016848:    bf62df7b    {.b.    DCD    3210927995
        0x0001684c:    3eede280    ...>    DCD    1055777408
        0x00016850:    bf62b0d7    ..b.    DCD    3210916055
        0x00016854:    3eee9479    y..>    DCD    1055822969
        0x00016858:    bf628210    ..b.    DCD    3210904080
        0x0001685c:    3eef464c    LF.>    DCD    1055868492
        0x00016860:    bf625326    &Sb.    DCD    3210892070
        0x00016864:    3eeff7fb    ...>    DCD    1055913979
        0x00016868:    bf62241a    .$b.    DCD    3210880026
        0x0001686c:    3ef0a985    ...>    DCD    1055959429
        0x00016870:    bf61f4ea    ..a.    DCD    3210867946
        0x00016874:    3ef15aea    .Z.>    DCD    1056004842
        0x00016878:    bf61c598    ..a.    DCD    3210855832
        0x0001687c:    3ef20c29    )..>    DCD    1056050217
        0x00016880:    bf619622    ".a.    DCD    3210843682
        0x00016884:    3ef2bd43    C..>    DCD    1056095555
        0x00016888:    bf61668a    .fa.    DCD    3210831498
        0x0001688c:    3ef36e38    8n.>    DCD    1056140856
        0x00016890:    bf6136d0    .6a.    DCD    3210819280
        0x00016894:    3ef41f07    ...>    DCD    1056186119
        0x00016898:    bf6106f2    ..a.    DCD    3210807026
        0x0001689c:    3ef4cfb1    ...>    DCD    1056231345
        0x000168a0:    bf60d6f2    ..`.    DCD    3210794738
        0x000168a4:    3ef58035    5..>    DCD    1056276533
        0x000168a8:    bf60a6cf    ..`.    DCD    3210782415
        0x000168ac:    3ef63093    .0.>    DCD    1056321683
        0x000168b0:    bf607689    .v`.    DCD    3210770057
        0x000168b4:    3ef6e0cb    ...>    DCD    1056366795
        0x000168b8:    bf604621    !F`.    DCD    3210757665
        0x000168bc:    3ef790dc    ...>    DCD    1056411868
        0x000168c0:    bf601596    ..`.    DCD    3210745238
        0x000168c4:    3ef840c8    .@.>    DCD    1056456904
        0x000168c8:    bf5fe4e9    .._.    DCD    3210732777
        0x000168cc:    3ef8f08e    ...>    DCD    1056501902
        0x000168d0:    bf5fb419    .._.    DCD    3210720281
        0x000168d4:    3ef9a02d    -..>    DCD    1056546861
        0x000168d8:    bf5f8327    '._.    DCD    3210707751
        0x000168dc:    3efa4fa5    .O.>    DCD    1056591781
        0x000168e0:    bf5f5212    .R_.    DCD    3210695186
        0x000168e4:    3efafef7    ...>    DCD    1056636663
        0x000168e8:    bf5f20db    . _.    DCD    3210682587
        0x000168ec:    3efbae22    "..>    DCD    1056681506
        0x000168f0:    bf5eef81    ..^.    DCD    3210669953
        0x000168f4:    3efc5d27    '].>    DCD    1056726311
        0x000168f8:    bf5ebe05    ..^.    DCD    3210657285
        0x000168fc:    3efd0c04    ...>    DCD    1056771076
        0x00016900:    bf5e8c67    g.^.    DCD    3210644583
        0x00016904:    3efdbabb    ...>    DCD    1056815803
        0x00016908:    bf5e5aa6    .Z^.    DCD    3210631846
        0x0001690c:    3efe694a    Ji.>    DCD    1056860490
        0x00016910:    bf5e28c3    .(^.    DCD    3210619075
        0x00016914:    3eff17b2    ...>    DCD    1056905138
        0x00016918:    bf5df6be    ..].    DCD    3210606270
        0x0001691c:    3effc5f3    ...>    DCD    1056949747
        0x00016920:    bf5dc497    ..].    DCD    3210593431
        0x00016924:    3f003a06    .:.?    DCD    1056979462
        0x00016928:    bf5d924d    M.].    DCD    3210580557
        0x0001692c:    3f0090ff    ...?    DCD    1057001727
        0x00016930:    bf5d5fe1    ._].    DCD    3210567649
        0x00016934:    3f00e7e4    ...?    DCD    1057023972
        0x00016938:    bf5d2d53    S-].    DCD    3210554707
        0x0001693c:    3f013eb5    .>.?    DCD    1057046197
        0x00016940:    bf5cfaa3    ..\.    DCD    3210541731
        0x00016944:    3f019573    s..?    DCD    1057068403
        0x00016948:    bf5cc7d1    ..\.    DCD    3210528721
        0x0001694c:    3f01ec1c    ...?    DCD    1057090588
        0x00016950:    bf5c94dd    ..\.    DCD    3210515677
        0x00016954:    3f0242b1    .B.?    DCD    1057112753
        0x00016958:    bf5c61c7    .a\.    DCD    3210502599
        0x0001695c:    3f029932    2..?    DCD    1057134898
        0x00016960:    bf5c2e8e    ..\.    DCD    3210489486
        0x00016964:    3f02ef9f    ...?    DCD    1057157023
        0x00016968:    bf5bfb34    4.[.    DCD    3210476340
        0x0001696c:    3f0345f8    .E.?    DCD    1057179128
        0x00016970:    bf5bc7b8    ..[.    DCD    3210463160
        0x00016974:    3f039c3d    =..?    DCD    1057201213
        0x00016978:    bf5b941a    ..[.    DCD    3210449946
        0x0001697c:    3f03f26d    m..?    DCD    1057223277
        0x00016980:    bf5b605a    Z`[.    DCD    3210436698
        0x00016984:    3f044889    .H.?    DCD    1057245321
        0x00016988:    bf5b2c79    y,[.    DCD    3210423417
        0x0001698c:    3f049e91    ...?    DCD    1057267345
        0x00016990:    bf5af875    u.Z.    DCD    3210410101
        0x00016994:    3f04f484    ...?    DCD    1057289348
        0x00016998:    bf5ac450    P.Z.    DCD    3210396752
        0x0001699c:    3f054a62    bJ.?    DCD    1057311330
        0x000169a0:    bf5a9009    ..Z.    DCD    3210383369
        0x000169a4:    3f05a02c    ,..?    DCD    1057333292
        0x000169a8:    bf5a5ba0    .[Z.    DCD    3210369952
        0x000169ac:    3f05f5e2    ...?    DCD    1057355234
        0x000169b0:    bf5a2716    .'Z.    DCD    3210356502
        0x000169b4:    3f064b82    .K.?    DCD    1057377154
        0x000169b8:    bf59f26a    j.Y.    DCD    3210343018
        0x000169bc:    3f06a10e    ...?    DCD    1057399054
        0x000169c0:    bf59bd9c    ..Y.    DCD    3210329500
        0x000169c4:    3f06f686    ...?    DCD    1057420934
        0x000169c8:    bf5988ad    ..Y.    DCD    3210315949
        0x000169cc:    3f074be8    .K.?    DCD    1057442792
        0x000169d0:    bf59539c    .SY.    DCD    3210302364
        0x000169d4:    3f07a136    6..?    DCD    1057464630
        0x000169d8:    bf591e6a    j.Y.    DCD    3210288746
        0x000169dc:    3f07f66f    o..?    DCD    1057486447
        0x000169e0:    bf58e917    ..X.    DCD    3210275095
        0x000169e4:    3f084b92    .K.?    DCD    1057508242
        0x000169e8:    bf58b3a1    ..X.    DCD    3210261409
        0x000169ec:    3f08a0a1    ...?    DCD    1057530017
        0x000169f0:    bf587e0b    .~X.    DCD    3210247691
        0x000169f4:    3f08f59b    ...?    DCD    1057551771
        0x000169f8:    bf584853    SHX.    DCD    3210233939
        0x000169fc:    3f094a7f    .J.?    DCD    1057573503
        0x00016a00:    bf581279    y.X.    DCD    3210220153
        0x00016a04:    3f099f4e    N..?    DCD    1057595214
        0x00016a08:    bf57dc7f    ..W.    DCD    3210206335
        0x00016a0c:    3f09f409    ...?    DCD    1057616905
        0x00016a10:    bf57a663    c.W.    DCD    3210192483
        0x00016a14:    3f0a48ad    .H.?    DCD    1057638573
        0x00016a18:    bf577026    &pW.    DCD    3210178598
        0x00016a1c:    3f0a9d3d    =..?    DCD    1057660221
        0x00016a20:    bf5739c7    .9W.    DCD    3210164679
        0x00016a24:    3f0af1b7    ...?    DCD    1057681847
        0x00016a28:    bf570348    H.W.    DCD    3210150728
        0x00016a2c:    3f0b461c    .F.?    DCD    1057703452
        0x00016a30:    bf56cca7    ..V.    DCD    3210136743
        0x00016a34:    3f0b9a6b    k..?    DCD    1057725035
        0x00016a38:    bf5695e5    ..V.    DCD    3210122725
        0x00016a3c:    3f0beea5    ...?    DCD    1057746597
        0x00016a40:    bf565f02    ._V.    DCD    3210108674
        0x00016a44:    3f0c42c9    .B.?    DCD    1057768137
        0x00016a48:    bf5627fe    .'V.    DCD    3210094590
        0x00016a4c:    3f0c96d7    ...?    DCD    1057789655
        0x00016a50:    bf55f0d9    ..U.    DCD    3210080473
        0x00016a54:    3f0cead0    ...?    DCD    1057811152
        0x00016a58:    bf55b993    ..U.    DCD    3210066323
        0x00016a5c:    3f0d3eb3    .>.?    DCD    1057832627
        0x00016a60:    bf55822c    ,.U.    DCD    3210052140
        0x00016a64:    3f0d9281    ...?    DCD    1057854081
        0x00016a68:    bf554aa4    .JU.    DCD    3210037924
        0x00016a6c:    3f0de638    8..?    DCD    1057875512
        0x00016a70:    bf5512fb    ..U.    DCD    3210023675
        0x00016a74:    3f0e39da    .9.?    DCD    1057896922
        0x00016a78:    bf54db31    1.T.    DCD    3210009393
        0x00016a7c:    3f0e8d65    e..?    DCD    1057918309
        0x00016a80:    bf54a347    G.T.    DCD    3209995079
        0x00016a84:    3f0ee0db    ...?    DCD    1057939675
        0x00016a88:    bf546b3b    ;kT.    DCD    3209980731
        0x00016a8c:    3f0f343b    ;4.?    DCD    1057961019
        0x00016a90:    bf54330f    .3T.    DCD    3209966351
        0x00016a94:    3f0f8784    ...?    DCD    1057982340
        0x00016a98:    bf53fac3    ..S.    DCD    3209951939
        0x00016a9c:    3f0fdab8    ...?    DCD    1058003640
        0x00016aa0:    bf53c255    U.S.    DCD    3209937493
        0x00016aa4:    3f102dd5    .-.?    DCD    1058024917
        0x00016aa8:    bf5389c7    ..S.    DCD    3209923015
        0x00016aac:    3f1080dc    ...?    DCD    1058046172
        0x00016ab0:    bf535118    .QS.    DCD    3209908504
        0x00016ab4:    3f10d3cd    ...?    DCD    1058067405
        0x00016ab8:    bf531849    I.S.    DCD    3209893961
        0x00016abc:    3f1126a7    .&.?    DCD    1058088615
        0x00016ac0:    bf52df59    Y.R.    DCD    3209879385
        0x00016ac4:    3f11796b    ky.?    DCD    1058109803
        0x00016ac8:    bf52a649    I.R.    DCD    3209864777
        0x00016acc:    3f11cc19    ...?    DCD    1058130969
        0x00016ad0:    bf526d18    .mR.    DCD    3209850136
        0x00016ad4:    3f121eb0    ...?    DCD    1058152112
        0x00016ad8:    bf5233c6    .3R.    DCD    3209835462
        0x00016adc:    3f127130    0q.?    DCD    1058173232
        0x00016ae0:    bf51fa54    T.Q.    DCD    3209820756
        0x00016ae4:    3f12c39a    ...?    DCD    1058194330
        0x00016ae8:    bf51c0c2    ..Q.    DCD    3209806018
        0x00016aec:    3f1315ee    ...?    DCD    1058215406
        0x00016af0:    bf518710    ..Q.    DCD    3209791248
        0x00016af4:    3f13682a    *h.?    DCD    1058236458
        0x00016af8:    bf514d3d    =MQ.    DCD    3209776445
        0x00016afc:    3f13ba50    P..?    DCD    1058257488
        0x00016b00:    bf51134a    J.Q.    DCD    3209761610
        0x00016b04:    3f140c5f    _..?    DCD    1058278495
        0x00016b08:    bf50d937    7.P.    DCD    3209746743
        0x00016b0c:    3f145e58    X^.?    DCD    1058299480
        0x00016b10:    bf509f03    ..P.    DCD    3209731843
        0x00016b14:    3f14b039    9..?    DCD    1058320441
        0x00016b18:    bf5064af    .dP.    DCD    3209716911
        0x00016b1c:    3f150204    ...?    DCD    1058341380
        0x00016b20:    bf502a3b    ;*P.    DCD    3209701947
        0x00016b24:    3f1553b7    .S.?    DCD    1058362295
        0x00016b28:    bf4fefa8    ..O.    DCD    3209686952
        0x00016b2c:    3f15a554    T..?    DCD    1058383188
        0x00016b30:    bf4fb4f4    ..O.    DCD    3209671924
        0x00016b34:    3f15f6d9    ...?    DCD    1058404057
        0x00016b38:    bf4f7a1f    .zO.    DCD    3209656863
        0x00016b3c:    3f164847    GH.?    DCD    1058424903
        0x00016b40:    bf4f3f2b    +?O.    DCD    3209641771
        0x00016b44:    3f16999f    ...?    DCD    1058445727
        0x00016b48:    bf4f0417    ..O.    DCD    3209626647
        0x00016b4c:    3f16eadf    ...?    DCD    1058466527
        0x00016b50:    bf4ec8e4    ..N.    DCD    3209611492
        0x00016b54:    3f173c07    .<.?    DCD    1058487303
        0x00016b58:    bf4e8d90    ..N.    DCD    3209596304
        0x00016b5c:    3f178d18    ...?    DCD    1058508056
        0x00016b60:    bf4e521c    .RN.    DCD    3209581084
        0x00016b64:    3f17de12    ...?    DCD    1058528786
        0x00016b68:    bf4e1689    ..N.    DCD    3209565833
        0x00016b6c:    3f182ef5    ...?    DCD    1058549493
        0x00016b70:    bf4ddad5    ..M.    DCD    3209550549
        0x00016b74:    3f187fc0    ...?    DCD    1058570176
        0x00016b78:    bf4d9f02    ..M.    DCD    3209535234
        0x00016b7c:    3f18d073    s..?    DCD    1058590835
        0x00016b80:    bf4d6310    .cM.    DCD    3209519888
        0x00016b84:    3f19210f    .!.?    DCD    1058611471
        0x00016b88:    bf4d26fd    .&M.    DCD    3209504509
        0x00016b8c:    3f197194    .q.?    DCD    1058632084
        0x00016b90:    bf4ceacb    ..L.    DCD    3209489099
        0x00016b94:    3f19c200    ...?    DCD    1058652672
        0x00016b98:    bf4cae79    y.L.    DCD    3209473657
        0x00016b9c:    3f1a1255    U..?    DCD    1058673237
        0x00016ba0:    bf4c7208    .rL.    DCD    3209458184
        0x00016ba4:    3f1a6293    .b.?    DCD    1058693779
        0x00016ba8:    bf4c3578    x5L.    DCD    3209442680
        0x00016bac:    3f1ab2b8    ...?    DCD    1058714296
        0x00016bb0:    bf4bf8c7    ..K.    DCD    3209427143
        0x00016bb4:    3f1b02c6    ...?    DCD    1058734790
        0x00016bb8:    bf4bbbf8    ..K.    DCD    3209411576
        0x00016bbc:    3f1b52bb    .R.?    DCD    1058755259
        0x00016bc0:    bf4b7f09    ..K.    DCD    3209395977
        0x00016bc4:    3f1ba299    ...?    DCD    1058775705
        0x00016bc8:    bf4b41fa    .AK.    DCD    3209380346
        0x00016bcc:    3f1bf25f    _..?    DCD    1058796127
        0x00016bd0:    bf4b04cc    ..K.    DCD    3209364684
        0x00016bd4:    3f1c420c    .B.?    DCD    1058816524
        0x00016bd8:    bf4ac77f    ..J.    DCD    3209348991
        0x00016bdc:    3f1c91a2    ...?    DCD    1058836898
        0x00016be0:    bf4a8a13    ..J.    DCD    3209333267
        0x00016be4:    3f1ce11f    ...?    DCD    1058857247
        0x00016be8:    bf4a4c87    .LJ.    DCD    3209317511
        0x00016bec:    3f1d3084    .0.?    DCD    1058877572
        0x00016bf0:    bf4a0edc    ..J.    DCD    3209301724
        0x00016bf4:    3f1d7fd1    ...?    DCD    1058897873
        0x00016bf8:    bf49d112    ..I.    DCD    3209285906
        0x00016bfc:    3f1dcf06    ...?    DCD    1058918150
        0x00016c00:    bf499329    ).I.    DCD    3209270057
        0x00016c04:    3f1e1e22    "..?    DCD    1058938402
        0x00016c08:    bf495521    !UI.    DCD    3209254177
        0x00016c0c:    3f1e6d26    &m.?    DCD    1058958630
        0x00016c10:    bf4916fa    ..I.    DCD    3209238266
        0x00016c14:    3f1ebc12    ...?    DCD    1058978834
        0x00016c18:    bf48d8b3    ..H.    DCD    3209222323
        0x00016c1c:    3f1f0ae5    ...?    DCD    1058999013
        0x00016c20:    bf489a4e    N.H.    DCD    3209206350
        0x00016c24:    3f1f599f    .Y.?    DCD    1059019167
        0x00016c28:    bf485bca    .[H.    DCD    3209190346
        0x00016c2c:    3f1fa841    A..?    DCD    1059039297
        0x00016c30:    bf481d27    '.H.    DCD    3209174311
        0x00016c34:    3f1ff6cb    ...?    DCD    1059059403
        0x00016c38:    bf47de65    e.G.    DCD    3209158245
        0x00016c3c:    3f20453b    ;E ?    DCD    1059079483
        0x00016c40:    bf479f84    ..G.    DCD    3209142148
        0x00016c44:    3f209393    .. ?    DCD    1059099539
        0x00016c48:    bf476085    .`G.    DCD    3209126021
        0x00016c4c:    3f20e1d2    .. ?    DCD    1059119570
        0x00016c50:    bf472167    g!G.    DCD    3209109863
        0x00016c54:    3f212ff9    ./!?    DCD    1059139577
        0x00016c58:    bf46e22a    *.F.    DCD    3209093674
        0x00016c5c:    3f217e06    .~!?    DCD    1059159558
        0x00016c60:    bf46a2ce    ..F.    DCD    3209077454
        0x00016c64:    3f21cbfb    ..!?    DCD    1059179515
        0x00016c68:    bf466354    TcF.    DCD    3209061204
        0x00016c6c:    3f2219d7    .."?    DCD    1059199447
        0x00016c70:    bf4623bb    .#F.    DCD    3209044923
        0x00016c74:    3f226799    .g"?    DCD    1059219353
        0x00016c78:    bf45e403    ..E.    DCD    3209028611
        0x00016c7c:    3f22b543    C."?    DCD    1059239235
        0x00016c80:    bf45a42d    -.E.    DCD    3209012269
        0x00016c84:    3f2302d3    ..#?    DCD    1059259091
        0x00016c88:    bf456439    9dE.    DCD    3208995897
        0x00016c8c:    3f23504b    KP#?    DCD    1059278923
        0x00016c90:    bf452426    &$E.    DCD    3208979494
        0x00016c94:    3f239da9    ..#?    DCD    1059298729
        0x00016c98:    bf44e3f5    ..D.    DCD    3208963061
        0x00016c9c:    3f23eaee    ..#?    DCD    1059318510
        0x00016ca0:    bf44a3a5    ..D.    DCD    3208946597
        0x00016ca4:    3f24381a    .8$?    DCD    1059338266
        0x00016ca8:    bf446337    7cD.    DCD    3208930103
        0x00016cac:    3f24852c    ,.$?    DCD    1059357996
        0x00016cb0:    bf4422ab    ."D.    DCD    3208913579
        0x00016cb4:    3f24d225    %.$?    DCD    1059377701
        0x00016cb8:    bf43e200    ..C.    DCD    3208897024
        0x00016cbc:    3f251f04    ..%?    DCD    1059397380
        0x00016cc0:    bf43a138    8.C.    DCD    3208880440
        0x00016cc4:    3f256bcb    .k%?    DCD    1059417035
        0x00016cc8:    bf436051    Q`C.    DCD    3208863825
        0x00016ccc:    3f25b877    w.%?    DCD    1059436663
        0x00016cd0:    bf431f4c    L.C.    DCD    3208847180
        0x00016cd4:    3f26050a    ..&?    DCD    1059456266
        0x00016cd8:    bf42de29    ).B.    DCD    3208830505
        0x00016cdc:    3f265184    .Q&?    DCD    1059475844
        0x00016ce0:    bf429ce8    ..B.    DCD    3208813800
        0x00016ce4:    3f269de3    ..&?    DCD    1059495395
        0x00016ce8:    bf425b89    .[B.    DCD    3208797065
        0x00016cec:    3f26ea2a    *.&?    DCD    1059514922
        0x00016cf0:    bf421a0b    ..B.    DCD    3208780299
        0x00016cf4:    3f273656    V6'?    DCD    1059534422
        0x00016cf8:    bf41d870    p.A.    DCD    3208763504
        0x00016cfc:    3f278268    h.'?    DCD    1059553896
        0x00016d00:    bf4196b7    ..A.    DCD    3208746679
        0x00016d04:    3f27ce61    a.'?    DCD    1059573345
        0x00016d08:    bf4154e1    .TA.    DCD    3208729825
        0x00016d0c:    3f281a40    @.(?    DCD    1059592768
        0x00016d10:    bf4112ec    ..A.    DCD    3208712940
        0x00016d14:    3f286605    .f(?    DCD    1059612165
        0x00016d18:    bf40d0da    ..@.    DCD    3208696026
        0x00016d1c:    3f28b1b0    ..(?    DCD    1059631536
        0x00016d20:    bf408ea9    ..@.    DCD    3208679081
        0x00016d24:    3f28fd41    A.(?    DCD    1059650881
        0x00016d28:    bf404c5c    \L@.    DCD    3208662108
        0x00016d2c:    3f2948b8    .H)?    DCD    1059670200
        0x00016d30:    bf4009f0    ..@.    DCD    3208645104
        0x00016d34:    3f299415    ..)?    DCD    1059689493
        0x00016d38:    bf3fc767    g.?.    DCD    3208628071
        0x00016d3c:    3f29df57    W.)?    DCD    1059708759
        0x00016d40:    bf3f84c0    ..?.    DCD    3208611008
        0x00016d44:    3f2a2a80    .**?    DCD    1059728000
        0x00016d48:    bf3f41fc    .A?.    DCD    3208593916
        0x00016d4c:    3f2a758e    .u*?    DCD    1059747214
        0x00016d50:    bf3eff1b    ..>.    DCD    3208576795
        0x00016d54:    3f2ac082    ..*?    DCD    1059766402
        0x00016d58:    bf3ebc1b    ..>.    DCD    3208559643
        0x00016d5c:    3f2b0b5b    [.+?    DCD    1059785563
        0x00016d60:    bf3e78ff    .x>.    DCD    3208542463
        0x00016d64:    3f2b561b    .V+?    DCD    1059804699
        0x00016d68:    bf3e35c5    .5>.    DCD    3208525253
        0x00016d6c:    3f2ba0bf    ..+?    DCD    1059823807
        0x00016d70:    bf3df26e    n.=.    DCD    3208508014
        0x00016d74:    3f2beb4a    J.+?    DCD    1059842890
        0x00016d78:    bf3daef9    ..=.    DCD    3208490745
        0x00016d7c:    3f2c35b9    .5,?    DCD    1059861945
        0x00016d80:    bf3d6b67    gk=.    DCD    3208473447
        0x00016d84:    3f2c800f    ..,?    DCD    1059880975
        0x00016d88:    bf3d27b8    .'=.    DCD    3208456120
        0x00016d8c:    3f2cca49    I.,?    DCD    1059899977
        0x00016d90:    bf3ce3ec    ..<.    DCD    3208438764
        0x00016d94:    3f2d1469    i.-?    DCD    1059918953
        0x00016d98:    bf3ca003    ..<.    DCD    3208421379
        0x00016d9c:    3f2d5e6f    o^-?    DCD    1059937903
        0x00016da0:    bf3c5bfc    .[<.    DCD    3208403964
        0x00016da4:    3f2da859    Y.-?    DCD    1059956825
        0x00016da8:    bf3c17d9    ..<.    DCD    3208386521
        0x00016dac:    3f2df229    ).-?    DCD    1059975721
        0x00016db0:    bf3bd398    ..;.    DCD    3208369048
        0x00016db4:    3f2e3bde    .;.?    DCD    1059994590
        0x00016db8:    bf3b8f3b    ;.;.    DCD    3208351547
        0x00016dbc:    3f2e8578    x..?    DCD    1060013432
        0x00016dc0:    bf3b4ac1    .J;.    DCD    3208334017
        0x00016dc4:    3f2ecef7    ...?    DCD    1060032247
        0x00016dc8:    bf3b0629    ).;.    DCD    3208316457
        0x00016dcc:    3f2f185b    [./?    DCD    1060051035
        0x00016dd0:    bf3ac175    u.:.    DCD    3208298869
        0x00016dd4:    3f2f61a5    .a/?    DCD    1060069797
        0x00016dd8:    bf3a7ca4    .|:.    DCD    3208281252
        0x00016ddc:    3f2faad3    ../?    DCD    1060088531
        0x00016de0:    bf3a37b7    .7:.    DCD    3208263607
        0x00016de4:    3f2ff3e6    ../?    DCD    1060107238
        0x00016de8:    bf39f2ac    ..9.    DCD    3208245932
        0x00016dec:    3f303cde    .<0?    DCD    1060125918
        0x00016df0:    bf39ad85    ..9.    DCD    3208228229
        0x00016df4:    3f3085bb    ..0?    DCD    1060144571
        0x00016df8:    bf396842    Bh9.    DCD    3208210498
        0x00016dfc:    3f30ce7c    |.0?    DCD    1060163196
        0x00016e00:    bf3922e1    ."9.    DCD    3208192737
        0x00016e04:    3f311722    ".1?    DCD    1060181794
        0x00016e08:    bf38dd65    e.8.    DCD    3208174949
        0x00016e0c:    3f315fad    ._1?    DCD    1060200365
        0x00016e10:    bf3897cb    ..8.    DCD    3208157131
        0x00016e14:    3f31a81d    ..1?    DCD    1060218909
        0x00016e18:    bf385216    .R8.    DCD    3208139286
        0x00016e1c:    3f31f071    q.1?    DCD    1060237425
        0x00016e20:    bf380c43    C.8.    DCD    3208121411
        0x00016e24:    3f3238aa    .82?    DCD    1060255914
        0x00016e28:    bf37c655    U.7.    DCD    3208103509
        0x00016e2c:    3f3280c7    ..2?    DCD    1060274375
        0x00016e30:    bf37804a    J.7.    DCD    3208085578
        0x00016e34:    3f32c8c9    ..2?    DCD    1060292809
        0x00016e38:    bf373a23    #:7.    DCD    3208067619
        0x00016e3c:    3f3310af    ..3?    DCD    1060311215
        0x00016e40:    bf36f3df    ..6.    DCD    3208049631
        0x00016e44:    3f33587a    zX3?    DCD    1060329594
        0x00016e48:    bf36ad7f    ..6.    DCD    3208031615
        0x00016e4c:    3f33a029    ).3?    DCD    1060347945
        0x00016e50:    bf366704    .g6.    DCD    3208013572
        0x00016e54:    3f33e7bc    ..3?    DCD    1060366268
        0x00016e58:    bf36206c    l 6.    DCD    3207995500
        0x00016e5c:    3f342f34    4/4?    DCD    1060384564
        0x00016e60:    bf35d9b8    ..5.    DCD    3207977400
        0x00016e64:    3f34768f    .v4?    DCD    1060402831
        0x00016e68:    bf3592e7    ..5.    DCD    3207959271
        0x00016e6c:    3f34bdcf    ..4?    DCD    1060421071
        0x00016e70:    bf354bfb    .K5.    DCD    3207941115
        0x00016e74:    3f3504f3    ..5?    DCD    1060439283
        0x00016e78:    bf3504f3    ..5.    DCD    3207922931
        0x00016e7c:    3f354bfb    .K5?    DCD    1060457467
        0x00016e80:    bf34bdcf    ..4.    DCD    3207904719
        0x00016e84:    3f3592e7    ..5?    DCD    1060475623
        0x00016e88:    bf34768f    .v4.    DCD    3207886479
        0x00016e8c:    3f35d9b8    ..5?    DCD    1060493752
        0x00016e90:    bf342f34    4/4.    DCD    3207868212
        0x00016e94:    3f36206c    l 6?    DCD    1060511852
        0x00016e98:    bf33e7bc    ..3.    DCD    3207849916
        0x00016e9c:    3f366704    .g6?    DCD    1060529924
        0x00016ea0:    bf33a029    ).3.    DCD    3207831593
        0x00016ea4:    3f36ad7f    ..6?    DCD    1060547967
        0x00016ea8:    bf33587a    zX3.    DCD    3207813242
        0x00016eac:    3f36f3df    ..6?    DCD    1060565983
        0x00016eb0:    bf3310af    ..3.    DCD    3207794863
        0x00016eb4:    3f373a23    #:7?    DCD    1060583971
        0x00016eb8:    bf32c8c9    ..2.    DCD    3207776457
        0x00016ebc:    3f37804a    J.7?    DCD    1060601930
        0x00016ec0:    bf3280c7    ..2.    DCD    3207758023
        0x00016ec4:    3f37c655    U.7?    DCD    1060619861
        0x00016ec8:    bf3238aa    .82.    DCD    3207739562
        0x00016ecc:    3f380c43    C.8?    DCD    1060637763
        0x00016ed0:    bf31f071    q.1.    DCD    3207721073
        0x00016ed4:    3f385216    .R8?    DCD    1060655638
        0x00016ed8:    bf31a81d    ..1.    DCD    3207702557
        0x00016edc:    3f3897cb    ..8?    DCD    1060673483
        0x00016ee0:    bf315fad    ._1.    DCD    3207684013
        0x00016ee4:    3f38dd65    e.8?    DCD    1060691301
        0x00016ee8:    bf311722    ".1.    DCD    3207665442
        0x00016eec:    3f3922e1    ."9?    DCD    1060709089
        0x00016ef0:    bf30ce7c    |.0.    DCD    3207646844
        0x00016ef4:    3f396842    Bh9?    DCD    1060726850
        0x00016ef8:    bf3085bb    ..0.    DCD    3207628219
        0x00016efc:    3f39ad85    ..9?    DCD    1060744581
        0x00016f00:    bf303cde    .<0.    DCD    3207609566
        0x00016f04:    3f39f2ac    ..9?    DCD    1060762284
        0x00016f08:    bf2ff3e6    ../.    DCD    3207590886
        0x00016f0c:    3f3a37b7    .7:?    DCD    1060779959
        0x00016f10:    bf2faad3    ../.    DCD    3207572179
        0x00016f14:    3f3a7ca4    .|:?    DCD    1060797604
        0x00016f18:    bf2f61a5    .a/.    DCD    3207553445
        0x00016f1c:    3f3ac175    u.:?    DCD    1060815221
        0x00016f20:    bf2f185b    [./.    DCD    3207534683
        0x00016f24:    3f3b0629    ).;?    DCD    1060832809
        0x00016f28:    bf2ecef7    ....    DCD    3207515895
        0x00016f2c:    3f3b4ac1    .J;?    DCD    1060850369
        0x00016f30:    bf2e8578    x...    DCD    3207497080
        0x00016f34:    3f3b8f3b    ;.;?    DCD    1060867899
        0x00016f38:    bf2e3bde    .;..    DCD    3207478238
        0x00016f3c:    3f3bd398    ..;?    DCD    1060885400
        0x00016f40:    bf2df229    ).-.    DCD    3207459369
        0x00016f44:    3f3c17d9    ..<?    DCD    1060902873
        0x00016f48:    bf2da859    Y.-.    DCD    3207440473
        0x00016f4c:    3f3c5bfc    .[<?    DCD    1060920316
        0x00016f50:    bf2d5e6f    o^-.    DCD    3207421551
        0x00016f54:    3f3ca003    ..<?    DCD    1060937731
        0x00016f58:    bf2d1469    i.-.    DCD    3207402601
        0x00016f5c:    3f3ce3ec    ..<?    DCD    1060955116
        0x00016f60:    bf2cca49    I.,.    DCD    3207383625
        0x00016f64:    3f3d27b8    .'=?    DCD    1060972472
        0x00016f68:    bf2c800f    ..,.    DCD    3207364623
        0x00016f6c:    3f3d6b67    gk=?    DCD    1060989799
        0x00016f70:    bf2c35b9    .5,.    DCD    3207345593
        0x00016f74:    3f3daef9    ..=?    DCD    1061007097
        0x00016f78:    bf2beb4a    J.+.    DCD    3207326538
        0x00016f7c:    3f3df26e    n.=?    DCD    1061024366
        0x00016f80:    bf2ba0bf    ..+.    DCD    3207307455
        0x00016f84:    3f3e35c5    .5>?    DCD    1061041605
        0x00016f88:    bf2b561b    .V+.    DCD    3207288347
        0x00016f8c:    3f3e78ff    .x>?    DCD    1061058815
        0x00016f90:    bf2b0b5b    [.+.    DCD    3207269211
        0x00016f94:    3f3ebc1b    ..>?    DCD    1061075995
        0x00016f98:    bf2ac082    ..*.    DCD    3207250050
        0x00016f9c:    3f3eff1b    ..>?    DCD    1061093147
        0x00016fa0:    bf2a758e    .u*.    DCD    3207230862
        0x00016fa4:    3f3f41fc    .A??    DCD    1061110268
        0x00016fa8:    bf2a2a80    .**.    DCD    3207211648
        0x00016fac:    3f3f84c0    ..??    DCD    1061127360
        0x00016fb0:    bf29df57    W.).    DCD    3207192407
        0x00016fb4:    3f3fc767    g.??    DCD    1061144423
        0x00016fb8:    bf299415    ..).    DCD    3207173141
        0x00016fbc:    3f4009f0    ..@?    DCD    1061161456
        0x00016fc0:    bf2948b8    .H).    DCD    3207153848
        0x00016fc4:    3f404c5c    \L@?    DCD    1061178460
        0x00016fc8:    bf28fd41    A.(.    DCD    3207134529
        0x00016fcc:    3f408ea9    ..@?    DCD    1061195433
        0x00016fd0:    bf28b1b0    ..(.    DCD    3207115184
        0x00016fd4:    3f40d0da    ..@?    DCD    1061212378
        0x00016fd8:    bf286605    .f(.    DCD    3207095813
        0x00016fdc:    3f4112ec    ..A?    DCD    1061229292
        0x00016fe0:    bf281a40    @.(.    DCD    3207076416
        0x00016fe4:    3f4154e1    .TA?    DCD    1061246177
        0x00016fe8:    bf27ce61    a.'.    DCD    3207056993
        0x00016fec:    3f4196b7    ..A?    DCD    1061263031
        0x00016ff0:    bf278268    h.'.    DCD    3207037544
        0x00016ff4:    3f41d870    p.A?    DCD    1061279856
        0x00016ff8:    bf273656    V6'.    DCD    3207018070
        0x00016ffc:    3f421a0b    ..B?    DCD    1061296651
        0x00017000:    bf26ea2a    *.&.    DCD    3206998570
        0x00017004:    3f425b89    .[B?    DCD    1061313417
        0x00017008:    bf269de3    ..&.    DCD    3206979043
        0x0001700c:    3f429ce8    ..B?    DCD    1061330152
        0x00017010:    bf265184    .Q&.    DCD    3206959492
        0x00017014:    3f42de29    ).B?    DCD    1061346857
        0x00017018:    bf26050a    ..&.    DCD    3206939914
        0x0001701c:    3f431f4c    L.C?    DCD    1061363532
        0x00017020:    bf25b877    w.%.    DCD    3206920311
        0x00017024:    3f436051    Q`C?    DCD    1061380177
        0x00017028:    bf256bcb    .k%.    DCD    3206900683
        0x0001702c:    3f43a138    8.C?    DCD    1061396792
        0x00017030:    bf251f04    ..%.    DCD    3206881028
        0x00017034:    3f43e200    ..C?    DCD    1061413376
        0x00017038:    bf24d225    %.$.    DCD    3206861349
        0x0001703c:    3f4422ab    ."D?    DCD    1061429931
        0x00017040:    bf24852c    ,.$.    DCD    3206841644
        0x00017044:    3f446337    7cD?    DCD    1061446455
        0x00017048:    bf24381a    .8$.    DCD    3206821914
        0x0001704c:    3f44a3a5    ..D?    DCD    1061462949
        0x00017050:    bf23eaee    ..#.    DCD    3206802158
        0x00017054:    3f44e3f5    ..D?    DCD    1061479413
        0x00017058:    bf239da9    ..#.    DCD    3206782377
        0x0001705c:    3f452426    &$E?    DCD    1061495846
        0x00017060:    bf23504b    KP#.    DCD    3206762571
        0x00017064:    3f456439    9dE?    DCD    1061512249
        0x00017068:    bf2302d3    ..#.    DCD    3206742739
        0x0001706c:    3f45a42d    -.E?    DCD    1061528621
        0x00017070:    bf22b543    C.".    DCD    3206722883
        0x00017074:    3f45e403    ..E?    DCD    1061544963
        0x00017078:    bf226799    .g".    DCD    3206703001
        0x0001707c:    3f4623bb    .#F?    DCD    1061561275
        0x00017080:    bf2219d7    ..".    DCD    3206683095
        0x00017084:    3f466354    TcF?    DCD    1061577556
        0x00017088:    bf21cbfb    ..!.    DCD    3206663163
        0x0001708c:    3f46a2ce    ..F?    DCD    1061593806
        0x00017090:    bf217e06    .~!.    DCD    3206643206
        0x00017094:    3f46e22a    *.F?    DCD    1061610026
        0x00017098:    bf212ff9    ./!.    DCD    3206623225
        0x0001709c:    3f472167    g!G?    DCD    1061626215
        0x000170a0:    bf20e1d2    .. .    DCD    3206603218
        0x000170a4:    3f476085    .`G?    DCD    1061642373
        0x000170a8:    bf209393    .. .    DCD    3206583187
        0x000170ac:    3f479f84    ..G?    DCD    1061658500
        0x000170b0:    bf20453b    ;E .    DCD    3206563131
        0x000170b4:    3f47de65    e.G?    DCD    1061674597
        0x000170b8:    bf1ff6cb    ....    DCD    3206543051
        0x000170bc:    3f481d27    '.H?    DCD    1061690663
        0x000170c0:    bf1fa841    A...    DCD    3206522945
        0x000170c4:    3f485bca    .[H?    DCD    1061706698
        0x000170c8:    bf1f599f    .Y..    DCD    3206502815
        0x000170cc:    3f489a4e    N.H?    DCD    1061722702
        0x000170d0:    bf1f0ae5    ....    DCD    3206482661
        0x000170d4:    3f48d8b3    ..H?    DCD    1061738675
        0x000170d8:    bf1ebc12    ....    DCD    3206462482
        0x000170dc:    3f4916fa    ..I?    DCD    1061754618
        0x000170e0:    bf1e6d26    &m..    DCD    3206442278
        0x000170e4:    3f495521    !UI?    DCD    1061770529
        0x000170e8:    bf1e1e22    "...    DCD    3206422050
        0x000170ec:    3f499329    ).I?    DCD    1061786409
        0x000170f0:    bf1dcf06    ....    DCD    3206401798
        0x000170f4:    3f49d112    ..I?    DCD    1061802258
        0x000170f8:    bf1d7fd1    ....    DCD    3206381521
        0x000170fc:    3f4a0edc    ..J?    DCD    1061818076
        0x00017100:    bf1d3084    .0..    DCD    3206361220
        0x00017104:    3f4a4c87    .LJ?    DCD    1061833863
        0x00017108:    bf1ce11f    ....    DCD    3206340895
        0x0001710c:    3f4a8a13    ..J?    DCD    1061849619
        0x00017110:    bf1c91a2    ....    DCD    3206320546
        0x00017114:    3f4ac77f    ..J?    DCD    1061865343
        0x00017118:    bf1c420c    .B..    DCD    3206300172
        0x0001711c:    3f4b04cc    ..K?    DCD    1061881036
        0x00017120:    bf1bf25f    _...    DCD    3206279775
        0x00017124:    3f4b41fa    .AK?    DCD    1061896698
        0x00017128:    bf1ba299    ....    DCD    3206259353
        0x0001712c:    3f4b7f09    ..K?    DCD    1061912329
        0x00017130:    bf1b52bb    .R..    DCD    3206238907
        0x00017134:    3f4bbbf8    ..K?    DCD    1061927928
        0x00017138:    bf1b02c6    ....    DCD    3206218438
        0x0001713c:    3f4bf8c7    ..K?    DCD    1061943495
        0x00017140:    bf1ab2b8    ....    DCD    3206197944
        0x00017144:    3f4c3578    x5L?    DCD    1061959032
        0x00017148:    bf1a6293    .b..    DCD    3206177427
        0x0001714c:    3f4c7208    .rL?    DCD    1061974536
        0x00017150:    bf1a1255    U...    DCD    3206156885
        0x00017154:    3f4cae79    y.L?    DCD    1061990009
        0x00017158:    bf19c200    ....    DCD    3206136320
        0x0001715c:    3f4ceacb    ..L?    DCD    1062005451
        0x00017160:    bf197194    .q..    DCD    3206115732
        0x00017164:    3f4d26fd    .&M?    DCD    1062020861
        0x00017168:    bf19210f    .!..    DCD    3206095119
        0x0001716c:    3f4d6310    .cM?    DCD    1062036240
        0x00017170:    bf18d073    s...    DCD    3206074483
        0x00017174:    3f4d9f02    ..M?    DCD    1062051586
        0x00017178:    bf187fc0    ....    DCD    3206053824
        0x0001717c:    3f4ddad5    ..M?    DCD    1062066901
        0x00017180:    bf182ef5    ....    DCD    3206033141
        0x00017184:    3f4e1689    ..N?    DCD    1062082185
        0x00017188:    bf17de12    ....    DCD    3206012434
        0x0001718c:    3f4e521c    .RN?    DCD    1062097436
        0x00017190:    bf178d18    ....    DCD    3205991704
        0x00017194:    3f4e8d90    ..N?    DCD    1062112656
        0x00017198:    bf173c07    .<..    DCD    3205970951
        0x0001719c:    3f4ec8e4    ..N?    DCD    1062127844
        0x000171a0:    bf16eadf    ....    DCD    3205950175
        0x000171a4:    3f4f0417    ..O?    DCD    1062142999
        0x000171a8:    bf16999f    ....    DCD    3205929375
        0x000171ac:    3f4f3f2b    +?O?    DCD    1062158123
        0x000171b0:    bf164847    GH..    DCD    3205908551
        0x000171b4:    3f4f7a1f    .zO?    DCD    1062173215
        0x000171b8:    bf15f6d9    ....    DCD    3205887705
        0x000171bc:    3f4fb4f4    ..O?    DCD    1062188276
        0x000171c0:    bf15a554    T...    DCD    3205866836
        0x000171c4:    3f4fefa8    ..O?    DCD    1062203304
        0x000171c8:    bf1553b7    .S..    DCD    3205845943
        0x000171cc:    3f502a3b    ;*P?    DCD    1062218299
        0x000171d0:    bf150204    ....    DCD    3205825028
        0x000171d4:    3f5064af    .dP?    DCD    1062233263
        0x000171d8:    bf14b039    9...    DCD    3205804089
        0x000171dc:    3f509f03    ..P?    DCD    1062248195
        0x000171e0:    bf145e58    X^..    DCD    3205783128
        0x000171e4:    3f50d937    7.P?    DCD    1062263095
        0x000171e8:    bf140c5f    _...    DCD    3205762143
        0x000171ec:    3f51134a    J.Q?    DCD    1062277962
        0x000171f0:    bf13ba50    P...    DCD    3205741136
        0x000171f4:    3f514d3d    =MQ?    DCD    1062292797
        0x000171f8:    bf13682a    *h..    DCD    3205720106
        0x000171fc:    3f518710    ..Q?    DCD    1062307600
        0x00017200:    bf1315ee    ....    DCD    3205699054
        0x00017204:    3f51c0c2    ..Q?    DCD    1062322370
        0x00017208:    bf12c39a    ....    DCD    3205677978
        0x0001720c:    3f51fa54    T.Q?    DCD    1062337108
        0x00017210:    bf127130    0q..    DCD    3205656880
        0x00017214:    3f5233c6    .3R?    DCD    1062351814
        0x00017218:    bf121eb0    ....    DCD    3205635760
        0x0001721c:    3f526d18    .mR?    DCD    1062366488
        0x00017220:    bf11cc19    ....    DCD    3205614617
        0x00017224:    3f52a649    I.R?    DCD    1062381129
        0x00017228:    bf11796b    ky..    DCD    3205593451
        0x0001722c:    3f52df59    Y.R?    DCD    1062395737
        0x00017230:    bf1126a7    .&..    DCD    3205572263
        0x00017234:    3f531849    I.S?    DCD    1062410313
        0x00017238:    bf10d3cd    ....    DCD    3205551053
        0x0001723c:    3f535118    .QS?    DCD    1062424856
        0x00017240:    bf1080dc    ....    DCD    3205529820
        0x00017244:    3f5389c7    ..S?    DCD    1062439367
        0x00017248:    bf102dd5    .-..    DCD    3205508565
        0x0001724c:    3f53c255    U.S?    DCD    1062453845
        0x00017250:    bf0fdab8    ....    DCD    3205487288
        0x00017254:    3f53fac3    ..S?    DCD    1062468291
        0x00017258:    bf0f8784    ....    DCD    3205465988
        0x0001725c:    3f54330f    .3T?    DCD    1062482703
        0x00017260:    bf0f343b    ;4..    DCD    3205444667
        0x00017264:    3f546b3b    ;kT?    DCD    1062497083
        0x00017268:    bf0ee0db    ....    DCD    3205423323
        0x0001726c:    3f54a347    G.T?    DCD    1062511431
        0x00017270:    bf0e8d65    e...    DCD    3205401957
        0x00017274:    3f54db31    1.T?    DCD    1062525745
        0x00017278:    bf0e39da    .9..    DCD    3205380570
        0x0001727c:    3f5512fb    ..U?    DCD    1062540027
        0x00017280:    bf0de638    8...    DCD    3205359160
        0x00017284:    3f554aa4    .JU?    DCD    1062554276
        0x00017288:    bf0d9281    ....    DCD    3205337729
        0x0001728c:    3f55822c    ,.U?    DCD    1062568492
        0x00017290:    bf0d3eb3    .>..    DCD    3205316275
        0x00017294:    3f55b993    ..U?    DCD    1062582675
        0x00017298:    bf0cead0    ....    DCD    3205294800
        0x0001729c:    3f55f0d9    ..U?    DCD    1062596825
        0x000172a0:    bf0c96d7    ....    DCD    3205273303
        0x000172a4:    3f5627fe    .'V?    DCD    1062610942
        0x000172a8:    bf0c42c9    .B..    DCD    3205251785
        0x000172ac:    3f565f02    ._V?    DCD    1062625026
        0x000172b0:    bf0beea5    ....    DCD    3205230245
        0x000172b4:    3f5695e5    ..V?    DCD    1062639077
        0x000172b8:    bf0b9a6b    k...    DCD    3205208683
        0x000172bc:    3f56cca7    ..V?    DCD    1062653095
        0x000172c0:    bf0b461c    .F..    DCD    3205187100
        0x000172c4:    3f570348    H.W?    DCD    1062667080
        0x000172c8:    bf0af1b7    ....    DCD    3205165495
        0x000172cc:    3f5739c7    .9W?    DCD    1062681031
        0x000172d0:    bf0a9d3d    =...    DCD    3205143869
        0x000172d4:    3f577026    &pW?    DCD    1062694950
        0x000172d8:    bf0a48ad    .H..    DCD    3205122221
        0x000172dc:    3f57a663    c.W?    DCD    1062708835
        0x000172e0:    bf09f409    ....    DCD    3205100553
        0x000172e4:    3f57dc7f    ..W?    DCD    1062722687
        0x000172e8:    bf099f4e    N...    DCD    3205078862
        0x000172ec:    3f581279    y.X?    DCD    1062736505
        0x000172f0:    bf094a7f    .J..    DCD    3205057151
        0x000172f4:    3f584853    SHX?    DCD    1062750291
        0x000172f8:    bf08f59b    ....    DCD    3205035419
        0x000172fc:    3f587e0b    .~X?    DCD    1062764043
        0x00017300:    bf08a0a1    ....    DCD    3205013665
        0x00017304:    3f58b3a1    ..X?    DCD    1062777761
        0x00017308:    bf084b92    .K..    DCD    3204991890
        0x0001730c:    3f58e917    ..X?    DCD    1062791447
        0x00017310:    bf07f66f    o...    DCD    3204970095
        0x00017314:    3f591e6a    j.Y?    DCD    1062805098
        0x00017318:    bf07a136    6...    DCD    3204948278
        0x0001731c:    3f59539c    .SY?    DCD    1062818716
        0x00017320:    bf074be8    .K..    DCD    3204926440
        0x00017324:    3f5988ad    ..Y?    DCD    1062832301
        0x00017328:    bf06f686    ....    DCD    3204904582
        0x0001732c:    3f59bd9c    ..Y?    DCD    1062845852
        0x00017330:    bf06a10e    ....    DCD    3204882702
        0x00017334:    3f59f26a    j.Y?    DCD    1062859370
        0x00017338:    bf064b82    .K..    DCD    3204860802
        0x0001733c:    3f5a2716    .'Z?    DCD    1062872854
        0x00017340:    bf05f5e2    ....    DCD    3204838882
        0x00017344:    3f5a5ba0    .[Z?    DCD    1062886304
        0x00017348:    bf05a02c    ,...    DCD    3204816940
        0x0001734c:    3f5a9009    ..Z?    DCD    1062899721
        0x00017350:    bf054a62    bJ..    DCD    3204794978
        0x00017354:    3f5ac450    P.Z?    DCD    1062913104
        0x00017358:    bf04f484    ....    DCD    3204772996
        0x0001735c:    3f5af875    u.Z?    DCD    1062926453
        0x00017360:    bf049e91    ....    DCD    3204750993
        0x00017364:    3f5b2c79    y,[?    DCD    1062939769
        0x00017368:    bf044889    .H..    DCD    3204728969
        0x0001736c:    3f5b605a    Z`[?    DCD    1062953050
        0x00017370:    bf03f26d    m...    DCD    3204706925
        0x00017374:    3f5b941a    ..[?    DCD    1062966298
        0x00017378:    bf039c3d    =...    DCD    3204684861
        0x0001737c:    3f5bc7b8    ..[?    DCD    1062979512
        0x00017380:    bf0345f8    .E..    DCD    3204662776
        0x00017384:    3f5bfb34    4.[?    DCD    1062992692
        0x00017388:    bf02ef9f    ....    DCD    3204640671
        0x0001738c:    3f5c2e8e    ..\?    DCD    1063005838
        0x00017390:    bf029932    2...    DCD    3204618546
        0x00017394:    3f5c61c7    .a\?    DCD    1063018951
        0x00017398:    bf0242b1    .B..    DCD    3204596401
        0x0001739c:    3f5c94dd    ..\?    DCD    1063032029
        0x000173a0:    bf01ec1c    ....    DCD    3204574236
        0x000173a4:    3f5cc7d1    ..\?    DCD    1063045073
        0x000173a8:    bf019573    s...    DCD    3204552051
        0x000173ac:    3f5cfaa3    ..\?    DCD    1063058083
        0x000173b0:    bf013eb5    .>..    DCD    3204529845
        0x000173b4:    3f5d2d53    S-]?    DCD    1063071059
        0x000173b8:    bf00e7e4    ....    DCD    3204507620
        0x000173bc:    3f5d5fe1    ._]?    DCD    1063084001
        0x000173c0:    bf0090ff    ....    DCD    3204485375
        0x000173c4:    3f5d924d    M.]?    DCD    1063096909
        0x000173c8:    bf003a06    .:..    DCD    3204463110
        0x000173cc:    3f5dc497    ..]?    DCD    1063109783
        0x000173d0:    beffc5f3    ....    DCD    3204433395
        0x000173d4:    3f5df6be    ..]?    DCD    1063122622
        0x000173d8:    beff17b2    ....    DCD    3204388786
        0x000173dc:    3f5e28c3    .(^?    DCD    1063135427
        0x000173e0:    befe694a    Ji..    DCD    3204344138
        0x000173e4:    3f5e5aa6    .Z^?    DCD    1063148198
        0x000173e8:    befdbabb    ....    DCD    3204299451
        0x000173ec:    3f5e8c67    g.^?    DCD    1063160935
        0x000173f0:    befd0c04    ....    DCD    3204254724
        0x000173f4:    3f5ebe05    ..^?    DCD    1063173637
        0x000173f8:    befc5d27    ']..    DCD    3204209959
        0x000173fc:    3f5eef81    ..^?    DCD    1063186305
        0x00017400:    befbae22    "...    DCD    3204165154
        0x00017404:    3f5f20db    . _?    DCD    1063198939
        0x00017408:    befafef7    ....    DCD    3204120311
        0x0001740c:    3f5f5212    .R_?    DCD    1063211538
        0x00017410:    befa4fa5    .O..    DCD    3204075429
        0x00017414:    3f5f8327    '._?    DCD    1063224103
        0x00017418:    bef9a02d    -...    DCD    3204030509
        0x0001741c:    3f5fb419    .._?    DCD    1063236633
        0x00017420:    bef8f08e    ....    DCD    3203985550
        0x00017424:    3f5fe4e9    .._?    DCD    1063249129
        0x00017428:    bef840c8    .@..    DCD    3203940552
        0x0001742c:    3f601596    ..`?    DCD    1063261590
        0x00017430:    bef790dc    ....    DCD    3203895516
        0x00017434:    3f604621    !F`?    DCD    1063274017
        0x00017438:    bef6e0cb    ....    DCD    3203850443
        0x0001743c:    3f607689    .v`?    DCD    1063286409
        0x00017440:    bef63093    .0..    DCD    3203805331
        0x00017444:    3f60a6cf    ..`?    DCD    1063298767
        0x00017448:    bef58035    5...    DCD    3203760181
        0x0001744c:    3f60d6f2    ..`?    DCD    1063311090
        0x00017450:    bef4cfb1    ....    DCD    3203714993
        0x00017454:    3f6106f2    ..a?    DCD    1063323378
        0x00017458:    bef41f07    ....    DCD    3203669767
        0x0001745c:    3f6136d0    .6a?    DCD    1063335632
        0x00017460:    bef36e38    8n..    DCD    3203624504
        0x00017464:    3f61668a    .fa?    DCD    1063347850
        0x00017468:    bef2bd43    C...    DCD    3203579203
        0x0001746c:    3f619622    ".a?    DCD    1063360034
        0x00017470:    bef20c29    )...    DCD    3203533865
        0x00017474:    3f61c598    ..a?    DCD    1063372184
        0x00017478:    bef15aea    .Z..    DCD    3203488490
        0x0001747c:    3f61f4ea    ..a?    DCD    1063384298
        0x00017480:    bef0a985    ....    DCD    3203443077
        0x00017484:    3f62241a    .$b?    DCD    1063396378
        0x00017488:    beeff7fb    ....    DCD    3203397627
        0x0001748c:    3f625326    &Sb?    DCD    1063408422
        0x00017490:    beef464c    LF..    DCD    3203352140
        0x00017494:    3f628210    ..b?    DCD    1063420432
        0x00017498:    beee9479    y...    DCD    3203306617
        0x0001749c:    3f62b0d7    ..b?    DCD    1063432407
        0x000174a0:    beede280    ....    DCD    3203261056
        0x000174a4:    3f62df7b    {.b?    DCD    1063444347
        0x000174a8:    beed3063    c0..    DCD    3203215459
        0x000174ac:    3f630dfc    ..c?    DCD    1063456252
        0x000174b0:    beec7e21    !~..    DCD    3203169825
        0x000174b4:    3f633c5a    Z<c?    DCD    1063468122
        0x000174b8:    beebcbbb    ....    DCD    3203124155
        0x000174bc:    3f636a95    .jc?    DCD    1063479957
        0x000174c0:    beeb1930    0...    DCD    3203078448
        0x000174c4:    3f6398ac    ..c?    DCD    1063491756
        0x000174c8:    beea6681    .f..    DCD    3203032705
        0x000174cc:    3f63c6a1    ..c?    DCD    1063503521
        0x000174d0:    bee9b3ae    ....    DCD    3202986926
        0x000174d4:    3f63f473    s.c?    DCD    1063515251
        0x000174d8:    bee900b7    ....    DCD    3202941111
        0x000174dc:    3f642221    !"d?    DCD    1063526945
        0x000174e0:    bee84d9c    .M..    DCD    3202895260
        0x000174e4:    3f644fac    .Od?    DCD    1063538604
        0x000174e8:    bee79a5d    ]...    DCD    3202849373
        0x000174ec:    3f647d14    .}d?    DCD    1063550228
        0x000174f0:    bee6e6fb    ....    DCD    3202803451
        0x000174f4:    3f64aa59    Y.d?    DCD    1063561817
        0x000174f8:    bee63375    u3..    DCD    3202757493
        0x000174fc:    3f64d77b    {.d?    DCD    1063573371
        0x00017500:    bee57fcb    ....    DCD    3202711499
        0x00017504:    3f650479    y.e?    DCD    1063584889
        0x00017508:    bee4cbfe    ....    DCD    3202665470
        0x0001750c:    3f653154    T1e?    DCD    1063596372
        0x00017510:    bee4180e    ....    DCD    3202619406
        0x00017514:    3f655e0b    .^e?    DCD    1063607819
        0x00017518:    bee363fa    .c..    DCD    3202573306
        0x0001751c:    3f658aa0    ..e?    DCD    1063619232
        0x00017520:    bee2afc4    ....    DCD    3202527172
        0x00017524:    3f65b710    ..e?    DCD    1063630608
        0x00017528:    bee1fb6a    j...    DCD    3202481002
        0x0001752c:    3f65e35e    ^.e?    DCD    1063641950
        0x00017530:    bee146ee    .F..    DCD    3202434798
        0x00017534:    3f660f88    ..f?    DCD    1063653256
        0x00017538:    bee0924f    O...    DCD    3202388559
        0x0001753c:    3f663b8e    .;f?    DCD    1063664526
        0x00017540:    bedfdd8d    ....    DCD    3202342285
        0x00017544:    3f666771    qgf?    DCD    1063675761
        0x00017548:    bedf28a9    .(..    DCD    3202295977
        0x0001754c:    3f669330    0.f?    DCD    1063686960
        0x00017550:    bede73a2    .s..    DCD    3202249634
        0x00017554:    3f66becc    ..f?    DCD    1063698124
        0x00017558:    beddbe79    y...    DCD    3202203257
        0x0001755c:    3f66ea45    E.f?    DCD    1063709253
        0x00017560:    bedd092e    ....    DCD    3202156846
        0x00017564:    3f671599    ..g?    DCD    1063720345
        0x00017568:    bedc53c1    .S..    DCD    3202110401
        0x0001756c:    3f6740ca    .@g?    DCD    1063731402
        0x00017570:    bedb9e31    1...    DCD    3202063921
        0x00017574:    3f676bd8    .kg?    DCD    1063742424
        0x00017578:    bedae880    ....    DCD    3202017408
        0x0001757c:    3f6796c1    ..g?    DCD    1063753409
        0x00017580:    beda32ad    .2..    DCD    3201970861
        0x00017584:    3f67c187    ..g?    DCD    1063764359
        0x00017588:    bed97cb9    .|..    DCD    3201924281
        0x0001758c:    3f67ec2a    *.g?    DCD    1063775274
        0x00017590:    bed8c6a3    ....    DCD    3201877667
        0x00017594:    3f6816a8    ..h?    DCD    1063786152
        0x00017598:    bed8106b    k...    DCD    3201831019
        0x0001759c:    3f684103    .Ah?    DCD    1063796995
        0x000175a0:    bed75a13    .Z..    DCD    3201784339
        0x000175a4:    3f686b39    9kh?    DCD    1063807801
        0x000175a8:    bed6a399    ....    DCD    3201737625
        0x000175ac:    3f68954c    L.h?    DCD    1063818572
        0x000175b0:    bed5ecfd    ....    DCD    3201690877
        0x000175b4:    3f68bf3c    <.h?    DCD    1063829308
        0x000175b8:    bed53641    A6..    DCD    3201644097
        0x000175bc:    3f68e907    ..h?    DCD    1063840007
        0x000175c0:    bed47f64    d...    DCD    3201597284
        0x000175c4:    3f6912ae    ..i?    DCD    1063850670
        0x000175c8:    bed3c867    g...    DCD    3201550439
        0x000175cc:    3f693c32    2<i?    DCD    1063861298
        0x000175d0:    bed31148    H...    DCD    3201503560
        0x000175d4:    3f696591    .ei?    DCD    1063871889
        0x000175d8:    bed25a09    .Z..    DCD    3201456649
        0x000175dc:    3f698ecc    ..i?    DCD    1063882444
        0x000175e0:    bed1a2aa    ....    DCD    3201409706
        0x000175e4:    3f69b7e4    ..i?    DCD    1063892964
        0x000175e8:    bed0eb2a    *...    DCD    3201362730
        0x000175ec:    3f69e0d7    ..i?    DCD    1063903447
        0x000175f0:    bed0338a    .3..    DCD    3201315722
        0x000175f4:    3f6a09a7    ..j?    DCD    1063913895
        0x000175f8:    becf7bca    .{..    DCD    3201268682
        0x000175fc:    3f6a3252    R2j?    DCD    1063924306
        0x00017600:    becec3ea    ....    DCD    3201221610
        0x00017604:    3f6a5ad9    .Zj?    DCD    1063934681
        0x00017608:    bece0bea    ....    DCD    3201174506
        0x0001760c:    3f6a833c    <.j?    DCD    1063945020
        0x00017610:    becd53ca    .S..    DCD    3201127370
        0x00017614:    3f6aab7b    {.j?    DCD    1063955323
        0x00017618:    becc9b8b    ....    DCD    3201080203
        0x0001761c:    3f6ad395    ..j?    DCD    1063965589
        0x00017620:    becbe32c    ,...    DCD    3201033004
        0x00017624:    3f6afb8c    ..j?    DCD    1063975820
        0x00017628:    becb2aae    .*..    DCD    3200985774
        0x0001762c:    3f6b235e    ^#k?    DCD    1063986014
        0x00017630:    beca7210    .r..    DCD    3200938512
        0x00017634:    3f6b4b0c    .Kk?    DCD    1063996172
        0x00017638:    bec9b953    S...    DCD    3200891219
        0x0001763c:    3f6b7295    .rk?    DCD    1064006293
        0x00017640:    bec90077    w...    DCD    3200843895
        0x00017644:    3f6b99fb    ..k?    DCD    1064016379
        0x00017648:    bec8477c    |G..    DCD    3200796540
        0x0001764c:    3f6bc13b    ;.k?    DCD    1064026427
        0x00017650:    bec78e62    b...    DCD    3200749154
        0x00017654:    3f6be858    X.k?    DCD    1064036440
        0x00017658:    bec6d529    )...    DCD    3200701737
        0x0001765c:    3f6c0f50    P.l?    DCD    1064046416
        0x00017660:    bec61bd2    ....    DCD    3200654290
        0x00017664:    3f6c3624    $6l?    DCD    1064056356
        0x00017668:    bec5625c    \b..    DCD    3200606812
        0x0001766c:    3f6c5cd4    .\l?    DCD    1064066260
        0x00017670:    bec4a8c8    ....    DCD    3200559304
        0x00017674:    3f6c835e    ^.l?    DCD    1064076126
        0x00017678:    bec3ef15    ....    DCD    3200511765
        0x0001767c:    3f6ca9c5    ..l?    DCD    1064085957
        0x00017680:    bec33544    D5..    DCD    3200464196
        0x00017684:    3f6cd007    ..l?    DCD    1064095751
        0x00017688:    bec27b55    U{..    DCD    3200416597
        0x0001768c:    3f6cf624    $.l?    DCD    1064105508
        0x00017690:    bec1c148    H...    DCD    3200368968
        0x00017694:    3f6d1c1d    ..m?    DCD    1064115229
        0x00017698:    bec1071e    ....    DCD    3200321310
        0x0001769c:    3f6d41f2    .Am?    DCD    1064124914
        0x000176a0:    bec04cd5    .L..    DCD    3200273621
        0x000176a4:    3f6d67a1    .gm?    DCD    1064134561
        0x000176a8:    bebf926f    o...    DCD    3200225903
        0x000176ac:    3f6d8d2d    -.m?    DCD    1064144173
        0x000176b0:    bebed7eb    ....    DCD    3200178155
        0x000176b4:    3f6db293    ..m?    DCD    1064153747
        0x000176b8:    bebe1d4a    J...    DCD    3200130378
        0x000176bc:    3f6dd7d5    ..m?    DCD    1064163285
        0x000176c0:    bebd628b    .b..    DCD    3200082571
        0x000176c4:    3f6dfcf2    ..m?    DCD    1064172786
        0x000176c8:    bebca7af    ....    DCD    3200034735
        0x000176cc:    3f6e21eb    .!n?    DCD    1064182251
        0x000176d0:    bebbecb6    ....    DCD    3199986870
        0x000176d4:    3f6e46be    .Fn?    DCD    1064191678
        0x000176d8:    bebb31a0    .1..    DCD    3199938976
        0x000176dc:    3f6e6b6d    mkn?    DCD    1064201069
        0x000176e0:    beba766e    nv..    DCD    3199891054
        0x000176e4:    3f6e8ff8    ..n?    DCD    1064210424
        0x000176e8:    beb9bb1e    ....    DCD    3199843102
        0x000176ec:    3f6eb45d    ].n?    DCD    1064219741
        0x000176f0:    beb8ffb2    ....    DCD    3199795122
        0x000176f4:    3f6ed89e    ..n?    DCD    1064229022
        0x000176f8:    beb8442a    *D..    DCD    3199747114
        0x000176fc:    3f6efcba    ..n?    DCD    1064238266
        0x00017700:    beb78884    ....    DCD    3199699076
        0x00017704:    3f6f20b0    . o?    DCD    1064247472
        0x00017708:    beb6ccc3    ....    DCD    3199651011
        0x0001770c:    3f6f4483    .Do?    DCD    1064256643
        0x00017710:    beb610e6    ....    DCD    3199602918
        0x00017714:    3f6f6830    0ho?    DCD    1064265776
        0x00017718:    beb554ec    .T..    DCD    3199554796
        0x0001771c:    3f6f8bb8    ..o?    DCD    1064274872
        0x00017720:    beb498d6    ....    DCD    3199506646
        0x00017724:    3f6faf1b    ..o?    DCD    1064283931
        0x00017728:    beb3dca5    ....    DCD    3199458469
        0x0001772c:    3f6fd25a    Z.o?    DCD    1064292954
        0x00017730:    beb32058    X ..    DCD    3199410264
        0x00017734:    3f6ff573    s.o?    DCD    1064301939
        0x00017738:    beb263ef    .c..    DCD    3199362031
        0x0001773c:    3f701867    g.p?    DCD    1064310887
        0x00017740:    beb1a76b    k...    DCD    3199313771
        0x00017744:    3f703b37    7;p?    DCD    1064319799
        0x00017748:    beb0eacb    ....    DCD    3199265483
        0x0001774c:    3f705de1    .]p?    DCD    1064328673
        0x00017750:    beb02e10    ....    DCD    3199217168
        0x00017754:    3f708066    f.p?    DCD    1064337510
        0x00017758:    beaf713a    :q..    DCD    3199168826
        0x0001775c:    3f70a2c6    ..p?    DCD    1064346310
        0x00017760:    beaeb449    I...    DCD    3199120457
        0x00017764:    3f70c502    ..p?    DCD    1064355074
        0x00017768:    beadf73c    <...    DCD    3199072060
        0x0001776c:    3f70e717    ..p?    DCD    1064363799
        0x00017770:    bead3a15    .:..    DCD    3199023637
        0x00017774:    3f710908    ..q?    DCD    1064372488
        0x00017778:    beac7cd4    .|..    DCD    3198975188
        0x0001777c:    3f712ad4    .*q?    DCD    1064381140
        0x00017780:    beabbf77    w...    DCD    3198926711
        0x00017784:    3f714c7a    zLq?    DCD    1064389754
        0x00017788:    beab0201    ....    DCD    3198878209
        0x0001778c:    3f716dfb    .mq?    DCD    1064398331
        0x00017790:    beaa446f    oD..    DCD    3198829679
        0x00017794:    3f718f57    W.q?    DCD    1064406871
        0x00017798:    bea986c4    ....    DCD    3198781124
        0x0001779c:    3f71b08e    ..q?    DCD    1064415374
        0x000177a0:    bea8c8fe    ....    DCD    3198732542
        0x000177a4:    3f71d19f    ..q?    DCD    1064423839
        0x000177a8:    bea80b1f    ....    DCD    3198683935
        0x000177ac:    3f71f28c    ..q?    DCD    1064432268
        0x000177b0:    bea74d25    %M..    DCD    3198635301
        0x000177b4:    3f721352    R.r?    DCD    1064440658
        0x000177b8:    bea68f12    ....    DCD    3198586642
        0x000177bc:    3f7233f4    .3r?    DCD    1064449012
        0x000177c0:    bea5d0e5    ....    DCD    3198537957
        0x000177c4:    3f725470    pTr?    DCD    1064457328
        0x000177c8:    bea5129f    ....    DCD    3198489247
        0x000177cc:    3f7274c7    .tr?    DCD    1064465607
        0x000177d0:    bea4543f    ?T..    DCD    3198440511
        0x000177d4:    3f7294f8    ..r?    DCD    1064473848
        0x000177d8:    bea395c5    ....    DCD    3198391749
        0x000177dc:    3f72b504    ..r?    DCD    1064482052
        0x000177e0:    bea2d733    3...    DCD    3198342963
        0x000177e4:    3f72d4eb    ..r?    DCD    1064490219
        0x000177e8:    bea21887    ....    DCD    3198294151
        0x000177ec:    3f72f4ac    ..r?    DCD    1064498348
        0x000177f0:    bea159c2    .Y..    DCD    3198245314
        0x000177f4:    3f731447    G.s?    DCD    1064506439
        0x000177f8:    bea09ae5    ....    DCD    3198196453
        0x000177fc:    3f7333be    .3s?    DCD    1064514494
        0x00017800:    be9fdbee    ....    DCD    3198147566
        0x00017804:    3f73530e    .Ss?    DCD    1064522510
        0x00017808:    be9f1cdf    ....    DCD    3198098655
        0x0001780c:    3f737239    9rs?    DCD    1064530489
        0x00017810:    be9e5db8    .]..    DCD    3198049720
        0x00017814:    3f73913f    ?.s?    DCD    1064538431
        0x00017818:    be9d9e78    x...    DCD    3198000760
        0x0001781c:    3f73b01f    ..s?    DCD    1064546335
        0x00017820:    be9cdf20     ...    DCD    3197951776
        0x00017824:    3f73ced9    ..s?    DCD    1064554201
        0x00017828:    be9c1faf    ....    DCD    3197902767
        0x0001782c:    3f73ed6e    n.s?    DCD    1064562030
        0x00017830:    be9b6027    '`..    DCD    3197853735
        0x00017834:    3f740bdd    ..t?    DCD    1064569821
        0x00017838:    be9aa086    ....    DCD    3197804678
        0x0001783c:    3f742a27    '*t?    DCD    1064577575
        0x00017840:    be99e0ce    ....    DCD    3197755598
        0x00017844:    3f74484b    KHt?    DCD    1064585291
        0x00017848:    be9920fe    . ..    DCD    3197706494
        0x0001784c:    3f746649    Ift?    DCD    1064592969
        0x00017850:    be986116    .a..    DCD    3197657366
        0x00017854:    3f748422    ".t?    DCD    1064600610
        0x00017858:    be97a117    ....    DCD    3197608215
        0x0001785c:    3f74a1d5    ..t?    DCD    1064608213
        0x00017860:    be96e100    ....    DCD    3197559040
        0x00017864:    3f74bf62    b.t?    DCD    1064615778
        0x00017868:    be9620d2    . ..    DCD    3197509842
        0x0001786c:    3f74dcc9    ..t?    DCD    1064623305
        0x00017870:    be95608d    .`..    DCD    3197460621
        0x00017874:    3f74fa0b    ..t?    DCD    1064630795
        0x00017878:    be94a031    1...    DCD    3197411377
        0x0001787c:    3f751727    '.u?    DCD    1064638247
        0x00017880:    be93dfbf    ....    DCD    3197362111
        0x00017884:    3f75341d    .4u?    DCD    1064645661
        0x00017888:    be931f35    5...    DCD    3197312821
        0x0001788c:    3f7550ed    .Pu?    DCD    1064653037
        0x00017890:    be925e94    .^..    DCD    3197263508
        0x00017894:    3f756d97    .mu?    DCD    1064660375
        0x00017898:    be919ddd    ....    DCD    3197214173
        0x0001789c:    3f758a1c    ..u?    DCD    1064667676
        0x000178a0:    be90dd10    ....    DCD    3197164816
        0x000178a4:    3f75a67b    {.u?    DCD    1064674939
        0x000178a8:    be901c2c    ,...    DCD    3197115436
        0x000178ac:    3f75c2b3    ..u?    DCD    1064682163
        0x000178b0:    be8f5b32    2[..    DCD    3197066034
        0x000178b4:    3f75dec6    ..u?    DCD    1064689350
        0x000178b8:    be8e9a22    "...    DCD    3197016610
        0x000178bc:    3f75fab3    ..u?    DCD    1064696499
        0x000178c0:    be8dd8fc    ....    DCD    3196967164
        0x000178c4:    3f76167a    z.v?    DCD    1064703610
        0x000178c8:    be8d17c0    ....    DCD    3196917696
        0x000178cc:    3f76321b    .2v?    DCD    1064710683
        0x000178d0:    be8c566e    nV..    DCD    3196868206
        0x000178d4:    3f764d97    .Mv?    DCD    1064717719
        0x000178d8:    be8b9507    ....    DCD    3196818695
        0x000178dc:    3f7668ec    .hv?    DCD    1064724716
        0x000178e0:    be8ad38a    ....    DCD    3196769162
        0x000178e4:    3f76841b    ..v?    DCD    1064731675
        0x000178e8:    be8a11f8    ....    DCD    3196719608
        0x000178ec:    3f769f24    $.v?    DCD    1064738596
        0x000178f0:    be895050    PP..    DCD    3196670032
        0x000178f4:    3f76ba07    ..v?    DCD    1064745479
        0x000178f8:    be888e93    ....    DCD    3196620435
        0x000178fc:    3f76d4c4    ..v?    DCD    1064752324
        0x00017900:    be87ccc1    ....    DCD    3196570817
        0x00017904:    3f76ef5b    [.v?    DCD    1064759131
        0x00017908:    be870ada    ....    DCD    3196521178
        0x0001790c:    3f7709cc    ..w?    DCD    1064765900
        0x00017910:    be8648df    .H..    DCD    3196471519
        0x00017914:    3f772417    .$w?    DCD    1064772631
        0x00017918:    be8586ce    ....    DCD    3196421838
        0x0001791c:    3f773e3c    <>w?    DCD    1064779324
        0x00017920:    be84c4aa    ....    DCD    3196372138
        0x00017924:    3f77583a    :Xw?    DCD    1064785978
        0x00017928:    be840270    p...    DCD    3196322416
        0x0001792c:    3f777213    .rw?    DCD    1064792595
        0x00017930:    be834022    "@..    DCD    3196272674
        0x00017934:    3f778bc5    ..w?    DCD    1064799173
        0x00017938:    be827dc0    .}..    DCD    3196222912
        0x0001793c:    3f77a551    Q.w?    DCD    1064805713
        0x00017940:    be81bb4a    J...    DCD    3196173130
        0x00017944:    3f77beb7    ..w?    DCD    1064812215
        0x00017948:    be80f8c0    ....    DCD    3196123328
        0x0001794c:    3f77d7f7    ..w?    DCD    1064818679
        0x00017950:    be803622    "6..    DCD    3196073506
        0x00017954:    3f77f110    ..w?    DCD    1064825104
        0x00017958:    be7ee6e1    ..~.    DCD    3195987681
        0x0001795c:    3f780a04    ..x?    DCD    1064831492
        0x00017960:    be7d6156    Va}.    DCD    3195887958
        0x00017964:    3f7822d1    ."x?    DCD    1064837841
        0x00017968:    be7bdba4    ..{.    DCD    3195788196
        0x0001796c:    3f783b77    w;x?    DCD    1064844151
        0x00017970:    be7a55cb    .Uz.    DCD    3195688395
        0x00017974:    3f7853f8    .Sx?    DCD    1064850424
        0x00017978:    be78cfcc    ..x.    DCD    3195588556
        0x0001797c:    3f786c52    Rlx?    DCD    1064856658
        0x00017980:    be7749a6    .Iw.    DCD    3195488678
        0x00017984:    3f788486    ..x?    DCD    1064862854
        0x00017988:    be75c35a    Z.u.    DCD    3195388762
        0x0001798c:    3f789c93    ..x?    DCD    1064869011
        0x00017990:    be743ce8    .<t.    DCD    3195288808
        0x00017994:    3f78b47b    {.x?    DCD    1064875131
        0x00017998:    be72b651    Q.r.    DCD    3195188817
        0x0001799c:    3f78cc3b    ;.x?    DCD    1064881211
        0x000179a0:    be712f94    ./q.    DCD    3195088788
        0x000179a4:    3f78e3d6    ..x?    DCD    1064887254
        0x000179a8:    be6fa8b2    ..o.    DCD    3194988722
        0x000179ac:    3f78fb4a    J.x?    DCD    1064893258
        0x000179b0:    be6e21ab    .!n.    DCD    3194888619
        0x000179b4:    3f791298    ..y?    DCD    1064899224
        0x000179b8:    be6c9a7f    ..l.    DCD    3194788479
        0x000179bc:    3f7929bf    .)y?    DCD    1064905151
        0x000179c0:    be6b132f    /.k.    DCD    3194688303
        0x000179c4:    3f7940c0    .@y?    DCD    1064911040
        0x000179c8:    be698bba    ..i.    DCD    3194588090
        0x000179cc:    3f79579a    .Wy?    DCD    1064916890
        0x000179d0:    be680422    ".h.    DCD    3194487842
        0x000179d4:    3f796e4e    Nny?    DCD    1064922702
        0x000179d8:    be667c66    f|f.    DCD    3194387558
        0x000179dc:    3f7984dc    ..y?    DCD    1064928476
        0x000179e0:    be64f486    ..d.    DCD    3194287238
        0x000179e4:    3f799b43    C.y?    DCD    1064934211
        0x000179e8:    be636c83    .lc.    DCD    3194186883
        0x000179ec:    3f79b183    ..y?    DCD    1064939907
        0x000179f0:    be61e45c    \.a.    DCD    3194086492
        0x000179f4:    3f79c79d    ..y?    DCD    1064945565
        0x000179f8:    be605c13    .\`.    DCD    3193986067
        0x000179fc:    3f79dd91    ..y?    DCD    1064951185
        0x00017a00:    be5ed3a8    ..^.    DCD    3193885608
        0x00017a04:    3f79f35e    ^.y?    DCD    1064956766
        0x00017a08:    be5d4b1a    .K].    DCD    3193785114
        0x00017a0c:    3f7a0904    ..z?    DCD    1064962308
        0x00017a10:    be5bc26a    j.[.    DCD    3193684586
        0x00017a14:    3f7a1e84    ..z?    DCD    1064967812
        0x00017a18:    be5a3997    .9Z.    DCD    3193584023
        0x00017a1c:    3f7a33dd    .3z?    DCD    1064973277
        0x00017a20:    be58b0a4    ..X.    DCD    3193483428
        0x00017a24:    3f7a4910    .Iz?    DCD    1064978704
        0x00017a28:    be57278f    .'W.    DCD    3193382799
        0x00017a2c:    3f7a5e1c    .^z?    DCD    1064984092
        0x00017a30:    be559e58    X.U.    DCD    3193282136
        0x00017a34:    3f7a7302    .sz?    DCD    1064989442
        0x00017a38:    be541501    ..T.    DCD    3193181441
        0x00017a3c:    3f7a87c1    ..z?    DCD    1064994753
        0x00017a40:    be528b89    ..R.    DCD    3193080713
        0x00017a44:    3f7a9c59    Y.z?    DCD    1065000025
        0x00017a48:    be5101f1    ..Q.    DCD    3192979953
        0x00017a4c:    3f7ab0cb    ..z?    DCD    1065005259
        0x00017a50:    be4f7838    8xO.    DCD    3192879160
        0x00017a54:    3f7ac516    ..z?    DCD    1065010454
        0x00017a58:    be4dee60    `.M.    DCD    3192778336
        0x00017a5c:    3f7ad93a    :.z?    DCD    1065015610
        0x00017a60:    be4c6467    gdL.    DCD    3192677479
        0x00017a64:    3f7aed37    7.z?    DCD    1065020727
        0x00017a68:    be4ada4f    O.J.    DCD    3192576591
        0x00017a6c:    3f7b010e    ..{?    DCD    1065025806
        0x00017a70:    be495018    .PI.    DCD    3192475672
        0x00017a74:    3f7b14be    ..{?    DCD    1065030846
        0x00017a78:    be47c5c2    ..G.    DCD    3192374722
        0x00017a7c:    3f7b2848    H({?    DCD    1065035848
        0x00017a80:    be463b4d    M;F.    DCD    3192273741
        0x00017a84:    3f7b3bab    .;{?    DCD    1065040811
        0x00017a88:    be44b0b9    ..D.    DCD    3192172729
        0x00017a8c:    3f7b4ee7    .N{?    DCD    1065045735
        0x00017a90:    be432607    .&C.    DCD    3192071687
        0x00017a94:    3f7b61fc    .a{?    DCD    1065050620
        0x00017a98:    be419b37    7.A.    DCD    3191970615
        0x00017a9c:    3f7b74ea    .t{?    DCD    1065055466
        0x00017aa0:    be401049    I.@.    DCD    3191869513
        0x00017aa4:    3f7b87b2    ..{?    DCD    1065060274
        0x00017aa8:    be3e853e    >.>.    DCD    3191768382
        0x00017aac:    3f7b9a53    S.{?    DCD    1065065043
        0x00017ab0:    be3cfa15    ..<.    DCD    3191667221
        0x00017ab4:    3f7baccd    ..{?    DCD    1065069773
        0x00017ab8:    be3b6ecf    .n;.    DCD    3191566031
        0x00017abc:    3f7bbf20     .{?    DCD    1065074464
        0x00017ac0:    be39e36c    l.9.    DCD    3191464812
        0x00017ac4:    3f7bd14d    M.{?    DCD    1065079117
        0x00017ac8:    be3857ec    .W8.    DCD    3191363564
        0x00017acc:    3f7be353    S.{?    DCD    1065083731
        0x00017ad0:    be36cc50    P.6.    DCD    3191262288
        0x00017ad4:    3f7bf531    1.{?    DCD    1065088305
        0x00017ad8:    be354098    .@5.    DCD    3191160984
        0x00017adc:    3f7c06e9    ..|?    DCD    1065092841
        0x00017ae0:    be33b4c4    ..3.    DCD    3191059652
        0x00017ae4:    3f7c187a    z.|?    DCD    1065097338
        0x00017ae8:    be3228d4    .(2.    DCD    3190958292
        0x00017aec:    3f7c29e5    .)|?    DCD    1065101797
        0x00017af0:    be309cc9    ..0.    DCD    3190856905
        0x00017af4:    3f7c3b28    (;|?    DCD    1065106216
        0x00017af8:    be2f10a2    ../.    DCD    3190755490
        0x00017afc:    3f7c4c44    DL|?    DCD    1065110596
        0x00017b00:    be2d8461    a.-.    DCD    3190654049
        0x00017b04:    3f7c5d3a    :]|?    DCD    1065114938
        0x00017b08:    be2bf804    ..+.    DCD    3190552580
        0x00017b0c:    3f7c6e08    .n|?    DCD    1065119240
        0x00017b10:    be2a6b8d    .k*.    DCD    3190451085
        0x00017b14:    3f7c7eb0    .~|?    DCD    1065123504
        0x00017b18:    be28defc    ..(.    DCD    3190349564
        0x00017b1c:    3f7c8f31    1.|?    DCD    1065127729
        0x00017b20:    be275251    QR'.    DCD    3190248017
        0x00017b24:    3f7c9f8a    ..|?    DCD    1065131914
        0x00017b28:    be25c58c    ..%.    DCD    3190146444
        0x00017b2c:    3f7cafbd    ..|?    DCD    1065136061
        0x00017b30:    be2438ad    .8$.    DCD    3190044845
        0x00017b34:    3f7cbfc9    ..|?    DCD    1065140169
        0x00017b38:    be22abb6    ..".    DCD    3189943222
        0x00017b3c:    3f7ccfae    ..|?    DCD    1065144238
        0x00017b40:    be211ea5    ..!.    DCD    3189841573
        0x00017b44:    3f7cdf6c    l.|?    DCD    1065148268
        0x00017b48:    be1f917b    {...    DCD    3189739899
        0x00017b4c:    3f7cef03    ..|?    DCD    1065152259
        0x00017b50:    be1e0438    8...    DCD    3189638200
        0x00017b54:    3f7cfe73    s.|?    DCD    1065156211
        0x00017b58:    be1c76de    .v..    DCD    3189536478
        0x00017b5c:    3f7d0dbc    ..}?    DCD    1065160124
        0x00017b60:    be1ae96b    k...    DCD    3189434731
        0x00017b64:    3f7d1cdd    ..}?    DCD    1065163997
        0x00017b68:    be195be0    .[..    DCD    3189332960
        0x00017b6c:    3f7d2bd8    .+}?    DCD    1065167832
        0x00017b70:    be17ce3d    =...    DCD    3189231165
        0x00017b74:    3f7d3aac    .:}?    DCD    1065171628
        0x00017b78:    be164083    .@..    DCD    3189129347
        0x00017b7c:    3f7d4959    YI}?    DCD    1065175385
        0x00017b80:    be14b2b2    ....    DCD    3189027506
        0x00017b84:    3f7d57de    .W}?    DCD    1065179102
        0x00017b88:    be1324ca    .$..    DCD    3188925642
        0x00017b8c:    3f7d663d    =f}?    DCD    1065182781
        0x00017b90:    be1196cc    ....    DCD    3188823756
        0x00017b94:    3f7d7474    tt}?    DCD    1065186420
        0x00017b98:    be1008b7    ....    DCD    3188721847
        0x00017b9c:    3f7d8285    ..}?    DCD    1065190021
        0x00017ba0:    be0e7a8b    .z..    DCD    3188619915
        0x00017ba4:    3f7d906e    n.}?    DCD    1065193582
        0x00017ba8:    be0cec4a    J...    DCD    3188517962
        0x00017bac:    3f7d9e30    0.}?    DCD    1065197104
        0x00017bb0:    be0b5df3    .]..    DCD    3188415987
        0x00017bb4:    3f7dabcc    ..}?    DCD    1065200588
        0x00017bb8:    be09cf86    ....    DCD    3188313990
        0x00017bbc:    3f7db940    @.}?    DCD    1065204032
        0x00017bc0:    be084105    .A..    DCD    3188211973
        0x00017bc4:    3f7dc68c    ..}?    DCD    1065207436
        0x00017bc8:    be06b26e    n...    DCD    3188109934
        0x00017bcc:    3f7dd3b2    ..}?    DCD    1065210802
        0x00017bd0:    be0523c2    .#..    DCD    3188007874
        0x00017bd4:    3f7de0b1    ..}?    DCD    1065214129
        0x00017bd8:    be039502    ....    DCD    3187905794
        0x00017bdc:    3f7ded88    ..}?    DCD    1065217416
        0x00017be0:    be02062e    ....    DCD    3187803694
        0x00017be4:    3f7dfa38    8.}?    DCD    1065220664
        0x00017be8:    be007745    Ew..    DCD    3187701573
        0x00017bec:    3f7e06c2    ..~?    DCD    1065223874
        0x00017bf0:    bdfdd092    ....    DCD    3187527826
        0x00017bf4:    3f7e1324    $.~?    DCD    1065227044
        0x00017bf8:    bdfab273    s...    DCD    3187323507
        0x00017bfc:    3f7e1f5e    ^.~?    DCD    1065230174
        0x00017c00:    bdf7942c    ,...    DCD    3187119148
        0x00017c04:    3f7e2b72    r+~?    DCD    1065233266
        0x00017c08:    bdf475c0    .u..    DCD    3186914752
        0x00017c0c:    3f7e375e    ^7~?    DCD    1065236318
        0x00017c10:    bdf1572e    .W..    DCD    3186710318
        0x00017c14:    3f7e4323    #C~?    DCD    1065239331
        0x00017c18:    bdee3876    v8..    DCD    3186505846
        0x00017c1c:    3f7e4ec1    .N~?    DCD    1065242305
        0x00017c20:    bdeb199a    ....    DCD    3186301338
        0x00017c24:    3f7e5a38    8Z~?    DCD    1065245240
        0x00017c28:    bde7fa9a    ....    DCD    3186096794
        0x00017c2c:    3f7e6588    .e~?    DCD    1065248136
        0x00017c30:    bde4db76    v...    DCD    3185892214
        0x00017c34:    3f7e70b0    .p~?    DCD    1065250992
        0x00017c38:    bde1bc2e    ....    DCD    3185687598
        0x00017c3c:    3f7e7bb1    .{~?    DCD    1065253809
        0x00017c40:    bdde9cc4    ....    DCD    3185482948
        0x00017c44:    3f7e868b    ..~?    DCD    1065256587
        0x00017c48:    bddb7d37    7}..    DCD    3185278263
        0x00017c4c:    3f7e913d    =.~?    DCD    1065259325
        0x00017c50:    bdd85d89    .]..    DCD    3185073545
        0x00017c54:    3f7e9bc9    ..~?    DCD    1065262025
        0x00017c58:    bdd53db9    .=..    DCD    3184868793
        0x00017c5c:    3f7ea62d    -.~?    DCD    1065264685
        0x00017c60:    bdd21dc8    ....    DCD    3184664008
        0x00017c64:    3f7eb069    i.~?    DCD    1065267305
        0x00017c68:    bdcefdb7    ....    DCD    3184459191
        0x00017c6c:    3f7eba7f    ..~?    DCD    1065269887
        0x00017c70:    bdcbdd86    ....    DCD    3184254342
        0x00017c74:    3f7ec46d    m.~?    DCD    1065272429
        0x00017c78:    bdc8bd36    6...    DCD    3184049462
        0x00017c7c:    3f7ece34    4.~?    DCD    1065274932
        0x00017c80:    bdc59cc6    ....    DCD    3183844550
        0x00017c84:    3f7ed7d4    ..~?    DCD    1065277396
        0x00017c88:    bdc27c39    9|..    DCD    3183639609
        0x00017c8c:    3f7ee14c    L.~?    DCD    1065279820
        0x00017c90:    bdbf5b8d    .[..    DCD    3183434637
        0x00017c94:    3f7eea9d    ..~?    DCD    1065282205
        0x00017c98:    bdbc3ac3    .:..    DCD    3183229635
        0x00017c9c:    3f7ef3c7    ..~?    DCD    1065284551
        0x00017ca0:    bdb919dd    ....    DCD    3183024605
        0x00017ca4:    3f7efcc9    ..~?    DCD    1065286857
        0x00017ca8:    bdb5f8da    ....    DCD    3182819546
        0x00017cac:    3f7f05a4    ...?    DCD    1065289124
        0x00017cb0:    bdb2d7bb    ....    DCD    3182614459
        0x00017cb4:    3f7f0e58    X..?    DCD    1065291352
        0x00017cb8:    bdafb680    ....    DCD    3182409344
        0x00017cbc:    3f7f16e4    ...?    DCD    1065293540
        0x00017cc0:    bdac952b    +...    DCD    3182204203
        0x00017cc4:    3f7f1f49    I..?    DCD    1065295689
        0x00017cc8:    bda973ba    .s..    DCD    3181999034
        0x00017ccc:    3f7f2787    .'.?    DCD    1065297799
        0x00017cd0:    bda65230    0R..    DCD    3181793840
        0x00017cd4:    3f7f2f9d    ./.?    DCD    1065299869
        0x00017cd8:    bda3308c    .0..    DCD    3181588620
        0x00017cdc:    3f7f378d    .7.?    DCD    1065301901
        0x00017ce0:    bda00ecf    ....    DCD    3181383375
        0x00017ce4:    3f7f3f54    T?.?    DCD    1065303892
        0x00017ce8:    bd9cecf9    ....    DCD    3181178105
        0x00017cec:    3f7f46f4    .F.?    DCD    1065305844
        0x00017cf0:    bd99cb0a    ....    DCD    3180972810
        0x00017cf4:    3f7f4e6d    mN.?    DCD    1065307757
        0x00017cf8:    bd96a905    ....    DCD    3180767493
        0x00017cfc:    3f7f55bf    .U.?    DCD    1065309631
        0x00017d00:    bd9386e7    ....    DCD    3180562151
        0x00017d04:    3f7f5ce9    .\.?    DCD    1065311465
        0x00017d08:    bd9064b4    .d..    DCD    3180356788
        0x00017d0c:    3f7f63ec    .c.?    DCD    1065313260
        0x00017d10:    bd8d426a    jB..    DCD    3180151402
        0x00017d14:    3f7f6ac7    .j.?    DCD    1065315015
        0x00017d18:    bd8a200a    . ..    DCD    3179945994
        0x00017d1c:    3f7f717b    {q.?    DCD    1065316731
        0x00017d20:    bd86fd94    ....    DCD    3179740564
        0x00017d24:    3f7f7808    .x.?    DCD    1065318408
        0x00017d28:    bd83db0a    ....    DCD    3179535114
        0x00017d2c:    3f7f7e6d    m~.?    DCD    1065320045
        0x00017d30:    bd80b86c    l...    DCD    3179329644
        0x00017d34:    3f7f84ab    ...?    DCD    1065321643
        0x00017d38:    bd7b2b74    t+{.    DCD    3178965876
        0x00017d3c:    3f7f8ac2    ...?    DCD    1065323202
        0x00017d40:    bd74e5e9    ..t.    DCD    3178554857
        0x00017d44:    3f7f90b1    ...?    DCD    1065324721
        0x00017d48:    bd6ea038    8.n.    DCD    3178143800
        0x00017d4c:    3f7f9678    x..?    DCD    1065326200
        0x00017d50:    bd685a62    bZh.    DCD    3177732706
        0x00017d54:    3f7f9c18    ...?    DCD    1065327640
        0x00017d58:    bd621468    h.b.    DCD    3177321576
        0x00017d5c:    3f7fa191    ...?    DCD    1065329041
        0x00017d60:    bd5bce4c    L.[.    DCD    3176910412
        0x00017d64:    3f7fa6e3    ...?    DCD    1065330403
        0x00017d68:    bd55880e    ..U.    DCD    3176499214
        0x00017d6c:    3f7fac0d    ...?    DCD    1065331725
        0x00017d70:    bd4f41af    .AO.    DCD    3176087983
        0x00017d74:    3f7fb10f    ...?    DCD    1065333007
        0x00017d78:    bd48fb2f    /.H.    DCD    3175676719
        0x00017d7c:    3f7fb5ea    ...?    DCD    1065334250
        0x00017d80:    bd42b491    ..B.    DCD    3175265425
        0x00017d84:    3f7fba9e    ...?    DCD    1065335454
        0x00017d88:    bd3c6dd5    .m<.    DCD    3174854101
        0x00017d8c:    3f7fbf2a    *..?    DCD    1065336618
        0x00017d90:    bd3626fc    .&6.    DCD    3174442748
        0x00017d94:    3f7fc38f    ...?    DCD    1065337743
        0x00017d98:    bd2fe007    ../.    DCD    3174031367
        0x00017d9c:    3f7fc7cc    ...?    DCD    1065338828
        0x00017da0:    bd2998f6    ..).    DCD    3173619958
        0x00017da4:    3f7fcbe2    ...?    DCD    1065339874
        0x00017da8:    bd2351cc    .Q#.    DCD    3173208524
        0x00017dac:    3f7fcfd1    ...?    DCD    1065340881
        0x00017db0:    bd1d0a88    ....    DCD    3172797064
        0x00017db4:    3f7fd398    ...?    DCD    1065341848
        0x00017db8:    bd16c32c    ,...    DCD    3172385580
        0x00017dbc:    3f7fd737    7..?    DCD    1065342775
        0x00017dc0:    bd107bb8    .{..    DCD    3171974072
        0x00017dc4:    3f7fdaaf    ...?    DCD    1065343663
        0x00017dc8:    bd0a342f    /4..    DCD    3171562543
        0x00017dcc:    3f7fde00    ...?    DCD    1065344512
        0x00017dd0:    bd03ec90    ....    DCD    3171150992
        0x00017dd4:    3f7fe129    )..?    DCD    1065345321
        0x00017dd8:    bcfb49b9    .I..    DCD    3170585017
        0x00017ddc:    3f7fe42b    +..?    DCD    1065346091
        0x00017de0:    bceeba2d    -...    DCD    3169761837
        0x00017de4:    3f7fe705    ...?    DCD    1065346821
        0x00017de8:    bce22a7b    {*..    DCD    3168938619
        0x00017dec:    3f7fe9b8    ...?    DCD    1065347512
        0x00017df0:    bcd59aa6    ....    DCD    3168115366
        0x00017df4:    3f7fec43    C..?    DCD    1065348163
        0x00017df8:    bcc90ab0    ....    DCD    3167292080
        0x00017dfc:    3f7feea7    ...?    DCD    1065348775
        0x00017e00:    bcbc7a9b    .z..    DCD    3166468763
        0x00017e04:    3f7ff0e3    ...?    DCD    1065349347
        0x00017e08:    bcafea69    i...    DCD    3165645417
        0x00017e0c:    3f7ff2f8    ...?    DCD    1065349880
        0x00017e10:    bca35a1c    .Z..    DCD    3164822044
        0x00017e14:    3f7ff4e6    ...?    DCD    1065350374
        0x00017e18:    bc96c9b6    ....    DCD    3163998646
        0x00017e1c:    3f7ff6ac    ...?    DCD    1065350828
        0x00017e20:    bc8a3938    89..    DCD    3163175224
        0x00017e24:    3f7ff84a    J..?    DCD    1065351242
        0x00017e28:    bc7b514b    KQ{.    DCD    3162198347
        0x00017e2c:    3f7ff9c1    ...?    DCD    1065351617
        0x00017e30:    bc623000    .0b.    DCD    3160551424
        0x00017e34:    3f7ffb11    ...?    DCD    1065351953
        0x00017e38:    bc490e90    ..I.    DCD    3158904464
        0x00017e3c:    3f7ffc39    9..?    DCD    1065352249
        0x00017e40:    bc2fed02    ../.    DCD    3157257474
        0x00017e44:    3f7ffd39    9..?    DCD    1065352505
        0x00017e48:    bc16cb59    Y...    DCD    3155610457
        0x00017e4c:    3f7ffe13    ...?    DCD    1065352723
        0x00017e50:    bbfb5330    0S..    DCD    3153810224
        0x00017e54:    3f7ffec4    ...?    DCD    1065352900
        0x00017e58:    bbc90f89    ....    DCD    3150516105
        0x00017e5c:    3f7fff4e    N..?    DCD    1065353038
        0x00017e60:    bb96cbc1    ....    DCD    3147221953
        0x00017e64:    3f7fffb1    ...?    DCD    1065353137
        0x00017e68:    bb490fc7    ..I.    DCD    3142127559
        0x00017e6c:    3f7fffec    ...?    DCD    1065353196
        0x00017e70:    bac90fd4    ....    DCD    3133738964
    Region$$Table$$Base
        0x00017e74:    00017ea8    .~..    DCD    97960
        0x00017e78:    10011000    ....    DCD    268505088
        0x00017e7c:    00000020     ...    DCD    32
        0x00017e80:    0000c170    p...    DCD    49520
        0x00017e84:    00017ec8    .~..    DCD    97992
        0x00017e88:    10011020     ...    DCD    268505120
        0x00017e8c:    00014490    .D..    DCD    83088
        0x00017e90:    0000c18c    ....    DCD    49548
        0x00017e94:    00017ec8    .~..    DCD    97992
        0x00017e98:    10010000    ....    DCD    268500992
        0x00017e9c:    00001000    ....    DCD    4096
        0x00017ea0:    0000c18c    ....    DCD    49548
    Region$$Table$$Limit

** Section #2 'RWMEM' (SHT_PROGBITS) [SHF_ALLOC + SHF_WRITE]
    Size   : 32 bytes (alignment 8)
    Address: 0x10011000

    0x10011000:   00 04 04 00 40 00 00 00 00 00 00 00 0b 00 00 00    ....@...........
    0x10011010:   02 00 00 00 01 02 00 00 01 00 00 00 00 00 00 00    ................


** Section #3 'RWMEM' (SHT_NOBITS) [SHF_ALLOC + SHF_WRITE]
    Size   : 83088 bytes (alignment 8)
    Address: 0x10011020


** Section #4 'STACKMEM' (SHT_NOBITS) [SHF_ALLOC + SHF_WRITE]
    Size   : 4096 bytes (alignment 8)
    Address: 0x10010000


** Section #5 '.debug_abbrev' (SHT_PROGBITS)
    Size   : 2784 bytes


** Section #6 '.debug_frame' (SHT_PROGBITS)
    Size   : 5572 bytes


** Section #7 '.debug_info' (SHT_PROGBITS)
    Size   : 14439 bytes


** Section #8 '.debug_line' (SHT_PROGBITS)
    Size   : 7756 bytes


** Section #9 '.debug_loc' (SHT_PROGBITS)
    Size   : 12951 bytes


** Section #10 '.debug_str' (SHT_PROGBITS)
    Size   : 11600 bytes


** Section #11 '.debug_ranges' (SHT_PROGBITS)
    Size   : 544 bytes


** Section #12 '.symtab' (SHT_SYMTAB)
    Size   : 7616 bytes (alignment 4)
    String table #13 '.strtab'
    Last local symbol no. 262

    Symbol table .symtab (475 symbols, 262 local)

      #  Symbol Name                Value      Bind  Sec  Type  Vis  Size
    ========================================================================

      1  $d                         0x0000c000   Lc    1   --   De 
      2  $t                         0x0000c100   Lc    1   --   De 
      3  $d                         0x0000c130   Lc    1   --   De 
      4  $t                         0x0000c134   Lc    1   --   De 
      5  $d                         0x0000c168   Lc    1   --   De 
      6  $t                         0x0000c170   Lc    1   --   De 
      7  $d                         0x0000c1de   Lc    1   --   De 
      8  $t                         0x0000c1ec   Lc    1   --   De 
      9  $d                         0x0000c25c   Lc    1   --   De 
     10  $t                         0x0000c260   Lc    1   --   De 
     11  $d                         0x0000c264   Lc    1   --   De 
     12  $t                         0x0000c268   Lc    1   --   De 
     13  $d                         0x0000c2cc   Lc    1   --   De 
     14  $t                         0x0000c2d0   Lc    1   --   De 
     15  $t.0                       0x0000c2d2   Lc    1   --   De 
     16  $d.1                       0x0000c644   Lc    1   --   De 
     17  $t.2                       0x0000c64e   Lc    1   --   De 
     18  $d.1                       0x0000c9a4   Lc    1   --   De 
     19  $t.2                       0x0000c9a8   Lc    1   --   De 
     20  $d.6                       0x0000ca9a   Lc    1   --   De 
     21  $t.7                       0x0000caa0   Lc    1   --   De 
     22  $d.3                       0x0000d67a   Lc    1   --   De 
     23  $t.4                       0x0000d682   Lc    1   --   De 
     24  $d.5                       0x0000d71c   Lc    1   --   De 
     25  $t.9                       0x0000d7a4   Lc    1   --   De 
     26  $d.14                      0x0000d800   Lc    1   --   De 
     27  $t.3                       0x0000d814   Lc    1   --   De 
     28  $d.4                       0x0000d902   Lc    1   --   De 
     29  $t.5                       0x0000d90a   Lc    1   --   De 
     30  $d.1                       0x0000e0a8   Lc    1   --   De 
     31  $t.0                       0x0000e0bc   Lc    1   --   De 
     32  $d.8                       0x0000eb30   Lc    1   --   De 
     33  $t.5                       0x0000eb44   Lc    1   --   De 
     34  $d.6                       0x0000ebdc   Lc    1   --   De 
     35  $t.1                       0x0000ebf4   Lc    1   --   De 
     36  $d.2                       0x0000ec98   Lc    1   --   De 
     37  $t.3                       0x0000ed20   Lc    1   --   De 
     38  $t                         0x0000ee20   Lc    1   --   De 
     39  $d                         0x0000eeac   Lc    1   --   De 
     40  $t                         0x0000eeb0   Lc    1   --   De 
     41  $d                         0x0000ef2e   Lc    1   --   De 
     42  $t                         0x0000ef32   Lc    1   --   De 
     43  $d                         0x0000efa4   Lc    1   --   De 
     44  $t                         0x0000efa8   Lc    1   --   De 
     45  $d                         0x0000f02a   Lc    1   --   De 
     46  $t                         0x0000f02e   Lc    1   --   De 
     47  $d.realdata                0x0000f070   Lc    1   --   De 
     48  $d.realdata                0x10011000   Lc    2   --   De 
     49  $d.realdata                0x10010000   Lc    4   --   De 
     50  pdm_fft.c                  0x00000000   Lc  Abs  File  De 
     51  .L.str.1                   0x0000fbda   Lc    1  Data  De   0x1e
     52  .L.str.2                   0x0000fbf8   Lc    1  Data  De   0x1e
     53  am_util_delay.c            0x00000000   Lc  Abs  File  De 
     54  am_util_faultisr.c         0x00000000   Lc  Abs  File  De 
     55  .L.str                     0x0000fc16   Lc    1  Data  De   0x1a
     56  .L.str.23                  0x0000fc30   Lc    1  Data  De   0x11
     57  .L.str.9                   0x0000fc41   Lc    1  Data  De   0x18
     58  .L.str.16                  0x0000fc59   Lc    1  Data  De   0x1d
     59  .L.str.15                  0x0000fc76   Lc    1  Data  De   0x1e
     60  .L.str.21                  0x0000fc94   Lc    1  Data  De   0x1f
     61  .L.str.18                  0x0000fcb3   Lc    1  Data  De   0x1b
     62  .L.str.19                  0x0000fcce   Lc    1  Data  De   0x1d
     63  .L.str.17                  0x0000fceb   Lc    1  Data  De   0x1b
     64  .L.str.20                  0x0000fd06   Lc    1  Data  De   0x20
     65  .L.str.22                  0x0000fd26   Lc    1  Data  De   0x1c
     66  .L.str.25                  0x0000fd42   Lc    1  Data  De   0x20
     67  .L.str.24                  0x0000fd62   Lc    1  Data  De   0x20
     68  .L.str.26                  0x0000fd82   Lc    1  Data  De   0x1e
     69  .L.str.1                   0x0000fda0   Lc    1  Data  De   0x12
     70  .L.str.2                   0x0000fdb2   Lc    1  Data  De   0x12
     71  .L.str.3                   0x0000fdc4   Lc    1  Data  De   0x12
     72  .L.str.4                   0x0000fdd6   Lc    1  Data  De   0x12
     73  .L.str.7                   0x0000fde8   Lc    1  Data  De   0x12
     74  .L.str.6                   0x0000fdfa   Lc    1  Data  De   0x12
     75  .L.str.11                  0x0000fe0c   Lc    1  Data  De   0x28
     76  .L.str.5                   0x0000fe34   Lc    1  Data  De   0x12
     77  .L.str.8                   0x0000fe46   Lc    1  Data  De   0x12
     78  .L.str.10                  0x0000fe58   Lc    1  Data  De   0x1c
     79  am_util_stdio.c            0x00000000   Lc  Abs  File  De 
     80  decstr_to_int              0x0000e9a5   Lc    1  Code  De   0x58
     81  uint64_to_str              0x0000edcd   Lc    1  Code  De   0x54
     82  divu64_10                  0x0000e9fd   Lc    1  Code  De   0xbe
     83  g_bTxtXlate                0x1001109f   Lc    3  Data  De   0x1
     84  g_prfbuf                   0x100210a4   Lc    3  Data  De   0x400
     85  ../keil6/startup_keil6.s   0x00000000   Lc  Abs  File  De 
     86  STACK                      0x10010000   Lc    4  Sect  De   0x1000
     87  StackMem                   0x10010000   Lc    4  Data  De 
     88  HEAP                       0x100254b0   Lc    3  Sect  De 
     89  HeapMem                    0x100254b0   Lc    3  Data  De 
     90  RESET                      0x0000c000   Lc    1  Sect  De   0x134
     91  $v0                        0x0000c100   Lc    1   --   De 
     92  .text                      0x0000c1d4   Lc    1  Sect  De   0x18
     93  $v0                        0x0000c1d4   Lc    1   --   De 
     94  am_hal_global.c            0x00000000   Lc  Abs  File  De 
     95  arm_cmplx_mag_f32.c        0x00000000   Lc  Abs  File  De 
     96  arm_cfft_radix4_f32.c      0x00000000   Lc  Abs  File  De 
     97  arm_cfft_radix4_init_f32.c 0x00000000   Lc  Abs  File  De 
     98  arm_max_f32.c              0x00000000   Lc  Abs  File  De 
     99  am_bsp.c                   0x00000000   Lc  Abs  File  De 
    100  g_ui32PrintInterface       0x100254a4   Lc    3  Data  De   0x4
    101  am_hal_cachectrl.c         0x00000000   Lc  Abs  File  De 
    102  am_hal_clkgen.c            0x00000000   Lc  Abs  File  De 
    103  am_hal_flash.c             0x00000000   Lc  Abs  File  De 
    104  .L__const.am_hal_flash_store_ui32.SRAM_write_ui32
                                    0x0000f070   Lc    1  Data  De   0xc
    105  am_hal_gpio.c              0x00000000   Lc  Abs  File  De 
    106  g_ui8Bit76Capabilities     0x0000f9d4   Lc    1  Data  De   0x4a
    107  g_ui8Inpen                 0x0000fa1e   Lc    1  Data  De   0x4a
    108  g_ui8nCEpins               0x0000fb90   Lc    1  Data  De   0x4a
    109  g_ui8NCEtable              0x0000fa68   Lc    1  Data  De   0x128
    110  am_hal_interrupt.c         0x00000000   Lc  Abs  File  De 
    111  am_hal_mcuctrl.c           0x00000000   Lc  Abs  File  De 
    112  am_hal_pdm.c               0x00000000   Lc  Abs  File  De 
    113  am_hal_sysctrl.c           0x00000000   Lc  Abs  File  De 
    114  arm_bitreversal.c          0x00000000   Lc  Abs  File  De 
    115  arm_common_tables.c        0x00000000   Lc  Abs  File  De 
    116  am_bsp_pins.c              0x00000000   Lc  Abs  File  De 
    117  am_hal_burst.c             0x00000000   Lc  Abs  File  De 
    118  g_bEnFromManual            0x1001109d   Lc    3  Data  De   0x1
    119  g_bDisFromManual           0x1001109c   Lc    3  Data  De   0x1
    120  am_hal_itm.c               0x00000000   Lc  Abs  File  De 
    121  am_hal_pwrctrl.c           0x00000000   Lc  Abs  File  De 
    122  am_hal_reset.c             0x00000000   Lc  Abs  File  De 
    123  am_hal_rtc.c               0x00000000   Lc  Abs  File  De 
    124  am_hal_tpiu.c              0x00000000   Lc  Abs  File  De 
    125  am_hal_uart.c              0x00000000   Lc  Abs  File  De 
    126  am_hal_queue.c             0x00000000   Lc  Abs  File  De 
    127  dc.s                       0x00000000   Lc  Abs  File  De 
    128  ../clib/memcpset.s         0x00000000   Lc  Abs  File  De 
    129  .text                      0x0000c1ec   Lc    1  Sect  De   0x4e
    130  ../clib/heapaux.c          0x00000000   Lc  Abs  File  De 
    131  .text                      0x0000c23a   Lc    1  Sect  De 
    132  ../clib/angel/startup.s    0x00000000   Lc  Abs  File  De 
    133  !!!main                    0x0000c134   Lc    1  Sect  De   0x8
    134  ../clib/angel/handlers.s   0x00000000   Lc  Abs  File  De 
    135  !!handler_copy             0x0000c170   Lc    1  Sect  De   0x1a
    136  ../fplib/d2f.s             0x00000000   Lc  Abs  File  De 
    137  x$fpl$d2f                  0x0000ee5c   Lc    1  Sect  De   0x62
    138  $v0                        0x0000ee5c   Lc    1   --   De 
    139  ../fplib/f2d.s             0x00000000   Lc  Abs  File  De 
    140  x$fpl$f2d                  0x0000ef68   Lc    1  Sect  De   0x56
    141  $v0                        0x0000ef68   Lc    1   --   De 
    142  ../mathlib/sqrtf.c         0x00000000   Lc  Abs  File  De 
    143  i.__hardfp_sqrtf           0x0000ee20   Lc    1  Sect  De 
    144  ../clib/angel/kernel.s     0x00000000   Lc  Abs  File  De 
    145  .ARM.Collect$$rtentry$$00000000
                                    0x0000c1b4   Lc    1  Sect  De 
    146  ../clib/fenv.c             0x00000000   Lc  Abs  File  De 
    147  .text                      0x0000c240   Lc    1  Sect  De 
    148  ../fplib/dnaninf.s         0x00000000   Lc  Abs  File  De 
    149  x$fpl$dnaninf              0x0000eebe   Lc    1  Sect  De   0x9c
    150  $v0                        0x0000eebe   Lc    1   --   De 
    151  ../fplib/dretinf.s         0x00000000   Lc  Abs  File  De 
    152  x$fpl$dretinf              0x0000ef5a   Lc    1  Sect  De   0xc
    153  $v0                        0x0000ef5a   Lc    1   --   De 
    154  ../fplib/fnaninf.s         0x00000000   Lc  Abs  File  De 
    155  x$fpl$fnaninf              0x0000efbe   Lc    1  Sect  De   0x8c
    156  $v0                        0x0000efbe   Lc    1   --   De 
    157  ../fplib/fretinf.s         0x00000000   Lc  Abs  File  De 
    158  x$fpl$fretinf              0x0000f064   Lc    1  Sect  De   0xa
    159  $v0                        0x0000f064   Lc    1   --   De 
    160  ../fplib/usenofp.s         0x00000000   Lc  Abs  File  De 
    161  x$fpl$usenofp              0x0000f06e   Lc    1  Sect  De 
    162  ../clib/angel/kernel.s     0x00000000   Lc  Abs  File  De 
    163  .ARM.Collect$$rtentry$$00000002
                                    0x0000c1b4   Lc    1  Sect  De 
    164  .ARM.Collect$$rtentry$$00000009
                                    0x0000c1ba   Lc    1  Sect  De 
    165  .ARM.Collect$$rtentry$$0000000A
                                    0x0000c1ba   Lc    1  Sect  De   0x4
    166  .ARM.Collect$$rtentry$$0000000C
                                    0x0000c1be   Lc    1  Sect  De 
    167  .ARM.Collect$$rtentry$$0000000D
                                    0x0000c1be   Lc    1  Sect  De   0x8
    168  ../clib/angel/kernel.s     0x00000000   Lc  Abs  File  De 
    169  .ARM.Collect$$rtentry$$00000004
                                    0x0000c1b4   Lc    1  Sect  De   0x6
    170  ../clib/angel/rt.s         0x00000000   Lc  Abs  File  De 
    171  ../clib/angel/rt.s         0x00000000   Lc  Abs  File  De 
    172  .text                      0x0000c258   Lc    1  Sect  De   0x8
    173  ../clib/angel/sys.s        0x00000000   Lc  Abs  File  De 
    174  .text                      0x0000c260   Lc    1  Sect  De   0x8
    175  .bss                       0x10011020   Lc    3  Sect  De   0x60
    176  ../clib/angel/sys.s        0x00000000   Lc  Abs  File  De 
    177  .text                      0x0000c268   Lc    1  Sect  De   0x4a
    178  ../clib/stdlib.c           0x00000000   Lc  Abs  File  De 
    179  .text                      0x0000c2b2   Lc    1  Sect  De 
    180  ../clib/angel/boardlib.s   0x00000000   Lc  Abs  File  De 
    181  ../clib/angel/boardlib.s   0x00000000   Lc  Abs  File  De 
    182  ../clib/angel/boardlib.s   0x00000000   Lc  Abs  File  De 
    183  ../clib/libinit.s          0x00000000   Lc  Abs  File  De 
    184  .ARM.Collect$$libinit$$00000000
                                    0x0000c1a8   Lc    1  Sect  De   0x2
    185  ../clib/angel/kernel.s     0x00000000   Lc  Abs  File  De 
    186  .ARM.Collect$$rtexit$$00000000
                                    0x0000c1c6   Lc    1  Sect  De   0x2
    187  ../clib/libinit.s          0x00000000   Lc  Abs  File  De 
    188  .ARM.Collect$$libinit$$00000001
                                    0x0000c1aa   Lc    1  Sect  De   0x4
    189  .ARM.Collect$$libinit$$00000004
                                    0x0000c1ae   Lc    1  Sect  De 
    190  .ARM.Collect$$libinit$$0000000A
                                    0x0000c1ae   Lc    1  Sect  De 
    191  .ARM.Collect$$libinit$$0000000C
                                    0x0000c1ae   Lc    1  Sect  De 
    192  .ARM.Collect$$libinit$$0000000E
                                    0x0000c1ae   Lc    1  Sect  De 
    193  .ARM.Collect$$libinit$$00000011
                                    0x0000c1ae   Lc    1  Sect  De 
    194  .ARM.Collect$$libinit$$00000013
                                    0x0000c1ae   Lc    1  Sect  De 
    195  .ARM.Collect$$libinit$$00000015
                                    0x0000c1ae   Lc    1  Sect  De 
    196  .ARM.Collect$$libinit$$00000017
                                    0x0000c1ae   Lc    1  Sect  De 
    197  .ARM.Collect$$libinit$$00000019
                                    0x0000c1ae   Lc    1  Sect  De 
    198  .ARM.Collect$$libinit$$0000001B
                                    0x0000c1ae   Lc    1  Sect  De 
    199  .ARM.Collect$$libinit$$0000001D
                                    0x0000c1ae   Lc    1  Sect  De 
    200  .ARM.Collect$$libinit$$0000001F
                                    0x0000c1ae   Lc    1  Sect  De 
    201  .ARM.Collect$$libinit$$00000021
                                    0x0000c1ae   Lc    1  Sect  De 
    202  .ARM.Collect$$libinit$$00000023
                                    0x0000c1ae   Lc    1  Sect  De 
    203  .ARM.Collect$$libinit$$00000025
                                    0x0000c1ae   Lc    1  Sect  De 
    204  .ARM.Collect$$libinit$$0000002C
                                    0x0000c1ae   Lc    1  Sect  De 
    205  .ARM.Collect$$libinit$$0000002E
                                    0x0000c1ae   Lc    1  Sect  De 
    206  .ARM.Collect$$libinit$$00000030
                                    0x0000c1ae   Lc    1  Sect  De 
    207  .ARM.Collect$$libinit$$00000032
                                    0x0000c1ae   Lc    1  Sect  De 
    208  .ARM.Collect$$libinit$$00000033
                                    0x0000c1ae   Lc    1  Sect  De   0x2
    209  ../clib/angel/kernel.s     0x00000000   Lc  Abs  File  De 
    210  .ARM.Collect$$rtexit$$00000002
                                    0x0000c1c8   Lc    1  Sect  De 
    211  .ARM.Collect$$rtexit$$00000003
                                    0x0000c1c8   Lc    1  Sect  De   0x4
    212  .ARM.Collect$$rtexit$$00000004
                                    0x0000c1cc   Lc    1  Sect  De   0x6
    213  ../clib/armsys.c           0x00000000   Lc  Abs  File  De 
    214  ../clib/armsys.c           0x00000000   Lc  Abs  File  De 
    215  ../fplib/fpinit.s          0x00000000   Lc  Abs  File  De 
    216  x$fpl$fpinit               0x0000f04a   Lc    1  Sect  De   0x1a
    217  $v0                        0x0000f04a   Lc    1   --   De 
    218  ../clib/angel/sysapp.c     0x00000000   Lc  Abs  File  De 
    219  .text                      0x0000c2c4   Lc    1  Sect  De 
    220  ../clib/angel/sysapp.c     0x00000000   Lc  Abs  File  De 
    221  ../clib/angel/boardlib.s   0x00000000   Lc  Abs  File  De 
    222  ../clib/armsys.c           0x00000000   Lc  Abs  File  De 
    223  ../clib/armsys.c           0x00000000   Lc  Abs  File  De 
    224  ../clib/libinit.s          0x00000000   Lc  Abs  File  De 
    225  .ARM.Collect$$libshutdown$$00000000
                                    0x0000c1b0   Lc    1  Sect  De   0x2
    226  ../clib/angel/sysapp.c     0x00000000   Lc  Abs  File  De 
    227  ../clib/angel/sysapp.c     0x00000000   Lc  Abs  File  De 
    228  ../clib/angel/sys.s        0x00000000   Lc  Abs  File  De 
    229  .text                      0x0000c2d0   Lc    1  Sect  De   0x2
    230  ../clib/angel/sys.s        0x00000000   Lc  Abs  File  De 
    231  .text                      0x0000c2d2   Lc    1  Sect  De 
    232  ../clib/heapalloc.c        0x00000000   Lc  Abs  File  De 
    233  ../clib/signal.c           0x00000000   Lc  Abs  File  De 
    234  ../clib/signal.c           0x00000000   Lc  Abs  File  De 
    235  ../clib/libinit.s          0x00000000   Lc  Abs  File  De 
    236  .ARM.Collect$$libshutdown$$00000002
                                    0x0000c1b2   Lc    1  Sect  De 
    237  .ARM.Collect$$libshutdown$$00000004
                                    0x0000c1b2   Lc    1  Sect  De 
    238  .ARM.Collect$$libshutdown$$00000007
                                    0x0000c1b2   Lc    1  Sect  De 
    239  .ARM.Collect$$libshutdown$$0000000A
                                    0x0000c1b2   Lc    1  Sect  De 
    240  .ARM.Collect$$libshutdown$$0000000C
                                    0x0000c1b2   Lc    1  Sect  De 
    241  .ARM.Collect$$libshutdown$$0000000F
                                    0x0000c1b2   Lc    1  Sect  De 
    242  .ARM.Collect$$libshutdown$$00000010
                                    0x0000c1b2   Lc    1  Sect  De   0x2
    243  ../clib/angel/rt.s         0x00000000   Lc  Abs  File  De 
    244  ../clib/signal.c           0x00000000   Lc  Abs  File  De 
    245  ../clib/signal.c           0x00000000   Lc  Abs  File  De 
    246  ../clib/signal.c           0x00000000   Lc  Abs  File  De 
    247  ../clib/signal.c           0x00000000   Lc  Abs  File  De 
    248  ../clib/angel/sysapp.c     0x00000000   Lc  Abs  File  De 
    249  ../clib/angel/sysapp.c     0x00000000   Lc  Abs  File  De 
    250  ../clib/signal.s           0x00000000   Lc  Abs  File  De 
    251  ../clib/signal.c           0x00000000   Lc  Abs  File  De 
    252  ../clib/signal.c           0x00000000   Lc  Abs  File  De 
    253  ../clib/signal.c           0x00000000   Lc  Abs  File  De 
    254  ../clib/signal.c           0x00000000   Lc  Abs  File  De 
    255  ../clib/signal.c           0x00000000   Lc  Abs  File  De 
    256  ../clib/signal.c           0x00000000   Lc  Abs  File  De 
    257  ../clib/signal.c           0x00000000   Lc  Abs  File  De 
    258  ../clib/signal.c           0x00000000   Lc  Abs  File  De 
    259  ../clib/angel/scatter.s    0x00000000   Lc  Abs  File  De 
    260  !!!scatter                 0x0000c13c   Lc    1  Sect  De   0x34
    261  ../clib/angel/handlers.s   0x00000000   Lc  Abs  File  De 
    262  !!handler_zi               0x0000c18c   Lc    1  Sect  De   0x1c
    263  BuildAttributes$$THM_ISAv4$E$P$D$K$B$S$7EM$VFPi3$EXTD16$VFPS$VFMA$PE$A:L22UL41UL21$X:L11$S22US41US21$IEEE1$IW$~IW$USESV6$~STKCKD$USESV7$~SHL$OTIME$ROPI$IEEEJ$EBA8$UX$STANDARDLIB$REQ8$PRES8$EABIv2
                                    0x00000000   Gb  Abs   --   Hi 
    264  __Vectors                  0x0000c000   Gb    1  Data  Hi 
    265  __Patchable                0x0000c0c8   Gb    1  Data  Hi 
    266  Reset_Handler              0x0000c101   Wk    1  Code  Hi   0x1c
    267  NMI_Handler                0x0000c11f   Wk    1  Code  Hi   0x2
    268  MemManage_Handler          0x0000c121   Wk    1  Code  Hi   0x2
    269  BusFault_Handler           0x0000c123   Wk    1  Code  Hi   0x2
    270  UsageFault_Handler         0x0000c125   Wk    1  Code  Hi   0x2
    271  SVC_Handler                0x0000c127   Wk    1  Code  Hi   0x2
    272  DebugMon_Handler           0x0000c129   Wk    1  Code  Hi   0x2
    273  PendSV_Handler             0x0000c12b   Wk    1  Code  Hi   0x2
    274  SysTick_Handler            0x0000c12d   Wk    1  Code  Hi   0x2
    275  am_adc_isr                 0x0000c12f   Wk    1  Code  Hi 
    276  am_ble_isr                 0x0000c12f   Wk    1  Code  Hi 
    277  am_brownout_isr            0x0000c12f   Wk    1  Code  Hi 
    278  am_clkgen_isr              0x0000c12f   Wk    1  Code  Hi 
    279  am_ctimer_isr              0x0000c12f   Wk    1  Code  Hi 
    280  am_gpio_isr                0x0000c12f   Wk    1  Code  Hi 
    281  am_iomaster0_isr           0x0000c12f   Wk    1  Code  Hi 
    282  am_iomaster1_isr           0x0000c12f   Wk    1  Code  Hi 
    283  am_iomaster2_isr           0x0000c12f   Wk    1  Code  Hi 
    284  am_iomaster3_isr           0x0000c12f   Wk    1  Code  Hi 
    285  am_iomaster4_isr           0x0000c12f   Wk    1  Code  Hi 
    286  am_iomaster5_isr           0x0000c12f   Wk    1  Code  Hi 
    287  am_ioslave_acc_isr         0x0000c12f   Wk    1  Code  Hi 
    288  am_ioslave_ios_isr         0x0000c12f   Wk    1  Code  Hi 
    289  am_mspi0_isr               0x0000c12f   Wk    1  Code  Hi 
    290  am_mspi1_isr               0x0000c12f   Wk    1  Code  Hi 
    291  am_mspi2_isr               0x0000c12f   Wk    1  Code  Hi 
    292  am_rtc_isr                 0x0000c12f   Wk    1  Code  Hi 
    293  am_scard_isr               0x0000c12f   Wk    1  Code  Hi 
    294  am_software0_isr           0x0000c12f   Wk    1  Code  Hi 
    295  am_stimer_cmpr0_isr        0x0000c12f   Wk    1  Code  Hi 
    296  am_stimer_cmpr1_isr        0x0000c12f   Wk    1  Code  Hi 
    297  am_stimer_cmpr2_isr        0x0000c12f   Wk    1  Code  Hi 
    298  am_stimer_cmpr3_isr        0x0000c12f   Wk    1  Code  Hi 
    299  am_stimer_cmpr4_isr        0x0000c12f   Wk    1  Code  Hi 
    300  am_stimer_cmpr5_isr        0x0000c12f   Wk    1  Code  Hi 
    301  am_stimer_cmpr6_isr        0x0000c12f   Wk    1  Code  Hi 
    302  am_stimer_cmpr7_isr        0x0000c12f   Wk    1  Code  Hi 
    303  am_stimer_isr              0x0000c12f   Wk    1  Code  Hi 
    304  am_uart0_isr               0x0000c12f   Wk    1  Code  Hi 
    305  am_uart1_isr               0x0000c12f   Wk    1  Code  Hi 
    306  am_uart_isr                0x0000c12f   Wk    1  Code  Hi 
    307  am_vcomp_isr               0x0000c12f   Wk    1  Code  Hi 
    308  am_watchdog_isr            0x0000c12f   Wk    1  Code  Hi 
    309  __main                     0x0000c135   Gb    1  Code  Hi   0x8
    310  __scatterload              0x0000c13d   Gb    1  Code  Hi 
    311  __scatterload_rt2          0x0000c13d   Gb    1  Code  Hi   0x2c
    312  __scatterload_rt2_thumb_only
                                    0x0000c13d   Gb    1  Code  Hi 
    313  __scatterload_null         0x0000c14b   Gb    1  Code  Hi 
    314  __scatterload_copy         0x0000c171   Gb    1  Code  Hi   0x1a
    315  __scatterload_zeroinit     0x0000c18d   Gb    1  Code  Hi   0x1c
    316  __rt_lib_init              0x0000c1a9   Gb    1  Code  De 
    317  __rt_lib_init_fp_1         0x0000c1ab   Gb    1  Code  Hi 
    318  __rt_lib_init_alloca_1     0x0000c1af   Gb    1  Code  Hi 
    319  __rt_lib_init_argv_1       0x0000c1af   Gb    1  Code  Hi 
    320  __rt_lib_init_atexit_1     0x0000c1af   Gb    1  Code  Hi 
    321  __rt_lib_init_clock_1      0x0000c1af   Gb    1  Code  Hi 
    322  __rt_lib_init_cpp_1        0x0000c1af   Gb    1  Code  Hi 
    323  __rt_lib_init_exceptions_1 0x0000c1af   Gb    1  Code  Hi 
    324  __rt_lib_init_fp_trap_1    0x0000c1af   Gb    1  Code  Hi 
    325  __rt_lib_init_getenv_1     0x0000c1af   Gb    1  Code  Hi 
    326  __rt_lib_init_heap_1       0x0000c1af   Gb    1  Code  Hi 
    327  __rt_lib_init_lc_collate_1 0x0000c1af   Gb    1  Code  Hi 
    328  __rt_lib_init_lc_ctype_1   0x0000c1af   Gb    1  Code  Hi 
    329  __rt_lib_init_lc_monetary_1
                                    0x0000c1af   Gb    1  Code  Hi 
    330  __rt_lib_init_lc_numeric_1 0x0000c1af   Gb    1  Code  Hi 
    331  __rt_lib_init_lc_time_1    0x0000c1af   Gb    1  Code  Hi 
    332  __rt_lib_init_preinit_1    0x0000c1af   Gb    1  Code  Hi 
    333  __rt_lib_init_rand_1       0x0000c1af   Gb    1  Code  Hi 
    334  __rt_lib_init_return       0x0000c1af   Gb    1  Code  Hi 
    335  __rt_lib_init_signal_1     0x0000c1af   Gb    1  Code  Hi 
    336  __rt_lib_init_stdio_1      0x0000c1af   Gb    1  Code  Hi 
    337  __rt_lib_init_user_alloc_1 0x0000c1af   Gb    1  Code  Hi 
    338  __rt_lib_shutdown          0x0000c1b1   Gb    1  Code  De 
    339  __rt_lib_shutdown_cpp_1    0x0000c1b3   Gb    1  Code  Hi 
    340  __rt_lib_shutdown_fp_trap_1
                                    0x0000c1b3   Gb    1  Code  Hi 
    341  __rt_lib_shutdown_heap_1   0x0000c1b3   Gb    1  Code  Hi 
    342  __rt_lib_shutdown_return   0x0000c1b3   Gb    1  Code  Hi 
    343  __rt_lib_shutdown_signal_1 0x0000c1b3   Gb    1  Code  Hi 
    344  __rt_lib_shutdown_stdio_1  0x0000c1b3   Gb    1  Code  Hi 
    345  __rt_lib_shutdown_user_alloc_1
                                    0x0000c1b3   Gb    1  Code  Hi 
    346  __rt_entry                 0x0000c1b5   Gb    1  Code  Hi 
    347  __rt_entry_presh_1         0x0000c1b5   Gb    1  Code  Hi 
    348  __rt_entry_sh              0x0000c1b5   Gb    1  Code  Hi 
    349  __rt_entry_li              0x0000c1bb   Gb    1  Code  Hi 
    350  __rt_entry_postsh_1        0x0000c1bb   Gb    1  Code  Hi 
    351  __rt_entry_main            0x0000c1bf   Gb    1  Code  Hi 
    352  __rt_entry_postli_1        0x0000c1bf   Gb    1  Code  Hi 
    353  __rt_exit                  0x0000c1c7   Gb    1  Code  De 
    354  __rt_exit_ls               0x0000c1c9   Gb    1  Code  Hi 
    355  __rt_exit_prels_1          0x0000c1c9   Gb    1  Code  Hi 
    356  __rt_exit_exit             0x0000c1cd   Gb    1  Code  Hi 
    357  __user_initial_stackheap   0x0000c1d5   Gb    1  Code  Hi   0xa
    358  __aeabi_memclr4            0x0000c1ed   Gb    1  Code  De 
    359  __aeabi_memclr8            0x0000c1ed   Gb    1  Code  De 
    360  __rt_memclr_w              0x0000c1ed   Gb    1  Code  De 
    361  _memset_w                  0x0000c1f1   Gb    1  Code  De   0x4a
    362  __use_two_region_memory    0x0000c23b   Gb    1  Code  Hi   0x2
    363  __rt_heap_escrow$2region   0x0000c23d   Gb    1  Code  De   0x2
    364  __rt_heap_expand$2region   0x0000c23f   Gb    1  Code  De   0x2
    365  __read_errno               0x0000c241   Gb    1  Code  De   0xa
    366  __set_errno                0x0000c24b   Gb    1  Code  De   0xc
    367  __aeabi_errno_addr         0x0000c259   Gb    1  Code  De   0x8
    368  __errno$intlibspace        0x0000c259   Gb    1  Code  De 
    369  __rt_errno_addr$intlibspace
                                    0x0000c259   Gb    1  Code  De 
    370  __user_libspace            0x0000c261   Wk    1  Code  De   0x8
    371  __user_perproc_libspace    0x0000c261   Wk    1  Code  De 
    372  __user_perthread_libspace  0x0000c261   Wk    1  Code  De 
    373  __user_setup_stackheap     0x0000c269   Gb    1  Code  De   0x4a
    374  exit                       0x0000c2b3   Gb    1  Code  De   0x12
    375  _sys_exit                  0x0000c2c5   Gb    1  Code  De   0x8
    376  __I$use$semihosting        0x0000c2d1   Gb    1  Code  Hi 
    377  __use_no_semihosting_swi   0x0000c2d1   Gb    1  Code  Hi   0x2
    378  HardFault_Handler          0x0000c2d3   Gb    1  Code  Hi   0x1a
    379  __semihosting_library_function
                                    0x0000c2d3   Gb    1  Code  Hi 
    380  am_bsp_itm_printf_enable   0x0000c2ed   Gb    1  Code  Hi   0x44
    381  am_hal_burst_ldo_patch_check
                                    0x0000c331   Gb    1  Code  Hi   0x16
    382  am_hal_burst_mode_disable  0x0000c347   Gb    1  Code  Hi   0x70
    383  am_hal_burst_mode_disable_w_manual_sequence
                                    0x0000c3b7   Gb    1  Code  Hi   0x50
    384  am_hal_burst_mode_enable   0x0000c407   Gb    1  Code  Hi   0x76
    385  am_hal_burst_mode_enable_w_manual_sequence
                                    0x0000c47d   Gb    1  Code  Hi   0x148
    386  am_hal_cachectrl_config    0x0000c5c5   Gb    1  Code  Hi   0x48
    387  am_hal_cachectrl_enable    0x0000c60d   Gb    1  Code  Hi   0x14
    388  am_hal_clkgen_control      0x0000c621   Gb    1  Code  Hi   0x138
    389  am_hal_clkgen_status_get   0x0000c759   Gb    1  Code  Hi   0x38
    390  am_hal_flash_delay         0x0000c791   Gb    1  Code  Hi   0x2a
    391  am_hal_flash_delay_status_check
                                    0x0000c7bd   Gb    1  Code  Hi   0x70
    392  am_hal_flash_store_ui32    0x0000c82d   Gb    1  Code  Hi   0x22
    393  am_hal_gpio_pinconfig      0x0000c851   Gb    1  Code  Hi   0x212
    394  am_hal_gpio_state_write    0x0000ca65   Gb    1  Code  Hi   0x98
    395  am_hal_interrupt_master_disable
                                    0x0000cafd   Gb    1  Code  Hi   0x8
    396  am_hal_interrupt_master_enable
                                    0x0000cb05   Gb    1  Code  Hi   0x8
    397  am_hal_interrupt_master_set
                                    0x0000cb0d   Gb    1  Code  Hi   0x6
    398  am_hal_itm_enable          0x0000cb15   Gb    1  Code  Hi   0x42
    399  am_hal_itm_print           0x0000cb59   Gb    1  Code  Hi   0x2e
    400  am_hal_mcuctrl_info_get    0x0000cb87   Gb    1  Code  Hi   0x11a
    401  am_hal_pdm_configure       0x0000cca1   Gb    1  Code  Hi   0x15e
    402  am_hal_pdm_disable         0x0000cdff   Gb    1  Code  Hi   0x34
    403  am_hal_pdm_dma_start       0x0000ce35   Gb    1  Code  Hi   0x84
    404  am_hal_pdm_enable          0x0000ceb9   Gb    1  Code  Hi   0x34
    405  am_hal_pdm_fifo_flush      0x0000ceed   Gb    1  Code  Hi   0x28
    406  am_hal_pdm_initialize      0x0000cf15   Gb    1  Code  Hi   0x36
    407  am_hal_pdm_interrupt_clear 0x0000cf4b   Gb    1  Code  Hi   0x26
    408  am_hal_pdm_interrupt_enable
                                    0x0000cf71   Gb    1  Code  Hi   0x2a
    409  am_hal_pdm_interrupt_status_get
                                    0x0000cf9b   Gb    1  Code  Hi   0x30
    410  am_hal_pdm_power_control   0x0000cfcb   Gb    1  Code  Hi   0x78
    411  am_hal_pwrctrl_ldo_vddx_active_trim_adj_default
                                    0x0000d043   Gb    1  Code  Hi   0xac
    412  am_hal_pwrctrl_periph_disable
                                    0x0000d0f1   Gb    1  Code  Hi   0x9e
    413  am_hal_pwrctrl_periph_enable
                                    0x0000d191   Gb    1  Code  Hi   0x6e
    414  am_hal_pwrctrl_simobuck_vddx_active_trim_adj_default
                                    0x0000d1ff   Gb    1  Code  Hi   0xac
    415  am_hal_pwrctrl_wa_vddf_boost
                                    0x0000d2ab   Gb    1  Code  Hi   0x3e
    416  am_hal_pwrctrl_wa_vddf_restore
                                    0x0000d2e9   Gb    1  Code  Hi   0x3e
    417  am_hal_sysctrl_sleep       0x0000d329   Gb    1  Code  Hi   0xa8
    418  am_hal_tpiu_enable         0x0000d3d1   Gb    1  Code  Hi   0x94
    419  am_pdm0_isr                0x0000d465   Gb    1  Code  Hi   0x3c
    420  am_util_delay_ms           0x0000d4a1   Gb    1  Code  Hi   0x26
    421  am_util_faultisr_collect_data
                                    0x0000d4c9   Gb    1  Code  Hi   0x254
    422  am_util_stdio_printf       0x0000d7a5   Gb    1  Code  Hi   0x46
    423  am_util_stdio_printf_init  0x0000d7eb   Gb    1  Code  Hi   0xc
    424  am_util_stdio_terminal_clear
                                    0x0000d7f9   Gb    1  Code  Hi   0x8
    425  am_util_stdio_vsprintf     0x0000d815   Gb    1  Code  Hi   0x714
    426  arm_bitreversal_f32        0x0000df29   Gb    1  Code  Hi   0xbe
    427  arm_cfft_radix4_f32        0x0000dfe7   Gb    1  Code  Hi   0x40
    428  arm_cfft_radix4_init_f32   0x0000e029   Gb    1  Code  Hi   0x94
    429  arm_cmplx_mag_f32          0x0000e0bd   Gb    1  Code  Hi   0x154
    430  arm_max_f32                0x0000e211   Gb    1  Code  Hi   0xbc
    431  arm_radix4_butterfly_f32   0x0000e2cd   Gb    1  Code  Hi   0x35a
    432  arm_radix4_butterfly_inverse_f32
                                    0x0000e629   Gb    1  Code  Hi   0x37a
    433  getStackedReg              0x0000eabb   Gb    1  Code  Hi   0x8
    434  main                       0x0000eac5   Gb    1  Code  Hi   0x6c
    435  pcm_fft_print              0x0000eb45   Gb    1  Code  Hi   0x98
    436  pdm_config_print           0x0000ebf5   Gb    1  Code  Hi   0xa4
    437  pdm_data_get               0x0000ed21   Gb    1  Code  Hi   0x3a
    438  pdm_init                   0x0000ed5b   Gb    1  Code  Hi   0x70
    439  __hardfp_sqrtf             0x0000ee21   Gb    1  Code  De   0x3a
    440  __aeabi_d2f                0x0000ee5d   Gb    1  Code  De 
    441  _d2f                       0x0000ee5d   Gb    1  Code  De   0x62
    442  __fpl_dnaninf              0x0000eebf   Gb    1  Code  De   0x9c
    443  __fpl_dretinf              0x0000ef5b   Gb    1  Code  De   0xc
    444  __aeabi_f2d                0x0000ef69   Gb    1  Code  De 
    445  _f2d                       0x0000ef69   Gb    1  Code  De   0x56
    446  __fpl_fnaninf              0x0000efbf   Gb    1  Code  De   0x8c
    447  _fp_init                   0x0000f04b   Gb    1  Code  De   0x1a
    448  __fplib_config_fpu_vfp     0x0000f063   Gb    1  Code  De 
    449  __fplib_config_pureend_doubles
                                    0x0000f063   Gb    1  Code  De 
    450  __fpl_fretinf              0x0000f065   Gb    1  Code  De   0xa
    451  __I$use$fp                 0x0000f06e   Gb    1   --   Hi 
    452  am_hal_cachectrl_defaults  0x0000f07c   Gb    1  Data  Hi   0x3
    453  am_hal_pwrctrl_peripheral_control
                                    0x0000f080   Gb    1  Data  Hi   0xcc
    454  armBitRevTable             0x0000f14c   Gb    1  Data  Hi   0x800
    455  g_AM_BSP_GPIO_ITM_SWO      0x0000f94c   Gb    1  Data  Hi   0x4
    456  g_AM_HAL_GPIO_OUTPUT       0x0000f950   Gb    1  Data  Hi   0x4
    457  g_am_hal_mcuctrl_flash_size
                                    0x0000f954   Gb    1  Data  Hi   0x40
    458  g_am_hal_mcuctrl_sram_size 0x0000f994   Gb    1  Data  Hi   0x40
    459  twiddleCoef_4096           0x0000fe74   Gb    1  Data  Hi   0x8000
    460  Region$$Table$$Base        0x00017e74   Gb    1   --   Hi 
    461  Region$$Table$$Limit       0x00017ea4   Gb    1   --   Hi 
    462  g_sPdmConfig               0x10011000   Gb    2  Data  Hi   0x20
    463  __libspace_start           0x10011020   Gb    3  Data  De   0x60
    464  PDMHandle                  0x10011080   Gb    3  Data  Hi   0x4
    465  __temporary_stack_top$libspace
                                    0x10011080   Gb    3  Data  De 
    466  gAmHalResetStatus          0x10011084   Gb    3  Data  Hi   0x4
    467  g_am_hal_burst_mode_available
                                    0x10011088   Gb    3  Data  Hi   0x1
    468  g_am_hal_pdm_states        0x1001108c   Gb    3  Data  Hi   0xc
    469  g_am_hal_sysctrl_sleep_count
                                    0x10011098   Gb    3  Data  Hi   0x4
    470  g_bPDMDataReady            0x1001109e   Gb    3  Data  Hi   0x1
    471  g_fPDMMagnitudes           0x100110a0   Gb    3  Data  Hi   0x8000
    472  g_fPDMTimeDomain           0x100190a0   Gb    3  Data  Hi   0x8000
    473  g_pfnCharPrint             0x100210a0   Gb    3  Data  Hi   0x4
    474  g_ui32PDMDataBuffer        0x100214a4   Gb    3  Data  Hi   0x4000
    475  g_ui32SampleFreq           0x100254a8   Gb    3  Data  Hi   0x4


** Section #13 '.strtab' (SHT_STRTAB)
    Size   : 7576 bytes

            #  Offset String
        ====================================

            1      1: $d
            2      4: $t
            3      7: $t.0
            4     12: $d.1
            5     17: $t.2
            6     22: $d.6
            7     27: $t.7
            8     32: $d.3
            9     37: $t.4
           10     42: $d.5
           11     47: $t.9
           12     52: $d.14
           13     58: $t.3
           14     63: $d.4
           15     68: $t.5
           16     73: $d.8
           17     78: $t.1
           18     83: $d.2
           19     88: $d.realdata
           20    100: pdm_fft.c
           21    110: .L.str.1
           22    119: .L.str.2
           23    128: am_util_delay.c
           24    144: am_util_faultisr.c
           25    163: .L.str
           26    170: .L.str.23
           27    180: .L.str.9
           28    189: .L.str.16
           29    199: .L.str.15
           30    209: .L.str.21
           31    219: .L.str.18
           32    229: .L.str.19
           33    239: .L.str.17
           34    249: .L.str.20
           35    259: .L.str.22
           36    269: .L.str.25
           37    279: .L.str.24
           38    289: .L.str.26
           39    299: .L.str.3
           40    308: .L.str.4
           41    317: .L.str.7
           42    326: .L.str.6
           43    335: .L.str.11
           44    345: .L.str.5
           45    354: .L.str.8
           46    363: .L.str.10
           47    373: am_util_stdio.c
           48    389: decstr_to_int
           49    403: uint64_to_str
           50    417: divu64_10
           51    427: g_bTxtXlate
           52    439: g_prfbuf
           53    448: ../keil6/startup_keil6.s
           54    473: STACK
           55    479: StackMem
           56    488: HEAP
           57    493: HeapMem
           58    501: RESET
           59    507: $v0
           60    511: .text
           61    517: am_hal_global.c
           62    533: arm_cmplx_mag_f32.c
           63    553: arm_cfft_radix4_f32.c
           64    575: arm_cfft_radix4_init_f32.c
           65    602: arm_max_f32.c
           66    616: am_bsp.c
           67    625: g_ui32PrintInterface
           68    646: am_hal_cachectrl.c
           69    665: am_hal_clkgen.c
           70    681: am_hal_flash.c
           71    696: .L__const.am_hal_flash_store_ui32.SRAM_write_ui32
           72    746: am_hal_gpio.c
           73    760: g_ui8Bit76Capabilities
           74    783: g_ui8Inpen
           75    794: g_ui8nCEpins
           76    807: g_ui8NCEtable
           77    821: am_hal_interrupt.c
           78    840: am_hal_mcuctrl.c
           79    857: am_hal_pdm.c
           80    870: am_hal_sysctrl.c
           81    887: arm_bitreversal.c
           82    905: arm_common_tables.c
           83    925: am_bsp_pins.c
           84    939: am_hal_burst.c
           85    954: g_bEnFromManual
           86    970: g_bDisFromManual
           87    987: am_hal_itm.c
           88   1000: am_hal_pwrctrl.c
           89   1017: am_hal_reset.c
           90   1032: am_hal_rtc.c
           91   1045: am_hal_tpiu.c
           92   1059: am_hal_uart.c
           93   1073: am_hal_queue.c
           94   1088: dc.s
           95   1093: ../clib/memcpset.s
           96   1112: ../clib/heapaux.c
           97   1130: ../clib/angel/startup.s
           98   1154: !!!main
           99   1162: ../clib/angel/handlers.s
          100   1187: !!handler_copy
          101   1202: ../fplib/d2f.s
          102   1217: x$fpl$d2f
          103   1227: ../fplib/f2d.s
          104   1242: x$fpl$f2d
          105   1252: ../mathlib/sqrtf.c
          106   1271: i.__hardfp_sqrtf
          107   1288: ../clib/angel/kernel.s
          108   1311: .ARM.Collect$$rtentry$$00000000
          109   1343: ../clib/fenv.c
          110   1358: ../fplib/dnaninf.s
          111   1377: x$fpl$dnaninf
          112   1391: ../fplib/dretinf.s
          113   1410: x$fpl$dretinf
          114   1424: ../fplib/fnaninf.s
          115   1443: x$fpl$fnaninf
          116   1457: ../fplib/fretinf.s
          117   1476: x$fpl$fretinf
          118   1490: ../fplib/usenofp.s
          119   1509: x$fpl$usenofp
          120   1523: .ARM.Collect$$rtentry$$00000002
          121   1555: .ARM.Collect$$rtentry$$00000009
          122   1587: .ARM.Collect$$rtentry$$0000000A
          123   1619: .ARM.Collect$$rtentry$$0000000C
          124   1651: .ARM.Collect$$rtentry$$0000000D
          125   1683: .ARM.Collect$$rtentry$$00000004
          126   1715: ../clib/angel/rt.s
          127   1734: ../clib/angel/sys.s
          128   1754: .bss
          129   1759: ../clib/stdlib.c
          130   1776: ../clib/angel/boardlib.s
          131   1801: ../clib/libinit.s
          132   1819: .ARM.Collect$$libinit$$00000000
          133   1851: .ARM.Collect$$rtexit$$00000000
          134   1882: .ARM.Collect$$libinit$$00000001
          135   1914: .ARM.Collect$$libinit$$00000004
          136   1946: .ARM.Collect$$libinit$$0000000A
          137   1978: .ARM.Collect$$libinit$$0000000C
          138   2010: .ARM.Collect$$libinit$$0000000E
          139   2042: .ARM.Collect$$libinit$$00000011
          140   2074: .ARM.Collect$$libinit$$00000013
          141   2106: .ARM.Collect$$libinit$$00000015
          142   2138: .ARM.Collect$$libinit$$00000017
          143   2170: .ARM.Collect$$libinit$$00000019
          144   2202: .ARM.Collect$$libinit$$0000001B
          145   2234: .ARM.Collect$$libinit$$0000001D
          146   2266: .ARM.Collect$$libinit$$0000001F
          147   2298: .ARM.Collect$$libinit$$00000021
          148   2330: .ARM.Collect$$libinit$$00000023
          149   2362: .ARM.Collect$$libinit$$00000025
          150   2394: .ARM.Collect$$libinit$$0000002C
          151   2426: .ARM.Collect$$libinit$$0000002E
          152   2458: .ARM.Collect$$libinit$$00000030
          153   2490: .ARM.Collect$$libinit$$00000032
          154   2522: .ARM.Collect$$libinit$$00000033
          155   2554: .ARM.Collect$$rtexit$$00000002
          156   2585: .ARM.Collect$$rtexit$$00000003
          157   2616: .ARM.Collect$$rtexit$$00000004
          158   2647: ../clib/armsys.c
          159   2664: ../fplib/fpinit.s
          160   2682: x$fpl$fpinit
          161   2695: ../clib/angel/sysapp.c
          162   2718: .ARM.Collect$$libshutdown$$00000000
          163   2754: ../clib/heapalloc.c
          164   2774: ../clib/signal.c
          165   2791: .ARM.Collect$$libshutdown$$00000002
          166   2827: .ARM.Collect$$libshutdown$$00000004
          167   2863: .ARM.Collect$$libshutdown$$00000007
          168   2899: .ARM.Collect$$libshutdown$$0000000A
          169   2935: .ARM.Collect$$libshutdown$$0000000C
          170   2971: .ARM.Collect$$libshutdown$$0000000F
          171   3007: .ARM.Collect$$libshutdown$$00000010
          172   3043: ../clib/signal.s
          173   3060: ../clib/angel/scatter.s
          174   3084: !!!scatter
          175   3095: !!handler_zi
          176   3108: BuildAttributes$$THM_ISAv4$E$P$D$K$B$S$7EM$VFPi3$EXTD16$VFPS$VFMA$PE$A:L22UL41UL21$X:L11$S22US41US21$IEEE1$IW$~IW$USESV6$~STKCKD$USESV7$~SHL$OTIME$ROPI$IEEEJ$EBA8$UX$STANDARDLIB$REQ8$PRES8$EABIv2
          177   3304: __Vectors
          178   3314: __Patchable
          179   3326: Reset_Handler
          180   3340: NMI_Handler
          181   3352: MemManage_Handler
          182   3370: BusFault_Handler
          183   3387: UsageFault_Handler
          184   3406: SVC_Handler
          185   3418: DebugMon_Handler
          186   3435: PendSV_Handler
          187   3450: SysTick_Handler
          188   3466: am_adc_isr
          189   3477: am_ble_isr
          190   3488: am_brownout_isr
          191   3504: am_clkgen_isr
          192   3518: am_ctimer_isr
          193   3532: am_gpio_isr
          194   3544: am_iomaster0_isr
          195   3561: am_iomaster1_isr
          196   3578: am_iomaster2_isr
          197   3595: am_iomaster3_isr
          198   3612: am_iomaster4_isr
          199   3629: am_iomaster5_isr
          200   3646: am_ioslave_acc_isr
          201   3665: am_ioslave_ios_isr
          202   3684: am_mspi0_isr
          203   3697: am_mspi1_isr
          204   3710: am_mspi2_isr
          205   3723: am_rtc_isr
          206   3734: am_scard_isr
          207   3747: am_software0_isr
          208   3764: am_stimer_cmpr0_isr
          209   3784: am_stimer_cmpr1_isr
          210   3804: am_stimer_cmpr2_isr
          211   3824: am_stimer_cmpr3_isr
          212   3844: am_stimer_cmpr4_isr
          213   3864: am_stimer_cmpr5_isr
          214   3884: am_stimer_cmpr6_isr
          215   3904: am_stimer_cmpr7_isr
          216   3924: am_stimer_isr
          217   3938: am_uart0_isr
          218   3951: am_uart1_isr
          219   3964: am_uart_isr
          220   3976: am_vcomp_isr
          221   3989: am_watchdog_isr
          222   4005: __main
          223   4012: __scatterload
          224   4026: __scatterload_rt2
          225   4044: __scatterload_rt2_thumb_only
          226   4073: __scatterload_null
          227   4092: __scatterload_copy
          228   4111: __scatterload_zeroinit
          229   4134: __rt_lib_init
          230   4148: __rt_lib_init_fp_1
          231   4167: __rt_lib_init_alloca_1
          232   4190: __rt_lib_init_argv_1
          233   4211: __rt_lib_init_atexit_1
          234   4234: __rt_lib_init_clock_1
          235   4256: __rt_lib_init_cpp_1
          236   4276: __rt_lib_init_exceptions_1
          237   4303: __rt_lib_init_fp_trap_1
          238   4327: __rt_lib_init_getenv_1
          239   4350: __rt_lib_init_heap_1
          240   4371: __rt_lib_init_lc_collate_1
          241   4398: __rt_lib_init_lc_ctype_1
          242   4423: __rt_lib_init_lc_monetary_1
          243   4451: __rt_lib_init_lc_numeric_1
          244   4478: __rt_lib_init_lc_time_1
          245   4502: __rt_lib_init_preinit_1
          246   4526: __rt_lib_init_rand_1
          247   4547: __rt_lib_init_return
          248   4568: __rt_lib_init_signal_1
          249   4591: __rt_lib_init_stdio_1
          250   4613: __rt_lib_init_user_alloc_1
          251   4640: __rt_lib_shutdown
          252   4658: __rt_lib_shutdown_cpp_1
          253   4682: __rt_lib_shutdown_fp_trap_1
          254   4710: __rt_lib_shutdown_heap_1
          255   4735: __rt_lib_shutdown_return
          256   4760: __rt_lib_shutdown_signal_1
          257   4787: __rt_lib_shutdown_stdio_1
          258   4813: __rt_lib_shutdown_user_alloc_1
          259   4844: __rt_entry
          260   4855: __rt_entry_presh_1
          261   4874: __rt_entry_sh
          262   4888: __rt_entry_li
          263   4902: __rt_entry_postsh_1
          264   4922: __rt_entry_main
          265   4938: __rt_entry_postli_1
          266   4958: __rt_exit
          267   4968: __rt_exit_ls
          268   4981: __rt_exit_prels_1
          269   4999: __rt_exit_exit
          270   5014: __user_initial_stackheap
          271   5039: __aeabi_memclr4
          272   5055: __aeabi_memclr8
          273   5071: __rt_memclr_w
          274   5085: _memset_w
          275   5095: __use_two_region_memory
          276   5119: __rt_heap_escrow$2region
          277   5144: __rt_heap_expand$2region
          278   5169: __read_errno
          279   5182: __set_errno
          280   5194: __aeabi_errno_addr
          281   5213: __errno$intlibspace
          282   5233: __rt_errno_addr$intlibspace
          283   5261: __user_libspace
          284   5277: __user_perproc_libspace
          285   5301: __user_perthread_libspace
          286   5327: __user_setup_stackheap
          287   5350: exit
          288   5355: _sys_exit
          289   5365: __I$use$semihosting
          290   5385: __use_no_semihosting_swi
          291   5410: HardFault_Handler
          292   5428: __semihosting_library_function
          293   5459: am_bsp_itm_printf_enable
          294   5484: am_hal_burst_ldo_patch_check
          295   5513: am_hal_burst_mode_disable
          296   5539: am_hal_burst_mode_disable_w_manual_sequence
          297   5583: am_hal_burst_mode_enable
          298   5608: am_hal_burst_mode_enable_w_manual_sequence
          299   5651: am_hal_cachectrl_config
          300   5675: am_hal_cachectrl_enable
          301   5699: am_hal_clkgen_control
          302   5721: am_hal_clkgen_status_get
          303   5746: am_hal_flash_delay
          304   5765: am_hal_flash_delay_status_check
          305   5797: am_hal_flash_store_ui32
          306   5821: am_hal_gpio_pinconfig
          307   5843: am_hal_gpio_state_write
          308   5867: am_hal_interrupt_master_disable
          309   5899: am_hal_interrupt_master_enable
          310   5930: am_hal_interrupt_master_set
          311   5958: am_hal_itm_enable
          312   5976: am_hal_itm_print
          313   5993: am_hal_mcuctrl_info_get
          314   6017: am_hal_pdm_configure
          315   6038: am_hal_pdm_disable
          316   6057: am_hal_pdm_dma_start
          317   6078: am_hal_pdm_enable
          318   6096: am_hal_pdm_fifo_flush
          319   6118: am_hal_pdm_initialize
          320   6140: am_hal_pdm_interrupt_clear
          321   6167: am_hal_pdm_interrupt_enable
          322   6195: am_hal_pdm_interrupt_status_get
          323   6227: am_hal_pdm_power_control
          324   6252: am_hal_pwrctrl_ldo_vddx_active_trim_adj_default
          325   6300: am_hal_pwrctrl_periph_disable
          326   6330: am_hal_pwrctrl_periph_enable
          327   6359: am_hal_pwrctrl_simobuck_vddx_active_trim_adj_default
          328   6412: am_hal_pwrctrl_wa_vddf_boost
          329   6441: am_hal_pwrctrl_wa_vddf_restore
          330   6472: am_hal_sysctrl_sleep
          331   6493: am_hal_tpiu_enable
          332   6512: am_pdm0_isr
          333   6524: am_util_delay_ms
          334   6541: am_util_faultisr_collect_data
          335   6571: am_util_stdio_printf
          336   6592: am_util_stdio_printf_init
          337   6618: am_util_stdio_terminal_clear
          338   6647: am_util_stdio_vsprintf
          339   6670: arm_bitreversal_f32
          340   6690: arm_cfft_radix4_f32
          341   6710: arm_cfft_radix4_init_f32
          342   6735: arm_cmplx_mag_f32
          343   6753: arm_max_f32
          344   6765: arm_radix4_butterfly_f32
          345   6790: arm_radix4_butterfly_inverse_f32
          346   6823: getStackedReg
          347   6837: main
          348   6842: pcm_fft_print
          349   6856: pdm_config_print
          350   6873: pdm_data_get
          351   6886: pdm_init
          352   6895: __hardfp_sqrtf
          353   6910: __aeabi_d2f
          354   6922: _d2f
          355   6927: __fpl_dnaninf
          356   6941: __fpl_dretinf
          357   6955: __aeabi_f2d
          358   6967: _f2d
          359   6972: __fpl_fnaninf
          360   6986: _fp_init
          361   6995: __fplib_config_fpu_vfp
          362   7018: __fplib_config_pureend_doubles
          363   7049: __fpl_fretinf
          364   7063: __I$use$fp
          365   7074: am_hal_cachectrl_defaults
          366   7100: am_hal_pwrctrl_peripheral_control
          367   7134: armBitRevTable
          368   7149: g_AM_BSP_GPIO_ITM_SWO
          369   7171: g_AM_HAL_GPIO_OUTPUT
          370   7192: g_am_hal_mcuctrl_flash_size
          371   7220: g_am_hal_mcuctrl_sram_size
          372   7247: twiddleCoef_4096
          373   7264: Region$$Table$$Base
          374   7284: Region$$Table$$Limit
          375   7305: g_sPdmConfig
          376   7318: __libspace_start
          377   7335: PDMHandle
          378   7345: __temporary_stack_top$libspace
          379   7376: gAmHalResetStatus
          380   7394: g_am_hal_burst_mode_available
          381   7424: g_am_hal_pdm_states
          382   7444: g_am_hal_sysctrl_sleep_count
          383   7473: g_bPDMDataReady
          384   7489: g_fPDMMagnitudes
          385   7506: g_fPDMTimeDomain
          386   7523: g_pfnCharPrint
          387   7538: g_ui32PDMDataBuffer
          388   7558: g_ui32SampleFreq
          389   7575: 


** Section #14 '.note' (SHT_NOTE)
    Size   : 32 bytes (alignment 4)


** Section #15 '.comment' (SHT_PROGBITS)
    Size   : 1704 bytes


** Section #16 '.shstrtab' (SHT_STRTAB)
    Size   : 156 bytes

            #  Offset String
        ====================================

            1      1: ROMEM
            2      7: RWMEM
            3     13: TCM
            4     17: STACKMEM
            5     26: .debug_abbrev
            6     40: .debug_frame
            7     53: .debug_info
            8     65: .debug_line
            9     77: .debug_loc
           10     88: .debug_str
           11     99: .debug_ranges
           12    113: .symtab
           13    121: .strtab
           14    129: .note
           15    135: .comment
           16    144: .shstrtab
           17    154: 
           18    155: 


