
========================================================================

** ELF Header Information

    File Name: bin\emmc_raw_block_read_write.axf

    Machine class: ELFCLASS32 (32-bit)
    Data encoding: ELFDATA2LSB (Little endian)
    Header version: EV_CURRENT (Current version)
    Operating System ABI: none
    ABI Version: 0
    File Type: ET_EXEC (Executable) (2)
    Machine: EM_ARM (ARM)

    Image Entry point: 0x00018235
    Flags: EF_ARM_HASENTRY + EF_ARM_ABI_FLOAT_HARD (0x05000402)

    ARM ELF revision: 5 (ABI version 2)

    Conforms to Hard float procedure-call standard

    Built with
    Component: ARM Compiler 6.16 Tool: armasm [5dfea300]
    Component: ARM Compiler 6.16 Tool: armlink [5dfeaa00]

    Header size: 52 bytes (0x34)
    Program header entry size: 32 bytes (0x20)
    Section header entry size: 40 bytes (0x28)

    Program header entries: 1
    Section header entries: 16

    Program header offset: 189912 (0x0002e5d8)
    Section header offset: 189944 (0x0002e5f8)

    Section header string table index: 15

========================================================================

** Program header #0 (PT_LOAD) [PF_X + PF_W + PF_R + PF_ARM_ENTRY]
    Size : 45888 bytes (24640 bytes in file)
    Virtual address: 0x00018000 (Alignment 4096)


========================================================================

** Section #1 'MCU_MRAM' (SHT_PROGBITS) [SHF_ALLOC + SHF_EXECINSTR]
    Size   : 20028 bytes (alignment 4)
    Address: 0x00018000

    $d
    RESET
    __Vectors
        0x00018000:    10006300    .c..    DCD    268460800
        0x00018004:    00018201    ....    DCD    98817
        0x00018008:    0001821f    ....    DCD    98847
        0x0001800c:    00018455    U...    DCD    99413
        0x00018010:    00018221    !...    DCD    98849
        0x00018014:    00018223    #...    DCD    98851
        0x00018018:    00018225    %...    DCD    98853
        0x0001801c:    00000000    ....    DCD    0
        0x00018020:    00000000    ....    DCD    0
        0x00018024:    00000000    ....    DCD    0
        0x00018028:    00000000    ....    DCD    0
        0x0001802c:    00018227    '...    DCD    98855
        0x00018030:    00018229    )...    DCD    98857
        0x00018034:    00000000    ....    DCD    0
        0x00018038:    0001822b    +...    DCD    98859
        0x0001803c:    0001822d    -...    DCD    98861
        0x00018040:    0001822f    /...    DCD    98863
        0x00018044:    0001822f    /...    DCD    98863
        0x00018048:    0001822f    /...    DCD    98863
        0x0001804c:    0001822f    /...    DCD    98863
        0x00018050:    0001822f    /...    DCD    98863
        0x00018054:    0001822f    /...    DCD    98863
        0x00018058:    0001822f    /...    DCD    98863
        0x0001805c:    0001822f    /...    DCD    98863
        0x00018060:    0001822f    /...    DCD    98863
        0x00018064:    0001822f    /...    DCD    98863
        0x00018068:    0001822f    /...    DCD    98863
        0x0001806c:    0001822f    /...    DCD    98863
        0x00018070:    0001822f    /...    DCD    98863
        0x00018074:    0001822f    /...    DCD    98863
        0x00018078:    0001822f    /...    DCD    98863
        0x0001807c:    0001822f    /...    DCD    98863
        0x00018080:    0001822f    /...    DCD    98863
        0x00018084:    0001822f    /...    DCD    98863
        0x00018088:    0001822f    /...    DCD    98863
        0x0001808c:    0001822f    /...    DCD    98863
        0x00018090:    0001822f    /...    DCD    98863
        0x00018094:    0001822f    /...    DCD    98863
        0x00018098:    0001822f    /...    DCD    98863
        0x0001809c:    0001822f    /...    DCD    98863
        0x000180a0:    0001822f    /...    DCD    98863
        0x000180a4:    0001822f    /...    DCD    98863
        0x000180a8:    0001b225    %...    DCD    111141
        0x000180ac:    0001822f    /...    DCD    98863
        0x000180b0:    0001822f    /...    DCD    98863
        0x000180b4:    0001822f    /...    DCD    98863
        0x000180b8:    0001822f    /...    DCD    98863
        0x000180bc:    0001822f    /...    DCD    98863
        0x000180c0:    0001822f    /...    DCD    98863
        0x000180c4:    0001822f    /...    DCD    98863
        0x000180c8:    0001822f    /...    DCD    98863
        0x000180cc:    0001822f    /...    DCD    98863
        0x000180d0:    0001822f    /...    DCD    98863
        0x000180d4:    0001822f    /...    DCD    98863
        0x000180d8:    0001822f    /...    DCD    98863
        0x000180dc:    0001822f    /...    DCD    98863
        0x000180e0:    0001822f    /...    DCD    98863
        0x000180e4:    0001822f    /...    DCD    98863
        0x000180e8:    0001822f    /...    DCD    98863
        0x000180ec:    0001822f    /...    DCD    98863
        0x000180f0:    0001822f    /...    DCD    98863
        0x000180f4:    0001822f    /...    DCD    98863
        0x000180f8:    0001822f    /...    DCD    98863
        0x000180fc:    0001822f    /...    DCD    98863
        0x00018100:    0001822f    /...    DCD    98863
        0x00018104:    0001822f    /...    DCD    98863
        0x00018108:    0001822f    /...    DCD    98863
        0x0001810c:    0001822f    /...    DCD    98863
        0x00018110:    0001822f    /...    DCD    98863
        0x00018114:    0001822f    /...    DCD    98863
        0x00018118:    0001822f    /...    DCD    98863
        0x0001811c:    0001822f    /...    DCD    98863
        0x00018120:    0001822f    /...    DCD    98863
        0x00018124:    0001822f    /...    DCD    98863
        0x00018128:    0001822f    /...    DCD    98863
        0x0001812c:    0001822f    /...    DCD    98863
        0x00018130:    0001822f    /...    DCD    98863
        0x00018134:    0001822f    /...    DCD    98863
        0x00018138:    0001822f    /...    DCD    98863
        0x0001813c:    0001822f    /...    DCD    98863
        0x00018140:    0001822f    /...    DCD    98863
        0x00018144:    0001822f    /...    DCD    98863
        0x00018148:    0001822f    /...    DCD    98863
        0x0001814c:    0001822f    /...    DCD    98863
        0x00018150:    0001822f    /...    DCD    98863
        0x00018154:    0001822f    /...    DCD    98863
        0x00018158:    0001822f    /...    DCD    98863
        0x0001815c:    0001822f    /...    DCD    98863
        0x00018160:    0001822f    /...    DCD    98863
        0x00018164:    0001822f    /...    DCD    98863
        0x00018168:    0001822f    /...    DCD    98863
        0x0001816c:    0001822f    /...    DCD    98863
        0x00018170:    0001822f    /...    DCD    98863
        0x00018174:    0001822f    /...    DCD    98863
        0x00018178:    0001822f    /...    DCD    98863
        0x0001817c:    0001822f    /...    DCD    98863
        0x00018180:    0001822f    /...    DCD    98863
        0x00018184:    0001822f    /...    DCD    98863
        0x00018188:    0001822f    /...    DCD    98863
        0x0001818c:    0001822f    /...    DCD    98863
    __Patchable
        0x00018190:    00000000    ....    DCD    0
        0x00018194:    00000000    ....    DCD    0
        0x00018198:    00000000    ....    DCD    0
        0x0001819c:    00000000    ....    DCD    0
        0x000181a0:    00000000    ....    DCD    0
        0x000181a4:    00000000    ....    DCD    0
        0x000181a8:    00000000    ....    DCD    0
        0x000181ac:    00000000    ....    DCD    0
        0x000181b0:    00000000    ....    DCD    0
        0x000181b4:    00000000    ....    DCD    0
        0x000181b8:    00000000    ....    DCD    0
        0x000181bc:    00000000    ....    DCD    0
        0x000181c0:    00000000    ....    DCD    0
        0x000181c4:    00000000    ....    DCD    0
        0x000181c8:    00000000    ....    DCD    0
        0x000181cc:    00000000    ....    DCD    0
        0x000181d0:    00000000    ....    DCD    0
        0x000181d4:    00000000    ....    DCD    0
        0x000181d8:    00000000    ....    DCD    0
        0x000181dc:    00000000    ....    DCD    0
        0x000181e0:    00000000    ....    DCD    0
        0x000181e4:    00000000    ....    DCD    0
        0x000181e8:    00000000    ....    DCD    0
        0x000181ec:    00000000    ....    DCD    0
        0x000181f0:    00000000    ....    DCD    0
        0x000181f4:    00000000    ....    DCD    0
        0x000181f8:    00000000    ....    DCD    0
        0x000181fc:    00000000    ....    DCD    0
    $t
    $v0
    Reset_Handler
        0x00018200:    f64e5088    N..P    MOV      r0,#0xed88
        0x00018204:    f2ce0000    ....    MOVT     r0,#0xe000
        0x00018208:    6801        .h      LDR      r1,[r0,#0]
        0x0001820a:    f4410170    A.p.    ORR      r1,r1,#0xf00000
        0x0001820e:    6001        .`      STR      r1,[r0,#0]
        0x00018210:    f3bf8f4f    ..O.    DSB      
        0x00018214:    f3bf8f6f    ..o.    ISB      
        0x00018218:    4805        .H      LDR      r0,[pc,#20] ; [0x18230] = 0x18235
        0x0001821a:    4700        .G      BX       r0
        0x0001821c:    e7fe        ..      B        0x1821c ; Reset_Handler + 28
    NMI_Handler
        0x0001821e:    e7fe        ..      B        NMI_Handler ; 0x1821e
    MemManage_Handler
        0x00018220:    e7fe        ..      B        MemManage_Handler ; 0x18220
    BusFault_Handler
        0x00018222:    e7fe        ..      B        BusFault_Handler ; 0x18222
    UsageFault_Handler
        0x00018224:    e7fe        ..      B        UsageFault_Handler ; 0x18224
    SVC_Handler
        0x00018226:    e7fe        ..      B        SVC_Handler ; 0x18226
    DebugMon_Handler
        0x00018228:    e7fe        ..      B        DebugMon_Handler ; 0x18228
    PendSV_Handler
        0x0001822a:    e7fe        ..      B        PendSV_Handler ; 0x1822a
    SysTick_Handler
        0x0001822c:    e7fe        ..      B        SysTick_Handler ; 0x1822c
    am_cryptosec_isr
    am_default_isr
    am_adc_isr
    am_audadc0_isr
    am_brownout_isr
    am_cachecpu_isr
    am_clkgen_isr
    am_ctimer_isr
    am_disp_isr
    am_dsi_isr
    am_dspi2s0_isr
    am_dspi2s1_isr
    am_dspi2s2_isr
    am_dspi2s3_isr
    am_gpio0_001f_isr
    am_gpio0_203f_isr
    am_gpio0_405f_isr
    am_gpio0_607f_isr
    am_gpio1_001f_isr
    am_gpio1_203f_isr
    am_gpio1_405f_isr
    am_gpio1_607f_isr
    am_gpu_isr
    am_iomaster0_isr
    am_iomaster1_isr
    am_iomaster2_isr
    am_iomaster3_isr
    am_iomaster4_isr
    am_iomaster5_isr
    am_iomaster6_isr
    am_iomaster7_isr
    am_ioslave_acc_isr
    am_ioslave_ios_isr
    am_mspi0_isr
    am_mspi1_isr
    am_mspi2_isr
    am_pdm0_isr
    am_pdm1_isr
    am_pdm2_isr
    am_pdm3_isr
    am_rtc_isr
    am_stimer_cmpr0_isr
    am_stimer_cmpr1_isr
    am_stimer_cmpr2_isr
    am_stimer_cmpr3_isr
    am_stimer_cmpr4_isr
    am_stimer_cmpr5_isr
    am_stimer_cmpr6_isr
    am_stimer_cmpr7_isr
    am_stimerof_isr
    am_timer00_isr
    am_timer01_isr
    am_timer02_isr
    am_timer03_isr
    am_timer04_isr
    am_timer05_isr
    am_timer06_isr
    am_timer07_isr
    am_timer08_isr
    am_timer09_isr
    am_timer10_isr
    am_timer11_isr
    am_timer12_isr
    am_timer13_isr
    am_timer14_isr
    am_timer15_isr
    am_uart1_isr
    am_uart2_isr
    am_uart3_isr
    am_uart_isr
    am_usb_isr
    am_vcomp_isr
    am_watchdog_isr
        0x0001822e:    e7fe        ..      B        am_cryptosec_isr ; 0x1822e
    $d
        0x00018230:    00018235    5...    DCD    98869
    $t
    !!!main
    __main
        0x00018234:    f000f802    ....    BL       __scatterload ; 0x1823c
        0x00018238:    f000f86a    ..j.    BL       __rt_entry ; 0x18310
    !!!scatter
    __scatterload
    __scatterload_rt2
    __scatterload_rt2_thumb_only
        0x0001823c:    a00a        ..      ADR      r0,{pc}+0x2c ; 0x18268
        0x0001823e:    e8900c00    ....    LDM      r0,{r10,r11}
        0x00018242:    4482        .D      ADD      r10,r10,r0
        0x00018244:    4483        .D      ADD      r11,r11,r0
        0x00018246:    f1aa0701    ....    SUB      r7,r10,#1
    __scatterload_null
        0x0001824a:    45da        .E      CMP      r10,r11
        0x0001824c:    d101        ..      BNE      0x18252 ; __scatterload_null + 8
        0x0001824e:    f000f85f    .._.    BL       __rt_entry ; 0x18310
        0x00018252:    f2af0e09    ....    ADR      lr,{pc}-7 ; 0x1824b
        0x00018256:    e8ba000f    ....    LDM      r10!,{r0-r3}
        0x0001825a:    f0130f01    ....    TST      r3,#1
        0x0001825e:    bf18        ..      IT       NE
        0x00018260:    1afb        ..      SUBNE    r3,r7,r3
        0x00018262:    f0430301    C...    ORR      r3,r3,#1
        0x00018266:    4718        .G      BX       r3
    $d
        0x00018268:    00004ba4    .K..    DCD    19364
        0x0001826c:    00004bd4    .K..    DCD    19412
    $t
    !!dczerorl2
    __decompress
    __decompress1
        0x00018270:    440a        .D      ADD      r2,r2,r1
        0x00018272:    f04f0c00    O...    MOV      r12,#0
        0x00018276:    f8103b01    ...;    LDRB     r3,[r0],#1
        0x0001827a:    f0130407    ....    ANDS     r4,r3,#7
        0x0001827e:    bf08        ..      IT       EQ
        0x00018280:    f8104b01    ...K    LDRBEQ   r4,[r0],#1
        0x00018284:    111d        ..      ASRS     r5,r3,#4
        0x00018286:    bf08        ..      IT       EQ
        0x00018288:    f8105b01    ...[    LDRBEQ   r5,[r0],#1
        0x0001828c:    1e64        d.      SUBS     r4,r4,#1
        0x0001828e:    d005        ..      BEQ      0x1829c ; __decompress + 44
        0x00018290:    f8106b01    ...k    LDRB     r6,[r0],#1
        0x00018294:    1e64        d.      SUBS     r4,r4,#1
        0x00018296:    f8016b01    ...k    STRB     r6,[r1],#1
        0x0001829a:    d1f9        ..      BNE      0x18290 ; __decompress + 32
        0x0001829c:    f0130f08    ....    TST      r3,#8
        0x000182a0:    bf1e        ..      ITTT     NE
        0x000182a2:    f8104b01    ...K    LDRBNE   r4,[r0],#1
        0x000182a6:    1cad        ..      ADDNE    r5,r5,#2
        0x000182a8:    1b0c        ..      SUBNE    r4,r1,r4
        0x000182aa:    d109        ..      BNE      0x182c0 ; __decompress + 80
        0x000182ac:    1e6d        m.      SUBS     r5,r5,#1
        0x000182ae:    bf58        X.      IT       PL
        0x000182b0:    f801cb01    ....    STRBPL   r12,[r1],#1
        0x000182b4:    d5fa        ..      BPL      0x182ac ; __decompress + 60
        0x000182b6:    e005        ..      B        0x182c4 ; __decompress + 84
        0x000182b8:    f8146b01    ...k    LDRB     r6,[r4],#1
        0x000182bc:    f8016b01    ...k    STRB     r6,[r1],#1
        0x000182c0:    1e6d        m.      SUBS     r5,r5,#1
        0x000182c2:    d5f9        ..      BPL      0x182b8 ; __decompress + 72
        0x000182c4:    4291        .B      CMP      r1,r2
        0x000182c6:    d3d6        ..      BCC      0x18276 ; __decompress + 6
        0x000182c8:    4770        pG      BX       lr
        0x000182ca:    0000        ..      MOVS     r0,r0
    !!handler_copy
    __scatterload_copy
        0x000182cc:    3a10        .:      SUBS     r2,r2,#0x10
        0x000182ce:    bf24        $.      ITT      CS
        0x000182d0:    c878        x.      LDMCS    r0!,{r3-r6}
        0x000182d2:    c178        x.      STMCS    r1!,{r3-r6}
        0x000182d4:    d8fa        ..      BHI      __scatterload_copy ; 0x182cc
        0x000182d6:    0752        R.      LSLS     r2,r2,#29
        0x000182d8:    bf24        $.      ITT      CS
        0x000182da:    c830        0.      LDMCS    r0!,{r4,r5}
        0x000182dc:    c130        0.      STMCS    r1!,{r4,r5}
        0x000182de:    bf44        D.      ITT      MI
        0x000182e0:    6804        .h      LDRMI    r4,[r0,#0]
        0x000182e2:    600c        .`      STRMI    r4,[r1,#0]
        0x000182e4:    4770        pG      BX       lr
        0x000182e6:    0000        ..      MOVS     r0,r0
    !!handler_zi
    __scatterload_zeroinit
        0x000182e8:    2300        .#      MOVS     r3,#0
        0x000182ea:    2400        .$      MOVS     r4,#0
        0x000182ec:    2500        .%      MOVS     r5,#0
        0x000182ee:    2600        .&      MOVS     r6,#0
        0x000182f0:    3a10        .:      SUBS     r2,r2,#0x10
        0x000182f2:    bf28        (.      IT       CS
        0x000182f4:    c178        x.      STMCS    r1!,{r3-r6}
        0x000182f6:    d8fb        ..      BHI      0x182f0 ; __scatterload_zeroinit + 8
        0x000182f8:    0752        R.      LSLS     r2,r2,#29
        0x000182fa:    bf28        (.      IT       CS
        0x000182fc:    c130        0.      STMCS    r1!,{r4,r5}
        0x000182fe:    bf48        H.      IT       MI
        0x00018300:    600b        .`      STRMI    r3,[r1,#0]
        0x00018302:    4770        pG      BX       lr
    .ARM.Collect$$libinit$$00000000
    __rt_lib_init
        0x00018304:    b51f        ..      PUSH     {r0-r4,lr}
    .ARM.Collect$$libinit$$00000001
    __rt_lib_init_fp_1
        0x00018306:    f004faea    ....    BL       _fp_init ; 0x1c8de
    .ARM.Collect$$libinit$$00000004
    .ARM.Collect$$libinit$$0000000A
    .ARM.Collect$$libinit$$0000000C
    .ARM.Collect$$libinit$$0000000E
    .ARM.Collect$$libinit$$00000011
    .ARM.Collect$$libinit$$00000013
    .ARM.Collect$$libinit$$00000015
    .ARM.Collect$$libinit$$00000017
    .ARM.Collect$$libinit$$00000019
    .ARM.Collect$$libinit$$0000001B
    .ARM.Collect$$libinit$$0000001D
    .ARM.Collect$$libinit$$0000001F
    .ARM.Collect$$libinit$$00000021
    .ARM.Collect$$libinit$$00000023
    .ARM.Collect$$libinit$$00000025
    .ARM.Collect$$libinit$$0000002C
    .ARM.Collect$$libinit$$0000002E
    .ARM.Collect$$libinit$$00000030
    .ARM.Collect$$libinit$$00000032
    .ARM.Collect$$libinit$$00000033
    __rt_lib_init_alloca_1
    __rt_lib_init_argv_1
    __rt_lib_init_atexit_1
    __rt_lib_init_clock_1
    __rt_lib_init_cpp_1
    __rt_lib_init_exceptions_1
    __rt_lib_init_fp_trap_1
    __rt_lib_init_getenv_1
    __rt_lib_init_heap_1
    __rt_lib_init_lc_collate_1
    __rt_lib_init_lc_ctype_1
    __rt_lib_init_lc_monetary_1
    __rt_lib_init_lc_numeric_1
    __rt_lib_init_lc_time_1
    __rt_lib_init_preinit_1
    __rt_lib_init_rand_1
    __rt_lib_init_return
    __rt_lib_init_signal_1
    __rt_lib_init_stdio_1
    __rt_lib_init_user_alloc_1
        0x0001830a:    bd1f        ..      POP      {r0-r4,pc}
    .ARM.Collect$$libshutdown$$00000000
    __rt_lib_shutdown
        0x0001830c:    b510        ..      PUSH     {r4,lr}
    .ARM.Collect$$libshutdown$$00000002
    .ARM.Collect$$libshutdown$$00000004
    .ARM.Collect$$libshutdown$$00000007
    .ARM.Collect$$libshutdown$$0000000A
    .ARM.Collect$$libshutdown$$0000000C
    .ARM.Collect$$libshutdown$$0000000F
    .ARM.Collect$$libshutdown$$00000010
    __rt_lib_shutdown_cpp_1
    __rt_lib_shutdown_fp_trap_1
    __rt_lib_shutdown_heap_1
    __rt_lib_shutdown_return
    __rt_lib_shutdown_signal_1
    __rt_lib_shutdown_stdio_1
    __rt_lib_shutdown_user_alloc_1
        0x0001830e:    bd10        ..      POP      {r4,pc}
    .ARM.Collect$$rtentry$$00000000
    .ARM.Collect$$rtentry$$00000002
    .ARM.Collect$$rtentry$$00000004
    __rt_entry
    __rt_entry_presh_1
    __rt_entry_sh
        0x00018310:    f000f866    ..f.    BL       __user_setup_stackheap ; 0x183e0
        0x00018314:    4611        .F      MOV      r1,r2
    .ARM.Collect$$rtentry$$00000009
    .ARM.Collect$$rtentry$$0000000A
    __rt_entry_li
    __rt_entry_postsh_1
        0x00018316:    f7fffff5    ....    BL       __rt_lib_init ; 0x18304
    .ARM.Collect$$rtentry$$0000000C
    .ARM.Collect$$rtentry$$0000000D
    __rt_entry_main
    __rt_entry_postli_1
        0x0001831a:    f003ff03    ....    BL       main ; 0x1c124
        0x0001831e:    f000f884    ....    BL       exit ; 0x1842a
    .ARM.Collect$$rtexit$$00000000
    __rt_exit
        0x00018322:    b403        ..      PUSH     {r0,r1}
    .ARM.Collect$$rtexit$$00000002
    .ARM.Collect$$rtexit$$00000003
    __rt_exit_ls
    __rt_exit_prels_1
        0x00018324:    f7fffff2    ....    BL       __rt_lib_shutdown ; 0x1830c
    .ARM.Collect$$rtexit$$00000004
    __rt_exit_exit
        0x00018328:    bc03        ..      POP      {r0,r1}
        0x0001832a:    f000f88b    ....    BL       _sys_exit ; 0x18444
        0x0001832e:    0000        ..      MOVS     r0,r0
    .text
    $v0
    __user_initial_stackheap
        0x00018330:    4802        .H      LDR      r0,[pc,#8] ; [0x1833c] = 0x10003800
        0x00018332:    4903        .I      LDR      r1,[pc,#12] ; [0x18340] = 0x10006300
        0x00018334:    4a01        .J      LDR      r2,[pc,#4] ; [0x1833c] = 0x10003800
        0x00018336:    4b03        .K      LDR      r3,[pc,#12] ; [0x18344] = 0x10003800
        0x00018338:    4770        pG      BX       lr
    $d
        0x0001833a:    0000        ..      DCW    0
        0x0001833c:    10003800    .8..    DCD    268449792
        0x00018340:    10006300    .c..    DCD    268460800
        0x00018344:    10003800    .8..    DCD    268449792
    $t
    .text
    __aeabi_memclr
    __rt_memclr
        0x00018348:    f04f0200    O...    MOV      r2,#0
    _memset
        0x0001834c:    2904        .)      CMP      r1,#4
        0x0001834e:    f0c08012    ....    BCC.W    0x18376 ; _memset + 42
        0x00018352:    f0100c03    ....    ANDS     r12,r0,#3
        0x00018356:    f000801b    ....    BEQ.W    _memset_w ; 0x18390
        0x0001835a:    f1cc0c04    ....    RSB      r12,r12,#4
        0x0001835e:    f1bc0f02    ....    CMP      r12,#2
        0x00018362:    bf18        ..      IT       NE
        0x00018364:    f8002b01    ...+    STRBNE   r2,[r0],#1
        0x00018368:    bfa8        ..      IT       GE
        0x0001836a:    f8202b02     ..+    STRHGE   r2,[r0],#2
        0x0001836e:    eba1010c    ....    SUB      r1,r1,r12
        0x00018372:    f000b80d    ....    B.W      _memset_w ; 0x18390
        0x00018376:    ea5f7cc1    _..|    LSLS     r12,r1,#31
        0x0001837a:    bf24        $.      ITT      CS
        0x0001837c:    f8002b01    ...+    STRBCS   r2,[r0],#1
        0x00018380:    f8002b01    ...+    STRBCS   r2,[r0],#1
        0x00018384:    bf48        H.      IT       MI
        0x00018386:    f8002b01    ...+    STRBMI   r2,[r0],#1
        0x0001838a:    4770        pG      BX       lr
    .text
    __aeabi_memclr4
    __aeabi_memclr8
    __rt_memclr_w
        0x0001838c:    f04f0200    O...    MOV      r2,#0
    _memset_w
        0x00018390:    b500        ..      PUSH     {lr}
        0x00018392:    4613        .F      MOV      r3,r2
        0x00018394:    4694        .F      MOV      r12,r2
        0x00018396:    4696        .F      MOV      lr,r2
        0x00018398:    3920         9      SUBS     r1,r1,#0x20
        0x0001839a:    bf22        ".      ITTT     CS
        0x0001839c:    e8a0500c    ...P    STMCS    r0!,{r2,r3,r12,lr}
        0x000183a0:    e8a0500c    ...P    STMCS    r0!,{r2,r3,r12,lr}
        0x000183a4:    f1b10120    .. .    SUBSCS   r1,r1,#0x20
        0x000183a8:    f4bfaff7    ....    BCS.W    0x1839a ; _memset_w + 10
        0x000183ac:    0709        ..      LSLS     r1,r1,#28
        0x000183ae:    bf28        (.      IT       CS
        0x000183b0:    e8a0500c    ...P    STMCS    r0!,{r2,r3,r12,lr}
        0x000183b4:    bf48        H.      IT       MI
        0x000183b6:    c00c        ..      STMMI    r0!,{r2,r3}
        0x000183b8:    f85deb04    ]...    POP      {lr}
        0x000183bc:    0089        ..      LSLS     r1,r1,#2
        0x000183be:    bf28        (.      IT       CS
        0x000183c0:    f8402b04    @..+    STRCS    r2,[r0],#4
        0x000183c4:    bf08        ..      IT       EQ
        0x000183c6:    4770        pG      BXEQ     lr
        0x000183c8:    bf48        H.      IT       MI
        0x000183ca:    f8202b02     ..+    STRHMI   r2,[r0],#2
        0x000183ce:    f0114f80    ...O    TST      r1,#0x40000000
        0x000183d2:    bf18        ..      IT       NE
        0x000183d4:    f8002b01    ...+    STRBNE   r2,[r0],#1
        0x000183d8:    4770        pG      BX       lr
    .text
    __use_two_region_memory
        0x000183da:    4770        pG      BX       lr
    __rt_heap_escrow$2region
        0x000183dc:    4770        pG      BX       lr
    __rt_heap_expand$2region
        0x000183de:    4770        pG      BX       lr
    .text
    __user_setup_stackheap
        0x000183e0:    4675        uF      MOV      r5,lr
        0x000183e2:    f000f82b    ..+.    BL       __user_libspace ; 0x1843c
        0x000183e6:    46ae        .F      MOV      lr,r5
        0x000183e8:    0005        ..      MOVS     r5,r0
        0x000183ea:    4669        iF      MOV      r1,sp
        0x000183ec:    4653        SF      MOV      r3,r10
        0x000183ee:    f0200007     ...    BIC      r0,r0,#7
        0x000183f2:    4685        .F      MOV      sp,r0
        0x000183f4:    b018        ..      ADD      sp,sp,#0x60
        0x000183f6:    b520         .      PUSH     {r5,lr}
        0x000183f8:    f7ffff9a    ....    BL       __user_initial_stackheap ; 0x18330
        0x000183fc:    e8bd4020    .. @    POP      {r5,lr}
        0x00018400:    f04f0600    O...    MOV      r6,#0
        0x00018404:    f04f0700    O...    MOV      r7,#0
        0x00018408:    f04f0800    O...    MOV      r8,#0
        0x0001840c:    f04f0b00    O...    MOV      r11,#0
        0x00018410:    46ac        .F      MOV      r12,r5
        0x00018412:    e8ac09c0    ....    STM      r12!,{r6-r8,r11}
        0x00018416:    e8ac09c0    ....    STM      r12!,{r6-r8,r11}
        0x0001841a:    e8ac09c0    ....    STM      r12!,{r6-r8,r11}
        0x0001841e:    e8ac09c0    ....    STM      r12!,{r6-r8,r11}
        0x00018422:    f0210107    !...    BIC      r1,r1,#7
        0x00018426:    468d        .F      MOV      sp,r1
        0x00018428:    4770        pG      BX       lr
    .text
    exit
        0x0001842a:    b510        ..      PUSH     {r4,lr}
        0x0001842c:    4604        .F      MOV      r4,r0
        0x0001842e:    f3af8000    ....    NOP.W    
        0x00018432:    4620         F      MOV      r0,r4
        0x00018434:    e8bd4010    ...@    POP      {r4,lr}
        0x00018438:    f7ffbf73    ..s.    B.W      __rt_exit ; 0x18322
    .text
    __user_libspace
    __user_perproc_libspace
    __user_perthread_libspace
        0x0001843c:    4800        .H      LDR      r0,[pc,#0] ; [0x18440] = 0x10001000
        0x0001843e:    4770        pG      BX       lr
    $d
        0x00018440:    10001000    ....    DCD    268439552
    $t
    .text
    _sys_exit
        0x00018444:    4901        .I      LDR      r1,[pc,#4] ; [0x1844c] = 0x20026
        0x00018446:    2018        .       MOVS     r0,#0x18
        0x00018448:    beab        ..      BKPT     #0xab
        0x0001844a:    e7fe        ..      B        0x1844a ; _sys_exit + 6
    $d
        0x0001844c:    00020026    &...    DCD    131110
    $t
    .text
    __I$use$semihosting
    __use_no_semihosting_swi
        0x00018450:    4770        pG      BX       lr
    .text
    __semihosting_library_function
        0x00018452:    0000        ..      MOVS     r0,r0
    $t.0
    HardFault_Handler
        0x00018454:    f01e0f04    ....    TST      lr,#4
        0x00018458:    bf0c        ..      ITE      EQ
        0x0001845a:    f3ef8008    ....    MRSEQ    r0,MSP
        0x0001845e:    f3ef8009    ....    MRSNE    r0,PSP
        0x00018462:    4904        .I      LDR      r1,[pc,#16] ; [0x18474] = 0x10001120
        0x00018464:    f5017100    ...q    ADD      r1,r1,#0x200
        0x00018468:    f0210103    !...    BIC      r1,r1,#3
        0x0001846c:    468d        .F      MOV      sp,r1
        0x0001846e:    f002bf09    ....    B.W      am_util_faultisr_collect_data ; 0x1b284
        0x00018472:    bf00        ..      NOP      
    $d.4
        0x00018474:    10001120     ...    DCD    268439840
    $t.27
    TrimVersionGet
        0x00018478:    b5b0        ..      PUSH     {r4,r5,r7,lr}
        0x0001847a:    f2402544    @.D%    MOVW     r5,#0x244
        0x0001847e:    f2c10500    ....    MOVT     r5,#0x1000
        0x00018482:    6829        )h      LDR      r1,[r5,#0]
        0x00018484:    4604        .F      MOV      r4,r0
        0x00018486:    1c4a        J.      ADDS     r2,r1,#1
        0x00018488:    d10c        ..      BNE      0x184a4 ; TrimVersionGet + 44
        0x0001848a:    2001        .       MOVS     r0,#1
        0x0001848c:    f24041c4    @..A    MOV      r1,#0x4c4
        0x00018490:    2201        ."      MOVS     r2,#1
        0x00018492:    462b        +F      MOV      r3,r5
        0x00018494:    f001f97e    ..~.    BL       am_hal_mram_info_read ; 0x19794
        0x00018498:    b910        ..      CBNZ     r0,0x184a0 ; TrimVersionGet + 40
        0x0001849a:    6829        )h      LDR      r1,[r5,#0]
        0x0001849c:    1c48        H.      ADDS     r0,r1,#1
        0x0001849e:    d101        ..      BNE      0x184a4 ; TrimVersionGet + 44
        0x000184a0:    2100        .!      MOVS     r1,#0
        0x000184a2:    6029        )`      STR      r1,[r5,#0]
        0x000184a4:    2c00        .,      CMP      r4,#0
        0x000184a6:    bf0e        ..      ITEE     EQ
        0x000184a8:    2006        .       MOVEQ    r0,#6
        0x000184aa:    6021        !`      STRNE    r1,[r4,#0]
        0x000184ac:    2000        .       MOVNE    r0,#0
        0x000184ae:    bdb0        ..      POP      {r4,r5,r7,pc}
    VDDF_simobuck_boost
        0x000184b0:    e92d41f0    -..A    PUSH     {r4-r8,lr}
        0x000184b4:    b084        ..      SUB      sp,sp,#0x10
        0x000184b6:    460d        .F      MOV      r5,r1
        0x000184b8:    f2402150    @.P!    MOVW     r1,#0x250
        0x000184bc:    f2c10100    ....    MOVT     r1,#0x1000
        0x000184c0:    680f        .h      LDR      r7,[r1,#0]
        0x000184c2:    f240386c    @.l8    MOVW     r8,#0x36c
        0x000184c6:    4614        .F      MOV      r4,r2
        0x000184c8:    4606        .F      MOV      r6,r0
        0x000184ca:    1c78        x.      ADDS     r0,r7,#1
        0x000184cc:    f2c40802    ....    MOVT     r8,#0x4002
        0x000184d0:    d104        ..      BNE      0x184dc ; VDDF_simobuck_boost + 44
        0x000184d2:    f8d80000    ....    LDR      r0,[r8,#0]
        0x000184d6:    f3c05705    ...W    UBFX     r7,r0,#20,#6
        0x000184da:    600f        .`      STR      r7,[r1,#0]
        0x000184dc:    a803        ..      ADD      r0,sp,#0xc
        0x000184de:    f7ffffcb    ....    BL       TrimVersionGet ; 0x18478
        0x000184e2:    b36e        n.      CBZ      r6,0x18540 ; VDDF_simobuck_boost + 144
        0x000184e4:    f64f40a0    O..@    MOV      r0,#0xfca0
        0x000184e8:    f6cf70ff    ...p    MOVT     r0,#0xffff
        0x000184ec:    f8580000    X...    LDR      r0,[r8,r0]
        0x000184f0:    f00000fe    ....    AND      r0,r0,#0xfe
        0x000184f4:    2822        "(      CMP      r0,#0x22
        0x000184f6:    d342        B.      BCC      0x1857e ; VDDF_simobuck_boost + 206
        0x000184f8:    9803        ..      LDR      r0,[sp,#0xc]
        0x000184fa:    2805        .(      CMP      r0,#5
        0x000184fc:    bf88        ..      IT       HI
        0x000184fe:    1cec        ..      ADDHI    r4,r5,#3
        0x00018500:    f1c4003f    ..?.    RSB      r0,r4,#0x3f
        0x00018504:    4287        .B      CMP      r7,r0
        0x00018506:    f8d80000    ....    LDR      r0,[r8,#0]
        0x0001850a:    443c        <D      ADD      r4,r4,r7
        0x0001850c:    f3c05005    ...P    UBFX     r0,r0,#20,#6
        0x00018510:    bf88        ..      IT       HI
        0x00018512:    243f        ?$      MOVHI    r4,#0x3f
        0x00018514:    42a0        .B      CMP      r0,r4
        0x00018516:    d032        2.      BEQ      0x1857e ; VDDF_simobuck_boost + 206
        0x00018518:    f001f8e8    ....    BL       am_hal_interrupt_master_disable ; 0x196ec
        0x0001851c:    9001        ..      STR      r0,[sp,#4]
        0x0001851e:    f8d8000c    ....    LDR      r0,[r8,#0xc]
        0x00018522:    f0404000    @..@    ORR      r0,r0,#0x80000000
        0x00018526:    f8c8000c    ....    STR      r0,[r8,#0xc]
        0x0001852a:    f8d80000    ....    LDR      r0,[r8,#0]
        0x0001852e:    f3645019    d..P    BFI      r0,r4,#20,#6
        0x00018532:    f8c80000    ....    STR      r0,[r8,#0]
        0x00018536:    2014        .       MOVS     r0,#0x14
        0x00018538:    f000ff86    ....    BL       am_hal_delay_us ; 0x19448
        0x0001853c:    9801        ..      LDR      r0,[sp,#4]
        0x0001853e:    e01c        ..      B        0x1857a ; VDDF_simobuck_boost + 202
        0x00018540:    9803        ..      LDR      r0,[sp,#0xc]
        0x00018542:    2805        .(      CMP      r0,#5
        0x00018544:    f8d80000    ....    LDR      r0,[r8,#0]
        0x00018548:    bf88        ..      IT       HI
        0x0001854a:    3703        .7      ADDHI    r7,#3
        0x0001854c:    f3c05005    ...P    UBFX     r0,r0,#20,#6
        0x00018550:    42b8        .B      CMP      r0,r7
        0x00018552:    d014        ..      BEQ      0x1857e ; VDDF_simobuck_boost + 206
        0x00018554:    f001f8ca    ....    BL       am_hal_interrupt_master_disable ; 0x196ec
        0x00018558:    9002        ..      STR      r0,[sp,#8]
        0x0001855a:    f8d8000c    ....    LDR      r0,[r8,#0xc]
        0x0001855e:    f0404000    @..@    ORR      r0,r0,#0x80000000
        0x00018562:    f8c8000c    ....    STR      r0,[r8,#0xc]
        0x00018566:    f8d80000    ....    LDR      r0,[r8,#0]
        0x0001856a:    f3675019    g..P    BFI      r0,r7,#20,#6
        0x0001856e:    f8c80000    ....    STR      r0,[r8,#0]
        0x00018572:    2014        .       MOVS     r0,#0x14
        0x00018574:    f000ff68    ..h.    BL       am_hal_delay_us ; 0x19448
        0x00018578:    9802        ..      LDR      r0,[sp,#8]
        0x0001857a:    f001f8bf    ....    BL       am_hal_interrupt_master_set ; 0x196fc
        0x0001857e:    b004        ..      ADD      sp,sp,#0x10
        0x00018580:    e8bd81f0    ....    POP      {r4-r8,pc}
    am_bsp_itm_printf_enable
        0x00018584:    b580        ..      PUSH     {r7,lr}
        0x00018586:    b082        ..      SUB      sp,sp,#8
        0x00018588:    f2410008    A...    MOV      r0,#0x1008
        0x0001858c:    f2c40002    ....    MOVT     r0,#0x4002
        0x00018590:    6800        .h      LDR      r0,[r0,#0]
        0x00018592:    02c0        ..      LSLS     r0,r0,#11
        0x00018594:    d512        ..      BPL      0x185bc ; am_bsp_itm_printf_enable + 56
        0x00018596:    f640207c    @.|     MOV      r0,#0xa7c
        0x0001859a:    f2c4000c    ....    MOVT     r0,#0x400c
        0x0001859e:    6800        .h      LDR      r0,[r0,#0]
        0x000185a0:    07c0        ..      LSLS     r0,r0,#31
        0x000185a2:    d00b        ..      BEQ      0x185bc ; am_bsp_itm_printf_enable + 56
        0x000185a4:    a801        ..      ADD      r0,sp,#4
        0x000185a6:    f000fe8b    ....    BL       am_hal_dcu_get ; 0x192c0
        0x000185aa:    f89d0004    ....    LDRB     r0,[sp,#4]
        0x000185ae:    06c0        ..      LSLS     r0,r0,#27
        0x000185b0:    d408        ..      BMI      0x185c4 ; am_bsp_itm_printf_enable + 64
        0x000185b2:    2001        .       MOVS     r0,#1
        0x000185b4:    2110        .!      MOVS     r1,#0x10
        0x000185b6:    f000fed1    ....    BL       am_hal_dcu_update ; 0x1935c
        0x000185ba:    b118        ..      CBZ      r0,0x185c4 ; am_bsp_itm_printf_enable + 64
        0x000185bc:    f04f30ff    O..0    MOV      r0,#0xffffffff
        0x000185c0:    b002        ..      ADD      sp,sp,#8
        0x000185c2:    bd80        ..      POP      {r7,pc}
        0x000185c4:    f2413082    A..0    MOV      r0,#0x1382
        0x000185c8:    f2c10000    ....    MOVT     r0,#0x1000
        0x000185cc:    2101        .!      MOVS     r1,#1
        0x000185ce:    7001        .p      STRB     r1,[r0,#0]
        0x000185d0:    f001f898    ....    BL       am_hal_itm_enable ; 0x19704
        0x000185d4:    f2442040    D.@     MOV      r0,#0x4240
        0x000185d8:    f2c0000f    ....    MOVT     r0,#0xf
        0x000185dc:    f002fd31    ..1.    BL       am_hal_tpiu_enable ; 0x1b042
        0x000185e0:    f2413028    A.(0    MOV      r0,#0x1328
        0x000185e4:    f2c10000    ....    MOVT     r0,#0x1000
        0x000185e8:    6801        .h      LDR      r1,[r0,#0]
        0x000185ea:    201c        .       MOVS     r0,#0x1c
        0x000185ec:    f000ffdc    ....    BL       am_hal_gpio_pinconfig ; 0x195a8
        0x000185f0:    f2497049    I.Ip    MOV      r0,#0x9749
        0x000185f4:    f2c00001    ....    MOVT     r0,#1
        0x000185f8:    f002fede    ....    BL       am_util_stdio_printf_init ; 0x1b3b8
        0x000185fc:    2000        .       MOVS     r0,#0
        0x000185fe:    e7df        ..      B        0x185c0 ; am_bsp_itm_printf_enable + 60
    am_bsp_low_power_init
        0x00018600:    b580        ..      PUSH     {r7,lr}
        0x00018602:    f001fad7    ....    BL       am_hal_pwrctrl_low_power_init ; 0x19bb4
        0x00018606:    2000        .       MOVS     r0,#0
        0x00018608:    2100        .!      MOVS     r1,#0
        0x0001860a:    f001f90d    ....    BL       am_hal_pwrctrl_control ; 0x19828
        0x0001860e:    e8bd4080    ...@    POP      {r7,lr}
        0x00018612:    f001bd09    ....    B.W      am_hal_rtc_osc_disable ; 0x1a028
    am_bsp_sdio_pins_enable
        0x00018616:    b510        ..      PUSH     {r4,lr}
        0x00018618:    4604        .F      MOV      r4,r0
        0x0001861a:    2060        `       MOVS     r0,#0x60
        0x0001861c:    2101        .!      MOVS     r1,#1
        0x0001861e:    f000fff1    ....    BL       am_hal_gpio_state_write ; 0x19604
        0x00018622:    f2400014    @...    MOVW     r0,#0x14
        0x00018626:    f2c10000    ....    MOVT     r0,#0x1000
        0x0001862a:    6801        .h      LDR      r1,[r0,#0]
        0x0001862c:    2053        S       MOVS     r0,#0x53
        0x0001862e:    f000ffbb    ....    BL       am_hal_gpio_pinconfig ; 0x195a8
        0x00018632:    f2400010    @...    MOVW     r0,#0x10
        0x00018636:    f2c10000    ....    MOVT     r0,#0x1000
        0x0001863a:    6801        .h      LDR      r1,[r0,#0]
        0x0001863c:    2058        X       MOVS     r0,#0x58
        0x0001863e:    f000ffb3    ....    BL       am_hal_gpio_pinconfig ; 0x195a8
        0x00018642:    2c01        .,      CMP      r4,#1
        0x00018644:    d03c        <.      BEQ      0x186c0 ; am_bsp_sdio_pins_enable + 170
        0x00018646:    2c04        .,      CMP      r4,#4
        0x00018648:    d022        ".      BEQ      0x18690 ; am_bsp_sdio_pins_enable + 122
        0x0001864a:    2c08        .,      CMP      r4,#8
        0x0001864c:    bf18        ..      IT       NE
        0x0001864e:    bd10        ..      POPNE    {r4,pc}
        0x00018650:    f2400028    @.(.    MOVW     r0,#0x28
        0x00018654:    f2c10000    ....    MOVT     r0,#0x1000
        0x00018658:    6801        .h      LDR      r1,[r0,#0]
        0x0001865a:    204f        O       MOVS     r0,#0x4f
        0x0001865c:    f000ffa4    ....    BL       am_hal_gpio_pinconfig ; 0x195a8
        0x00018660:    f240002c    @.,.    MOVW     r0,#0x2c
        0x00018664:    f2c10000    ....    MOVT     r0,#0x1000
        0x00018668:    6801        .h      LDR      r1,[r0,#0]
        0x0001866a:    2050        P       MOVS     r0,#0x50
        0x0001866c:    f000ff9c    ....    BL       am_hal_gpio_pinconfig ; 0x195a8
        0x00018670:    f2400030    @.0.    MOVW     r0,#0x30
        0x00018674:    f2c10000    ....    MOVT     r0,#0x1000
        0x00018678:    6801        .h      LDR      r1,[r0,#0]
        0x0001867a:    2051        Q       MOVS     r0,#0x51
        0x0001867c:    f000ff94    ....    BL       am_hal_gpio_pinconfig ; 0x195a8
        0x00018680:    f2400034    @.4.    MOVW     r0,#0x34
        0x00018684:    f2c10000    ....    MOVT     r0,#0x1000
        0x00018688:    6801        .h      LDR      r1,[r0,#0]
        0x0001868a:    2052        R       MOVS     r0,#0x52
        0x0001868c:    f000ff8c    ....    BL       am_hal_gpio_pinconfig ; 0x195a8
        0x00018690:    f240001c    @...    MOVW     r0,#0x1c
        0x00018694:    f2c10000    ....    MOVT     r0,#0x1000
        0x00018698:    6801        .h      LDR      r1,[r0,#0]
        0x0001869a:    2055        U       MOVS     r0,#0x55
        0x0001869c:    f000ff84    ....    BL       am_hal_gpio_pinconfig ; 0x195a8
        0x000186a0:    f2400020    @. .    MOVW     r0,#0x20
        0x000186a4:    f2c10000    ....    MOVT     r0,#0x1000
        0x000186a8:    6801        .h      LDR      r1,[r0,#0]
        0x000186aa:    2056        V       MOVS     r0,#0x56
        0x000186ac:    f000ff7c    ..|.    BL       am_hal_gpio_pinconfig ; 0x195a8
        0x000186b0:    f2400024    @.$.    MOVW     r0,#0x24
        0x000186b4:    f2c10000    ....    MOVT     r0,#0x1000
        0x000186b8:    6801        .h      LDR      r1,[r0,#0]
        0x000186ba:    2057        W       MOVS     r0,#0x57
        0x000186bc:    f000ff74    ..t.    BL       am_hal_gpio_pinconfig ; 0x195a8
        0x000186c0:    f2400018    @...    MOVW     r0,#0x18
        0x000186c4:    f2c10000    ....    MOVT     r0,#0x1000
        0x000186c8:    6801        .h      LDR      r1,[r0,#0]
        0x000186ca:    2054        T       MOVS     r0,#0x54
        0x000186cc:    e8bd4010    ...@    POP      {r4,lr}
        0x000186d0:    f000bf6a    ..j.    B.W      am_hal_gpio_pinconfig ; 0x195a8
    am_hal_card_block_read_sync
        0x000186d4:    b580        ..      PUSH     {r7,lr}
        0x000186d6:    b082        ..      SUB      sp,sp,#8
        0x000186d8:    f04f0c00    O...    MOV      r12,#0
        0x000186dc:    f04f0e01    O...    MOV      lr,#1
        0x000186e0:    e9cdec00    ....    STRD     lr,r12,[sp,#0]
        0x000186e4:    f000f802    ....    BL       am_hal_card_block_rw ; 0x186ec
        0x000186e8:    b002        ..      ADD      sp,sp,#8
        0x000186ea:    bd80        ..      POP      {r7,pc}
    am_hal_card_block_rw
        0x000186ec:    e92d47f0    -..G    PUSH     {r4-r10,lr}
        0x000186f0:    b08e        ..      SUB      sp,sp,#0x38
        0x000186f2:    2800        .(      CMP      r0,#0
        0x000186f4:    d075        u.      BEQ      0x187e2 ; am_hal_card_block_rw + 246
        0x000186f6:    f8d04274    ..tB    LDR      r4,[r0,#0x274]
        0x000186fa:    4607        .F      MOV      r7,r0
        0x000186fc:    2c00        .,      CMP      r4,#0
        0x000186fe:    d070        p.      BEQ      0x187e2 ; am_hal_card_block_rw + 246
        0x00018700:    7878        xx      LDRB     r0,[r7,#1]
        0x00018702:    2806        .(      CMP      r0,#6
        0x00018704:    d16f        o.      BNE      0x187e6 ; am_hal_card_block_rw + 250
        0x00018706:    460e        .F      MOV      r6,r1
        0x00018708:    f8d71240    ..@.    LDR      r1,[r7,#0x240]
        0x0001870c:    1990        ..      ADDS     r0,r2,r6
        0x0001870e:    4615        .F      MOV      r5,r2
        0x00018710:    4288        .B      CMP      r0,r1
        0x00018712:    f04f0005    O...    MOV      r0,#5
        0x00018716:    d867        g.      BHI      0x187e8 ; am_hal_card_block_rw + 252
        0x00018718:    2200        ."      MOVS     r2,#0
        0x0001871a:    ebb24f15    ...O    CMP      r2,r5,LSR #16
        0x0001871e:    d163        c.      BNE      0x187e8 ; am_hal_card_block_rw + 252
        0x00018720:    42b1        .B      CMP      r1,r6
        0x00018722:    d961        a.      BLS      0x187e8 ; am_hal_card_block_rw + 252
        0x00018724:    7aa0        .z      LDRB     r0,[r4,#0xa]
        0x00018726:    f8dd905c    ..\.    LDR      r9,[sp,#0x5c]
        0x0001872a:    f8dda058    ..X.    LDR      r10,[sp,#0x58]
        0x0001872e:    4698        .F      MOV      r8,r3
        0x00018730:    2803        .(      CMP      r0,#3
        0x00018732:    d103        ..      BNE      0x1873c ; am_hal_card_block_rw + 80
        0x00018734:    6920         i      LDR      r0,[r4,#0x10]
        0x00018736:    42a8        .B      CMP      r0,r5
        0x00018738:    bf38        8.      IT       CC
        0x0001873a:    4605        .F      MOVCC    r5,r0
        0x0001873c:    a805        ..      ADD      r0,sp,#0x14
        0x0001873e:    2124        $!      MOVS     r1,#0x24
        0x00018740:    f7fffe24    ..$.    BL       __aeabi_memclr4 ; 0x1838c
        0x00018744:    4668        hF      MOV      r0,sp
        0x00018746:    2114        .!      MOVS     r1,#0x14
        0x00018748:    f7fffe20    .. .    BL       __aeabi_memclr4 ; 0x1838c
        0x0001874c:    2000        .       MOVS     r0,#0
        0x0001874e:    2118        .!      MOVS     r1,#0x18
        0x00018750:    2211        ."      MOVS     r2,#0x11
        0x00018752:    2d01        .-      CMP      r5,#1
        0x00018754:    bf88        ..      IT       HI
        0x00018756:    2001        .       MOVHI    r0,#1
        0x00018758:    bf88        ..      IT       HI
        0x0001875a:    2119        .!      MOVHI    r1,#0x19
        0x0001875c:    bf88        ..      IT       HI
        0x0001875e:    2212        ."      MOVHI    r2,#0x12
        0x00018760:    f1ba0f00    ....    CMP      r10,#0
        0x00018764:    bf08        ..      IT       EQ
        0x00018766:    460a        .F      MOVEQ    r2,r1
        0x00018768:    f88d2014    ...     STRB     r2,[sp,#0x14]
        0x0001876c:    f897122f    ../.    LDRB     r1,[r7,#0x22f]
        0x00018770:    f8d72258    ..X"    LDR      r2,[r7,#0x258]
        0x00018774:    2900        .)      CMP      r1,#0
        0x00018776:    9202        ..      STR      r2,[sp,#8]
        0x00018778:    bf18        ..      IT       NE
        0x0001877a:    2201        ."      MOVNE    r2,#1
        0x0001877c:    fb02f106    ....    MUL      r1,r2,r6
        0x00018780:    9106        ..      STR      r1,[sp,#0x18]
        0x00018782:    2115        .!      MOVS     r1,#0x15
        0x00018784:    f88d0023    ..#.    STRB     r0,[sp,#0x23]
        0x00018788:    f08a0001    ....    EOR      r0,r10,#1
        0x0001878c:    f1b90f00    ....    CMP      r9,#0
        0x00018790:    9107        ..      STR      r1,[sp,#0x1c]
        0x00018792:    f88d9021    ..!.    STRB     r9,[sp,#0x21]
        0x00018796:    f8cd8004    ....    STR      r8,[sp,#4]
        0x0001879a:    9503        ..      STR      r5,[sp,#0xc]
        0x0001879c:    f88d0000    ....    STRB     r0,[sp,#0]
        0x000187a0:    d018        ..      BEQ      0x187d4 ; am_hal_card_block_rw + 232
        0x000187a2:    af05        ..      ADD      r7,sp,#0x14
        0x000187a4:    cf8f        ..      LDM      r7,{r0-r3,r7}
        0x000187a6:    e9dd650a    ...e    LDRD     r6,r5,[sp,#0x28]
        0x000187aa:    f8ddc030    ..0.    LDR      r12,[sp,#0x30]
        0x000187ae:    f1040e28    ..(.    ADD      lr,r4,#0x28
        0x000187b2:    e88e008f    ....    STM      lr,{r0-r3,r7}
        0x000187b6:    e9c4650f    ...e    STRD     r6,r5,[r4,#0x3c]
        0x000187ba:    980d        ..      LDR      r0,[sp,#0x34]
        0x000187bc:    e9dd6103    ...a    LDRD     r6,r1,[sp,#0xc]
        0x000187c0:    f8c4c044    ..D.    STR      r12,[r4,#0x44]
        0x000187c4:    f1040c48    ..H.    ADD      r12,r4,#0x48
        0x000187c8:    e89d008c    ....    LDM      sp,{r2,r3,r7}
        0x000187cc:    e88c008d    ....    STM      r12,{r0,r2,r3,r7}
        0x000187d0:    e9c46116    ...a    STRD     r6,r1,[r4,#0x58]
        0x000187d4:    6e21        !n      LDR      r1,[r4,#0x60]
        0x000187d6:    6820         h      LDR      r0,[r4,#0]
        0x000187d8:    68cb        .h      LDR      r3,[r1,#0xc]
        0x000187da:    a905        ..      ADD      r1,sp,#0x14
        0x000187dc:    466a        jF      MOV      r2,sp
        0x000187de:    4798        .G      BLX      r3
        0x000187e0:    e002        ..      B        0x187e8 ; am_hal_card_block_rw + 252
        0x000187e2:    2006        .       MOVS     r0,#6
        0x000187e4:    e000        ..      B        0x187e8 ; am_hal_card_block_rw + 252
        0x000187e6:    2007        .       MOVS     r0,#7
        0x000187e8:    b00e        ..      ADD      sp,sp,#0x38
        0x000187ea:    e8bd87f0    ....    POP      {r4-r10,pc}
    am_hal_card_block_write_sync
        0x000187ee:    b580        ..      PUSH     {r7,lr}
        0x000187f0:    b082        ..      SUB      sp,sp,#8
        0x000187f2:    f04f0c00    O...    MOV      r12,#0
        0x000187f6:    e9cdcc00    ....    STRD     r12,r12,[sp,#0]
        0x000187fa:    f7ffff77    ..w.    BL       am_hal_card_block_rw ; 0x186ec
        0x000187fe:    b002        ..      ADD      sp,sp,#8
        0x00018800:    bd80        ..      POP      {r7,pc}
    am_hal_card_cfg_set
        0x00018802:    b570        p.      PUSH     {r4-r6,lr}
        0x00018804:    b1f0        ..      CBZ      r0,0x18844 ; am_hal_card_cfg_set + 66
        0x00018806:    4604        .F      MOV      r4,r0
        0x00018808:    f8d00274    ..t.    LDR      r0,[r0,#0x274]
        0x0001880c:    b1d0        ..      CBZ      r0,0x18844 ; am_hal_card_cfg_set + 66
        0x0001880e:    7865        ex      LDRB     r5,[r4,#1]
        0x00018810:    2d06        .-      CMP      r5,#6
        0x00018812:    bf1c        ..      ITT      NE
        0x00018814:    2007        .       MOVNE    r0,#7
        0x00018816:    bd70        p.      POPNE    {r4-r6,pc}
        0x00018818:    69c5        .i      LDR      r5,[r0,#0x1c]
        0x0001881a:    429d        .B      CMP      r5,r3
        0x0001881c:    d312        ..      BCC      0x18844 ; am_hal_card_cfg_set + 66
        0x0001881e:    6a05        .j      LDR      r5,[r0,#0x20]
        0x00018820:    429d        .B      CMP      r5,r3
        0x00018822:    d80f        ..      BHI      0x18844 ; am_hal_card_cfg_set + 66
        0x00018824:    f6464501    F..E    MOV      r5,#0x6c01
        0x00018828:    9e05        ..      LDR      r6,[sp,#0x14]
        0x0001882a:    f2c025dc    ...%    MOVT     r5,#0x2dc
        0x0001882e:    42ab        .B      CMP      r3,r5
        0x00018830:    d301        ..      BCC      0x18836 ; am_hal_card_cfg_set + 52
        0x00018832:    2e04        ..      CMP      r6,#4
        0x00018834:    d006        ..      BEQ      0x18844 ; am_hal_card_cfg_set + 66
        0x00018836:    f64d0501    M...    MOV      r5,#0xd801
        0x0001883a:    f2c055b8    ...U    MOVT     r5,#0x5b8
        0x0001883e:    42ab        .B      CMP      r3,r5
        0x00018840:    d302        ..      BCC      0x18848 ; am_hal_card_cfg_set + 70
        0x00018842:    b90e        ..      CBNZ     r6,0x18848 ; am_hal_card_cfg_set + 70
        0x00018844:    2006        .       MOVS     r0,#6
        0x00018846:    bd70        p.      POP      {r4-r6,pc}
        0x00018848:    f64b2581    K..%    MOV      r5,#0xba81
        0x0001884c:    f2c0158c    ....    MOVT     r5,#0x18c
        0x00018850:    42ab        .B      CMP      r3,r5
        0x00018852:    d303        ..      BCC      0x1885c ; am_hal_card_cfg_set + 90
        0x00018854:    f894522c    ..,R    LDRB     r5,[r4,#0x22c]
        0x00018858:    2d04        .-      CMP      r5,#4
        0x0001885a:    d3f3        ..      BCC      0x18844 ; am_hal_card_cfg_set + 66
        0x0001885c:    f8ddc010    ....    LDR      r12,[sp,#0x10]
        0x00018860:    7021        !p      STRB     r1,[r4,#0]
        0x00018862:    7b01        .{      LDRB     r1,[r0,#0xc]
        0x00018864:    f8842270    ..p"    STRB     r2,[r4,#0x270]
        0x00018868:    4561        aE      CMP      r1,r12
        0x0001886a:    f8c4326c    ..l2    STR      r3,[r4,#0x26c]
        0x0001886e:    f884c271    ..q.    STRB     r12,[r4,#0x271]
        0x00018872:    f8846272    ..rb    STRB     r6,[r4,#0x272]
        0x00018876:    d005        ..      BEQ      0x18884 ; am_hal_card_cfg_set + 130
        0x00018878:    6e01        .n      LDR      r1,[r0,#0x60]
        0x0001887a:    6800        .h      LDR      r0,[r0,#0]
        0x0001887c:    690a        .i      LDR      r2,[r1,#0x10]
        0x0001887e:    4661        aF      MOV      r1,r12
        0x00018880:    4790        .G      BLX      r2
        0x00018882:    b9c8        ..      CBNZ     r0,0x188b8 ; am_hal_card_cfg_set + 182
        0x00018884:    2e03        ..      CMP      r6,#3
        0x00018886:    d10b        ..      BNE      0x188a0 ; am_hal_card_cfg_set + 158
        0x00018888:    f8941270    ..p.    LDRB     r1,[r4,#0x270]
        0x0001888c:    4620         F      MOV      r0,r4
        0x0001888e:    f000fb8b    ....    BL       am_hal_card_set_bus_width ; 0x18fa8
        0x00018892:    b988        ..      CBNZ     r0,0x188b8 ; am_hal_card_cfg_set + 182
        0x00018894:    f8d4126c    ..l.    LDR      r1,[r4,#0x26c]
        0x00018898:    4620         F      MOV      r0,r4
        0x0001889a:    f000fbc7    ....    BL       am_hal_card_set_speed ; 0x1902c
        0x0001889e:    e00a        ..      B        0x188b6 ; am_hal_card_cfg_set + 180
        0x000188a0:    f8d4126c    ..l.    LDR      r1,[r4,#0x26c]
        0x000188a4:    4620         F      MOV      r0,r4
        0x000188a6:    f000fbc1    ....    BL       am_hal_card_set_speed ; 0x1902c
        0x000188aa:    b928        (.      CBNZ     r0,0x188b8 ; am_hal_card_cfg_set + 182
        0x000188ac:    f8941270    ..p.    LDRB     r1,[r4,#0x270]
        0x000188b0:    4620         F      MOV      r0,r4
        0x000188b2:    f000fb79    ..y.    BL       am_hal_card_set_bus_width ; 0x18fa8
        0x000188b6:    b108        ..      CBZ      r0,0x188bc ; am_hal_card_cfg_set + 186
        0x000188b8:    2001        .       MOVS     r0,#1
        0x000188ba:    bd70        p.      POP      {r4-r6,pc}
        0x000188bc:    f8d40274    ..t.    LDR      r0,[r4,#0x274]
        0x000188c0:    2800        .(      CMP      r0,#0
        0x000188c2:    d0f9        ..      BEQ      0x188b8 ; am_hal_card_cfg_set + 182
        0x000188c4:    f8941272    ..r.    LDRB     r1,[r4,#0x272]
        0x000188c8:    7b42        B{      LDRB     r2,[r0,#0xd]
        0x000188ca:    428a        .B      CMP      r2,r1
        0x000188cc:    d101        ..      BNE      0x188d2 ; am_hal_card_cfg_set + 208
        0x000188ce:    2000        .       MOVS     r0,#0
        0x000188d0:    bd70        p.      POP      {r4-r6,pc}
        0x000188d2:    7822        "x      LDRB     r2,[r4,#0]
        0x000188d4:    2904        .)      CMP      r1,#4
        0x000188d6:    f1a20301    ....    SUB      r3,r2,#1
        0x000188da:    d10c        ..      BNE      0x188f6 ; am_hal_card_cfg_set + 244
        0x000188dc:    2b01        .+      CMP      r3,#1
        0x000188de:    d803        ..      BHI      0x188e8 ; am_hal_card_cfg_set + 230
        0x000188e0:    f8941249    ..I.    LDRB     r1,[r4,#0x249]
        0x000188e4:    0749        I.      LSLS     r1,r1,#29
        0x000188e6:    d5e7        ..      BPL      0x188b8 ; am_hal_card_cfg_set + 182
        0x000188e8:    6e01        .n      LDR      r1,[r0,#0x60]
        0x000188ea:    69ca        .i      LDR      r2,[r1,#0x1c]
        0x000188ec:    2a00        .*      CMP      r2,#0
        0x000188ee:    d0ee        ..      BEQ      0x188ce ; am_hal_card_cfg_set + 204
        0x000188f0:    6800        .h      LDR      r0,[r0,#0]
        0x000188f2:    2104        .!      MOVS     r1,#4
        0x000188f4:    e00b        ..      B        0x1890e ; am_hal_card_cfg_set + 268
        0x000188f6:    6e02        .n      LDR      r2,[r0,#0x60]
        0x000188f8:    2b01        .+      CMP      r3,#1
        0x000188fa:    69d2        .i      LDR      r2,[r2,#0x1c]
        0x000188fc:    d804        ..      BHI      0x18908 ; am_hal_card_cfg_set + 262
        0x000188fe:    2a00        .*      CMP      r2,#0
        0x00018900:    d0e5        ..      BEQ      0x188ce ; am_hal_card_cfg_set + 204
        0x00018902:    6800        .h      LDR      r0,[r0,#0]
        0x00018904:    2100        .!      MOVS     r1,#0
        0x00018906:    e002        ..      B        0x1890e ; am_hal_card_cfg_set + 268
        0x00018908:    2a00        .*      CMP      r2,#0
        0x0001890a:    d0e0        ..      BEQ      0x188ce ; am_hal_card_cfg_set + 204
        0x0001890c:    6800        .h      LDR      r0,[r0,#0]
        0x0001890e:    4790        .G      BLX      r2
        0x00018910:    2800        .(      CMP      r0,#0
        0x00018912:    d1d1        ..      BNE      0x188b8 ; am_hal_card_cfg_set + 182
        0x00018914:    e7db        ..      B        0x188ce ; am_hal_card_cfg_set + 204
        0x00018916:    0000        ..      MOVS     r0,r0
    am_hal_card_get_ext_csd_field
        0x00018918:    b570        p.      PUSH     {r4-r6,lr}
        0x0001891a:    b160        `.      CBZ      r0,0x18936 ; am_hal_card_get_ext_csd_field + 30
        0x0001891c:    4605        .F      MOV      r5,r0
        0x0001891e:    f8d00274    ..t.    LDR      r0,[r0,#0x274]
        0x00018922:    b140        @.      CBZ      r0,0x18936 ; am_hal_card_get_ext_csd_field + 30
        0x00018924:    78a8        .x      LDRB     r0,[r5,#2]
        0x00018926:    4614        .F      MOV      r4,r2
        0x00018928:    460e        .F      MOV      r6,r1
        0x0001892a:    0740        @.      LSLS     r0,r0,#29
        0x0001892c:    d40a        ..      BMI      0x18944 ; am_hal_card_get_ext_csd_field + 44
        0x0001892e:    4628        (F      MOV      r0,r5
        0x00018930:    f002f9ec    ....    BL       am_hal_sdmmc_cmd8_send_ext_csd ; 0x1ad0c
        0x00018934:    b110        ..      CBZ      r0,0x1893c ; am_hal_card_get_ext_csd_field + 36
        0x00018936:    f04f30ff    O..0    MOV      r0,#0xffffffff
        0x0001893a:    bd70        p.      POP      {r4-r6,pc}
        0x0001893c:    78a8        .x      LDRB     r0,[r5,#2]
        0x0001893e:    f0400004    @...    ORR      r0,r0,#4
        0x00018942:    70a8        .p      STRB     r0,[r5,#2]
        0x00018944:    b17c        |.      CBZ      r4,0x18966 ; am_hal_card_get_ext_csd_field + 78
        0x00018946:    1970        p.      ADDS     r0,r6,r5
        0x00018948:    00e1        ..      LSLS     r1,r4,#3
        0x0001894a:    f100022c    ..,.    ADD      r2,r0,#0x2c
        0x0001894e:    2300        .#      MOVS     r3,#0
        0x00018950:    2000        .       MOVS     r0,#0
        0x00018952:    bf00        ..      NOP      
        0x00018954:    f8126b01    ...k    LDRB     r6,[r2],#1
        0x00018958:    409e        .@      LSLS     r6,r6,r3
        0x0001895a:    3308        .3      ADDS     r3,r3,#8
        0x0001895c:    4299        .B      CMP      r1,r3
        0x0001895e:    ea400006    @...    ORR      r0,r0,r6
        0x00018962:    d1f7        ..      BNE      0x18954 ; am_hal_card_get_ext_csd_field + 60
        0x00018964:    bd70        p.      POP      {r4-r6,pc}
        0x00018966:    2000        .       MOVS     r0,#0
        0x00018968:    bd70        p.      POP      {r4-r6,pc}
    am_hal_card_host_find_card
        0x0001896a:    b5b0        ..      PUSH     {r4,r5,r7,lr}
        0x0001896c:    4605        .F      MOV      r5,r0
        0x0001896e:    2800        .(      CMP      r0,#0
        0x00018970:    f04f0006    O...    MOV      r0,#6
        0x00018974:    d01a        ..      BEQ      0x189ac ; am_hal_card_host_find_card + 66
        0x00018976:    460c        .F      MOV      r4,r1
        0x00018978:    b1c1        ..      CBZ      r1,0x189ac ; am_hal_card_host_find_card + 66
        0x0001897a:    7a28        (z      LDRB     r0,[r5,#8]
        0x0001897c:    b920         .      CBNZ     r0,0x18988 ; am_hal_card_host_find_card + 30
        0x0001897e:    6e29        )n      LDR      r1,[r5,#0x60]
        0x00018980:    6828        (h      LDR      r0,[r5,#0]
        0x00018982:    6a49        Ij      LDR      r1,[r1,#0x24]
        0x00018984:    4788        .G      BLX      r1
        0x00018986:    b170        p.      CBZ      r0,0x189a6 ; am_hal_card_host_find_card + 60
        0x00018988:    7ae8        .z      LDRB     r0,[r5,#0xb]
        0x0001898a:    f8c45274    ..tR    STR      r5,[r4,#0x274]
        0x0001898e:    f8840270    ..p.    STRB     r0,[r4,#0x270]
        0x00018992:    89a8        ..      LDRH     r0,[r5,#0xc]
        0x00018994:    f8a40271    ..q.    STRH     r0,[r4,#0x271]
        0x00018998:    6a28        (j      LDR      r0,[r5,#0x20]
        0x0001899a:    f8c4026c    ..l.    STR      r0,[r4,#0x26c]
        0x0001899e:    200e        .       MOVS     r0,#0xe
        0x000189a0:    7060        `p      STRB     r0,[r4,#1]
        0x000189a2:    2000        .       MOVS     r0,#0
        0x000189a4:    bdb0        ..      POP      {r4,r5,r7,pc}
        0x000189a6:    2000        .       MOVS     r0,#0
        0x000189a8:    7060        `p      STRB     r0,[r4,#1]
        0x000189aa:    2001        .       MOVS     r0,#1
        0x000189ac:    bdb0        ..      POP      {r4,r5,r7,pc}
    am_hal_card_host_power_control
        0x000189ae:    f0810101    ....    EOR      r1,r1,#1
        0x000189b2:    2201        ."      MOVS     r2,#1
        0x000189b4:    f001bf94    ....    B.W      am_hal_sdhc_power_control ; 0x1a8e0
    am_hal_card_init
        0x000189b8:    e92d4ff0    -..O    PUSH     {r4-r11,lr}
        0x000189bc:    f5ad7d0f    ...}    SUB      sp,sp,#0x23c
        0x000189c0:    2800        .(      CMP      r0,#0
        0x000189c2:    d04a        J.      BEQ      0x18a5a ; am_hal_card_init + 162
        0x000189c4:    f8d07274    ..tr    LDR      r7,[r0,#0x274]
        0x000189c8:    4604        .F      MOV      r4,r0
        0x000189ca:    2f00        ./      CMP      r7,#0
        0x000189cc:    d045        E.      BEQ      0x18a5a ; am_hal_card_init + 162
        0x000189ce:    4615        .F      MOV      r5,r2
        0x000189d0:    460e        .F      MOV      r6,r1
        0x000189d2:    b131        1.      CBZ      r1,0x189e2 ; am_hal_card_init + 42
        0x000189d4:    7860        `x      LDRB     r0,[r4,#1]
        0x000189d6:    280e        .(      CMP      r0,#0xe
        0x000189d8:    d103        ..      BNE      0x189e2 ; am_hal_card_init + 42
        0x000189da:    2000        .       MOVS     r0,#0
        0x000189dc:    47b0        .G      BLX      r6
        0x000189de:    f8d47274    ..tr    LDR      r7,[r4,#0x274]
        0x000189e2:    f8845268    ..hR    STRB     r5,[r4,#0x268]
        0x000189e6:    f6407002    @..p    MOV      r0,#0xf02
        0x000189ea:    ad0f        ..      ADD      r5,sp,#0x3c
        0x000189ec:    8020         .      STRH     r0,[r4,#0]
        0x000189ee:    4628        (F      MOV      r0,r5
        0x000189f0:    2124        $!      MOVS     r1,#0x24
        0x000189f2:    f8c46264    ..db    STR      r6,[r4,#0x264]
        0x000189f6:    f7fffcc9    ....    BL       __aeabi_memclr4 ; 0x1838c
        0x000189fa:    6e39        9n      LDR      r1,[r7,#0x60]
        0x000189fc:    6838        8h      LDR      r0,[r7,#0]
        0x000189fe:    68cb        .h      LDR      r3,[r1,#0xc]
        0x00018a00:    4629        )F      MOV      r1,r5
        0x00018a02:    2200        ."      MOVS     r2,#0
        0x00018a04:    4798        .G      BLX      r3
        0x00018a06:    f89d005c    ..\.    LDRB     r0,[sp,#0x5c]
        0x00018a0a:    2601        .&      MOVS     r6,#1
        0x00018a0c:    bb30        0.      CBNZ     r0,0x18a5c ; am_hal_card_init + 164
        0x00018a0e:    ad0f        ..      ADD      r5,sp,#0x3c
        0x00018a10:    f8d47274    ..tr    LDR      r7,[r4,#0x274]
        0x00018a14:    4628        (F      MOV      r0,r5
        0x00018a16:    2124        $!      MOVS     r1,#0x24
        0x00018a18:    f7fffcb8    ....    BL       __aeabi_memclr4 ; 0x1838c
        0x00018a1c:    f04f4080    O..@    MOV      r0,#0x40000000
        0x00018a20:    f88d603c    ..<`    STRB     r6,[sp,#0x3c]
        0x00018a24:    e9cd0610    ....    STRD     r0,r6,[sp,#0x40]
        0x00018a28:    2664        d&      MOVS     r6,#0x64
        0x00018a2a:    bf00        ..      NOP      
        0x00018a2c:    6e39        9n      LDR      r1,[r7,#0x60]
        0x00018a2e:    6838        8h      LDR      r0,[r7,#0]
        0x00018a30:    68cb        .h      LDR      r3,[r1,#0xc]
        0x00018a32:    4629        )F      MOV      r1,r5
        0x00018a34:    2200        ."      MOVS     r2,#0
        0x00018a36:    4798        .G      BLX      r3
        0x00018a38:    f89d005c    ..\.    LDRB     r0,[sp,#0x5c]
        0x00018a3c:    b928        (.      CBNZ     r0,0x18a4a ; am_hal_card_init + 146
        0x00018a3e:    9910        ..      LDR      r1,[sp,#0x40]
        0x00018a40:    9813        ..      LDR      r0,[sp,#0x4c]
        0x00018a42:    4301        .C      ORRS     r1,r1,r0
        0x00018a44:    2800        .(      CMP      r0,#0
        0x00018a46:    9110        ..      STR      r1,[sp,#0x40]
        0x00018a48:    d40d        ..      BMI      0x18a66 ; am_hal_card_init + 174
        0x00018a4a:    200a        .       MOVS     r0,#0xa
        0x00018a4c:    f002fc06    ....    BL       am_util_delay_ms ; 0x1b25c
        0x00018a50:    3e01        .>      SUBS     r6,#1
        0x00018a52:    0630        0.      LSLS     r0,r6,#24
        0x00018a54:    d1ea        ..      BNE      0x18a2c ; am_hal_card_init + 116
        0x00018a56:    2601        .&      MOVS     r6,#1
        0x00018a58:    e000        ..      B        0x18a5c ; am_hal_card_init + 164
        0x00018a5a:    2606        .&      MOVS     r6,#6
        0x00018a5c:    4630        0F      MOV      r0,r6
        0x00018a5e:    f50d7d0f    ...}    ADD      sp,sp,#0x23c
        0x00018a62:    e8bd8ff0    ....    POP      {r4-r11,pc}
        0x00018a66:    0631        1.      LSLS     r1,r6,#24
        0x00018a68:    6060        ``      STR      r0,[r4,#4]
        0x00018a6a:    d0f4        ..      BEQ      0x18a56 ; am_hal_card_init + 158
        0x00018a6c:    ad0f        ..      ADD      r5,sp,#0x3c
        0x00018a6e:    f8d46274    ..tb    LDR      r6,[r4,#0x274]
        0x00018a72:    4628        (F      MOV      r0,r5
        0x00018a74:    2124        $!      MOVS     r1,#0x24
        0x00018a76:    f7fffc89    ....    BL       __aeabi_memclr4 ; 0x1838c
        0x00018a7a:    2002        .       MOVS     r0,#2
        0x00018a7c:    f88d003c    ..<.    STRB     r0,[sp,#0x3c]
        0x00018a80:    2000        .       MOVS     r0,#0
        0x00018a82:    9010        ..      STR      r0,[sp,#0x40]
        0x00018a84:    2007        .       MOVS     r0,#7
        0x00018a86:    6e31        1n      LDR      r1,[r6,#0x60]
        0x00018a88:    9011        ..      STR      r0,[sp,#0x44]
        0x00018a8a:    6830        0h      LDR      r0,[r6,#0]
        0x00018a8c:    68cb        .h      LDR      r3,[r1,#0xc]
        0x00018a8e:    4629        )F      MOV      r1,r5
        0x00018a90:    2200        ."      MOVS     r2,#0
        0x00018a92:    4798        .G      BLX      r3
        0x00018a94:    f89d005c    ..\.    LDRB     r0,[sp,#0x5c]
        0x00018a98:    2800        .(      CMP      r0,#0
        0x00018a9a:    d1dc        ..      BNE      0x18a56 ; am_hal_card_init + 158
        0x00018a9c:    ab13        ..      ADD      r3,sp,#0x4c
        0x00018a9e:    cb0f        ..      LDM      r3,{r0-r3}
        0x00018aa0:    f1040c0c    ....    ADD      r12,r4,#0xc
        0x00018aa4:    e88c0007    ....    STM      r12,{r0-r2}
        0x00018aa8:    78a0        .x      LDRB     r0,[r4,#2]
        0x00018aaa:    ad0f        ..      ADD      r5,sp,#0x3c
        0x00018aac:    f0400001    @...    ORR      r0,r0,#1
        0x00018ab0:    f8d47274    ..tr    LDR      r7,[r4,#0x274]
        0x00018ab4:    70a0        .p      STRB     r0,[r4,#2]
        0x00018ab6:    4628        (F      MOV      r0,r5
        0x00018ab8:    2124        $!      MOVS     r1,#0x24
        0x00018aba:    61a3        .a      STR      r3,[r4,#0x18]
        0x00018abc:    f7fffc66    ..f.    BL       __aeabi_memclr4 ; 0x1838c
        0x00018ac0:    2003        .       MOVS     r0,#3
        0x00018ac2:    f88d003c    ..<.    STRB     r0,[sp,#0x3c]
        0x00018ac6:    f44f3680    O..6    MOV      r6,#0x10000
        0x00018aca:    2015        .       MOVS     r0,#0x15
        0x00018acc:    6e39        9n      LDR      r1,[r7,#0x60]
        0x00018ace:    9610        ..      STR      r6,[sp,#0x40]
        0x00018ad0:    9011        ..      STR      r0,[sp,#0x44]
        0x00018ad2:    6838        8h      LDR      r0,[r7,#0]
        0x00018ad4:    68cb        .h      LDR      r3,[r1,#0xc]
        0x00018ad6:    4629        )F      MOV      r1,r5
        0x00018ad8:    2200        ."      MOVS     r2,#0
        0x00018ada:    4798        .G      BLX      r3
        0x00018adc:    f89d005c    ..\.    LDRB     r0,[sp,#0x5c]
        0x00018ae0:    2800        .(      CMP      r0,#0
        0x00018ae2:    d1b8        ..      BNE      0x18a56 ; am_hal_card_init + 158
        0x00018ae4:    2001        .       MOVS     r0,#1
        0x00018ae6:    ad0f        ..      ADD      r5,sp,#0x3c
        0x00018ae8:    f8d47274    ..tr    LDR      r7,[r4,#0x274]
        0x00018aec:    7220         r      STRB     r0,[r4,#8]
        0x00018aee:    4628        (F      MOV      r0,r5
        0x00018af0:    2124        $!      MOVS     r1,#0x24
        0x00018af2:    f7fffc4b    ..K.    BL       __aeabi_memclr4 ; 0x1838c
        0x00018af6:    2009        .       MOVS     r0,#9
        0x00018af8:    f88d003c    ..<.    STRB     r0,[sp,#0x3c]
        0x00018afc:    2007        .       MOVS     r0,#7
        0x00018afe:    6e39        9n      LDR      r1,[r7,#0x60]
        0x00018b00:    9610        ..      STR      r6,[sp,#0x40]
        0x00018b02:    9011        ..      STR      r0,[sp,#0x44]
        0x00018b04:    6838        8h      LDR      r0,[r7,#0]
        0x00018b06:    68cb        .h      LDR      r3,[r1,#0xc]
        0x00018b08:    4629        )F      MOV      r1,r5
        0x00018b0a:    2200        ."      MOVS     r2,#0
        0x00018b0c:    4798        .G      BLX      r3
        0x00018b0e:    f89d005c    ..\.    LDRB     r0,[sp,#0x5c]
        0x00018b12:    2800        .(      CMP      r0,#0
        0x00018b14:    d19f        ..      BNE      0x18a56 ; am_hal_card_init + 158
        0x00018b16:    ab13        ..      ADD      r3,sp,#0x4c
        0x00018b18:    cb0f        ..      LDM      r3,{r0-r3}
        0x00018b1a:    f1040c1c    ....    ADD      r12,r4,#0x1c
        0x00018b1e:    e88c0007    ....    STM      r12,{r0-r2}
        0x00018b22:    78a0        .x      LDRB     r0,[r4,#2]
        0x00018b24:    62a3        .b      STR      r3,[r4,#0x28]
        0x00018b26:    f0400002    @...    ORR      r0,r0,#2
        0x00018b2a:    70a0        .p      STRB     r0,[r4,#2]
        0x00018b2c:    4620         F      MOV      r0,r4
        0x00018b2e:    f002f8c8    ....    BL       am_hal_sdmmc_cmd7_card_select ; 0x1acc2
        0x00018b32:    2800        .(      CMP      r0,#0
        0x00018b34:    f04f0601    O...    MOV      r6,#1
        0x00018b38:    d190        ..      BNE      0x18a5c ; am_hal_card_init + 164
        0x00018b3a:    f10d0818    ....    ADD      r8,sp,#0x18
        0x00018b3e:    f8d47274    ..tr    LDR      r7,[r4,#0x274]
        0x00018b42:    4640        @F      MOV      r0,r8
        0x00018b44:    2124        $!      MOVS     r1,#0x24
        0x00018b46:    f7fffc21    ..!.    BL       __aeabi_memclr4 ; 0x1838c
        0x00018b4a:    2013        .       MOVS     r0,#0x13
        0x00018b4c:    f10d0904    ....    ADD      r9,sp,#4
        0x00018b50:    f88d0018    ....    STRB     r0,[sp,#0x18]
        0x00018b54:    f04f0a00    O...    MOV      r10,#0
        0x00018b58:    f04f0b15    O...    MOV      r11,#0x15
        0x00018b5c:    4648        HF      MOV      r0,r9
        0x00018b5e:    2114        .!      MOVS     r1,#0x14
        0x00018b60:    f8cda01c    ....    STR      r10,[sp,#0x1c]
        0x00018b64:    f8cdb020    .. .    STR      r11,[sp,#0x20]
        0x00018b68:    f7fffc10    ....    BL       __aeabi_memclr4 ; 0x1838c
        0x00018b6c:    9604        ..      STR      r6,[sp,#0x10]
        0x00018b6e:    f44f7600    O..v    MOV      r6,#0x200
        0x00018b72:    f2401001    @...    MOV      r0,#0x101
        0x00018b76:    6e39        9n      LDR      r1,[r7,#0x60]
        0x00018b78:    9502        ..      STR      r5,[sp,#8]
        0x00018b7a:    9603        ..      STR      r6,[sp,#0xc]
        0x00018b7c:    f8ad0004    ....    STRH     r0,[sp,#4]
        0x00018b80:    6838        8h      LDR      r0,[r7,#0]
        0x00018b82:    68cb        .h      LDR      r3,[r1,#0xc]
        0x00018b84:    4641        AF      MOV      r1,r8
        0x00018b86:    464a        JF      MOV      r2,r9
        0x00018b88:    4798        .G      BLX      r3
        0x00018b8a:    0401        ..      LSLS     r1,r0,#16
        0x00018b8c:    d123        #.      BNE      0x18bd6 ; am_hal_card_init + 542
        0x00018b8e:    f10d0818    ....    ADD      r8,sp,#0x18
        0x00018b92:    4640        @F      MOV      r0,r8
        0x00018b94:    2124        $!      MOVS     r1,#0x24
        0x00018b96:    f7fffbf9    ....    BL       __aeabi_memclr4 ; 0x1838c
        0x00018b9a:    200e        .       MOVS     r0,#0xe
        0x00018b9c:    f10d0904    ....    ADD      r9,sp,#4
        0x00018ba0:    f88d0018    ....    STRB     r0,[sp,#0x18]
        0x00018ba4:    4648        HF      MOV      r0,r9
        0x00018ba6:    2114        .!      MOVS     r1,#0x14
        0x00018ba8:    e9cdab07    ....    STRD     r10,r11,[sp,#0x1c]
        0x00018bac:    f7fffbee    ....    BL       __aeabi_memclr4 ; 0x1838c
        0x00018bb0:    2001        .       MOVS     r0,#1
        0x00018bb2:    e9cd6003    ...`    STRD     r6,r0,[sp,#0xc]
        0x00018bb6:    f44f7080    O..p    MOV      r0,#0x100
        0x00018bba:    6e39        9n      LDR      r1,[r7,#0x60]
        0x00018bbc:    9502        ..      STR      r5,[sp,#8]
        0x00018bbe:    f8ad0004    ....    STRH     r0,[sp,#4]
        0x00018bc2:    6838        8h      LDR      r0,[r7,#0]
        0x00018bc4:    68cb        .h      LDR      r3,[r1,#0xc]
        0x00018bc6:    4641        AF      MOV      r1,r8
        0x00018bc8:    464a        JF      MOV      r2,r9
        0x00018bca:    4798        .G      BLX      r3
        0x00018bcc:    4601        .F      MOV      r1,r0
        0x00018bce:    b280        ..      UXTH     r0,r0
        0x00018bd0:    2800        .(      CMP      r0,#0
        0x00018bd2:    bf18        ..      IT       NE
        0x00018bd4:    4608        .F      MOVNE    r0,r1
        0x00018bd6:    2800        .(      CMP      r0,#0
        0x00018bd8:    f47faf3d    ..=.    BNE      0x18a56 ; am_hal_card_init + 158
        0x00018bdc:    4620         F      MOV      r0,r4
        0x00018bde:    f002f895    ....    BL       am_hal_sdmmc_cmd8_send_ext_csd ; 0x1ad0c
        0x00018be2:    2800        .(      CMP      r0,#0
        0x00018be4:    f47faf37    ..7.    BNE      0x18a56 ; am_hal_card_init + 158
        0x00018be8:    e9d40108    ....    LDRD     r0,r1,[r4,#0x20]
        0x00018bec:    0082        ..      LSLS     r2,r0,#2
        0x00018bee:    ea427191    B..q    ORR      r1,r2,r1,LSR #30
        0x00018bf2:    f36f311f    o..1    BFC      r1,#12,#20
        0x00018bf6:    f64072ff    @..r    MOV      r2,#0xfff
        0x00018bfa:    4291        .B      CMP      r1,r2
        0x00018bfc:    f6a171ff    ...q    SUB      r1,r1,#0xfff
        0x00018c00:    fab1f181    ....    CLZ      r1,r1
        0x00018c04:    ea4f1151    O.Q.    LSR      r1,r1,#5
        0x00018c08:    f884122f    ../.    STRB     r1,[r4,#0x22f]
        0x00018c0c:    d167        g.      BNE      0x18cde ; am_hal_card_init + 806
        0x00018c0e:    f8941069    ..i.    LDRB     r1,[r4,#0x69]
        0x00018c12:    f44f5280    O..R    MOV      r2,#0x1000
        0x00018c16:    2900        .)      CMP      r1,#0
        0x00018c18:    f44f5180    O..Q    MOV      r1,#0x1000
        0x00018c1c:    bf08        ..      IT       EQ
        0x00018c1e:    f44f7100    O..q    MOVEQ    r1,#0x200
        0x00018c22:    f894306a    ..j0    LDRB     r3,[r4,#0x6a]
        0x00018c26:    f894706b    ..kp    LDRB     r7,[r4,#0x6b]
        0x00018c2a:    fab3f383    ....    CLZ      r3,r3
        0x00018c2e:    095b        [.      LSRS     r3,r3,#5
        0x00018c30:    f8c41258    ..X.    STR      r1,[r4,#0x258]
        0x00018c34:    f8843250    ..P2    STRB     r3,[r4,#0x250]
        0x00018c38:    2f00        ./      CMP      r7,#0
        0x00018c3a:    bf08        ..      IT       EQ
        0x00018c3c:    f44f7200    O..r    MOVEQ    r2,#0x200
        0x00018c40:    f8c42254    ..T"    STR      r2,[r4,#0x254]
        0x00018c44:    69e2        .i      LDR      r2,[r4,#0x1c]
        0x00018c46:    0d00        ..      LSRS     r0,r0,#20
        0x00018c48:    f8a40260    ..`.    STRH     r0,[r4,#0x260]
        0x00018c4c:    f3c26083    ...`    UBFX     r0,r2,#26,#4
        0x00018c50:    f89420d4    ...     LDRB     r2,[r4,#0xd4]
        0x00018c54:    f884022c    ..,.    STRB     r0,[r4,#0x22c]
        0x00018c58:    f8c4225c    ..\"    STR      r2,[r4,#0x25c]
        0x00018c5c:    f89420f0    ...     LDRB     r2,[r4,#0xf0]
        0x00018c60:    f89400ec    ....    LDRB     r0,[r4,#0xec]
        0x00018c64:    f8842249    ..I"    STRB     r2,[r4,#0x249]
        0x00018c68:    f5047280    ...r    ADD      r2,r4,#0x100
        0x00018c6c:    2300        .#      MOVS     r3,#0
        0x00018c6e:    2700        .'      MOVS     r7,#0
        0x00018c70:    f884022d    ..-.    STRB     r0,[r4,#0x22d]
        0x00018c74:    f8126b01    ...k    LDRB     r6,[r2],#1
        0x00018c78:    409e        .@      LSLS     r6,r6,r3
        0x00018c7a:    3308        .3      ADDS     r3,r3,#8
        0x00018c7c:    2b20         +      CMP      r3,#0x20
        0x00018c7e:    ea470706    G...    ORR      r7,r7,r6
        0x00018c82:    d1f7        ..      BNE      0x18c74 ; am_hal_card_init + 700
        0x00018c84:    4379        yC      MULS     r1,r7,r1
        0x00018c86:    e9c47190    ...q    STRD     r7,r1,[r4,#0x240]
        0x00018c8a:    f2041125    ..%.    ADD      r1,r4,#0x125
        0x00018c8e:    2200        ."      MOVS     r2,#0
        0x00018c90:    2300        .#      MOVS     r3,#0
        0x00018c92:    f8117b01    ...{    LDRB     r7,[r1],#1
        0x00018c96:    4097        .@      LSLS     r7,r7,r2
        0x00018c98:    3208        .2      ADDS     r2,r2,#8
        0x00018c9a:    2a20         *      CMP      r2,#0x20
        0x00018c9c:    ea430307    C...    ORR      r3,r3,r7
        0x00018ca0:    d1f7        ..      BNE      0x18c92 ; am_hal_card_init + 730
        0x00018ca2:    f8941113    ....    LDRB     r1,[r4,#0x113]
        0x00018ca6:    2806        .(      CMP      r0,#6
        0x00018ca8:    f8841248    ..H.    STRB     r1,[r4,#0x248]
        0x00018cac:    f44f71fa    O..q    MOV      r1,#0x1f4
        0x00018cb0:    f8c43230    ..02    STR      r3,[r4,#0x230]
        0x00018cb4:    f8c4123c    ..<.    STR      r1,[r4,#0x23c]
        0x00018cb8:    d311        ..      BCC      0x18cde ; am_hal_card_init + 806
        0x00018cba:    f8940104    ....    LDRB     r0,[r4,#0x104]
        0x00018cbe:    f8941123    ..#.    LDRB     r1,[r4,#0x123]
        0x00018cc2:    f8942124    ..$!    LDRB     r2,[r4,#0x124]
        0x00018cc6:    eb000080    ....    ADD      r0,r0,r0,LSL #2
        0x00018cca:    0040        @.      LSLS     r0,r0,#1
        0x00018ccc:    eb010181    ....    ADD      r1,r1,r1,LSL #2
        0x00018cd0:    eb020282    ....    ADD      r2,r2,r2,LSL #2
        0x00018cd4:    f504730d    ...s    ADD      r3,r4,#0x234
        0x00018cd8:    0049        I.      LSLS     r1,r1,#1
        0x00018cda:    0052        R.      LSLS     r2,r2,#1
        0x00018cdc:    c307        ..      STM      r3!,{r0-r2}
        0x00018cde:    f8d40274    ..t.    LDR      r0,[r4,#0x274]
        0x00018ce2:    b188        ..      CBZ      r0,0x18d08 ; am_hal_card_init + 848
        0x00018ce4:    f8d40230    ..0.    LDR      r0,[r4,#0x230]
        0x00018ce8:    b170        p.      CBZ      r0,0x18d08 ; am_hal_card_init + 848
        0x00018cea:    f2401100    @...    MOVW     r1,#0x100
        0x00018cee:    f2c03121    ..!1    MOVT     r1,#0x321
        0x00018cf2:    4620         F      MOV      r0,r4
        0x00018cf4:    f44f72fa    O..r    MOV      r2,#0x1f4
        0x00018cf8:    f000f816    ....    BL       am_hal_card_mode_switch ; 0x18d28
        0x00018cfc:    b920         .      CBNZ     r0,0x18d08 ; am_hal_card_init + 848
        0x00018cfe:    4620         F      MOV      r0,r4
        0x00018d00:    2121        !!      MOVS     r1,#0x21
        0x00018d02:    2201        ."      MOVS     r2,#1
        0x00018d04:    f7fffe08    ....    BL       am_hal_card_get_ext_csd_field ; 0x18918
        0x00018d08:    2600        .&      MOVS     r6,#0
        0x00018d0a:    4620         F      MOV      r0,r4
        0x00018d0c:    2101        .!      MOVS     r1,#1
        0x00018d0e:    f884622e    ...b    STRB     r6,[r4,#0x22e]
        0x00018d12:    2501        .%      MOVS     r5,#1
        0x00018d14:    f000f85d    ..].    BL       am_hal_card_pwr_notification ; 0x18dd2
        0x00018d18:    2800        .(      CMP      r0,#0
        0x00018d1a:    f47fae9f    ....    BNE      0x18a5c ; am_hal_card_init + 164
        0x00018d1e:    2600        .&      MOVS     r6,#0
        0x00018d20:    f884522e    ...R    STRB     r5,[r4,#0x22e]
        0x00018d24:    e69a        ..      B        0x18a5c ; am_hal_card_init + 164
        0x00018d26:    0000        ..      MOVS     r0,r0
    am_hal_card_mode_switch
        0x00018d28:    b5f0        ..      PUSH     {r4-r7,lr}
        0x00018d2a:    b08b        ..      SUB      sp,sp,#0x2c
        0x00018d2c:    2800        .(      CMP      r0,#0
        0x00018d2e:    d047        G.      BEQ      0x18dc0 ; am_hal_card_mode_switch + 152
        0x00018d30:    f8d07274    ..tr    LDR      r7,[r0,#0x274]
        0x00018d34:    4604        .F      MOV      r4,r0
        0x00018d36:    2f00        ./      CMP      r7,#0
        0x00018d38:    d042        B.      BEQ      0x18dc0 ; am_hal_card_mode_switch + 152
        0x00018d3a:    7860        `x      LDRB     r0,[r4,#1]
        0x00018d3c:    2806        .(      CMP      r0,#6
        0x00018d3e:    d141        A.      BNE      0x18dc4 ; am_hal_card_mode_switch + 156
        0x00018d40:    460e        .F      MOV      r6,r1
        0x00018d42:    a801        ..      ADD      r0,sp,#4
        0x00018d44:    2124        $!      MOVS     r1,#0x24
        0x00018d46:    4615        .F      MOV      r5,r2
        0x00018d48:    f7fffb20    .. .    BL       __aeabi_memclr4 ; 0x1838c
        0x00018d4c:    2006        .       MOVS     r0,#6
        0x00018d4e:    f88d0004    ....    STRB     r0,[sp,#4]
        0x00018d52:    78a0        .x      LDRB     r0,[r4,#2]
        0x00018d54:    7821        !x      LDRB     r1,[r4,#0]
        0x00018d56:    f00000fb    ....    AND      r0,r0,#0xfb
        0x00018d5a:    3901        .9      SUBS     r1,#1
        0x00018d5c:    9602        ..      STR      r6,[sp,#8]
        0x00018d5e:    2901        .)      CMP      r1,#1
        0x00018d60:    70a0        .p      STRB     r0,[r4,#2]
        0x00018d62:    bf8f        ..      ITEEE    HI
        0x00018d64:    2015        .       MOVHI    r0,#0x15
        0x00018d66:    2001        .       MOVLS    r0,#1
        0x00018d68:    f88d0010    ....    STRBLS   r0,[sp,#0x10]
        0x00018d6c:    201d        .       MOVLS    r0,#0x1d
        0x00018d6e:    6e39        9n      LDR      r1,[r7,#0x60]
        0x00018d70:    9003        ..      STR      r0,[sp,#0xc]
        0x00018d72:    68cb        .h      LDR      r3,[r1,#0xc]
        0x00018d74:    6838        8h      LDR      r0,[r7,#0]
        0x00018d76:    a901        ..      ADD      r1,sp,#4
        0x00018d78:    2200        ."      MOVS     r2,#0
        0x00018d7a:    4798        .G      BLX      r3
        0x00018d7c:    bb18        ..      CBNZ     r0,0x18dc6 ; am_hal_card_mode_switch + 158
        0x00018d7e:    7820         x      LDRB     r0,[r4,#0]
        0x00018d80:    3801        .8      SUBS     r0,#1
        0x00018d82:    2801        .(      CMP      r0,#1
        0x00018d84:    d805        ..      BHI      0x18d92 ; am_hal_card_mode_switch + 106
        0x00018d86:    6e39        9n      LDR      r1,[r7,#0x60]
        0x00018d88:    6838        8h      LDR      r0,[r7,#0]
        0x00018d8a:    6a8a        .j      LDR      r2,[r1,#0x28]
        0x00018d8c:    210a        .!      MOVS     r1,#0xa
        0x00018d8e:    4790        .G      BLX      r2
        0x00018d90:    b9c8        ..      CBNZ     r0,0x18dc6 ; am_hal_card_mode_switch + 158
        0x00018d92:    2000        .       MOVS     r0,#0
        0x00018d94:    1c6e        n.      ADDS     r6,r5,#1
        0x00018d96:    ad0a        ..      ADD      r5,sp,#0x28
        0x00018d98:    900a        ..      STR      r0,[sp,#0x28]
        0x00018d9a:    bf00        ..      NOP      
        0x00018d9c:    4620         F      MOV      r0,r4
        0x00018d9e:    4629        )F      MOV      r1,r5
        0x00018da0:    f000f991    ....    BL       am_hal_card_status ; 0x190c6
        0x00018da4:    b920         .      CBNZ     r0,0x18db0 ; am_hal_card_mode_switch + 136
        0x00018da6:    980a        ..      LDR      r0,[sp,#0x28]
        0x00018da8:    0601        ..      LSLS     r1,r0,#24
        0x00018daa:    d40e        ..      BMI      0x18dca ; am_hal_card_mode_switch + 162
        0x00018dac:    05c0        ..      LSLS     r0,r0,#23
        0x00018dae:    d40e        ..      BMI      0x18dce ; am_hal_card_mode_switch + 166
        0x00018db0:    2001        .       MOVS     r0,#1
        0x00018db2:    f002fa53    ..S.    BL       am_util_delay_ms ; 0x1b25c
        0x00018db6:    3e01        .>      SUBS     r6,#1
        0x00018db8:    f04f0000    O...    MOV      r0,#0
        0x00018dbc:    d1ee        ..      BNE      0x18d9c ; am_hal_card_mode_switch + 116
        0x00018dbe:    e002        ..      B        0x18dc6 ; am_hal_card_mode_switch + 158
        0x00018dc0:    2006        .       MOVS     r0,#6
        0x00018dc2:    e000        ..      B        0x18dc6 ; am_hal_card_mode_switch + 158
        0x00018dc4:    2007        .       MOVS     r0,#7
        0x00018dc6:    b00b        ..      ADD      sp,sp,#0x2c
        0x00018dc8:    bdf0        ..      POP      {r4-r7,pc}
        0x00018dca:    2001        .       MOVS     r0,#1
        0x00018dcc:    e7fb        ..      B        0x18dc6 ; am_hal_card_mode_switch + 158
        0x00018dce:    2000        .       MOVS     r0,#0
        0x00018dd0:    e7f9        ..      B        0x18dc6 ; am_hal_card_mode_switch + 158
    am_hal_card_pwr_notification
        0x00018dd2:    b5b0        ..      PUSH     {r4,r5,r7,lr}
        0x00018dd4:    b198        ..      CBZ      r0,0x18dfe ; am_hal_card_pwr_notification + 44
        0x00018dd6:    4604        .F      MOV      r4,r0
        0x00018dd8:    f8d00274    ..t.    LDR      r0,[r0,#0x274]
        0x00018ddc:    b178        x.      CBZ      r0,0x18dfe ; am_hal_card_pwr_notification + 44
        0x00018dde:    f894022d    ..-.    LDRB     r0,[r4,#0x22d]
        0x00018de2:    2806        .(      CMP      r0,#6
        0x00018de4:    bf3c        <.      ITT      CC
        0x00018de6:    2007        .       MOVCC    r0,#7
        0x00018de8:    bdb0        ..      POPCC    {r4,r5,r7,pc}
        0x00018dea:    460d        .F      MOV      r5,r1
        0x00018dec:    2901        .)      CMP      r1,#1
        0x00018dee:    d008        ..      BEQ      0x18e02 ; am_hal_card_pwr_notification + 48
        0x00018df0:    2d04        .-      CMP      r5,#4
        0x00018df2:    d009        ..      BEQ      0x18e08 ; am_hal_card_pwr_notification + 54
        0x00018df4:    2d03        .-      CMP      r5,#3
        0x00018df6:    d102        ..      BNE      0x18dfe ; am_hal_card_pwr_notification + 44
        0x00018df8:    f504700e    ...p    ADD      r0,r4,#0x238
        0x00018dfc:    e006        ..      B        0x18e0c ; am_hal_card_pwr_notification + 58
        0x00018dfe:    2006        .       MOVS     r0,#6
        0x00018e00:    bdb0        ..      POP      {r4,r5,r7,pc}
        0x00018e02:    f44f72fa    O..r    MOV      r2,#0x1f4
        0x00018e06:    e002        ..      B        0x18e0e ; am_hal_card_pwr_notification + 60
        0x00018e08:    f504700d    ...p    ADD      r0,r4,#0x234
        0x00018e0c:    6802        .h      LDR      r2,[r0,#0]
        0x00018e0e:    2000        .       MOVS     r0,#0
        0x00018e10:    f2c03022    .."0    MOVT     r0,#0x322
        0x00018e14:    ea402105    @..!    ORR      r1,r0,r5,LSL #8
        0x00018e18:    4620         F      MOV      r0,r4
        0x00018e1a:    f7ffff85    ....    BL       am_hal_card_mode_switch ; 0x18d28
        0x00018e1e:    2800        .(      CMP      r0,#0
        0x00018e20:    bf12        ..      ITEE     NE
        0x00018e22:    2001        .       MOVNE    r0,#1
        0x00018e24:    f884522e    ...R    STRBEQ   r5,[r4,#0x22e]
        0x00018e28:    2000        .       MOVEQ    r0,#0
        0x00018e2a:    bdb0        ..      POP      {r4,r5,r7,pc}
    am_hal_card_pwrctrl_sleep
        0x00018e2c:    b570        p.      PUSH     {r4-r6,lr}
        0x00018e2e:    b3c8        ..      CBZ      r0,0x18ea4 ; am_hal_card_pwrctrl_sleep + 120
        0x00018e30:    f8d06274    ..tb    LDR      r6,[r0,#0x274]
        0x00018e34:    4604        .F      MOV      r4,r0
        0x00018e36:    b3ae        ..      CBZ      r6,0x18ea4 ; am_hal_card_pwrctrl_sleep + 120
        0x00018e38:    f8940268    ..h.    LDRB     r0,[r4,#0x268]
        0x00018e3c:    2801        .(      CMP      r0,#1
        0x00018e3e:    d05e        ^.      BEQ      0x18efe ; am_hal_card_pwrctrl_sleep + 210
        0x00018e40:    2802        .(      CMP      r0,#2
        0x00018e42:    d032        2.      BEQ      0x18eaa ; am_hal_card_pwrctrl_sleep + 126
        0x00018e44:    2803        .(      CMP      r0,#3
        0x00018e46:    d14f        O.      BNE      0x18ee8 ; am_hal_card_pwrctrl_sleep + 188
        0x00018e48:    f8d40230    ..0.    LDR      r0,[r4,#0x230]
        0x00018e4c:    2800        .(      CMP      r0,#0
        0x00018e4e:    d04d        M.      BEQ      0x18eec ; am_hal_card_pwrctrl_sleep + 192
        0x00018e50:    2100        .!      MOVS     r1,#0
        0x00018e52:    f2c03121    ..!1    MOVT     r1,#0x321
        0x00018e56:    4620         F      MOV      r0,r4
        0x00018e58:    f44f72fa    O..r    MOV      r2,#0x1f4
        0x00018e5c:    f7ffff64    ..d.    BL       am_hal_card_mode_switch ; 0x18d28
        0x00018e60:    4605        .F      MOV      r5,r0
        0x00018e62:    bb00        ..      CBNZ     r0,0x18ea6 ; am_hal_card_pwrctrl_sleep + 122
        0x00018e64:    4620         F      MOV      r0,r4
        0x00018e66:    2103        .!      MOVS     r1,#3
        0x00018e68:    f7ffffb3    ....    BL       am_hal_card_pwr_notification ; 0x18dd2
        0x00018e6c:    4605        .F      MOV      r5,r0
        0x00018e6e:    b9d0        ..      CBNZ     r0,0x18ea6 ; am_hal_card_pwrctrl_sleep + 122
        0x00018e70:    2000        .       MOVS     r0,#0
        0x00018e72:    7a25        %z      LDRB     r5,[r4,#8]
        0x00018e74:    7220         r      STRB     r0,[r4,#8]
        0x00018e76:    4620         F      MOV      r0,r4
        0x00018e78:    f001ff23    ..#.    BL       am_hal_sdmmc_cmd7_card_select ; 0x1acc2
        0x00018e7c:    7225        %r      STRB     r5,[r4,#8]
        0x00018e7e:    bb88        ..      CBNZ     r0,0x18ee4 ; am_hal_card_pwrctrl_sleep + 184
        0x00018e80:    4620         F      MOV      r0,r4
        0x00018e82:    2101        .!      MOVS     r1,#1
        0x00018e84:    2501        .%      MOVS     r5,#1
        0x00018e86:    f001feee    ....    BL       am_hal_sdmmc_cmd5 ; 0x1ac66
        0x00018e8a:    b960        `.      CBNZ     r0,0x18ea6 ; am_hal_card_pwrctrl_sleep + 122
        0x00018e8c:    f8d41264    ..d.    LDR      r1,[r4,#0x264]
        0x00018e90:    b109        ..      CBZ      r1,0x18e96 ; am_hal_card_pwrctrl_sleep + 106
        0x00018e92:    2001        .       MOVS     r0,#1
        0x00018e94:    4788        .G      BLX      r1
        0x00018e96:    6e32        2n      LDR      r2,[r6,#0x60]
        0x00018e98:    6830        0h      LDR      r0,[r6,#0]
        0x00018e9a:    6852        Rh      LDR      r2,[r2,#4]
        0x00018e9c:    210e        .!      MOVS     r1,#0xe
        0x00018e9e:    7061        ap      STRB     r1,[r4,#1]
        0x00018ea0:    4790        .G      BLX      r2
        0x00018ea2:    e031        1.      B        0x18f08 ; am_hal_card_pwrctrl_sleep + 220
        0x00018ea4:    2506        .%      MOVS     r5,#6
        0x00018ea6:    4628        (F      MOV      r0,r5
        0x00018ea8:    bd70        p.      POP      {r4-r6,pc}
        0x00018eaa:    f8d40230    ..0.    LDR      r0,[r4,#0x230]
        0x00018eae:    b1e8        ..      CBZ      r0,0x18eec ; am_hal_card_pwrctrl_sleep + 192
        0x00018eb0:    2100        .!      MOVS     r1,#0
        0x00018eb2:    f2c03121    ..!1    MOVT     r1,#0x321
        0x00018eb6:    4620         F      MOV      r0,r4
        0x00018eb8:    f44f72fa    O..r    MOV      r2,#0x1f4
        0x00018ebc:    f7ffff34    ..4.    BL       am_hal_card_mode_switch ; 0x18d28
        0x00018ec0:    4605        .F      MOV      r5,r0
        0x00018ec2:    2800        .(      CMP      r0,#0
        0x00018ec4:    d1ef        ..      BNE      0x18ea6 ; am_hal_card_pwrctrl_sleep + 122
        0x00018ec6:    4620         F      MOV      r0,r4
        0x00018ec8:    2104        .!      MOVS     r1,#4
        0x00018eca:    f7ffff82    ....    BL       am_hal_card_pwr_notification ; 0x18dd2
        0x00018ece:    4605        .F      MOV      r5,r0
        0x00018ed0:    2800        .(      CMP      r0,#0
        0x00018ed2:    d1e8        ..      BNE      0x18ea6 ; am_hal_card_pwrctrl_sleep + 122
        0x00018ed4:    2000        .       MOVS     r0,#0
        0x00018ed6:    7a25        %z      LDRB     r5,[r4,#8]
        0x00018ed8:    7220         r      STRB     r0,[r4,#8]
        0x00018eda:    4620         F      MOV      r0,r4
        0x00018edc:    f001fef1    ....    BL       am_hal_sdmmc_cmd7_card_select ; 0x1acc2
        0x00018ee0:    7225        %r      STRB     r5,[r4,#8]
        0x00018ee2:    b128        (.      CBZ      r0,0x18ef0 ; am_hal_card_pwrctrl_sleep + 196
        0x00018ee4:    2501        .%      MOVS     r5,#1
        0x00018ee6:    e7de        ..      B        0x18ea6 ; am_hal_card_pwrctrl_sleep + 122
        0x00018ee8:    2500        .%      MOVS     r5,#0
        0x00018eea:    e7dc        ..      B        0x18ea6 ; am_hal_card_pwrctrl_sleep + 122
        0x00018eec:    2507        .%      MOVS     r5,#7
        0x00018eee:    e7da        ..      B        0x18ea6 ; am_hal_card_pwrctrl_sleep + 122
        0x00018ef0:    4620         F      MOV      r0,r4
        0x00018ef2:    2101        .!      MOVS     r1,#1
        0x00018ef4:    2501        .%      MOVS     r5,#1
        0x00018ef6:    f001feb6    ....    BL       am_hal_sdmmc_cmd5 ; 0x1ac66
        0x00018efa:    2800        .(      CMP      r0,#0
        0x00018efc:    d1d3        ..      BNE      0x18ea6 ; am_hal_card_pwrctrl_sleep + 122
        0x00018efe:    6e31        1n      LDR      r1,[r6,#0x60]
        0x00018f00:    6830        0h      LDR      r0,[r6,#0]
        0x00018f02:    688a        .h      LDR      r2,[r1,#8]
        0x00018f04:    2100        .!      MOVS     r1,#0
        0x00018f06:    4790        .G      BLX      r2
        0x00018f08:    4605        .F      MOV      r5,r0
        0x00018f0a:    2800        .(      CMP      r0,#0
        0x00018f0c:    bf08        ..      IT       EQ
        0x00018f0e:    2500        .%      MOVEQ    r5,#0
        0x00018f10:    e7c9        ..      B        0x18ea6 ; am_hal_card_pwrctrl_sleep + 122
    am_hal_card_pwrctrl_wakeup
        0x00018f12:    b510        ..      PUSH     {r4,lr}
        0x00018f14:    b082        ..      SUB      sp,sp,#8
        0x00018f16:    b338        8.      CBZ      r0,0x18f68 ; am_hal_card_pwrctrl_wakeup + 86
        0x00018f18:    4604        .F      MOV      r4,r0
        0x00018f1a:    f8d00274    ..t.    LDR      r0,[r0,#0x274]
        0x00018f1e:    b318        ..      CBZ      r0,0x18f68 ; am_hal_card_pwrctrl_wakeup + 86
        0x00018f20:    f8941268    ..h.    LDRB     r1,[r4,#0x268]
        0x00018f24:    2901        .)      CMP      r1,#1
        0x00018f26:    d022        ".      BEQ      0x18f6e ; am_hal_card_pwrctrl_wakeup + 92
        0x00018f28:    2902        .)      CMP      r1,#2
        0x00018f2a:    d029        ).      BEQ      0x18f80 ; am_hal_card_pwrctrl_wakeup + 110
        0x00018f2c:    2903        .)      CMP      r1,#3
        0x00018f2e:    d139        9.      BNE      0x18fa4 ; am_hal_card_pwrctrl_wakeup + 146
        0x00018f30:    6e01        .n      LDR      r1,[r0,#0x60]
        0x00018f32:    6809        .h      LDR      r1,[r1,#0]
        0x00018f34:    4788        .G      BLX      r1
        0x00018f36:    b9c0        ..      CBNZ     r0,0x18f6a ; am_hal_card_pwrctrl_wakeup + 88
        0x00018f38:    f8d41264    ..d.    LDR      r1,[r4,#0x264]
        0x00018f3c:    f8942268    ..h"    LDRB     r2,[r4,#0x268]
        0x00018f40:    4620         F      MOV      r0,r4
        0x00018f42:    f7fffd39    ..9.    BL       am_hal_card_init ; 0x189b8
        0x00018f46:    b980        ..      CBNZ     r0,0x18f6a ; am_hal_card_pwrctrl_wakeup + 88
        0x00018f48:    f8940271    ..q.    LDRB     r0,[r4,#0x271]
        0x00018f4c:    7821        !x      LDRB     r1,[r4,#0]
        0x00018f4e:    f8942270    ..p"    LDRB     r2,[r4,#0x270]
        0x00018f52:    f8d4326c    ..l2    LDR      r3,[r4,#0x26c]
        0x00018f56:    f894c272    ..r.    LDRB     r12,[r4,#0x272]
        0x00018f5a:    9000        ..      STR      r0,[sp,#0]
        0x00018f5c:    4620         F      MOV      r0,r4
        0x00018f5e:    f8cdc004    ....    STR      r12,[sp,#4]
        0x00018f62:    f7fffc4e    ..N.    BL       am_hal_card_cfg_set ; 0x18802
        0x00018f66:    e007        ..      B        0x18f78 ; am_hal_card_pwrctrl_wakeup + 102
        0x00018f68:    2006        .       MOVS     r0,#6
        0x00018f6a:    b002        ..      ADD      sp,sp,#8
        0x00018f6c:    bd10        ..      POP      {r4,pc}
        0x00018f6e:    6e01        .n      LDR      r1,[r0,#0x60]
        0x00018f70:    6800        .h      LDR      r0,[r0,#0]
        0x00018f72:    688a        .h      LDR      r2,[r1,#8]
        0x00018f74:    2101        .!      MOVS     r1,#1
        0x00018f76:    4790        .G      BLX      r2
        0x00018f78:    2800        .(      CMP      r0,#0
        0x00018f7a:    bf08        ..      IT       EQ
        0x00018f7c:    2000        .       MOVEQ    r0,#0
        0x00018f7e:    e7f4        ..      B        0x18f6a ; am_hal_card_pwrctrl_wakeup + 88
        0x00018f80:    6e01        .n      LDR      r1,[r0,#0x60]
        0x00018f82:    6800        .h      LDR      r0,[r0,#0]
        0x00018f84:    688a        .h      LDR      r2,[r1,#8]
        0x00018f86:    2101        .!      MOVS     r1,#1
        0x00018f88:    4790        .G      BLX      r2
        0x00018f8a:    2800        .(      CMP      r0,#0
        0x00018f8c:    d1ed        ..      BNE      0x18f6a ; am_hal_card_pwrctrl_wakeup + 88
        0x00018f8e:    4620         F      MOV      r0,r4
        0x00018f90:    2100        .!      MOVS     r1,#0
        0x00018f92:    f001fe68    ..h.    BL       am_hal_sdmmc_cmd5 ; 0x1ac66
        0x00018f96:    b918        ..      CBNZ     r0,0x18fa0 ; am_hal_card_pwrctrl_wakeup + 142
        0x00018f98:    4620         F      MOV      r0,r4
        0x00018f9a:    f001fe92    ....    BL       am_hal_sdmmc_cmd7_card_select ; 0x1acc2
        0x00018f9e:    b108        ..      CBZ      r0,0x18fa4 ; am_hal_card_pwrctrl_wakeup + 146
        0x00018fa0:    2001        .       MOVS     r0,#1
        0x00018fa2:    e7e2        ..      B        0x18f6a ; am_hal_card_pwrctrl_wakeup + 88
        0x00018fa4:    2000        .       MOVS     r0,#0
        0x00018fa6:    e7e0        ..      B        0x18f6a ; am_hal_card_pwrctrl_wakeup + 88
    am_hal_card_set_bus_width
        0x00018fa8:    b5b0        ..      PUSH     {r4,r5,r7,lr}
        0x00018faa:    b1b0        ..      CBZ      r0,0x18fda ; am_hal_card_set_bus_width + 50
        0x00018fac:    f8d05274    ..tR    LDR      r5,[r0,#0x274]
        0x00018fb0:    b19d        ..      CBZ      r5,0x18fda ; am_hal_card_set_bus_width + 50
        0x00018fb2:    460c        .F      MOV      r4,r1
        0x00018fb4:    7ae9        .z      LDRB     r1,[r5,#0xb]
        0x00018fb6:    42a1        .B      CMP      r1,r4
        0x00018fb8:    d104        ..      BNE      0x18fc4 ; am_hal_card_set_bus_width + 28
        0x00018fba:    7b69        i{      LDRB     r1,[r5,#0xd]
        0x00018fbc:    f8902272    ..r"    LDRB     r2,[r0,#0x272]
        0x00018fc0:    4291        .B      CMP      r1,r2
        0x00018fc2:    d031        1.      BEQ      0x19028 ; am_hal_card_set_bus_width + 128
        0x00018fc4:    2c08        .,      CMP      r4,#8
        0x00018fc6:    d00a        ..      BEQ      0x18fde ; am_hal_card_set_bus_width + 54
        0x00018fc8:    2c04        .,      CMP      r4,#4
        0x00018fca:    d014        ..      BEQ      0x18ff6 ; am_hal_card_set_bus_width + 78
        0x00018fcc:    2c01        .,      CMP      r4,#1
        0x00018fce:    bf12        ..      ITEE     NE
        0x00018fd0:    2100        .!      MOVNE    r1,#0
        0x00018fd2:    2100        .!      MOVEQ    r1,#0
        0x00018fd4:    f2c031b7    ...1    MOVTEQ   r1,#0x3b7
        0x00018fd8:    e018        ..      B        0x1900c ; am_hal_card_set_bus_width + 100
        0x00018fda:    2006        .       MOVS     r0,#6
        0x00018fdc:    bdb0        ..      POP      {r4,r5,r7,pc}
        0x00018fde:    2300        .#      MOVS     r3,#0
        0x00018fe0:    f8902272    ..r"    LDRB     r2,[r0,#0x272]
        0x00018fe4:    f2c033b7    ...3    MOVT     r3,#0x3b7
        0x00018fe8:    f5037100    ...q    ADD      r1,r3,#0x200
        0x00018fec:    2a04        .*      CMP      r2,#4
        0x00018fee:    bf08        ..      IT       EQ
        0x00018ff0:    f50361c0    ...a    ADDEQ    r1,r3,#0x600
        0x00018ff4:    e00a        ..      B        0x1900c ; am_hal_card_set_bus_width + 100
        0x00018ff6:    2300        .#      MOVS     r3,#0
        0x00018ff8:    f8902272    ..r"    LDRB     r2,[r0,#0x272]
        0x00018ffc:    f2c033b7    ...3    MOVT     r3,#0x3b7
        0x00019000:    f5037180    ...q    ADD      r1,r3,#0x100
        0x00019004:    2a04        .*      CMP      r2,#4
        0x00019006:    bf08        ..      IT       EQ
        0x00019008:    f50361a0    ...a    ADDEQ    r1,r3,#0x500
        0x0001900c:    f44f72fa    O..r    MOV      r2,#0x1f4
        0x00019010:    f7fffe8a    ....    BL       am_hal_card_mode_switch ; 0x18d28
        0x00019014:    b100        ..      CBZ      r0,0x19018 ; am_hal_card_set_bus_width + 112
        0x00019016:    bdb0        ..      POP      {r4,r5,r7,pc}
        0x00019018:    6e29        )n      LDR      r1,[r5,#0x60]
        0x0001901a:    6828        (h      LDR      r0,[r5,#0]
        0x0001901c:    694a        Ji      LDR      r2,[r1,#0x14]
        0x0001901e:    4621        !F      MOV      r1,r4
        0x00019020:    4790        .G      BLX      r2
        0x00019022:    b108        ..      CBZ      r0,0x19028 ; am_hal_card_set_bus_width + 128
        0x00019024:    2001        .       MOVS     r0,#1
        0x00019026:    bdb0        ..      POP      {r4,r5,r7,pc}
        0x00019028:    2000        .       MOVS     r0,#0
        0x0001902a:    bdb0        ..      POP      {r4,r5,r7,pc}
    am_hal_card_set_speed
        0x0001902c:    b5f0        ..      PUSH     {r4-r7,lr}
        0x0001902e:    b081        ..      SUB      sp,sp,#4
        0x00019030:    b380        ..      CBZ      r0,0x19094 ; am_hal_card_set_speed + 104
        0x00019032:    f8d06274    ..tb    LDR      r6,[r0,#0x274]
        0x00019036:    4605        .F      MOV      r5,r0
        0x00019038:    b366        f.      CBZ      r6,0x19094 ; am_hal_card_set_speed + 104
        0x0001903a:    f8950272    ..r.    LDRB     r0,[r5,#0x272]
        0x0001903e:    460c        .F      MOV      r4,r1
        0x00019040:    f24931ff    I..1    MOV      r1,#0x93ff
        0x00019044:    f6cf5123    ..#Q    MOVT     r1,#0xfd23
        0x00019048:    2803        .(      CMP      r0,#3
        0x0001904a:    f6464000    F..@    MOVW     r0,#0x6c00
        0x0001904e:    4421        !D      ADD      r1,r1,r4
        0x00019050:    f04f0701    O...    MOV      r7,#1
        0x00019054:    f2c020dc    ...     MOVT     r0,#0x2dc
        0x00019058:    bf08        ..      IT       EQ
        0x0001905a:    2702        .'      MOVEQ    r7,#2
        0x0001905c:    4281        .B      CMP      r1,r0
        0x0001905e:    f64b2080    K..     MOV      r0,#0xba80
        0x00019062:    f2c0108c    ....    MOVT     r0,#0x18c
        0x00019066:    f04f0201    O...    MOV      r2,#1
        0x0001906a:    bf28        (.      IT       CS
        0x0001906c:    4617        .F      MOVCS    r7,r2
        0x0001906e:    4284        .B      CMP      r4,r0
        0x00019070:    d307        ..      BCC      0x19082 ; am_hal_card_set_speed + 86
        0x00019072:    f895022c    ..,.    LDRB     r0,[r5,#0x22c]
        0x00019076:    2804        .(      CMP      r0,#4
        0x00019078:    d303        ..      BCC      0x19082 ; am_hal_card_set_speed + 86
        0x0001907a:    f89500e5    ....    LDRB     r0,[r5,#0xe5]
        0x0001907e:    4287        .B      CMP      r7,r0
        0x00019080:    d10b        ..      BNE      0x1909a ; am_hal_card_set_speed + 110
        0x00019082:    6e31        1n      LDR      r1,[r6,#0x60]
        0x00019084:    6830        0h      LDR      r0,[r6,#0]
        0x00019086:    698a        .i      LDR      r2,[r1,#0x18]
        0x00019088:    4621        !F      MOV      r1,r4
        0x0001908a:    4790        .G      BLX      r2
        0x0001908c:    2800        .(      CMP      r0,#0
        0x0001908e:    bf18        ..      IT       NE
        0x00019090:    2001        .       MOVNE    r0,#1
        0x00019092:    e000        ..      B        0x19096 ; am_hal_card_set_speed + 106
        0x00019094:    2006        .       MOVS     r0,#6
        0x00019096:    b001        ..      ADD      sp,sp,#4
        0x00019098:    bdf0        ..      POP      {r4-r7,pc}
        0x0001909a:    2000        .       MOVS     r0,#0
        0x0001909c:    f2c030b9    ...0    MOVT     r0,#0x3b9
        0x000190a0:    ea402107    @..!    ORR      r1,r0,r7,LSL #8
        0x000190a4:    4628        (F      MOV      r0,r5
        0x000190a6:    f44f72fa    O..r    MOV      r2,#0x1f4
        0x000190aa:    f7fffe3d    ..=.    BL       am_hal_card_mode_switch ; 0x18d28
        0x000190ae:    2800        .(      CMP      r0,#0
        0x000190b0:    d1f1        ..      BNE      0x19096 ; am_hal_card_set_speed + 106
        0x000190b2:    4628        (F      MOV      r0,r5
        0x000190b4:    f001fe2a    ..*.    BL       am_hal_sdmmc_cmd8_send_ext_csd ; 0x1ad0c
        0x000190b8:    b918        ..      CBNZ     r0,0x190c2 ; am_hal_card_set_speed + 150
        0x000190ba:    f89500e5    ....    LDRB     r0,[r5,#0xe5]
        0x000190be:    4287        .B      CMP      r7,r0
        0x000190c0:    d0df        ..      BEQ      0x19082 ; am_hal_card_set_speed + 86
        0x000190c2:    2001        .       MOVS     r0,#1
        0x000190c4:    e7e7        ..      B        0x19096 ; am_hal_card_set_speed + 106
    am_hal_card_status
        0x000190c6:    b5f0        ..      PUSH     {r4-r7,lr}
        0x000190c8:    b089        ..      SUB      sp,sp,#0x24
        0x000190ca:    b140        @.      CBZ      r0,0x190de ; am_hal_card_status + 24
        0x000190cc:    f8d07274    ..tr    LDR      r7,[r0,#0x274]
        0x000190d0:    4605        .F      MOV      r5,r0
        0x000190d2:    b127        '.      CBZ      r7,0x190de ; am_hal_card_status + 24
        0x000190d4:    7868        hx      LDRB     r0,[r5,#1]
        0x000190d6:    2805        .(      CMP      r0,#5
        0x000190d8:    d204        ..      BCS      0x190e4 ; am_hal_card_status + 30
        0x000190da:    2007        .       MOVS     r0,#7
        0x000190dc:    e000        ..      B        0x190e0 ; am_hal_card_status + 26
        0x000190de:    2006        .       MOVS     r0,#6
        0x000190e0:    b009        ..      ADD      sp,sp,#0x24
        0x000190e2:    bdf0        ..      POP      {r4-r7,pc}
        0x000190e4:    466e        nF      MOV      r6,sp
        0x000190e6:    460c        .F      MOV      r4,r1
        0x000190e8:    4630        0F      MOV      r0,r6
        0x000190ea:    2124        $!      MOVS     r1,#0x24
        0x000190ec:    f7fff94e    ..N.    BL       __aeabi_memclr4 ; 0x1838c
        0x000190f0:    7a29        )z      LDRB     r1,[r5,#8]
        0x000190f2:    200d        .       MOVS     r0,#0xd
        0x000190f4:    f88d0000    ....    STRB     r0,[sp,#0]
        0x000190f8:    0408        ..      LSLS     r0,r1,#16
        0x000190fa:    9001        ..      STR      r0,[sp,#4]
        0x000190fc:    2015        .       MOVS     r0,#0x15
        0x000190fe:    6e39        9n      LDR      r1,[r7,#0x60]
        0x00019100:    9002        ..      STR      r0,[sp,#8]
        0x00019102:    6838        8h      LDR      r0,[r7,#0]
        0x00019104:    68cb        .h      LDR      r3,[r1,#0xc]
        0x00019106:    4631        1F      MOV      r1,r6
        0x00019108:    2200        ."      MOVS     r2,#0
        0x0001910a:    4798        .G      BLX      r3
        0x0001910c:    2800        .(      CMP      r0,#0
        0x0001910e:    d1e7        ..      BNE      0x190e0 ; am_hal_card_status + 26
        0x00019110:    f89d0020    .. .    LDRB     r0,[sp,#0x20]
        0x00019114:    b908        ..      CBNZ     r0,0x1911a ; am_hal_card_status + 84
        0x00019116:    9804        ..      LDR      r0,[sp,#0x10]
        0x00019118:    6020         `      STR      r0,[r4,#0]
        0x0001911a:    2000        .       MOVS     r0,#0
        0x0001911c:    e7e0        ..      B        0x190e0 ; am_hal_card_status + 26
    am_hal_daxi_config
        0x0001911e:    b5b0        ..      PUSH     {r4,r5,r7,lr}
        0x00019120:    b082        ..      SUB      sp,sp,#8
        0x00019122:    b128        (.      CBZ      r0,0x19130 ; am_hal_daxi_config + 18
        0x00019124:    4605        .F      MOV      r5,r0
        0x00019126:    7880        .x      LDRB     r0,[r0,#2]
        0x00019128:    b910        ..      CBNZ     r0,0x19130 ; am_hal_daxi_config + 18
        0x0001912a:    7868        hx      LDRB     r0,[r5,#1]
        0x0001912c:    2801        .(      CMP      r0,#1
        0x0001912e:    d903        ..      BLS      0x19138 ; am_hal_daxi_config + 26
        0x00019130:    2406        .$      MOVS     r4,#6
        0x00019132:    4620         F      MOV      r0,r4
        0x00019134:    b002        ..      ADD      sp,sp,#8
        0x00019136:    bdb0        ..      POP      {r4,r5,r7,pc}
        0x00019138:    f000fad8    ....    BL       am_hal_interrupt_master_disable ; 0x196ec
        0x0001913c:    9001        ..      STR      r0,[sp,#4]
        0x0001913e:    2002        .       MOVS     r0,#2
        0x00019140:    2100        .!      MOVS     r1,#0
        0x00019142:    2400        .$      MOVS     r4,#0
        0x00019144:    f000f816    ....    BL       am_hal_daxi_control ; 0x19174
        0x00019148:    78a9        .x      LDRB     r1,[r5,#2]
        0x0001914a:    786a        jx      LDRB     r2,[r5,#1]
        0x0001914c:    7828        (x      LDRB     r0,[r5,#0]
        0x0001914e:    f0010101    ....    AND      r1,r1,#1
        0x00019152:    f3622109    b..!    BFI      r1,r2,#8,#2
        0x00019156:    ea414000    A..@    ORR      r0,r1,r0,LSL #16
        0x0001915a:    2150        P!      MOVS     r1,#0x50
        0x0001915c:    f6c40100    ....    MOVT     r1,#0x4800
        0x00019160:    6008        .`      STR      r0,[r1,#0]
        0x00019162:    2000        .       MOVS     r0,#0
        0x00019164:    f2c470ff    ...p    MOVT     r0,#0x47ff
        0x00019168:    6800        .h      LDR      r0,[r0,#0]
        0x0001916a:    9801        ..      LDR      r0,[sp,#4]
        0x0001916c:    f000fac6    ....    BL       am_hal_interrupt_master_set ; 0x196fc
        0x00019170:    e7df        ..      B        0x19132 ; am_hal_daxi_config + 20
        0x00019172:    0000        ..      MOVS     r0,r0
    am_hal_daxi_control
        0x00019174:    b5b0        ..      PUSH     {r4,r5,r7,lr}
        0x00019176:    b082        ..      SUB      sp,sp,#8
        0x00019178:    2801        .(      CMP      r0,#1
        0x0001917a:    d062        b.      BEQ      0x19242 ; am_hal_daxi_control + 206
        0x0001917c:    2803        .(      CMP      r0,#3
        0x0001917e:    d06f        o.      BEQ      0x19260 ; am_hal_daxi_control + 236
        0x00019180:    2802        .(      CMP      r0,#2
        0x00019182:    f040809a    @...    BNE.W    0x192ba ; am_hal_daxi_control + 326
        0x00019186:    2454        T$      MOVS     r4,#0x54
        0x00019188:    2500        .%      MOVS     r5,#0
        0x0001918a:    f6c40400    ....    MOVT     r4,#0x4800
        0x0001918e:    f2c475ff    ...u    MOVT     r5,#0x47ff
        0x00019192:    f000faab    ....    BL       am_hal_interrupt_master_disable ; 0x196ec
        0x00019196:    9001        ..      STR      r0,[sp,#4]
        0x00019198:    f3bf8f4f    ..O.    DSB      
        0x0001919c:    6820         h      LDR      r0,[r4,#0]
        0x0001919e:    f24171dc    A..q    MOV      r1,#0x17dc
        0x000191a2:    f0400001    @...    ORR      r0,r0,#1
        0x000191a6:    6020         `      STR      r0,[r4,#0]
        0x000191a8:    6828        (h      LDR      r0,[r5,#0]
        0x000191aa:    6820         h      LDR      r0,[r4,#0]
        0x000191ac:    f2c10100    ....    MOVT     r1,#0x1000
        0x000191b0:    f0400002    @...    ORR      r0,r0,#2
        0x000191b4:    6020         `      STR      r0,[r4,#0]
        0x000191b6:    6828        (h      LDR      r0,[r5,#0]
        0x000191b8:    6808        .h      LDR      r0,[r1,#0]
        0x000191ba:    2800        .(      CMP      r0,#0
        0x000191bc:    d03d        =.      BEQ      0x1923a ; am_hal_daxi_control + 198
        0x000191be:    f24172f8    A..r    MOV      r2,#0x17f8
        0x000191c2:    f2c10200    ....    MOVT     r2,#0x1000
        0x000191c6:    6812        .h      LDR      r2,[r2,#0]
        0x000191c8:    f24173f4    A..s    MOV      r3,#0x17f4
        0x000191cc:    f2c10300    ....    MOVT     r3,#0x1000
        0x000191d0:    6812        .h      LDR      r2,[r2,#0]
        0x000191d2:    681b        .h      LDR      r3,[r3,#0]
        0x000191d4:    401a        .@      ANDS     r2,r2,r3
        0x000191d6:    429a        .B      CMP      r2,r3
        0x000191d8:    d12f        /.      BNE      0x1923a ; am_hal_daxi_control + 198
        0x000191da:    f2413220    A. 2    MOVW     r2,#0x1320
        0x000191de:    f2c10200    ....    MOVT     r2,#0x1000
        0x000191e2:    6812        .h      LDR      r2,[r2,#0]
        0x000191e4:    b1c2        ..      CBZ      r2,0x19218 ; am_hal_daxi_control + 164
        0x000191e6:    2200        ."      MOVS     r2,#0
        0x000191e8:    2300        .#      MOVS     r3,#0
        0x000191ea:    bf00        ..      NOP      
        0x000191ec:    50c2        .P      STR      r2,[r0,r3]
        0x000191ee:    3310        .3      ADDS     r3,r3,#0x10
        0x000191f0:    2b40        @+      CMP      r3,#0x40
        0x000191f2:    d1fb        ..      BNE      0x191ec ; am_hal_daxi_control + 120
        0x000191f4:    f3bf8f4f    ..O.    DSB      
        0x000191f8:    6820         h      LDR      r0,[r4,#0]
        0x000191fa:    f0400001    @...    ORR      r0,r0,#1
        0x000191fe:    6020         `      STR      r0,[r4,#0]
        0x00019200:    6828        (h      LDR      r0,[r5,#0]
        0x00019202:    6820         h      LDR      r0,[r4,#0]
        0x00019204:    f0400002    @...    ORR      r0,r0,#2
        0x00019208:    6020         `      STR      r0,[r4,#0]
        0x0001920a:    6828        (h      LDR      r0,[r5,#0]
        0x0001920c:    6808        .h      LDR      r0,[r1,#0]
        0x0001920e:    2100        .!      MOVS     r1,#0
        0x00019210:    5842        BX      LDR      r2,[r0,r1]
        0x00019212:    3110        .1      ADDS     r1,r1,#0x10
        0x00019214:    2940        @)      CMP      r1,#0x40
        0x00019216:    d1fb        ..      BNE      0x19210 ; am_hal_daxi_control + 156
        0x00019218:    211e        .!      MOVS     r1,#0x1e
        0x0001921a:    bf00        ..      NOP      
        0x0001921c:    6802        .h      LDR      r2,[r0,#0]
        0x0001921e:    6802        .h      LDR      r2,[r0,#0]
        0x00019220:    6802        .h      LDR      r2,[r0,#0]
        0x00019222:    6802        .h      LDR      r2,[r0,#0]
        0x00019224:    6802        .h      LDR      r2,[r0,#0]
        0x00019226:    6802        .h      LDR      r2,[r0,#0]
        0x00019228:    3901        .9      SUBS     r1,#1
        0x0001922a:    d1f7        ..      BNE      0x1921c ; am_hal_daxi_control + 168
        0x0001922c:    f3bf8f4f    ..O.    DSB      
        0x00019230:    6820         h      LDR      r0,[r4,#0]
        0x00019232:    f0400002    @...    ORR      r0,r0,#2
        0x00019236:    6020         `      STR      r0,[r4,#0]
        0x00019238:    6828        (h      LDR      r0,[r5,#0]
        0x0001923a:    9801        ..      LDR      r0,[sp,#4]
        0x0001923c:    f000fa5e    ..^.    BL       am_hal_interrupt_master_set ; 0x196fc
        0x00019240:    e00c        ..      B        0x1925c ; am_hal_daxi_control + 232
        0x00019242:    2054        T       MOVS     r0,#0x54
        0x00019244:    f3bf8f4f    ..O.    DSB      
        0x00019248:    f6c40000    ....    MOVT     r0,#0x4800
        0x0001924c:    6801        .h      LDR      r1,[r0,#0]
        0x0001924e:    f0410102    A...    ORR      r1,r1,#2
        0x00019252:    6001        .`      STR      r1,[r0,#0]
        0x00019254:    2000        .       MOVS     r0,#0
        0x00019256:    f2c470ff    ...p    MOVT     r0,#0x47ff
        0x0001925a:    6800        .h      LDR      r0,[r0,#0]
        0x0001925c:    2000        .       MOVS     r0,#0
        0x0001925e:    e02d        -.      B        0x192bc ; am_hal_daxi_control + 328
        0x00019260:    f04f0006    O...    MOV      r0,#6
        0x00019264:    b351        Q.      CBZ      r1,0x192bc ; am_hal_daxi_control + 328
        0x00019266:    f011020f    ....    ANDS     r2,r1,#0xf
        0x0001926a:    d127        '.      BNE      0x192bc ; am_hal_daxi_control + 328
        0x0001926c:    f64c332c    L.,3    MOV      r3,#0xcb2c
        0x00019270:    f1010c40    ..@.    ADD      r12,r1,#0x40
        0x00019274:    2000        .       MOVS     r0,#0
        0x00019276:    f2c00301    ....    MOVT     r3,#1
        0x0001927a:    bf00        ..      NOP      
        0x0001927c:    581c        .X      LDR      r4,[r3,r0]
        0x0001927e:    428c        .B      CMP      r4,r1
        0x00019280:    d804        ..      BHI      0x1928c ; am_hal_daxi_control + 280
        0x00019282:    181d        ..      ADDS     r5,r3,r0
        0x00019284:    686a        jh      LDR      r2,[r5,#4]
        0x00019286:    4422        "D      ADD      r2,r2,r4
        0x00019288:    4594        .E      CMP      r12,r2
        0x0001928a:    d303        ..      BCC      0x19294 ; am_hal_daxi_control + 288
        0x0001928c:    3010        .0      ADDS     r0,r0,#0x10
        0x0001928e:    2860        `(      CMP      r0,#0x60
        0x00019290:    d1f4        ..      BNE      0x1927c ; am_hal_daxi_control + 264
        0x00019292:    e012        ..      B        0x192ba ; am_hal_daxi_control + 326
        0x00019294:    f24172f8    A..r    MOV      r2,#0x17f8
        0x00019298:    e9d53502    ...5    LDRD     r3,r5,[r5,#8]
        0x0001929c:    f2c10200    ....    MOVT     r2,#0x1000
        0x000192a0:    6013        .`      STR      r3,[r2,#0]
        0x000192a2:    f24172f4    A..r    MOV      r2,#0x17f4
        0x000192a6:    f2c10200    ....    MOVT     r2,#0x1000
        0x000192aa:    6015        .`      STR      r5,[r2,#0]
        0x000192ac:    f24172dc    A..r    MOV      r2,#0x17dc
        0x000192b0:    f2c10200    ....    MOVT     r2,#0x1000
        0x000192b4:    2860        `(      CMP      r0,#0x60
        0x000192b6:    6011        .`      STR      r1,[r2,#0]
        0x000192b8:    d1d0        ..      BNE      0x1925c ; am_hal_daxi_control + 232
        0x000192ba:    2006        .       MOVS     r0,#6
        0x000192bc:    b002        ..      ADD      sp,sp,#8
        0x000192be:    bdb0        ..      POP      {r4,r5,r7,pc}
    am_hal_dcu_get
        0x000192c0:    b5b0        ..      PUSH     {r4,r5,r7,lr}
        0x000192c2:    b084        ..      SUB      sp,sp,#0x10
        0x000192c4:    f2410108    A...    MOV      r1,#0x1008
        0x000192c8:    f2c40102    ....    MOVT     r1,#0x4002
        0x000192cc:    6809        .h      LDR      r1,[r1,#0]
        0x000192ce:    02c9        ..      LSLS     r1,r1,#11
        0x000192d0:    d506        ..      BPL      0x192e0 ; am_hal_dcu_get + 32
        0x000192d2:    f640217c    @.|!    MOV      r1,#0xa7c
        0x000192d6:    f2c4010c    ....    MOVT     r1,#0x400c
        0x000192da:    6809        .h      LDR      r1,[r1,#0]
        0x000192dc:    07c9        ..      LSLS     r1,r1,#31
        0x000192de:    d101        ..      BNE      0x192e4 ; am_hal_dcu_get + 36
        0x000192e0:    2007        .       MOVS     r0,#7
        0x000192e2:    e038        8.      B        0x19356 ; am_hal_dcu_get + 150
        0x000192e4:    f2402158    @.X!    MOVW     r1,#0x258
        0x000192e8:    f2c10100    ....    MOVT     r1,#0x1000
        0x000192ec:    6809        .h      LDR      r1,[r1,#0]
        0x000192ee:    f2413324    A.$3    MOV      r3,#0x1324
        0x000192f2:    684a        Jh      LDR      r2,[r1,#4]
        0x000192f4:    f2c10300    ....    MOVT     r3,#0x1000
        0x000192f8:    9201        ..      STR      r2,[sp,#4]
        0x000192fa:    6809        .h      LDR      r1,[r1,#0]
        0x000192fc:    9102        ..      STR      r1,[sp,#8]
        0x000192fe:    681b        .h      LDR      r3,[r3,#0]
        0x00019300:    fa21fc03    !...    LSR      r12,r1,r3
        0x00019304:    f1c30120    .. .    RSB      r1,r3,#0x20
        0x00019308:    fa02f101    ....    LSL      r1,r2,r1
        0x0001930c:    ea4c0e01    L...    ORR      lr,r12,r1
        0x00019310:    f1b30120    .. .    SUBS     r1,r3,#0x20
        0x00019314:    bf58        X.      IT       PL
        0x00019316:    fa22fe01    "...    LSRPL    lr,r2,r1
        0x0001931a:    fa22f203    "...    LSR      r2,r2,r3
        0x0001931e:    f04f0300    O...    MOV      r3,#0
        0x00019322:    f04f0c01    O...    MOV      r12,#1
        0x00019326:    f04f0100    O...    MOV      r1,#0
        0x0001932a:    bf58        X.      IT       PL
        0x0001932c:    2200        ."      MOVPL    r2,#0
        0x0001932e:    bf00        ..      NOP      
        0x00019330:    f00e0407    ....    AND      r4,lr,#7
        0x00019334:    fa0cf503    ....    LSL      r5,r12,r3
        0x00019338:    f0940f05    ....    TEQ      r4,#5
        0x0001933c:    bf08        ..      IT       EQ
        0x0001933e:    4329        )C      ORREQ    r1,r1,r5
        0x00019340:    ea4f05de    O...    LSR      r5,lr,#3
        0x00019344:    3301        .3      ADDS     r3,#1
        0x00019346:    ea457e42    E.B~    ORR      lr,r5,r2,LSL #29
        0x0001934a:    2b14        .+      CMP      r3,#0x14
        0x0001934c:    ea4f02d2    O...    LSR      r2,r2,#3
        0x00019350:    d1ee        ..      BNE      0x19330 ; am_hal_dcu_get + 112
        0x00019352:    6001        .`      STR      r1,[r0,#0]
        0x00019354:    2000        .       MOVS     r0,#0
        0x00019356:    b004        ..      ADD      sp,sp,#0x10
        0x00019358:    bdb0        ..      POP      {r4,r5,r7,pc}
        0x0001935a:    0000        ..      MOVS     r0,r0
    am_hal_dcu_update
        0x0001935c:    e92d41f0    -..A    PUSH     {r4-r8,lr}
        0x00019360:    b086        ..      SUB      sp,sp,#0x18
        0x00019362:    f2410208    A...    MOV      r2,#0x1008
        0x00019366:    f2c40202    ....    MOVT     r2,#0x4002
        0x0001936a:    6812        .h      LDR      r2,[r2,#0]
        0x0001936c:    02d2        ..      LSLS     r2,r2,#11
        0x0001936e:    d53b        ;.      BPL      0x193e8 ; am_hal_dcu_update + 140
        0x00019370:    f6402c7c    @.|,    MOV      r12,#0xa7c
        0x00019374:    f2c40c0c    ....    MOVT     r12,#0x400c
        0x00019378:    f8dc2000    ...     LDR      r2,[r12,#0]
        0x0001937c:    07d2        ..      LSLS     r2,r2,#31
        0x0001937e:    f04f0207    O...    MOV      r2,#7
        0x00019382:    d032        2.      BEQ      0x193ea ; am_hal_dcu_update + 142
        0x00019384:    f2413324    A.$3    MOV      r3,#0x1324
        0x00019388:    f2c10300    ....    MOVT     r3,#0x1000
        0x0001938c:    f8d38000    ....    LDR      r8,[r3,#0]
        0x00019390:    2500        .%      MOVS     r5,#0
        0x00019392:    2300        .#      MOVS     r3,#0
        0x00019394:    f04f0e00    O...    MOV      lr,#0
        0x00019398:    078e        ..      LSLS     r6,r1,#30
        0x0001939a:    d511        ..      BPL      0x193c0 ; am_hal_dcu_update + 100
        0x0001939c:    eb080605    ....    ADD      r6,r8,r5
        0x000193a0:    f1c60420    .. .    RSB      r4,r6,#0x20
        0x000193a4:    f1b60720    .. .    SUBS     r7,r6,#0x20
        0x000193a8:    fa22f404    "...    LSR      r4,r2,r4
        0x000193ac:    fa02f606    ....    LSL      r6,r2,r6
        0x000193b0:    bf58        X.      IT       PL
        0x000193b2:    fa02f407    ....    LSLPL    r4,r2,r7
        0x000193b6:    bf58        X.      IT       PL
        0x000193b8:    2600        .&      MOVPL    r6,#0
        0x000193ba:    ea4e0e04    N...    ORR      lr,lr,r4
        0x000193be:    4333        3C      ORRS     r3,r3,r6
        0x000193c0:    3503        .5      ADDS     r5,#3
        0x000193c2:    2d3c        <-      CMP      r5,#0x3c
        0x000193c4:    ea4f0151    O.Q.    LSR      r1,r1,#1
        0x000193c8:    d1e6        ..      BNE      0x19398 ; am_hal_dcu_update + 60
        0x000193ca:    f240215c    @.\!    MOVW     r1,#0x25c
        0x000193ce:    f2c10100    ....    MOVT     r1,#0x1000
        0x000193d2:    6809        .h      LDR      r1,[r1,#0]
        0x000193d4:    684a        Jh      LDR      r2,[r1,#4]
        0x000193d6:    9201        ..      STR      r2,[sp,#4]
        0x000193d8:    6809        .h      LDR      r1,[r1,#0]
        0x000193da:    ea02020e    ....    AND      r2,r2,lr
        0x000193de:    ea010403    ....    AND      r4,r1,r3
        0x000193e2:    4322        "C      ORRS     r2,r2,r4
        0x000193e4:    9102        ..      STR      r1,[sp,#8]
        0x000193e6:    d004        ..      BEQ      0x193f2 ; am_hal_dcu_update + 150
        0x000193e8:    2207        ."      MOVS     r2,#7
        0x000193ea:    4610        .F      MOV      r0,r2
        0x000193ec:    b006        ..      ADD      sp,sp,#0x18
        0x000193ee:    e8bd81f0    ....    POP      {r4-r8,pc}
        0x000193f2:    f2402158    @.X!    MOVW     r1,#0x258
        0x000193f6:    f2c10100    ....    MOVT     r1,#0x1000
        0x000193fa:    6809        .h      LDR      r1,[r1,#0]
        0x000193fc:    f2400508    @...    MOVW     r5,#8
        0x00019400:    684a        Jh      LDR      r2,[r1,#4]
        0x00019402:    f2400600    @...    MOVW     r6,#0
        0x00019406:    9203        ..      STR      r2,[sp,#0xc]
        0x00019408:    680c        .h      LDR      r4,[r1,#0]
        0x0001940a:    f2c10500    ....    MOVT     r5,#0x1000
        0x0001940e:    f2c10600    ....    MOVT     r6,#0x1000
        0x00019412:    9404        ..      STR      r4,[sp,#0x10]
        0x00019414:    2800        .(      CMP      r0,#0
        0x00019416:    bf18        ..      IT       NE
        0x00019418:    462e        .F      MOVNE    r6,r5
        0x0001941a:    e9d65000    ...P    LDRD     r5,r0,[r6,#0]
        0x0001941e:    439c        .C      BICS     r4,r4,r3
        0x00019420:    ea22020e    "...    BIC      r2,r2,lr
        0x00019424:    402b        +@      ANDS     r3,r3,r5
        0x00019426:    ea00000e    ....    AND      r0,r0,lr
        0x0001942a:    4310        .C      ORRS     r0,r0,r2
        0x0001942c:    ea430204    C...    ORR      r2,r3,r4
        0x00019430:    e9cd0203    ....    STRD     r0,r2,[sp,#0xc]
        0x00019434:    9803        ..      LDR      r0,[sp,#0xc]
        0x00019436:    6048        H`      STR      r0,[r1,#4]
        0x00019438:    9804        ..      LDR      r0,[sp,#0x10]
        0x0001943a:    6008        .`      STR      r0,[r1,#0]
        0x0001943c:    f8dc0000    ....    LDR      r0,[r12,#0]
        0x00019440:    07c0        ..      LSLS     r0,r0,#31
        0x00019442:    d0fb        ..      BEQ      0x1943c ; am_hal_dcu_update + 224
        0x00019444:    2200        ."      MOVS     r2,#0
        0x00019446:    e7d0        ..      B        0x193ea ; am_hal_dcu_update + 142
    am_hal_delay_us
        0x00019448:    f2410100    A...    MOVW     r1,#0x1000
        0x0001944c:    f2c40102    ....    MOVT     r1,#0x4002
        0x00019450:    6809        .h      LDR      r1,[r1,#0]
        0x00019452:    2205        ."      MOVS     r2,#5
        0x00019454:    f0010118    ....    AND      r1,r1,#0x18
        0x00019458:    2910        .)      CMP      r1,#0x10
        0x0001945a:    bf08        ..      IT       EQ
        0x0001945c:    2206        ."      MOVEQ    r2,#6
        0x0001945e:    fa00f002    ....    LSL      r0,r0,r2
        0x00019462:    f04f010f    O...    MOV      r1,#0xf
        0x00019466:    bf08        ..      IT       EQ
        0x00019468:    2115        .!      MOVEQ    r1,#0x15
        0x0001946a:    4281        .B      CMP      r1,r0
        0x0001946c:    bf28        (.      IT       CS
        0x0001946e:    4770        pG      BXCS     lr
        0x00019470:    1a40        @.      SUBS     r0,r0,r1
        0x00019472:    f64c3198    L..1    MOV      r1,#0xcb98
        0x00019476:    f2c00101    ....    MOVT     r1,#1
        0x0001947a:    6a49        Ij      LDR      r1,[r1,#0x24]
        0x0001947c:    4708        .G      BX       r1
        0x0001947e:    0000        ..      MOVS     r0,r0
    am_hal_delay_us_status_change
        0x00019480:    e92d43f0    -..C    PUSH     {r4-r9,lr}
        0x00019484:    b081        ..      SUB      sp,sp,#4
        0x00019486:    460d        .F      MOV      r5,r1
        0x00019488:    6809        .h      LDR      r1,[r1,#0]
        0x0001948a:    4011        .@      ANDS     r1,r1,r2
        0x0001948c:    4299        .B      CMP      r1,r3
        0x0001948e:    d01b        ..      BEQ      0x194c8 ; am_hal_delay_us_status_change + 72
        0x00019490:    f64c3198    L..1    MOV      r1,#0xcb98
        0x00019494:    f2c00101    ....    MOVT     r1,#1
        0x00019498:    6a4f        Oj      LDR      r7,[r1,#0x24]
        0x0001949a:    f2410900    A...    MOVW     r9,#0x1000
        0x0001949e:    4698        .F      MOV      r8,r3
        0x000194a0:    4616        .F      MOV      r6,r2
        0x000194a2:    1c44        D.      ADDS     r4,r0,#1
        0x000194a4:    f2c40902    ....    MOVT     r9,#0x4002
        0x000194a8:    3c01        .<      SUBS     r4,#1
        0x000194aa:    d00f        ..      BEQ      0x194cc ; am_hal_delay_us_status_change + 76
        0x000194ac:    f8d90000    ....    LDR      r0,[r9,#0]
        0x000194b0:    f0000018    ....    AND      r0,r0,#0x18
        0x000194b4:    2810        .(      CMP      r0,#0x10
        0x000194b6:    f04f0011    O...    MOV      r0,#0x11
        0x000194ba:    bf08        ..      IT       EQ
        0x000194bc:    202b        +       MOVEQ    r0,#0x2b
        0x000194be:    47b8        .G      BLX      r7
        0x000194c0:    6828        (h      LDR      r0,[r5,#0]
        0x000194c2:    4030        0@      ANDS     r0,r0,r6
        0x000194c4:    4540        @E      CMP      r0,r8
        0x000194c6:    d1ef        ..      BNE      0x194a8 ; am_hal_delay_us_status_change + 40
        0x000194c8:    2000        .       MOVS     r0,#0
        0x000194ca:    e000        ..      B        0x194ce ; am_hal_delay_us_status_change + 78
        0x000194cc:    2004        .       MOVS     r0,#4
        0x000194ce:    b001        ..      ADD      sp,sp,#4
        0x000194d0:    e8bd83f0    ....    POP      {r4-r9,pc}
    am_hal_delay_us_status_check
        0x000194d4:    e92d47f0    -..G    PUSH     {r4-r10,lr}
        0x000194d8:    4607        .F      MOV      r7,r0
        0x000194da:    f64c3098    L..0    MOV      r0,#0xcb98
        0x000194de:    f2c00001    ....    MOVT     r0,#1
        0x000194e2:    f8dd8020    .. .    LDR      r8,[sp,#0x20]
        0x000194e6:    6a44        Dj      LDR      r4,[r0,#0x24]
        0x000194e8:    f2410a00    A...    MOVW     r10,#0x1000
        0x000194ec:    4699        .F      MOV      r9,r3
        0x000194ee:    4615        .F      MOV      r5,r2
        0x000194f0:    460e        .F      MOV      r6,r1
        0x000194f2:    f2c40a02    ....    MOVT     r10,#0x4002
        0x000194f6:    bf00        ..      NOP      
        0x000194f8:    6830        0h      LDR      r0,[r6,#0]
        0x000194fa:    f1b80f00    ....    CMP      r8,#0
        0x000194fe:    ea000005    ....    AND      r0,r0,r5
        0x00019502:    d003        ..      BEQ      0x1950c ; am_hal_delay_us_status_check + 56
        0x00019504:    4548        HE      CMP      r0,r9
        0x00019506:    d103        ..      BNE      0x19510 ; am_hal_delay_us_status_check + 60
        0x00019508:    e00f        ..      B        0x1952a ; am_hal_delay_us_status_check + 86
        0x0001950a:    bf00        ..      NOP      
        0x0001950c:    4548        HE      CMP      r0,r9
        0x0001950e:    d10c        ..      BNE      0x1952a ; am_hal_delay_us_status_check + 86
        0x00019510:    b177        w.      CBZ      r7,0x19530 ; am_hal_delay_us_status_check + 92
        0x00019512:    f8da0000    ....    LDR      r0,[r10,#0]
        0x00019516:    3f01        .?      SUBS     r7,#1
        0x00019518:    f0000018    ....    AND      r0,r0,#0x18
        0x0001951c:    2810        .(      CMP      r0,#0x10
        0x0001951e:    f04f0011    O...    MOV      r0,#0x11
        0x00019522:    bf08        ..      IT       EQ
        0x00019524:    202b        +       MOVEQ    r0,#0x2b
        0x00019526:    47a0        .G      BLX      r4
        0x00019528:    e7e6        ..      B        0x194f8 ; am_hal_delay_us_status_check + 36
        0x0001952a:    2000        .       MOVS     r0,#0
        0x0001952c:    e8bd87f0    ....    POP      {r4-r10,pc}
        0x00019530:    2004        .       MOVS     r0,#4
        0x00019532:    e8bd87f0    ....    POP      {r4-r10,pc}
    am_hal_fault_status_get
        0x00019536:    b1c8        ..      CBZ      r0,0x1956c ; am_hal_fault_status_get + 54
        0x00019538:    2180        .!      MOVS     r1,#0x80
        0x0001953a:    f6c40100    ....    MOVT     r1,#0x4800
        0x0001953e:    68ca        .h      LDR      r2,[r1,#0xc]
        0x00019540:    b2d3        ..      UXTB     r3,r2
        0x00019542:    f0020201    ....    AND      r2,r2,#1
        0x00019546:    7002        .p      STRB     r2,[r0,#0]
        0x00019548:    f3c30240    ..@.    UBFX     r2,r3,#1,#1
        0x0001954c:    7202        .r      STRB     r2,[r0,#8]
        0x0001954e:    f3c30280    ....    UBFX     r2,r3,#2,#1
        0x00019552:    7402        .t      STRB     r2,[r0,#0x10]
        0x00019554:    684a        Jh      LDR      r2,[r1,#4]
        0x00019556:    60c2        .`      STR      r2,[r0,#0xc]
        0x00019558:    680a        .h      LDR      r2,[r1,#0]
        0x0001955a:    6843        Ch      LDR      r3,[r0,#4]
        0x0001955c:    431a        .C      ORRS     r2,r2,r3
        0x0001955e:    6042        B`      STR      r2,[r0,#4]
        0x00019560:    6889        .h      LDR      r1,[r1,#8]
        0x00019562:    6942        Bi      LDR      r2,[r0,#0x14]
        0x00019564:    4311        .C      ORRS     r1,r1,r2
        0x00019566:    6141        Aa      STR      r1,[r0,#0x14]
        0x00019568:    2000        .       MOVS     r0,#0
        0x0001956a:    4770        pG      BX       lr
        0x0001956c:    2006        .       MOVS     r0,#6
        0x0001956e:    4770        pG      BX       lr
    am_hal_get_card_host
        0x00019570:    b510        ..      PUSH     {r4,lr}
        0x00019572:    b110        ..      CBZ      r0,0x1957a ; am_hal_get_card_host + 10
        0x00019574:    2400        .$      MOVS     r4,#0
        0x00019576:    4620         F      MOV      r0,r4
        0x00019578:    bd10        ..      POP      {r4,pc}
        0x0001957a:    f24014b0    @...    MOVW     r4,#0x1b0
        0x0001957e:    f2c10400    ....    MOVT     r4,#0x1000
        0x00019582:    7a60        `z      LDRB     r0,[r4,#9]
        0x00019584:    b108        ..      CBZ      r0,0x1958a ; am_hal_get_card_host + 26
        0x00019586:    2900        .)      CMP      r1,#0
        0x00019588:    d0f5        ..      BEQ      0x19576 ; am_hal_get_card_host + 6
        0x0001958a:    b118        ..      CBZ      r0,0x19594 ; am_hal_get_card_host + 36
        0x0001958c:    6e21        !n      LDR      r1,[r4,#0x60]
        0x0001958e:    6820         h      LDR      r0,[r4,#0]
        0x00019590:    6849        Ih      LDR      r1,[r1,#4]
        0x00019592:    4788        .G      BLX      r1
        0x00019594:    6e20         n      LDR      r0,[r4,#0x60]
        0x00019596:    6801        .h      LDR      r1,[r0,#0]
        0x00019598:    4620         F      MOV      r0,r4
        0x0001959a:    4788        .G      BLX      r1
        0x0001959c:    2800        .(      CMP      r0,#0
        0x0001959e:    d1e9        ..      BNE      0x19574 ; am_hal_get_card_host + 4
        0x000195a0:    2001        .       MOVS     r0,#1
        0x000195a2:    7260        `r      STRB     r0,[r4,#9]
        0x000195a4:    e7e7        ..      B        0x19576 ; am_hal_get_card_host + 6
        0x000195a6:    0000        ..      MOVS     r0,r0
    am_hal_gpio_pinconfig
        0x000195a8:    b081        ..      SUB      sp,sp,#4
        0x000195aa:    287f        .(      CMP      r0,#0x7f
        0x000195ac:    9100        ..      STR      r1,[sp,#0]
        0x000195ae:    d901        ..      BLS      0x195b4 ; am_hal_gpio_pinconfig + 12
        0x000195b0:    2005        .       MOVS     r0,#5
        0x000195b2:    e01c        ..      B        0x195ee ; am_hal_gpio_pinconfig + 70
        0x000195b4:    0509        ..      LSLS     r1,r1,#20
        0x000195b6:    d508        ..      BPL      0x195ca ; am_hal_gpio_pinconfig + 34
        0x000195b8:    0941        A.      LSRS     r1,r0,#5
        0x000195ba:    a20e        ..      ADR      r2,{pc}+0x3a ; 0x195f4
        0x000195bc:    f8521021    R.!.    LDR      r1,[r2,r1,LSL #2]
        0x000195c0:    f000021f    ....    AND      r2,r0,#0x1f
        0x000195c4:    40d1        .@      LSRS     r1,r1,r2
        0x000195c6:    07c9        ..      LSLS     r1,r1,#31
        0x000195c8:    d010        ..      BEQ      0x195ec ; am_hal_gpio_pinconfig + 68
        0x000195ca:    f2402100    @..!    MOVW     r1,#0x200
        0x000195ce:    f2c40101    ....    MOVT     r1,#0x4001
        0x000195d2:    2273        s"      MOVS     r2,#0x73
        0x000195d4:    600a        .`      STR      r2,[r1,#0]
        0x000195d6:    9a00        ..      LDR      r2,[sp,#0]
        0x000195d8:    f64f6300    O..c    MOVW     r3,#0xfe00
        0x000195dc:    eb010080    ....    ADD      r0,r1,r0,LSL #2
        0x000195e0:    f6cf73ff    ...s    MOVT     r3,#0xffff
        0x000195e4:    50c2        .P      STR      r2,[r0,r3]
        0x000195e6:    2000        .       MOVS     r0,#0
        0x000195e8:    6008        .`      STR      r0,[r1,#0]
        0x000195ea:    e000        ..      B        0x195ee ; am_hal_gpio_pinconfig + 70
        0x000195ec:    2007        .       MOVS     r0,#7
        0x000195ee:    b001        ..      ADD      sp,sp,#4
        0x000195f0:    4770        pG      BX       lr
        0x000195f2:    bf00        ..      NOP      
    $d.2
    g_ui32DSpintbl
        0x000195f4:    8fc007e0    ....    DCD    2411726816
        0x000195f8:    e3fbffff    ....    DCD    3824943103
        0x000195fc:    01ffffff    ....    DCD    33554431
        0x00019600:    00000000    ....    DCD    0
    $t.5
    am_hal_gpio_state_write
        0x00019604:    b510        ..      PUSH     {r4,lr}
        0x00019606:    b082        ..      SUB      sp,sp,#8
        0x00019608:    2905        .)      CMP      r1,#5
        0x0001960a:    d86c        l.      BHI      0x196e6 ; am_hal_gpio_state_write + 226
        0x0001960c:    4604        .F      MOV      r4,r0
        0x0001960e:    e8dff001    ....    TBB      [pc,r1]
    $d.6
        0x00019612:    1203        ..      DCW    4611
        0x00019614:    54453621    !6ET    DCD    1413821985
    $t.7
        0x00019618:    f004001f    ....    AND      r0,r4,#0x1f
        0x0001961c:    2101        .!      MOVS     r1,#1
        0x0001961e:    f2402214    @.."    MOVW     r2,#0x214
        0x00019622:    fa01f000    ....    LSL      r0,r1,r0
        0x00019626:    f3c41141    ..A.    UBFX     r1,r4,#5,#2
        0x0001962a:    f2c40201    ....    MOVT     r2,#0x4001
        0x0001962e:    eb020181    ....    ADD      r1,r2,r1,LSL #2
        0x00019632:    6208        .b      STR      r0,[r1,#0x20]
        0x00019634:    e057        W.      B        0x196e6 ; am_hal_gpio_state_write + 226
        0x00019636:    f004001f    ....    AND      r0,r4,#0x1f
        0x0001963a:    2101        .!      MOVS     r1,#1
        0x0001963c:    f2402214    @.."    MOVW     r2,#0x214
        0x00019640:    fa01f000    ....    LSL      r0,r1,r0
        0x00019644:    f3c41141    ..A.    UBFX     r1,r4,#5,#2
        0x00019648:    f2c40201    ....    MOVT     r2,#0x4001
        0x0001964c:    eb020181    ....    ADD      r1,r2,r1,LSL #2
        0x00019650:    6108        .a      STR      r0,[r1,#0x10]
        0x00019652:    e048        H.      B        0x196e6 ; am_hal_gpio_state_write + 226
        0x00019654:    f000f84a    ..J.    BL       am_hal_interrupt_master_disable ; 0x196ec
        0x00019658:    f2402314    @..#    MOVW     r3,#0x214
        0x0001965c:    9001        ..      STR      r0,[sp,#4]
        0x0001965e:    f3c41241    ..A.    UBFX     r2,r4,#5,#2
        0x00019662:    f2c40301    ....    MOVT     r3,#0x4001
        0x00019666:    f004001f    ....    AND      r0,r4,#0x1f
        0x0001966a:    2101        .!      MOVS     r1,#1
        0x0001966c:    f8534022    S."@    LDR      r4,[r3,r2,LSL #2]
        0x00019670:    fa01f000    ....    LSL      r0,r1,r0
        0x00019674:    4060        `@      EORS     r0,r0,r4
        0x00019676:    f8430022    C.".    STR      r0,[r3,r2,LSL #2]
        0x0001967a:    9801        ..      LDR      r0,[sp,#4]
        0x0001967c:    e031        1.      B        0x196e2 ; am_hal_gpio_state_write + 222
        0x0001967e:    f004001f    ....    AND      r0,r4,#0x1f
        0x00019682:    2101        .!      MOVS     r1,#1
        0x00019684:    f2402214    @.."    MOVW     r2,#0x214
        0x00019688:    fa01f000    ....    LSL      r0,r1,r0
        0x0001968c:    f3c41141    ..A.    UBFX     r1,r4,#5,#2
        0x00019690:    f2c40201    ....    MOVT     r2,#0x4001
        0x00019694:    eb020181    ....    ADD      r1,r2,r1,LSL #2
        0x00019698:    6508        .e      STR      r0,[r1,#0x50]
        0x0001969a:    e024        $.      B        0x196e6 ; am_hal_gpio_state_write + 226
        0x0001969c:    f004001f    ....    AND      r0,r4,#0x1f
        0x000196a0:    2101        .!      MOVS     r1,#1
        0x000196a2:    f2402214    @.."    MOVW     r2,#0x214
        0x000196a6:    fa01f000    ....    LSL      r0,r1,r0
        0x000196aa:    f3c41141    ..A.    UBFX     r1,r4,#5,#2
        0x000196ae:    f2c40201    ....    MOVT     r2,#0x4001
        0x000196b2:    eb020181    ....    ADD      r1,r2,r1,LSL #2
        0x000196b6:    6408        .d      STR      r0,[r1,#0x40]
        0x000196b8:    e015        ..      B        0x196e6 ; am_hal_gpio_state_write + 226
        0x000196ba:    f000f817    ....    BL       am_hal_interrupt_master_disable ; 0x196ec
        0x000196be:    f2402314    @..#    MOVW     r3,#0x214
        0x000196c2:    f3c41241    ..A.    UBFX     r2,r4,#5,#2
        0x000196c6:    f2c40301    ....    MOVT     r3,#0x4001
        0x000196ca:    9000        ..      STR      r0,[sp,#0]
        0x000196cc:    eb030282    ....    ADD      r2,r3,r2,LSL #2
        0x000196d0:    f004001f    ....    AND      r0,r4,#0x1f
        0x000196d4:    2101        .!      MOVS     r1,#1
        0x000196d6:    6b13        .k      LDR      r3,[r2,#0x30]
        0x000196d8:    fa01f000    ....    LSL      r0,r1,r0
        0x000196dc:    4058        X@      EORS     r0,r0,r3
        0x000196de:    6310        .c      STR      r0,[r2,#0x30]
        0x000196e0:    9800        ..      LDR      r0,[sp,#0]
        0x000196e2:    f000f80b    ....    BL       am_hal_interrupt_master_set ; 0x196fc
        0x000196e6:    2000        .       MOVS     r0,#0
        0x000196e8:    b002        ..      ADD      sp,sp,#8
        0x000196ea:    bd10        ..      POP      {r4,pc}
    am_hal_interrupt_master_disable
        0x000196ec:    f3ef8010    ....    MRS      r0,PRIMASK
        0x000196f0:    b672        r.      CPSID    i
        0x000196f2:    4770        pG      BX       lr
    am_hal_interrupt_master_enable
        0x000196f4:    f3ef8010    ....    MRS      r0,PRIMASK
        0x000196f8:    b662        b.      CPSIE    i
        0x000196fa:    4770        pG      BX       lr
    am_hal_interrupt_master_set
        0x000196fc:    f3808810    ....    MSR      PRIMASK,r0
        0x00019700:    4770        pG      BX       lr
        0x00019702:    0000        ..      MOVS     r0,r0
    am_hal_itm_enable
        0x00019704:    f64e50fc    N..P    MOV      r0,#0xedfc
        0x00019708:    f2ce0000    ....    MOVT     r0,#0xe000
        0x0001970c:    6801        .h      LDR      r1,[r0,#0]
        0x0001970e:    f0417180    A..q    ORR      r1,r1,#0x1000000
        0x00019712:    6001        .`      STR      r1,[r0,#0]
        0x00019714:    6801        .h      LDR      r1,[r0,#0]
        0x00019716:    01c9        ..      LSLS     r1,r1,#7
        0x00019718:    d5fc        ..      BPL      0x19714 ; am_hal_itm_enable + 16
        0x0001971a:    f6406000    @..`    MOVW     r0,#0xe00
        0x0001971e:    f64c6155    L.Ua    MOV      r1,#0xce55
        0x00019722:    f2ce0000    ....    MOVT     r0,#0xe000
        0x00019726:    f2cc51ac    ...Q    MOVT     r1,#0xc5ac
        0x0001972a:    f8c011b0    ....    STR      r1,[r0,#0x1b0]
        0x0001972e:    210f        .!      MOVS     r1,#0xf
        0x00019730:    6401        .d      STR      r1,[r0,#0x40]
        0x00019732:    f04f31ff    O..1    MOV      r1,#0xffffffff
        0x00019736:    6001        .`      STR      r1,[r0,#0]
        0x00019738:    f2405111    @..Q    MOV      r1,#0x511
        0x0001973c:    f2c00115    ....    MOVT     r1,#0x15
        0x00019740:    f8c01080    ....    STR      r1,[r0,#0x80]
        0x00019744:    4770        pG      BX       lr
        0x00019746:    0000        ..      MOVS     r0,r0
    am_hal_itm_print
        0x00019748:    2100        .!      MOVS     r1,#0
        0x0001974a:    bf00        ..      NOP      
        0x0001974c:    5c42        B\      LDRB     r2,[r0,r1]
        0x0001974e:    3101        .1      ADDS     r1,#1
        0x00019750:    2a00        .*      CMP      r2,#0
        0x00019752:    d1fb        ..      BNE      0x1974c ; am_hal_itm_print + 4
        0x00019754:    3901        .9      SUBS     r1,#1
        0x00019756:    bf08        ..      IT       EQ
        0x00019758:    4770        pG      BXEQ     lr
        0x0001975a:    f04f4260    O.`B    MOV      r2,#0xe0000000
        0x0001975e:    bf00        ..      NOP      
        0x00019760:    f890c000    ....    LDRB     r12,[r0,#0]
        0x00019764:    6813        .h      LDR      r3,[r2,#0]
        0x00019766:    2b00        .+      CMP      r3,#0
        0x00019768:    d0fc        ..      BEQ      0x19764 ; am_hal_itm_print + 28
        0x0001976a:    3001        .0      ADDS     r0,#1
        0x0001976c:    3901        .9      SUBS     r1,#1
        0x0001976e:    f882c000    ....    STRB     r12,[r2,#0]
        0x00019772:    d1f5        ..      BNE      0x19760 ; am_hal_itm_print + 24
        0x00019774:    4770        pG      BX       lr
    am_hal_load_ui32
        0x00019776:    f64c3198    L..1    MOV      r1,#0xcb98
        0x0001977a:    f2c00101    ....    MOVT     r1,#1
        0x0001977e:    6949        Ii      LDR      r1,[r1,#0x14]
        0x00019780:    4708        .G      BX       r1
    am_hal_mram_ds_init
        0x00019782:    b580        ..      PUSH     {r7,lr}
        0x00019784:    f2402064    @.d     MOVW     r0,#0x264
        0x00019788:    f2c10000    ....    MOVT     r0,#0x1000
        0x0001978c:    6800        .h      LDR      r0,[r0,#0]
        0x0001978e:    4780        .G      BLX      r0
        0x00019790:    2000        .       MOVS     r0,#0
        0x00019792:    bd80        ..      POP      {r7,pc}
    am_hal_mram_info_read
        0x00019794:    e92d41f0    -..A    PUSH     {r4-r8,lr}
        0x00019798:    b082        ..      SUB      sp,sp,#8
        0x0001979a:    461c        .F      MOV      r4,r3
        0x0001979c:    4615        .F      MOV      r5,r2
        0x0001979e:    2801        .(      CMP      r0,#1
        0x000197a0:    460e        .F      MOV      r6,r1
        0x000197a2:    d00d        ..      BEQ      0x197c0 ; am_hal_mram_info_read + 44
        0x000197a4:    bbd8        ..      CBNZ     r0,0x1981e ; am_hal_mram_info_read + 138
        0x000197a6:    2000        .       MOVS     r0,#0
        0x000197a8:    ebb02f56    ..V/    CMP      r0,r6,LSR #9
        0x000197ac:    f04f0702    O...    MOV      r7,#2
        0x000197b0:    d136        6.      BNE      0x19820 ; am_hal_mram_info_read + 140
        0x000197b2:    19a8        ..      ADDS     r0,r5,r6
        0x000197b4:    f5b07f00    ....    CMP      r0,#0x200
        0x000197b8:    d832        2.      BHI      0x19820 ; am_hal_mram_info_read + 140
        0x000197ba:    f04f4784    O..G    MOV      r7,#0x42000000
        0x000197be:    e00e        ..      B        0x197de ; am_hal_mram_info_read + 74
        0x000197c0:    f5a66090    ...`    SUB      r0,r6,#0x480
        0x000197c4:    09c0        ..      LSRS     r0,r0,#7
        0x000197c6:    2802        .(      CMP      r0,#2
        0x000197c8:    f04f0702    O...    MOV      r7,#2
        0x000197cc:    d828        (.      BHI      0x19820 ; am_hal_mram_info_read + 140
        0x000197ce:    19a8        ..      ADDS     r0,r5,r6
        0x000197d0:    f5b06fc0    ...o    CMP      r0,#0x600
        0x000197d4:    d824        $.      BHI      0x19820 ; am_hal_mram_info_read + 140
        0x000197d6:    f2420700    B...    MOVW     r7,#0x2000
        0x000197da:    f2c42700    ...'    MOVT     r7,#0x4200
        0x000197de:    f2402860    @.`(    MOVW     r8,#0x260
        0x000197e2:    f2c10800    ....    MOVT     r8,#0x1000
        0x000197e6:    f8d81000    ....    LDR      r1,[r8,#0]
        0x000197ea:    2001        .       MOVS     r0,#1
        0x000197ec:    4788        .G      BLX      r1
        0x000197ee:    f7ffff7d    ..}.    BL       am_hal_interrupt_master_disable ; 0x196ec
        0x000197f2:    9001        ..      STR      r0,[sp,#4]
        0x000197f4:    b155        U.      CBZ      r5,0x1980c ; am_hal_mram_info_read + 120
        0x000197f6:    eb070086    ....    ADD      r0,r7,r6,LSL #2
        0x000197fa:    bf00        ..      NOP      
        0x000197fc:    1d06        ..      ADDS     r6,r0,#4
        0x000197fe:    f7ffffba    ....    BL       am_hal_load_ui32 ; 0x19776
        0x00019802:    f8440b04    D...    STR      r0,[r4],#4
        0x00019806:    3d01        .=      SUBS     r5,#1
        0x00019808:    4630        0F      MOV      r0,r6
        0x0001980a:    d1f7        ..      BNE      0x197fc ; am_hal_mram_info_read + 104
        0x0001980c:    9801        ..      LDR      r0,[sp,#4]
        0x0001980e:    f7ffff75    ..u.    BL       am_hal_interrupt_master_set ; 0x196fc
        0x00019812:    f8d81000    ....    LDR      r1,[r8,#0]
        0x00019816:    2000        .       MOVS     r0,#0
        0x00019818:    2700        .'      MOVS     r7,#0
        0x0001981a:    4788        .G      BLX      r1
        0x0001981c:    e000        ..      B        0x19820 ; am_hal_mram_info_read + 140
        0x0001981e:    2701        .'      MOVS     r7,#1
        0x00019820:    4638        8F      MOV      r0,r7
        0x00019822:    b002        ..      ADD      sp,sp,#8
        0x00019824:    e8bd81f0    ....    POP      {r4-r8,pc}
    am_hal_pwrctrl_control
        0x00019828:    e92d43f0    -..C    PUSH     {r4-r9,lr}
        0x0001982c:    b089        ..      SUB      sp,sp,#0x24
        0x0001982e:    2100        .!      MOVS     r1,#0
        0x00019830:    2803        .(      CMP      r0,#3
        0x00019832:    9102        ..      STR      r1,[sp,#8]
        0x00019834:    9101        ..      STR      r1,[sp,#4]
        0x00019836:    d873        s.      BHI      0x19920 ; am_hal_pwrctrl_control + 248
        0x00019838:    e8dff000    ....    TBB      [pc,r0]
    $d.23
        0x0001983c:    90817402    .t..    DCD    2424402946
    $t.24
        0x00019840:    2544        D%      MOVS     r5,#0x44
        0x00019842:    f2c40502    ....    MOVT     r5,#0x4002
        0x00019846:    f8d50334    ..4.    LDR      r0,[r5,#0x334]
        0x0001984a:    210a        .!      MOVS     r1,#0xa
        0x0001984c:    f02050f8     ..P    BIC      r0,r0,#0x1f000000
        0x00019850:    f8c50334    ..4.    STR      r0,[r5,#0x334]
        0x00019854:    f8d50314    ....    LDR      r0,[r5,#0x314]
        0x00019858:    2600        .&      MOVS     r6,#0
        0x0001985a:    f42000f8     ...    BIC      r0,r0,#0x7c0000
        0x0001985e:    f8c50314    ....    STR      r0,[r5,#0x314]
        0x00019862:    f8d50300    ....    LDR      r0,[r5,#0x300]
        0x00019866:    f361601b    a..`    BFI      r0,r1,#24,#4
        0x0001986a:    f8c50300    ....    STR      r0,[r5,#0x300]
        0x0001986e:    f8d50300    ....    LDR      r0,[r5,#0x300]
        0x00019872:    f36120ce    a..     BFI      r0,r1,#11,#4
        0x00019876:    f8c50300    ....    STR      r0,[r5,#0x300]
        0x0001987a:    f8d50314    ....    LDR      r0,[r5,#0x314]
        0x0001987e:    f44050f0    @..P    ORR      r0,r0,#0x1e00
        0x00019882:    f8c50314    ....    STR      r0,[r5,#0x314]
        0x00019886:    f8d50310    ....    LDR      r0,[r5,#0x310]
        0x0001988a:    f44010f0    @...    ORR      r0,r0,#0x1e0000
        0x0001988e:    f8c50310    ....    STR      r0,[r5,#0x310]
        0x00019892:    f8d5031c    ....    LDR      r0,[r5,#0x31c]
        0x00019896:    f0407070    @.pp    ORR      r0,r0,#0x3c00000
        0x0001989a:    f8c5031c    ....    STR      r0,[r5,#0x31c]
        0x0001989e:    f8d5031c    ....    LDR      r0,[r5,#0x31c]
        0x000198a2:    f44010f0    @...    ORR      r0,r0,#0x1e0000
        0x000198a6:    f8c5031c    ....    STR      r0,[r5,#0x31c]
        0x000198aa:    f8d50328    ..(.    LDR      r0,[r5,#0x328]
        0x000198ae:    f8d5132c    ..,.    LDR      r1,[r5,#0x32c]
        0x000198b2:    0e80        ..      LSRS     r0,r0,#26
        0x000198b4:    f360619f    `..a    BFI      r1,r0,#26,#6
        0x000198b8:    f8c5132c    ..,.    STR      r1,[r5,#0x32c]
        0x000198bc:    f8d5033c    ..<.    LDR      r0,[r5,#0x33c]
        0x000198c0:    f2402154    @.T!    MOVW     r1,#0x254
        0x000198c4:    f0404000    @..@    ORR      r0,r0,#0x80000000
        0x000198c8:    f8c5033c    ..<.    STR      r0,[r5,#0x33c]
        0x000198cc:    f8d5033c    ..<.    LDR      r0,[r5,#0x33c]
        0x000198d0:    f2c10100    ....    MOVT     r1,#0x1000
        0x000198d4:    f0404080    @..@    ORR      r0,r0,#0x40000000
        0x000198d8:    f8c5033c    ..<.    STR      r0,[r5,#0x33c]
        0x000198dc:    f8d5032c    ..,.    LDR      r0,[r5,#0x32c]
        0x000198e0:    f3c05005    ...P    UBFX     r0,r0,#20,#6
        0x000198e4:    6008        .`      STR      r0,[r1,#0]
        0x000198e6:    f8d5032c    ..,.    LDR      r0,[r5,#0x32c]
        0x000198ea:    2101        .!      MOVS     r1,#1
        0x000198ec:    f020707c     .|p    BIC      r0,r0,#0x3f00000
        0x000198f0:    f8c5032c    ..,.    STR      r0,[r5,#0x32c]
        0x000198f4:    2007        .       MOVS     r0,#7
        0x000198f6:    f8c502f8    ....    STR      r0,[r5,#0x2f8]
        0x000198fa:    f8d502fc    ....    LDR      r0,[r5,#0x2fc]
        0x000198fe:    f0207070     .pp    BIC      r0,r0,#0x3c00000
        0x00019902:    f8c502fc    ....    STR      r0,[r5,#0x2fc]
        0x00019906:    f8d502fc    ....    LDR      r0,[r5,#0x2fc]
        0x0001990a:    f361108a    a...    BFI      r0,r1,#6,#5
        0x0001990e:    f8c502fc    ....    STR      r0,[r5,#0x2fc]
        0x00019912:    a803        ..      ADD      r0,sp,#0xc
        0x00019914:    9603        ..      STR      r6,[sp,#0xc]
        0x00019916:    f7fefdaf    ....    BL       TrimVersionGet ; 0x18478
        0x0001991a:    b348        H.      CBZ      r0,0x19970 ; am_hal_pwrctrl_control + 328
        0x0001991c:    4604        .F      MOV      r4,r0
        0x0001991e:    e023        #.      B        0x19968 ; am_hal_pwrctrl_control + 320
        0x00019920:    2406        .$      MOVS     r4,#6
        0x00019922:    e021        !.      B        0x19968 ; am_hal_pwrctrl_control + 320
        0x00019924:    f2410008    A...    MOV      r0,#0x1008
        0x00019928:    f2c40002    ....    MOVT     r0,#0x4002
        0x0001992c:    6800        .h      LDR      r0,[r0,#0]
        0x0001992e:    02c0        ..      LSLS     r0,r0,#11
        0x00019930:    d512        ..      BPL      0x19958 ; am_hal_pwrctrl_control + 304
        0x00019932:    2014        .       MOVS     r0,#0x14
        0x00019934:    f000fa4b    ..K.    BL       am_hal_pwrctrl_periph_disable ; 0x19dce
        0x00019938:    4604        .F      MOV      r4,r0
        0x0001993a:    b9a8        ..      CBNZ     r0,0x19968 ; am_hal_pwrctrl_control + 320
        0x0001993c:    e00c        ..      B        0x19958 ; am_hal_pwrctrl_control + 304
        0x0001993e:    2044        D       MOVS     r0,#0x44
        0x00019940:    f2c40002    ....    MOVT     r0,#0x4002
        0x00019944:    f8d010e0    ....    LDR      r1,[r0,#0xe0]
        0x00019948:    2220         "      MOVS     r2,#0x20
        0x0001994a:    f3620187    b...    BFI      r1,r2,#2,#6
        0x0001994e:    f8c010e0    ....    STR      r1,[r0,#0xe0]
        0x00019952:    2101        .!      MOVS     r1,#1
        0x00019954:    f8c010dc    ....    STR      r1,[r0,#0xdc]
        0x00019958:    2400        .$      MOVS     r4,#0
        0x0001995a:    e005        ..      B        0x19968 ; am_hal_pwrctrl_control + 320
        0x0001995c:    2044        D       MOVS     r0,#0x44
        0x0001995e:    f2c40002    ....    MOVT     r0,#0x4002
        0x00019962:    2400        .$      MOVS     r4,#0
        0x00019964:    f8c04fc0    ...O    STR      r4,[r0,#0xfc0]
        0x00019968:    4620         F      MOV      r0,r4
        0x0001996a:    b009        ..      ADD      sp,sp,#0x24
        0x0001996c:    e8bd83f0    ....    POP      {r4-r9,pc}
        0x00019970:    9803        ..      LDR      r0,[sp,#0xc]
        0x00019972:    2805        .(      CMP      r0,#5
        0x00019974:    bf88        ..      IT       HI
        0x00019976:    2616        .&      MOVHI    r6,#0x16
        0x00019978:    2806        .(      CMP      r0,#6
        0x0001997a:    d331        1.      BCC      0x199e0 ; am_hal_pwrctrl_control + 440
        0x0001997c:    f240204c    @.L     MOVW     r0,#0x24c
        0x00019980:    f2c10000    ....    MOVT     r0,#0x1000
        0x00019984:    6801        .h      LDR      r1,[r0,#0]
        0x00019986:    3101        .1      ADDS     r1,#1
        0x00019988:    d12a        *.      BNE      0x199e0 ; am_hal_pwrctrl_control + 440
        0x0001998a:    f2413181    A..1    MOV      r1,#0x1381
        0x0001998e:    f2c10100    ....    MOVT     r1,#0x1000
        0x00019992:    780a        .x      LDRB     r2,[r1,#0]
        0x00019994:    b90a        ..      CBNZ     r2,0x1999a ; am_hal_pwrctrl_control + 370
        0x00019996:    2201        ."      MOVS     r2,#1
        0x00019998:    700a        .p      STRB     r2,[r1,#0]
        0x0001999a:    6829        )h      LDR      r1,[r5,#0]
        0x0001999c:    f3c111c6    ....    UBFX     r1,r1,#7,#7
        0x000199a0:    6001        .`      STR      r1,[r0,#0]
        0x000199a2:    f8d51334    ..4.    LDR      r1,[r5,#0x334]
        0x000199a6:    f0414100    A..A    ORR      r1,r1,#0x80000000
        0x000199aa:    f8c51334    ..4.    STR      r1,[r5,#0x334]
        0x000199ae:    6800        .h      LDR      r0,[r0,#0]
        0x000199b0:    f086017f    ....    EOR      r1,r6,#0x7f
        0x000199b4:    1984        ..      ADDS     r4,r0,r6
        0x000199b6:    4288        .B      CMP      r0,r1
        0x000199b8:    6828        (h      LDR      r0,[r5,#0]
        0x000199ba:    bf88        ..      IT       HI
        0x000199bc:    247f        .$      MOVHI    r4,#0x7f
        0x000199be:    f3c010c6    ....    UBFX     r0,r0,#7,#7
        0x000199c2:    42a0        .B      CMP      r0,r4
        0x000199c4:    d00c        ..      BEQ      0x199e0 ; am_hal_pwrctrl_control + 440
        0x000199c6:    f7fffe91    ....    BL       am_hal_interrupt_master_disable ; 0x196ec
        0x000199ca:    9004        ..      STR      r0,[sp,#0x10]
        0x000199cc:    6828        (h      LDR      r0,[r5,#0]
        0x000199ce:    f36410cd    d...    BFI      r0,r4,#7,#7
        0x000199d2:    6028        (`      STR      r0,[r5,#0]
        0x000199d4:    2014        .       MOVS     r0,#0x14
        0x000199d6:    f7fffd37    ..7.    BL       am_hal_delay_us ; 0x19448
        0x000199da:    9804        ..      LDR      r0,[sp,#0x10]
        0x000199dc:    f7fffe8e    ....    BL       am_hal_interrupt_master_set ; 0x196fc
        0x000199e0:    2001        .       MOVS     r0,#1
        0x000199e2:    2100        .!      MOVS     r1,#0
        0x000199e4:    2200        ."      MOVS     r2,#0
        0x000199e6:    2400        .$      MOVS     r4,#0
        0x000199e8:    f7fefd62    ..b.    BL       VDDF_simobuck_boost ; 0x184b0
        0x000199ec:    f2410008    A...    MOV      r0,#0x1008
        0x000199f0:    f2c40002    ....    MOVT     r0,#0x4002
        0x000199f4:    f8d010f8    ....    LDR      r1,[r0,#0xf8]
        0x000199f8:    f0410101    A...    ORR      r1,r1,#1
        0x000199fc:    f8c010f8    ....    STR      r1,[r0,#0xf8]
        0x00019a00:    f8d50334    ..4.    LDR      r0,[r5,#0x334]
        0x00019a04:    f0404000    @..@    ORR      r0,r0,#0x80000000
        0x00019a08:    f8c50334    ..4.    STR      r0,[r5,#0x334]
        0x00019a0c:    f2413088    A..0    MOV      r0,#0x1388
        0x00019a10:    f7fffd1a    ....    BL       am_hal_delay_us ; 0x19448
        0x00019a14:    a802        ..      ADD      r0,sp,#8
        0x00019a16:    2100        .!      MOVS     r1,#0
        0x00019a18:    f002f81c    ....    BL       buck_interval_check ; 0x1ba54
        0x00019a1c:    2800        .(      CMP      r0,#0
        0x00019a1e:    d1a3        ..      BNE      0x19968 ; am_hal_pwrctrl_control + 320
        0x00019a20:    a801        ..      ADD      r0,sp,#4
        0x00019a22:    2101        .!      MOVS     r1,#1
        0x00019a24:    f002f816    ....    BL       buck_interval_check ; 0x1ba54
        0x00019a28:    2800        .(      CMP      r0,#0
        0x00019a2a:    d195        ..      BNE      0x19958 ; am_hal_pwrctrl_control + 304
        0x00019a2c:    f002f8ad    ....    BL       buck_ldo_override_init ; 0x1bb8a
        0x00019a30:    f64010c4    @...    MOV      r0,#0x9c4
        0x00019a34:    f7fffd08    ....    BL       am_hal_delay_us ; 0x19448
        0x00019a38:    ac04        ..      ADD      r4,sp,#0x10
        0x00019a3a:    f8dd8008    ....    LDR      r8,[sp,#8]
        0x00019a3e:    4620         F      MOV      r0,r4
        0x00019a40:    f001f9eb    ....    BL       am_hal_timer_default_config_set ; 0x1ae1a
        0x00019a44:    f44f7007    O..p    MOV      r0,#0x21c
        0x00019a48:    f8ad0010    ....    STRH     r0,[sp,#0x10]
        0x00019a4c:    200d        .       MOVS     r0,#0xd
        0x00019a4e:    4621        !F      MOV      r1,r4
        0x00019a50:    f002fd6e    ..n.    BL       timer_config_b1 ; 0x1c530
        0x00019a54:    200d        .       MOVS     r0,#0xd
        0x00019a56:    f001fa0e    ....    BL       am_hal_timer_enable ; 0x1ae76
        0x00019a5a:    200d        .       MOVS     r0,#0xd
        0x00019a5c:    f001faa5    ....    BL       am_hal_timer_read ; 0x1afaa
        0x00019a60:    4604        .F      MOV      r4,r0
        0x00019a62:    4640        @F      MOV      r0,r8
        0x00019a64:    f7fffcf0    ....    BL       am_hal_delay_us ; 0x19448
        0x00019a68:    200d        .       MOVS     r0,#0xd
        0x00019a6a:    f001fa9e    ....    BL       am_hal_timer_read ; 0x1afaa
        0x00019a6e:    4606        .F      MOV      r6,r0
        0x00019a70:    f24039ff    @..9    MOV      r9,#0x3ff
        0x00019a74:    4627        'F      MOV      r7,r4
        0x00019a76:    bf00        ..      NOP      
        0x00019a78:    6bea        .k      LDR      r2,[r5,#0x3c]
        0x00019a7a:    42b4        .B      CMP      r4,r6
        0x00019a7c:    4611        .F      MOV      r1,r2
        0x00019a7e:    f36f219f    o..!    BFC      r1,#10,#22
        0x00019a82:    d106        ..      BNE      0x19a92 ; am_hal_pwrctrl_control + 618
        0x00019a84:    4287        .B      CMP      r7,r0
        0x00019a86:    d11a        ..      BNE      0x19abe ; am_hal_pwrctrl_control + 662
        0x00019a88:    2902        .)      CMP      r1,#2
        0x00019a8a:    d318        ..      BCC      0x19abe ; am_hal_pwrctrl_control + 662
        0x00019a8c:    f04f30ff    O..0    MOV      r0,#0xffffffff
        0x00019a90:    e004        ..      B        0x19a9c ; am_hal_pwrctrl_control + 628
        0x00019a92:    4549        IE      CMP      r1,r9
        0x00019a94:    d01b        ..      BEQ      0x19ace ; am_hal_pwrctrl_control + 678
        0x00019a96:    4287        .B      CMP      r7,r0
        0x00019a98:    d011        ..      BEQ      0x19abe ; am_hal_pwrctrl_control + 662
        0x00019a9a:    2001        .       MOVS     r0,#1
        0x00019a9c:    6bea        .k      LDR      r2,[r5,#0x3c]
        0x00019a9e:    4408        .D      ADD      r0,r0,r1
        0x00019aa0:    ea220109    "...    BIC      r1,r2,r9
        0x00019aa4:    4308        .C      ORRS     r0,r0,r1
        0x00019aa6:    63e8        .c      STR      r0,[r5,#0x3c]
        0x00019aa8:    200d        .       MOVS     r0,#0xd
        0x00019aaa:    f001fa7e    ..~.    BL       am_hal_timer_read ; 0x1afaa
        0x00019aae:    4607        .F      MOV      r7,r0
        0x00019ab0:    4640        @F      MOV      r0,r8
        0x00019ab2:    f7fffcc9    ....    BL       am_hal_delay_us ; 0x19448
        0x00019ab6:    200d        .       MOVS     r0,#0xd
        0x00019ab8:    f001fa77    ..w.    BL       am_hal_timer_read ; 0x1afaa
        0x00019abc:    e7dc        ..      B        0x19a78 ; am_hal_pwrctrl_control + 592
        0x00019abe:    290e        .)      CMP      r1,#0xe
        0x00019ac0:    bf26        &.      ITTE     CS
        0x00019ac2:    f502707d    ..}p    ADDCS    r0,r2,#0x3f4
        0x00019ac6:    f36f209f    o..     BFCCS    r0,#10,#22
        0x00019aca:    2001        .       MOVCC    r0,#1
        0x00019acc:    e001        ..      B        0x19ad2 ; am_hal_pwrctrl_control + 682
        0x00019ace:    f24030f3    @..0    MOV      r0,#0x3f3
        0x00019ad2:    6be9        .k      LDR      r1,[r5,#0x3c]
        0x00019ad4:    f24032ff    @..2    MOV      r2,#0x3ff
        0x00019ad8:    4391        .C      BICS     r1,r1,r2
        0x00019ada:    4408        .D      ADD      r0,r0,r1
        0x00019adc:    63e8        .c      STR      r0,[r5,#0x3c]
        0x00019ade:    200d        .       MOVS     r0,#0xd
        0x00019ae0:    f001f971    ..q.    BL       am_hal_timer_clear_stop ; 0x1adc6
        0x00019ae4:    200d        .       MOVS     r0,#0xd
        0x00019ae6:    f001f9a8    ....    BL       am_hal_timer_disable ; 0x1ae3a
        0x00019aea:    200d        .       MOVS     r0,#0xd
        0x00019aec:    f001fa70    ..p.    BL       am_hal_timer_reset_config ; 0x1afd0
        0x00019af0:    ac04        ..      ADD      r4,sp,#0x10
        0x00019af2:    f8dd8004    ....    LDR      r8,[sp,#4]
        0x00019af6:    4620         F      MOV      r0,r4
        0x00019af8:    f001f98f    ....    BL       am_hal_timer_default_config_set ; 0x1ae1a
        0x00019afc:    f240201d    @..     MOV      r0,#0x21d
        0x00019b00:    f8ad0010    ....    STRH     r0,[sp,#0x10]
        0x00019b04:    200d        .       MOVS     r0,#0xd
        0x00019b06:    4621        !F      MOV      r1,r4
        0x00019b08:    f002fd12    ....    BL       timer_config_b1 ; 0x1c530
        0x00019b0c:    200d        .       MOVS     r0,#0xd
        0x00019b0e:    f001f9b2    ....    BL       am_hal_timer_enable ; 0x1ae76
        0x00019b12:    200d        .       MOVS     r0,#0xd
        0x00019b14:    f001fa49    ..I.    BL       am_hal_timer_read ; 0x1afaa
        0x00019b18:    4604        .F      MOV      r4,r0
        0x00019b1a:    4640        @F      MOV      r0,r8
        0x00019b1c:    f7fffc94    ....    BL       am_hal_delay_us ; 0x19448
        0x00019b20:    200d        .       MOVS     r0,#0xd
        0x00019b22:    f001fa42    ..B.    BL       am_hal_timer_read ; 0x1afaa
        0x00019b26:    f2402948    @.H)    MOVW     r9,#0x248
        0x00019b2a:    4606        .F      MOV      r6,r0
        0x00019b2c:    f2c10900    ....    MOVT     r9,#0x1000
        0x00019b30:    4627        'F      MOV      r7,r4
        0x00019b32:    bf00        ..      NOP      
        0x00019b34:    6c6a        jl      LDR      r2,[r5,#0x44]
        0x00019b36:    f8d91000    ....    LDR      r1,[r9,#0]
        0x00019b3a:    3101        .1      ADDS     r1,#1
        0x00019b3c:    f002013f    ..?.    AND      r1,r2,#0x3f
        0x00019b40:    bf08        ..      IT       EQ
        0x00019b42:    f8c91000    ....    STREQ    r1,[r9,#0]
        0x00019b46:    42b4        .B      CMP      r4,r6
        0x00019b48:    d106        ..      BNE      0x19b58 ; am_hal_pwrctrl_control + 816
        0x00019b4a:    4287        .B      CMP      r7,r0
        0x00019b4c:    d11a        ..      BNE      0x19b84 ; am_hal_pwrctrl_control + 860
        0x00019b4e:    2902        .)      CMP      r1,#2
        0x00019b50:    d318        ..      BCC      0x19b84 ; am_hal_pwrctrl_control + 860
        0x00019b52:    f04f30ff    O..0    MOV      r0,#0xffffffff
        0x00019b56:    e004        ..      B        0x19b62 ; am_hal_pwrctrl_control + 826
        0x00019b58:    293f        ?)      CMP      r1,#0x3f
        0x00019b5a:    d01b        ..      BEQ      0x19b94 ; am_hal_pwrctrl_control + 876
        0x00019b5c:    4287        .B      CMP      r7,r0
        0x00019b5e:    d011        ..      BEQ      0x19b84 ; am_hal_pwrctrl_control + 860
        0x00019b60:    2001        .       MOVS     r0,#1
        0x00019b62:    6c6a        jl      LDR      r2,[r5,#0x44]
        0x00019b64:    4408        .D      ADD      r0,r0,r1
        0x00019b66:    f022013f    ".?.    BIC      r1,r2,#0x3f
        0x00019b6a:    4308        .C      ORRS     r0,r0,r1
        0x00019b6c:    6468        hd      STR      r0,[r5,#0x44]
        0x00019b6e:    200d        .       MOVS     r0,#0xd
        0x00019b70:    f001fa1b    ....    BL       am_hal_timer_read ; 0x1afaa
        0x00019b74:    4607        .F      MOV      r7,r0
        0x00019b76:    4640        @F      MOV      r0,r8
        0x00019b78:    f7fffc66    ..f.    BL       am_hal_delay_us ; 0x19448
        0x00019b7c:    200d        .       MOVS     r0,#0xd
        0x00019b7e:    f001fa14    ....    BL       am_hal_timer_read ; 0x1afaa
        0x00019b82:    e7d7        ..      B        0x19b34 ; am_hal_pwrctrl_control + 780
        0x00019b84:    2905        .)      CMP      r1,#5
        0x00019b86:    bf26        &.      ITTE     CS
        0x00019b88:    f102003d    ..=.    ADDCS    r0,r2,#0x3d
        0x00019b8c:    f000003f    ..?.    ANDCS    r0,r0,#0x3f
        0x00019b90:    2001        .       MOVCC    r0,#1
        0x00019b92:    e000        ..      B        0x19b96 ; am_hal_pwrctrl_control + 878
        0x00019b94:    203c        <       MOVS     r0,#0x3c
        0x00019b96:    6c69        il      LDR      r1,[r5,#0x44]
        0x00019b98:    f021013f    !.?.    BIC      r1,r1,#0x3f
        0x00019b9c:    4408        .D      ADD      r0,r0,r1
        0x00019b9e:    6468        hd      STR      r0,[r5,#0x44]
        0x00019ba0:    200d        .       MOVS     r0,#0xd
        0x00019ba2:    f001f910    ....    BL       am_hal_timer_clear_stop ; 0x1adc6
        0x00019ba6:    200d        .       MOVS     r0,#0xd
        0x00019ba8:    f001f947    ..G.    BL       am_hal_timer_disable ; 0x1ae3a
        0x00019bac:    200d        .       MOVS     r0,#0xd
        0x00019bae:    f001fa0f    ....    BL       am_hal_timer_reset_config ; 0x1afd0
        0x00019bb2:    e6d1        ..      B        0x19958 ; am_hal_pwrctrl_control + 304
    am_hal_pwrctrl_low_power_init
        0x00019bb4:    b5b0        ..      PUSH     {r4,r5,r7,lr}
        0x00019bb6:    f6452503    E..%    MOV      r5,#0x5a03
        0x00019bba:    2428        ($      MOVS     r4,#0x28
        0x00019bbc:    f6cc5573    ..sU    MOVT     r5,#0xcd73
        0x00019bc0:    f2c40402    ....    MOVT     r4,#0x4002
        0x00019bc4:    f7fffddd    ....    BL       am_hal_mram_ds_init ; 0x19782
        0x00019bc8:    f64c308c    L..0    MOV      r0,#0xcb8c
        0x00019bcc:    f2c00001    ....    MOVT     r0,#1
        0x00019bd0:    f000f880    ....    BL       am_hal_pwrctrl_mcu_memory_config ; 0x19cd4
        0x00019bd4:    f64c3092    L..0    MOV      r0,#0xcb92
        0x00019bd8:    f2c00001    ....    MOVT     r0,#1
        0x00019bdc:    f000f9d0    ....    BL       am_hal_pwrctrl_sram_config ; 0x19f80
        0x00019be0:    f2417088    A..p    MOV      r0,#0x1788
        0x00019be4:    f2c10000    ....    MOVT     r0,#0x1000
        0x00019be8:    6801        .h      LDR      r1,[r0,#0]
        0x00019bea:    42a9        .B      CMP      r1,r5
        0x00019bec:    d03a        :.      BEQ      0x19c64 ; am_hal_pwrctrl_low_power_init + 176
        0x00019bee:    f8d41314    ....    LDR      r1,[r4,#0x314]
        0x00019bf2:    6041        A`      STR      r1,[r0,#4]
        0x00019bf4:    f8d41318    ....    LDR      r1,[r4,#0x318]
        0x00019bf8:    6081        .`      STR      r1,[r0,#8]
        0x00019bfa:    f8d4131c    ....    LDR      r1,[r4,#0x31c]
        0x00019bfe:    60c1        .`      STR      r1,[r0,#0xc]
        0x00019c00:    f8d41324    ..$.    LDR      r1,[r4,#0x324]
        0x00019c04:    6101        .a      STR      r1,[r0,#0x10]
        0x00019c06:    f8d4132c    ..,.    LDR      r1,[r4,#0x32c]
        0x00019c0a:    6141        Aa      STR      r1,[r0,#0x14]
        0x00019c0c:    f8d41330    ..0.    LDR      r1,[r4,#0x330]
        0x00019c10:    6181        .a      STR      r1,[r0,#0x18]
        0x00019c12:    f8d41338    ..8.    LDR      r1,[r4,#0x338]
        0x00019c16:    61c1        .a      STR      r1,[r0,#0x1c]
        0x00019c18:    f8d41344    ..D.    LDR      r1,[r4,#0x344]
        0x00019c1c:    6201        .b      STR      r1,[r0,#0x20]
        0x00019c1e:    f8d41348    ..H.    LDR      r1,[r4,#0x348]
        0x00019c22:    6241        Ab      STR      r1,[r0,#0x24]
        0x00019c24:    f8d41350    ..P.    LDR      r1,[r4,#0x350]
        0x00019c28:    6281        .b      STR      r1,[r0,#0x28]
        0x00019c2a:    6da1        .m      LDR      r1,[r4,#0x58]
        0x00019c2c:    62c1        .b      STR      r1,[r0,#0x2c]
        0x00019c2e:    6e21        !n      LDR      r1,[r4,#0x60]
        0x00019c30:    6301        .c      STR      r1,[r0,#0x30]
        0x00019c32:    69e1        .i      LDR      r1,[r4,#0x1c]
        0x00019c34:    6341        Ac      STR      r1,[r0,#0x34]
        0x00019c36:    f8d41354    ..T.    LDR      r1,[r4,#0x354]
        0x00019c3a:    6381        .c      STR      r1,[r0,#0x38]
        0x00019c3c:    f8d41358    ..X.    LDR      r1,[r4,#0x358]
        0x00019c40:    63c1        .c      STR      r1,[r0,#0x3c]
        0x00019c42:    6ba1        .k      LDR      r1,[r4,#0x38]
        0x00019c44:    6401        .d      STR      r1,[r0,#0x40]
        0x00019c46:    6821        !h      LDR      r1,[r4,#0]
        0x00019c48:    6441        Ad      STR      r1,[r0,#0x44]
        0x00019c4a:    f8d410fc    ....    LDR      r1,[r4,#0xfc]
        0x00019c4e:    6481        .d      STR      r1,[r0,#0x48]
        0x00019c50:    f8d410e0    ....    LDR      r1,[r4,#0xe0]
        0x00019c54:    64c1        .d      STR      r1,[r0,#0x4c]
        0x00019c56:    f240412c    @.,A    MOV      r1,#0x42c
        0x00019c5a:    f2c40102    ....    MOVT     r1,#0x4002
        0x00019c5e:    6809        .h      LDR      r1,[r1,#0]
        0x00019c60:    6005        .`      STR      r5,[r0,#0]
        0x00019c62:    6501        .e      STR      r1,[r0,#0x50]
        0x00019c64:    f2440544    D.D.    MOV      r5,#0x4044
        0x00019c68:    f2c40500    ....    MOVT     r5,#0x4000
        0x00019c6c:    6828        (h      LDR      r0,[r5,#0]
        0x00019c6e:    213e        >!      MOVS     r1,#0x3e
        0x00019c70:    f3614099    a..@    BFI      r0,r1,#18,#8
        0x00019c74:    6028        (`      STR      r0,[r5,#0]
        0x00019c76:    f2411040    A.@.    MOVW     r0,#0x1140
        0x00019c7a:    f2c40002    ....    MOVT     r0,#0x4002
        0x00019c7e:    2100        .!      MOVS     r1,#0
        0x00019c80:    6001        .`      STR      r1,[r0,#0]
        0x00019c82:    6041        A`      STR      r1,[r0,#4]
        0x00019c84:    6081        .`      STR      r1,[r0,#8]
        0x00019c86:    60c1        .`      STR      r1,[r0,#0xc]
        0x00019c88:    6101        .a      STR      r1,[r0,#0x10]
        0x00019c8a:    6141        Aa      STR      r1,[r0,#0x14]
        0x00019c8c:    6181        .a      STR      r1,[r0,#0x18]
        0x00019c8e:    61c1        .a      STR      r1,[r0,#0x1c]
        0x00019c90:    6201        .b      STR      r1,[r0,#0x20]
        0x00019c92:    6241        Ab      STR      r1,[r0,#0x24]
        0x00019c94:    6281        .b      STR      r1,[r0,#0x28]
        0x00019c96:    62c1        .b      STR      r1,[r0,#0x2c]
        0x00019c98:    6301        .c      STR      r1,[r0,#0x30]
        0x00019c9a:    6341        Ac      STR      r1,[r0,#0x34]
        0x00019c9c:    6381        .c      STR      r1,[r0,#0x38]
        0x00019c9e:    63c1        .c      STR      r1,[r0,#0x3c]
        0x00019ca0:    6401        .d      STR      r1,[r0,#0x40]
        0x00019ca2:    6441        Ad      STR      r1,[r0,#0x44]
        0x00019ca4:    6481        .d      STR      r1,[r0,#0x48]
        0x00019ca6:    f64c1002    L...    MOV      r0,#0xc902
        0x00019caa:    f2c00001    ....    MOVT     r0,#1
        0x00019cae:    f7fffa36    ..6.    BL       am_hal_daxi_config ; 0x1911e
        0x00019cb2:    2064        d       MOVS     r0,#0x64
        0x00019cb4:    f7fffbc8    ....    BL       am_hal_delay_us ; 0x19448
        0x00019cb8:    6828        (h      LDR      r0,[r5,#0]
        0x00019cba:    f0400040    @.@.    ORR      r0,r0,#0x40
        0x00019cbe:    6028        (`      STR      r0,[r5,#0]
        0x00019cc0:    f8d40354    ..T.    LDR      r0,[r4,#0x354]
        0x00019cc4:    f04060b0    @..`    ORR      r0,r0,#0x5800000
        0x00019cc8:    f44001fd    @...    ORR      r1,r0,#0x7e8000
        0x00019ccc:    2000        .       MOVS     r0,#0
        0x00019cce:    f8c41354    ..T.    STR      r1,[r4,#0x354]
        0x00019cd2:    bdb0        ..      POP      {r4,r5,r7,pc}
    am_hal_pwrctrl_mcu_memory_config
        0x00019cd4:    b570        p.      PUSH     {r4-r6,lr}
        0x00019cd6:    b082        ..      SUB      sp,sp,#8
        0x00019cd8:    4606        .F      MOV      r6,r0
        0x00019cda:    7800        .x      LDRB     r0,[r0,#0]
        0x00019cdc:    f2410514    A...    MOV      r5,#0x1014
        0x00019ce0:    2802        .(      CMP      r0,#2
        0x00019ce2:    f2c40502    ....    MOVT     r5,#0x4002
        0x00019ce6:    d006        ..      BEQ      0x19cf6 ; am_hal_pwrctrl_mcu_memory_config + 34
        0x00019ce8:    2801        .(      CMP      r0,#1
        0x00019cea:    d00c        ..      BEQ      0x19d06 ; am_hal_pwrctrl_mcu_memory_config + 50
        0x00019cec:    b998        ..      CBNZ     r0,0x19d16 ; am_hal_pwrctrl_mcu_memory_config + 66
        0x00019cee:    6828        (h      LDR      r0,[r5,#0]
        0x00019cf0:    f0200010     ...    BIC      r0,r0,#0x10
        0x00019cf4:    e00a        ..      B        0x19d0c ; am_hal_pwrctrl_mcu_memory_config + 56
        0x00019cf6:    6828        (h      LDR      r0,[r5,#0]
        0x00019cf8:    f0400010    @...    ORR      r0,r0,#0x10
        0x00019cfc:    6028        (`      STR      r0,[r5,#0]
        0x00019cfe:    6828        (h      LDR      r0,[r5,#0]
        0x00019d00:    f0400020    @. .    ORR      r0,r0,#0x20
        0x00019d04:    e006        ..      B        0x19d14 ; am_hal_pwrctrl_mcu_memory_config + 64
        0x00019d06:    6828        (h      LDR      r0,[r5,#0]
        0x00019d08:    f0400010    @...    ORR      r0,r0,#0x10
        0x00019d0c:    6028        (`      STR      r0,[r5,#0]
        0x00019d0e:    6828        (h      LDR      r0,[r5,#0]
        0x00019d10:    f0200020     . .    BIC      r0,r0,#0x20
        0x00019d14:    6028        (`      STR      r0,[r5,#0]
        0x00019d16:    78b0        .x      LDRB     r0,[r6,#2]
        0x00019d18:    6829        )h      LDR      r1,[r5,#0]
        0x00019d1a:    2401        .$      MOVS     r4,#1
        0x00019d1c:    f3600102    `...    BFI      r1,r0,#0,#3
        0x00019d20:    6029        )`      STR      r1,[r5,#0]
        0x00019d22:    7930        0y      LDRB     r0,[r6,#4]
        0x00019d24:    6829        )h      LDR      r1,[r5,#0]
        0x00019d26:    f000001f    ....    AND      r0,r0,#0x1f
        0x00019d2a:    f0210108    !...    BIC      r1,r1,#8
        0x00019d2e:    ea4100c0    A...    ORR      r0,r1,r0,LSL #3
        0x00019d32:    6028        (`      STR      r0,[r5,#0]
        0x00019d34:    4629        )F      MOV      r1,r5
        0x00019d36:    f8513b04    Q..;    LDR      r3,[r1],#4
        0x00019d3a:    2005        .       MOVS     r0,#5
        0x00019d3c:    223f        ?"      MOVS     r2,#0x3f
        0x00019d3e:    9400        ..      STR      r4,[sp,#0]
        0x00019d40:    f7fffbc8    ....    BL       am_hal_delay_us_status_check ; 0x194d4
        0x00019d44:    2800        .(      CMP      r0,#0
        0x00019d46:    d132        2.      BNE      0x19dae ; am_hal_pwrctrl_mcu_memory_config + 218
        0x00019d48:    6868        hh      LDR      r0,[r5,#4]
        0x00019d4a:    6829        )h      LDR      r1,[r5,#0]
        0x00019d4c:    4048        H@      EORS     r0,r0,r1
        0x00019d4e:    06c0        ..      LSLS     r0,r0,#27
        0x00019d50:    d42c        ,.      BMI      0x19dac ; am_hal_pwrctrl_mcu_memory_config + 216
        0x00019d52:    6868        hh      LDR      r0,[r5,#4]
        0x00019d54:    6829        )h      LDR      r1,[r5,#0]
        0x00019d56:    4048        H@      EORS     r0,r0,r1
        0x00019d58:    0680        ..      LSLS     r0,r0,#26
        0x00019d5a:    d427        '.      BMI      0x19dac ; am_hal_pwrctrl_mcu_memory_config + 216
        0x00019d5c:    6868        hh      LDR      r0,[r5,#4]
        0x00019d5e:    6829        )h      LDR      r1,[r5,#0]
        0x00019d60:    4048        H@      EORS     r0,r0,r1
        0x00019d62:    0740        @.      LSLS     r0,r0,#29
        0x00019d64:    d122        ".      BNE      0x19dac ; am_hal_pwrctrl_mcu_memory_config + 216
        0x00019d66:    6868        hh      LDR      r0,[r5,#4]
        0x00019d68:    6829        )h      LDR      r1,[r5,#0]
        0x00019d6a:    4048        H@      EORS     r0,r0,r1
        0x00019d6c:    0700        ..      LSLS     r0,r0,#28
        0x00019d6e:    d41d        ..      BMI      0x19dac ; am_hal_pwrctrl_mcu_memory_config + 216
        0x00019d70:    7870        px      LDRB     r0,[r6,#1]
        0x00019d72:    68a9        .h      LDR      r1,[r5,#8]
        0x00019d74:    2800        .(      CMP      r0,#0
        0x00019d76:    f0210110    !...    BIC      r1,r1,#0x10
        0x00019d7a:    bf08        ..      IT       EQ
        0x00019d7c:    3110        .1      ADDEQ    r1,r1,#0x10
        0x00019d7e:    60a9        .`      STR      r1,[r5,#8]
        0x00019d80:    7970        py      LDRB     r0,[r6,#5]
        0x00019d82:    68a9        .h      LDR      r1,[r5,#8]
        0x00019d84:    2800        .(      CMP      r0,#0
        0x00019d86:    f0210108    !...    BIC      r1,r1,#8
        0x00019d8a:    bf08        ..      IT       EQ
        0x00019d8c:    3108        .1      ADDEQ    r1,r1,#8
        0x00019d8e:    60a9        .`      STR      r1,[r5,#8]
        0x00019d90:    78f1        .x      LDRB     r1,[r6,#3]
        0x00019d92:    2000        .       MOVS     r0,#0
        0x00019d94:    2907        .)      CMP      r1,#7
        0x00019d96:    d80a        ..      BHI      0x19dae ; am_hal_pwrctrl_mcu_memory_config + 218
        0x00019d98:    e8dff001    ....    TBB      [pc,r1]
    $d.5
        0x00019d9c:    0e090b04    ....    DCD    235473668
        0x00019da0:    13090909    ....    DCD    319359241
    $t.6
        0x00019da4:    68a8        .h      LDR      r0,[r5,#8]
        0x00019da6:    f0400007    @...    ORR      r0,r0,#7
        0x00019daa:    e00d        ..      B        0x19dc8 ; am_hal_pwrctrl_mcu_memory_config + 244
        0x00019dac:    2001        .       MOVS     r0,#1
        0x00019dae:    b002        ..      ADD      sp,sp,#8
        0x00019db0:    bd70        p.      POP      {r4-r6,pc}
        0x00019db2:    68a8        .h      LDR      r0,[r5,#8]
        0x00019db4:    2106        .!      MOVS     r1,#6
        0x00019db6:    e001        ..      B        0x19dbc ; am_hal_pwrctrl_mcu_memory_config + 232
        0x00019db8:    68a8        .h      LDR      r0,[r5,#8]
        0x00019dba:    2104        .!      MOVS     r1,#4
        0x00019dbc:    f3610002    a...    BFI      r0,r1,#0,#3
        0x00019dc0:    e002        ..      B        0x19dc8 ; am_hal_pwrctrl_mcu_memory_config + 244
        0x00019dc2:    68a8        .h      LDR      r0,[r5,#8]
        0x00019dc4:    f0200007     ...    BIC      r0,r0,#7
        0x00019dc8:    60a8        .`      STR      r0,[r5,#8]
        0x00019dca:    2000        .       MOVS     r0,#0
        0x00019dcc:    e7ef        ..      B        0x19dae ; am_hal_pwrctrl_mcu_memory_config + 218
    am_hal_pwrctrl_periph_disable
        0x00019dce:    e92d41f0    -..A    PUSH     {r4-r8,lr}
        0x00019dd2:    b082        ..      SUB      sp,sp,#8
        0x00019dd4:    2821        !(      CMP      r0,#0x21
        0x00019dd6:    d901        ..      BLS      0x19ddc ; am_hal_pwrctrl_periph_disable + 14
        0x00019dd8:    2506        .%      MOVS     r5,#6
        0x00019dda:    e07f        ..      B        0x19edc ; am_hal_pwrctrl_periph_disable + 270
        0x00019ddc:    f64c110c    L...    MOV      r1,#0xc90c
        0x00019de0:    f2c00101    ....    MOVT     r1,#1
        0x00019de4:    eb011200    ....    ADD      r2,r1,r0,LSL #4
        0x00019de8:    e9d26402    ...d    LDRD     r6,r4,[r2,#8]
        0x00019dec:    2814        .(      CMP      r0,#0x14
        0x00019dee:    d136        6.      BNE      0x19e5e ; am_hal_pwrctrl_periph_disable + 144
        0x00019df0:    f64077e0    @..w    MOVW     r7,#0xfe0
        0x00019df4:    f2c4070c    ....    MOVT     r7,#0x400c
        0x00019df8:    6838        8h      LDR      r0,[r7,#0]
        0x00019dfa:    28c0        .(      CMP      r0,#0xc0
        0x00019dfc:    d11f        ..      BNE      0x19e3e ; am_hal_pwrctrl_periph_disable + 112
        0x00019dfe:    f640287c    @.|(    MOV      r8,#0xa7c
        0x00019e02:    f2c4080c    ....    MOVT     r8,#0x400c
        0x00019e06:    2064        d       MOVS     r0,#0x64
        0x00019e08:    4641        AF      MOV      r1,r8
        0x00019e0a:    2201        ."      MOVS     r2,#1
        0x00019e0c:    2301        .#      MOVS     r3,#1
        0x00019e0e:    f7fffb37    ..7.    BL       am_hal_delay_us_status_change ; 0x19480
        0x00019e12:    4605        .F      MOV      r5,r0
        0x00019e14:    2800        .(      CMP      r0,#0
        0x00019e16:    d161        a.      BNE      0x19edc ; am_hal_pwrctrl_periph_disable + 270
        0x00019e18:    f5076173    ..sa    ADD      r1,r7,#0xf30
        0x00019e1c:    2064        d       MOVS     r0,#0x64
        0x00019e1e:    2201        ."      MOVS     r2,#1
        0x00019e20:    2301        .#      MOVS     r3,#1
        0x00019e22:    f7fffb2d    ..-.    BL       am_hal_delay_us_status_change ; 0x19480
        0x00019e26:    4605        .F      MOV      r5,r0
        0x00019e28:    2800        .(      CMP      r0,#0
        0x00019e2a:    d157        W.      BNE      0x19edc ; am_hal_pwrctrl_periph_disable + 270
        0x00019e2c:    f8d80004    ....    LDR      r0,[r8,#4]
        0x00019e30:    f0400001    @...    ORR      r0,r0,#1
        0x00019e34:    f8c80004    ....    STR      r0,[r8,#4]
        0x00019e38:    200f        .       MOVS     r0,#0xf
        0x00019e3a:    f7fffb05    ....    BL       am_hal_delay_us ; 0x19448
        0x00019e3e:    f2410004    A...    MOV      r0,#0x1004
        0x00019e42:    f2c40002    ....    MOVT     r0,#0x4002
        0x00019e46:    f44f1180    O...    MOV      r1,#0x100000
        0x00019e4a:    2200        ."      MOVS     r2,#0
        0x00019e4c:    2310        .#      MOVS     r3,#0x10
        0x00019e4e:    f001f945    ..E.    BL       am_hal_util_write_and_wait ; 0x1b0dc
        0x00019e52:    6830        0h      LDR      r0,[r6,#0]
        0x00019e54:    ea100504    ....    ANDS     r5,r0,r4
        0x00019e58:    bf18        ..      IT       NE
        0x00019e5a:    2501        .%      MOVNE    r5,#1
        0x00019e5c:    e03e        >.      B        0x19edc ; am_hal_pwrctrl_periph_disable + 270
        0x00019e5e:    0100        ..      LSLS     r0,r0,#4
        0x00019e60:    6855        Uh      LDR      r5,[r2,#4]
        0x00019e62:    580f        .X      LDR      r7,[r1,r0]
        0x00019e64:    f7fffc42    ..B.    BL       am_hal_interrupt_master_disable ; 0x196ec
        0x00019e68:    9001        ..      STR      r0,[sp,#4]
        0x00019e6a:    6838        8h      LDR      r0,[r7,#0]
        0x00019e6c:    43a8        .C      BICS     r0,r0,r5
        0x00019e6e:    6038        8`      STR      r0,[r7,#0]
        0x00019e70:    9801        ..      LDR      r0,[sp,#4]
        0x00019e72:    f7fffc43    ..C.    BL       am_hal_interrupt_master_set ; 0x196fc
        0x00019e76:    2500        .%      MOVS     r5,#0
        0x00019e78:    2005        .       MOVS     r0,#5
        0x00019e7a:    4631        1F      MOV      r1,r6
        0x00019e7c:    4622        "F      MOV      r2,r4
        0x00019e7e:    4623        #F      MOV      r3,r4
        0x00019e80:    9500        ..      STR      r5,[sp,#0]
        0x00019e82:    f7fffb27    ..'.    BL       am_hal_delay_us_status_check ; 0x194d4
        0x00019e86:    b348        H.      CBZ      r0,0x19edc ; am_hal_pwrctrl_periph_disable + 270
        0x00019e88:    f5b47ff0    ....    CMP      r4,#0x1e0
        0x00019e8c:    f04f0500    O...    MOV      r5,#0
        0x00019e90:    db0b        ..      BLT      0x19eaa ; am_hal_pwrctrl_periph_disable + 220
        0x00019e92:    d012        ..      BEQ      0x19eba ; am_hal_pwrctrl_periph_disable + 236
        0x00019e94:    f5b43fe0    ...?    CMP      r4,#0x1c000
        0x00019e98:    d015        ..      BEQ      0x19ec6 ; am_hal_pwrctrl_periph_disable + 248
        0x00019e9a:    f5b45ff0    ..._    CMP      r4,#0x1e00
        0x00019e9e:    d11d        ..      BNE      0x19edc ; am_hal_pwrctrl_periph_disable + 270
        0x00019ea0:    6838        8h      LDR      r0,[r7,#0]
        0x00019ea2:    f4105ff0    ..._    TST      r0,#0x1e00
        0x00019ea6:    d117        ..      BNE      0x19ed8 ; am_hal_pwrctrl_periph_disable + 266
        0x00019ea8:    e017        ..      B        0x19eda ; am_hal_pwrctrl_periph_disable + 268
        0x00019eaa:    2c1e        .,      CMP      r4,#0x1e
        0x00019eac:    d010        ..      BEQ      0x19ed0 ; am_hal_pwrctrl_periph_disable + 258
        0x00019eae:    2cff        .,      CMP      r4,#0xff
        0x00019eb0:    d114        ..      BNE      0x19edc ; am_hal_pwrctrl_periph_disable + 270
        0x00019eb2:    6838        8h      LDR      r0,[r7,#0]
        0x00019eb4:    0600        ..      LSLS     r0,r0,#24
        0x00019eb6:    d10f        ..      BNE      0x19ed8 ; am_hal_pwrctrl_periph_disable + 266
        0x00019eb8:    e00f        ..      B        0x19eda ; am_hal_pwrctrl_periph_disable + 268
        0x00019eba:    6838        8h      LDR      r0,[r7,#0]
        0x00019ebc:    f4107ff0    ....    TST      r0,#0x1e0
        0x00019ec0:    bf18        ..      IT       NE
        0x00019ec2:    6838        8h      LDRNE    r0,[r7,#0]
        0x00019ec4:    e009        ..      B        0x19eda ; am_hal_pwrctrl_periph_disable + 268
        0x00019ec6:    6838        8h      LDR      r0,[r7,#0]
        0x00019ec8:    f4103fe0    ...?    TST      r0,#0x1c000
        0x00019ecc:    d104        ..      BNE      0x19ed8 ; am_hal_pwrctrl_periph_disable + 266
        0x00019ece:    e004        ..      B        0x19eda ; am_hal_pwrctrl_periph_disable + 268
        0x00019ed0:    6838        8h      LDR      r0,[r7,#0]
        0x00019ed2:    f0100f1e    ....    TST      r0,#0x1e
        0x00019ed6:    d000        ..      BEQ      0x19eda ; am_hal_pwrctrl_periph_disable + 268
        0x00019ed8:    6838        8h      LDR      r0,[r7,#0]
        0x00019eda:    2500        .%      MOVS     r5,#0
        0x00019edc:    4628        (F      MOV      r0,r5
        0x00019ede:    b002        ..      ADD      sp,sp,#8
        0x00019ee0:    e8bd81f0    ....    POP      {r4-r8,pc}
    am_hal_pwrctrl_periph_enable
        0x00019ee4:    e92d41f0    -..A    PUSH     {r4-r8,lr}
        0x00019ee8:    b082        ..      SUB      sp,sp,#8
        0x00019eea:    2821        !(      CMP      r0,#0x21
        0x00019eec:    d901        ..      BLS      0x19ef2 ; am_hal_pwrctrl_periph_enable + 14
        0x00019eee:    2006        .       MOVS     r0,#6
        0x00019ef0:    e043        C.      B        0x19f7a ; am_hal_pwrctrl_periph_enable + 150
        0x00019ef2:    4604        .F      MOV      r4,r0
        0x00019ef4:    f64c100c    L...    MOV      r0,#0xc90c
        0x00019ef8:    f2c00001    ....    MOVT     r0,#1
        0x00019efc:    eb001104    ....    ADD      r1,r0,r4,LSL #4
        0x00019f00:    e9d18602    ....    LDRD     r8,r6,[r1,#8]
        0x00019f04:    2c14        .,      CMP      r4,#0x14
        0x00019f06:    d10b        ..      BNE      0x19f20 ; am_hal_pwrctrl_periph_enable + 60
        0x00019f08:    f2410004    A...    MOV      r0,#0x1004
        0x00019f0c:    f2c40002    ....    MOVT     r0,#0x4002
        0x00019f10:    f44f1180    O...    MOV      r1,#0x100000
        0x00019f14:    f44f1280    O...    MOV      r2,#0x100000
        0x00019f18:    2310        .#      MOVS     r3,#0x10
        0x00019f1a:    f001f8df    ....    BL       am_hal_util_write_and_wait ; 0x1b0dc
        0x00019f1e:    e016        ..      B        0x19f4e ; am_hal_pwrctrl_periph_enable + 106
        0x00019f20:    eb001104    ....    ADD      r1,r0,r4,LSL #4
        0x00019f24:    0122        ".      LSLS     r2,r4,#4
        0x00019f26:    684f        Oh      LDR      r7,[r1,#4]
        0x00019f28:    5885        .X      LDR      r5,[r0,r2]
        0x00019f2a:    f7fffbdf    ....    BL       am_hal_interrupt_master_disable ; 0x196ec
        0x00019f2e:    9001        ..      STR      r0,[sp,#4]
        0x00019f30:    6828        (h      LDR      r0,[r5,#0]
        0x00019f32:    4338        8C      ORRS     r0,r0,r7
        0x00019f34:    6028        (`      STR      r0,[r5,#0]
        0x00019f36:    9801        ..      LDR      r0,[sp,#4]
        0x00019f38:    f7fffbe0    ....    BL       am_hal_interrupt_master_set ; 0x196fc
        0x00019f3c:    2701        .'      MOVS     r7,#1
        0x00019f3e:    2005        .       MOVS     r0,#5
        0x00019f40:    4641        AF      MOV      r1,r8
        0x00019f42:    4632        2F      MOV      r2,r6
        0x00019f44:    4633        3F      MOV      r3,r6
        0x00019f46:    9700        ..      STR      r7,[sp,#0]
        0x00019f48:    f7fffac4    ....    BL       am_hal_delay_us_status_check ; 0x194d4
        0x00019f4c:    b9a8        ..      CBNZ     r0,0x19f7a ; am_hal_pwrctrl_periph_enable + 150
        0x00019f4e:    f8d80000    ....    LDR      r0,[r8,#0]
        0x00019f52:    4030        0@      ANDS     r0,r0,r6
        0x00019f54:    fab0f080    ....    CLZ      r0,r0
        0x00019f58:    ea4f1050    O.P.    LSR      r0,r0,#5
        0x00019f5c:    d00d        ..      BEQ      0x19f7a ; am_hal_pwrctrl_periph_enable + 150
        0x00019f5e:    2c14        .,      CMP      r4,#0x14
        0x00019f60:    d10b        ..      BNE      0x19f7a ; am_hal_pwrctrl_periph_enable + 150
        0x00019f62:    f6417110    A..q    MOV      r1,#0x1f10
        0x00019f66:    f2c4010c    ....    MOVT     r1,#0x400c
        0x00019f6a:    2064        d       MOVS     r0,#0x64
        0x00019f6c:    2201        ."      MOVS     r2,#1
        0x00019f6e:    2301        .#      MOVS     r3,#1
        0x00019f70:    b002        ..      ADD      sp,sp,#8
        0x00019f72:    e8bd41f0    ...A    POP      {r4-r8,lr}
        0x00019f76:    f7ffba83    ....    B        am_hal_delay_us_status_change ; 0x19480
        0x00019f7a:    b002        ..      ADD      sp,sp,#8
        0x00019f7c:    e8bd81f0    ....    POP      {r4-r8,pc}
    am_hal_pwrctrl_sram_config
        0x00019f80:    b570        p.      PUSH     {r4-r6,lr}
        0x00019f82:    b082        ..      SUB      sp,sp,#8
        0x00019f84:    f2410624    A.$.    MOV      r6,#0x1024
        0x00019f88:    f2c40602    ....    MOVT     r6,#0x4002
        0x00019f8c:    4604        .F      MOV      r4,r0
        0x00019f8e:    7800        .x      LDRB     r0,[r0,#0]
        0x00019f90:    6831        1h      LDR      r1,[r6,#0]
        0x00019f92:    2501        .%      MOVS     r5,#1
        0x00019f94:    f3600101    `...    BFI      r1,r0,#0,#2
        0x00019f98:    6031        1`      STR      r1,[r6,#0]
        0x00019f9a:    4631        1F      MOV      r1,r6
        0x00019f9c:    f8513b04    Q..;    LDR      r3,[r1],#4
        0x00019fa0:    2005        .       MOVS     r0,#5
        0x00019fa2:    2203        ."      MOVS     r2,#3
        0x00019fa4:    9500        ..      STR      r5,[sp,#0]
        0x00019fa6:    f7fffa95    ....    BL       am_hal_delay_us_status_check ; 0x194d4
        0x00019faa:    2800        .(      CMP      r0,#0
        0x00019fac:    d13a        :.      BNE      0x1a024 ; am_hal_pwrctrl_sram_config + 164
        0x00019fae:    6870        ph      LDR      r0,[r6,#4]
        0x00019fb0:    6831        1h      LDR      r1,[r6,#0]
        0x00019fb2:    4048        H@      EORS     r0,r0,r1
        0x00019fb4:    0780        ..      LSLS     r0,r0,#30
        0x00019fb6:    d001        ..      BEQ      0x19fbc ; am_hal_pwrctrl_sram_config + 60
        0x00019fb8:    2001        .       MOVS     r0,#1
        0x00019fba:    e033        3.      B        0x1a024 ; am_hal_pwrctrl_sram_config + 164
        0x00019fbc:    7860        `x      LDRB     r0,[r4,#1]
        0x00019fbe:    68b1        .h      LDR      r1,[r6,#8]
        0x00019fc0:    f3600183    `...    BFI      r1,r0,#2,#2
        0x00019fc4:    60b1        .`      STR      r1,[r6,#8]
        0x00019fc6:    78a0        .x      LDRB     r0,[r4,#2]
        0x00019fc8:    68b1        .h      LDR      r1,[r6,#8]
        0x00019fca:    f0000003    ....    AND      r0,r0,#3
        0x00019fce:    f02101c0    !...    BIC      r1,r1,#0xc0
        0x00019fd2:    ea411080    A...    ORR      r0,r1,r0,LSL #6
        0x00019fd6:    60b0        .`      STR      r0,[r6,#8]
        0x00019fd8:    78e0        .x      LDRB     r0,[r4,#3]
        0x00019fda:    68b1        .h      LDR      r1,[r6,#8]
        0x00019fdc:    f0000003    ....    AND      r0,r0,#3
        0x00019fe0:    f4217140    !.@q    BIC      r1,r1,#0x300
        0x00019fe4:    ea412000    A..     ORR      r0,r1,r0,LSL #8
        0x00019fe8:    60b0        .`      STR      r0,[r6,#8]
        0x00019fea:    7920         y      LDRB     r0,[r4,#4]
        0x00019fec:    68b1        .h      LDR      r1,[r6,#8]
        0x00019fee:    f3601105    `...    BFI      r1,r0,#4,#2
        0x00019ff2:    60b1        .`      STR      r1,[r6,#8]
        0x00019ff4:    7960        `y      LDRB     r0,[r4,#5]
        0x00019ff6:    2803        .(      CMP      r0,#3
        0x00019ff8:    d813        ..      BHI      0x1a022 ; am_hal_pwrctrl_sram_config + 162
        0x00019ffa:    e8dff000    ....    TBB      [pc,r0]
    $d.9
        0x00019ffe:    0602        ..      DCW    1538
        0x0001a000:    0e09        ..      DCW    3593
    $t.10
        0x0001a002:    68b0        .h      LDR      r0,[r6,#8]
        0x0001a004:    f0400003    @...    ORR      r0,r0,#3
        0x0001a008:    e00a        ..      B        0x1a020 ; am_hal_pwrctrl_sram_config + 160
        0x0001a00a:    68b0        .h      LDR      r0,[r6,#8]
        0x0001a00c:    2102        .!      MOVS     r1,#2
        0x0001a00e:    e001        ..      B        0x1a014 ; am_hal_pwrctrl_sram_config + 148
        0x0001a010:    68b0        .h      LDR      r0,[r6,#8]
        0x0001a012:    2101        .!      MOVS     r1,#1
        0x0001a014:    f3610001    a...    BFI      r0,r1,#0,#2
        0x0001a018:    e002        ..      B        0x1a020 ; am_hal_pwrctrl_sram_config + 160
        0x0001a01a:    68b0        .h      LDR      r0,[r6,#8]
        0x0001a01c:    f0200003     ...    BIC      r0,r0,#3
        0x0001a020:    60b0        .`      STR      r0,[r6,#8]
        0x0001a022:    2000        .       MOVS     r0,#0
        0x0001a024:    b002        ..      ADD      sp,sp,#8
        0x0001a026:    bd70        p.      POP      {r4-r6,pc}
    am_hal_rtc_osc_disable
        0x0001a028:    f6440100    D...    MOVW     r1,#0x4800
        0x0001a02c:    f2c40100    ....    MOVT     r1,#0x4000
        0x0001a030:    6808        .h      LDR      r0,[r1,#0]
        0x0001a032:    f0400210    @...    ORR      r2,r0,#0x10
        0x0001a036:    2000        .       MOVS     r0,#0
        0x0001a038:    600a        .`      STR      r2,[r1,#0]
        0x0001a03a:    4770        pG      BX       lr
    am_hal_sdhc_card_busy
        0x0001a03c:    b510        ..      PUSH     {r4,lr}
        0x0001a03e:    b082        ..      SUB      sp,sp,#8
        0x0001a040:    b160        `.      CBZ      r0,0x1a05c ; am_hal_sdhc_card_busy + 32
        0x0001a042:    6802        .h      LDR      r2,[r0,#0]
        0x0001a044:    f24133b0    A..3    MOV      r3,#0x13b0
        0x0001a048:    f0224c7e    ".~L    BIC      r12,r2,#0xfe000000
        0x0001a04c:    f2c01383    ....    MOVT     r3,#0x183
        0x0001a050:    459c        .E      CMP      r12,r3
        0x0001a052:    d103        ..      BNE      0x1a05c ; am_hal_sdhc_card_busy + 32
        0x0001a054:    0192        ..      LSLS     r2,r2,#6
        0x0001a056:    d404        ..      BMI      0x1a062 ; am_hal_sdhc_card_busy + 38
        0x0001a058:    2007        .       MOVS     r0,#7
        0x0001a05a:    e000        ..      B        0x1a05e ; am_hal_sdhc_card_busy + 34
        0x0001a05c:    2002        .       MOVS     r0,#2
        0x0001a05e:    b002        ..      ADD      sp,sp,#8
        0x0001a060:    bd10        ..      POP      {r4,pc}
        0x0001a062:    6844        Dh      LDR      r4,[r0,#4]
        0x0001a064:    f44f707a    O.zp    MOV      r0,#0x3e8
        0x0001a068:    4348        HC      MULS     r0,r1,r0
        0x0001a06a:    2124        $!      MOVS     r1,#0x24
        0x0001a06c:    f2c40107    ....    MOVT     r1,#0x4007
        0x0001a070:    4421        !D      ADD      r1,r1,r4
        0x0001a072:    f04f0c01    O...    MOV      r12,#1
        0x0001a076:    f44f1280    O...    MOV      r2,#0x100000
        0x0001a07a:    f44f1380    O...    MOV      r3,#0x100000
        0x0001a07e:    f8cdc000    ....    STR      r12,[sp,#0]
        0x0001a082:    f7fffa27    ..'.    BL       am_hal_delay_us_status_check ; 0x194d4
        0x0001a086:    212c        ,!      MOVS     r1,#0x2c
        0x0001a088:    f2c40107    ....    MOVT     r1,#0x4007
        0x0001a08c:    5862        bX      LDR      r2,[r4,r1]
        0x0001a08e:    f0220204    "...    BIC      r2,r2,#4
        0x0001a092:    5062        bP      STR      r2,[r4,r1]
        0x0001a094:    e7e3        ..      B        0x1a05e ; am_hal_sdhc_card_busy + 34
    am_hal_sdhc_deinitialize
        0x0001a096:    b178        x.      CBZ      r0,0x1a0b8 ; am_hal_sdhc_deinitialize + 34
        0x0001a098:    4601        .F      MOV      r1,r0
        0x0001a09a:    6800        .h      LDR      r0,[r0,#0]
        0x0001a09c:    f24133b0    A..3    MOV      r3,#0x13b0
        0x0001a0a0:    f020427e     .~B    BIC      r2,r0,#0xfe000000
        0x0001a0a4:    f2c01383    ....    MOVT     r3,#0x183
        0x0001a0a8:    429a        .B      CMP      r2,r3
        0x0001a0aa:    d105        ..      BNE      0x1a0b8 ; am_hal_sdhc_deinitialize + 34
        0x0001a0ac:    f0207280     ..r    BIC      r2,r0,#0x1000000
        0x0001a0b0:    2000        .       MOVS     r0,#0
        0x0001a0b2:    e9c12000    ...     STRD     r2,r0,[r1,#0]
        0x0001a0b6:    4770        pG      BX       lr
        0x0001a0b8:    2002        .       MOVS     r0,#2
        0x0001a0ba:    4770        pG      BX       lr
    am_hal_sdhc_disable
        0x0001a0bc:    b510        ..      PUSH     {r4,lr}
        0x0001a0be:    b3a0        ..      CBZ      r0,0x1a12a ; am_hal_sdhc_disable + 110
        0x0001a0c0:    6801        .h      LDR      r1,[r0,#0]
        0x0001a0c2:    f24133b0    A..3    MOV      r3,#0x13b0
        0x0001a0c6:    f021427e    !.~B    BIC      r2,r1,#0xfe000000
        0x0001a0ca:    f2c01383    ....    MOVT     r3,#0x183
        0x0001a0ce:    429a        .B      CMP      r2,r3
        0x0001a0d0:    d12b        +.      BNE      0x1a12a ; am_hal_sdhc_disable + 110
        0x0001a0d2:    018a        ..      LSLS     r2,r1,#6
        0x0001a0d4:    f04f0400    O...    MOV      r4,#0
        0x0001a0d8:    d528        (.      BPL      0x1a12c ; am_hal_sdhc_disable + 112
        0x0001a0da:    f0217100    !..q    BIC      r1,r1,#0x2000000
        0x0001a0de:    6001        .`      STR      r1,[r0,#0]
        0x0001a0e0:    f24e1180    N...    MOV      r1,#0xe180
        0x0001a0e4:    f2ce0100    ....    MOVT     r1,#0xe000
        0x0001a0e8:    f04f6280    O..b    MOV      r2,#0x4000000
        0x0001a0ec:    600a        .`      STR      r2,[r1,#0]
        0x0001a0ee:    f3bf8f4f    ..O.    DSB      
        0x0001a0f2:    f3bf8f6f    ..o.    ISB      
        0x0001a0f6:    6841        Ah      LDR      r1,[r0,#4]
        0x0001a0f8:    2200        ."      MOVS     r2,#0
        0x0001a0fa:    f2c40207    ....    MOVT     r2,#0x4007
        0x0001a0fe:    4411        .D      ADD      r1,r1,r2
        0x0001a100:    638c        .c      STR      r4,[r1,#0x38]
        0x0001a102:    6841        Ah      LDR      r1,[r0,#4]
        0x0001a104:    4411        .D      ADD      r1,r1,r2
        0x0001a106:    634c        Lc      STR      r4,[r1,#0x34]
        0x0001a108:    6840        @h      LDR      r0,[r0,#4]
        0x0001a10a:    f04f31ff    O..1    MOV      r1,#0xffffffff
        0x0001a10e:    4410        .D      ADD      r0,r0,r2
        0x0001a110:    6301        .c      STR      r1,[r0,#0x30]
        0x0001a112:    f2404050    @.P@    MOVW     r0,#0x450
        0x0001a116:    f2c40002    ....    MOVT     r0,#0x4002
        0x0001a11a:    6801        .h      LDR      r1,[r0,#0]
        0x0001a11c:    f0210103    !...    BIC      r1,r1,#3
        0x0001a120:    6001        .`      STR      r1,[r0,#0]
        0x0001a122:    200a        .       MOVS     r0,#0xa
        0x0001a124:    f001f89a    ....    BL       am_util_delay_ms ; 0x1b25c
        0x0001a128:    e000        ..      B        0x1a12c ; am_hal_sdhc_disable + 112
        0x0001a12a:    2402        .$      MOVS     r4,#2
        0x0001a12c:    4620         F      MOV      r0,r4
        0x0001a12e:    bd10        ..      POP      {r4,pc}
    am_hal_sdhc_enable
        0x0001a130:    b570        p.      PUSH     {r4-r6,lr}
        0x0001a132:    b318        ..      CBZ      r0,0x1a17c ; am_hal_sdhc_enable + 76
        0x0001a134:    4604        .F      MOV      r4,r0
        0x0001a136:    6800        .h      LDR      r0,[r0,#0]
        0x0001a138:    f24132b0    A..2    MOV      r2,#0x13b0
        0x0001a13c:    f020417e     .~A    BIC      r1,r0,#0xfe000000
        0x0001a140:    f2c01283    ....    MOVT     r2,#0x183
        0x0001a144:    4291        .B      CMP      r1,r2
        0x0001a146:    d119        ..      BNE      0x1a17c ; am_hal_sdhc_enable + 76
        0x0001a148:    0180        ..      LSLS     r0,r0,#6
        0x0001a14a:    bf44        D.      ITT      MI
        0x0001a14c:    2007        .       MOVMI    r0,#7
        0x0001a14e:    bd70        p.      POPMI    {r4-r6,pc}
        0x0001a150:    f2404150    @.PA    MOVW     r1,#0x450
        0x0001a154:    f2c40102    ....    MOVT     r1,#0x4002
        0x0001a158:    2600        .&      MOVS     r6,#0
        0x0001a15a:    6860        `h      LDR      r0,[r4,#4]
        0x0001a15c:    680a        .h      LDR      r2,[r1,#0]
        0x0001a15e:    f2c40607    ....    MOVT     r6,#0x4007
        0x0001a162:    1985        ..      ADDS     r5,r0,r6
        0x0001a164:    f0420003    B...    ORR      r0,r2,#3
        0x0001a168:    6008        .`      STR      r0,[r1,#0]
        0x0001a16a:    200a        .       MOVS     r0,#0xa
        0x0001a16c:    f001f876    ..v.    BL       am_util_delay_ms ; 0x1b25c
        0x0001a170:    4628        (F      MOV      r0,r5
        0x0001a172:    2102        .!      MOVS     r1,#2
        0x0001a174:    f000fd5a    ..Z.    BL       am_hal_sdhc_software_reset ; 0x1ac2c
        0x0001a178:    b110        ..      CBZ      r0,0x1a180 ; am_hal_sdhc_enable + 80
        0x0001a17a:    bd70        p.      POP      {r4-r6,pc}
        0x0001a17c:    2002        .       MOVS     r0,#2
        0x0001a17e:    bd70        p.      POP      {r4-r6,pc}
        0x0001a180:    f2402094    @..     MOVW     r0,#0x294
        0x0001a184:    f2c40001    ....    MOVT     r0,#0x4001
        0x0001a188:    6801        .h      LDR      r1,[r0,#0]
        0x0001a18a:    224b        K"      MOVS     r2,#0x4b
        0x0001a18c:    f3620106    b...    BFI      r1,r2,#0,#7
        0x0001a190:    6001        .`      STR      r1,[r0,#0]
        0x0001a192:    6801        .h      LDR      r1,[r0,#0]
        0x0001a194:    224a        J"      MOVS     r2,#0x4a
        0x0001a196:    f362210e    b..!    BFI      r1,r2,#8,#7
        0x0001a19a:    6001        .`      STR      r1,[r0,#0]
        0x0001a19c:    6860        `h      LDR      r0,[r4,#4]
        0x0001a19e:    f04f31ff    O..1    MOV      r1,#0xffffffff
        0x0001a1a2:    4430        0D      ADD      r0,r0,r6
        0x0001a1a4:    6341        Ac      STR      r1,[r0,#0x34]
        0x0001a1a6:    6860        `h      LDR      r0,[r4,#4]
        0x0001a1a8:    2280        ."      MOVS     r2,#0x80
        0x0001a1aa:    1981        ..      ADDS     r1,r0,r6
        0x0001a1ac:    2000        .       MOVS     r0,#0
        0x0001a1ae:    6388        .c      STR      r0,[r1,#0x38]
        0x0001a1b0:    f24e411a    N..A    MOV      r1,#0xe41a
        0x0001a1b4:    f2ce0100    ....    MOVT     r1,#0xe000
        0x0001a1b8:    700a        .p      STRB     r2,[r1,#0]
        0x0001a1ba:    f24e1100    N...    MOVW     r1,#0xe100
        0x0001a1be:    f2ce0100    ....    MOVT     r1,#0xe000
        0x0001a1c2:    f04f6280    O..b    MOV      r2,#0x4000000
        0x0001a1c6:    600a        .`      STR      r2,[r1,#0]
        0x0001a1c8:    6821        !h      LDR      r1,[r4,#0]
        0x0001a1ca:    82a0        ..      STRH     r0,[r4,#0x14]
        0x0001a1cc:    f0417100    A..q    ORR      r1,r1,#0x2000000
        0x0001a1d0:    61a0        .a      STR      r0,[r4,#0x18]
        0x0001a1d2:    61e0        .a      STR      r0,[r4,#0x1c]
        0x0001a1d4:    6021        !`      STR      r1,[r4,#0]
        0x0001a1d6:    bd70        p.      POP      {r4-r6,pc}
    am_hal_sdhc_execute_cmd
        0x0001a1d8:    e92d4ff0    -..O    PUSH     {r4-r11,lr}
        0x0001a1dc:    b083        ..      SUB      sp,sp,#0xc
        0x0001a1de:    b178        x.      CBZ      r0,0x1a200 ; am_hal_sdhc_execute_cmd + 40
        0x0001a1e0:    4604        .F      MOV      r4,r0
        0x0001a1e2:    6800        .h      LDR      r0,[r0,#0]
        0x0001a1e4:    4615        .F      MOV      r5,r2
        0x0001a1e6:    f24132b0    A..2    MOV      r2,#0x13b0
        0x0001a1ea:    460e        .F      MOV      r6,r1
        0x0001a1ec:    f020417e     .~A    BIC      r1,r0,#0xfe000000
        0x0001a1f0:    f2c01283    ....    MOVT     r2,#0x183
        0x0001a1f4:    4291        .B      CMP      r1,r2
        0x0001a1f6:    d103        ..      BNE      0x1a200 ; am_hal_sdhc_execute_cmd + 40
        0x0001a1f8:    0180        ..      LSLS     r0,r0,#6
        0x0001a1fa:    d405        ..      BMI      0x1a208 ; am_hal_sdhc_execute_cmd + 48
        0x0001a1fc:    2007        .       MOVS     r0,#7
        0x0001a1fe:    e000        ..      B        0x1a202 ; am_hal_sdhc_execute_cmd + 42
        0x0001a200:    2002        .       MOVS     r0,#2
        0x0001a202:    b003        ..      ADD      sp,sp,#0xc
        0x0001a204:    e8bd8ff0    ....    POP      {r4-r11,pc}
        0x0001a208:    f8940039    ..9.    LDRB     r0,[r4,#0x39]
        0x0001a20c:    b370        p.      CBZ      r0,0x1a26c ; am_hal_sdhc_execute_cmd + 148
        0x0001a20e:    2200        ."      MOVS     r2,#0
        0x0001a210:    7d20         }      LDRB     r0,[r4,#0x14]
        0x0001a212:    6861        ah      LDR      r1,[r4,#4]
        0x0001a214:    f2c40207    ....    MOVT     r2,#0x4007
        0x0001a218:    eb010802    ....    ADD      r8,r1,r2
        0x0001a21c:    b128        (.      CBZ      r0,0x1a22a ; am_hal_sdhc_execute_cmd + 82
        0x0001a21e:    4640        @F      MOV      r0,r8
        0x0001a220:    2101        .!      MOVS     r1,#1
        0x0001a222:    f000fd03    ....    BL       am_hal_sdhc_software_reset ; 0x1ac2c
        0x0001a226:    2000        .       MOVS     r0,#0
        0x0001a228:    7520         u      STRB     r0,[r4,#0x14]
        0x0001a22a:    7d60        `}      LDRB     r0,[r4,#0x15]
        0x0001a22c:    b128        (.      CBZ      r0,0x1a23a ; am_hal_sdhc_execute_cmd + 98
        0x0001a22e:    4640        @F      MOV      r0,r8
        0x0001a230:    2100        .!      MOVS     r1,#0
        0x0001a232:    2700        .'      MOVS     r7,#0
        0x0001a234:    f000fcfa    ....    BL       am_hal_sdhc_software_reset ; 0x1ac2c
        0x0001a238:    7567        gu      STRB     r7,[r4,#0x15]
        0x0001a23a:    f8d80034    ..4.    LDR      r0,[r8,#0x34]
        0x0001a23e:    46c1        .F      MOV      r9,r8
        0x0001a240:    f4207080     ..p    BIC      r0,r0,#0x100
        0x0001a244:    f8c80034    ..4.    STR      r0,[r8,#0x34]
        0x0001a248:    f04f30ff    O..0    MOV      r0,#0xffffffff
        0x0001a24c:    f8490f30    I.0.    STR      r0,[r9,#0x30]!
        0x0001a250:    2000        .       MOVS     r0,#0
        0x0001a252:    f8c90008    ....    STR      r0,[r9,#8]
        0x0001a256:    f8590c04    Y...    LDR      r0,[r9,#-4]
        0x0001a25a:    f0400004    @...    ORR      r0,r0,#4
        0x0001a25e:    f8490c04    I...    STR      r0,[r9,#-4]
        0x0001a262:    b10d        ..      CBZ      r5,0x1a268 ; am_hal_sdhc_execute_cmd + 144
        0x0001a264:    78a8        .x      LDRB     r0,[r5,#2]
        0x0001a266:    b118        ..      CBZ      r0,0x1a270 ; am_hal_sdhc_execute_cmd + 152
        0x0001a268:    2201        ."      MOVS     r2,#1
        0x0001a26a:    e002        ..      B        0x1a272 ; am_hal_sdhc_execute_cmd + 154
        0x0001a26c:    2003        .       MOVS     r0,#3
        0x0001a26e:    e7c8        ..      B        0x1a202 ; am_hal_sdhc_execute_cmd + 42
        0x0001a270:    2203        ."      MOVS     r2,#3
        0x0001a272:    f1080124    ..$.    ADD      r1,r8,#0x24
        0x0001a276:    2700        .'      MOVS     r7,#0
        0x0001a278:    2064        d       MOVS     r0,#0x64
        0x0001a27a:    4613        .F      MOV      r3,r2
        0x0001a27c:    9700        ..      STR      r7,[sp,#0]
        0x0001a27e:    f7fff929    ..).    BL       am_hal_delay_us_status_check ; 0x194d4
        0x0001a282:    2804        .(      CMP      r0,#4
        0x0001a284:    d103        ..      BNE      0x1a28e ; am_hal_sdhc_execute_cmd + 182
        0x0001a286:    2001        .       MOVS     r0,#1
        0x0001a288:    f8860020    .. .    STRB     r0,[r6,#0x20]
        0x0001a28c:    e18c        ..      B        0x1a5a8 ; am_hal_sdhc_execute_cmd + 976
        0x0001a28e:    68b0        .h      LDR      r0,[r6,#8]
        0x0001a290:    07c1        ..      LSLS     r1,r0,#31
        0x0001a292:    d101        ..      BNE      0x1a298 ; am_hal_sdhc_execute_cmd + 192
        0x0001a294:    2100        .!      MOVS     r1,#0
        0x0001a296:    e00a        ..      B        0x1a2ae ; am_hal_sdhc_execute_cmd + 214
        0x0001a298:    0781        ..      LSLS     r1,r0,#30
        0x0001a29a:    d406        ..      BMI      0x1a2aa ; am_hal_sdhc_execute_cmd + 210
        0x0001a29c:    0701        ..      LSLS     r1,r0,#28
        0x0001a29e:    f44f3140    O.@1    MOV      r1,#0x30000
        0x0001a2a2:    bf58        X.      IT       PL
        0x0001a2a4:    f44f3100    O..1    MOVPL    r1,#0x20000
        0x0001a2a8:    e001        ..      B        0x1a2ae ; am_hal_sdhc_execute_cmd + 214
        0x0001a2aa:    f44f3180    O..1    MOV      r1,#0x10000
        0x0001a2ae:    f44f1380    O...    MOV      r3,#0x100000
        0x0001a2b2:    f0000204    ....    AND      r2,r0,#4
        0x0001a2b6:    ea034000    ...@    AND      r0,r3,r0,LSL #16
        0x0001a2ba:    2d00        .-      CMP      r5,#0
        0x0001a2bc:    bf18        ..      IT       NE
        0x0001a2be:    f5011100    ....    ADDNE    r1,r1,#0x200000
        0x0001a2c2:    7833        3x      LDRB     r3,[r6,#0]
        0x0001a2c4:    ea404042    @.B@    ORR      r0,r0,r2,LSL #17
        0x0001a2c8:    4408        .D      ADD      r0,r0,r1
        0x0001a2ca:    ea406c03    @..l    ORR      r12,r0,r3,LSL #24
        0x0001a2ce:    b35d        ].      CBZ      r5,0x1a328 ; am_hal_sdhc_execute_cmd + 336
        0x0001a2d0:    68ea        .h      LDR      r2,[r5,#0xc]
        0x0001a2d2:    e9d50301    ....    LDRD     r0,r3,[r5,#4]
        0x0001a2d6:    782f        /x      LDRB     r7,[r5,#0]
        0x0001a2d8:    6220         b      STR      r0,[r4,#0x20]
        0x0001a2da:    fb03f002    ....    MUL      r0,r3,r2
        0x0001a2de:    6260        `b      STR      r0,[r4,#0x24]
        0x0001a2e0:    7868        hx      LDRB     r0,[r5,#1]
        0x0001a2e2:    fab7f187    ....    CLZ      r1,r7
        0x0001a2e6:    0949        I.      LSRS     r1,r1,#5
        0x0001a2e8:    f8847038    ..8p    STRB     r7,[r4,#0x38]
        0x0001a2ec:    6323        #c      STR      r3,[r4,#0x30]
        0x0001a2ee:    62a2        .b      STR      r2,[r4,#0x28]
        0x0001a2f0:    62e2        .b      STR      r2,[r4,#0x2c]
        0x0001a2f2:    b910        ..      CBNZ     r0,0x1a2fa ; am_hal_sdhc_execute_cmd + 290
        0x0001a2f4:    6920         i      LDR      r0,[r4,#0x10]
        0x0001a2f6:    7a80        .z      LDRB     r0,[r0,#0xa]
        0x0001a2f8:    7068        hp      STRB     r0,[r5,#1]
        0x0001a2fa:    2803        .(      CMP      r0,#3
        0x0001a2fc:    ea4f1a01    O...    LSL      r10,r1,#4
        0x0001a300:    d015        ..      BEQ      0x1a32e ; am_hal_sdhc_execute_cmd + 342
        0x0001a302:    2802        .(      CMP      r0,#2
        0x0001a304:    d14b        K.      BNE      0x1a39e ; am_hal_sdhc_execute_cmd + 454
        0x0001a306:    f8d80028    ..(.    LDR      r0,[r8,#0x28]
        0x0001a30a:    f04a0a01    J...    ORR      r10,r10,#1
        0x0001a30e:    f0200018     ...    BIC      r0,r0,#0x18
        0x0001a312:    f8c80028    ..(.    STR      r0,[r8,#0x28]
        0x0001a316:    6868        hh      LDR      r0,[r5,#4]
        0x0001a318:    f8c80000    ....    STR      r0,[r8,#0]
        0x0001a31c:    68a0        .h      LDR      r0,[r4,#8]
        0x0001a31e:    68a9        .h      LDR      r1,[r5,#8]
        0x0001a320:    fbb0f0f1    ....    UDIV     r0,r0,r1
        0x0001a324:    6360        `c      STR      r0,[r4,#0x34]
        0x0001a326:    e03a        :.      B        0x1a39e ; am_hal_sdhc_execute_cmd + 454
        0x0001a328:    f04f0a00    O...    MOV      r10,#0
        0x0001a32c:    e059        Y.      B        0x1a3e2 ; am_hal_sdhc_execute_cmd + 522
        0x0001a32e:    f8cdc004    ....    STR      r12,[sp,#4]
        0x0001a332:    f8d80028    ..(.    LDR      r0,[r8,#0x28]
        0x0001a336:    2102        .!      MOVS     r1,#2
        0x0001a338:    f36100c4    a...    BFI      r0,r1,#3,#2
        0x0001a33c:    f8c80028    ..(.    STR      r0,[r8,#0x28]
        0x0001a340:    68eb        .h      LDR      r3,[r5,#0xc]
        0x0001a342:    f04a0a01    J...    ORR      r10,r10,#1
        0x0001a346:    2b01        .+      CMP      r3,#1
        0x0001a348:    db21        !.      BLT      0x1a38e ; am_hal_sdhc_execute_cmd + 438
        0x0001a34a:    f24101a0    A...    MOVW     r1,#0x10a0
        0x0001a34e:    e9d52001    ...     LDRD     r2,r0,[r5,#4]
        0x0001a352:    f2c10100    ....    MOVT     r1,#0x1000
        0x0001a356:    3102        .1      ADDS     r1,#2
        0x0001a358:    f04f0b00    O...    MOV      r11,#0
        0x0001a35c:    461f        .F      MOV      r7,r3
        0x0001a35e:    f04f0c23    O.#.    MOV      r12,#0x23
        0x0001a362:    2b7f        .+      CMP      r3,#0x7f
        0x0001a364:    bfc8        ..      IT       GT
        0x0001a366:    277f        .'      MOVGT    r7,#0x7f
        0x0001a368:    bfc8        ..      IT       GT
        0x0001a36a:    f04f0c21    O.!.    MOVGT    r12,#0x21
        0x0001a36e:    fb00fe07    ....    MUL      lr,r0,r7
        0x0001a372:    f8c12002    ...     STR      r2,[r1,#2]
        0x0001a376:    fb002207    ..."    MLA      r2,r0,r7,r2
        0x0001a37a:    f801cc02    ....    STRB     r12,[r1,#-2]
        0x0001a37e:    f8a1e000    ....    STRH     lr,[r1,#0]
        0x0001a382:    f801bc01    ....    STRB     r11,[r1,#-1]
        0x0001a386:    3b7f        .;      SUBS     r3,r3,#0x7f
        0x0001a388:    f1010108    ....    ADD      r1,r1,#8
        0x0001a38c:    dce6        ..      BGT      0x1a35c ; am_hal_sdhc_execute_cmd + 388
        0x0001a38e:    f24100a0    A...    MOVW     r0,#0x10a0
        0x0001a392:    f2c10000    ....    MOVT     r0,#0x1000
        0x0001a396:    f8c80058    ..X.    STR      r0,[r8,#0x58]
        0x0001a39a:    f8ddc004    ....    LDR      r12,[sp,#4]
        0x0001a39e:    7bb0        .{      LDRB     r0,[r6,#0xe]
        0x0001a3a0:    b110        ..      CBZ      r0,0x1a3a8 ; am_hal_sdhc_execute_cmd + 464
        0x0001a3a2:    f04a0a04    J...    ORR      r10,r10,#4
        0x0001a3a6:    e006        ..      B        0x1a3b6 ; am_hal_sdhc_execute_cmd + 478
        0x0001a3a8:    7bf0        .{      LDRB     r0,[r6,#0xf]
        0x0001a3aa:    b120         .      CBZ      r0,0x1a3b6 ; am_hal_sdhc_execute_cmd + 478
        0x0001a3ac:    68e8        .h      LDR      r0,[r5,#0xc]
        0x0001a3ae:    f04a0a08    J...    ORR      r10,r10,#8
        0x0001a3b2:    f8c80000    ....    STR      r0,[r8,#0]
        0x0001a3b6:    e9d51002    ....    LDRD     r1,r0,[r5,#8]
        0x0001a3ba:    f8d82004    ...     LDR      r2,[r8,#4]
        0x0001a3be:    2801        .(      CMP      r0,#1
        0x0001a3c0:    ea410102    A...    ORR      r1,r1,r2
        0x0001a3c4:    bf88        ..      IT       HI
        0x0001a3c6:    f04a0a22    J.".    ORRHI    r10,r10,#0x22
        0x0001a3ca:    2801        .(      CMP      r0,#1
        0x0001a3cc:    bf88        ..      IT       HI
        0x0001a3ce:    ea414100    A..A    ORRHI    r1,r1,r0,LSL #16
        0x0001a3d2:    f8c81004    ....    STR      r1,[r8,#4]
        0x0001a3d6:    f8d8002c    ..,.    LDR      r0,[r8,#0x2c]
        0x0001a3da:    f4402060    @.`     ORR      r0,r0,#0xe0000
        0x0001a3de:    f8c8002c    ..,.    STR      r0,[r8,#0x2c]
        0x0001a3e2:    2002        .       MOVS     r0,#2
        0x0001a3e4:    2100        .!      MOVS     r1,#0
        0x0001a3e6:    ea4c070a    L...    ORR      r7,r12,r10
        0x0001a3ea:    f04f0a00    O...    MOV      r10,#0
        0x0001a3ee:    f7fefec1    ....    BL       am_hal_daxi_control ; 0x19174
        0x0001a3f2:    6870        ph      LDR      r0,[r6,#4]
        0x0001a3f4:    f04f0b01    O...    MOV      r11,#1
        0x0001a3f8:    f8c80008    ....    STR      r0,[r8,#8]
        0x0001a3fc:    f44f60fa    O..`    MOV      r0,#0x7d0
        0x0001a400:    4649        IF      MOV      r1,r9
        0x0001a402:    2201        ."      MOVS     r2,#1
        0x0001a404:    2301        .#      MOVS     r3,#1
        0x0001a406:    f8c8700c    ...p    STR      r7,[r8,#0xc]
        0x0001a40a:    f8cdb000    ....    STR      r11,[sp,#0]
        0x0001a40e:    f7fff861    ..a.    BL       am_hal_delay_us_status_check ; 0x194d4
        0x0001a412:    b170        p.      CBZ      r0,0x1a432 ; am_hal_sdhc_execute_cmd + 602
        0x0001a414:    f8d90000    ....    LDR      r0,[r9,#0]
        0x0001a418:    0301        ..      LSLS     r1,r0,#12
        0x0001a41a:    d419        ..      BMI      0x1a450 ; am_hal_sdhc_execute_cmd + 632
        0x0001a41c:    0341        A.      LSLS     r1,r0,#13
        0x0001a41e:    d419        ..      BMI      0x1a454 ; am_hal_sdhc_execute_cmd + 636
        0x0001a420:    0381        ..      LSLS     r1,r0,#14
        0x0001a422:    f10080bd    ....    BMI.W    0x1a5a0 ; am_hal_sdhc_execute_cmd + 968
        0x0001a426:    03c0        ..      LSLS     r0,r0,#15
        0x0001a428:    f04f0006    O...    MOV      r0,#6
        0x0001a42c:    bf58        X.      IT       PL
        0x0001a42e:    2002        .       MOVPL    r0,#2
        0x0001a430:    e0b7        ..      B        0x1a5a2 ; am_hal_sdhc_execute_cmd + 970
        0x0001a432:    f8c9b000    ....    STR      r11,[r9,#0]
        0x0001a436:    68b1        .h      LDR      r1,[r6,#8]
        0x0001a438:    2700        .'      MOVS     r7,#0
        0x0001a43a:    f2c40707    ....    MOVT     r7,#0x4007
        0x0001a43e:    f886a020    .. .    STRB     r10,[r6,#0x20]
        0x0001a442:    b1e9        ..      CBZ      r1,0x1a480 ; am_hal_sdhc_execute_cmd + 680
        0x0001a444:    f8d80010    ....    LDR      r0,[r8,#0x10]
        0x0001a448:    0789        ..      LSLS     r1,r1,#30
        0x0001a44a:    d405        ..      BMI      0x1a458 ; am_hal_sdhc_execute_cmd + 640
        0x0001a44c:    6130        0a      STR      r0,[r6,#0x10]
        0x0001a44e:    e017        ..      B        0x1a480 ; am_hal_sdhc_execute_cmd + 680
        0x0001a450:    2003        .       MOVS     r0,#3
        0x0001a452:    e0a6        ..      B        0x1a5a2 ; am_hal_sdhc_execute_cmd + 970
        0x0001a454:    2005        .       MOVS     r0,#5
        0x0001a456:    e0a4        ..      B        0x1a5a2 ; am_hal_sdhc_execute_cmd + 970
        0x0001a458:    f8d81014    ....    LDR      r1,[r8,#0x14]
        0x0001a45c:    f8d82018    ...     LDR      r2,[r8,#0x18]
        0x0001a460:    f8d8301c    ...0    LDR      r3,[r8,#0x1c]
        0x0001a464:    021b        ..      LSLS     r3,r3,#8
        0x0001a466:    ea436312    C..c    ORR      r3,r3,r2,LSR #24
        0x0001a46a:    0212        ..      LSLS     r2,r2,#8
        0x0001a46c:    ea426211    B..b    ORR      r2,r2,r1,LSR #24
        0x0001a470:    0209        ..      LSLS     r1,r1,#8
        0x0001a472:    ea416110    A..a    ORR      r1,r1,r0,LSR #24
        0x0001a476:    0200        ..      LSLS     r0,r0,#8
        0x0001a478:    e9c63204    ...2    STRD     r3,r2,[r6,#0x10]
        0x0001a47c:    e9c61006    ....    STRD     r1,r0,[r6,#0x18]
        0x0001a480:    7b70        p{      LDRB     r0,[r6,#0xd]
        0x0001a482:    b160        `.      CBZ      r0,0x1a49e ; am_hal_sdhc_execute_cmd + 710
        0x0001a484:    f7fff932    ..2.    BL       am_hal_interrupt_master_disable ; 0x196ec
        0x0001a488:    9002        ..      STR      r0,[sp,#8]
        0x0001a48a:    f04f30ff    O..0    MOV      r0,#0xffffffff
        0x0001a48e:    f8c80038    ..8.    STR      r0,[r8,#0x38]
        0x0001a492:    2000        .       MOVS     r0,#0
        0x0001a494:    f8840039    ..9.    STRB     r0,[r4,#0x39]
        0x0001a498:    9802        ..      LDR      r0,[sp,#8]
        0x0001a49a:    f7fff92f    ../.    BL       am_hal_interrupt_master_set ; 0x196fc
        0x0001a49e:    2d00        .-      CMP      r5,#0
        0x0001a4a0:    d074        t.      BEQ      0x1a58c ; am_hal_sdhc_execute_cmd + 948
        0x0001a4a2:    7b70        p{      LDRB     r0,[r6,#0xd]
        0x0001a4a4:    2800        .(      CMP      r0,#0
        0x0001a4a6:    d179        y.      BNE      0x1a59c ; am_hal_sdhc_execute_cmd + 964
        0x0001a4a8:    6860        `h      LDR      r0,[r4,#4]
        0x0001a4aa:    f44f51fa    O..Q    MOV      r1,#0x1f40
        0x0001a4ae:    eb000907    ....    ADD      r9,r0,r7
        0x0001a4b2:    68e8        .h      LDR      r0,[r5,#0xc]
        0x0001a4b4:    f04f0810    O...    MOV      r8,#0x10
        0x0001a4b8:    fb00f701    ....    MUL      r7,r0,r1
        0x0001a4bc:    f8940038    ..8.    LDRB     r0,[r4,#0x38]
        0x0001a4c0:    2600        .&      MOVS     r6,#0
        0x0001a4c2:    2800        .(      CMP      r0,#0
        0x0001a4c4:    bf08        ..      IT       EQ
        0x0001a4c6:    f04f0820    O. .    MOVEQ    r8,#0x20
        0x0001a4ca:    2f00        ./      CMP      r7,#0
        0x0001a4cc:    f04f0a00    O...    MOV      r10,#0
        0x0001a4d0:    d070        p.      BEQ      0x1a5b4 ; am_hal_sdhc_execute_cmd + 988
        0x0001a4d2:    f8d90030    ..0.    LDR      r0,[r9,#0x30]
        0x0001a4d6:    f0100b02    ....    ANDS     r11,r0,#2
        0x0001a4da:    d10a        ..      BNE      0x1a4f2 ; am_hal_sdhc_execute_cmd + 794
        0x0001a4dc:    0701        ..      LSLS     r1,r0,#28
        0x0001a4de:    d413        ..      BMI      0x1a508 ; am_hal_sdhc_execute_cmd + 816
        0x0001a4e0:    ea100f08    ....    TST      r0,r8
        0x0001a4e4:    d035        5.      BEQ      0x1a552 ; am_hal_sdhc_execute_cmd + 890
        0x0001a4e6:    4620         F      MOV      r0,r4
        0x0001a4e8:    f8c98030    ..0.    STR      r8,[r9,#0x30]
        0x0001a4ec:    f000f9ba    ....    BL       am_hal_sdhc_pio_xfer_data ; 0x1a864
        0x0001a4f0:    e021        !.      B        0x1a536 ; am_hal_sdhc_execute_cmd + 862
        0x0001a4f2:    2001        .       MOVS     r0,#1
        0x0001a4f4:    2100        .!      MOVS     r1,#0
        0x0001a4f6:    f04f0a01    O...    MOV      r10,#1
        0x0001a4fa:    f7fefe3b    ..;.    BL       am_hal_daxi_control ; 0x19174
        0x0001a4fe:    2002        .       MOVS     r0,#2
        0x0001a500:    f8c90030    ..0.    STR      r0,[r9,#0x30]
        0x0001a504:    62a6        .b      STR      r6,[r4,#0x28]
        0x0001a506:    e016        ..      B        0x1a536 ; am_hal_sdhc_execute_cmd + 862
        0x0001a508:    2001        .       MOVS     r0,#1
        0x0001a50a:    2100        .!      MOVS     r1,#0
        0x0001a50c:    f7fefe32    ..2.    BL       am_hal_daxi_control ; 0x19174
        0x0001a510:    2008        .       MOVS     r0,#8
        0x0001a512:    f8c90030    ..0.    STR      r0,[r9,#0x30]
        0x0001a516:    6b60        `k      LDR      r0,[r4,#0x34]
        0x0001a518:    6aa3        .j      LDR      r3,[r4,#0x28]
        0x0001a51a:    e9d41201    ....    LDRD     r1,r2,[r4,#4]
        0x0001a51e:    6a26        &j      LDR      r6,[r4,#0x20]
        0x0001a520:    1a18        ..      SUBS     r0,r3,r0
        0x0001a522:    62a0        .b      STR      r0,[r4,#0x28]
        0x0001a524:    f0220003    "...    BIC      r0,r2,#3
        0x0001a528:    2200        ."      MOVS     r2,#0
        0x0001a52a:    4430        0D      ADD      r0,r0,r6
        0x0001a52c:    f2c40207    ....    MOVT     r2,#0x4007
        0x0001a530:    2600        .&      MOVS     r6,#0
        0x0001a532:    6220         b      STR      r0,[r4,#0x20]
        0x0001a534:    5088        .P      STR      r0,[r1,r2]
        0x0001a536:    2005        .       MOVS     r0,#5
        0x0001a538:    3f01        .?      SUBS     r7,#1
        0x0001a53a:    f000fe9b    ....    BL       am_util_delay_us ; 0x1b274
        0x0001a53e:    2f00        ./      CMP      r7,#0
        0x0001a540:    4639        9F      MOV      r1,r7
        0x0001a542:    bf18        ..      IT       NE
        0x0001a544:    2101        .!      MOVNE    r1,#1
        0x0001a546:    f1bb0f00    ....    CMP      r11,#0
        0x0001a54a:    d134        4.      BNE      0x1a5b6 ; am_hal_sdhc_execute_cmd + 990
        0x0001a54c:    2f00        ./      CMP      r7,#0
        0x0001a54e:    d1c0        ..      BNE      0x1a4d2 ; am_hal_sdhc_execute_cmd + 762
        0x0001a550:    e031        1.      B        0x1a5b6 ; am_hal_sdhc_execute_cmd + 990
        0x0001a552:    f0107f1c    ....    TST      r0,#0x2700000
        0x0001a556:    d0ee        ..      BEQ      0x1a536 ; am_hal_sdhc_execute_cmd + 862
        0x0001a558:    0181        ..      LSLS     r1,r0,#6
        0x0001a55a:    f04f0701    O...    MOV      r7,#1
        0x0001a55e:    f04f0101    O...    MOV      r1,#1
        0x0001a562:    f8c90030    ..0.    STR      r0,[r9,#0x30]
        0x0001a566:    d40b        ..      BMI      0x1a580 ; am_hal_sdhc_execute_cmd + 936
        0x0001a568:    0281        ..      LSLS     r1,r0,#10
        0x0001a56a:    d406        ..      BMI      0x1a57a ; am_hal_sdhc_execute_cmd + 930
        0x0001a56c:    02c1        ..      LSLS     r1,r0,#11
        0x0001a56e:    d406        ..      BMI      0x1a57e ; am_hal_sdhc_execute_cmd + 934
        0x0001a570:    2104        .!      MOVS     r1,#4
        0x0001a572:    0240        @.      LSLS     r0,r0,#9
        0x0001a574:    bf58        X.      IT       PL
        0x0001a576:    2105        .!      MOVPL    r1,#5
        0x0001a578:    e002        ..      B        0x1a580 ; am_hal_sdhc_execute_cmd + 936
        0x0001a57a:    2102        .!      MOVS     r1,#2
        0x0001a57c:    e000        ..      B        0x1a580 ; am_hal_sdhc_execute_cmd + 936
        0x0001a57e:    2103        .!      MOVS     r1,#3
        0x0001a580:    69a0        .i      LDR      r0,[r4,#0x18]
        0x0001a582:    7429        )t      STRB     r1,[r5,#0x10]
        0x0001a584:    3001        .0      ADDS     r0,#1
        0x0001a586:    7567        gu      STRB     r7,[r4,#0x15]
        0x0001a588:    61a0        .a      STR      r0,[r4,#0x18]
        0x0001a58a:    e7d4        ..      B        0x1a536 ; am_hal_sdhc_execute_cmd + 862
        0x0001a58c:    7b30        0{      LDRB     r0,[r6,#0xc]
        0x0001a58e:    b928        (.      CBNZ     r0,0x1a59c ; am_hal_sdhc_execute_cmd + 964
        0x0001a590:    f8d8002c    ..,.    LDR      r0,[r8,#0x2c]
        0x0001a594:    f0200004     ...    BIC      r0,r0,#4
        0x0001a598:    f8c8002c    ..,.    STR      r0,[r8,#0x2c]
        0x0001a59c:    2000        .       MOVS     r0,#0
        0x0001a59e:    e630        0.      B        0x1a202 ; am_hal_sdhc_execute_cmd + 42
        0x0001a5a0:    2004        .       MOVS     r0,#4
        0x0001a5a2:    f8860020    .. .    STRB     r0,[r6,#0x20]
        0x0001a5a6:    2001        .       MOVS     r0,#1
        0x0001a5a8:    69e1        .i      LDR      r1,[r4,#0x1c]
        0x0001a5aa:    7520         u      STRB     r0,[r4,#0x14]
        0x0001a5ac:    1c48        H.      ADDS     r0,r1,#1
        0x0001a5ae:    61e0        .a      STR      r0,[r4,#0x1c]
        0x0001a5b0:    2004        .       MOVS     r0,#4
        0x0001a5b2:    e626        &.      B        0x1a202 ; am_hal_sdhc_execute_cmd + 42
        0x0001a5b4:    2100        .!      MOVS     r1,#0
        0x0001a5b6:    f8d9002c    ..,.    LDR      r0,[r9,#0x2c]
        0x0001a5ba:    2900        .)      CMP      r1,#0
        0x0001a5bc:    f0200004     ...    BIC      r0,r0,#4
        0x0001a5c0:    f8c9002c    ..,.    STR      r0,[r9,#0x2c]
        0x0001a5c4:    e9d4020a    ....    LDRD     r0,r2,[r4,#0x28]
        0x0001a5c8:    eba20200    ....    SUB      r2,r2,r0
        0x0001a5cc:    ea4f4002    O..@    LSL      r0,r2,#16
        0x0001a5d0:    f1000004    ....    ADD      r0,r0,#4
        0x0001a5d4:    bf18        ..      IT       NE
        0x0001a5d6:    0410        ..      LSLNE    r0,r2,#16
        0x0001a5d8:    ea5f71ca    _..q    LSLS     r1,r10,#31
        0x0001a5dc:    bf18        ..      IT       NE
        0x0001a5de:    0410        ..      LSLNE    r0,r2,#16
        0x0001a5e0:    e60f        ..      B        0x1a202 ; am_hal_sdhc_execute_cmd + 42
    am_hal_sdhc_get_cd
        0x0001a5e2:    b180        ..      CBZ      r0,0x1a606 ; am_hal_sdhc_get_cd + 36
        0x0001a5e4:    6801        .h      LDR      r1,[r0,#0]
        0x0001a5e6:    f24132b0    A..2    MOV      r2,#0x13b0
        0x0001a5ea:    f021417c    !.|A    BIC      r1,r1,#0xfc000000
        0x0001a5ee:    f2c03283    ...2    MOVT     r2,#0x383
        0x0001a5f2:    4291        .B      CMP      r1,r2
        0x0001a5f4:    d107        ..      BNE      0x1a606 ; am_hal_sdhc_get_cd + 36
        0x0001a5f6:    6840        @h      LDR      r0,[r0,#4]
        0x0001a5f8:    2124        $!      MOVS     r1,#0x24
        0x0001a5fa:    f2c40107    ....    MOVT     r1,#0x4007
        0x0001a5fe:    5840        @X      LDR      r0,[r0,r1]
        0x0001a600:    f3c04000    ...@    UBFX     r0,r0,#16,#1
        0x0001a604:    4770        pG      BX       lr
        0x0001a606:    2001        .       MOVS     r0,#1
        0x0001a608:    4770        pG      BX       lr
    am_hal_sdhc_host_deinit
        0x0001a60a:    b510        ..      PUSH     {r4,lr}
        0x0001a60c:    4604        .F      MOV      r4,r0
        0x0001a60e:    f7fffd55    ..U.    BL       am_hal_sdhc_disable ; 0x1a0bc
        0x0001a612:    b928        (.      CBNZ     r0,0x1a620 ; am_hal_sdhc_host_deinit + 22
        0x0001a614:    4620         F      MOV      r0,r4
        0x0001a616:    2101        .!      MOVS     r1,#1
        0x0001a618:    2200        ."      MOVS     r2,#0
        0x0001a61a:    f000f961    ..a.    BL       am_hal_sdhc_power_control ; 0x1a8e0
        0x0001a61e:    b108        ..      CBZ      r0,0x1a624 ; am_hal_sdhc_host_deinit + 26
        0x0001a620:    2001        .       MOVS     r0,#1
        0x0001a622:    bd10        ..      POP      {r4,pc}
        0x0001a624:    4620         F      MOV      r0,r4
        0x0001a626:    f7fffd36    ..6.    BL       am_hal_sdhc_deinitialize ; 0x1a096
        0x0001a62a:    2800        .(      CMP      r0,#0
        0x0001a62c:    bf18        ..      IT       NE
        0x0001a62e:    2001        .       MOVNE    r0,#1
        0x0001a630:    bd10        ..      POP      {r4,pc}
        0x0001a632:    0000        ..      MOVS     r0,r0
    am_hal_sdhc_host_execute_cmd
        0x0001a634:    b5f0        ..      PUSH     {r4-r7,lr}
        0x0001a636:    b081        ..      SUB      sp,sp,#4
        0x0001a638:    4614        .F      MOV      r4,r2
        0x0001a63a:    460d        .F      MOV      r5,r1
        0x0001a63c:    4606        .F      MOV      r6,r0
        0x0001a63e:    2703        .'      MOVS     r7,#3
        0x0001a640:    4630        0F      MOV      r0,r6
        0x0001a642:    4629        )F      MOV      r1,r5
        0x0001a644:    4622        "F      MOV      r2,r4
        0x0001a646:    f7fffdc7    ....    BL       am_hal_sdhc_execute_cmd ; 0x1a1d8
        0x0001a64a:    0401        ..      LSLS     r1,r0,#16
        0x0001a64c:    bf1c        ..      ITT      NE
        0x0001a64e:    3f01        .?      SUBNE    r7,#1
        0x0001a650:    ea5f6107    _..a    LSLSNE   r1,r7,#24
        0x0001a654:    d1f4        ..      BNE      0x1a640 ; am_hal_sdhc_host_execute_cmd + 12
        0x0001a656:    b001        ..      ADD      sp,sp,#4
        0x0001a658:    bdf0        ..      POP      {r4-r7,pc}
    am_hal_sdhc_host_init
        0x0001a65a:    b510        ..      PUSH     {r4,lr}
        0x0001a65c:    4604        .F      MOV      r4,r0
        0x0001a65e:    6840        @h      LDR      r0,[r0,#4]
        0x0001a660:    4621        !F      MOV      r1,r4
        0x0001a662:    f000f81f    ....    BL       am_hal_sdhc_initialize ; 0x1a6a4
        0x0001a666:    b998        ..      CBNZ     r0,0x1a690 ; am_hal_sdhc_host_init + 54
        0x0001a668:    6820         h      LDR      r0,[r4,#0]
        0x0001a66a:    2100        .!      MOVS     r1,#0
        0x0001a66c:    2200        ."      MOVS     r2,#0
        0x0001a66e:    f000f937    ..7.    BL       am_hal_sdhc_power_control ; 0x1a8e0
        0x0001a672:    b968        h.      CBNZ     r0,0x1a690 ; am_hal_sdhc_host_init + 54
        0x0001a674:    6820         h      LDR      r0,[r4,#0]
        0x0001a676:    f7fffd5b    ..[.    BL       am_hal_sdhc_enable ; 0x1a130
        0x0001a67a:    b948        H.      CBNZ     r0,0x1a690 ; am_hal_sdhc_host_init + 54
        0x0001a67c:    6820         h      LDR      r0,[r4,#0]
        0x0001a67e:    4621        !F      MOV      r1,r4
        0x0001a680:    f000fa8f    ....    BL       am_hal_sdhc_setup_host ; 0x1aba2
        0x0001a684:    b920         .      CBNZ     r0,0x1a690 ; am_hal_sdhc_host_init + 54
        0x0001a686:    6820         h      LDR      r0,[r4,#0]
        0x0001a688:    7b21        !{      LDRB     r1,[r4,#0xc]
        0x0001a68a:    f000f9e0    ....    BL       am_hal_sdhc_set_bus_voltage ; 0x1aa4e
        0x0001a68e:    b108        ..      CBZ      r0,0x1a694 ; am_hal_sdhc_host_init + 58
        0x0001a690:    2001        .       MOVS     r0,#1
        0x0001a692:    bd10        ..      POP      {r4,pc}
        0x0001a694:    6820         h      LDR      r0,[r4,#0]
        0x0001a696:    6a21        !j      LDR      r1,[r4,#0x20]
        0x0001a698:    f000f98a    ....    BL       am_hal_sdhc_set_bus_clock ; 0x1a9b0
        0x0001a69c:    2800        .(      CMP      r0,#0
        0x0001a69e:    bf18        ..      IT       NE
        0x0001a6a0:    2001        .       MOVNE    r0,#1
        0x0001a6a2:    bd10        ..      POP      {r4,pc}
    am_hal_sdhc_initialize
        0x0001a6a4:    b108        ..      CBZ      r0,0x1a6aa ; am_hal_sdhc_initialize + 6
        0x0001a6a6:    2005        .       MOVS     r0,#5
        0x0001a6a8:    4770        pG      BX       lr
        0x0001a6aa:    b199        ..      CBZ      r1,0x1a6d4 ; am_hal_sdhc_initialize + 48
        0x0001a6ac:    f241322c    A.,2    MOV      r2,#0x132c
        0x0001a6b0:    f2c10200    ....    MOVT     r2,#0x1000
        0x0001a6b4:    6813        .h      LDR      r3,[r2,#0]
        0x0001a6b6:    01d8        ..      LSLS     r0,r3,#7
        0x0001a6b8:    bf44        D.      ITT      MI
        0x0001a6ba:    2007        .       MOVMI    r0,#7
        0x0001a6bc:    4770        pG      BXMI     lr
        0x0001a6be:    f24130b0    A..0    MOV      r0,#0x13b0
        0x0001a6c2:    f2c01083    ....    MOVT     r0,#0x183
        0x0001a6c6:    f3600318    `...    BFI      r3,r0,#0,#25
        0x0001a6ca:    2000        .       MOVS     r0,#0
        0x0001a6cc:    e9c23000    ...0    STRD     r3,r0,[r2,#0]
        0x0001a6d0:    600a        .`      STR      r2,[r1,#0]
        0x0001a6d2:    4770        pG      BX       lr
        0x0001a6d4:    2006        .       MOVS     r0,#6
        0x0001a6d6:    4770        pG      BX       lr
    am_hal_sdhc_interrupt_service
        0x0001a6d8:    e92d43f0    -..C    PUSH     {r4-r9,lr}
        0x0001a6dc:    b083        ..      SUB      sp,sp,#0xc
        0x0001a6de:    4604        .F      MOV      r4,r0
        0x0001a6e0:    6800        .h      LDR      r0,[r0,#0]
        0x0001a6e2:    f24133b0    A..3    MOV      r3,#0x13b0
        0x0001a6e6:    f020427e     .~B    BIC      r2,r0,#0xfe000000
        0x0001a6ea:    f2c01383    ....    MOVT     r3,#0x183
        0x0001a6ee:    429a        .B      CMP      r2,r3
        0x0001a6f0:    d103        ..      BNE      0x1a6fa ; am_hal_sdhc_interrupt_service + 34
        0x0001a6f2:    0180        ..      LSLS     r0,r0,#6
        0x0001a6f4:    d403        ..      BMI      0x1a6fe ; am_hal_sdhc_interrupt_service + 38
        0x0001a6f6:    2007        .       MOVS     r0,#7
        0x0001a6f8:    e078        x.      B        0x1a7ec ; am_hal_sdhc_interrupt_service + 276
        0x0001a6fa:    2002        .       MOVS     r0,#2
        0x0001a6fc:    e076        v.      B        0x1a7ec ; am_hal_sdhc_interrupt_service + 276
        0x0001a6fe:    f8d48010    ....    LDR      r8,[r4,#0x10]
        0x0001a702:    6866        fh      LDR      r6,[r4,#4]
        0x0001a704:    2700        .'      MOVS     r7,#0
        0x0001a706:    460d        .F      MOV      r5,r1
        0x0001a708:    f0110f30    ..0.    TST      r1,#0x30
        0x0001a70c:    f2c40707    ....    MOVT     r7,#0x4007
        0x0001a710:    d002        ..      BEQ      0x1a718 ; am_hal_sdhc_interrupt_service + 64
        0x0001a712:    4620         F      MOV      r0,r4
        0x0001a714:    f000f8a6    ....    BL       am_hal_sdhc_pio_xfer_data ; 0x1a864
        0x0001a718:    0728        (.      LSLS     r0,r5,#28
        0x0001a71a:    eb060907    ....    ADD      r9,r6,r7
        0x0001a71e:    d51a        ..      BPL      0x1a756 ; am_hal_sdhc_interrupt_service + 126
        0x0001a720:    2001        .       MOVS     r0,#1
        0x0001a722:    2100        .!      MOVS     r1,#0
        0x0001a724:    f7fefd26    ..&.    BL       am_hal_daxi_control ; 0x19174
        0x0001a728:    6b60        `k      LDR      r0,[r4,#0x34]
        0x0001a72a:    6aa3        .j      LDR      r3,[r4,#0x28]
        0x0001a72c:    e9d41201    ....    LDRD     r1,r2,[r4,#4]
        0x0001a730:    6a26        &j      LDR      r6,[r4,#0x20]
        0x0001a732:    1a18        ..      SUBS     r0,r3,r0
        0x0001a734:    62a0        .b      STR      r0,[r4,#0x28]
        0x0001a736:    f0220003    "...    BIC      r0,r2,#3
        0x0001a73a:    4430        0D      ADD      r0,r0,r6
        0x0001a73c:    6220         b      STR      r0,[r4,#0x20]
        0x0001a73e:    51c8        .Q      STR      r0,[r1,r7]
        0x0001a740:    2003        .       MOVS     r0,#3
        0x0001a742:    f88d0000    ....    STRB     r0,[sp,#0]
        0x0001a746:    6920         i      LDR      r0,[r4,#0x10]
        0x0001a748:    6b62        bk      LDR      r2,[r4,#0x34]
        0x0001a74a:    6e41        An      LDR      r1,[r0,#0x64]
        0x0001a74c:    9002        ..      STR      r0,[sp,#8]
        0x0001a74e:    9201        ..      STR      r2,[sp,#4]
        0x0001a750:    b109        ..      CBZ      r1,0x1a756 ; am_hal_sdhc_interrupt_service + 126
        0x0001a752:    4668        hF      MOV      r0,sp
        0x0001a754:    4788        .G      BLX      r1
        0x0001a756:    07a8        ..      LSLS     r0,r5,#30
        0x0001a758:    d517        ..      BPL      0x1a78a ; am_hal_sdhc_interrupt_service + 178
        0x0001a75a:    2001        .       MOVS     r0,#1
        0x0001a75c:    2100        .!      MOVS     r1,#0
        0x0001a75e:    2701        .'      MOVS     r7,#1
        0x0001a760:    f7fefd08    ....    BL       am_hal_daxi_control ; 0x19174
        0x0001a764:    6921        !i      LDR      r1,[r4,#0x10]
        0x0001a766:    2004        .       MOVS     r0,#4
        0x0001a768:    9102        ..      STR      r1,[sp,#8]
        0x0001a76a:    6e49        In      LDR      r1,[r1,#0x64]
        0x0001a76c:    f88d0000    ....    STRB     r0,[sp,#0]
        0x0001a770:    6aa0        .j      LDR      r0,[r4,#0x28]
        0x0001a772:    9001        ..      STR      r0,[sp,#4]
        0x0001a774:    b109        ..      CBZ      r1,0x1a77a ; am_hal_sdhc_interrupt_service + 162
        0x0001a776:    4668        hF      MOV      r0,sp
        0x0001a778:    4788        .G      BLX      r1
        0x0001a77a:    f8847039    ..9p    STRB     r7,[r4,#0x39]
        0x0001a77e:    f8d9002c    ..,.    LDR      r0,[r9,#0x2c]
        0x0001a782:    f0200004     ...    BIC      r0,r0,#4
        0x0001a786:    f8c9002c    ..,.    STR      r0,[r9,#0x2c]
        0x0001a78a:    f0157f1c    ....    TST      r5,#0x2700000
        0x0001a78e:    d02c        ,.      BEQ      0x1a7ea ; am_hal_sdhc_interrupt_service + 274
        0x0001a790:    2006        .       MOVS     r0,#6
        0x0001a792:    f88d0000    ....    STRB     r0,[sp,#0]
        0x0001a796:    6920         i      LDR      r0,[r4,#0x10]
        0x0001a798:    6aa1        .j      LDR      r1,[r4,#0x28]
        0x0001a79a:    01aa        ..      LSLS     r2,r5,#6
        0x0001a79c:    e9cd1001    ....    STRD     r1,r0,[sp,#4]
        0x0001a7a0:    f04f0101    O...    MOV      r1,#1
        0x0001a7a4:    f04f0201    O...    MOV      r2,#1
        0x0001a7a8:    d40c        ..      BMI      0x1a7c4 ; am_hal_sdhc_interrupt_service + 236
        0x0001a7aa:    02aa        ..      LSLS     r2,r5,#10
        0x0001a7ac:    d407        ..      BMI      0x1a7be ; am_hal_sdhc_interrupt_service + 230
        0x0001a7ae:    02ea        ..      LSLS     r2,r5,#11
        0x0001a7b0:    d407        ..      BMI      0x1a7c2 ; am_hal_sdhc_interrupt_service + 234
        0x0001a7b2:    026a        j.      LSLS     r2,r5,#9
        0x0001a7b4:    f04f0204    O...    MOV      r2,#4
        0x0001a7b8:    bf58        X.      IT       PL
        0x0001a7ba:    2205        ."      MOVPL    r2,#5
        0x0001a7bc:    e002        ..      B        0x1a7c4 ; am_hal_sdhc_interrupt_service + 236
        0x0001a7be:    2202        ."      MOVS     r2,#2
        0x0001a7c0:    e000        ..      B        0x1a7c4 ; am_hal_sdhc_interrupt_service + 236
        0x0001a7c2:    2203        ."      MOVS     r2,#3
        0x0001a7c4:    f888205c    ..\     STRB     r2,[r8,#0x5c]
        0x0001a7c8:    7561        au      STRB     r1,[r4,#0x15]
        0x0001a7ca:    69a2        .i      LDR      r2,[r4,#0x18]
        0x0001a7cc:    6e41        An      LDR      r1,[r0,#0x64]
        0x0001a7ce:    1c50        P.      ADDS     r0,r2,#1
        0x0001a7d0:    61a0        .a      STR      r0,[r4,#0x18]
        0x0001a7d2:    b109        ..      CBZ      r1,0x1a7d8 ; am_hal_sdhc_interrupt_service + 256
        0x0001a7d4:    4668        hF      MOV      r0,sp
        0x0001a7d6:    4788        .G      BLX      r1
        0x0001a7d8:    2001        .       MOVS     r0,#1
        0x0001a7da:    f8840039    ..9.    STRB     r0,[r4,#0x39]
        0x0001a7de:    f8d9002c    ..,.    LDR      r0,[r9,#0x2c]
        0x0001a7e2:    f0200004     ...    BIC      r0,r0,#4
        0x0001a7e6:    f8c9002c    ..,.    STR      r0,[r9,#0x2c]
        0x0001a7ea:    2000        .       MOVS     r0,#0
        0x0001a7ec:    b003        ..      ADD      sp,sp,#0xc
        0x0001a7ee:    e8bd83f0    ....    POP      {r4-r9,pc}
    am_hal_sdhc_intr_status_clear
        0x0001a7f2:    b198        ..      CBZ      r0,0x1a81c ; am_hal_sdhc_intr_status_clear + 42
        0x0001a7f4:    6802        .h      LDR      r2,[r0,#0]
        0x0001a7f6:    f24133b0    A..3    MOV      r3,#0x13b0
        0x0001a7fa:    f0224c7e    ".~L    BIC      r12,r2,#0xfe000000
        0x0001a7fe:    f2c01383    ....    MOVT     r3,#0x183
        0x0001a802:    459c        .E      CMP      r12,r3
        0x0001a804:    d10a        ..      BNE      0x1a81c ; am_hal_sdhc_intr_status_clear + 42
        0x0001a806:    0192        ..      LSLS     r2,r2,#6
        0x0001a808:    bf5c        \.      ITT      PL
        0x0001a80a:    2007        .       MOVPL    r0,#7
        0x0001a80c:    4770        pG      BXPL     lr
        0x0001a80e:    6840        @h      LDR      r0,[r0,#4]
        0x0001a810:    2230        0"      MOVS     r2,#0x30
        0x0001a812:    f2c40207    ....    MOVT     r2,#0x4007
        0x0001a816:    5081        .P      STR      r1,[r0,r2]
        0x0001a818:    2000        .       MOVS     r0,#0
        0x0001a81a:    4770        pG      BX       lr
        0x0001a81c:    2002        .       MOVS     r0,#2
        0x0001a81e:    4770        pG      BX       lr
    am_hal_sdhc_intr_status_get
        0x0001a820:    b580        ..      PUSH     {r7,lr}
        0x0001a822:    b1e8        ..      CBZ      r0,0x1a860 ; am_hal_sdhc_intr_status_get + 64
        0x0001a824:    f8d0e000    ....    LDR      lr,[r0,#0]
        0x0001a828:    f24133b0    A..3    MOV      r3,#0x13b0
        0x0001a82c:    f02e4c7e    ..~L    BIC      r12,lr,#0xfe000000
        0x0001a830:    f2c01383    ....    MOVT     r3,#0x183
        0x0001a834:    459c        .E      CMP      r12,r3
        0x0001a836:    d113        ..      BNE      0x1a860 ; am_hal_sdhc_intr_status_get + 64
        0x0001a838:    ea5f138e    _...    LSLS     r3,lr,#6
        0x0001a83c:    bf5c        \.      ITT      PL
        0x0001a83e:    2007        .       MOVPL    r0,#7
        0x0001a840:    bd80        ..      POPPL    {r7,pc}
        0x0001a842:    6843        Ch      LDR      r3,[r0,#4]
        0x0001a844:    2030        0       MOVS     r0,#0x30
        0x0001a846:    f2c40007    ....    MOVT     r0,#0x4007
        0x0001a84a:    5818        .X      LDR      r0,[r3,r0]
        0x0001a84c:    b12a        *.      CBZ      r2,0x1a85a ; am_hal_sdhc_intr_status_get + 58
        0x0001a84e:    f1034280    ...B    ADD      r2,r3,#0x40000000
        0x0001a852:    f50222e0    ..."    ADD      r2,r2,#0x70000
        0x0001a856:    6b52        Rk      LDR      r2,[r2,#0x34]
        0x0001a858:    4010        .@      ANDS     r0,r0,r2
        0x0001a85a:    6008        .`      STR      r0,[r1,#0]
        0x0001a85c:    2000        .       MOVS     r0,#0
        0x0001a85e:    bd80        ..      POP      {r7,pc}
        0x0001a860:    2002        .       MOVS     r0,#2
        0x0001a862:    bd80        ..      POP      {r7,pc}
    am_hal_sdhc_pio_xfer_data
        0x0001a864:    b510        ..      PUSH     {r4,lr}
        0x0001a866:    6841        Ah      LDR      r1,[r0,#4]
        0x0001a868:    2224        $"      MOVS     r2,#0x24
        0x0001a86a:    f8903038    ..80    LDRB     r3,[r0,#0x38]
        0x0001a86e:    f2c40207    ....    MOVT     r2,#0x4007
        0x0001a872:    588a        .X      LDR      r2,[r1,r2]
        0x0001a874:    f44f6c80    O..l    MOV      r12,#0x400
        0x0001a878:    2b00        .+      CMP      r3,#0
        0x0001a87a:    bf08        ..      IT       EQ
        0x0001a87c:    f44f6c00    O..l    MOVEQ    r12,#0x800
        0x0001a880:    ea120f0c    ....    TST      r2,r12
        0x0001a884:    d02b        +.      BEQ      0x1a8de ; am_hal_sdhc_pio_xfer_data + 122
        0x0001a886:    f1014180    ...A    ADD      r1,r1,#0x40000000
        0x0001a88a:    f50122e0    ..."    ADD      r2,r1,#0x70000
        0x0001a88e:    bf00        ..      NOP      
        0x0001a890:    6b01        .k      LDR      r1,[r0,#0x30]
        0x0001a892:    b15b        [.      CBZ      r3,0x1a8ac ; am_hal_sdhc_pio_xfer_data + 72
        0x0001a894:    b1c1        ..      CBZ      r1,0x1a8c8 ; am_hal_sdhc_pio_xfer_data + 100
        0x0001a896:    2300        .#      MOVS     r3,#0
        0x0001a898:    6a01        .j      LDR      r1,[r0,#0x20]
        0x0001a89a:    3304        .3      ADDS     r3,#4
        0x0001a89c:    f8514b04    Q..K    LDR      r4,[r1],#4
        0x0001a8a0:    6201        .b      STR      r1,[r0,#0x20]
        0x0001a8a2:    6214        .b      STR      r4,[r2,#0x20]
        0x0001a8a4:    6b01        .k      LDR      r1,[r0,#0x30]
        0x0001a8a6:    428b        .B      CMP      r3,r1
        0x0001a8a8:    d3f6        ..      BCC      0x1a898 ; am_hal_sdhc_pio_xfer_data + 52
        0x0001a8aa:    e00d        ..      B        0x1a8c8 ; am_hal_sdhc_pio_xfer_data + 100
        0x0001a8ac:    b161        a.      CBZ      r1,0x1a8c8 ; am_hal_sdhc_pio_xfer_data + 100
        0x0001a8ae:    f8d0e020    .. .    LDR      lr,[r0,#0x20]
        0x0001a8b2:    2100        .!      MOVS     r1,#0
        0x0001a8b4:    6a13        .j      LDR      r3,[r2,#0x20]
        0x0001a8b6:    eb0e0401    ....    ADD      r4,lr,r1
        0x0001a8ba:    f8443b04    D..;    STR      r3,[r4],#4
        0x0001a8be:    6b03        .k      LDR      r3,[r0,#0x30]
        0x0001a8c0:    3104        .1      ADDS     r1,#4
        0x0001a8c2:    4299        .B      CMP      r1,r3
        0x0001a8c4:    6204        .b      STR      r4,[r0,#0x20]
        0x0001a8c6:    d3f5        ..      BCC      0x1a8b4 ; am_hal_sdhc_pio_xfer_data + 80
        0x0001a8c8:    6a81        .j      LDR      r1,[r0,#0x28]
        0x0001a8ca:    3901        .9      SUBS     r1,#1
        0x0001a8cc:    6281        .b      STR      r1,[r0,#0x28]
        0x0001a8ce:    6a51        Qj      LDR      r1,[r2,#0x24]
        0x0001a8d0:    ea110f0c    ....    TST      r1,r12
        0x0001a8d4:    bf08        ..      IT       EQ
        0x0001a8d6:    bd10        ..      POPEQ    {r4,pc}
        0x0001a8d8:    f8903038    ..80    LDRB     r3,[r0,#0x38]
        0x0001a8dc:    e7d8        ..      B        0x1a890 ; am_hal_sdhc_pio_xfer_data + 44
        0x0001a8de:    bd10        ..      POP      {r4,pc}
    am_hal_sdhc_power_control
        0x0001a8e0:    b5b0        ..      PUSH     {r4,r5,r7,lr}
        0x0001a8e2:    b3a8        ..      CBZ      r0,0x1a950 ; am_hal_sdhc_power_control + 112
        0x0001a8e4:    4615        .F      MOV      r5,r2
        0x0001a8e6:    6802        .h      LDR      r2,[r0,#0]
        0x0001a8e8:    4604        .F      MOV      r4,r0
        0x0001a8ea:    f24130b0    A..0    MOV      r0,#0x13b0
        0x0001a8ee:    f2c01083    ....    MOVT     r0,#0x183
        0x0001a8f2:    f022437e    ".~C    BIC      r3,r2,#0xfe000000
        0x0001a8f6:    4283        .B      CMP      r3,r0
        0x0001a8f8:    d12a        *.      BNE      0x1a950 ; am_hal_sdhc_power_control + 112
        0x0001a8fa:    1e4b        K.      SUBS     r3,r1,#1
        0x0001a8fc:    2b02        .+      CMP      r3,#2
        0x0001a8fe:    d229        ).      BCS      0x1a954 ; am_hal_sdhc_power_control + 116
        0x0001a900:    b18d        ..      CBZ      r5,0x1a926 ; am_hal_sdhc_power_control + 70
        0x0001a902:    6861        ah      LDR      r1,[r4,#4]
        0x0001a904:    f1014180    ...A    ADD      r1,r1,#0x40000000
        0x0001a908:    f50121e0    ...!    ADD      r1,r1,#0x70000
        0x0001a90c:    6a8b        .j      LDR      r3,[r1,#0x28]
        0x0001a90e:    6423        #d      STR      r3,[r4,#0x40]
        0x0001a910:    6acb        .j      LDR      r3,[r1,#0x2c]
        0x0001a912:    6463        cd      STR      r3,[r4,#0x44]
        0x0001a914:    6b4b        Kk      LDR      r3,[r1,#0x34]
        0x0001a916:    64a3        .d      STR      r3,[r4,#0x48]
        0x0001a918:    6b8b        .k      LDR      r3,[r1,#0x38]
        0x0001a91a:    64e3        .d      STR      r3,[r4,#0x4c]
        0x0001a91c:    6bc9        .k      LDR      r1,[r1,#0x3c]
        0x0001a91e:    6521        !e      STR      r1,[r4,#0x50]
        0x0001a920:    2101        .!      MOVS     r1,#1
        0x0001a922:    f884103c    ..<.    STRB     r1,[r4,#0x3c]
        0x0001a926:    f022417c    ".|A    BIC      r1,r2,#0xfc000000
        0x0001a92a:    f1007000    ...p    ADD      r0,r0,#0x2000000
        0x0001a92e:    4281        .B      CMP      r1,r0
        0x0001a930:    d107        ..      BNE      0x1a942 ; am_hal_sdhc_power_control + 98
        0x0001a932:    6860        `h      LDR      r0,[r4,#4]
        0x0001a934:    f1004080    ...@    ADD      r0,r0,#0x40000000
        0x0001a938:    f50020e0    ...     ADD      r0,r0,#0x70000
        0x0001a93c:    6b41        Ak      LDR      r1,[r0,#0x34]
        0x0001a93e:    2100        .!      MOVS     r1,#0
        0x0001a940:    6341        Ac      STR      r1,[r0,#0x34]
        0x0001a942:    7920         y      LDRB     r0,[r4,#4]
        0x0001a944:    3015        .0      ADDS     r0,r0,#0x15
        0x0001a946:    b2c0        ..      UXTB     r0,r0
        0x0001a948:    f7fffa41    ..A.    BL       am_hal_pwrctrl_periph_disable ; 0x19dce
        0x0001a94c:    2000        .       MOVS     r0,#0
        0x0001a94e:    bdb0        ..      POP      {r4,r5,r7,pc}
        0x0001a950:    2002        .       MOVS     r0,#2
        0x0001a952:    bdb0        ..      POP      {r4,r5,r7,pc}
        0x0001a954:    bb39        9.      CBNZ     r1,0x1a9a6 ; am_hal_sdhc_power_control + 198
        0x0001a956:    b115        ..      CBZ      r5,0x1a95e ; am_hal_sdhc_power_control + 126
        0x0001a958:    f894003c    ..<.    LDRB     r0,[r4,#0x3c]
        0x0001a95c:    b328        (.      CBZ      r0,0x1a9aa ; am_hal_sdhc_power_control + 202
        0x0001a95e:    7920         y      LDRB     r0,[r4,#4]
        0x0001a960:    3015        .0      ADDS     r0,r0,#0x15
        0x0001a962:    b2c0        ..      UXTB     r0,r0
        0x0001a964:    f7fffabe    ....    BL       am_hal_pwrctrl_periph_enable ; 0x19ee4
        0x0001a968:    2d00        .-      CMP      r5,#0
        0x0001a96a:    f04f0000    O...    MOV      r0,#0
        0x0001a96e:    bf08        ..      IT       EQ
        0x0001a970:    bdb0        ..      POPEQ    {r4,r5,r7,pc}
        0x0001a972:    6861        ah      LDR      r1,[r4,#4]
        0x0001a974:    2300        .#      MOVS     r3,#0
        0x0001a976:    6c22        "l      LDR      r2,[r4,#0x40]
        0x0001a978:    f2c40307    ....    MOVT     r3,#0x4007
        0x0001a97c:    4419        .D      ADD      r1,r1,r3
        0x0001a97e:    628a        .b      STR      r2,[r1,#0x28]
        0x0001a980:    6861        ah      LDR      r1,[r4,#4]
        0x0001a982:    6c62        bl      LDR      r2,[r4,#0x44]
        0x0001a984:    4419        .D      ADD      r1,r1,r3
        0x0001a986:    62ca        .b      STR      r2,[r1,#0x2c]
        0x0001a988:    6861        ah      LDR      r1,[r4,#4]
        0x0001a98a:    6ca2        .l      LDR      r2,[r4,#0x48]
        0x0001a98c:    4419        .D      ADD      r1,r1,r3
        0x0001a98e:    634a        Jc      STR      r2,[r1,#0x34]
        0x0001a990:    6861        ah      LDR      r1,[r4,#4]
        0x0001a992:    6ce2        .l      LDR      r2,[r4,#0x4c]
        0x0001a994:    4419        .D      ADD      r1,r1,r3
        0x0001a996:    638a        .c      STR      r2,[r1,#0x38]
        0x0001a998:    6861        ah      LDR      r1,[r4,#4]
        0x0001a99a:    6d22        "m      LDR      r2,[r4,#0x50]
        0x0001a99c:    4419        .D      ADD      r1,r1,r3
        0x0001a99e:    63ca        .c      STR      r2,[r1,#0x3c]
        0x0001a9a0:    f884003c    ..<.    STRB     r0,[r4,#0x3c]
        0x0001a9a4:    bdb0        ..      POP      {r4,r5,r7,pc}
        0x0001a9a6:    2006        .       MOVS     r0,#6
        0x0001a9a8:    bdb0        ..      POP      {r4,r5,r7,pc}
        0x0001a9aa:    2007        .       MOVS     r0,#7
        0x0001a9ac:    bdb0        ..      POP      {r4,r5,r7,pc}
        0x0001a9ae:    0000        ..      MOVS     r0,r0
    am_hal_sdhc_set_bus_clock
        0x0001a9b0:    b5f0        ..      PUSH     {r4-r7,lr}
        0x0001a9b2:    b081        ..      SUB      sp,sp,#4
        0x0001a9b4:    b160        `.      CBZ      r0,0x1a9d0 ; am_hal_sdhc_set_bus_clock + 32
        0x0001a9b6:    6802        .h      LDR      r2,[r0,#0]
        0x0001a9b8:    f24137b0    A..7    MOV      r7,#0x13b0
        0x0001a9bc:    f022437e    ".~C    BIC      r3,r2,#0xfe000000
        0x0001a9c0:    f2c01783    ....    MOVT     r7,#0x183
        0x0001a9c4:    42bb        .B      CMP      r3,r7
        0x0001a9c6:    d103        ..      BNE      0x1a9d0 ; am_hal_sdhc_set_bus_clock + 32
        0x0001a9c8:    0192        ..      LSLS     r2,r2,#6
        0x0001a9ca:    d404        ..      BMI      0x1a9d6 ; am_hal_sdhc_set_bus_clock + 38
        0x0001a9cc:    2007        .       MOVS     r0,#7
        0x0001a9ce:    e000        ..      B        0x1a9d2 ; am_hal_sdhc_set_bus_clock + 34
        0x0001a9d0:    2002        .       MOVS     r0,#2
        0x0001a9d2:    b001        ..      ADD      sp,sp,#4
        0x0001a9d4:    bdf0        ..      POP      {r4-r7,pc}
        0x0001a9d6:    6842        Bh      LDR      r2,[r0,#4]
        0x0001a9d8:    6904        .i      LDR      r4,[r0,#0x10]
        0x0001a9da:    f1024080    ...@    ADD      r0,r2,#0x40000000
        0x0001a9de:    69e2        .i      LDR      r2,[r4,#0x1c]
        0x0001a9e0:    f50025e0    ...%    ADD      r5,r0,#0x70000
        0x0001a9e4:    2001        .       MOVS     r0,#1
        0x0001a9e6:    bf00        ..      NOP      
        0x0001a9e8:    fbb2f6f0    ....    UDIV     r6,r2,r0
        0x0001a9ec:    428e        .B      CMP      r6,r1
        0x0001a9ee:    d906        ..      BLS      0x1a9fe ; am_hal_sdhc_set_bus_clock + 78
        0x0001a9f0:    0043        C.      LSLS     r3,r0,#1
        0x0001a9f2:    2881        .(      CMP      r0,#0x81
        0x0001a9f4:    4618        .F      MOV      r0,r3
        0x0001a9f6:    d3f7        ..      BCC      0x1a9e8 ; am_hal_sdhc_set_bus_clock + 56
        0x0001a9f8:    fbb2f6f3    ....    UDIV     r6,r2,r3
        0x0001a9fc:    4618        .F      MOV      r0,r3
        0x0001a9fe:    6961        ai      LDR      r1,[r4,#0x14]
        0x0001aa00:    42b1        .B      CMP      r1,r6
        0x0001aa02:    d020         .      BEQ      0x1aa46 ; am_hal_sdhc_set_bus_clock + 150
        0x0001aa04:    6ae9        .j      LDR      r1,[r5,#0x2c]
        0x0001aa06:    f3c00057    ..W.    UBFX     r0,r0,#1,#24
        0x0001aa0a:    f0210105    !...    BIC      r1,r1,#5
        0x0001aa0e:    62e9        .b      STR      r1,[r5,#0x2c]
        0x0001aa10:    6ae9        .j      LDR      r1,[r5,#0x2c]
        0x0001aa12:    f360210f    `..!    BFI      r1,r0,#8,#8
        0x0001aa16:    62e9        .b      STR      r1,[r5,#0x2c]
        0x0001aa18:    6ae8        .j      LDR      r0,[r5,#0x2c]
        0x0001aa1a:    f0400001    @...    ORR      r0,r0,#1
        0x0001aa1e:    62e8        .b      STR      r0,[r5,#0x2c]
        0x0001aa20:    6ae8        .j      LDR      r0,[r5,#0x2c]
        0x0001aa22:    0780        ..      LSLS     r0,r0,#30
        0x0001aa24:    d40a        ..      BMI      0x1aa3c ; am_hal_sdhc_set_bus_clock + 140
        0x0001aa26:    f46f777a    o.zw    MVN      r7,#0x3e8
        0x0001aa2a:    bf00        ..      NOP      
        0x0001aa2c:    3701        .7      ADDS     r7,#1
        0x0001aa2e:    d20c        ..      BCS      0x1aa4a ; am_hal_sdhc_set_bus_clock + 154
        0x0001aa30:    200a        .       MOVS     r0,#0xa
        0x0001aa32:    f000fc1f    ....    BL       am_util_delay_us ; 0x1b274
        0x0001aa36:    6ae8        .j      LDR      r0,[r5,#0x2c]
        0x0001aa38:    0780        ..      LSLS     r0,r0,#30
        0x0001aa3a:    d5f7        ..      BPL      0x1aa2c ; am_hal_sdhc_set_bus_clock + 124
        0x0001aa3c:    6ae8        .j      LDR      r0,[r5,#0x2c]
        0x0001aa3e:    f0400004    @...    ORR      r0,r0,#4
        0x0001aa42:    62e8        .b      STR      r0,[r5,#0x2c]
        0x0001aa44:    6166        fa      STR      r6,[r4,#0x14]
        0x0001aa46:    2000        .       MOVS     r0,#0
        0x0001aa48:    e7c3        ..      B        0x1a9d2 ; am_hal_sdhc_set_bus_clock + 34
        0x0001aa4a:    2001        .       MOVS     r0,#1
        0x0001aa4c:    e7c1        ..      B        0x1a9d2 ; am_hal_sdhc_set_bus_clock + 34
    am_hal_sdhc_set_bus_voltage
        0x0001aa4e:    b510        ..      PUSH     {r4,lr}
        0x0001aa50:    b320         .      CBZ      r0,0x1aa9c ; am_hal_sdhc_set_bus_voltage + 78
        0x0001aa52:    6802        .h      LDR      r2,[r0,#0]
        0x0001aa54:    f24133b0    A..3    MOV      r3,#0x13b0
        0x0001aa58:    f0224c7e    ".~L    BIC      r12,r2,#0xfe000000
        0x0001aa5c:    f2c01383    ....    MOVT     r3,#0x183
        0x0001aa60:    459c        .E      CMP      r12,r3
        0x0001aa62:    d11b        ..      BNE      0x1aa9c ; am_hal_sdhc_set_bus_voltage + 78
        0x0001aa64:    0192        ..      LSLS     r2,r2,#6
        0x0001aa66:    bf5c        \.      ITT      PL
        0x0001aa68:    2007        .       MOVPL    r0,#7
        0x0001aa6a:    bd10        ..      POPPL    {r4,pc}
        0x0001aa6c:    6902        .i      LDR      r2,[r0,#0x10]
        0x0001aa6e:    f2400c00    @...    MOVW     r12,#0
        0x0001aa72:    2902        .)      CMP      r1,#2
        0x0001aa74:    f2c40c07    ....    MOVT     r12,#0x4007
        0x0001aa78:    d807        ..      BHI      0x1aa8a ; am_hal_sdhc_set_bus_voltage + 60
        0x0001aa7a:    6843        Ch      LDR      r3,[r0,#4]
        0x0001aa7c:    1d4c        L.      ADDS     r4,r1,#5
        0x0001aa7e:    4463        cD      ADD      r3,r3,r12
        0x0001aa80:    f8d3e028    ..(.    LDR      lr,[r3,#0x28]
        0x0001aa84:    ea4e2444    N.D$    ORR      r4,lr,r4,LSL #9
        0x0001aa88:    629c        .b      STR      r4,[r3,#0x28]
        0x0001aa8a:    6840        @h      LDR      r0,[r0,#4]
        0x0001aa8c:    4460        `D      ADD      r0,r0,r12
        0x0001aa8e:    6a83        .j      LDR      r3,[r0,#0x28]
        0x0001aa90:    f4437380    C..s    ORR      r3,r3,#0x100
        0x0001aa94:    6283        .b      STR      r3,[r0,#0x28]
        0x0001aa96:    2000        .       MOVS     r0,#0
        0x0001aa98:    7311        .s      STRB     r1,[r2,#0xc]
        0x0001aa9a:    bd10        ..      POP      {r4,pc}
        0x0001aa9c:    2002        .       MOVS     r0,#2
        0x0001aa9e:    bd10        ..      POP      {r4,pc}
    am_hal_sdhc_set_bus_width
        0x0001aaa0:    b580        ..      PUSH     {r7,lr}
        0x0001aaa2:    b1e0        ..      CBZ      r0,0x1aade ; am_hal_sdhc_set_bus_width + 62
        0x0001aaa4:    6802        .h      LDR      r2,[r0,#0]
        0x0001aaa6:    f24133b0    A..3    MOV      r3,#0x13b0
        0x0001aaaa:    f0224c7e    ".~L    BIC      r12,r2,#0xfe000000
        0x0001aaae:    f2c01383    ....    MOVT     r3,#0x183
        0x0001aab2:    459c        .E      CMP      r12,r3
        0x0001aab4:    d113        ..      BNE      0x1aade ; am_hal_sdhc_set_bus_width + 62
        0x0001aab6:    0192        ..      LSLS     r2,r2,#6
        0x0001aab8:    bf5c        \.      ITT      PL
        0x0001aaba:    2007        .       MOVPL    r0,#7
        0x0001aabc:    bd80        ..      POPPL    {r7,pc}
        0x0001aabe:    f2400c00    @...    MOVW     r12,#0
        0x0001aac2:    6842        Bh      LDR      r2,[r0,#4]
        0x0001aac4:    f2c40c07    ....    MOVT     r12,#0x4007
        0x0001aac8:    eb02030c    ....    ADD      r3,r2,r12
        0x0001aacc:    f8d0e010    ....    LDR      lr,[r0,#0x10]
        0x0001aad0:    f8532f28    S.(/    LDR      r2,[r3,#0x28]!
        0x0001aad4:    2908        .)      CMP      r1,#8
        0x0001aad6:    d104        ..      BNE      0x1aae2 ; am_hal_sdhc_set_bus_width + 66
        0x0001aad8:    f0420020    B. .    ORR      r0,r2,#0x20
        0x0001aadc:    e00e        ..      B        0x1aafc ; am_hal_sdhc_set_bus_width + 92
        0x0001aade:    2002        .       MOVS     r0,#2
        0x0001aae0:    bd80        ..      POP      {r7,pc}
        0x0001aae2:    f0220220    ". .    BIC      r2,r2,#0x20
        0x0001aae6:    601a        .`      STR      r2,[r3,#0]
        0x0001aae8:    6840        @h      LDR      r0,[r0,#4]
        0x0001aaea:    2904        .)      CMP      r1,#4
        0x0001aaec:    eb00030c    ....    ADD      r3,r0,r12
        0x0001aaf0:    f8530f28    S.(.    LDR      r0,[r3,#0x28]!
        0x0001aaf4:    f0200002     ...    BIC      r0,r0,#2
        0x0001aaf8:    bf08        ..      IT       EQ
        0x0001aafa:    3002        .0      ADDEQ    r0,#2
        0x0001aafc:    6018        .`      STR      r0,[r3,#0]
        0x0001aafe:    2000        .       MOVS     r0,#0
        0x0001ab00:    f88e100b    ....    STRB     r1,[lr,#0xb]
        0x0001ab04:    bd80        ..      POP      {r7,pc}
    am_hal_sdhc_set_txrx_delay
        0x0001ab06:    f2404050    @.P@    MOVW     r0,#0x450
        0x0001ab0a:    f2c40002    ....    MOVT     r0,#0x4002
        0x0001ab0e:    6802        .h      LDR      r2,[r0,#0]
        0x0001ab10:    f0420204    B...    ORR      r2,r2,#4
        0x0001ab14:    6002        .`      STR      r2,[r0,#0]
        0x0001ab16:    780a        .x      LDRB     r2,[r1,#0]
        0x0001ab18:    6803        .h      LDR      r3,[r0,#0]
        0x0001ab1a:    f002020f    ....    AND      r2,r2,#0xf
        0x0001ab1e:    f4235370    #.pS    BIC      r3,r3,#0x3c00
        0x0001ab22:    ea432282    C.."    ORR      r2,r3,r2,LSL #10
        0x0001ab26:    6002        .`      STR      r2,[r0,#0]
        0x0001ab28:    6802        .h      LDR      r2,[r0,#0]
        0x0001ab2a:    f4427200    B..r    ORR      r2,r2,#0x200
        0x0001ab2e:    6002        .`      STR      r2,[r0,#0]
        0x0001ab30:    7849        Ix      LDRB     r1,[r1,#1]
        0x0001ab32:    6802        .h      LDR      r2,[r0,#0]
        0x0001ab34:    f001011f    ....    AND      r1,r1,#0x1f
        0x0001ab38:    f42272f8    "..r    BIC      r2,r2,#0x1f0
        0x0001ab3c:    ea421101    B...    ORR      r1,r2,r1,LSL #4
        0x0001ab40:    6001        .`      STR      r1,[r0,#0]
        0x0001ab42:    6801        .h      LDR      r1,[r0,#0]
        0x0001ab44:    f0410108    A...    ORR      r1,r1,#8
        0x0001ab48:    6001        .`      STR      r1,[r0,#0]
        0x0001ab4a:    6801        .h      LDR      r1,[r0,#0]
        0x0001ab4c:    f0210104    !...    BIC      r1,r1,#4
        0x0001ab50:    6001        .`      STR      r1,[r0,#0]
        0x0001ab52:    4770        pG      BX       lr
    am_hal_sdhc_set_uhs_mode
        0x0001ab54:    b580        ..      PUSH     {r7,lr}
        0x0001ab56:    b310        ..      CBZ      r0,0x1ab9e ; am_hal_sdhc_set_uhs_mode + 74
        0x0001ab58:    6802        .h      LDR      r2,[r0,#0]
        0x0001ab5a:    f24133b0    A..3    MOV      r3,#0x13b0
        0x0001ab5e:    f0224c7e    ".~L    BIC      r12,r2,#0xfe000000
        0x0001ab62:    f2c01383    ....    MOVT     r3,#0x183
        0x0001ab66:    459c        .E      CMP      r12,r3
        0x0001ab68:    d119        ..      BNE      0x1ab9e ; am_hal_sdhc_set_uhs_mode + 74
        0x0001ab6a:    0192        ..      LSLS     r2,r2,#6
        0x0001ab6c:    bf5c        \.      ITT      PL
        0x0001ab6e:    2007        .       MOVPL    r0,#7
        0x0001ab70:    bd80        ..      POPPL    {r7,pc}
        0x0001ab72:    6902        .i      LDR      r2,[r0,#0x10]
        0x0001ab74:    7b53        S{      LDRB     r3,[r2,#0xd]
        0x0001ab76:    428b        .B      CMP      r3,r1
        0x0001ab78:    d00f        ..      BEQ      0x1ab9a ; am_hal_sdhc_set_uhs_mode + 70
        0x0001ab7a:    6840        @h      LDR      r0,[r0,#4]
        0x0001ab7c:    f2400c3c    @.<.    MOVW     r12,#0x3c
        0x0001ab80:    f2c40c07    ....    MOVT     r12,#0x4007
        0x0001ab84:    f850300c    P..0    LDR      r3,[r0,r12]
        0x0001ab88:    f0010e07    ....    AND      lr,r1,#7
        0x0001ab8c:    f42323e0    #..#    BIC      r3,r3,#0x70000
        0x0001ab90:    ea43430e    C..C    ORR      r3,r3,lr,LSL #16
        0x0001ab94:    f840300c    @..0    STR      r3,[r0,r12]
        0x0001ab98:    7351        Qs      STRB     r1,[r2,#0xd]
        0x0001ab9a:    2000        .       MOVS     r0,#0
        0x0001ab9c:    bd80        ..      POP      {r7,pc}
        0x0001ab9e:    2002        .       MOVS     r0,#2
        0x0001aba0:    bd80        ..      POP      {r7,pc}
    am_hal_sdhc_setup_host
        0x0001aba2:    b160        `.      CBZ      r0,0x1abbe ; am_hal_sdhc_setup_host + 28
        0x0001aba4:    6802        .h      LDR      r2,[r0,#0]
        0x0001aba6:    f24133b0    A..3    MOV      r3,#0x13b0
        0x0001abaa:    f0224c7e    ".~L    BIC      r12,r2,#0xfe000000
        0x0001abae:    f2c01383    ....    MOVT     r3,#0x183
        0x0001abb2:    459c        .E      CMP      r12,r3
        0x0001abb4:    d103        ..      BNE      0x1abbe ; am_hal_sdhc_setup_host + 28
        0x0001abb6:    0192        ..      LSLS     r2,r2,#6
        0x0001abb8:    d404        ..      BMI      0x1abc4 ; am_hal_sdhc_setup_host + 34
        0x0001abba:    2207        ."      MOVS     r2,#7
        0x0001abbc:    e000        ..      B        0x1abc0 ; am_hal_sdhc_setup_host + 30
        0x0001abbe:    2202        ."      MOVS     r2,#2
        0x0001abc0:    4610        .F      MOV      r0,r2
        0x0001abc2:    4770        pG      BX       lr
        0x0001abc4:    f8d0c004    ....    LDR      r12,[r0,#4]
        0x0001abc8:    2240        @"      MOVS     r2,#0x40
        0x0001abca:    6101        .a      STR      r1,[r0,#0x10]
        0x0001abcc:    f2c40207    ....    MOVT     r2,#0x4007
        0x0001abd0:    f85c2002    \..     LDR      r2,[r12,r2]
        0x0001abd4:    0a13        ..      LSRS     r3,r2,#8
        0x0001abd6:    7303        .s      STRB     r3,[r0,#0xc]
        0x0001abd8:    23fc        .#      MOVS     r3,#0xfc
        0x0001abda:    f2c40307    ....    MOVT     r3,#0x4007
        0x0001abde:    f85c3003    \..0    LDR      r3,[r12,r3]
        0x0001abe2:    f3c22207    ..."    UBFX     r2,r2,#8,#8
        0x0001abe6:    0c1b        ..      LSRS     r3,r3,#16
        0x0001abe8:    760b        .v      STRB     r3,[r1,#0x18]
        0x0001abea:    f2442340    D.@#    MOV      r3,#0x4240
        0x0001abee:    f2c0030f    ....    MOVT     r3,#0xf
        0x0001abf2:    435a        ZC      MULS     r2,r3,r2
        0x0001abf4:    0a13        ..      LSRS     r3,r2,#8
        0x0001abf6:    e9c12307    ...#    STRD     r2,r3,[r1,#0x1c]
        0x0001abfa:    f2401303    @...    MOV      r3,#0x103
        0x0001abfe:    2200        ."      MOVS     r2,#0
        0x0001ac00:    814b        K.      STRH     r3,[r1,#0xa]
        0x0001ac02:    f44f63fe    O..c    MOV      r3,#0x7f0
        0x0001ac06:    734a        Js      STRB     r2,[r1,#0xd]
        0x0001ac08:    e9c13204    ...2    STRD     r3,r2,[r1,#0x10]
        0x0001ac0c:    2104        .!      MOVS     r1,#4
        0x0001ac0e:    f2c40107    ....    MOVT     r1,#0x4007
        0x0001ac12:    f85c1001    \...    LDR      r1,[r12,r1]
        0x0001ac16:    f44f5380    O..S    MOV      r3,#0x1000
        0x0001ac1a:    f3c13102    ...1    UBFX     r1,r1,#12,#3
        0x0001ac1e:    fa03f101    ....    LSL      r1,r3,r1
        0x0001ac22:    6081        .`      STR      r1,[r0,#8]
        0x0001ac24:    2101        .!      MOVS     r1,#1
        0x0001ac26:    f8801039    ..9.    STRB     r1,[r0,#0x39]
        0x0001ac2a:    e7c9        ..      B        0x1abc0 ; am_hal_sdhc_setup_host + 30
    am_hal_sdhc_software_reset
        0x0001ac2c:    b570        p.      PUSH     {r4-r6,lr}
        0x0001ac2e:    4604        .F      MOV      r4,r0
        0x0001ac30:    6a40        @j      LDR      r0,[r0,#0x24]
        0x0001ac32:    03c0        ..      LSLS     r0,r0,#15
        0x0001ac34:    f04f0001    O...    MOV      r0,#1
        0x0001ac38:    d514        ..      BPL      0x1ac64 ; am_hal_sdhc_software_reset + 56
        0x0001ac3a:    f1c1011a    ....    RSB      r1,r1,#0x1a
        0x0001ac3e:    6ae2        .j      LDR      r2,[r4,#0x2c]
        0x0001ac40:    fa00f501    ....    LSL      r5,r0,r1
        0x0001ac44:    ea420005    B...    ORR      r0,r2,r5
        0x0001ac48:    f06f0696    o...    MVN      r6,#0x96
        0x0001ac4c:    62e0        .b      STR      r0,[r4,#0x2c]
        0x0001ac4e:    bf00        ..      NOP      
        0x0001ac50:    2001        .       MOVS     r0,#1
        0x0001ac52:    3601        .6      ADDS     r6,#1
        0x0001ac54:    bf28        (.      IT       CS
        0x0001ac56:    bd70        p.      POPCS    {r4-r6,pc}
        0x0001ac58:    f000fb00    ....    BL       am_util_delay_ms ; 0x1b25c
        0x0001ac5c:    6ae0        .j      LDR      r0,[r4,#0x2c]
        0x0001ac5e:    4228        (B      TST      r0,r5
        0x0001ac60:    d1f6        ..      BNE      0x1ac50 ; am_hal_sdhc_software_reset + 36
        0x0001ac62:    2000        .       MOVS     r0,#0
        0x0001ac64:    bd70        p.      POP      {r4-r6,pc}
    am_hal_sdmmc_cmd5
        0x0001ac66:    b5f0        ..      PUSH     {r4-r7,lr}
        0x0001ac68:    b089        ..      SUB      sp,sp,#0x24
        0x0001ac6a:    466e        nF      MOV      r6,sp
        0x0001ac6c:    4604        .F      MOV      r4,r0
        0x0001ac6e:    f8d07274    ..tr    LDR      r7,[r0,#0x274]
        0x0001ac72:    460d        .F      MOV      r5,r1
        0x0001ac74:    4630        0F      MOV      r0,r6
        0x0001ac76:    2124        $!      MOVS     r1,#0x24
        0x0001ac78:    f7fdfb88    ....    BL       __aeabi_memclr4 ; 0x1838c
        0x0001ac7c:    7a20         z      LDRB     r0,[r4,#8]
        0x0001ac7e:    2105        .!      MOVS     r1,#5
        0x0001ac80:    0400        ..      LSLS     r0,r0,#16
        0x0001ac82:    f36530cf    e..0    BFI      r0,r5,#15,#1
        0x0001ac86:    9001        ..      STR      r0,[sp,#4]
        0x0001ac88:    201d        .       MOVS     r0,#0x1d
        0x0001ac8a:    f88d1000    ....    STRB     r1,[sp,#0]
        0x0001ac8e:    9002        ..      STR      r0,[sp,#8]
        0x0001ac90:    2001        .       MOVS     r0,#1
        0x0001ac92:    6e39        9n      LDR      r1,[r7,#0x60]
        0x0001ac94:    f88d000c    ....    STRB     r0,[sp,#0xc]
        0x0001ac98:    6838        8h      LDR      r0,[r7,#0]
        0x0001ac9a:    68cb        .h      LDR      r3,[r1,#0xc]
        0x0001ac9c:    4631        1F      MOV      r1,r6
        0x0001ac9e:    2200        ."      MOVS     r2,#0
        0x0001aca0:    4798        .G      BLX      r3
        0x0001aca2:    b960        `.      CBNZ     r0,0x1acbe ; am_hal_sdmmc_cmd5 + 88
        0x0001aca4:    f89d0020    .. .    LDRB     r0,[sp,#0x20]
        0x0001aca8:    b920         .      CBNZ     r0,0x1acb4 ; am_hal_sdmmc_cmd5 + 78
        0x0001acaa:    2005        .       MOVS     r0,#5
        0x0001acac:    2d00        .-      CMP      r5,#0
        0x0001acae:    bf18        ..      IT       NE
        0x0001acb0:    200c        .       MOVNE    r0,#0xc
        0x0001acb2:    7060        `p      STRB     r0,[r4,#1]
        0x0001acb4:    6e39        9n      LDR      r1,[r7,#0x60]
        0x0001acb6:    6838        8h      LDR      r0,[r7,#0]
        0x0001acb8:    6a8a        .j      LDR      r2,[r1,#0x28]
        0x0001acba:    2114        .!      MOVS     r1,#0x14
        0x0001acbc:    4790        .G      BLX      r2
        0x0001acbe:    b009        ..      ADD      sp,sp,#0x24
        0x0001acc0:    bdf0        ..      POP      {r4-r7,pc}
    am_hal_sdmmc_cmd7_card_select
        0x0001acc2:    b570        p.      PUSH     {r4-r6,lr}
        0x0001acc4:    b08a        ..      SUB      sp,sp,#0x28
        0x0001acc6:    ad01        ..      ADD      r5,sp,#4
        0x0001acc8:    4604        .F      MOV      r4,r0
        0x0001acca:    f8d06274    ..tb    LDR      r6,[r0,#0x274]
        0x0001acce:    4628        (F      MOV      r0,r5
        0x0001acd0:    2124        $!      MOVS     r1,#0x24
        0x0001acd2:    f7fdfb5b    ..[.    BL       __aeabi_memclr4 ; 0x1838c
        0x0001acd6:    7a21        !z      LDRB     r1,[r4,#8]
        0x0001acd8:    2007        .       MOVS     r0,#7
        0x0001acda:    f88d0004    ....    STRB     r0,[sp,#4]
        0x0001acde:    0408        ..      LSLS     r0,r1,#16
        0x0001ace0:    9002        ..      STR      r0,[sp,#8]
        0x0001ace2:    2900        .)      CMP      r1,#0
        0x0001ace4:    bf18        ..      IT       NE
        0x0001ace6:    2115        .!      MOVNE    r1,#0x15
        0x0001ace8:    6e30        0n      LDR      r0,[r6,#0x60]
        0x0001acea:    9103        ..      STR      r1,[sp,#0xc]
        0x0001acec:    68c3        .h      LDR      r3,[r0,#0xc]
        0x0001acee:    6830        0h      LDR      r0,[r6,#0]
        0x0001acf0:    4629        )F      MOV      r1,r5
        0x0001acf2:    2200        ."      MOVS     r2,#0
        0x0001acf4:    4798        .G      BLX      r3
        0x0001acf6:    f89d0024    ..$.    LDRB     r0,[sp,#0x24]
        0x0001acfa:    b928        (.      CBNZ     r0,0x1ad08 ; am_hal_sdmmc_cmd7_card_select + 70
        0x0001acfc:    7a21        !z      LDRB     r1,[r4,#8]
        0x0001acfe:    2206        ."      MOVS     r2,#6
        0x0001ad00:    2900        .)      CMP      r1,#0
        0x0001ad02:    bf08        ..      IT       EQ
        0x0001ad04:    2205        ."      MOVEQ    r2,#5
        0x0001ad06:    7062        bp      STRB     r2,[r4,#1]
        0x0001ad08:    b00a        ..      ADD      sp,sp,#0x28
        0x0001ad0a:    bd70        p.      POP      {r4-r6,pc}
    am_hal_sdmmc_cmd8_send_ext_csd
        0x0001ad0c:    b5f0        ..      PUSH     {r4-r7,lr}
        0x0001ad0e:    b08f        ..      SUB      sp,sp,#0x3c
        0x0001ad10:    ad06        ..      ADD      r5,sp,#0x18
        0x0001ad12:    4604        .F      MOV      r4,r0
        0x0001ad14:    f8d07274    ..tr    LDR      r7,[r0,#0x274]
        0x0001ad18:    4628        (F      MOV      r0,r5
        0x0001ad1a:    2124        $!      MOVS     r1,#0x24
        0x0001ad1c:    f7fdfb36    ..6.    BL       __aeabi_memclr4 ; 0x1838c
        0x0001ad20:    ae01        ..      ADD      r6,sp,#4
        0x0001ad22:    4630        0F      MOV      r0,r6
        0x0001ad24:    2114        .!      MOVS     r1,#0x14
        0x0001ad26:    f7fdfb31    ..1.    BL       __aeabi_memclr4 ; 0x1838c
        0x0001ad2a:    7a21        !z      LDRB     r1,[r4,#8]
        0x0001ad2c:    2008        .       MOVS     r0,#8
        0x0001ad2e:    f88d0018    ....    STRB     r0,[sp,#0x18]
        0x0001ad32:    0408        ..      LSLS     r0,r1,#16
        0x0001ad34:    9007        ..      STR      r0,[sp,#0x1c]
        0x0001ad36:    2015        .       MOVS     r0,#0x15
        0x0001ad38:    9008        ..      STR      r0,[sp,#0x20]
        0x0001ad3a:    f104002c    ..,.    ADD      r0,r4,#0x2c
        0x0001ad3e:    9002        ..      STR      r0,[sp,#8]
        0x0001ad40:    2001        .       MOVS     r0,#1
        0x0001ad42:    9004        ..      STR      r0,[sp,#0x10]
        0x0001ad44:    f44f7000    O..p    MOV      r0,#0x200
        0x0001ad48:    9003        ..      STR      r0,[sp,#0xc]
        0x0001ad4a:    2000        .       MOVS     r0,#0
        0x0001ad4c:    6e39        9n      LDR      r1,[r7,#0x60]
        0x0001ad4e:    f88d0004    ....    STRB     r0,[sp,#4]
        0x0001ad52:    6838        8h      LDR      r0,[r7,#0]
        0x0001ad54:    68cb        .h      LDR      r3,[r1,#0xc]
        0x0001ad56:    4629        )F      MOV      r1,r5
        0x0001ad58:    4632        2F      MOV      r2,r6
        0x0001ad5a:    4798        .G      BLX      r3
        0x0001ad5c:    f89d0038    ..8.    LDRB     r0,[sp,#0x38]
        0x0001ad60:    b918        ..      CBNZ     r0,0x1ad6a ; am_hal_sdmmc_cmd8_send_ext_csd + 94
        0x0001ad62:    78a1        .x      LDRB     r1,[r4,#2]
        0x0001ad64:    f0410104    A...    ORR      r1,r1,#4
        0x0001ad68:    70a1        .p      STRB     r1,[r4,#2]
        0x0001ad6a:    b00f        ..      ADD      sp,sp,#0x3c
        0x0001ad6c:    bdf0        ..      POP      {r4-r7,pc}
    am_hal_timer_clear
        0x0001ad6e:    b510        ..      PUSH     {r4,lr}
        0x0001ad70:    b082        ..      SUB      sp,sp,#8
        0x0001ad72:    4604        .F      MOV      r4,r0
        0x0001ad74:    f7fefcba    ....    BL       am_hal_interrupt_master_disable ; 0x196ec
        0x0001ad78:    f2481104    H...    MOV      r1,#0x8104
        0x0001ad7c:    9001        ..      STR      r0,[sp,#4]
        0x0001ad7e:    f2c40100    ....    MOVT     r1,#0x4000
        0x0001ad82:    2001        .       MOVS     r0,#1
        0x0001ad84:    680a        .h      LDR      r2,[r1,#0]
        0x0001ad86:    40a0        .@      LSLS     r0,r0,r4
        0x0001ad88:    4382        .C      BICS     r2,r2,r0
        0x0001ad8a:    600a        .`      STR      r2,[r1,#0]
        0x0001ad8c:    eb011244    ..D.    ADD      r2,r1,r4,LSL #5
        0x0001ad90:    f8d230fc    ...0    LDR      r3,[r2,#0xfc]
        0x0001ad94:    f0230301    #...    BIC      r3,r3,#1
        0x0001ad98:    f8c230fc    ...0    STR      r3,[r2,#0xfc]
        0x0001ad9c:    f8d230fc    ...0    LDR      r3,[r2,#0xfc]
        0x0001ada0:    f0430302    C...    ORR      r3,r3,#2
        0x0001ada4:    f8c230fc    ...0    STR      r3,[r2,#0xfc]
        0x0001ada8:    f8d230fc    ...0    LDR      r3,[r2,#0xfc]
        0x0001adac:    f0430301    C...    ORR      r3,r3,#1
        0x0001adb0:    f8c230fc    ...0    STR      r3,[r2,#0xfc]
        0x0001adb4:    680a        .h      LDR      r2,[r1,#0]
        0x0001adb6:    4310        .C      ORRS     r0,r0,r2
        0x0001adb8:    6008        .`      STR      r0,[r1,#0]
        0x0001adba:    9801        ..      LDR      r0,[sp,#4]
        0x0001adbc:    f7fefc9e    ....    BL       am_hal_interrupt_master_set ; 0x196fc
        0x0001adc0:    2000        .       MOVS     r0,#0
        0x0001adc2:    b002        ..      ADD      sp,sp,#8
        0x0001adc4:    bd10        ..      POP      {r4,pc}
    am_hal_timer_clear_stop
        0x0001adc6:    b510        ..      PUSH     {r4,lr}
        0x0001adc8:    b082        ..      SUB      sp,sp,#8
        0x0001adca:    4604        .F      MOV      r4,r0
        0x0001adcc:    f7fefc8e    ....    BL       am_hal_interrupt_master_disable ; 0x196ec
        0x0001add0:    f2481104    H...    MOV      r1,#0x8104
        0x0001add4:    9001        ..      STR      r0,[sp,#4]
        0x0001add6:    f2c40100    ....    MOVT     r1,#0x4000
        0x0001adda:    2001        .       MOVS     r0,#1
        0x0001addc:    680a        .h      LDR      r2,[r1,#0]
        0x0001adde:    40a0        .@      LSLS     r0,r0,r4
        0x0001ade0:    ea220000    "...    BIC      r0,r2,r0
        0x0001ade4:    6008        .`      STR      r0,[r1,#0]
        0x0001ade6:    eb011044    ..D.    ADD      r0,r1,r4,LSL #5
        0x0001adea:    f8d010fc    ....    LDR      r1,[r0,#0xfc]
        0x0001adee:    f0210101    !...    BIC      r1,r1,#1
        0x0001adf2:    f8c010fc    ....    STR      r1,[r0,#0xfc]
        0x0001adf6:    f8d010fc    ....    LDR      r1,[r0,#0xfc]
        0x0001adfa:    f0410102    A...    ORR      r1,r1,#2
        0x0001adfe:    f8c010fc    ....    STR      r1,[r0,#0xfc]
        0x0001ae02:    f8d010fc    ....    LDR      r1,[r0,#0xfc]
        0x0001ae06:    f0410101    A...    ORR      r1,r1,#1
        0x0001ae0a:    f8c010fc    ....    STR      r1,[r0,#0xfc]
        0x0001ae0e:    9801        ..      LDR      r0,[sp,#4]
        0x0001ae10:    f7fefc74    ..t.    BL       am_hal_interrupt_master_set ; 0x196fc
        0x0001ae14:    2000        .       MOVS     r0,#0
        0x0001ae16:    b002        ..      ADD      sp,sp,#8
        0x0001ae18:    bd10        ..      POP      {r4,pc}
    am_hal_timer_default_config_set
        0x0001ae1a:    4601        .F      MOV      r1,r0
        0x0001ae1c:    f2401001    @...    MOV      r0,#0x101
        0x0001ae20:    8008        ..      STRH     r0,[r1,#0]
        0x0001ae22:    f04f7080    O..p    MOV      r0,#0x1000000
        0x0001ae26:    f04f32ff    O..2    MOV      r2,#0xffffffff
        0x0001ae2a:    f8c10002    ....    STR      r0,[r1,#2]
        0x0001ae2e:    2000        .       MOVS     r0,#0
        0x0001ae30:    e9c10202    ....    STRD     r0,r2,[r1,#8]
        0x0001ae34:    2000        .       MOVS     r0,#0
        0x0001ae36:    610a        .a      STR      r2,[r1,#0x10]
        0x0001ae38:    4770        pG      BX       lr
    am_hal_timer_disable
        0x0001ae3a:    b510        ..      PUSH     {r4,lr}
        0x0001ae3c:    b082        ..      SUB      sp,sp,#8
        0x0001ae3e:    4604        .F      MOV      r4,r0
        0x0001ae40:    f7fefc54    ..T.    BL       am_hal_interrupt_master_disable ; 0x196ec
        0x0001ae44:    f2481104    H...    MOV      r1,#0x8104
        0x0001ae48:    9001        ..      STR      r0,[sp,#4]
        0x0001ae4a:    f2c40100    ....    MOVT     r1,#0x4000
        0x0001ae4e:    2001        .       MOVS     r0,#1
        0x0001ae50:    680a        .h      LDR      r2,[r1,#0]
        0x0001ae52:    40a0        .@      LSLS     r0,r0,r4
        0x0001ae54:    ea220000    "...    BIC      r0,r2,r0
        0x0001ae58:    6008        .`      STR      r0,[r1,#0]
        0x0001ae5a:    eb011044    ..D.    ADD      r0,r1,r4,LSL #5
        0x0001ae5e:    f8d010fc    ....    LDR      r1,[r0,#0xfc]
        0x0001ae62:    f0210101    !...    BIC      r1,r1,#1
        0x0001ae66:    f8c010fc    ....    STR      r1,[r0,#0xfc]
        0x0001ae6a:    9801        ..      LDR      r0,[sp,#4]
        0x0001ae6c:    f7fefc46    ..F.    BL       am_hal_interrupt_master_set ; 0x196fc
        0x0001ae70:    2000        .       MOVS     r0,#0
        0x0001ae72:    b002        ..      ADD      sp,sp,#8
        0x0001ae74:    bd10        ..      POP      {r4,pc}
    am_hal_timer_enable
        0x0001ae76:    b510        ..      PUSH     {r4,lr}
        0x0001ae78:    b082        ..      SUB      sp,sp,#8
        0x0001ae7a:    4604        .F      MOV      r4,r0
        0x0001ae7c:    f7fefc36    ..6.    BL       am_hal_interrupt_master_disable ; 0x196ec
        0x0001ae80:    f2480110    H...    MOV      r1,#0x8010
        0x0001ae84:    9001        ..      STR      r0,[sp,#4]
        0x0001ae86:    f2c40100    ....    MOVT     r1,#0x4000
        0x0001ae8a:    2001        .       MOVS     r0,#1
        0x0001ae8c:    f8d120f4    ...     LDR      r2,[r1,#0xf4]
        0x0001ae90:    40a0        .@      LSLS     r0,r0,r4
        0x0001ae92:    4382        .C      BICS     r2,r2,r0
        0x0001ae94:    f8c120f4    ...     STR      r2,[r1,#0xf4]
        0x0001ae98:    680a        .h      LDR      r2,[r1,#0]
        0x0001ae9a:    4302        .C      ORRS     r2,r2,r0
        0x0001ae9c:    600a        .`      STR      r2,[r1,#0]
        0x0001ae9e:    eb011244    ..D.    ADD      r2,r1,r4,LSL #5
        0x0001aea2:    f8d231f0    ...1    LDR      r3,[r2,#0x1f0]
        0x0001aea6:    f0430301    C...    ORR      r3,r3,#1
        0x0001aeaa:    f8c231f0    ...1    STR      r3,[r2,#0x1f0]
        0x0001aeae:    f8d120f4    ...     LDR      r2,[r1,#0xf4]
        0x0001aeb2:    4310        .C      ORRS     r0,r0,r2
        0x0001aeb4:    f8c100f4    ....    STR      r0,[r1,#0xf4]
        0x0001aeb8:    9801        ..      LDR      r0,[sp,#4]
        0x0001aeba:    f7fefc1f    ....    BL       am_hal_interrupt_master_set ; 0x196fc
        0x0001aebe:    2000        .       MOVS     r0,#0
        0x0001aec0:    b002        ..      ADD      sp,sp,#8
        0x0001aec2:    bd10        ..      POP      {r4,pc}
    am_hal_timer_enable_sync
        0x0001aec4:    b5b0        ..      PUSH     {r4,r5,r7,lr}
        0x0001aec6:    b082        ..      SUB      sp,sp,#8
        0x0001aec8:    f2480510    H...    MOV      r5,#0x8010
        0x0001aecc:    4604        .F      MOV      r4,r0
        0x0001aece:    f2c40500    ....    MOVT     r5,#0x4000
        0x0001aed2:    f7fefc0b    ....    BL       am_hal_interrupt_master_disable ; 0x196ec
        0x0001aed6:    9001        ..      STR      r0,[sp,#4]
        0x0001aed8:    6828        (h      LDR      r0,[r5,#0]
        0x0001aeda:    f04f0c01    O...    MOV      r12,#1
        0x0001aede:    ea200104     ...    BIC      r1,r0,r4
        0x0001aee2:    4628        (F      MOV      r0,r5
        0x0001aee4:    f8401910    @...    STR      r1,[r0],#-0x10
        0x0001aee8:    2100        .!      MOVS     r1,#0
        0x0001aeea:    bf00        ..      NOP      
        0x0001aeec:    fa0cf301    ....    LSL      r3,r12,r1
        0x0001aef0:    4223        #B      TST      r3,r4
        0x0001aef2:    d00f        ..      BEQ      0x1af14 ; am_hal_timer_enable_sync + 80
        0x0001aef4:    f8d520f4    ...     LDR      r2,[r5,#0xf4]
        0x0001aef8:    439a        .C      BICS     r2,r2,r3
        0x0001aefa:    f8c520f4    ...     STR      r2,[r5,#0xf4]
        0x0001aefe:    f8d02200    ..."    LDR      r2,[r0,#0x200]
        0x0001af02:    f0420201    B...    ORR      r2,r2,#1
        0x0001af06:    f8c02200    ..."    STR      r2,[r0,#0x200]
        0x0001af0a:    f8d520f4    ...     LDR      r2,[r5,#0xf4]
        0x0001af0e:    431a        .C      ORRS     r2,r2,r3
        0x0001af10:    f8c520f4    ...     STR      r2,[r5,#0xf4]
        0x0001af14:    3101        .1      ADDS     r1,#1
        0x0001af16:    2910        .)      CMP      r1,#0x10
        0x0001af18:    f1000020    .. .    ADD      r0,r0,#0x20
        0x0001af1c:    d1e6        ..      BNE      0x1aeec ; am_hal_timer_enable_sync + 40
        0x0001af1e:    6828        (h      LDR      r0,[r5,#0]
        0x0001af20:    4320         C      ORRS     r0,r0,r4
        0x0001af22:    6028        (`      STR      r0,[r5,#0]
        0x0001af24:    9801        ..      LDR      r0,[sp,#4]
        0x0001af26:    f7fefbe9    ....    BL       am_hal_interrupt_master_set ; 0x196fc
        0x0001af2a:    2000        .       MOVS     r0,#0
        0x0001af2c:    b002        ..      ADD      sp,sp,#8
        0x0001af2e:    bdb0        ..      POP      {r4,r5,r7,pc}
    am_hal_timer_interrupt_clear
        0x0001af30:    f2480268    H.h.    MOV      r2,#0x8068
        0x0001af34:    4601        .F      MOV      r1,r0
        0x0001af36:    f2c40200    ....    MOVT     r2,#0x4000
        0x0001af3a:    2000        .       MOVS     r0,#0
        0x0001af3c:    6011        .`      STR      r1,[r2,#0]
        0x0001af3e:    4770        pG      BX       lr
    am_hal_timer_interrupt_enable
        0x0001af40:    210c        .!      MOVS     r1,#0xc
        0x0001af42:    f2c40102    ....    MOVT     r1,#0x4002
        0x0001af46:    6809        .h      LDR      r1,[r1,#0]
        0x0001af48:    f00101fe    ....    AND      r1,r1,#0xfe
        0x0001af4c:    2922        ")      CMP      r1,#0x22
        0x0001af4e:    d316        ..      BCC      0x1af7e ; am_hal_timer_interrupt_enable + 62
        0x0001af50:    f2410c60    A.`.    MOVW     r12,#0x1060
        0x0001af54:    2100        .!      MOVS     r1,#0
        0x0001af56:    f2c10c00    ....    MOVT     r12,#0x1000
        0x0001af5a:    4603        .F      MOV      r3,r0
        0x0001af5c:    07da        ..      LSLS     r2,r3,#31
        0x0001af5e:    d003        ..      BEQ      0x1af68 ; am_hal_timer_interrupt_enable + 40
        0x0001af60:    eb0c0281    ....    ADD      r2,r12,r1,LSL #2
        0x0001af64:    7852        Rx      LDRB     r2,[r2,#1]
        0x0001af66:    b19a        ..      CBZ      r2,0x1af90 ; am_hal_timer_interrupt_enable + 80
        0x0001af68:    079a        ..      LSLS     r2,r3,#30
        0x0001af6a:    d503        ..      BPL      0x1af74 ; am_hal_timer_interrupt_enable + 52
        0x0001af6c:    eb0c0281    ....    ADD      r2,r12,r1,LSL #2
        0x0001af70:    78d2        .x      LDRB     r2,[r2,#3]
        0x0001af72:    b16a        j.      CBZ      r2,0x1af90 ; am_hal_timer_interrupt_enable + 80
        0x0001af74:    3101        .1      ADDS     r1,#1
        0x0001af76:    2910        .)      CMP      r1,#0x10
        0x0001af78:    ea4f0393    O...    LSR      r3,r3,#2
        0x0001af7c:    d1ee        ..      BNE      0x1af5c ; am_hal_timer_interrupt_enable + 28
        0x0001af7e:    f2480160    H.`.    MOV      r1,#0x8060
        0x0001af82:    f2c40100    ....    MOVT     r1,#0x4000
        0x0001af86:    680a        .h      LDR      r2,[r1,#0]
        0x0001af88:    4310        .C      ORRS     r0,r0,r2
        0x0001af8a:    6008        .`      STR      r0,[r1,#0]
        0x0001af8c:    2000        .       MOVS     r0,#0
        0x0001af8e:    4770        pG      BX       lr
        0x0001af90:    2006        .       MOVS     r0,#6
        0x0001af92:    4770        pG      BX       lr
    am_hal_timer_interrupt_status_get
        0x0001af94:    f2480360    H.`.    MOV      r3,#0x8060
        0x0001af98:    f2c40300    ....    MOVT     r3,#0x4000
        0x0001af9c:    685a        Zh      LDR      r2,[r3,#4]
        0x0001af9e:    b108        ..      CBZ      r0,0x1afa4 ; am_hal_timer_interrupt_status_get + 16
        0x0001afa0:    6818        .h      LDR      r0,[r3,#0]
        0x0001afa2:    4002        .@      ANDS     r2,r2,r0
        0x0001afa4:    2000        .       MOVS     r0,#0
        0x0001afa6:    600a        .`      STR      r2,[r1,#0]
        0x0001afa8:    4770        pG      BX       lr
    am_hal_timer_read
        0x0001afaa:    b580        ..      PUSH     {r7,lr}
        0x0001afac:    b084        ..      SUB      sp,sp,#0x10
        0x0001afae:    f2482104    H..!    MOV      r1,#0x8204
        0x0001afb2:    f2c40100    ....    MOVT     r1,#0x4000
        0x0001afb6:    eb011040    ..@.    ADD      r0,r1,r0,LSL #5
        0x0001afba:    a901        ..      ADD      r1,sp,#4
        0x0001afbc:    f000f87c    ..|.    BL       am_hal_triple_read ; 0x1b0b8
        0x0001afc0:    e9dd1201    ....    LDRD     r1,r2,[sp,#4]
        0x0001afc4:    9803        ..      LDR      r0,[sp,#0xc]
        0x0001afc6:    4291        .B      CMP      r1,r2
        0x0001afc8:    bf08        ..      IT       EQ
        0x0001afca:    4608        .F      MOVEQ    r0,r1
        0x0001afcc:    b004        ..      ADD      sp,sp,#0x10
        0x0001afce:    bd80        ..      POP      {r7,pc}
    am_hal_timer_reset_config
        0x0001afd0:    b5f0        ..      PUSH     {r4-r7,lr}
        0x0001afd2:    b081        ..      SUB      sp,sp,#4
        0x0001afd4:    f2480660    H.`.    MOV      r6,#0x8060
        0x0001afd8:    f2c40600    ....    MOVT     r6,#0x4000
        0x0001afdc:    4604        .F      MOV      r4,r0
        0x0001afde:    0040        @.      LSLS     r0,r0,#1
        0x0001afe0:    2103        .!      MOVS     r1,#3
        0x0001afe2:    6832        2h      LDR      r2,[r6,#0]
        0x0001afe4:    fa01f700    ....    LSL      r7,r1,r0
        0x0001afe8:    ea220007    "...    BIC      r0,r2,r7
        0x0001afec:    6030        0`      STR      r0,[r6,#0]
        0x0001afee:    2001        .       MOVS     r0,#1
        0x0001aff0:    fa00f504    ....    LSL      r5,r0,r4
        0x0001aff4:    4628        (F      MOV      r0,r5
        0x0001aff6:    f7ffff65    ..e.    BL       am_hal_timer_enable_sync ; 0x1aec4
        0x0001affa:    4620         F      MOV      r0,r4
        0x0001affc:    f7ffff1d    ....    BL       am_hal_timer_disable ; 0x1ae3a
        0x0001b000:    f8d600a4    ....    LDR      r0,[r6,#0xa4]
        0x0001b004:    2100        .!      MOVS     r1,#0
        0x0001b006:    43a8        .C      BICS     r0,r0,r5
        0x0001b008:    f8c600a4    ....    STR      r0,[r6,#0xa4]
        0x0001b00c:    eb061044    ..D.    ADD      r0,r6,r4,LSL #5
        0x0001b010:    f8c011a0    ....    STR      r1,[r0,#0x1a0]
        0x0001b014:    f8c011a4    ....    STR      r1,[r0,#0x1a4]
        0x0001b018:    f8c011a8    ....    STR      r1,[r0,#0x1a8]
        0x0001b01c:    f8c011ac    ....    STR      r1,[r0,#0x1ac]
        0x0001b020:    f8c011b0    ....    STR      r1,[r0,#0x1b0]
        0x0001b024:    f8d600a4    ....    LDR      r0,[r6,#0xa4]
        0x0001b028:    f2410260    A.`.    MOVW     r2,#0x1060
        0x0001b02c:    4328        (C      ORRS     r0,r0,r5
        0x0001b02e:    f2c10200    ....    MOVT     r2,#0x1000
        0x0001b032:    f8c600a4    ....    STR      r0,[r6,#0xa4]
        0x0001b036:    60b7        .`      STR      r7,[r6,#8]
        0x0001b038:    2000        .       MOVS     r0,#0
        0x0001b03a:    f8421024    B.$.    STR      r1,[r2,r4,LSL #2]
        0x0001b03e:    b001        ..      ADD      sp,sp,#4
        0x0001b040:    bdf0        ..      POP      {r4-r7,pc}
    am_hal_tpiu_enable
        0x0001b042:    b580        ..      PUSH     {r7,lr}
        0x0001b044:    f24a3280    J..2    MOV      r2,#0xa380
        0x0001b048:    2104        .!      MOVS     r1,#4
        0x0001b04a:    f5a04361    ..aC    SUB      r3,r0,#0xe100
        0x0001b04e:    f2c0021d    ....    MOVT     r2,#0x1d
        0x0001b052:    f2ce0104    ....    MOVT     r1,#0xe004
        0x0001b056:    f04f0e00    O...    MOV      lr,#0
        0x0001b05a:    4293        .B      CMP      r3,r2
        0x0001b05c:    f2436200    C..b    MOVW     r2,#0x3600
        0x0001b060:    f8c1e300    ....    STR      lr,[r1,#0x300]
        0x0001b064:    bf84        ..      ITT      HI
        0x0001b066:    f2442040    D.@     MOVHI    r0,#0x4240
        0x0001b06a:    f2c0000f    ....    MOVTHI   r0,#0xf
        0x0001b06e:    f2c0126e    ..n.    MOVT     r2,#0x16e
        0x0001b072:    fbb2f0f0    ....    UDIV     r0,r2,r0
        0x0001b076:    f04f0c01    O...    MOV      r12,#1
        0x0001b07a:    3801        .8      SUBS     r0,#1
        0x0001b07c:    b280        ..      UXTH     r0,r0
        0x0001b07e:    f8c1c000    ....    STR      r12,[r1,#0]
        0x0001b082:    60c8        .`      STR      r0,[r1,#0xc]
        0x0001b084:    2002        .       MOVS     r0,#2
        0x0001b086:    f8c100ec    ....    STR      r0,[r1,#0xec]
        0x0001b08a:    f6407000    @..p    MOVW     r0,#0xf00
        0x0001b08e:    f2ce0004    ....    MOVT     r0,#0xe004
        0x0001b092:    f2402150    @.P!    MOVW     r1,#0x250
        0x0001b096:    f8c0e000    ....    STR      lr,[r0,#0]
        0x0001b09a:    f2c40102    ....    MOVT     r1,#0x4002
        0x0001b09e:    6808        .h      LDR      r0,[r1,#0]
        0x0001b0a0:    f36c0043    l.C.    BFI      r0,r12,#1,#3
        0x0001b0a4:    6008        .`      STR      r0,[r1,#0]
        0x0001b0a6:    6808        .h      LDR      r0,[r1,#0]
        0x0001b0a8:    f0400201    @...    ORR      r2,r0,#1
        0x0001b0ac:    2064        d       MOVS     r0,#0x64
        0x0001b0ae:    600a        .`      STR      r2,[r1,#0]
        0x0001b0b0:    e8bd4080    ...@    POP      {r7,lr}
        0x0001b0b4:    f7feb9c8    ....    B        am_hal_delay_us ; 0x19448
    am_hal_triple_read
        0x0001b0b8:    b510        ..      PUSH     {r4,lr}
        0x0001b0ba:    468c        .F      MOV      r12,r1
        0x0001b0bc:    4686        .F      MOV      lr,r0
        0x0001b0be:    b412        ..      PUSH     {r1,r4}
        0x0001b0c0:    f3ef8410    ....    MRS      r4,PRIMASK
        0x0001b0c4:    b672        r.      CPSID    i
        0x0001b0c6:    bf00        ..      NOP      
        0x0001b0c8:    6801        .h      LDR      r1,[r0,#0]
        0x0001b0ca:    6802        .h      LDR      r2,[r0,#0]
        0x0001b0cc:    6803        .h      LDR      r3,[r0,#0]
        0x0001b0ce:    f3848810    ....    MSR      PRIMASK,r4
        0x0001b0d2:    bc11        ..      POP      {r0,r4}
        0x0001b0d4:    6001        .`      STR      r1,[r0,#0]
        0x0001b0d6:    6042        B`      STR      r2,[r0,#4]
        0x0001b0d8:    6083        .`      STR      r3,[r0,#8]
        0x0001b0da:    bd10        ..      POP      {r4,pc}
    am_hal_util_write_and_wait
        0x0001b0dc:    e92d4ff0    -..O    PUSH     {r4-r11,lr}
        0x0001b0e0:    b087        ..      SUB      sp,sp,#0x1c
        0x0001b0e2:    461f        .F      MOV      r7,r3
        0x0001b0e4:    4614        .F      MOV      r4,r2
        0x0001b0e6:    460e        .F      MOV      r6,r1
        0x0001b0e8:    4680        .F      MOV      r8,r0
        0x0001b0ea:    f7fefaff    ....    BL       am_hal_interrupt_master_disable ; 0x196ec
        0x0001b0ee:    ad02        ..      ADD      r5,sp,#8
        0x0001b0f0:    9001        ..      STR      r0,[sp,#4]
        0x0001b0f2:    4628        (F      MOV      r0,r5
        0x0001b0f4:    f7fffe91    ....    BL       am_hal_timer_default_config_set ; 0x1ae1a
        0x0001b0f8:    f6485080    H..P    MOV      r0,#0x8d80
        0x0001b0fc:    f2c0005b    ..[.    MOVT     r0,#0x5b
        0x0001b100:    f64d6183    M..a    MOV      r1,#0xde83
        0x0001b104:    4378        xC      MULS     r0,r7,r0
        0x0001b106:    f2c4311b    ...1    MOVT     r1,#0x431b
        0x0001b10a:    fba00101    ....    UMULL    r0,r1,r0,r1
        0x0001b10e:    2001        .       MOVS     r0,#1
        0x0001b110:    f88d0009    ....    STRB     r0,[sp,#9]
        0x0001b114:    f04f30ff    O..0    MOV      r0,#0xffffffff
        0x0001b118:    9005        ..      STR      r0,[sp,#0x14]
        0x0001b11a:    2000        .       MOVS     r0,#0
        0x0001b11c:    9004        ..      STR      r0,[sp,#0x10]
        0x0001b11e:    0c88        ..      LSRS     r0,r1,#18
        0x0001b120:    9006        ..      STR      r0,[sp,#0x18]
        0x0001b122:    200d        .       MOVS     r0,#0xd
        0x0001b124:    4629        )F      MOV      r1,r5
        0x0001b126:    f000ff95    ....    BL       internal_timer_config ; 0x1c054
        0x0001b12a:    4607        .F      MOV      r7,r0
        0x0001b12c:    2800        .(      CMP      r0,#0
        0x0001b12e:    d171        q.      BNE      0x1b214 ; am_hal_util_write_and_wait + 312
        0x0001b130:    200d        .       MOVS     r0,#0xd
        0x0001b132:    f7fffe1c    ....    BL       am_hal_timer_clear ; 0x1ad6e
        0x0001b136:    200d        .       MOVS     r0,#0xd
        0x0001b138:    f7fffe7f    ....    BL       am_hal_timer_disable ; 0x1ae3a
        0x0001b13c:    f04f6000    O..`    MOV      r0,#0x8000000
        0x0001b140:    f7fffef6    ....    BL       am_hal_timer_interrupt_clear ; 0x1af30
        0x0001b144:    4607        .F      MOV      r7,r0
        0x0001b146:    2800        .(      CMP      r0,#0
        0x0001b148:    d164        d.      BNE      0x1b214 ; am_hal_util_write_and_wait + 312
        0x0001b14a:    f04f6000    O..`    MOV      r0,#0x8000000
        0x0001b14e:    f7fffef7    ....    BL       am_hal_timer_interrupt_enable ; 0x1af40
        0x0001b152:    4607        .F      MOV      r7,r0
        0x0001b154:    2800        .(      CMP      r0,#0
        0x0001b156:    d15d        ].      BNE      0x1b214 ; am_hal_util_write_and_wait + 312
        0x0001b158:    f24e2a00    N..*    MOVW     r10,#0xe200
        0x0001b15c:    f2ce0a00    ....    MOVT     r10,#0xe000
        0x0001b160:    2000        .       MOVS     r0,#0
        0x0001b162:    f88a0250    ..P.    STRB     r0,[r10,#0x250]
        0x0001b166:    f44f3080    O..0    MOV      r0,#0x10000
        0x0001b16a:    f64e570c    N..W    MOV      r7,#0xed0c
        0x0001b16e:    f84a0cf8    J...    STR      r0,[r10,#-0xf8]
        0x0001b172:    f2ce0700    ....    MOVT     r7,#0xe000
        0x0001b176:    6838        8h      LDR      r0,[r7,#0]
        0x0001b178:    f3c02502    ...%    UBFX     r5,r0,#8,#3
        0x0001b17c:    2d07        .-      CMP      r5,#7
        0x0001b17e:    d101        ..      BNE      0x1b184 ; am_hal_util_write_and_wait + 168
        0x0001b180:    2701        .'      MOVS     r7,#1
        0x0001b182:    e047        G.      B        0x1b214 ; am_hal_util_write_and_wait + 312
        0x0001b184:    2002        .       MOVS     r0,#2
        0x0001b186:    2100        .!      MOVS     r1,#0
        0x0001b188:    f04f0b02    O...    MOV      r11,#2
        0x0001b18c:    f7fdfff2    ....    BL       am_hal_daxi_control ; 0x19174
        0x0001b190:    2d05        .-      CMP      r5,#5
        0x0001b192:    f3ef8911    ....    MRS      r9,BASEPRI
        0x0001b196:    bf34        4.      ITE      CC
        0x0001b198:    2020                MOVCC    r0,#0x20
        0x0001b19a:    fa0bf005    ....    LSLCS    r0,r11,r5
        0x0001b19e:    f3808811    ....    MSR      BASEPRI,r0
        0x0001b1a2:    1c70        p.      ADDS     r0,r6,#1
        0x0001b1a4:    d003        ..      BEQ      0x1b1ae ; am_hal_util_write_and_wait + 210
        0x0001b1a6:    f8d80000    ....    LDR      r0,[r8,#0]
        0x0001b1aa:    43b0        .C      BICS     r0,r0,r6
        0x0001b1ac:    4304        .C      ORRS     r4,r4,r0
        0x0001b1ae:    200d        .       MOVS     r0,#0xd
        0x0001b1b0:    f7fffddd    ....    BL       am_hal_timer_clear ; 0x1ad6e
        0x0001b1b4:    6878        xh      LDR      r0,[r7,#4]
        0x0001b1b6:    4641        AF      MOV      r1,r8
        0x0001b1b8:    f0200004     ...    BIC      r0,r0,#4
        0x0001b1bc:    6078        x`      STR      r0,[r7,#4]
        0x0001b1be:    f2402090    @..     MOVW     r0,#0x290
        0x0001b1c2:    f2c10000    ....    MOVT     r0,#0x1000
        0x0001b1c6:    6802        .h      LDR      r2,[r0,#0]
        0x0001b1c8:    4620         F      MOV      r0,r4
        0x0001b1ca:    4790        .G      BLX      r2
        0x0001b1cc:    200d        .       MOVS     r0,#0xd
        0x0001b1ce:    f7fffe34    ..4.    BL       am_hal_timer_disable ; 0x1ae3a
        0x0001b1d2:    f04f6040    O.@`    MOV      r0,#0xc000000
        0x0001b1d6:    f7fffeab    ....    BL       am_hal_timer_interrupt_clear ; 0x1af30
        0x0001b1da:    a902        ..      ADD      r1,sp,#8
        0x0001b1dc:    2001        .       MOVS     r0,#1
        0x0001b1de:    f7fffed9    ....    BL       am_hal_timer_interrupt_status_get ; 0x1af94
        0x0001b1e2:    f44f3080    O..0    MOV      r0,#0x10000
        0x0001b1e6:    f8ca0088    ....    STR      r0,[r10,#0x88]
        0x0001b1ea:    9802        ..      LDR      r0,[sp,#8]
        0x0001b1ec:    f06f6440    o.@d    MVN      r4,#0xc000000
        0x0001b1f0:    4220         B      TST      r0,r4
        0x0001b1f2:    d10c        ..      BNE      0x1b20e ; am_hal_util_write_and_wait + 306
        0x0001b1f4:    f44f4580    O..E    MOV      r5,#0x4000
        0x0001b1f8:    a902        ..      ADD      r1,sp,#8
        0x0001b1fa:    2001        .       MOVS     r0,#1
        0x0001b1fc:    f8ca5080    ...P    STR      r5,[r10,#0x80]
        0x0001b200:    f7fffec8    ....    BL       am_hal_timer_interrupt_status_get ; 0x1af94
        0x0001b204:    9802        ..      LDR      r0,[sp,#8]
        0x0001b206:    4220         B      TST      r0,r4
        0x0001b208:    bf18        ..      IT       NE
        0x0001b20a:    f8ca5000    ...P    STRNE    r5,[r10,#0]
        0x0001b20e:    f3898811    ....    MSR      BASEPRI,r9
        0x0001b212:    2700        .'      MOVS     r7,#0
        0x0001b214:    9801        ..      LDR      r0,[sp,#4]
        0x0001b216:    f7fefa71    ..q.    BL       am_hal_interrupt_master_set ; 0x196fc
        0x0001b21a:    4638        8F      MOV      r0,r7
        0x0001b21c:    b007        ..      ADD      sp,sp,#0x1c
        0x0001b21e:    e8bd8ff0    ....    POP      {r4-r11,pc}
        0x0001b222:    0000        ..      MOVS     r0,r0
    am_sdio_isr
        0x0001b224:    b580        ..      PUSH     {r7,lr}
        0x0001b226:    b082        ..      SUB      sp,sp,#8
        0x0001b228:    f24170e0    A..p    MOVW     r0,#0x17e0
        0x0001b22c:    f2c10000    ....    MOVT     r0,#0x1000
        0x0001b230:    9000        ..      STR      r0,[sp,#0]
        0x0001b232:    6800        .h      LDR      r0,[r0,#0]
        0x0001b234:    6800        .h      LDR      r0,[r0,#0]
        0x0001b236:    a901        ..      ADD      r1,sp,#4
        0x0001b238:    2201        ."      MOVS     r2,#1
        0x0001b23a:    f7fffaf1    ....    BL       am_hal_sdhc_intr_status_get ; 0x1a820
        0x0001b23e:    9800        ..      LDR      r0,[sp,#0]
        0x0001b240:    6800        .h      LDR      r0,[r0,#0]
        0x0001b242:    6800        .h      LDR      r0,[r0,#0]
        0x0001b244:    9901        ..      LDR      r1,[sp,#4]
        0x0001b246:    f7fffad4    ....    BL       am_hal_sdhc_intr_status_clear ; 0x1a7f2
        0x0001b24a:    9800        ..      LDR      r0,[sp,#0]
        0x0001b24c:    6800        .h      LDR      r0,[r0,#0]
        0x0001b24e:    6800        .h      LDR      r0,[r0,#0]
        0x0001b250:    9901        ..      LDR      r1,[sp,#4]
        0x0001b252:    f7fffa41    ..A.    BL       am_hal_sdhc_interrupt_service ; 0x1a6d8
        0x0001b256:    b002        ..      ADD      sp,sp,#8
        0x0001b258:    bd80        ..      POP      {r7,pc}
        0x0001b25a:    0000        ..      MOVS     r0,r0
    am_util_delay_ms
        0x0001b25c:    b580        ..      PUSH     {r7,lr}
        0x0001b25e:    b082        ..      SUB      sp,sp,#8
        0x0001b260:    9001        ..      STR      r0,[sp,#4]
        0x0001b262:    9801        ..      LDR      r0,[sp,#4]
        0x0001b264:    f44f717a    O.zq    MOV      r1,#0x3e8
        0x0001b268:    4348        HC      MULS     r0,r1,r0
        0x0001b26a:    f7fef8ed    ....    BL       am_hal_delay_us ; 0x19448
        0x0001b26e:    b002        ..      ADD      sp,sp,#8
        0x0001b270:    bd80        ..      POP      {r7,pc}
        0x0001b272:    0000        ..      MOVS     r0,r0
    am_util_delay_us
        0x0001b274:    b580        ..      PUSH     {r7,lr}
        0x0001b276:    b082        ..      SUB      sp,sp,#8
        0x0001b278:    9001        ..      STR      r0,[sp,#4]
        0x0001b27a:    9801        ..      LDR      r0,[sp,#4]
        0x0001b27c:    f7fef8e4    ....    BL       am_hal_delay_us ; 0x19448
        0x0001b280:    b002        ..      ADD      sp,sp,#8
        0x0001b282:    bd80        ..      POP      {r7,pc}
    am_util_faultisr_collect_data
        0x0001b284:    b580        ..      PUSH     {r7,lr}
        0x0001b286:    b096        ..      SUB      sp,sp,#0x58
        0x0001b288:    9015        ..      STR      r0,[sp,#0x54]
        0x0001b28a:    2000        .       MOVS     r0,#0
        0x0001b28c:    9008        ..      STR      r0,[sp,#0x20]
        0x0001b28e:    9007        ..      STR      r0,[sp,#0x1c]
        0x0001b290:    9006        ..      STR      r0,[sp,#0x18]
        0x0001b292:    9005        ..      STR      r0,[sp,#0x14]
        0x0001b294:    9004        ..      STR      r0,[sp,#0x10]
        0x0001b296:    9003        ..      STR      r0,[sp,#0xc]
        0x0001b298:    9002        ..      STR      r0,[sp,#8]
        0x0001b29a:    9802        ..      LDR      r0,[sp,#8]
        0x0001b29c:    9013        ..      STR      r0,[sp,#0x4c]
        0x0001b29e:    f64e5028    N.(P    MOV      r0,#0xed28
        0x0001b2a2:    f2ce0000    ....    MOVT     r0,#0xe000
        0x0001b2a6:    6800        .h      LDR      r0,[r0,#0]
        0x0001b2a8:    9013        ..      STR      r0,[sp,#0x4c]
        0x0001b2aa:    9813        ..      LDR      r0,[sp,#0x4c]
        0x0001b2ac:    f88d0050    ..P.    STRB     r0,[sp,#0x50]
        0x0001b2b0:    9813        ..      LDR      r0,[sp,#0x4c]
        0x0001b2b2:    0a00        ..      LSRS     r0,r0,#8
        0x0001b2b4:    f88d0051    ..Q.    STRB     r0,[sp,#0x51]
        0x0001b2b8:    9813        ..      LDR      r0,[sp,#0x4c]
        0x0001b2ba:    0c00        ..      LSRS     r0,r0,#16
        0x0001b2bc:    f8ad0052    ..R.    STRH     r0,[sp,#0x52]
        0x0001b2c0:    f64e5038    N.8P    MOV      r0,#0xed38
        0x0001b2c4:    f2ce0000    ....    MOVT     r0,#0xe000
        0x0001b2c8:    6800        .h      LDR      r0,[r0,#0]
        0x0001b2ca:    9012        ..      STR      r0,[sp,#0x48]
        0x0001b2cc:    9815        ..      LDR      r0,[sp,#0x54]
        0x0001b2ce:    f000fba7    ....    BL       am_valid_sp ; 0x1ba20
        0x0001b2d2:    b3d8        ..      CBZ      r0,0x1b34c ; am_util_faultisr_collect_data + 200
        0x0001b2d4:    e7ff        ..      B        0x1b2d6 ; am_util_faultisr_collect_data + 82
        0x0001b2d6:    f89d0051    ..Q.    LDRB     r0,[sp,#0x51]
        0x0001b2da:    0780        ..      LSLS     r0,r0,#30
        0x0001b2dc:    2800        .(      CMP      r0,#0
        0x0001b2de:    d506        ..      BPL      0x1b2ee ; am_util_faultisr_collect_data + 106
        0x0001b2e0:    e7ff        ..      B        0x1b2e2 ; am_util_faultisr_collect_data + 94
        0x0001b2e2:    9915        ..      LDR      r1,[sp,#0x54]
        0x0001b2e4:    2006        .       MOVS     r0,#6
        0x0001b2e6:    f000feb1    ....    BL       getStackedReg ; 0x1c04c
        0x0001b2ea:    9001        ..      STR      r0,[sp,#4]
        0x0001b2ec:    e003        ..      B        0x1b2f6 ; am_util_faultisr_collect_data + 114
        0x0001b2ee:    f04f30ff    O..0    MOV      r0,#0xffffffff
        0x0001b2f2:    9001        ..      STR      r0,[sp,#4]
        0x0001b2f4:    e7ff        ..      B        0x1b2f6 ; am_util_faultisr_collect_data + 114
        0x0001b2f6:    9801        ..      LDR      r0,[sp,#4]
        0x0001b2f8:    9011        ..      STR      r0,[sp,#0x44]
        0x0001b2fa:    9915        ..      LDR      r1,[sp,#0x54]
        0x0001b2fc:    2000        .       MOVS     r0,#0
        0x0001b2fe:    f000fea5    ....    BL       getStackedReg ; 0x1c04c
        0x0001b302:    9009        ..      STR      r0,[sp,#0x24]
        0x0001b304:    9915        ..      LDR      r1,[sp,#0x54]
        0x0001b306:    2001        .       MOVS     r0,#1
        0x0001b308:    f000fea0    ....    BL       getStackedReg ; 0x1c04c
        0x0001b30c:    900a        ..      STR      r0,[sp,#0x28]
        0x0001b30e:    9915        ..      LDR      r1,[sp,#0x54]
        0x0001b310:    2002        .       MOVS     r0,#2
        0x0001b312:    f000fe9b    ....    BL       getStackedReg ; 0x1c04c
        0x0001b316:    900b        ..      STR      r0,[sp,#0x2c]
        0x0001b318:    9915        ..      LDR      r1,[sp,#0x54]
        0x0001b31a:    2003        .       MOVS     r0,#3
        0x0001b31c:    f000fe96    ....    BL       getStackedReg ; 0x1c04c
        0x0001b320:    900c        ..      STR      r0,[sp,#0x30]
        0x0001b322:    9915        ..      LDR      r1,[sp,#0x54]
        0x0001b324:    2004        .       MOVS     r0,#4
        0x0001b326:    f000fe91    ....    BL       getStackedReg ; 0x1c04c
        0x0001b32a:    900d        ..      STR      r0,[sp,#0x34]
        0x0001b32c:    9915        ..      LDR      r1,[sp,#0x54]
        0x0001b32e:    2005        .       MOVS     r0,#5
        0x0001b330:    f000fe8c    ....    BL       getStackedReg ; 0x1c04c
        0x0001b334:    900e        ..      STR      r0,[sp,#0x38]
        0x0001b336:    9915        ..      LDR      r1,[sp,#0x54]
        0x0001b338:    2006        .       MOVS     r0,#6
        0x0001b33a:    f000fe87    ....    BL       getStackedReg ; 0x1c04c
        0x0001b33e:    900f        ..      STR      r0,[sp,#0x3c]
        0x0001b340:    9915        ..      LDR      r1,[sp,#0x54]
        0x0001b342:    2007        .       MOVS     r0,#7
        0x0001b344:    f000fe82    ....    BL       getStackedReg ; 0x1c04c
        0x0001b348:    9010        ..      STR      r0,[sp,#0x40]
        0x0001b34a:    e7ff        ..      B        0x1b34c ; am_util_faultisr_collect_data + 200
        0x0001b34c:    a803        ..      ADD      r0,sp,#0xc
        0x0001b34e:    f7fef8f2    ....    BL       am_hal_fault_status_get ; 0x19536
        0x0001b352:    2000        .       MOVS     r0,#0
        0x0001b354:    9002        ..      STR      r0,[sp,#8]
        0x0001b356:    e7ff        ..      B        0x1b358 ; am_util_faultisr_collect_data + 212
        0x0001b358:    e7fe        ..      B        0x1b358 ; am_util_faultisr_collect_data + 212
        0x0001b35a:    0000        ..      MOVS     r0,r0
    am_util_stdio_printf
        0x0001b35c:    b083        ..      SUB      sp,sp,#0xc
        0x0001b35e:    b580        ..      PUSH     {r7,lr}
        0x0001b360:    b085        ..      SUB      sp,sp,#0x14
        0x0001b362:    9309        ..      STR      r3,[sp,#0x24]
        0x0001b364:    9208        ..      STR      r2,[sp,#0x20]
        0x0001b366:    9107        ..      STR      r1,[sp,#0x1c]
        0x0001b368:    9003        ..      STR      r0,[sp,#0xc]
        0x0001b36a:    f2413084    A..0    MOV      r0,#0x1384
        0x0001b36e:    f2c10000    ....    MOVT     r0,#0x1000
        0x0001b372:    6800        .h      LDR      r0,[r0,#0]
        0x0001b374:    b918        ..      CBNZ     r0,0x1b37e ; am_util_stdio_printf + 34
        0x0001b376:    e7ff        ..      B        0x1b378 ; am_util_stdio_printf + 28
        0x0001b378:    2000        .       MOVS     r0,#0
        0x0001b37a:    9004        ..      STR      r0,[sp,#0x10]
        0x0001b37c:    e016        ..      B        0x1b3ac ; am_util_stdio_printf + 80
        0x0001b37e:    a807        ..      ADD      r0,sp,#0x1c
        0x0001b380:    9001        ..      STR      r0,[sp,#4]
        0x0001b382:    9903        ..      LDR      r1,[sp,#0xc]
        0x0001b384:    9a01        ..      LDR      r2,[sp,#4]
        0x0001b386:    f2413088    A..0    MOV      r0,#0x1388
        0x0001b38a:    f2c10000    ....    MOVT     r0,#0x1000
        0x0001b38e:    9000        ..      STR      r0,[sp,#0]
        0x0001b390:    f000f81c    ....    BL       am_util_stdio_vsprintf ; 0x1b3cc
        0x0001b394:    4601        .F      MOV      r1,r0
        0x0001b396:    9800        ..      LDR      r0,[sp,#0]
        0x0001b398:    9102        ..      STR      r1,[sp,#8]
        0x0001b39a:    f2413184    A..1    MOV      r1,#0x1384
        0x0001b39e:    f2c10100    ....    MOVT     r1,#0x1000
        0x0001b3a2:    6809        .h      LDR      r1,[r1,#0]
        0x0001b3a4:    4788        .G      BLX      r1
        0x0001b3a6:    9802        ..      LDR      r0,[sp,#8]
        0x0001b3a8:    9004        ..      STR      r0,[sp,#0x10]
        0x0001b3aa:    e7ff        ..      B        0x1b3ac ; am_util_stdio_printf + 80
        0x0001b3ac:    9804        ..      LDR      r0,[sp,#0x10]
        0x0001b3ae:    b005        ..      ADD      sp,sp,#0x14
        0x0001b3b0:    e8bd4080    ...@    POP      {r7,lr}
        0x0001b3b4:    b003        ..      ADD      sp,sp,#0xc
        0x0001b3b6:    4770        pG      BX       lr
    am_util_stdio_printf_init
        0x0001b3b8:    b081        ..      SUB      sp,sp,#4
        0x0001b3ba:    9000        ..      STR      r0,[sp,#0]
        0x0001b3bc:    9800        ..      LDR      r0,[sp,#0]
        0x0001b3be:    f2413184    A..1    MOV      r1,#0x1384
        0x0001b3c2:    f2c10100    ....    MOVT     r1,#0x1000
        0x0001b3c6:    6008        .`      STR      r0,[r1,#0]
        0x0001b3c8:    b001        ..      ADD      sp,sp,#4
        0x0001b3ca:    4770        pG      BX       lr
    am_util_stdio_vsprintf
        0x0001b3cc:    b580        ..      PUSH     {r7,lr}
        0x0001b3ce:    b09e        ..      SUB      sp,sp,#0x78
        0x0001b3d0:    921d        ..      STR      r2,[sp,#0x74]
        0x0001b3d2:    901c        ..      STR      r0,[sp,#0x70]
        0x0001b3d4:    911b        ..      STR      r1,[sp,#0x6c]
        0x0001b3d6:    2000        .       MOVS     r0,#0
        0x0001b3d8:    9014        ..      STR      r0,[sp,#0x50]
        0x0001b3da:    900e        ..      STR      r0,[sp,#0x38]
        0x0001b3dc:    e7ff        ..      B        0x1b3de ; am_util_stdio_vsprintf + 18
        0x0001b3de:    981b        ..      LDR      r0,[sp,#0x6c]
        0x0001b3e0:    7800        .x      LDRB     r0,[r0,#0]
        0x0001b3e2:    2800        .(      CMP      r0,#0
        0x0001b3e4:    f0008312    ....    BEQ.W    0x1ba0c ; am_util_stdio_vsprintf + 1600
        0x0001b3e8:    e7ff        ..      B        0x1b3ea ; am_util_stdio_vsprintf + 30
        0x0001b3ea:    2006        .       MOVS     r0,#6
        0x0001b3ec:    9011        ..      STR      r0,[sp,#0x44]
        0x0001b3ee:    981b        ..      LDR      r0,[sp,#0x6c]
        0x0001b3f0:    7800        .x      LDRB     r0,[r0,#0]
        0x0001b3f2:    2825        %(      CMP      r0,#0x25
        0x0001b3f4:    d027        '.      BEQ      0x1b446 ; am_util_stdio_vsprintf + 122
        0x0001b3f6:    e7ff        ..      B        0x1b3f8 ; am_util_stdio_vsprintf + 44
        0x0001b3f8:    981c        ..      LDR      r0,[sp,#0x70]
        0x0001b3fa:    b1e8        ..      CBZ      r0,0x1b438 ; am_util_stdio_vsprintf + 108
        0x0001b3fc:    e7ff        ..      B        0x1b3fe ; am_util_stdio_vsprintf + 50
        0x0001b3fe:    981b        ..      LDR      r0,[sp,#0x6c]
        0x0001b400:    7800        .x      LDRB     r0,[r0,#0]
        0x0001b402:    280a        .(      CMP      r0,#0xa
        0x0001b404:    d111        ..      BNE      0x1b42a ; am_util_stdio_vsprintf + 94
        0x0001b406:    e7ff        ..      B        0x1b408 ; am_util_stdio_vsprintf + 60
        0x0001b408:    f2413080    A..0    MOVW     r0,#0x1380
        0x0001b40c:    f2c10000    ....    MOVT     r0,#0x1000
        0x0001b410:    7800        .x      LDRB     r0,[r0,#0]
        0x0001b412:    07c0        ..      LSLS     r0,r0,#31
        0x0001b414:    b148        H.      CBZ      r0,0x1b42a ; am_util_stdio_vsprintf + 94
        0x0001b416:    e7ff        ..      B        0x1b418 ; am_util_stdio_vsprintf + 76
        0x0001b418:    991c        ..      LDR      r1,[sp,#0x70]
        0x0001b41a:    1c48        H.      ADDS     r0,r1,#1
        0x0001b41c:    901c        ..      STR      r0,[sp,#0x70]
        0x0001b41e:    200d        .       MOVS     r0,#0xd
        0x0001b420:    7008        .p      STRB     r0,[r1,#0]
        0x0001b422:    9814        ..      LDR      r0,[sp,#0x50]
        0x0001b424:    3001        .0      ADDS     r0,#1
        0x0001b426:    9014        ..      STR      r0,[sp,#0x50]
        0x0001b428:    e7ff        ..      B        0x1b42a ; am_util_stdio_vsprintf + 94
        0x0001b42a:    981b        ..      LDR      r0,[sp,#0x6c]
        0x0001b42c:    7800        .x      LDRB     r0,[r0,#0]
        0x0001b42e:    991c        ..      LDR      r1,[sp,#0x70]
        0x0001b430:    1c4a        J.      ADDS     r2,r1,#1
        0x0001b432:    921c        ..      STR      r2,[sp,#0x70]
        0x0001b434:    7008        .p      STRB     r0,[r1,#0]
        0x0001b436:    e7ff        ..      B        0x1b438 ; am_util_stdio_vsprintf + 108
        0x0001b438:    981b        ..      LDR      r0,[sp,#0x6c]
        0x0001b43a:    3001        .0      ADDS     r0,#1
        0x0001b43c:    901b        ..      STR      r0,[sp,#0x6c]
        0x0001b43e:    9814        ..      LDR      r0,[sp,#0x50]
        0x0001b440:    3001        .0      ADDS     r0,#1
        0x0001b442:    9014        ..      STR      r0,[sp,#0x50]
        0x0001b444:    e7cb        ..      B        0x1b3de ; am_util_stdio_vsprintf + 18
        0x0001b446:    981b        ..      LDR      r0,[sp,#0x6c]
        0x0001b448:    3001        .0      ADDS     r0,#1
        0x0001b44a:    901b        ..      STR      r0,[sp,#0x6c]
        0x0001b44c:    2000        .       MOVS     r0,#0
        0x0001b44e:    f88d0040    ..@.    STRB     r0,[sp,#0x40]
        0x0001b452:    f88d0041    ..A.    STRB     r0,[sp,#0x41]
        0x0001b456:    2020                MOVS     r0,#0x20
        0x0001b458:    f88d0042    ..B.    STRB     r0,[sp,#0x42]
        0x0001b45c:    981b        ..      LDR      r0,[sp,#0x6c]
        0x0001b45e:    7800        .x      LDRB     r0,[r0,#0]
        0x0001b460:    2830        0(      CMP      r0,#0x30
        0x0001b462:    d107        ..      BNE      0x1b474 ; am_util_stdio_vsprintf + 168
        0x0001b464:    e7ff        ..      B        0x1b466 ; am_util_stdio_vsprintf + 154
        0x0001b466:    2030        0       MOVS     r0,#0x30
        0x0001b468:    f88d0042    ..B.    STRB     r0,[sp,#0x42]
        0x0001b46c:    981b        ..      LDR      r0,[sp,#0x6c]
        0x0001b46e:    3001        .0      ADDS     r0,#1
        0x0001b470:    901b        ..      STR      r0,[sp,#0x6c]
        0x0001b472:    e7ff        ..      B        0x1b474 ; am_util_stdio_vsprintf + 168
        0x0001b474:    981b        ..      LDR      r0,[sp,#0x6c]
        0x0001b476:    a915        ..      ADD      r1,sp,#0x54
        0x0001b478:    f000fbf0    ....    BL       decstr_to_int ; 0x1bc5c
        0x0001b47c:    9013        ..      STR      r0,[sp,#0x4c]
        0x0001b47e:    9915        ..      LDR      r1,[sp,#0x54]
        0x0001b480:    981b        ..      LDR      r0,[sp,#0x6c]
        0x0001b482:    4408        .D      ADD      r0,r0,r1
        0x0001b484:    901b        ..      STR      r0,[sp,#0x6c]
        0x0001b486:    981b        ..      LDR      r0,[sp,#0x6c]
        0x0001b488:    7800        .x      LDRB     r0,[r0,#0]
        0x0001b48a:    2873        s(      CMP      r0,#0x73
        0x0001b48c:    d009        ..      BEQ      0x1b4a2 ; am_util_stdio_vsprintf + 214
        0x0001b48e:    e7ff        ..      B        0x1b490 ; am_util_stdio_vsprintf + 196
        0x0001b490:    9813        ..      LDR      r0,[sp,#0x4c]
        0x0001b492:    f1b03fff    ...?    CMP      r0,#0xffffffff
        0x0001b496:    dc04        ..      BGT      0x1b4a2 ; am_util_stdio_vsprintf + 214
        0x0001b498:    e7ff        ..      B        0x1b49a ; am_util_stdio_vsprintf + 206
        0x0001b49a:    9813        ..      LDR      r0,[sp,#0x4c]
        0x0001b49c:    4240        @B      RSBS     r0,r0,#0
        0x0001b49e:    9013        ..      STR      r0,[sp,#0x4c]
        0x0001b4a0:    e7ff        ..      B        0x1b4a2 ; am_util_stdio_vsprintf + 214
        0x0001b4a2:    981b        ..      LDR      r0,[sp,#0x6c]
        0x0001b4a4:    7800        .x      LDRB     r0,[r0,#0]
        0x0001b4a6:    282e        .(      CMP      r0,#0x2e
        0x0001b4a8:    d10d        ..      BNE      0x1b4c6 ; am_util_stdio_vsprintf + 250
        0x0001b4aa:    e7ff        ..      B        0x1b4ac ; am_util_stdio_vsprintf + 224
        0x0001b4ac:    981b        ..      LDR      r0,[sp,#0x6c]
        0x0001b4ae:    3001        .0      ADDS     r0,#1
        0x0001b4b0:    901b        ..      STR      r0,[sp,#0x6c]
        0x0001b4b2:    981b        ..      LDR      r0,[sp,#0x6c]
        0x0001b4b4:    a915        ..      ADD      r1,sp,#0x54
        0x0001b4b6:    f000fbd1    ....    BL       decstr_to_int ; 0x1bc5c
        0x0001b4ba:    9011        ..      STR      r0,[sp,#0x44]
        0x0001b4bc:    9915        ..      LDR      r1,[sp,#0x54]
        0x0001b4be:    981b        ..      LDR      r0,[sp,#0x6c]
        0x0001b4c0:    4408        .D      ADD      r0,r0,r1
        0x0001b4c2:    901b        ..      STR      r0,[sp,#0x6c]
        0x0001b4c4:    e7ff        ..      B        0x1b4c6 ; am_util_stdio_vsprintf + 250
        0x0001b4c6:    981b        ..      LDR      r0,[sp,#0x6c]
        0x0001b4c8:    7800        .x      LDRB     r0,[r0,#0]
        0x0001b4ca:    286c        l(      CMP      r0,#0x6c
        0x0001b4cc:    d110        ..      BNE      0x1b4f0 ; am_util_stdio_vsprintf + 292
        0x0001b4ce:    e7ff        ..      B        0x1b4d0 ; am_util_stdio_vsprintf + 260
        0x0001b4d0:    981b        ..      LDR      r0,[sp,#0x6c]
        0x0001b4d2:    3001        .0      ADDS     r0,#1
        0x0001b4d4:    901b        ..      STR      r0,[sp,#0x6c]
        0x0001b4d6:    981b        ..      LDR      r0,[sp,#0x6c]
        0x0001b4d8:    7800        .x      LDRB     r0,[r0,#0]
        0x0001b4da:    286c        l(      CMP      r0,#0x6c
        0x0001b4dc:    d107        ..      BNE      0x1b4ee ; am_util_stdio_vsprintf + 290
        0x0001b4de:    e7ff        ..      B        0x1b4e0 ; am_util_stdio_vsprintf + 276
        0x0001b4e0:    981b        ..      LDR      r0,[sp,#0x6c]
        0x0001b4e2:    3001        .0      ADDS     r0,#1
        0x0001b4e4:    901b        ..      STR      r0,[sp,#0x6c]
        0x0001b4e6:    2001        .       MOVS     r0,#1
        0x0001b4e8:    f88d0040    ..@.    STRB     r0,[sp,#0x40]
        0x0001b4ec:    e7ff        ..      B        0x1b4ee ; am_util_stdio_vsprintf + 290
        0x0001b4ee:    e7ff        ..      B        0x1b4f0 ; am_util_stdio_vsprintf + 292
        0x0001b4f0:    981b        ..      LDR      r0,[sp,#0x6c]
        0x0001b4f2:    7800        .x      LDRB     r0,[r0,#0]
        0x0001b4f4:    3846        F8      SUBS     r0,r0,#0x46
        0x0001b4f6:    4601        .F      MOV      r1,r0
        0x0001b4f8:    910b        ..      STR      r1,[sp,#0x2c]
        0x0001b4fa:    2832        2(      CMP      r0,#0x32
        0x0001b4fc:    f2008273    ..s.    BHI.W    0x1b9e6 ; am_util_stdio_vsprintf + 1562
        0x0001b500:    990b        ..      LDR      r1,[sp,#0x2c]
        0x0001b502:    e8dff011    ....    TBH      [pc,r1,LSL #1]
    $d.4
        0x0001b506:    0224        $.      DCW    548
        0x0001b508:    02700270    p.p.    DCD    40895088
        0x0001b50c:    02700270    p.p.    DCD    40895088
        0x0001b510:    02700270    p.p.    DCD    40895088
        0x0001b514:    02700270    p.p.    DCD    40895088
        0x0001b518:    02700270    p.p.    DCD    40895088
        0x0001b51c:    02700270    p.p.    DCD    40895088
        0x0001b520:    02700270    p.p.    DCD    40895088
        0x0001b524:    02700270    p.p.    DCD    40895088
        0x0001b528:    00bf0270    p...    DCD    12518000
        0x0001b52c:    02700270    p.p.    DCD    40895088
        0x0001b530:    02700270    p.p.    DCD    40895088
        0x0001b534:    02700270    p.p.    DCD    40895088
        0x0001b538:    02700270    p.p.    DCD    40895088
        0x0001b53c:    02700270    p.p.    DCD    40895088
        0x0001b540:    016f0033    3.o.    DCD    24051763
        0x0001b544:    02240270    p.$.    DCD    35914352
        0x0001b548:    02700270    p.p.    DCD    40895088
        0x0001b54c:    0270016f    o.p.    DCD    40894831
        0x0001b550:    02700270    p.p.    DCD    40895088
        0x0001b554:    02700270    p.p.    DCD    40895088
        0x0001b558:    02700270    p.p.    DCD    40895088
        0x0001b55c:    02700270    p.p.    DCD    40895088
        0x0001b560:    02700047    G.p.    DCD    40894535
        0x0001b564:    02700119    ..p.    DCD    40894745
        0x0001b568:    00bb0270    p...    DCD    12255856
    $t.5
        0x0001b56c:    981d        ..      LDR      r0,[sp,#0x74]
        0x0001b56e:    1d01        ..      ADDS     r1,r0,#4
        0x0001b570:    911d        ..      STR      r1,[sp,#0x74]
        0x0001b572:    6800        .h      LDR      r0,[r0,#0]
        0x0001b574:    f88d0043    ..C.    STRB     r0,[sp,#0x43]
        0x0001b578:    981c        ..      LDR      r0,[sp,#0x70]
        0x0001b57a:    b138        8.      CBZ      r0,0x1b58c ; am_util_stdio_vsprintf + 448
        0x0001b57c:    e7ff        ..      B        0x1b57e ; am_util_stdio_vsprintf + 434
        0x0001b57e:    f89d0043    ..C.    LDRB     r0,[sp,#0x43]
        0x0001b582:    991c        ..      LDR      r1,[sp,#0x70]
        0x0001b584:    1c4a        J.      ADDS     r2,r1,#1
        0x0001b586:    921c        ..      STR      r2,[sp,#0x70]
        0x0001b588:    7008        .p      STRB     r0,[r1,#0]
        0x0001b58a:    e7ff        ..      B        0x1b58c ; am_util_stdio_vsprintf + 448
        0x0001b58c:    9814        ..      LDR      r0,[sp,#0x50]
        0x0001b58e:    3001        .0      ADDS     r0,#1
        0x0001b590:    9014        ..      STR      r0,[sp,#0x50]
        0x0001b592:    e236        6.      B        0x1ba02 ; am_util_stdio_vsprintf + 1590
        0x0001b594:    981d        ..      LDR      r0,[sp,#0x74]
        0x0001b596:    1d01        ..      ADDS     r1,r0,#4
        0x0001b598:    911d        ..      STR      r1,[sp,#0x74]
        0x0001b59a:    6800        .h      LDR      r0,[r0,#0]
        0x0001b59c:    901a        ..      STR      r0,[sp,#0x68]
        0x0001b59e:    981a        ..      LDR      r0,[sp,#0x68]
        0x0001b5a0:    f000ffaa    ....    BL       simple_strlen ; 0x1c4f8
        0x0001b5a4:    900e        ..      STR      r0,[sp,#0x38]
        0x0001b5a6:    9813        ..      LDR      r0,[sp,#0x4c]
        0x0001b5a8:    2801        .(      CMP      r0,#1
        0x0001b5aa:    db25        %.      BLT      0x1b5f8 ; am_util_stdio_vsprintf + 556
        0x0001b5ac:    e7ff        ..      B        0x1b5ae ; am_util_stdio_vsprintf + 482
        0x0001b5ae:    980e        ..      LDR      r0,[sp,#0x38]
        0x0001b5b0:    9913        ..      LDR      r1,[sp,#0x4c]
        0x0001b5b2:    4288        .B      CMP      r0,r1
        0x0001b5b4:    d21f        ..      BCS      0x1b5f6 ; am_util_stdio_vsprintf + 554
        0x0001b5b6:    e7ff        ..      B        0x1b5b8 ; am_util_stdio_vsprintf + 492
        0x0001b5b8:    990e        ..      LDR      r1,[sp,#0x38]
        0x0001b5ba:    9813        ..      LDR      r0,[sp,#0x4c]
        0x0001b5bc:    1a40        @.      SUBS     r0,r0,r1
        0x0001b5be:    9013        ..      STR      r0,[sp,#0x4c]
        0x0001b5c0:    981c        ..      LDR      r0,[sp,#0x70]
        0x0001b5c2:    f89d1042    ..B.    LDRB     r1,[sp,#0x42]
        0x0001b5c6:    9a13        ..      LDR      r2,[sp,#0x4c]
        0x0001b5c8:    f000ff6e    ..n.    BL       padbuffer ; 0x1c4a8
        0x0001b5cc:    9013        ..      STR      r0,[sp,#0x4c]
        0x0001b5ce:    981c        ..      LDR      r0,[sp,#0x70]
        0x0001b5d0:    b118        ..      CBZ      r0,0x1b5da ; am_util_stdio_vsprintf + 526
        0x0001b5d2:    e7ff        ..      B        0x1b5d4 ; am_util_stdio_vsprintf + 520
        0x0001b5d4:    9813        ..      LDR      r0,[sp,#0x4c]
        0x0001b5d6:    900a        ..      STR      r0,[sp,#0x28]
        0x0001b5d8:    e002        ..      B        0x1b5e0 ; am_util_stdio_vsprintf + 532
        0x0001b5da:    2000        .       MOVS     r0,#0
        0x0001b5dc:    900a        ..      STR      r0,[sp,#0x28]
        0x0001b5de:    e7ff        ..      B        0x1b5e0 ; am_util_stdio_vsprintf + 532
        0x0001b5e0:    990a        ..      LDR      r1,[sp,#0x28]
        0x0001b5e2:    981c        ..      LDR      r0,[sp,#0x70]
        0x0001b5e4:    4408        .D      ADD      r0,r0,r1
        0x0001b5e6:    901c        ..      STR      r0,[sp,#0x70]
        0x0001b5e8:    9913        ..      LDR      r1,[sp,#0x4c]
        0x0001b5ea:    9814        ..      LDR      r0,[sp,#0x50]
        0x0001b5ec:    4408        .D      ADD      r0,r0,r1
        0x0001b5ee:    9014        ..      STR      r0,[sp,#0x50]
        0x0001b5f0:    2000        .       MOVS     r0,#0
        0x0001b5f2:    9013        ..      STR      r0,[sp,#0x4c]
        0x0001b5f4:    e7ff        ..      B        0x1b5f6 ; am_util_stdio_vsprintf + 554
        0x0001b5f6:    e7ff        ..      B        0x1b5f8 ; am_util_stdio_vsprintf + 556
        0x0001b5f8:    e7ff        ..      B        0x1b5fa ; am_util_stdio_vsprintf + 558
        0x0001b5fa:    981a        ..      LDR      r0,[sp,#0x68]
        0x0001b5fc:    7800        .x      LDRB     r0,[r0,#0]
        0x0001b5fe:    b188        ..      CBZ      r0,0x1b624 ; am_util_stdio_vsprintf + 600
        0x0001b600:    e7ff        ..      B        0x1b602 ; am_util_stdio_vsprintf + 566
        0x0001b602:    981c        ..      LDR      r0,[sp,#0x70]
        0x0001b604:    b138        8.      CBZ      r0,0x1b616 ; am_util_stdio_vsprintf + 586
        0x0001b606:    e7ff        ..      B        0x1b608 ; am_util_stdio_vsprintf + 572
        0x0001b608:    981a        ..      LDR      r0,[sp,#0x68]
        0x0001b60a:    7800        .x      LDRB     r0,[r0,#0]
        0x0001b60c:    991c        ..      LDR      r1,[sp,#0x70]
        0x0001b60e:    1c4a        J.      ADDS     r2,r1,#1
        0x0001b610:    921c        ..      STR      r2,[sp,#0x70]
        0x0001b612:    7008        .p      STRB     r0,[r1,#0]
        0x0001b614:    e7ff        ..      B        0x1b616 ; am_util_stdio_vsprintf + 586
        0x0001b616:    981a        ..      LDR      r0,[sp,#0x68]
        0x0001b618:    3001        .0      ADDS     r0,#1
        0x0001b61a:    901a        ..      STR      r0,[sp,#0x68]
        0x0001b61c:    9814        ..      LDR      r0,[sp,#0x50]
        0x0001b61e:    3001        .0      ADDS     r0,#1
        0x0001b620:    9014        ..      STR      r0,[sp,#0x50]
        0x0001b622:    e7ea        ..      B        0x1b5fa ; am_util_stdio_vsprintf + 558
        0x0001b624:    9813        ..      LDR      r0,[sp,#0x4c]
        0x0001b626:    b340        @.      CBZ      r0,0x1b67a ; am_util_stdio_vsprintf + 686
        0x0001b628:    e7ff        ..      B        0x1b62a ; am_util_stdio_vsprintf + 606
        0x0001b62a:    9813        ..      LDR      r0,[sp,#0x4c]
        0x0001b62c:    4240        @B      RSBS     r0,r0,#0
        0x0001b62e:    9013        ..      STR      r0,[sp,#0x4c]
        0x0001b630:    980e        ..      LDR      r0,[sp,#0x38]
        0x0001b632:    9913        ..      LDR      r1,[sp,#0x4c]
        0x0001b634:    4288        .B      CMP      r0,r1
        0x0001b636:    d21f        ..      BCS      0x1b678 ; am_util_stdio_vsprintf + 684
        0x0001b638:    e7ff        ..      B        0x1b63a ; am_util_stdio_vsprintf + 622
        0x0001b63a:    990e        ..      LDR      r1,[sp,#0x38]
        0x0001b63c:    9813        ..      LDR      r0,[sp,#0x4c]
        0x0001b63e:    1a40        @.      SUBS     r0,r0,r1
        0x0001b640:    9013        ..      STR      r0,[sp,#0x4c]
        0x0001b642:    981c        ..      LDR      r0,[sp,#0x70]
        0x0001b644:    f89d1042    ..B.    LDRB     r1,[sp,#0x42]
        0x0001b648:    9a13        ..      LDR      r2,[sp,#0x4c]
        0x0001b64a:    f000ff2d    ..-.    BL       padbuffer ; 0x1c4a8
        0x0001b64e:    9013        ..      STR      r0,[sp,#0x4c]
        0x0001b650:    981c        ..      LDR      r0,[sp,#0x70]
        0x0001b652:    b118        ..      CBZ      r0,0x1b65c ; am_util_stdio_vsprintf + 656
        0x0001b654:    e7ff        ..      B        0x1b656 ; am_util_stdio_vsprintf + 650
        0x0001b656:    9813        ..      LDR      r0,[sp,#0x4c]
        0x0001b658:    9009        ..      STR      r0,[sp,#0x24]
        0x0001b65a:    e002        ..      B        0x1b662 ; am_util_stdio_vsprintf + 662
        0x0001b65c:    2000        .       MOVS     r0,#0
        0x0001b65e:    9009        ..      STR      r0,[sp,#0x24]
        0x0001b660:    e7ff        ..      B        0x1b662 ; am_util_stdio_vsprintf + 662
        0x0001b662:    9909        ..      LDR      r1,[sp,#0x24]
        0x0001b664:    981c        ..      LDR      r0,[sp,#0x70]
        0x0001b666:    4408        .D      ADD      r0,r0,r1
        0x0001b668:    901c        ..      STR      r0,[sp,#0x70]
        0x0001b66a:    9913        ..      LDR      r1,[sp,#0x4c]
        0x0001b66c:    9814        ..      LDR      r0,[sp,#0x50]
        0x0001b66e:    4408        .D      ADD      r0,r0,r1
        0x0001b670:    9014        ..      STR      r0,[sp,#0x50]
        0x0001b672:    2000        .       MOVS     r0,#0
        0x0001b674:    9013        ..      STR      r0,[sp,#0x4c]
        0x0001b676:    e7ff        ..      B        0x1b678 ; am_util_stdio_vsprintf + 684
        0x0001b678:    e7ff        ..      B        0x1b67a ; am_util_stdio_vsprintf + 686
        0x0001b67a:    e1c2        ..      B        0x1ba02 ; am_util_stdio_vsprintf + 1590
        0x0001b67c:    2001        .       MOVS     r0,#1
        0x0001b67e:    f88d0041    ..A.    STRB     r0,[sp,#0x41]
        0x0001b682:    e7ff        ..      B        0x1b684 ; am_util_stdio_vsprintf + 696
        0x0001b684:    f89d0040    ..@.    LDRB     r0,[sp,#0x40]
        0x0001b688:    07c0        ..      LSLS     r0,r0,#31
        0x0001b68a:    b160        `.      CBZ      r0,0x1b6a6 ; am_util_stdio_vsprintf + 730
        0x0001b68c:    e7ff        ..      B        0x1b68e ; am_util_stdio_vsprintf + 706
        0x0001b68e:    981d        ..      LDR      r0,[sp,#0x74]
        0x0001b690:    3007        .0      ADDS     r0,#7
        0x0001b692:    f0200007     ...    BIC      r0,r0,#7
        0x0001b696:    f1000108    ....    ADD      r1,r0,#8
        0x0001b69a:    911d        ..      STR      r1,[sp,#0x74]
        0x0001b69c:    6801        .h      LDR      r1,[r0,#0]
        0x0001b69e:    6840        @h      LDR      r0,[r0,#4]
        0x0001b6a0:    9107        ..      STR      r1,[sp,#0x1c]
        0x0001b6a2:    9008        ..      STR      r0,[sp,#0x20]
        0x0001b6a4:    e007        ..      B        0x1b6b6 ; am_util_stdio_vsprintf + 746
        0x0001b6a6:    981d        ..      LDR      r0,[sp,#0x74]
        0x0001b6a8:    1d01        ..      ADDS     r1,r0,#4
        0x0001b6aa:    911d        ..      STR      r1,[sp,#0x74]
        0x0001b6ac:    6801        .h      LDR      r1,[r0,#0]
        0x0001b6ae:    2000        .       MOVS     r0,#0
        0x0001b6b0:    9107        ..      STR      r1,[sp,#0x1c]
        0x0001b6b2:    9008        ..      STR      r0,[sp,#0x20]
        0x0001b6b4:    e7ff        ..      B        0x1b6b6 ; am_util_stdio_vsprintf + 746
        0x0001b6b6:    9907        ..      LDR      r1,[sp,#0x1c]
        0x0001b6b8:    9808        ..      LDR      r0,[sp,#0x20]
        0x0001b6ba:    9118        ..      STR      r1,[sp,#0x60]
        0x0001b6bc:    9019        ..      STR      r0,[sp,#0x64]
        0x0001b6be:    9813        ..      LDR      r0,[sp,#0x4c]
        0x0001b6c0:    b318        ..      CBZ      r0,0x1b70a ; am_util_stdio_vsprintf + 830
        0x0001b6c2:    e7ff        ..      B        0x1b6c4 ; am_util_stdio_vsprintf + 760
        0x0001b6c4:    9818        ..      LDR      r0,[sp,#0x60]
        0x0001b6c6:    9919        ..      LDR      r1,[sp,#0x64]
        0x0001b6c8:    f000fe98    ....    BL       ndigits_in_hex ; 0x1c3fc
        0x0001b6cc:    4601        .F      MOV      r1,r0
        0x0001b6ce:    9813        ..      LDR      r0,[sp,#0x4c]
        0x0001b6d0:    1a40        @.      SUBS     r0,r0,r1
        0x0001b6d2:    9013        ..      STR      r0,[sp,#0x4c]
        0x0001b6d4:    981c        ..      LDR      r0,[sp,#0x70]
        0x0001b6d6:    f89d1042    ..B.    LDRB     r1,[sp,#0x42]
        0x0001b6da:    9a13        ..      LDR      r2,[sp,#0x4c]
        0x0001b6dc:    f000fee4    ....    BL       padbuffer ; 0x1c4a8
        0x0001b6e0:    9013        ..      STR      r0,[sp,#0x4c]
        0x0001b6e2:    981c        ..      LDR      r0,[sp,#0x70]
        0x0001b6e4:    b118        ..      CBZ      r0,0x1b6ee ; am_util_stdio_vsprintf + 802
        0x0001b6e6:    e7ff        ..      B        0x1b6e8 ; am_util_stdio_vsprintf + 796
        0x0001b6e8:    9813        ..      LDR      r0,[sp,#0x4c]
        0x0001b6ea:    9006        ..      STR      r0,[sp,#0x18]
        0x0001b6ec:    e002        ..      B        0x1b6f4 ; am_util_stdio_vsprintf + 808
        0x0001b6ee:    2000        .       MOVS     r0,#0
        0x0001b6f0:    9006        ..      STR      r0,[sp,#0x18]
        0x0001b6f2:    e7ff        ..      B        0x1b6f4 ; am_util_stdio_vsprintf + 808
        0x0001b6f4:    9906        ..      LDR      r1,[sp,#0x18]
        0x0001b6f6:    981c        ..      LDR      r0,[sp,#0x70]
        0x0001b6f8:    4408        .D      ADD      r0,r0,r1
        0x0001b6fa:    901c        ..      STR      r0,[sp,#0x70]
        0x0001b6fc:    9913        ..      LDR      r1,[sp,#0x4c]
        0x0001b6fe:    9814        ..      LDR      r0,[sp,#0x50]
        0x0001b700:    4408        .D      ADD      r0,r0,r1
        0x0001b702:    9014        ..      STR      r0,[sp,#0x50]
        0x0001b704:    2000        .       MOVS     r0,#0
        0x0001b706:    9013        ..      STR      r0,[sp,#0x4c]
        0x0001b708:    e7ff        ..      B        0x1b70a ; am_util_stdio_vsprintf + 830
        0x0001b70a:    9818        ..      LDR      r0,[sp,#0x60]
        0x0001b70c:    9919        ..      LDR      r1,[sp,#0x64]
        0x0001b70e:    9a1c        ..      LDR      r2,[sp,#0x70]
        0x0001b710:    f89d3041    ..A0    LDRB     r3,[sp,#0x41]
        0x0001b714:    f0030301    ....    AND      r3,r3,#1
        0x0001b718:    f000ffbe    ....    BL       uint64_to_hexstr ; 0x1c698
        0x0001b71c:    9012        ..      STR      r0,[sp,#0x48]
        0x0001b71e:    981c        ..      LDR      r0,[sp,#0x70]
        0x0001b720:    b128        (.      CBZ      r0,0x1b72e ; am_util_stdio_vsprintf + 866
        0x0001b722:    e7ff        ..      B        0x1b724 ; am_util_stdio_vsprintf + 856
        0x0001b724:    9912        ..      LDR      r1,[sp,#0x48]
        0x0001b726:    981c        ..      LDR      r0,[sp,#0x70]
        0x0001b728:    4408        .D      ADD      r0,r0,r1
        0x0001b72a:    901c        ..      STR      r0,[sp,#0x70]
        0x0001b72c:    e7ff        ..      B        0x1b72e ; am_util_stdio_vsprintf + 866
        0x0001b72e:    9912        ..      LDR      r1,[sp,#0x48]
        0x0001b730:    9814        ..      LDR      r0,[sp,#0x50]
        0x0001b732:    4408        .D      ADD      r0,r0,r1
        0x0001b734:    9014        ..      STR      r0,[sp,#0x50]
        0x0001b736:    e164        d.      B        0x1ba02 ; am_util_stdio_vsprintf + 1590
        0x0001b738:    f89d0040    ..@.    LDRB     r0,[sp,#0x40]
        0x0001b73c:    07c0        ..      LSLS     r0,r0,#31
        0x0001b73e:    b160        `.      CBZ      r0,0x1b75a ; am_util_stdio_vsprintf + 910
        0x0001b740:    e7ff        ..      B        0x1b742 ; am_util_stdio_vsprintf + 886
        0x0001b742:    981d        ..      LDR      r0,[sp,#0x74]
        0x0001b744:    3007        .0      ADDS     r0,#7
        0x0001b746:    f0200007     ...    BIC      r0,r0,#7
        0x0001b74a:    f1000108    ....    ADD      r1,r0,#8
        0x0001b74e:    911d        ..      STR      r1,[sp,#0x74]
        0x0001b750:    6801        .h      LDR      r1,[r0,#0]
        0x0001b752:    6840        @h      LDR      r0,[r0,#4]
        0x0001b754:    9104        ..      STR      r1,[sp,#0x10]
        0x0001b756:    9005        ..      STR      r0,[sp,#0x14]
        0x0001b758:    e007        ..      B        0x1b76a ; am_util_stdio_vsprintf + 926
        0x0001b75a:    981d        ..      LDR      r0,[sp,#0x74]
        0x0001b75c:    1d01        ..      ADDS     r1,r0,#4
        0x0001b75e:    911d        ..      STR      r1,[sp,#0x74]
        0x0001b760:    6801        .h      LDR      r1,[r0,#0]
        0x0001b762:    2000        .       MOVS     r0,#0
        0x0001b764:    9104        ..      STR      r1,[sp,#0x10]
        0x0001b766:    9005        ..      STR      r0,[sp,#0x14]
        0x0001b768:    e7ff        ..      B        0x1b76a ; am_util_stdio_vsprintf + 926
        0x0001b76a:    9904        ..      LDR      r1,[sp,#0x10]
        0x0001b76c:    9805        ..      LDR      r0,[sp,#0x14]
        0x0001b76e:    9118        ..      STR      r1,[sp,#0x60]
        0x0001b770:    9019        ..      STR      r0,[sp,#0x64]
        0x0001b772:    9813        ..      LDR      r0,[sp,#0x4c]
        0x0001b774:    b318        ..      CBZ      r0,0x1b7be ; am_util_stdio_vsprintf + 1010
        0x0001b776:    e7ff        ..      B        0x1b778 ; am_util_stdio_vsprintf + 940
        0x0001b778:    9818        ..      LDR      r0,[sp,#0x60]
        0x0001b77a:    9919        ..      LDR      r1,[sp,#0x64]
        0x0001b77c:    f000fe76    ..v.    BL       ndigits_in_u64 ; 0x1c46c
        0x0001b780:    4601        .F      MOV      r1,r0
        0x0001b782:    9813        ..      LDR      r0,[sp,#0x4c]
        0x0001b784:    1a40        @.      SUBS     r0,r0,r1
        0x0001b786:    9013        ..      STR      r0,[sp,#0x4c]
        0x0001b788:    981c        ..      LDR      r0,[sp,#0x70]
        0x0001b78a:    f89d1042    ..B.    LDRB     r1,[sp,#0x42]
        0x0001b78e:    9a13        ..      LDR      r2,[sp,#0x4c]
        0x0001b790:    f000fe8a    ....    BL       padbuffer ; 0x1c4a8
        0x0001b794:    9013        ..      STR      r0,[sp,#0x4c]
        0x0001b796:    981c        ..      LDR      r0,[sp,#0x70]
        0x0001b798:    b118        ..      CBZ      r0,0x1b7a2 ; am_util_stdio_vsprintf + 982
        0x0001b79a:    e7ff        ..      B        0x1b79c ; am_util_stdio_vsprintf + 976
        0x0001b79c:    9813        ..      LDR      r0,[sp,#0x4c]
        0x0001b79e:    9003        ..      STR      r0,[sp,#0xc]
        0x0001b7a0:    e002        ..      B        0x1b7a8 ; am_util_stdio_vsprintf + 988
        0x0001b7a2:    2000        .       MOVS     r0,#0
        0x0001b7a4:    9003        ..      STR      r0,[sp,#0xc]
        0x0001b7a6:    e7ff        ..      B        0x1b7a8 ; am_util_stdio_vsprintf + 988
        0x0001b7a8:    9903        ..      LDR      r1,[sp,#0xc]
        0x0001b7aa:    981c        ..      LDR      r0,[sp,#0x70]
        0x0001b7ac:    4408        .D      ADD      r0,r0,r1
        0x0001b7ae:    901c        ..      STR      r0,[sp,#0x70]
        0x0001b7b0:    9913        ..      LDR      r1,[sp,#0x4c]
        0x0001b7b2:    9814        ..      LDR      r0,[sp,#0x50]
        0x0001b7b4:    4408        .D      ADD      r0,r0,r1
        0x0001b7b6:    9014        ..      STR      r0,[sp,#0x50]
        0x0001b7b8:    2000        .       MOVS     r0,#0
        0x0001b7ba:    9013        ..      STR      r0,[sp,#0x4c]
        0x0001b7bc:    e7ff        ..      B        0x1b7be ; am_util_stdio_vsprintf + 1010
        0x0001b7be:    9818        ..      LDR      r0,[sp,#0x60]
        0x0001b7c0:    9919        ..      LDR      r1,[sp,#0x64]
        0x0001b7c2:    9a1c        ..      LDR      r2,[sp,#0x70]
        0x0001b7c4:    f000ffc8    ....    BL       uint64_to_str ; 0x1c758
        0x0001b7c8:    9012        ..      STR      r0,[sp,#0x48]
        0x0001b7ca:    981c        ..      LDR      r0,[sp,#0x70]
        0x0001b7cc:    b128        (.      CBZ      r0,0x1b7da ; am_util_stdio_vsprintf + 1038
        0x0001b7ce:    e7ff        ..      B        0x1b7d0 ; am_util_stdio_vsprintf + 1028
        0x0001b7d0:    9912        ..      LDR      r1,[sp,#0x48]
        0x0001b7d2:    981c        ..      LDR      r0,[sp,#0x70]
        0x0001b7d4:    4408        .D      ADD      r0,r0,r1
        0x0001b7d6:    901c        ..      STR      r0,[sp,#0x70]
        0x0001b7d8:    e7ff        ..      B        0x1b7da ; am_util_stdio_vsprintf + 1038
        0x0001b7da:    9912        ..      LDR      r1,[sp,#0x48]
        0x0001b7dc:    9814        ..      LDR      r0,[sp,#0x50]
        0x0001b7de:    4408        .D      ADD      r0,r0,r1
        0x0001b7e0:    9014        ..      STR      r0,[sp,#0x50]
        0x0001b7e2:    e10e        ..      B        0x1ba02 ; am_util_stdio_vsprintf + 1590
        0x0001b7e4:    f89d0040    ..@.    LDRB     r0,[sp,#0x40]
        0x0001b7e8:    07c0        ..      LSLS     r0,r0,#31
        0x0001b7ea:    b160        `.      CBZ      r0,0x1b806 ; am_util_stdio_vsprintf + 1082
        0x0001b7ec:    e7ff        ..      B        0x1b7ee ; am_util_stdio_vsprintf + 1058
        0x0001b7ee:    981d        ..      LDR      r0,[sp,#0x74]
        0x0001b7f0:    3007        .0      ADDS     r0,#7
        0x0001b7f2:    f0200007     ...    BIC      r0,r0,#7
        0x0001b7f6:    f1000108    ....    ADD      r1,r0,#8
        0x0001b7fa:    911d        ..      STR      r1,[sp,#0x74]
        0x0001b7fc:    6801        .h      LDR      r1,[r0,#0]
        0x0001b7fe:    6840        @h      LDR      r0,[r0,#4]
        0x0001b800:    9101        ..      STR      r1,[sp,#4]
        0x0001b802:    9002        ..      STR      r0,[sp,#8]
        0x0001b804:    e007        ..      B        0x1b816 ; am_util_stdio_vsprintf + 1098
        0x0001b806:    981d        ..      LDR      r0,[sp,#0x74]
        0x0001b808:    1d01        ..      ADDS     r1,r0,#4
        0x0001b80a:    911d        ..      STR      r1,[sp,#0x74]
        0x0001b80c:    6801        .h      LDR      r1,[r0,#0]
        0x0001b80e:    17c8        ..      ASRS     r0,r1,#31
        0x0001b810:    9101        ..      STR      r1,[sp,#4]
        0x0001b812:    9002        ..      STR      r0,[sp,#8]
        0x0001b814:    e7ff        ..      B        0x1b816 ; am_util_stdio_vsprintf + 1098
        0x0001b816:    9901        ..      LDR      r1,[sp,#4]
        0x0001b818:    9802        ..      LDR      r0,[sp,#8]
        0x0001b81a:    9116        ..      STR      r1,[sp,#0x58]
        0x0001b81c:    9017        ..      STR      r0,[sp,#0x5c]
        0x0001b81e:    9817        ..      LDR      r0,[sp,#0x5c]
        0x0001b820:    f1b03fff    ...?    CMP      r0,#0xffffffff
        0x0001b824:    dc0c        ..      BGT      0x1b840 ; am_util_stdio_vsprintf + 1140
        0x0001b826:    e7ff        ..      B        0x1b828 ; am_util_stdio_vsprintf + 1116
        0x0001b828:    9816        ..      LDR      r0,[sp,#0x58]
        0x0001b82a:    9a17        ..      LDR      r2,[sp,#0x5c]
        0x0001b82c:    4241        AB      RSBS     r1,r0,#0
        0x0001b82e:    f04f0000    O...    MOV      r0,#0
        0x0001b832:    4190        .A      SBCS     r0,r0,r2
        0x0001b834:    9118        ..      STR      r1,[sp,#0x60]
        0x0001b836:    9019        ..      STR      r0,[sp,#0x64]
        0x0001b838:    2001        .       MOVS     r0,#1
        0x0001b83a:    f88d003f    ..?.    STRB     r0,[sp,#0x3f]
        0x0001b83e:    e007        ..      B        0x1b850 ; am_util_stdio_vsprintf + 1156
        0x0001b840:    9816        ..      LDR      r0,[sp,#0x58]
        0x0001b842:    9917        ..      LDR      r1,[sp,#0x5c]
        0x0001b844:    9119        ..      STR      r1,[sp,#0x64]
        0x0001b846:    9018        ..      STR      r0,[sp,#0x60]
        0x0001b848:    2000        .       MOVS     r0,#0
        0x0001b84a:    f88d003f    ..?.    STRB     r0,[sp,#0x3f]
        0x0001b84e:    e7ff        ..      B        0x1b850 ; am_util_stdio_vsprintf + 1156
        0x0001b850:    9813        ..      LDR      r0,[sp,#0x4c]
        0x0001b852:    2800        .(      CMP      r0,#0
        0x0001b854:    d055        U.      BEQ      0x1b902 ; am_util_stdio_vsprintf + 1334
        0x0001b856:    e7ff        ..      B        0x1b858 ; am_util_stdio_vsprintf + 1164
        0x0001b858:    9818        ..      LDR      r0,[sp,#0x60]
        0x0001b85a:    9919        ..      LDR      r1,[sp,#0x64]
        0x0001b85c:    f000fdee    ....    BL       ndigits_in_i64 ; 0x1c43c
        0x0001b860:    4601        .F      MOV      r1,r0
        0x0001b862:    9813        ..      LDR      r0,[sp,#0x4c]
        0x0001b864:    1a40        @.      SUBS     r0,r0,r1
        0x0001b866:    9013        ..      STR      r0,[sp,#0x4c]
        0x0001b868:    f89d003f    ..?.    LDRB     r0,[sp,#0x3f]
        0x0001b86c:    07c0        ..      LSLS     r0,r0,#31
        0x0001b86e:    b1b0        ..      CBZ      r0,0x1b89e ; am_util_stdio_vsprintf + 1234
        0x0001b870:    e7ff        ..      B        0x1b872 ; am_util_stdio_vsprintf + 1190
        0x0001b872:    9813        ..      LDR      r0,[sp,#0x4c]
        0x0001b874:    3801        .8      SUBS     r0,#1
        0x0001b876:    9013        ..      STR      r0,[sp,#0x4c]
        0x0001b878:    f89d0042    ..B.    LDRB     r0,[sp,#0x42]
        0x0001b87c:    2830        0(      CMP      r0,#0x30
        0x0001b87e:    d10d        ..      BNE      0x1b89c ; am_util_stdio_vsprintf + 1232
        0x0001b880:    e7ff        ..      B        0x1b882 ; am_util_stdio_vsprintf + 1206
        0x0001b882:    981c        ..      LDR      r0,[sp,#0x70]
        0x0001b884:    b130        0.      CBZ      r0,0x1b894 ; am_util_stdio_vsprintf + 1224
        0x0001b886:    e7ff        ..      B        0x1b888 ; am_util_stdio_vsprintf + 1212
        0x0001b888:    991c        ..      LDR      r1,[sp,#0x70]
        0x0001b88a:    1c48        H.      ADDS     r0,r1,#1
        0x0001b88c:    901c        ..      STR      r0,[sp,#0x70]
        0x0001b88e:    202d        -       MOVS     r0,#0x2d
        0x0001b890:    7008        .p      STRB     r0,[r1,#0]
        0x0001b892:    e7ff        ..      B        0x1b894 ; am_util_stdio_vsprintf + 1224
        0x0001b894:    9814        ..      LDR      r0,[sp,#0x50]
        0x0001b896:    3001        .0      ADDS     r0,#1
        0x0001b898:    9014        ..      STR      r0,[sp,#0x50]
        0x0001b89a:    e7ff        ..      B        0x1b89c ; am_util_stdio_vsprintf + 1232
        0x0001b89c:    e7ff        ..      B        0x1b89e ; am_util_stdio_vsprintf + 1234
        0x0001b89e:    981c        ..      LDR      r0,[sp,#0x70]
        0x0001b8a0:    f89d1042    ..B.    LDRB     r1,[sp,#0x42]
        0x0001b8a4:    9a13        ..      LDR      r2,[sp,#0x4c]
        0x0001b8a6:    f000fdff    ....    BL       padbuffer ; 0x1c4a8
        0x0001b8aa:    9013        ..      STR      r0,[sp,#0x4c]
        0x0001b8ac:    981c        ..      LDR      r0,[sp,#0x70]
        0x0001b8ae:    b118        ..      CBZ      r0,0x1b8b8 ; am_util_stdio_vsprintf + 1260
        0x0001b8b0:    e7ff        ..      B        0x1b8b2 ; am_util_stdio_vsprintf + 1254
        0x0001b8b2:    9813        ..      LDR      r0,[sp,#0x4c]
        0x0001b8b4:    9000        ..      STR      r0,[sp,#0]
        0x0001b8b6:    e002        ..      B        0x1b8be ; am_util_stdio_vsprintf + 1266
        0x0001b8b8:    2000        .       MOVS     r0,#0
        0x0001b8ba:    9000        ..      STR      r0,[sp,#0]
        0x0001b8bc:    e7ff        ..      B        0x1b8be ; am_util_stdio_vsprintf + 1266
        0x0001b8be:    9900        ..      LDR      r1,[sp,#0]
        0x0001b8c0:    981c        ..      LDR      r0,[sp,#0x70]
        0x0001b8c2:    4408        .D      ADD      r0,r0,r1
        0x0001b8c4:    901c        ..      STR      r0,[sp,#0x70]
        0x0001b8c6:    9913        ..      LDR      r1,[sp,#0x4c]
        0x0001b8c8:    9814        ..      LDR      r0,[sp,#0x50]
        0x0001b8ca:    4408        .D      ADD      r0,r0,r1
        0x0001b8cc:    9014        ..      STR      r0,[sp,#0x50]
        0x0001b8ce:    2000        .       MOVS     r0,#0
        0x0001b8d0:    9013        ..      STR      r0,[sp,#0x4c]
        0x0001b8d2:    f89d003f    ..?.    LDRB     r0,[sp,#0x3f]
        0x0001b8d6:    07c0        ..      LSLS     r0,r0,#31
        0x0001b8d8:    b190        ..      CBZ      r0,0x1b900 ; am_util_stdio_vsprintf + 1332
        0x0001b8da:    e7ff        ..      B        0x1b8dc ; am_util_stdio_vsprintf + 1296
        0x0001b8dc:    f89d0042    ..B.    LDRB     r0,[sp,#0x42]
        0x0001b8e0:    2820         (      CMP      r0,#0x20
        0x0001b8e2:    d10d        ..      BNE      0x1b900 ; am_util_stdio_vsprintf + 1332
        0x0001b8e4:    e7ff        ..      B        0x1b8e6 ; am_util_stdio_vsprintf + 1306
        0x0001b8e6:    981c        ..      LDR      r0,[sp,#0x70]
        0x0001b8e8:    b130        0.      CBZ      r0,0x1b8f8 ; am_util_stdio_vsprintf + 1324
        0x0001b8ea:    e7ff        ..      B        0x1b8ec ; am_util_stdio_vsprintf + 1312
        0x0001b8ec:    991c        ..      LDR      r1,[sp,#0x70]
        0x0001b8ee:    1c48        H.      ADDS     r0,r1,#1
        0x0001b8f0:    901c        ..      STR      r0,[sp,#0x70]
        0x0001b8f2:    202d        -       MOVS     r0,#0x2d
        0x0001b8f4:    7008        .p      STRB     r0,[r1,#0]
        0x0001b8f6:    e7ff        ..      B        0x1b8f8 ; am_util_stdio_vsprintf + 1324
        0x0001b8f8:    9814        ..      LDR      r0,[sp,#0x50]
        0x0001b8fa:    3001        .0      ADDS     r0,#1
        0x0001b8fc:    9014        ..      STR      r0,[sp,#0x50]
        0x0001b8fe:    e7ff        ..      B        0x1b900 ; am_util_stdio_vsprintf + 1332
        0x0001b900:    e012        ..      B        0x1b928 ; am_util_stdio_vsprintf + 1372
        0x0001b902:    f89d003f    ..?.    LDRB     r0,[sp,#0x3f]
        0x0001b906:    07c0        ..      LSLS     r0,r0,#31
        0x0001b908:    b168        h.      CBZ      r0,0x1b926 ; am_util_stdio_vsprintf + 1370
        0x0001b90a:    e7ff        ..      B        0x1b90c ; am_util_stdio_vsprintf + 1344
        0x0001b90c:    981c        ..      LDR      r0,[sp,#0x70]
        0x0001b90e:    b130        0.      CBZ      r0,0x1b91e ; am_util_stdio_vsprintf + 1362
        0x0001b910:    e7ff        ..      B        0x1b912 ; am_util_stdio_vsprintf + 1350
        0x0001b912:    991c        ..      LDR      r1,[sp,#0x70]
        0x0001b914:    1c48        H.      ADDS     r0,r1,#1
        0x0001b916:    901c        ..      STR      r0,[sp,#0x70]
        0x0001b918:    202d        -       MOVS     r0,#0x2d
        0x0001b91a:    7008        .p      STRB     r0,[r1,#0]
        0x0001b91c:    e7ff        ..      B        0x1b91e ; am_util_stdio_vsprintf + 1362
        0x0001b91e:    9814        ..      LDR      r0,[sp,#0x50]
        0x0001b920:    3001        .0      ADDS     r0,#1
        0x0001b922:    9014        ..      STR      r0,[sp,#0x50]
        0x0001b924:    e7ff        ..      B        0x1b926 ; am_util_stdio_vsprintf + 1370
        0x0001b926:    e7ff        ..      B        0x1b928 ; am_util_stdio_vsprintf + 1372
        0x0001b928:    9818        ..      LDR      r0,[sp,#0x60]
        0x0001b92a:    9919        ..      LDR      r1,[sp,#0x64]
        0x0001b92c:    9a1c        ..      LDR      r2,[sp,#0x70]
        0x0001b92e:    f000ff13    ....    BL       uint64_to_str ; 0x1c758
        0x0001b932:    9012        ..      STR      r0,[sp,#0x48]
        0x0001b934:    981c        ..      LDR      r0,[sp,#0x70]
        0x0001b936:    b128        (.      CBZ      r0,0x1b944 ; am_util_stdio_vsprintf + 1400
        0x0001b938:    e7ff        ..      B        0x1b93a ; am_util_stdio_vsprintf + 1390
        0x0001b93a:    9912        ..      LDR      r1,[sp,#0x48]
        0x0001b93c:    981c        ..      LDR      r0,[sp,#0x70]
        0x0001b93e:    4408        .D      ADD      r0,r0,r1
        0x0001b940:    901c        ..      STR      r0,[sp,#0x70]
        0x0001b942:    e7ff        ..      B        0x1b944 ; am_util_stdio_vsprintf + 1400
        0x0001b944:    9912        ..      LDR      r1,[sp,#0x48]
        0x0001b946:    9814        ..      LDR      r0,[sp,#0x50]
        0x0001b948:    4408        .D      ADD      r0,r0,r1
        0x0001b94a:    9014        ..      STR      r0,[sp,#0x50]
        0x0001b94c:    e059        Y.      B        0x1ba02 ; am_util_stdio_vsprintf + 1590
        0x0001b94e:    981c        ..      LDR      r0,[sp,#0x70]
        0x0001b950:    2800        .(      CMP      r0,#0
        0x0001b952:    d047        G.      BEQ      0x1b9e4 ; am_util_stdio_vsprintf + 1560
        0x0001b954:    e7ff        ..      B        0x1b956 ; am_util_stdio_vsprintf + 1418
        0x0001b956:    981d        ..      LDR      r0,[sp,#0x74]
        0x0001b958:    3007        .0      ADDS     r0,#7
        0x0001b95a:    f0200007     ...    BIC      r0,r0,#7
        0x0001b95e:    f1000108    ....    ADD      r1,r0,#8
        0x0001b962:    911d        ..      STR      r1,[sp,#0x74]
        0x0001b964:    ed900b00    ....    VLDR     d0,[r0,#0]
        0x0001b968:    ec510b10    Q...    VMOV     r0,r1,d0
        0x0001b96c:    f000ff38    ..8.    BL       __aeabi_d2f ; 0x1c7e0
        0x0001b970:    900d        ..      STR      r0,[sp,#0x34]
        0x0001b972:    991c        ..      LDR      r1,[sp,#0x70]
        0x0001b974:    2014        .       MOVS     r0,#0x14
        0x0001b976:    6008        .`      STR      r0,[r1,#0]
        0x0001b978:    ed9d0a0d    ....    VLDR     s0,[sp,#0x34]
        0x0001b97c:    981c        ..      LDR      r0,[sp,#0x70]
        0x0001b97e:    9911        ..      LDR      r1,[sp,#0x44]
        0x0001b980:    f000fa4c    ..L.    BL       ftoa ; 0x1be1c
        0x0001b984:    9012        ..      STR      r0,[sp,#0x48]
        0x0001b986:    9812        ..      LDR      r0,[sp,#0x48]
        0x0001b988:    f1b03fff    ...?    CMP      r0,#0xffffffff
        0x0001b98c:    dc21        !.      BGT      0x1b9d2 ; am_util_stdio_vsprintf + 1542
        0x0001b98e:    e7ff        ..      B        0x1b990 ; am_util_stdio_vsprintf + 1476
        0x0001b990:    9812        ..      LDR      r0,[sp,#0x48]
        0x0001b992:    3001        .0      ADDS     r0,#1
        0x0001b994:    b930        0.      CBNZ     r0,0x1b9a4 ; am_util_stdio_vsprintf + 1496
        0x0001b996:    e7ff        ..      B        0x1b998 ; am_util_stdio_vsprintf + 1484
        0x0001b998:    f6426030    B.0`    MOV      r0,#0x2e30
        0x0001b99c:    f2c00030    ..0.    MOVT     r0,#0x30
        0x0001b9a0:    900c        ..      STR      r0,[sp,#0x30]
        0x0001b9a2:    e010        ..      B        0x1b9c6 ; am_util_stdio_vsprintf + 1530
        0x0001b9a4:    9812        ..      LDR      r0,[sp,#0x48]
        0x0001b9a6:    3002        .0      ADDS     r0,#2
        0x0001b9a8:    b930        0.      CBNZ     r0,0x1b9b8 ; am_util_stdio_vsprintf + 1516
        0x0001b9aa:    e7ff        ..      B        0x1b9ac ; am_util_stdio_vsprintf + 1504
        0x0001b9ac:    f6426023    B.#`    MOV      r0,#0x2e23
        0x0001b9b0:    f2c00023    ..#.    MOVT     r0,#0x23
        0x0001b9b4:    900c        ..      STR      r0,[sp,#0x30]
        0x0001b9b6:    e005        ..      B        0x1b9c4 ; am_util_stdio_vsprintf + 1528
        0x0001b9b8:    f642603f    B.?`    MOV      r0,#0x2e3f
        0x0001b9bc:    f2c0003f    ..?.    MOVT     r0,#0x3f
        0x0001b9c0:    900c        ..      STR      r0,[sp,#0x30]
        0x0001b9c2:    e7ff        ..      B        0x1b9c4 ; am_util_stdio_vsprintf + 1528
        0x0001b9c4:    e7ff        ..      B        0x1b9c6 ; am_util_stdio_vsprintf + 1530
        0x0001b9c6:    980c        ..      LDR      r0,[sp,#0x30]
        0x0001b9c8:    991c        ..      LDR      r1,[sp,#0x70]
        0x0001b9ca:    6008        .`      STR      r0,[r1,#0]
        0x0001b9cc:    2003        .       MOVS     r0,#3
        0x0001b9ce:    9012        ..      STR      r0,[sp,#0x48]
        0x0001b9d0:    e7ff        ..      B        0x1b9d2 ; am_util_stdio_vsprintf + 1542
        0x0001b9d2:    9912        ..      LDR      r1,[sp,#0x48]
        0x0001b9d4:    9814        ..      LDR      r0,[sp,#0x50]
        0x0001b9d6:    4408        .D      ADD      r0,r0,r1
        0x0001b9d8:    9014        ..      STR      r0,[sp,#0x50]
        0x0001b9da:    9912        ..      LDR      r1,[sp,#0x48]
        0x0001b9dc:    981c        ..      LDR      r0,[sp,#0x70]
        0x0001b9de:    4408        .D      ADD      r0,r0,r1
        0x0001b9e0:    901c        ..      STR      r0,[sp,#0x70]
        0x0001b9e2:    e7ff        ..      B        0x1b9e4 ; am_util_stdio_vsprintf + 1560
        0x0001b9e4:    e00d        ..      B        0x1ba02 ; am_util_stdio_vsprintf + 1590
        0x0001b9e6:    981c        ..      LDR      r0,[sp,#0x70]
        0x0001b9e8:    b138        8.      CBZ      r0,0x1b9fa ; am_util_stdio_vsprintf + 1582
        0x0001b9ea:    e7ff        ..      B        0x1b9ec ; am_util_stdio_vsprintf + 1568
        0x0001b9ec:    981b        ..      LDR      r0,[sp,#0x6c]
        0x0001b9ee:    7800        .x      LDRB     r0,[r0,#0]
        0x0001b9f0:    991c        ..      LDR      r1,[sp,#0x70]
        0x0001b9f2:    1c4a        J.      ADDS     r2,r1,#1
        0x0001b9f4:    921c        ..      STR      r2,[sp,#0x70]
        0x0001b9f6:    7008        .p      STRB     r0,[r1,#0]
        0x0001b9f8:    e7ff        ..      B        0x1b9fa ; am_util_stdio_vsprintf + 1582
        0x0001b9fa:    9814        ..      LDR      r0,[sp,#0x50]
        0x0001b9fc:    3001        .0      ADDS     r0,#1
        0x0001b9fe:    9014        ..      STR      r0,[sp,#0x50]
        0x0001ba00:    e7ff        ..      B        0x1ba02 ; am_util_stdio_vsprintf + 1590
        0x0001ba02:    981b        ..      LDR      r0,[sp,#0x6c]
        0x0001ba04:    3001        .0      ADDS     r0,#1
        0x0001ba06:    901b        ..      STR      r0,[sp,#0x6c]
        0x0001ba08:    f7ffbce9    ....    B.W      0x1b3de ; am_util_stdio_vsprintf + 18
        0x0001ba0c:    981c        ..      LDR      r0,[sp,#0x70]
        0x0001ba0e:    b120         .      CBZ      r0,0x1ba1a ; am_util_stdio_vsprintf + 1614
        0x0001ba10:    e7ff        ..      B        0x1ba12 ; am_util_stdio_vsprintf + 1606
        0x0001ba12:    991c        ..      LDR      r1,[sp,#0x70]
        0x0001ba14:    2000        .       MOVS     r0,#0
        0x0001ba16:    7008        .p      STRB     r0,[r1,#0]
        0x0001ba18:    e7ff        ..      B        0x1ba1a ; am_util_stdio_vsprintf + 1614
        0x0001ba1a:    9814        ..      LDR      r0,[sp,#0x50]
        0x0001ba1c:    b01e        ..      ADD      sp,sp,#0x78
        0x0001ba1e:    bd80        ..      POP      {r7,pc}
    am_valid_sp
        0x0001ba20:    b082        ..      SUB      sp,sp,#8
        0x0001ba22:    9001        ..      STR      r0,[sp,#4]
        0x0001ba24:    9901        ..      LDR      r1,[sp,#4]
        0x0001ba26:    2000        .       MOVS     r0,#0
        0x0001ba28:    f1b15f80    ..._    CMP      r1,#0x10000000
        0x0001ba2c:    9000        ..      STR      r0,[sp,#0]
        0x0001ba2e:    d30b        ..      BCC      0x1ba48 ; am_valid_sp + 40
        0x0001ba30:    e7ff        ..      B        0x1ba32 ; am_valid_sp + 18
        0x0001ba32:    9901        ..      LDR      r1,[sp,#4]
        0x0001ba34:    f2480200    H...    MOVW     r2,#0x8000
        0x0001ba38:    f2c1021d    ....    MOVT     r2,#0x101d
        0x0001ba3c:    2000        .       MOVS     r0,#0
        0x0001ba3e:    4291        .B      CMP      r1,r2
        0x0001ba40:    bf38        8.      IT       CC
        0x0001ba42:    2001        .       MOVCC    r0,#1
        0x0001ba44:    9000        ..      STR      r0,[sp,#0]
        0x0001ba46:    e7ff        ..      B        0x1ba48 ; am_valid_sp + 40
        0x0001ba48:    9800        ..      LDR      r0,[sp,#0]
        0x0001ba4a:    f0000001    ....    AND      r0,r0,#1
        0x0001ba4e:    b002        ..      ADD      sp,sp,#8
        0x0001ba50:    4770        pG      BX       lr
        0x0001ba52:    0000        ..      MOVS     r0,r0
    buck_interval_check
        0x0001ba54:    b5f0        ..      PUSH     {r4-r7,lr}
        0x0001ba56:    b08b        ..      SUB      sp,sp,#0x2c
        0x0001ba58:    2260        `"      MOVS     r2,#0x60
        0x0001ba5a:    f2c40202    ....    MOVT     r2,#0x4002
        0x0001ba5e:    4604        .F      MOV      r4,r0
        0x0001ba60:    f8d20fa0    ....    LDR      r0,[r2,#0xfa0]
        0x0001ba64:    b194        ..      CBZ      r4,0x1ba8c ; buck_interval_check + 56
        0x0001ba66:    2900        .)      CMP      r1,#0
        0x0001ba68:    f2411100    A...    MOVW     r1,#0x1100
        0x0001ba6c:    f2c40102    ....    MOVT     r1,#0x4002
        0x0001ba70:    6809        .h      LDR      r1,[r1,#0]
        0x0001ba72:    f04f071d    O...    MOV      r7,#0x1d
        0x0001ba76:    bf08        ..      IT       EQ
        0x0001ba78:    271c        .'      MOVEQ    r7,#0x1c
        0x0001ba7a:    07c9        ..      LSLS     r1,r1,#31
        0x0001ba7c:    d004        ..      BEQ      0x1ba88 ; buck_interval_check + 52
        0x0001ba7e:    6811        .h      LDR      r1,[r2,#0]
        0x0001ba80:    f24012ef    @...    MOV      r2,#0x1ef
        0x0001ba84:    4211        .B      TST      r1,r2
        0x0001ba86:    d004        ..      BEQ      0x1ba92 ; buck_interval_check + 62
        0x0001ba88:    2007        .       MOVS     r0,#7
        0x0001ba8a:    e000        ..      B        0x1ba8e ; buck_interval_check + 58
        0x0001ba8c:    2006        .       MOVS     r0,#6
        0x0001ba8e:    b00b        ..      ADD      sp,sp,#0x2c
        0x0001ba90:    bdf0        ..      POP      {r4-r7,pc}
        0x0001ba92:    f0000618    ....    AND      r6,r0,#0x18
        0x0001ba96:    200d        .       MOVS     r0,#0xd
        0x0001ba98:    f7fff995    ....    BL       am_hal_timer_clear_stop ; 0x1adc6
        0x0001ba9c:    200d        .       MOVS     r0,#0xd
        0x0001ba9e:    f7fff9cc    ....    BL       am_hal_timer_disable ; 0x1ae3a
        0x0001baa2:    200d        .       MOVS     r0,#0xd
        0x0001baa4:    f7fffa94    ....    BL       am_hal_timer_reset_config ; 0x1afd0
        0x0001baa8:    ad06        ..      ADD      r5,sp,#0x18
        0x0001baaa:    4628        (F      MOV      r0,r5
        0x0001baac:    f7fff9b5    ....    BL       am_hal_timer_default_config_set ; 0x1ae1a
        0x0001bab0:    2002        .       MOVS     r0,#2
        0x0001bab2:    f88d0019    ....    STRB     r0,[sp,#0x19]
        0x0001bab6:    200d        .       MOVS     r0,#0xd
        0x0001bab8:    4629        )F      MOV      r1,r5
        0x0001baba:    f88d7018    ...p    STRB     r7,[sp,#0x18]
        0x0001babe:    f000fd37    ..7.    BL       timer_config_b1 ; 0x1c530
        0x0001bac2:    2008        .       MOVS     r0,#8
        0x0001bac4:    f7fff97f    ....    BL       am_hal_timer_clear_stop ; 0x1adc6
        0x0001bac8:    2008        .       MOVS     r0,#8
        0x0001baca:    f7fff9b6    ....    BL       am_hal_timer_disable ; 0x1ae3a
        0x0001bace:    2008        .       MOVS     r0,#8
        0x0001bad0:    f7fffa7e    ..~.    BL       am_hal_timer_reset_config ; 0x1afd0
        0x0001bad4:    ad01        ..      ADD      r5,sp,#4
        0x0001bad6:    4628        (F      MOV      r0,r5
        0x0001bad8:    f7fff99f    ....    BL       am_hal_timer_default_config_set ; 0x1ae1a
        0x0001badc:    f2402001    @..     MOV      r0,#0x201
        0x0001bae0:    f8ad0004    ....    STRH     r0,[sp,#4]
        0x0001bae4:    2008        .       MOVS     r0,#8
        0x0001bae6:    4629        )F      MOV      r1,r5
        0x0001bae8:    f000fd22    ..".    BL       timer_config_b1 ; 0x1c530
        0x0001baec:    f7fdfdfe    ....    BL       am_hal_interrupt_master_disable ; 0x196ec
        0x0001baf0:    9000        ..      STR      r0,[sp,#0]
        0x0001baf2:    2008        .       MOVS     r0,#8
        0x0001baf4:    f7fff9bf    ....    BL       am_hal_timer_enable ; 0x1ae76
        0x0001baf8:    200d        .       MOVS     r0,#0xd
        0x0001bafa:    f7fff9bc    ....    BL       am_hal_timer_enable ; 0x1ae76
        0x0001bafe:    9800        ..      LDR      r0,[sp,#0]
        0x0001bb00:    f7fdfdfc    ....    BL       am_hal_interrupt_master_set ; 0x196fc
        0x0001bb04:    f2427510    B..u    MOV      r5,#0x2710
        0x0001bb08:    2e10        ..      CMP      r6,#0x10
        0x0001bb0a:    bf08        ..      IT       EQ
        0x0001bb0c:    f6446520    D. e    MOVEQ    r5,#0x4e20
        0x0001bb10:    f7fdfdec    ....    BL       am_hal_interrupt_master_disable ; 0x196ec
        0x0001bb14:    9000        ..      STR      r0,[sp,#0]
        0x0001bb16:    200d        .       MOVS     r0,#0xd
        0x0001bb18:    f7fffa47    ..G.    BL       am_hal_timer_read ; 0x1afaa
        0x0001bb1c:    280a        .(      CMP      r0,#0xa
        0x0001bb1e:    d206        ..      BCS      0x1bb2e ; buck_interval_check + 218
        0x0001bb20:    9800        ..      LDR      r0,[sp,#0]
        0x0001bb22:    f7fdfdeb    ....    BL       am_hal_interrupt_master_set ; 0x196fc
        0x0001bb26:    3d01        .=      SUBS     r5,#1
        0x0001bb28:    d1f2        ..      BNE      0x1bb10 ; buck_interval_check + 188
        0x0001bb2a:    2500        .%      MOVS     r5,#0
        0x0001bb2c:    e007        ..      B        0x1bb3e ; buck_interval_check + 234
        0x0001bb2e:    2008        .       MOVS     r0,#8
        0x0001bb30:    f7fffa3b    ..;.    BL       am_hal_timer_read ; 0x1afaa
        0x0001bb34:    9900        ..      LDR      r1,[sp,#0]
        0x0001bb36:    4605        .F      MOV      r5,r0
        0x0001bb38:    4608        .F      MOV      r0,r1
        0x0001bb3a:    f7fdfddf    ....    BL       am_hal_interrupt_master_set ; 0x196fc
        0x0001bb3e:    200d        .       MOVS     r0,#0xd
        0x0001bb40:    f7fff941    ..A.    BL       am_hal_timer_clear_stop ; 0x1adc6
        0x0001bb44:    200d        .       MOVS     r0,#0xd
        0x0001bb46:    f7fff978    ..x.    BL       am_hal_timer_disable ; 0x1ae3a
        0x0001bb4a:    200d        .       MOVS     r0,#0xd
        0x0001bb4c:    f7fffa40    ..@.    BL       am_hal_timer_reset_config ; 0x1afd0
        0x0001bb50:    2008        .       MOVS     r0,#8
        0x0001bb52:    f7fff938    ..8.    BL       am_hal_timer_clear_stop ; 0x1adc6
        0x0001bb56:    2008        .       MOVS     r0,#8
        0x0001bb58:    f7fff96f    ..o.    BL       am_hal_timer_disable ; 0x1ae3a
        0x0001bb5c:    2008        .       MOVS     r0,#8
        0x0001bb5e:    f7fffa37    ..7.    BL       am_hal_timer_reset_config ; 0x1afd0
        0x0001bb62:    b185        ..      CBZ      r5,0x1bb86 ; buck_interval_check + 306
        0x0001bb64:    f64a20ab    J..     MOV      r0,#0xaaab
        0x0001bb68:    f6ca20aa    ...     MOVT     r0,#0xaaaa
        0x0001bb6c:    fba50100    ....    UMULL    r0,r1,r5,r0
        0x0001bb70:    0888        ..      LSRS     r0,r1,#2
        0x0001bb72:    f5b57f96    ....    CMP      r5,#0x12c
        0x0001bb76:    bf38        8.      IT       CC
        0x0001bb78:    2032        2       MOVCC    r0,#0x32
        0x0001bb7a:    2896        .(      CMP      r0,#0x96
        0x0001bb7c:    bf28        (.      IT       CS
        0x0001bb7e:    2096        .       MOVCS    r0,#0x96
        0x0001bb80:    6020         `      STR      r0,[r4,#0]
        0x0001bb82:    2000        .       MOVS     r0,#0
        0x0001bb84:    e783        ..      B        0x1ba8e ; buck_interval_check + 58
        0x0001bb86:    2001        .       MOVS     r0,#1
        0x0001bb88:    e781        ..      B        0x1ba8e ; buck_interval_check + 58
    buck_ldo_override_init
        0x0001bb8a:    2060        `       MOVS     r0,#0x60
        0x0001bb8c:    f2c40002    ....    MOVT     r0,#0x4002
        0x0001bb90:    6801        .h      LDR      r1,[r0,#0]
        0x0001bb92:    2204        ."      MOVS     r2,#4
        0x0001bb94:    f4413100    A..1    ORR      r1,r1,#0x20000
        0x0001bb98:    6001        .`      STR      r1,[r0,#0]
        0x0001bb9a:    6801        .h      LDR      r1,[r0,#0]
        0x0001bb9c:    f4412180    A..!    ORR      r1,r1,#0x40000
        0x0001bba0:    6001        .`      STR      r1,[r0,#0]
        0x0001bba2:    6801        .h      LDR      r1,[r0,#0]
        0x0001bba4:    f4412100    A..!    ORR      r1,r1,#0x80000
        0x0001bba8:    6001        .`      STR      r1,[r0,#0]
        0x0001bbaa:    6801        .h      LDR      r1,[r0,#0]
        0x0001bbac:    f4413180    A..1    ORR      r1,r1,#0x10000
        0x0001bbb0:    6001        .`      STR      r1,[r0,#0]
        0x0001bbb2:    6a01        .j      LDR      r1,[r0,#0x20]
        0x0001bbb4:    f362218d    b..!    BFI      r1,r2,#10,#4
        0x0001bbb8:    6201        .b      STR      r1,[r0,#0x20]
        0x0001bbba:    6801        .h      LDR      r1,[r0,#0]
        0x0001bbbc:    f0210110    !...    BIC      r1,r1,#0x10
        0x0001bbc0:    6001        .`      STR      r1,[r0,#0]
        0x0001bbc2:    6801        .h      LDR      r1,[r0,#0]
        0x0001bbc4:    f041010e    A...    ORR      r1,r1,#0xe
        0x0001bbc8:    6001        .`      STR      r1,[r0,#0]
        0x0001bbca:    6801        .h      LDR      r1,[r0,#0]
        0x0001bbcc:    f0410101    A...    ORR      r1,r1,#1
        0x0001bbd0:    6001        .`      STR      r1,[r0,#0]
        0x0001bbd2:    6801        .h      LDR      r1,[r0,#0]
        0x0001bbd4:    f4217100    !..q    BIC      r1,r1,#0x200
        0x0001bbd8:    6001        .`      STR      r1,[r0,#0]
        0x0001bbda:    6801        .h      LDR      r1,[r0,#0]
        0x0001bbdc:    f44171e0    A..q    ORR      r1,r1,#0x1c0
        0x0001bbe0:    6001        .`      STR      r1,[r0,#0]
        0x0001bbe2:    6801        .h      LDR      r1,[r0,#0]
        0x0001bbe4:    f0410120    A. .    ORR      r1,r1,#0x20
        0x0001bbe8:    6001        .`      STR      r1,[r0,#0]
        0x0001bbea:    4770        pG      BX       lr
    check_if_data_match
        0x0001bbec:    b580        ..      PUSH     {r7,lr}
        0x0001bbee:    b086        ..      SUB      sp,sp,#0x18
        0x0001bbf0:    9005        ..      STR      r0,[sp,#0x14]
        0x0001bbf2:    9104        ..      STR      r1,[sp,#0x10]
        0x0001bbf4:    9203        ..      STR      r2,[sp,#0xc]
        0x0001bbf6:    2000        .       MOVS     r0,#0
        0x0001bbf8:    9002        ..      STR      r0,[sp,#8]
        0x0001bbfa:    e7ff        ..      B        0x1bbfc ; check_if_data_match + 16
        0x0001bbfc:    9802        ..      LDR      r0,[sp,#8]
        0x0001bbfe:    9903        ..      LDR      r1,[sp,#0xc]
        0x0001bc00:    4288        .B      CMP      r0,r1
        0x0001bc02:    d21c        ..      BCS      0x1bc3e ; check_if_data_match + 82
        0x0001bc04:    e7ff        ..      B        0x1bc06 ; check_if_data_match + 26
        0x0001bc06:    9805        ..      LDR      r0,[sp,#0x14]
        0x0001bc08:    9a02        ..      LDR      r2,[sp,#8]
        0x0001bc0a:    5c80        .\      LDRB     r0,[r0,r2]
        0x0001bc0c:    9904        ..      LDR      r1,[sp,#0x10]
        0x0001bc0e:    5c89        .\      LDRB     r1,[r1,r2]
        0x0001bc10:    4288        .B      CMP      r0,r1
        0x0001bc12:    d00f        ..      BEQ      0x1bc34 ; check_if_data_match + 72
        0x0001bc14:    e7ff        ..      B        0x1bc16 ; check_if_data_match + 42
        0x0001bc16:    9b02        ..      LDR      r3,[sp,#8]
        0x0001bc18:    9805        ..      LDR      r0,[sp,#0x14]
        0x0001bc1a:    5cc2        .\      LDRB     r2,[r0,r3]
        0x0001bc1c:    9804        ..      LDR      r0,[sp,#0x10]
        0x0001bc1e:    5cc0        .\      LDRB     r0,[r0,r3]
        0x0001bc20:    4669        iF      MOV      r1,sp
        0x0001bc22:    6008        .`      STR      r0,[r1,#0]
        0x0001bc24:    f64c40a1    L..@    MOV      r0,#0xcca1
        0x0001bc28:    f2c00001    ....    MOVT     r0,#1
        0x0001bc2c:    4619        .F      MOV      r1,r3
        0x0001bc2e:    f7fffb95    ....    BL       am_util_stdio_printf ; 0x1b35c
        0x0001bc32:    e004        ..      B        0x1bc3e ; check_if_data_match + 82
        0x0001bc34:    e7ff        ..      B        0x1bc36 ; check_if_data_match + 74
        0x0001bc36:    9802        ..      LDR      r0,[sp,#8]
        0x0001bc38:    3001        .0      ADDS     r0,#1
        0x0001bc3a:    9002        ..      STR      r0,[sp,#8]
        0x0001bc3c:    e7de        ..      B        0x1bbfc ; check_if_data_match + 16
        0x0001bc3e:    9802        ..      LDR      r0,[sp,#8]
        0x0001bc40:    9903        ..      LDR      r1,[sp,#0xc]
        0x0001bc42:    4288        .B      CMP      r0,r1
        0x0001bc44:    d107        ..      BNE      0x1bc56 ; check_if_data_match + 106
        0x0001bc46:    e7ff        ..      B        0x1bc48 ; check_if_data_match + 92
        0x0001bc48:    f64c40cc    L..@    MOV      r0,#0xcccc
        0x0001bc4c:    f2c00001    ....    MOVT     r0,#1
        0x0001bc50:    f7fffb84    ....    BL       am_util_stdio_printf ; 0x1b35c
        0x0001bc54:    e7ff        ..      B        0x1bc56 ; check_if_data_match + 106
        0x0001bc56:    b006        ..      ADD      sp,sp,#0x18
        0x0001bc58:    bd80        ..      POP      {r7,pc}
        0x0001bc5a:    0000        ..      MOVS     r0,r0
    decstr_to_int
        0x0001bc5c:    b087        ..      SUB      sp,sp,#0x1c
        0x0001bc5e:    9006        ..      STR      r0,[sp,#0x18]
        0x0001bc60:    9105        ..      STR      r1,[sp,#0x14]
        0x0001bc62:    2000        .       MOVS     r0,#0
        0x0001bc64:    f88d0013    ....    STRB     r0,[sp,#0x13]
        0x0001bc68:    9003        ..      STR      r0,[sp,#0xc]
        0x0001bc6a:    9002        ..      STR      r0,[sp,#8]
        0x0001bc6c:    9806        ..      LDR      r0,[sp,#0x18]
        0x0001bc6e:    7800        .x      LDRB     r0,[r0,#0]
        0x0001bc70:    282d        -(      CMP      r0,#0x2d
        0x0001bc72:    d10a        ..      BNE      0x1bc8a ; decstr_to_int + 46
        0x0001bc74:    e7ff        ..      B        0x1bc76 ; decstr_to_int + 26
        0x0001bc76:    2001        .       MOVS     r0,#1
        0x0001bc78:    f88d0013    ....    STRB     r0,[sp,#0x13]
        0x0001bc7c:    9806        ..      LDR      r0,[sp,#0x18]
        0x0001bc7e:    3001        .0      ADDS     r0,#1
        0x0001bc80:    9006        ..      STR      r0,[sp,#0x18]
        0x0001bc82:    9802        ..      LDR      r0,[sp,#8]
        0x0001bc84:    3001        .0      ADDS     r0,#1
        0x0001bc86:    9002        ..      STR      r0,[sp,#8]
        0x0001bc88:    e7ff        ..      B        0x1bc8a ; decstr_to_int + 46
        0x0001bc8a:    e7ff        ..      B        0x1bc8c ; decstr_to_int + 48
        0x0001bc8c:    9806        ..      LDR      r0,[sp,#0x18]
        0x0001bc8e:    7801        .x      LDRB     r1,[r0,#0]
        0x0001bc90:    2000        .       MOVS     r0,#0
        0x0001bc92:    2930        0)      CMP      r1,#0x30
        0x0001bc94:    9001        ..      STR      r0,[sp,#4]
        0x0001bc96:    db08        ..      BLT      0x1bcaa ; decstr_to_int + 78
        0x0001bc98:    e7ff        ..      B        0x1bc9a ; decstr_to_int + 62
        0x0001bc9a:    9806        ..      LDR      r0,[sp,#0x18]
        0x0001bc9c:    7801        .x      LDRB     r1,[r0,#0]
        0x0001bc9e:    2000        .       MOVS     r0,#0
        0x0001bca0:    293a        :)      CMP      r1,#0x3a
        0x0001bca2:    bfb8        ..      IT       LT
        0x0001bca4:    2001        .       MOVLT    r0,#1
        0x0001bca6:    9001        ..      STR      r0,[sp,#4]
        0x0001bca8:    e7ff        ..      B        0x1bcaa ; decstr_to_int + 78
        0x0001bcaa:    9801        ..      LDR      r0,[sp,#4]
        0x0001bcac:    07c0        ..      LSLS     r0,r0,#31
        0x0001bcae:    b190        ..      CBZ      r0,0x1bcd6 ; decstr_to_int + 122
        0x0001bcb0:    e7ff        ..      B        0x1bcb2 ; decstr_to_int + 86
        0x0001bcb2:    9802        ..      LDR      r0,[sp,#8]
        0x0001bcb4:    3001        .0      ADDS     r0,#1
        0x0001bcb6:    9002        ..      STR      r0,[sp,#8]
        0x0001bcb8:    9803        ..      LDR      r0,[sp,#0xc]
        0x0001bcba:    eb000080    ....    ADD      r0,r0,r0,LSL #2
        0x0001bcbe:    0040        @.      LSLS     r0,r0,#1
        0x0001bcc0:    9003        ..      STR      r0,[sp,#0xc]
        0x0001bcc2:    9806        ..      LDR      r0,[sp,#0x18]
        0x0001bcc4:    7800        .x      LDRB     r0,[r0,#0]
        0x0001bcc6:    9903        ..      LDR      r1,[sp,#0xc]
        0x0001bcc8:    4408        .D      ADD      r0,r0,r1
        0x0001bcca:    3830        08      SUBS     r0,r0,#0x30
        0x0001bccc:    9003        ..      STR      r0,[sp,#0xc]
        0x0001bcce:    9806        ..      LDR      r0,[sp,#0x18]
        0x0001bcd0:    3001        .0      ADDS     r0,#1
        0x0001bcd2:    9006        ..      STR      r0,[sp,#0x18]
        0x0001bcd4:    e7da        ..      B        0x1bc8c ; decstr_to_int + 48
        0x0001bcd6:    9805        ..      LDR      r0,[sp,#0x14]
        0x0001bcd8:    b120         .      CBZ      r0,0x1bce4 ; decstr_to_int + 136
        0x0001bcda:    e7ff        ..      B        0x1bcdc ; decstr_to_int + 128
        0x0001bcdc:    9802        ..      LDR      r0,[sp,#8]
        0x0001bcde:    9905        ..      LDR      r1,[sp,#0x14]
        0x0001bce0:    6008        .`      STR      r0,[r1,#0]
        0x0001bce2:    e7ff        ..      B        0x1bce4 ; decstr_to_int + 136
        0x0001bce4:    f89d0013    ....    LDRB     r0,[sp,#0x13]
        0x0001bce8:    07c0        ..      LSLS     r0,r0,#31
        0x0001bcea:    b120         .      CBZ      r0,0x1bcf6 ; decstr_to_int + 154
        0x0001bcec:    e7ff        ..      B        0x1bcee ; decstr_to_int + 146
        0x0001bcee:    9803        ..      LDR      r0,[sp,#0xc]
        0x0001bcf0:    4240        @B      RSBS     r0,r0,#0
        0x0001bcf2:    9000        ..      STR      r0,[sp,#0]
        0x0001bcf4:    e002        ..      B        0x1bcfc ; decstr_to_int + 160
        0x0001bcf6:    9803        ..      LDR      r0,[sp,#0xc]
        0x0001bcf8:    9000        ..      STR      r0,[sp,#0]
        0x0001bcfa:    e7ff        ..      B        0x1bcfc ; decstr_to_int + 160
        0x0001bcfc:    9800        ..      LDR      r0,[sp,#0]
        0x0001bcfe:    b007        ..      ADD      sp,sp,#0x1c
        0x0001bd00:    4770        pG      BX       lr
        0x0001bd02:    0000        ..      MOVS     r0,r0
    divu64_10
        0x0001bd04:    b08c        ..      SUB      sp,sp,#0x30
        0x0001bd06:    9109        ..      STR      r1,[sp,#0x24]
        0x0001bd08:    9008        ..      STR      r0,[sp,#0x20]
        0x0001bd0a:    9809        ..      LDR      r0,[sp,#0x24]
        0x0001bd0c:    2800        .(      CMP      r0,#0
        0x0001bd0e:    d05b        [.      BEQ      0x1bdc8 ; divu64_10 + 196
        0x0001bd10:    e7ff        ..      B        0x1bd12 ; divu64_10 + 14
        0x0001bd12:    9b08        ..      LDR      r3,[sp,#0x20]
        0x0001bd14:    9a09        ..      LDR      r2,[sp,#0x24]
        0x0001bd16:    ea5f0052    _.R.    LSRS.W   r0,r2,#1
        0x0001bd1a:    ea4f0133    O.3.    RRX      r1,r3
        0x0001bd1e:    089b        ..      LSRS     r3,r3,#2
        0x0001bd20:    ea437382    C..s    ORR      r3,r3,r2,LSL #30
        0x0001bd24:    18c9        ..      ADDS     r1,r1,r3
        0x0001bd26:    eb400092    @...    ADC      r0,r0,r2,LSR #2
        0x0001bd2a:    9106        ..      STR      r1,[sp,#0x18]
        0x0001bd2c:    9007        ..      STR      r0,[sp,#0x1c]
        0x0001bd2e:    9906        ..      LDR      r1,[sp,#0x18]
        0x0001bd30:    9807        ..      LDR      r0,[sp,#0x1c]
        0x0001bd32:    090a        ..      LSRS     r2,r1,#4
        0x0001bd34:    ea427200    B..r    ORR      r2,r2,r0,LSL #28
        0x0001bd38:    1889        ..      ADDS     r1,r1,r2
        0x0001bd3a:    eb401010    @...    ADC      r0,r0,r0,LSR #4
        0x0001bd3e:    9106        ..      STR      r1,[sp,#0x18]
        0x0001bd40:    9007        ..      STR      r0,[sp,#0x1c]
        0x0001bd42:    9906        ..      LDR      r1,[sp,#0x18]
        0x0001bd44:    9807        ..      LDR      r0,[sp,#0x1c]
        0x0001bd46:    0a0a        ..      LSRS     r2,r1,#8
        0x0001bd48:    ea426200    B..b    ORR      r2,r2,r0,LSL #24
        0x0001bd4c:    1889        ..      ADDS     r1,r1,r2
        0x0001bd4e:    eb402010    @..     ADC      r0,r0,r0,LSR #8
        0x0001bd52:    9106        ..      STR      r1,[sp,#0x18]
        0x0001bd54:    9007        ..      STR      r0,[sp,#0x1c]
        0x0001bd56:    9906        ..      LDR      r1,[sp,#0x18]
        0x0001bd58:    9807        ..      LDR      r0,[sp,#0x1c]
        0x0001bd5a:    0c0a        ..      LSRS     r2,r1,#16
        0x0001bd5c:    ea424200    B..B    ORR      r2,r2,r0,LSL #16
        0x0001bd60:    1889        ..      ADDS     r1,r1,r2
        0x0001bd62:    eb404010    @..@    ADC      r0,r0,r0,LSR #16
        0x0001bd66:    9106        ..      STR      r1,[sp,#0x18]
        0x0001bd68:    9007        ..      STR      r0,[sp,#0x1c]
        0x0001bd6a:    9906        ..      LDR      r1,[sp,#0x18]
        0x0001bd6c:    9807        ..      LDR      r0,[sp,#0x1c]
        0x0001bd6e:    1809        ..      ADDS     r1,r1,r0
        0x0001bd70:    f1400000    @...    ADC      r0,r0,#0
        0x0001bd74:    9106        ..      STR      r1,[sp,#0x18]
        0x0001bd76:    9007        ..      STR      r0,[sp,#0x1c]
        0x0001bd78:    9806        ..      LDR      r0,[sp,#0x18]
        0x0001bd7a:    9907        ..      LDR      r1,[sp,#0x1c]
        0x0001bd7c:    08c0        ..      LSRS     r0,r0,#3
        0x0001bd7e:    ea407041    @.Ap    ORR      r0,r0,r1,LSL #29
        0x0001bd82:    08c9        ..      LSRS     r1,r1,#3
        0x0001bd84:    9107        ..      STR      r1,[sp,#0x1c]
        0x0001bd86:    9006        ..      STR      r0,[sp,#0x18]
        0x0001bd88:    9908        ..      LDR      r1,[sp,#0x20]
        0x0001bd8a:    9809        ..      LDR      r0,[sp,#0x24]
        0x0001bd8c:    9a06        ..      LDR      r2,[sp,#0x18]
        0x0001bd8e:    f8ddc01c    ....    LDR      r12,[sp,#0x1c]
        0x0001bd92:    230a        .#      MOVS     r3,#0xa
        0x0001bd94:    fba23203    ...2    UMULL    r3,r2,r2,r3
        0x0001bd98:    eb0c0c8c    ....    ADD      r12,r12,r12,LSL #2
        0x0001bd9c:    eb02024c    ..L.    ADD      r2,r2,r12,LSL #1
        0x0001bda0:    1ac9        ..      SUBS     r1,r1,r3
        0x0001bda2:    4190        .A      SBCS     r0,r0,r2
        0x0001bda4:    9104        ..      STR      r1,[sp,#0x10]
        0x0001bda6:    9005        ..      STR      r0,[sp,#0x14]
        0x0001bda8:    9906        ..      LDR      r1,[sp,#0x18]
        0x0001bdaa:    9807        ..      LDR      r0,[sp,#0x1c]
        0x0001bdac:    9b04        ..      LDR      r3,[sp,#0x10]
        0x0001bdae:    9a05        ..      LDR      r2,[sp,#0x14]
        0x0001bdb0:    3306        .3      ADDS     r3,#6
        0x0001bdb2:    f1420200    B...    ADC      r2,r2,#0
        0x0001bdb6:    091b        ..      LSRS     r3,r3,#4
        0x0001bdb8:    ea437302    C..s    ORR      r3,r3,r2,LSL #28
        0x0001bdbc:    18c9        ..      ADDS     r1,r1,r3
        0x0001bdbe:    eb401012    @...    ADC      r0,r0,r2,LSR #4
        0x0001bdc2:    910a        ..      STR      r1,[sp,#0x28]
        0x0001bdc4:    900b        ..      STR      r0,[sp,#0x2c]
        0x0001bdc6:    e025        %.      B        0x1be14 ; divu64_10 + 272
        0x0001bdc8:    9808        ..      LDR      r0,[sp,#0x20]
        0x0001bdca:    9001        ..      STR      r0,[sp,#4]
        0x0001bdcc:    9901        ..      LDR      r1,[sp,#4]
        0x0001bdce:    0848        H.      LSRS     r0,r1,#1
        0x0001bdd0:    eb000091    ....    ADD      r0,r0,r1,LSR #2
        0x0001bdd4:    9003        ..      STR      r0,[sp,#0xc]
        0x0001bdd6:    9803        ..      LDR      r0,[sp,#0xc]
        0x0001bdd8:    eb001010    ....    ADD      r0,r0,r0,LSR #4
        0x0001bddc:    9003        ..      STR      r0,[sp,#0xc]
        0x0001bdde:    9803        ..      LDR      r0,[sp,#0xc]
        0x0001bde0:    eb002010    ...     ADD      r0,r0,r0,LSR #8
        0x0001bde4:    9003        ..      STR      r0,[sp,#0xc]
        0x0001bde6:    9803        ..      LDR      r0,[sp,#0xc]
        0x0001bde8:    eb004010    ...@    ADD      r0,r0,r0,LSR #16
        0x0001bdec:    9003        ..      STR      r0,[sp,#0xc]
        0x0001bdee:    9803        ..      LDR      r0,[sp,#0xc]
        0x0001bdf0:    08c0        ..      LSRS     r0,r0,#3
        0x0001bdf2:    9003        ..      STR      r0,[sp,#0xc]
        0x0001bdf4:    9801        ..      LDR      r0,[sp,#4]
        0x0001bdf6:    9903        ..      LDR      r1,[sp,#0xc]
        0x0001bdf8:    eb010181    ....    ADD      r1,r1,r1,LSL #2
        0x0001bdfc:    eba00041    ..A.    SUB      r0,r0,r1,LSL #1
        0x0001be00:    9002        ..      STR      r0,[sp,#8]
        0x0001be02:    9803        ..      LDR      r0,[sp,#0xc]
        0x0001be04:    9902        ..      LDR      r1,[sp,#8]
        0x0001be06:    3106        .1      ADDS     r1,#6
        0x0001be08:    eb001011    ....    ADD      r0,r0,r1,LSR #4
        0x0001be0c:    2100        .!      MOVS     r1,#0
        0x0001be0e:    910b        ..      STR      r1,[sp,#0x2c]
        0x0001be10:    900a        ..      STR      r0,[sp,#0x28]
        0x0001be12:    e7ff        ..      B        0x1be14 ; divu64_10 + 272
        0x0001be14:    980a        ..      LDR      r0,[sp,#0x28]
        0x0001be16:    990b        ..      LDR      r1,[sp,#0x2c]
        0x0001be18:    b00c        ..      ADD      sp,sp,#0x30
        0x0001be1a:    4770        pG      BX       lr
    ftoa
        0x0001be1c:    b580        ..      PUSH     {r7,lr}
        0x0001be1e:    b090        ..      SUB      sp,sp,#0x40
        0x0001be20:    ed8d0a0e    ....    VSTR     s0,[sp,#0x38]
        0x0001be24:    900d        ..      STR      r0,[sp,#0x34]
        0x0001be26:    910c        ..      STR      r1,[sp,#0x30]
        0x0001be28:    980d        ..      LDR      r0,[sp,#0x34]
        0x0001be2a:    6800        .h      LDR      r0,[r0,#0]
        0x0001be2c:    9009        ..      STR      r0,[sp,#0x24]
        0x0001be2e:    9809        ..      LDR      r0,[sp,#0x24]
        0x0001be30:    2803        .(      CMP      r0,#3
        0x0001be32:    dc04        ..      BGT      0x1be3e ; ftoa + 34
        0x0001be34:    e7ff        ..      B        0x1be36 ; ftoa + 26
        0x0001be36:    f06f0002    o...    MVN      r0,#2
        0x0001be3a:    900f        ..      STR      r0,[sp,#0x3c]
        0x0001be3c:    e103        ..      B        0x1c046 ; ftoa + 554
        0x0001be3e:    ed9d0a0e    ....    VLDR     s0,[sp,#0x38]
        0x0001be42:    eeb50a40    ..@.    VCMP.F32 s0,#0.0
        0x0001be46:    eef1fa10    ....    VMRS     APSR_nzcv,FPSCR
        0x0001be4a:    d109        ..      BNE      0x1be60 ; ftoa + 68
        0x0001be4c:    e7ff        ..      B        0x1be4e ; ftoa + 50
        0x0001be4e:    990d        ..      LDR      r1,[sp,#0x34]
        0x0001be50:    f6426030    B.0`    MOV      r0,#0x2e30
        0x0001be54:    f2c00030    ..0.    MOVT     r0,#0x30
        0x0001be58:    6008        .`      STR      r0,[r1,#0]
        0x0001be5a:    2003        .       MOVS     r0,#3
        0x0001be5c:    900f        ..      STR      r0,[sp,#0x3c]
        0x0001be5e:    e0f2        ..      B        0x1c046 ; ftoa + 554
        0x0001be60:    980d        ..      LDR      r0,[sp,#0x34]
        0x0001be62:    9005        ..      STR      r0,[sp,#0x14]
        0x0001be64:    980e        ..      LDR      r0,[sp,#0x38]
        0x0001be66:    900b        ..      STR      r0,[sp,#0x2c]
        0x0001be68:    980b        ..      LDR      r0,[sp,#0x2c]
        0x0001be6a:    0dc1        ..      LSRS     r1,r0,#23
        0x0001be6c:    f06f007e    o.~.    MVN      r0,#0x7e
        0x0001be70:    fa50f081    P...    UXTAB    r0,r0,r1
        0x0001be74:    900a        ..      STR      r0,[sp,#0x28]
        0x0001be76:    980b        ..      LDR      r0,[sp,#0x2c]
        0x0001be78:    f4400000    @...    ORR      r0,r0,#0x800000
        0x0001be7c:    f020407f     ..@    BIC      r0,r0,#0xff000000
        0x0001be80:    9008        ..      STR      r0,[sp,#0x20]
        0x0001be82:    2000        .       MOVS     r0,#0
        0x0001be84:    9006        ..      STR      r0,[sp,#0x18]
        0x0001be86:    9007        ..      STR      r0,[sp,#0x1c]
        0x0001be88:    980a        ..      LDR      r0,[sp,#0x28]
        0x0001be8a:    281f        .(      CMP      r0,#0x1f
        0x0001be8c:    db04        ..      BLT      0x1be98 ; ftoa + 124
        0x0001be8e:    e7ff        ..      B        0x1be90 ; ftoa + 116
        0x0001be90:    f06f0001    o...    MVN      r0,#1
        0x0001be94:    900f        ..      STR      r0,[sp,#0x3c]
        0x0001be96:    e0d6        ..      B        0x1c046 ; ftoa + 554
        0x0001be98:    980a        ..      LDR      r0,[sp,#0x28]
        0x0001be9a:    f1100f18    ....    CMN      r0,#0x18
        0x0001be9e:    dc04        ..      BGT      0x1beaa ; ftoa + 142
        0x0001bea0:    e7ff        ..      B        0x1bea2 ; ftoa + 134
        0x0001bea2:    f04f30ff    O..0    MOV      r0,#0xffffffff
        0x0001bea6:    900f        ..      STR      r0,[sp,#0x3c]
        0x0001bea8:    e0cd        ..      B        0x1c046 ; ftoa + 554
        0x0001beaa:    980a        ..      LDR      r0,[sp,#0x28]
        0x0001beac:    2817        .(      CMP      r0,#0x17
        0x0001beae:    db06        ..      BLT      0x1bebe ; ftoa + 162
        0x0001beb0:    e7ff        ..      B        0x1beb2 ; ftoa + 150
        0x0001beb2:    9808        ..      LDR      r0,[sp,#0x20]
        0x0001beb4:    990a        ..      LDR      r1,[sp,#0x28]
        0x0001beb6:    3917        .9      SUBS     r1,r1,#0x17
        0x0001beb8:    4088        .@      LSLS     r0,r0,r1
        0x0001beba:    9007        ..      STR      r0,[sp,#0x1c]
        0x0001bebc:    e01a        ..      B        0x1bef4 ; ftoa + 216
        0x0001bebe:    980a        ..      LDR      r0,[sp,#0x28]
        0x0001bec0:    2800        .(      CMP      r0,#0
        0x0001bec2:    d40e        ..      BMI      0x1bee2 ; ftoa + 198
        0x0001bec4:    e7ff        ..      B        0x1bec6 ; ftoa + 170
        0x0001bec6:    9808        ..      LDR      r0,[sp,#0x20]
        0x0001bec8:    990a        ..      LDR      r1,[sp,#0x28]
        0x0001beca:    f1c10117    ....    RSB      r1,r1,#0x17
        0x0001bece:    4108        .A      ASRS     r0,r0,r1
        0x0001bed0:    9007        ..      STR      r0,[sp,#0x1c]
        0x0001bed2:    9808        ..      LDR      r0,[sp,#0x20]
        0x0001bed4:    990a        ..      LDR      r1,[sp,#0x28]
        0x0001bed6:    3101        .1      ADDS     r1,#1
        0x0001bed8:    4088        .@      LSLS     r0,r0,r1
        0x0001beda:    f020407f     ..@    BIC      r0,r0,#0xff000000
        0x0001bede:    9006        ..      STR      r0,[sp,#0x18]
        0x0001bee0:    e007        ..      B        0x1bef2 ; ftoa + 214
        0x0001bee2:    9808        ..      LDR      r0,[sp,#0x20]
        0x0001bee4:    f020407f     ..@    BIC      r0,r0,#0xff000000
        0x0001bee8:    990a        ..      LDR      r1,[sp,#0x28]
        0x0001beea:    43c9        .C      MVNS     r1,r1
        0x0001beec:    40c8        .@      LSRS     r0,r0,r1
        0x0001beee:    9006        ..      STR      r0,[sp,#0x18]
        0x0001bef0:    e7ff        ..      B        0x1bef2 ; ftoa + 214
        0x0001bef2:    e7ff        ..      B        0x1bef4 ; ftoa + 216
        0x0001bef4:    e7ff        ..      B        0x1bef6 ; ftoa + 218
        0x0001bef6:    e7ff        ..      B        0x1bef8 ; ftoa + 220
        0x0001bef8:    980b        ..      LDR      r0,[sp,#0x2c]
        0x0001befa:    f1b03fff    ...?    CMP      r0,#0xffffffff
        0x0001befe:    dc06        ..      BGT      0x1bf0e ; ftoa + 242
        0x0001bf00:    e7ff        ..      B        0x1bf02 ; ftoa + 230
        0x0001bf02:    990d        ..      LDR      r1,[sp,#0x34]
        0x0001bf04:    1c48        H.      ADDS     r0,r1,#1
        0x0001bf06:    900d        ..      STR      r0,[sp,#0x34]
        0x0001bf08:    202d        -       MOVS     r0,#0x2d
        0x0001bf0a:    7008        .p      STRB     r0,[r1,#0]
        0x0001bf0c:    e7ff        ..      B        0x1bf0e ; ftoa + 242
        0x0001bf0e:    9807        ..      LDR      r0,[sp,#0x1c]
        0x0001bf10:    b930        0.      CBNZ     r0,0x1bf20 ; ftoa + 260
        0x0001bf12:    e7ff        ..      B        0x1bf14 ; ftoa + 248
        0x0001bf14:    990d        ..      LDR      r1,[sp,#0x34]
        0x0001bf16:    1c48        H.      ADDS     r0,r1,#1
        0x0001bf18:    900d        ..      STR      r0,[sp,#0x34]
        0x0001bf1a:    2030        0       MOVS     r0,#0x30
        0x0001bf1c:    7008        .p      STRB     r0,[r1,#0]
        0x0001bf1e:    e01f        ..      B        0x1bf60 ; ftoa + 324
        0x0001bf20:    9807        ..      LDR      r0,[sp,#0x1c]
        0x0001bf22:    2801        .(      CMP      r0,#1
        0x0001bf24:    db06        ..      BLT      0x1bf34 ; ftoa + 280
        0x0001bf26:    e7ff        ..      B        0x1bf28 ; ftoa + 268
        0x0001bf28:    9807        ..      LDR      r0,[sp,#0x1c]
        0x0001bf2a:    17c1        ..      ASRS     r1,r0,#31
        0x0001bf2c:    9a0d        ..      LDR      r2,[sp,#0x34]
        0x0001bf2e:    f000fc13    ....    BL       uint64_to_str ; 0x1c758
        0x0001bf32:    e00b        ..      B        0x1bf4c ; ftoa + 304
        0x0001bf34:    990d        ..      LDR      r1,[sp,#0x34]
        0x0001bf36:    1c48        H.      ADDS     r0,r1,#1
        0x0001bf38:    900d        ..      STR      r0,[sp,#0x34]
        0x0001bf3a:    202d        -       MOVS     r0,#0x2d
        0x0001bf3c:    7008        .p      STRB     r0,[r1,#0]
        0x0001bf3e:    9807        ..      LDR      r0,[sp,#0x1c]
        0x0001bf40:    4240        @B      RSBS     r0,r0,#0
        0x0001bf42:    17c1        ..      ASRS     r1,r0,#31
        0x0001bf44:    9a0d        ..      LDR      r2,[sp,#0x34]
        0x0001bf46:    f000fc07    ....    BL       uint64_to_str ; 0x1c758
        0x0001bf4a:    e7ff        ..      B        0x1bf4c ; ftoa + 304
        0x0001bf4c:    e7ff        ..      B        0x1bf4e ; ftoa + 306
        0x0001bf4e:    980d        ..      LDR      r0,[sp,#0x34]
        0x0001bf50:    7800        .x      LDRB     r0,[r0,#0]
        0x0001bf52:    b120         .      CBZ      r0,0x1bf5e ; ftoa + 322
        0x0001bf54:    e7ff        ..      B        0x1bf56 ; ftoa + 314
        0x0001bf56:    980d        ..      LDR      r0,[sp,#0x34]
        0x0001bf58:    3001        .0      ADDS     r0,#1
        0x0001bf5a:    900d        ..      STR      r0,[sp,#0x34]
        0x0001bf5c:    e7f7        ..      B        0x1bf4e ; ftoa + 306
        0x0001bf5e:    e7ff        ..      B        0x1bf60 ; ftoa + 324
        0x0001bf60:    990d        ..      LDR      r1,[sp,#0x34]
        0x0001bf62:    1c48        H.      ADDS     r0,r1,#1
        0x0001bf64:    900d        ..      STR      r0,[sp,#0x34]
        0x0001bf66:    202e        .       MOVS     r0,#0x2e
        0x0001bf68:    7008        .p      STRB     r0,[r1,#0]
        0x0001bf6a:    9806        ..      LDR      r0,[sp,#0x18]
        0x0001bf6c:    b930        0.      CBNZ     r0,0x1bf7c ; ftoa + 352
        0x0001bf6e:    e7ff        ..      B        0x1bf70 ; ftoa + 340
        0x0001bf70:    990d        ..      LDR      r1,[sp,#0x34]
        0x0001bf72:    1c48        H.      ADDS     r0,r1,#1
        0x0001bf74:    900d        ..      STR      r0,[sp,#0x34]
        0x0001bf76:    2030        0       MOVS     r0,#0x30
        0x0001bf78:    7008        .p      STRB     r0,[r1,#0]
        0x0001bf7a:    e05c        \.      B        0x1c036 ; ftoa + 538
        0x0001bf7c:    9909        ..      LDR      r1,[sp,#0x24]
        0x0001bf7e:    980d        ..      LDR      r0,[sp,#0x34]
        0x0001bf80:    9a05        ..      LDR      r2,[sp,#0x14]
        0x0001bf82:    1a80        ..      SUBS     r0,r0,r2
        0x0001bf84:    43c0        .C      MVNS     r0,r0
        0x0001bf86:    4408        .D      ADD      r0,r0,r1
        0x0001bf88:    9002        ..      STR      r0,[sp,#8]
        0x0001bf8a:    9802        ..      LDR      r0,[sp,#8]
        0x0001bf8c:    990c        ..      LDR      r1,[sp,#0x30]
        0x0001bf8e:    4288        .B      CMP      r0,r1
        0x0001bf90:    dd03        ..      BLE      0x1bf9a ; ftoa + 382
        0x0001bf92:    e7ff        ..      B        0x1bf94 ; ftoa + 376
        0x0001bf94:    980c        ..      LDR      r0,[sp,#0x30]
        0x0001bf96:    9001        ..      STR      r0,[sp,#4]
        0x0001bf98:    e002        ..      B        0x1bfa0 ; ftoa + 388
        0x0001bf9a:    9802        ..      LDR      r0,[sp,#8]
        0x0001bf9c:    9001        ..      STR      r0,[sp,#4]
        0x0001bf9e:    e7ff        ..      B        0x1bfa0 ; ftoa + 388
        0x0001bfa0:    9801        ..      LDR      r0,[sp,#4]
        0x0001bfa2:    9002        ..      STR      r0,[sp,#8]
        0x0001bfa4:    2000        .       MOVS     r0,#0
        0x0001bfa6:    9003        ..      STR      r0,[sp,#0xc]
        0x0001bfa8:    e7ff        ..      B        0x1bfaa ; ftoa + 398
        0x0001bfaa:    9803        ..      LDR      r0,[sp,#0xc]
        0x0001bfac:    9902        ..      LDR      r1,[sp,#8]
        0x0001bfae:    4288        .B      CMP      r0,r1
        0x0001bfb0:    da15        ..      BGE      0x1bfde ; ftoa + 450
        0x0001bfb2:    e7ff        ..      B        0x1bfb4 ; ftoa + 408
        0x0001bfb4:    9806        ..      LDR      r0,[sp,#0x18]
        0x0001bfb6:    eb000080    ....    ADD      r0,r0,r0,LSL #2
        0x0001bfba:    0040        @.      LSLS     r0,r0,#1
        0x0001bfbc:    9006        ..      STR      r0,[sp,#0x18]
        0x0001bfbe:    f89d001b    ....    LDRB     r0,[sp,#0x1b]
        0x0001bfc2:    3030        00      ADDS     r0,r0,#0x30
        0x0001bfc4:    990d        ..      LDR      r1,[sp,#0x34]
        0x0001bfc6:    1c4a        J.      ADDS     r2,r1,#1
        0x0001bfc8:    920d        ..      STR      r2,[sp,#0x34]
        0x0001bfca:    7008        .p      STRB     r0,[r1,#0]
        0x0001bfcc:    9806        ..      LDR      r0,[sp,#0x18]
        0x0001bfce:    f020407f     ..@    BIC      r0,r0,#0xff000000
        0x0001bfd2:    9006        ..      STR      r0,[sp,#0x18]
        0x0001bfd4:    e7ff        ..      B        0x1bfd6 ; ftoa + 442
        0x0001bfd6:    9803        ..      LDR      r0,[sp,#0xc]
        0x0001bfd8:    3001        .0      ADDS     r0,#1
        0x0001bfda:    9003        ..      STR      r0,[sp,#0xc]
        0x0001bfdc:    e7e5        ..      B        0x1bfaa ; ftoa + 398
        0x0001bfde:    9806        ..      LDR      r0,[sp,#0x18]
        0x0001bfe0:    eb000080    ....    ADD      r0,r0,r0,LSL #2
        0x0001bfe4:    f34050c7    @..P    SBFX     r0,r0,#23,#8
        0x0001bfe8:    2805        .(      CMP      r0,#5
        0x0001bfea:    db23        #.      BLT      0x1c034 ; ftoa + 536
        0x0001bfec:    e7ff        ..      B        0x1bfee ; ftoa + 466
        0x0001bfee:    980d        ..      LDR      r0,[sp,#0x34]
        0x0001bff0:    3801        .8      SUBS     r0,#1
        0x0001bff2:    9004        ..      STR      r0,[sp,#0x10]
        0x0001bff4:    e7ff        ..      B        0x1bff6 ; ftoa + 474
        0x0001bff6:    9804        ..      LDR      r0,[sp,#0x10]
        0x0001bff8:    9905        ..      LDR      r1,[sp,#0x14]
        0x0001bffa:    4288        .B      CMP      r0,r1
        0x0001bffc:    d319        ..      BCC      0x1c032 ; ftoa + 534
        0x0001bffe:    e7ff        ..      B        0x1c000 ; ftoa + 484
        0x0001c000:    9804        ..      LDR      r0,[sp,#0x10]
        0x0001c002:    7800        .x      LDRB     r0,[r0,#0]
        0x0001c004:    282e        .(      CMP      r0,#0x2e
        0x0001c006:    d101        ..      BNE      0x1c00c ; ftoa + 496
        0x0001c008:    e7ff        ..      B        0x1c00a ; ftoa + 494
        0x0001c00a:    e00e        ..      B        0x1c02a ; ftoa + 526
        0x0001c00c:    9804        ..      LDR      r0,[sp,#0x10]
        0x0001c00e:    7800        .x      LDRB     r0,[r0,#0]
        0x0001c010:    2839        9(      CMP      r0,#0x39
        0x0001c012:    d104        ..      BNE      0x1c01e ; ftoa + 514
        0x0001c014:    e7ff        ..      B        0x1c016 ; ftoa + 506
        0x0001c016:    9904        ..      LDR      r1,[sp,#0x10]
        0x0001c018:    2030        0       MOVS     r0,#0x30
        0x0001c01a:    7008        .p      STRB     r0,[r1,#0]
        0x0001c01c:    e004        ..      B        0x1c028 ; ftoa + 524
        0x0001c01e:    9904        ..      LDR      r1,[sp,#0x10]
        0x0001c020:    7808        .x      LDRB     r0,[r1,#0]
        0x0001c022:    3001        .0      ADDS     r0,#1
        0x0001c024:    7008        .p      STRB     r0,[r1,#0]
        0x0001c026:    e004        ..      B        0x1c032 ; ftoa + 534
        0x0001c028:    e7ff        ..      B        0x1c02a ; ftoa + 526
        0x0001c02a:    9804        ..      LDR      r0,[sp,#0x10]
        0x0001c02c:    3801        .8      SUBS     r0,#1
        0x0001c02e:    9004        ..      STR      r0,[sp,#0x10]
        0x0001c030:    e7e1        ..      B        0x1bff6 ; ftoa + 474
        0x0001c032:    e7ff        ..      B        0x1c034 ; ftoa + 536
        0x0001c034:    e7ff        ..      B        0x1c036 ; ftoa + 538
        0x0001c036:    990d        ..      LDR      r1,[sp,#0x34]
        0x0001c038:    2000        .       MOVS     r0,#0
        0x0001c03a:    7008        .p      STRB     r0,[r1,#0]
        0x0001c03c:    980d        ..      LDR      r0,[sp,#0x34]
        0x0001c03e:    9905        ..      LDR      r1,[sp,#0x14]
        0x0001c040:    1a40        @.      SUBS     r0,r0,r1
        0x0001c042:    900f        ..      STR      r0,[sp,#0x3c]
        0x0001c044:    e7ff        ..      B        0x1c046 ; ftoa + 554
        0x0001c046:    980f        ..      LDR      r0,[sp,#0x3c]
        0x0001c048:    b010        ..      ADD      sp,sp,#0x40
        0x0001c04a:    bd80        ..      POP      {r7,pc}
    getStackedReg
        0x0001c04c:    0080        ..      LSLS     r0,r0,#2
        0x0001c04e:    1840        @.      ADDS     r0,r0,r1
        0x0001c050:    6800        .h      LDR      r0,[r0,#0]
        0x0001c052:    4770        pG      BX       lr
    internal_timer_config
        0x0001c054:    b580        ..      PUSH     {r7,lr}
        0x0001c056:    220c        ."      MOVS     r2,#0xc
        0x0001c058:    f2c40202    ....    MOVT     r2,#0x4002
        0x0001c05c:    6813        .h      LDR      r3,[r2,#0]
        0x0001c05e:    b2db        ..      UXTB     r3,r3
        0x0001c060:    2b21        !+      CMP      r3,#0x21
        0x0001c062:    d141        A.      BNE      0x1c0e8 ; internal_timer_config + 148
        0x0001c064:    780a        .x      LDRB     r2,[r1,#0]
        0x0001c066:    f891e001    ....    LDRB     lr,[r1,#1]
        0x0001c06a:    78cb        .x      LDRB     r3,[r1,#3]
        0x0001c06c:    f891c002    ....    LDRB     r12,[r1,#2]
        0x0001c070:    0212        ..      LSLS     r2,r2,#8
        0x0001c072:    f36e1207    n...    BFI      r2,lr,#4,#4
        0x0001c076:    f003031f    ....    AND      r3,r3,#0x1f
        0x0001c07a:    ea4202c3    B...    ORR      r2,r2,r3,LSL #3
        0x0001c07e:    f00c033f    ..?.    AND      r3,r12,#0x3f
        0x0001c082:    ea420c83    B...    ORR      r12,r2,r3,LSL #2
        0x0001c086:    790b        .y      LDRB     r3,[r1,#4]
        0x0001c088:    688a        .h      LDR      r2,[r1,#8]
        0x0001c08a:    f0030303    ....    AND      r3,r3,#3
        0x0001c08e:    ea4c6202    L..b    ORR      r2,r12,r2,LSL #24
        0x0001c092:    ea424c03    B..L    ORR      r12,r2,r3,LSL #16
        0x0001c096:    f2482200    H.."    MOVW     r2,#0x8200
        0x0001c09a:    0140        @.      LSLS     r0,r0,#5
        0x0001c09c:    f2c40200    ....    MOVT     r2,#0x4000
        0x0001c0a0:    f891e005    ....    LDRB     lr,[r1,#5]
        0x0001c0a4:    5813        .X      LDR      r3,[r2,r0]
        0x0001c0a6:    ea4f2e0e    O...    LSL      lr,lr,#8
        0x0001c0aa:    f0230301    #...    BIC      r3,r3,#1
        0x0001c0ae:    5013        .P      STR      r3,[r2,r0]
        0x0001c0b0:    f2482310    H..#    MOV      r3,#0x8210
        0x0001c0b4:    f2c40300    ....    MOVT     r3,#0x4000
        0x0001c0b8:    f842c000    B...    STR      r12,[r2,r0]
        0x0001c0bc:    f843e000    C...    STR      lr,[r3,r0]
        0x0001c0c0:    f8d1c00c    ....    LDR      r12,[r1,#0xc]
        0x0001c0c4:    f2482308    H..#    MOV      r3,#0x8208
        0x0001c0c8:    f2c40300    ....    MOVT     r3,#0x4000
        0x0001c0cc:    f843c000    C...    STR      r12,[r3,r0]
        0x0001c0d0:    6909        .i      LDR      r1,[r1,#0x10]
        0x0001c0d2:    f248230c    H..#    MOV      r3,#0x820c
        0x0001c0d6:    f2c40300    ....    MOVT     r3,#0x4000
        0x0001c0da:    5019        .P      STR      r1,[r3,r0]
        0x0001c0dc:    5811        .X      LDR      r1,[r2,r0]
        0x0001c0de:    f0410102    A...    ORR      r1,r1,#2
        0x0001c0e2:    5011        .P      STR      r1,[r2,r0]
        0x0001c0e4:    2000        .       MOVS     r0,#0
        0x0001c0e6:    bd80        ..      POP      {r7,pc}
        0x0001c0e8:    6812        .h      LDR      r2,[r2,#0]
        0x0001c0ea:    f00202fe    ....    AND      r2,r2,#0xfe
        0x0001c0ee:    2a22        "*      CMP      r2,#0x22
        0x0001c0f0:    bf3c        <.      ITT      CC
        0x0001c0f2:    2001        .       MOVCC    r0,#1
        0x0001c0f4:    bd80        ..      POPCC    {r7,pc}
        0x0001c0f6:    280f        .(      CMP      r0,#0xf
        0x0001c0f8:    d80f        ..      BHI      0x1c11a ; internal_timer_config + 198
        0x0001c0fa:    2201        ."      MOVS     r2,#1
        0x0001c0fc:    4082        .@      LSLS     r2,r2,r0
        0x0001c0fe:    f64d430a    M..C    MOV      r3,#0xdc0a
        0x0001c102:    421a        .B      TST      r2,r3
        0x0001c104:    bf1c        ..      ITT      NE
        0x0001c106:    2006        .       MOVNE    r0,#6
        0x0001c108:    bd80        ..      POPNE    {r7,pc}
        0x0001c10a:    f24233a0    B..3    MOV      r3,#0x23a0
        0x0001c10e:    421a        .B      TST      r2,r3
        0x0001c110:    d003        ..      BEQ      0x1c11a ; internal_timer_config + 198
        0x0001c112:    790a        .y      LDRB     r2,[r1,#4]
        0x0001c114:    b10a        ..      CBZ      r2,0x1c11a ; internal_timer_config + 198
        0x0001c116:    2007        .       MOVS     r0,#7
        0x0001c118:    bd80        ..      POP      {r7,pc}
        0x0001c11a:    e8bd4080    ...@    POP      {r7,lr}
        0x0001c11e:    f000ba07    ....    B.W      timer_config_b1 ; 0x1c530
        0x0001c122:    0000        ..      MOVS     r0,r0
    main
        0x0001c124:    b580        ..      PUSH     {r7,lr}
        0x0001c126:    f5ad7d2e    ...}    SUB      sp,sp,#0x2b8
        0x0001c12a:    2000        .       MOVS     r0,#0
        0x0001c12c:    900d        ..      STR      r0,[sp,#0x34]
        0x0001c12e:    90ad        ..      STR      r0,[sp,#0x2b4]
        0x0001c130:    f7fcfa66    ..f.    BL       am_bsp_low_power_init ; 0x18600
        0x0001c134:    2008        .       MOVS     r0,#8
        0x0001c136:    f7fcfa6e    ..n.    BL       am_bsp_sdio_pins_enable ; 0x18616
        0x0001c13a:    f64c1008    L...    MOV      r0,#0xc908
        0x0001c13e:    f2c00001    ....    MOVT     r0,#1
        0x0001c142:    6801        .h      LDR      r1,[r0,#0]
        0x0001c144:    204c        L       MOVS     r0,#0x4c
        0x0001c146:    f7fdfa2f    ../.    BL       am_hal_gpio_pinconfig ; 0x195a8
        0x0001c14a:    f240213c    @.<!    MOVW     r1,#0x23c
        0x0001c14e:    f2c40101    ....    MOVT     r1,#0x4001
        0x0001c152:    f44f5080    O..P    MOV      r0,#0x1000
        0x0001c156:    6008        .`      STR      r0,[r1,#0]
        0x0001c158:    f7fdfacc    ....    BL       am_hal_interrupt_master_enable ; 0x196f4
        0x0001c15c:    f7fcfa12    ....    BL       am_bsp_itm_printf_enable ; 0x18584
        0x0001c160:    980d        ..      LDR      r0,[sp,#0x34]
        0x0001c162:    f24172e4    A..r    MOV      r2,#0x17e4
        0x0001c166:    f2c10200    ....    MOVT     r2,#0x1000
        0x0001c16a:    f6440100    D...    MOVW     r1,#0x4800
        0x0001c16e:    f2c10116    ....    MOVT     r1,#0x1016
        0x0001c172:    6011        .`      STR      r1,[r2,#0]
        0x0001c174:    f24172ec    A..r    MOV      r2,#0x17ec
        0x0001c178:    f2c10200    ....    MOVT     r2,#0x1000
        0x0001c17c:    f2440100    D...    MOVW     r1,#0x4000
        0x0001c180:    f2c10116    ....    MOVT     r1,#0x1016
        0x0001c184:    6011        .`      STR      r1,[r2,#0]
        0x0001c186:    f24172e8    A..r    MOV      r2,#0x17e8
        0x0001c18a:    f2c10200    ....    MOVT     r2,#0x1000
        0x0001c18e:    f2440100    D...    MOVW     r1,#0x4000
        0x0001c192:    f2c10106    ....    MOVT     r1,#0x1006
        0x0001c196:    6011        .`      STR      r1,[r2,#0]
        0x0001c198:    f24172f0    A..r    MOV      r2,#0x17f0
        0x0001c19c:    f2c10200    ....    MOVT     r2,#0x1000
        0x0001c1a0:    f6440100    D...    MOVW     r1,#0x4800
        0x0001c1a4:    f2c10106    ....    MOVT     r1,#0x1006
        0x0001c1a8:    6011        .`      STR      r1,[r2,#0]
        0x0001c1aa:    90ac        ..      STR      r0,[sp,#0x2b0]
        0x0001c1ac:    e7ff        ..      B        0x1c1ae ; main + 138
        0x0001c1ae:    98ac        ..      LDR      r0,[sp,#0x2b0]
        0x0001c1b0:    f5b06f00    ...o    CMP      r0,#0x800
        0x0001c1b4:    da20         .      BGE      0x1c1f8 ; main + 212
        0x0001c1b6:    e7ff        ..      B        0x1c1b8 ; main + 148
        0x0001c1b8:    98ac        ..      LDR      r0,[sp,#0x2b0]
        0x0001c1ba:    f24171ec    A..q    MOV      r1,#0x17ec
        0x0001c1be:    f2c10100    ....    MOVT     r1,#0x1000
        0x0001c1c2:    6809        .h      LDR      r1,[r1,#0]
        0x0001c1c4:    5408        .T      STRB     r0,[r1,r0]
        0x0001c1c6:    98ac        ..      LDR      r0,[sp,#0x2b0]
        0x0001c1c8:    f24171f0    A..q    MOV      r1,#0x17f0
        0x0001c1cc:    f2c10100    ....    MOVT     r1,#0x1000
        0x0001c1d0:    6809        .h      LDR      r1,[r1,#0]
        0x0001c1d2:    5408        .T      STRB     r0,[r1,r0]
        0x0001c1d4:    98ac        ..      LDR      r0,[sp,#0x2b0]
        0x0001c1d6:    f2430100    C...    MOVW     r1,#0x3000
        0x0001c1da:    f2c10100    ....    MOVT     r1,#0x1000
        0x0001c1de:    5408        .T      STRB     r0,[r1,r0]
        0x0001c1e0:    9aac        ..      LDR      r2,[sp,#0x2b0]
        0x0001c1e2:    f2420100    B...    MOVW     r1,#0x2000
        0x0001c1e6:    f2c10100    ....    MOVT     r1,#0x1000
        0x0001c1ea:    2000        .       MOVS     r0,#0
        0x0001c1ec:    5488        .T      STRB     r0,[r1,r2]
        0x0001c1ee:    e7ff        ..      B        0x1c1f0 ; main + 204
        0x0001c1f0:    98ac        ..      LDR      r0,[sp,#0x2b0]
        0x0001c1f2:    3001        .0      ADDS     r0,#1
        0x0001c1f4:    90ac        ..      STR      r0,[sp,#0x2b0]
        0x0001c1f6:    e7da        ..      B        0x1c1ae ; main + 138
        0x0001c1f8:    2000        .       MOVS     r0,#0
        0x0001c1fa:    2101        .!      MOVS     r1,#1
        0x0001c1fc:    f7fdf9b8    ....    BL       am_hal_get_card_host ; 0x19570
        0x0001c200:    4601        .F      MOV      r1,r0
        0x0001c202:    f24170e0    A..p    MOVW     r0,#0x17e0
        0x0001c206:    f2c10000    ....    MOVT     r0,#0x1000
        0x0001c20a:    6001        .`      STR      r1,[r0,#0]
        0x0001c20c:    6800        .h      LDR      r0,[r0,#0]
        0x0001c20e:    b940        @.      CBNZ     r0,0x1c222 ; main + 254
        0x0001c210:    e7ff        ..      B        0x1c212 ; main + 238
        0x0001c212:    f64c5071    L.qP    MOV      r0,#0xcd71
        0x0001c216:    f2c00001    ....    MOVT     r0,#1
        0x0001c21a:    f7fff89f    ....    BL       am_util_stdio_printf ; 0x1b35c
        0x0001c21e:    e7ff        ..      B        0x1c220 ; main + 252
        0x0001c220:    e7fe        ..      B        0x1c220 ; main + 252
        0x0001c222:    f64c40f0    L..@    MOV      r0,#0xccf0
        0x0001c226:    f2c00001    ....    MOVT     r0,#1
        0x0001c22a:    f7fff897    ....    BL       am_util_stdio_printf ; 0x1b35c
        0x0001c22e:    e7ff        ..      B        0x1c230 ; main + 268
        0x0001c230:    f24170e0    A..p    MOVW     r0,#0x17e0
        0x0001c234:    f2c10000    ....    MOVT     r0,#0x1000
        0x0001c238:    6800        .h      LDR      r0,[r0,#0]
        0x0001c23a:    a90e        ..      ADD      r1,sp,#0x38
        0x0001c23c:    f7fcfb95    ....    BL       am_hal_card_host_find_card ; 0x1896a
        0x0001c240:    b188        ..      CBZ      r0,0x1c266 ; main + 322
        0x0001c242:    e7ff        ..      B        0x1c244 ; main + 288
        0x0001c244:    f64c50a1    L..P    MOV      r0,#0xcda1
        0x0001c248:    f2c00001    ....    MOVT     r0,#1
        0x0001c24c:    f7fff886    ....    BL       am_util_stdio_printf ; 0x1b35c
        0x0001c250:    f44f707a    O.zp    MOV      r0,#0x3e8
        0x0001c254:    f7fff802    ....    BL       am_util_delay_ms ; 0x1b25c
        0x0001c258:    f64c502f    L./P    MOV      r0,#0xcd2f
        0x0001c25c:    f2c00001    ....    MOVT     r0,#1
        0x0001c260:    f7fff87c    ..|.    BL       am_util_stdio_printf ; 0x1b35c
        0x0001c264:    e7e4        ..      B        0x1c230 ; main + 268
        0x0001c266:    e7ff        ..      B        0x1c268 ; main + 324
        0x0001c268:    a80e        ..      ADD      r0,sp,#0x38
        0x0001c26a:    2100        .!      MOVS     r1,#0
        0x0001c26c:    2201        ."      MOVS     r2,#1
        0x0001c26e:    f7fcfba3    ....    BL       am_hal_card_init ; 0x189b8
        0x0001c272:    b158        X.      CBZ      r0,0x1c28c ; main + 360
        0x0001c274:    e7ff        ..      B        0x1c276 ; main + 338
        0x0001c276:    f44f707a    O.zp    MOV      r0,#0x3e8
        0x0001c27a:    f7feffef    ....    BL       am_util_delay_ms ; 0x1b25c
        0x0001c27e:    f64c5054    L.TP    MOV      r0,#0xcd54
        0x0001c282:    f2c00001    ....    MOVT     r0,#1
        0x0001c286:    f7fff869    ..i.    BL       am_util_stdio_printf ; 0x1b35c
        0x0001c28a:    e7ed        ..      B        0x1c268 ; main + 324
        0x0001c28c:    e7ff        ..      B        0x1c28e ; main + 362
        0x0001c28e:    4669        iF      MOV      r1,sp
        0x0001c290:    2000        .       MOVS     r0,#0
        0x0001c292:    6048        H`      STR      r0,[r1,#4]
        0x0001c294:    6008        .`      STR      r0,[r1,#0]
        0x0001c296:    a80e        ..      ADD      r0,sp,#0x38
        0x0001c298:    2102        .!      MOVS     r1,#2
        0x0001c29a:    2204        ."      MOVS     r2,#4
        0x0001c29c:    f6464300    F..C    MOVW     r3,#0x6c00
        0x0001c2a0:    f2c023dc    ...#    MOVT     r3,#0x2dc
        0x0001c2a4:    f7fcfaad    ....    BL       am_hal_card_cfg_set ; 0x18802
        0x0001c2a8:    b158        X.      CBZ      r0,0x1c2c2 ; main + 414
        0x0001c2aa:    e7ff        ..      B        0x1c2ac ; main + 392
        0x0001c2ac:    f44f707a    O.zp    MOV      r0,#0x3e8
        0x0001c2b0:    f7feffd4    ....    BL       am_util_delay_ms ; 0x1b25c
        0x0001c2b4:    f64c40da    L..@    MOV      r0,#0xccda
        0x0001c2b8:    f2c00001    ....    MOVT     r0,#1
        0x0001c2bc:    f7fff84e    ..N.    BL       am_util_stdio_printf ; 0x1b35c
        0x0001c2c0:    e7e5        ..      B        0x1c28e ; main + 362
        0x0001c2c2:    e7ff        ..      B        0x1c2c4 ; main + 416
        0x0001c2c4:    f64c401b    L..@    MOV      r0,#0xcc1b
        0x0001c2c8:    f2c00001    ....    MOVT     r0,#1
        0x0001c2cc:    9002        ..      STR      r0,[sp,#8]
        0x0001c2ce:    f7fff845    ..E.    BL       am_util_stdio_printf ; 0x1b35c
        0x0001c2d2:    f24170f0    A..p    MOV      r0,#0x17f0
        0x0001c2d6:    f2c10000    ....    MOVT     r0,#0x1000
        0x0001c2da:    9004        ..      STR      r0,[sp,#0x10]
        0x0001c2dc:    6803        .h      LDR      r3,[r0,#0]
        0x0001c2de:    a80e        ..      ADD      r0,sp,#0x38
        0x0001c2e0:    9007        ..      STR      r0,[sp,#0x1c]
        0x0001c2e2:    f64031b8    @..1    MOV      r1,#0xbb8
        0x0001c2e6:    9108        ..      STR      r1,[sp,#0x20]
        0x0001c2e8:    2204        ."      MOVS     r2,#4
        0x0001c2ea:    9203        ..      STR      r2,[sp,#0xc]
        0x0001c2ec:    f7fcfa7f    ....    BL       am_hal_card_block_write_sync ; 0x187ee
        0x0001c2f0:    f24170e8    A..p    MOV      r0,#0x17e8
        0x0001c2f4:    f2c10000    ....    MOVT     r0,#0x1000
        0x0001c2f8:    9005        ..      STR      r0,[sp,#0x14]
        0x0001c2fa:    6800        .h      LDR      r0,[r0,#0]
        0x0001c2fc:    f44f6100    O..a    MOV      r1,#0x800
        0x0001c300:    9106        ..      STR      r1,[sp,#0x18]
        0x0001c302:    f7fcf821    ..!.    BL       __aeabi_memclr ; 0x18348
        0x0001c306:    9a03        ..      LDR      r2,[sp,#0xc]
        0x0001c308:    9b05        ..      LDR      r3,[sp,#0x14]
        0x0001c30a:    9807        ..      LDR      r0,[sp,#0x1c]
        0x0001c30c:    9908        ..      LDR      r1,[sp,#0x20]
        0x0001c30e:    681b        .h      LDR      r3,[r3,#0]
        0x0001c310:    f7fcf9e0    ....    BL       am_hal_card_block_read_sync ; 0x186d4
        0x0001c314:    9904        ..      LDR      r1,[sp,#0x10]
        0x0001c316:    9a06        ..      LDR      r2,[sp,#0x18]
        0x0001c318:    9805        ..      LDR      r0,[sp,#0x14]
        0x0001c31a:    6800        .h      LDR      r0,[r0,#0]
        0x0001c31c:    6809        .h      LDR      r1,[r1,#0]
        0x0001c31e:    f7fffc65    ..e.    BL       check_if_data_match ; 0x1bbec
        0x0001c322:    f64c30dc    L..0    MOV      r0,#0xcbdc
        0x0001c326:    f2c00001    ....    MOVT     r0,#1
        0x0001c32a:    900c        ..      STR      r0,[sp,#0x30]
        0x0001c32c:    f7fff816    ....    BL       am_util_stdio_printf ; 0x1b35c
        0x0001c330:    9802        ..      LDR      r0,[sp,#8]
        0x0001c332:    f7fff813    ....    BL       am_util_stdio_printf ; 0x1b35c
        0x0001c336:    9a03        ..      LDR      r2,[sp,#0xc]
        0x0001c338:    9b04        ..      LDR      r3,[sp,#0x10]
        0x0001c33a:    9908        ..      LDR      r1,[sp,#0x20]
        0x0001c33c:    9807        ..      LDR      r0,[sp,#0x1c]
        0x0001c33e:    681b        .h      LDR      r3,[r3,#0]
        0x0001c340:    f7fcfa55    ..U.    BL       am_hal_card_block_write_sync ; 0x187ee
        0x0001c344:    9906        ..      LDR      r1,[sp,#0x18]
        0x0001c346:    9805        ..      LDR      r0,[sp,#0x14]
        0x0001c348:    6800        .h      LDR      r0,[r0,#0]
        0x0001c34a:    f7fbfffd    ....    BL       __aeabi_memclr ; 0x18348
        0x0001c34e:    9a03        ..      LDR      r2,[sp,#0xc]
        0x0001c350:    9b05        ..      LDR      r3,[sp,#0x14]
        0x0001c352:    9807        ..      LDR      r0,[sp,#0x1c]
        0x0001c354:    9908        ..      LDR      r1,[sp,#0x20]
        0x0001c356:    681b        .h      LDR      r3,[r3,#0]
        0x0001c358:    f7fcf9bc    ....    BL       am_hal_card_block_read_sync ; 0x186d4
        0x0001c35c:    9904        ..      LDR      r1,[sp,#0x10]
        0x0001c35e:    9a06        ..      LDR      r2,[sp,#0x18]
        0x0001c360:    9805        ..      LDR      r0,[sp,#0x14]
        0x0001c362:    6800        .h      LDR      r0,[r0,#0]
        0x0001c364:    6809        .h      LDR      r1,[r1,#0]
        0x0001c366:    f7fffc41    ..A.    BL       check_if_data_match ; 0x1bbec
        0x0001c36a:    980c        ..      LDR      r0,[sp,#0x30]
        0x0001c36c:    f7fefff6    ....    BL       am_util_stdio_printf ; 0x1b35c
        0x0001c370:    f64c4060    L.`@    MOV      r0,#0xcc60
        0x0001c374:    f2c00001    ....    MOVT     r0,#1
        0x0001c378:    f7fefff0    ....    BL       am_util_stdio_printf ; 0x1b35c
        0x0001c37c:    9908        ..      LDR      r1,[sp,#0x20]
        0x0001c37e:    9807        ..      LDR      r0,[sp,#0x1c]
        0x0001c380:    f2430300    C...    MOVW     r3,#0x3000
        0x0001c384:    f2c10300    ....    MOVT     r3,#0x1000
        0x0001c388:    930a        ..      STR      r3,[sp,#0x28]
        0x0001c38a:    2201        ."      MOVS     r2,#1
        0x0001c38c:    9209        ..      STR      r2,[sp,#0x24]
        0x0001c38e:    f7fcfa2e    ....    BL       am_hal_card_block_write_sync ; 0x187ee
        0x0001c392:    f64c5004    L..P    MOV      r0,#0xcd04
        0x0001c396:    f2c00001    ....    MOVT     r0,#1
        0x0001c39a:    f7feffdf    ....    BL       am_util_stdio_printf ; 0x1b35c
        0x0001c39e:    9807        ..      LDR      r0,[sp,#0x1c]
        0x0001c3a0:    f7fcfd44    ..D.    BL       am_hal_card_pwrctrl_sleep ; 0x18e2c
        0x0001c3a4:    f44f707a    O.zp    MOV      r0,#0x3e8
        0x0001c3a8:    f7feff58    ..X.    BL       am_util_delay_ms ; 0x1b25c
        0x0001c3ac:    f64c508d    L..P    MOV      r0,#0xcd8d
        0x0001c3b0:    f2c00001    ....    MOVT     r0,#1
        0x0001c3b4:    f7feffd2    ....    BL       am_util_stdio_printf ; 0x1b35c
        0x0001c3b8:    9807        ..      LDR      r0,[sp,#0x1c]
        0x0001c3ba:    f7fcfdaa    ....    BL       am_hal_card_pwrctrl_wakeup ; 0x18f12
        0x0001c3be:    f64c5018    L..P    MOV      r0,#0xcd18
        0x0001c3c2:    f2c00001    ....    MOVT     r0,#1
        0x0001c3c6:    f7feffc9    ....    BL       am_util_stdio_printf ; 0x1b35c
        0x0001c3ca:    9906        ..      LDR      r1,[sp,#0x18]
        0x0001c3cc:    f2420000    B...    MOVW     r0,#0x2000
        0x0001c3d0:    f2c10000    ....    MOVT     r0,#0x1000
        0x0001c3d4:    900b        ..      STR      r0,[sp,#0x2c]
        0x0001c3d6:    f7fbffd9    ....    BL       __aeabi_memclr4 ; 0x1838c
        0x0001c3da:    9807        ..      LDR      r0,[sp,#0x1c]
        0x0001c3dc:    9908        ..      LDR      r1,[sp,#0x20]
        0x0001c3de:    9a09        ..      LDR      r2,[sp,#0x24]
        0x0001c3e0:    9b0b        ..      LDR      r3,[sp,#0x2c]
        0x0001c3e2:    f7fcf977    ..w.    BL       am_hal_card_block_read_sync ; 0x186d4
        0x0001c3e6:    990a        ..      LDR      r1,[sp,#0x28]
        0x0001c3e8:    980b        ..      LDR      r0,[sp,#0x2c]
        0x0001c3ea:    f44f7200    O..r    MOV      r2,#0x200
        0x0001c3ee:    f7fffbfd    ....    BL       check_if_data_match ; 0x1bbec
        0x0001c3f2:    980c        ..      LDR      r0,[sp,#0x30]
        0x0001c3f4:    f7feffb2    ....    BL       am_util_stdio_printf ; 0x1b35c
        0x0001c3f8:    e764        d.      B        0x1c2c4 ; main + 416
        0x0001c3fa:    0000        ..      MOVS     r0,r0
    ndigits_in_hex
        0x0001c3fc:    b084        ..      SUB      sp,sp,#0x10
        0x0001c3fe:    9103        ..      STR      r1,[sp,#0xc]
        0x0001c400:    9002        ..      STR      r0,[sp,#8]
        0x0001c402:    9802        ..      LDR      r0,[sp,#8]
        0x0001c404:    9903        ..      LDR      r1,[sp,#0xc]
        0x0001c406:    4308        .C      ORRS     r0,r0,r1
        0x0001c408:    fab0f080    ....    CLZ      r0,r0
        0x0001c40c:    0940        @.      LSRS     r0,r0,#5
        0x0001c40e:    9001        ..      STR      r0,[sp,#4]
        0x0001c410:    e7ff        ..      B        0x1c412 ; ndigits_in_hex + 22
        0x0001c412:    9802        ..      LDR      r0,[sp,#8]
        0x0001c414:    9903        ..      LDR      r1,[sp,#0xc]
        0x0001c416:    4308        .C      ORRS     r0,r0,r1
        0x0001c418:    b160        `.      CBZ      r0,0x1c434 ; ndigits_in_hex + 56
        0x0001c41a:    e7ff        ..      B        0x1c41c ; ndigits_in_hex + 32
        0x0001c41c:    9802        ..      LDR      r0,[sp,#8]
        0x0001c41e:    9903        ..      LDR      r1,[sp,#0xc]
        0x0001c420:    0900        ..      LSRS     r0,r0,#4
        0x0001c422:    ea407001    @..p    ORR      r0,r0,r1,LSL #28
        0x0001c426:    0909        ..      LSRS     r1,r1,#4
        0x0001c428:    9103        ..      STR      r1,[sp,#0xc]
        0x0001c42a:    9002        ..      STR      r0,[sp,#8]
        0x0001c42c:    9801        ..      LDR      r0,[sp,#4]
        0x0001c42e:    3001        .0      ADDS     r0,#1
        0x0001c430:    9001        ..      STR      r0,[sp,#4]
        0x0001c432:    e7ee        ..      B        0x1c412 ; ndigits_in_hex + 22
        0x0001c434:    9801        ..      LDR      r0,[sp,#4]
        0x0001c436:    b004        ..      ADD      sp,sp,#0x10
        0x0001c438:    4770        pG      BX       lr
        0x0001c43a:    0000        ..      MOVS     r0,r0
    ndigits_in_i64
        0x0001c43c:    b580        ..      PUSH     {r7,lr}
        0x0001c43e:    b082        ..      SUB      sp,sp,#8
        0x0001c440:    9101        ..      STR      r1,[sp,#4]
        0x0001c442:    9000        ..      STR      r0,[sp,#0]
        0x0001c444:    9801        ..      LDR      r0,[sp,#4]
        0x0001c446:    f1b03fff    ...?    CMP      r0,#0xffffffff
        0x0001c44a:    dc09        ..      BGT      0x1c460 ; ndigits_in_i64 + 36
        0x0001c44c:    e7ff        ..      B        0x1c44e ; ndigits_in_i64 + 18
        0x0001c44e:    9800        ..      LDR      r0,[sp,#0]
        0x0001c450:    9a01        ..      LDR      r2,[sp,#4]
        0x0001c452:    4241        AB      RSBS     r1,r0,#0
        0x0001c454:    f04f0000    O...    MOV      r0,#0
        0x0001c458:    4190        .A      SBCS     r0,r0,r2
        0x0001c45a:    9100        ..      STR      r1,[sp,#0]
        0x0001c45c:    9001        ..      STR      r0,[sp,#4]
        0x0001c45e:    e7ff        ..      B        0x1c460 ; ndigits_in_i64 + 36
        0x0001c460:    9800        ..      LDR      r0,[sp,#0]
        0x0001c462:    9901        ..      LDR      r1,[sp,#4]
        0x0001c464:    f000f802    ....    BL       ndigits_in_u64 ; 0x1c46c
        0x0001c468:    b002        ..      ADD      sp,sp,#8
        0x0001c46a:    bd80        ..      POP      {r7,pc}
    ndigits_in_u64
        0x0001c46c:    b580        ..      PUSH     {r7,lr}
        0x0001c46e:    b084        ..      SUB      sp,sp,#0x10
        0x0001c470:    9103        ..      STR      r1,[sp,#0xc]
        0x0001c472:    9002        ..      STR      r0,[sp,#8]
        0x0001c474:    9802        ..      LDR      r0,[sp,#8]
        0x0001c476:    9903        ..      LDR      r1,[sp,#0xc]
        0x0001c478:    4308        .C      ORRS     r0,r0,r1
        0x0001c47a:    fab0f080    ....    CLZ      r0,r0
        0x0001c47e:    0940        @.      LSRS     r0,r0,#5
        0x0001c480:    9001        ..      STR      r0,[sp,#4]
        0x0001c482:    e7ff        ..      B        0x1c484 ; ndigits_in_u64 + 24
        0x0001c484:    9802        ..      LDR      r0,[sp,#8]
        0x0001c486:    9903        ..      LDR      r1,[sp,#0xc]
        0x0001c488:    4308        .C      ORRS     r0,r0,r1
        0x0001c48a:    b150        P.      CBZ      r0,0x1c4a2 ; ndigits_in_u64 + 54
        0x0001c48c:    e7ff        ..      B        0x1c48e ; ndigits_in_u64 + 34
        0x0001c48e:    9802        ..      LDR      r0,[sp,#8]
        0x0001c490:    9903        ..      LDR      r1,[sp,#0xc]
        0x0001c492:    f7fffc37    ..7.    BL       divu64_10 ; 0x1bd04
        0x0001c496:    9103        ..      STR      r1,[sp,#0xc]
        0x0001c498:    9002        ..      STR      r0,[sp,#8]
        0x0001c49a:    9801        ..      LDR      r0,[sp,#4]
        0x0001c49c:    3001        .0      ADDS     r0,#1
        0x0001c49e:    9001        ..      STR      r0,[sp,#4]
        0x0001c4a0:    e7f0        ..      B        0x1c484 ; ndigits_in_u64 + 24
        0x0001c4a2:    9801        ..      LDR      r0,[sp,#4]
        0x0001c4a4:    b004        ..      ADD      sp,sp,#0x10
        0x0001c4a6:    bd80        ..      POP      {r7,pc}
    padbuffer
        0x0001c4a8:    b085        ..      SUB      sp,sp,#0x14
        0x0001c4aa:    9003        ..      STR      r0,[sp,#0xc]
        0x0001c4ac:    f88d100b    ....    STRB     r1,[sp,#0xb]
        0x0001c4b0:    9201        ..      STR      r2,[sp,#4]
        0x0001c4b2:    2000        .       MOVS     r0,#0
        0x0001c4b4:    9000        ..      STR      r0,[sp,#0]
        0x0001c4b6:    9801        ..      LDR      r0,[sp,#4]
        0x0001c4b8:    2800        .(      CMP      r0,#0
        0x0001c4ba:    dc03        ..      BGT      0x1c4c4 ; padbuffer + 28
        0x0001c4bc:    e7ff        ..      B        0x1c4be ; padbuffer + 22
        0x0001c4be:    9800        ..      LDR      r0,[sp,#0]
        0x0001c4c0:    9004        ..      STR      r0,[sp,#0x10]
        0x0001c4c2:    e016        ..      B        0x1c4f2 ; padbuffer + 74
        0x0001c4c4:    e7ff        ..      B        0x1c4c6 ; padbuffer + 30
        0x0001c4c6:    9801        ..      LDR      r0,[sp,#4]
        0x0001c4c8:    1e41        A.      SUBS     r1,r0,#1
        0x0001c4ca:    9101        ..      STR      r1,[sp,#4]
        0x0001c4cc:    b170        p.      CBZ      r0,0x1c4ec ; padbuffer + 68
        0x0001c4ce:    e7ff        ..      B        0x1c4d0 ; padbuffer + 40
        0x0001c4d0:    9803        ..      LDR      r0,[sp,#0xc]
        0x0001c4d2:    b138        8.      CBZ      r0,0x1c4e4 ; padbuffer + 60
        0x0001c4d4:    e7ff        ..      B        0x1c4d6 ; padbuffer + 46
        0x0001c4d6:    f89d000b    ....    LDRB     r0,[sp,#0xb]
        0x0001c4da:    9903        ..      LDR      r1,[sp,#0xc]
        0x0001c4dc:    1c4a        J.      ADDS     r2,r1,#1
        0x0001c4de:    9203        ..      STR      r2,[sp,#0xc]
        0x0001c4e0:    7008        .p      STRB     r0,[r1,#0]
        0x0001c4e2:    e7ff        ..      B        0x1c4e4 ; padbuffer + 60
        0x0001c4e4:    9800        ..      LDR      r0,[sp,#0]
        0x0001c4e6:    3001        .0      ADDS     r0,#1
        0x0001c4e8:    9000        ..      STR      r0,[sp,#0]
        0x0001c4ea:    e7ec        ..      B        0x1c4c6 ; padbuffer + 30
        0x0001c4ec:    9800        ..      LDR      r0,[sp,#0]
        0x0001c4ee:    9004        ..      STR      r0,[sp,#0x10]
        0x0001c4f0:    e7ff        ..      B        0x1c4f2 ; padbuffer + 74
        0x0001c4f2:    9804        ..      LDR      r0,[sp,#0x10]
        0x0001c4f4:    b005        ..      ADD      sp,sp,#0x14
        0x0001c4f6:    4770        pG      BX       lr
    simple_strlen
        0x0001c4f8:    b083        ..      SUB      sp,sp,#0xc
        0x0001c4fa:    9001        ..      STR      r0,[sp,#4]
        0x0001c4fc:    2000        .       MOVS     r0,#0
        0x0001c4fe:    9000        ..      STR      r0,[sp,#0]
        0x0001c500:    9801        ..      LDR      r0,[sp,#4]
        0x0001c502:    b918        ..      CBNZ     r0,0x1c50c ; simple_strlen + 20
        0x0001c504:    e7ff        ..      B        0x1c506 ; simple_strlen + 14
        0x0001c506:    9800        ..      LDR      r0,[sp,#0]
        0x0001c508:    9002        ..      STR      r0,[sp,#8]
        0x0001c50a:    e00d        ..      B        0x1c528 ; simple_strlen + 48
        0x0001c50c:    e7ff        ..      B        0x1c50e ; simple_strlen + 22
        0x0001c50e:    9801        ..      LDR      r0,[sp,#4]
        0x0001c510:    1c41        A.      ADDS     r1,r0,#1
        0x0001c512:    9101        ..      STR      r1,[sp,#4]
        0x0001c514:    7800        .x      LDRB     r0,[r0,#0]
        0x0001c516:    b120         .      CBZ      r0,0x1c522 ; simple_strlen + 42
        0x0001c518:    e7ff        ..      B        0x1c51a ; simple_strlen + 34
        0x0001c51a:    9800        ..      LDR      r0,[sp,#0]
        0x0001c51c:    3001        .0      ADDS     r0,#1
        0x0001c51e:    9000        ..      STR      r0,[sp,#0]
        0x0001c520:    e7f5        ..      B        0x1c50e ; simple_strlen + 22
        0x0001c522:    9800        ..      LDR      r0,[sp,#0]
        0x0001c524:    9002        ..      STR      r0,[sp,#8]
        0x0001c526:    e7ff        ..      B        0x1c528 ; simple_strlen + 48
        0x0001c528:    9802        ..      LDR      r0,[sp,#8]
        0x0001c52a:    b003        ..      ADD      sp,sp,#0xc
        0x0001c52c:    4770        pG      BX       lr
        0x0001c52e:    0000        ..      MOVS     r0,r0
    timer_config_b1
        0x0001c530:    e92d43f0    -..C    PUSH     {r4-r9,lr}
        0x0001c534:    f2410860    A.`.    MOVW     r8,#0x1060
        0x0001c538:    f2c10800    ....    MOVT     r8,#0x1000
        0x0001c53c:    eb080280    ....    ADD      r2,r8,r0,LSL #2
        0x0001c540:    2600        .&      MOVS     r6,#0
        0x0001c542:    4615        .F      MOV      r5,r2
        0x0001c544:    e9d13e02    ...>    LDRD     r3,lr,[r1,#8]
        0x0001c548:    f8d1c010    ....    LDR      r12,[r1,#0x10]
        0x0001c54c:    f8456b03    E..k    STR      r6,[r5],#3
        0x0001c550:    784f        Ox      LDRB     r7,[r1,#1]
        0x0001c552:    2f0e        ./      CMP      r7,#0xe
        0x0001c554:    d832        2.      BHI      0x1c5bc ; timer_config_b1 + 140
        0x0001c556:    1c96        ..      ADDS     r6,r2,#2
        0x0001c558:    2207        ."      MOVS     r2,#7
        0x0001c55a:    e8dff007    ....    TBB      [pc,r7]
    $d.1
        0x0001c55e:    1199        ..      DCW    4505
        0x0001c560:    2f082f08    ././    DCD    789065480
        0x0001c564:    2f2f2f99    .///    DCD    791621529
        0x0001c568:    211d2f2f    //.!    DCD    555560751
        0x0001c56c:    0099        ..      DCW    153
    $t.2
        0x0001c56e:    f04f3201    O..2    MOV      r2,#0x1010101
        0x0001c572:    2b00        .+      CMP      r3,#0
        0x0001c574:    f8482020    H.      STR      r2,[r8,r0,LSL #2]
        0x0001c578:    f0408089    @...    BNE.W    0x1c68e ; timer_config_b1 + 350
        0x0001c57c:    2300        .#      MOVS     r3,#0
        0x0001c57e:    e01d        ..      B        0x1c5bc ; timer_config_b1 + 140
        0x0001c580:    2201        ."      MOVS     r2,#1
        0x0001c582:    f11e0701    ....    ADDS     r7,lr,#1
        0x0001c586:    702a        *p      STRB     r2,[r5,#0]
        0x0001c588:    7032        2p      STRB     r2,[r6,#0]
        0x0001c58a:    d107        ..      BNE      0x1c59c ; timer_config_b1 + 108
        0x0001c58c:    f11c0e01    ....    ADDS     lr,r12,#1
        0x0001c590:    bf28        (.      IT       CS
        0x0001c592:    f04f3eff    O..>    MOVCS    lr,#0xffffffff
        0x0001c596:    e011        ..      B        0x1c5bc ; timer_config_b1 + 140
        0x0001c598:    2b20         +      CMP      r3,#0x20
        0x0001c59a:    d906        ..      BLS      0x1c5aa ; timer_config_b1 + 122
        0x0001c59c:    2207        ."      MOVS     r2,#7
        0x0001c59e:    e077        w.      B        0x1c690 ; timer_config_b1 + 352
        0x0001c5a0:    f04f3201    O..2    MOV      r2,#0x1010101
        0x0001c5a4:    f8482020    H.      STR      r2,[r8,r0,LSL #2]
        0x0001c5a8:    e008        ..      B        0x1c5bc ; timer_config_b1 + 140
        0x0001c5aa:    2201        ."      MOVS     r2,#1
        0x0001c5ac:    2b00        .+      CMP      r3,#0
        0x0001c5ae:    469c        .F      MOV      r12,r3
        0x0001c5b0:    bf18        ..      IT       NE
        0x0001c5b2:    3301        .3      ADDNE    r3,#1
        0x0001c5b4:    f8082020    ..      STRB     r2,[r8,r0,LSL #2]
        0x0001c5b8:    702a        *p      STRB     r2,[r5,#0]
        0x0001c5ba:    7032        2p      STRB     r2,[r6,#0]
        0x0001c5bc:    780a        .x      LDRB     r2,[r1,#0]
        0x0001c5be:    f00204e0    ....    AND      r4,r2,#0xe0
        0x0001c5c2:    2c20         ,      CMP      r4,#0x20
        0x0001c5c4:    d10d        ..      BNE      0x1c5e2 ; timer_config_b1 + 178
        0x0001c5c6:    f1a20420    .. .    SUB      r4,r2,#0x20
        0x0001c5ca:    07d2        ..      LSLS     r2,r2,#31
        0x0001c5cc:    ea4f0264    O.d.    ASR      r2,r4,#1
        0x0001c5d0:    d102        ..      BNE      0x1c5d8 ; timer_config_b1 + 168
        0x0001c5d2:    f8182022    .."     LDRB     r2,[r8,r2,LSL #2]
        0x0001c5d6:    e002        ..      B        0x1c5de ; timer_config_b1 + 174
        0x0001c5d8:    eb080282    ....    ADD      r2,r8,r2,LSL #2
        0x0001c5dc:    7892        .x      LDRB     r2,[r2,#2]
        0x0001c5de:    2a00        .*      CMP      r2,#0
        0x0001c5e0:    d055        U.      BEQ      0x1c68e ; timer_config_b1 + 350
        0x0001c5e2:    790a        .y      LDRB     r2,[r1,#4]
        0x0001c5e4:    b172        r.      CBZ      r2,0x1c604 ; timer_config_b1 + 212
        0x0001c5e6:    794a        Jy      LDRB     r2,[r1,#5]
        0x0001c5e8:    2a1f        .*      CMP      r2,#0x1f
        0x0001c5ea:    d80b        ..      BHI      0x1c604 ; timer_config_b1 + 212
        0x0001c5ec:    07d4        ..      LSLS     r4,r2,#31
        0x0001c5ee:    ea4f0252    O.R.    LSR      r2,r2,#1
        0x0001c5f2:    d102        ..      BNE      0x1c5fa ; timer_config_b1 + 202
        0x0001c5f4:    f8182022    .."     LDRB     r2,[r8,r2,LSL #2]
        0x0001c5f8:    e002        ..      B        0x1c600 ; timer_config_b1 + 208
        0x0001c5fa:    eb080282    ....    ADD      r2,r8,r2,LSL #2
        0x0001c5fe:    7892        .x      LDRB     r2,[r2,#2]
        0x0001c600:    2a00        .*      CMP      r2,#0
        0x0001c602:    d044        D.      BEQ      0x1c68e ; timer_config_b1 + 350
        0x0001c604:    f2481804    H...    MOV      r8,#0x8104
        0x0001c608:    f2c40800    ....    MOVT     r8,#0x4000
        0x0001c60c:    2401        .$      MOVS     r4,#1
        0x0001c60e:    f8d85000    ...P    LDR      r5,[r8,#0]
        0x0001c612:    fa04f900    ....    LSL      r9,r4,r0
        0x0001c616:    ea250509    %...    BIC      r5,r5,r9
        0x0001c61a:    f8c85000    ...P    STR      r5,[r8,#0]
        0x0001c61e:    780d        .x      LDRB     r5,[r1,#0]
        0x0001c620:    784e        Nx      LDRB     r6,[r1,#1]
        0x0001c622:    78ca        .x      LDRB     r2,[r1,#3]
        0x0001c624:    022d        -.      LSLS     r5,r5,#8
        0x0001c626:    788f        .x      LDRB     r7,[r1,#2]
        0x0001c628:    f006060f    ....    AND      r6,r6,#0xf
        0x0001c62c:    ea456303    E..c    ORR      r3,r5,r3,LSL #24
        0x0001c630:    f002021f    ....    AND      r2,r2,#0x1f
        0x0001c634:    790c        .y      LDRB     r4,[r1,#4]
        0x0001c636:    ea431306    C...    ORR      r3,r3,r6,LSL #4
        0x0001c63a:    eb081040    ..@.    ADD      r0,r8,r0,LSL #5
        0x0001c63e:    f007073f    ..?.    AND      r7,r7,#0x3f
        0x0001c642:    ea4302c2    C...    ORR      r2,r3,r2,LSL #3
        0x0001c646:    7949        Iy      LDRB     r1,[r1,#5]
        0x0001c648:    f8d030fc    ...0    LDR      r3,[r0,#0xfc]
        0x0001c64c:    f0040403    ....    AND      r4,r4,#3
        0x0001c650:    ea420287    B...    ORR      r2,r2,r7,LSL #2
        0x0001c654:    ea424204    B..B    ORR      r2,r2,r4,LSL #16
        0x0001c658:    0209        ..      LSLS     r1,r1,#8
        0x0001c65a:    f0230301    #...    BIC      r3,r3,#1
        0x0001c65e:    f8c030fc    ...0    STR      r3,[r0,#0xfc]
        0x0001c662:    f8c020fc    ...     STR      r2,[r0,#0xfc]
        0x0001c666:    f8c0110c    ....    STR      r1,[r0,#0x10c]
        0x0001c66a:    f8c0e104    ....    STR      lr,[r0,#0x104]
        0x0001c66e:    f8c0c108    ....    STR      r12,[r0,#0x108]
        0x0001c672:    f8d010fc    ....    LDR      r1,[r0,#0xfc]
        0x0001c676:    2200        ."      MOVS     r2,#0
        0x0001c678:    f0410102    A...    ORR      r1,r1,#2
        0x0001c67c:    f8c010fc    ....    STR      r1,[r0,#0xfc]
        0x0001c680:    f8d80000    ....    LDR      r0,[r8,#0]
        0x0001c684:    ea400009    @...    ORR      r0,r0,r9
        0x0001c688:    f8c80000    ....    STR      r0,[r8,#0]
        0x0001c68c:    e000        ..      B        0x1c690 ; timer_config_b1 + 352
        0x0001c68e:    2206        ."      MOVS     r2,#6
        0x0001c690:    4610        .F      MOV      r0,r2
        0x0001c692:    e8bd83f0    ....    POP      {r4-r9,pc}
        0x0001c696:    0000        ..      MOVS     r0,r0
    uint64_to_hexstr
        0x0001c698:    b08c        ..      SUB      sp,sp,#0x30
        0x0001c69a:    910b        ..      STR      r1,[sp,#0x2c]
        0x0001c69c:    900a        ..      STR      r0,[sp,#0x28]
        0x0001c69e:    9209        ..      STR      r2,[sp,#0x24]
        0x0001c6a0:    f88d3023    ..#0    STRB     r3,[sp,#0x23]
        0x0001c6a4:    2000        .       MOVS     r0,#0
        0x0001c6a6:    9006        ..      STR      r0,[sp,#0x18]
        0x0001c6a8:    980a        ..      LDR      r0,[sp,#0x28]
        0x0001c6aa:    990b        ..      LDR      r1,[sp,#0x2c]
        0x0001c6ac:    4308        .C      ORRS     r0,r0,r1
        0x0001c6ae:    b940        @.      CBNZ     r0,0x1c6c2 ; uint64_to_hexstr + 42
        0x0001c6b0:    e7ff        ..      B        0x1c6b2 ; uint64_to_hexstr + 26
        0x0001c6b2:    9a06        ..      LDR      r2,[sp,#0x18]
        0x0001c6b4:    1c50        P.      ADDS     r0,r2,#1
        0x0001c6b6:    9006        ..      STR      r0,[sp,#0x18]
        0x0001c6b8:    f10d0103    ....    ADD      r1,sp,#3
        0x0001c6bc:    2030        0       MOVS     r0,#0x30
        0x0001c6be:    5488        .T      STRB     r0,[r1,r2]
        0x0001c6c0:    e7ff        ..      B        0x1c6c2 ; uint64_to_hexstr + 42
        0x0001c6c2:    e7ff        ..      B        0x1c6c4 ; uint64_to_hexstr + 44
        0x0001c6c4:    980a        ..      LDR      r0,[sp,#0x28]
        0x0001c6c6:    990b        ..      LDR      r1,[sp,#0x2c]
        0x0001c6c8:    4308        .C      ORRS     r0,r0,r1
        0x0001c6ca:    b350        P.      CBZ      r0,0x1c722 ; uint64_to_hexstr + 138
        0x0001c6cc:    e7ff        ..      B        0x1c6ce ; uint64_to_hexstr + 54
        0x0001c6ce:    f89d0028    ..(.    LDRB     r0,[sp,#0x28]
        0x0001c6d2:    f000000f    ....    AND      r0,r0,#0xf
        0x0001c6d6:    f88d0017    ....    STRB     r0,[sp,#0x17]
        0x0001c6da:    f89d0017    ....    LDRB     r0,[sp,#0x17]
        0x0001c6de:    280a        .(      CMP      r0,#0xa
        0x0001c6e0:    db0d        ..      BLT      0x1c6fe ; uint64_to_hexstr + 102
        0x0001c6e2:    e7ff        ..      B        0x1c6e4 ; uint64_to_hexstr + 76
        0x0001c6e4:    f89d0023    ..#.    LDRB     r0,[sp,#0x23]
        0x0001c6e8:    07c0        ..      LSLS     r0,r0,#31
        0x0001c6ea:    2107        .!      MOVS     r1,#7
        0x0001c6ec:    2800        .(      CMP      r0,#0
        0x0001c6ee:    bf18        ..      IT       NE
        0x0001c6f0:    2127        '!      MOVNE    r1,#0x27
        0x0001c6f2:    f89d0017    ....    LDRB     r0,[sp,#0x17]
        0x0001c6f6:    4408        .D      ADD      r0,r0,r1
        0x0001c6f8:    f88d0017    ....    STRB     r0,[sp,#0x17]
        0x0001c6fc:    e7ff        ..      B        0x1c6fe ; uint64_to_hexstr + 102
        0x0001c6fe:    f89d0017    ....    LDRB     r0,[sp,#0x17]
        0x0001c702:    3030        00      ADDS     r0,r0,#0x30
        0x0001c704:    9a06        ..      LDR      r2,[sp,#0x18]
        0x0001c706:    1c51        Q.      ADDS     r1,r2,#1
        0x0001c708:    9106        ..      STR      r1,[sp,#0x18]
        0x0001c70a:    f10d0103    ....    ADD      r1,sp,#3
        0x0001c70e:    5488        .T      STRB     r0,[r1,r2]
        0x0001c710:    980a        ..      LDR      r0,[sp,#0x28]
        0x0001c712:    990b        ..      LDR      r1,[sp,#0x2c]
        0x0001c714:    0900        ..      LSRS     r0,r0,#4
        0x0001c716:    ea407001    @..p    ORR      r0,r0,r1,LSL #28
        0x0001c71a:    0909        ..      LSRS     r1,r1,#4
        0x0001c71c:    910b        ..      STR      r1,[sp,#0x2c]
        0x0001c71e:    900a        ..      STR      r0,[sp,#0x28]
        0x0001c720:    e7d0        ..      B        0x1c6c4 ; uint64_to_hexstr + 44
        0x0001c722:    9806        ..      LDR      r0,[sp,#0x18]
        0x0001c724:    9007        ..      STR      r0,[sp,#0x1c]
        0x0001c726:    9809        ..      LDR      r0,[sp,#0x24]
        0x0001c728:    b198        ..      CBZ      r0,0x1c752 ; uint64_to_hexstr + 186
        0x0001c72a:    e7ff        ..      B        0x1c72c ; uint64_to_hexstr + 148
        0x0001c72c:    e7ff        ..      B        0x1c72e ; uint64_to_hexstr + 150
        0x0001c72e:    9806        ..      LDR      r0,[sp,#0x18]
        0x0001c730:    1e41        A.      SUBS     r1,r0,#1
        0x0001c732:    9106        ..      STR      r1,[sp,#0x18]
        0x0001c734:    b148        H.      CBZ      r0,0x1c74a ; uint64_to_hexstr + 178
        0x0001c736:    e7ff        ..      B        0x1c738 ; uint64_to_hexstr + 160
        0x0001c738:    9906        ..      LDR      r1,[sp,#0x18]
        0x0001c73a:    f10d0003    ....    ADD      r0,sp,#3
        0x0001c73e:    5c40        @\      LDRB     r0,[r0,r1]
        0x0001c740:    9909        ..      LDR      r1,[sp,#0x24]
        0x0001c742:    1c4a        J.      ADDS     r2,r1,#1
        0x0001c744:    9209        ..      STR      r2,[sp,#0x24]
        0x0001c746:    7008        .p      STRB     r0,[r1,#0]
        0x0001c748:    e7f1        ..      B        0x1c72e ; uint64_to_hexstr + 150
        0x0001c74a:    9909        ..      LDR      r1,[sp,#0x24]
        0x0001c74c:    2000        .       MOVS     r0,#0
        0x0001c74e:    7008        .p      STRB     r0,[r1,#0]
        0x0001c750:    e7ff        ..      B        0x1c752 ; uint64_to_hexstr + 186
        0x0001c752:    9807        ..      LDR      r0,[sp,#0x1c]
        0x0001c754:    b00c        ..      ADD      sp,sp,#0x30
        0x0001c756:    4770        pG      BX       lr
    uint64_to_str
        0x0001c758:    b580        ..      PUSH     {r7,lr}
        0x0001c75a:    b090        ..      SUB      sp,sp,#0x40
        0x0001c75c:    910f        ..      STR      r1,[sp,#0x3c]
        0x0001c75e:    900e        ..      STR      r0,[sp,#0x38]
        0x0001c760:    920d        ..      STR      r2,[sp,#0x34]
        0x0001c762:    2000        .       MOVS     r0,#0
        0x0001c764:    9005        ..      STR      r0,[sp,#0x14]
        0x0001c766:    9004        ..      STR      r0,[sp,#0x10]
        0x0001c768:    e7ff        ..      B        0x1c76a ; uint64_to_str + 18
        0x0001c76a:    980e        ..      LDR      r0,[sp,#0x38]
        0x0001c76c:    990f        ..      LDR      r1,[sp,#0x3c]
        0x0001c76e:    f7fffac9    ....    BL       divu64_10 ; 0x1bd04
        0x0001c772:    9101        ..      STR      r1,[sp,#4]
        0x0001c774:    9000        ..      STR      r0,[sp,#0]
        0x0001c776:    980e        ..      LDR      r0,[sp,#0x38]
        0x0001c778:    9900        ..      LDR      r1,[sp,#0]
        0x0001c77a:    eb010181    ....    ADD      r1,r1,r1,LSL #2
        0x0001c77e:    eba00041    ..A.    SUB      r0,r0,r1,LSL #1
        0x0001c782:    9003        ..      STR      r0,[sp,#0xc]
        0x0001c784:    9803        ..      LDR      r0,[sp,#0xc]
        0x0001c786:    3030        00      ADDS     r0,r0,#0x30
        0x0001c788:    9a05        ..      LDR      r2,[sp,#0x14]
        0x0001c78a:    1c51        Q.      ADDS     r1,r2,#1
        0x0001c78c:    9105        ..      STR      r1,[sp,#0x14]
        0x0001c78e:    f10d011b    ....    ADD      r1,sp,#0x1b
        0x0001c792:    5488        .T      STRB     r0,[r1,r2]
        0x0001c794:    9800        ..      LDR      r0,[sp,#0]
        0x0001c796:    9901        ..      LDR      r1,[sp,#4]
        0x0001c798:    910f        ..      STR      r1,[sp,#0x3c]
        0x0001c79a:    900e        ..      STR      r0,[sp,#0x38]
        0x0001c79c:    e7ff        ..      B        0x1c79e ; uint64_to_str + 70
        0x0001c79e:    980e        ..      LDR      r0,[sp,#0x38]
        0x0001c7a0:    990f        ..      LDR      r1,[sp,#0x3c]
        0x0001c7a2:    4308        .C      ORRS     r0,r0,r1
        0x0001c7a4:    2800        .(      CMP      r0,#0
        0x0001c7a6:    d1e0        ..      BNE      0x1c76a ; uint64_to_str + 18
        0x0001c7a8:    e7ff        ..      B        0x1c7aa ; uint64_to_str + 82
        0x0001c7aa:    9805        ..      LDR      r0,[sp,#0x14]
        0x0001c7ac:    9004        ..      STR      r0,[sp,#0x10]
        0x0001c7ae:    980d        ..      LDR      r0,[sp,#0x34]
        0x0001c7b0:    b198        ..      CBZ      r0,0x1c7da ; uint64_to_str + 130
        0x0001c7b2:    e7ff        ..      B        0x1c7b4 ; uint64_to_str + 92
        0x0001c7b4:    e7ff        ..      B        0x1c7b6 ; uint64_to_str + 94
        0x0001c7b6:    9805        ..      LDR      r0,[sp,#0x14]
        0x0001c7b8:    1e41        A.      SUBS     r1,r0,#1
        0x0001c7ba:    9105        ..      STR      r1,[sp,#0x14]
        0x0001c7bc:    b148        H.      CBZ      r0,0x1c7d2 ; uint64_to_str + 122
        0x0001c7be:    e7ff        ..      B        0x1c7c0 ; uint64_to_str + 104
        0x0001c7c0:    9905        ..      LDR      r1,[sp,#0x14]
        0x0001c7c2:    f10d001b    ....    ADD      r0,sp,#0x1b
        0x0001c7c6:    5c40        @\      LDRB     r0,[r0,r1]
        0x0001c7c8:    990d        ..      LDR      r1,[sp,#0x34]
        0x0001c7ca:    1c4a        J.      ADDS     r2,r1,#1
        0x0001c7cc:    920d        ..      STR      r2,[sp,#0x34]
        0x0001c7ce:    7008        .p      STRB     r0,[r1,#0]
        0x0001c7d0:    e7f1        ..      B        0x1c7b6 ; uint64_to_str + 94
        0x0001c7d2:    990d        ..      LDR      r1,[sp,#0x34]
        0x0001c7d4:    2000        .       MOVS     r0,#0
        0x0001c7d6:    7008        .p      STRB     r0,[r1,#0]
        0x0001c7d8:    e7ff        ..      B        0x1c7da ; uint64_to_str + 130
        0x0001c7da:    9804        ..      LDR      r0,[sp,#0x10]
        0x0001c7dc:    b010        ..      ADD      sp,sp,#0x40
        0x0001c7de:    bd80        ..      POP      {r7,pc}
    $t
    x$fpl$d2f
    $v0
    __aeabi_d2f
    _d2f
        0x0001c7e0:    f0214200    !..B    BIC      r2,r1,#0x80000000
        0x0001c7e4:    f0014300    ...C    AND      r3,r1,#0x80000000
        0x0001c7e8:    f1a25260    ..`R    SUB      r2,r2,#0x38000000
        0x0001c7ec:    f5b21f80    ....    CMP      r2,#0x100000
        0x0001c7f0:    bf28        (.      IT       CS
        0x0001c7f2:    f1d26c7f    ...l    RSBSCS   r12,r2,#0xff00000
        0x0001c7f6:    d90b        ..      BLS      0x1c810 ; __aeabi_d2f + 48
        0x0001c7f8:    ea5f1c00    _...    LSLS     r12,r0,#4
        0x0001c7fc:    ea4302c2    C...    ORR      r2,r3,r2,LSL #3
        0x0001c800:    eb427050    B.Pp    ADC      r0,r2,r0,LSR #29
        0x0001c804:    bf18        ..      IT       NE
        0x0001c806:    4770        pG      BXNE     lr
        0x0001c808:    bf28        (.      IT       CS
        0x0001c80a:    f0200001     ...    BICCS    r0,r0,#1
        0x0001c80e:    4770        pG      BX       lr
        0x0001c810:    f5b21f80    ....    CMP      r2,#0x100000
        0x0001c814:    bfbc        ..      ITT      LT
        0x0001c816:    4618        .F      MOVLT    r0,r3
        0x0001c818:    4770        pG      BXLT     lr
        0x0001c81a:    ea4f0c41    O.A.    LSL      r12,r1,#1
        0x0001c81e:    f51c1f00    ....    CMN      r12,#0x200000
        0x0001c822:    d202        ..      BCS      0x1c82a ; __aeabi_d2f + 74
        0x0001c824:    4608        .F      MOV      r0,r1
        0x0001c826:    f000b867    ..g.    B.W      __fpl_fretinf ; 0x1c8f8
        0x0001c82a:    b570        p.      PUSH     {r4-r6,lr}
        0x0001c82c:    f000f809    ....    BL       __fpl_dnaninf ; 0x1c842
    $d
        0x0001c830:    89000000    ....    DCD    2298478592
    $t
        0x0001c834:    f7ffbff6    ....    B.W      0x1c824 ; __aeabi_d2f + 68
        0x0001c838:    f04f4000    O..@    MOV      r0,#0x80000000
        0x0001c83c:    f5a00080    ....    SUB      r0,r0,#0x400000
        0x0001c840:    4770        pG      BX       lr
    x$fpl$dnaninf
    $v0
    __fpl_dnaninf
        0x0001c842:    f10e0e02    ....    ADD      lr,lr,#2
        0x0001c846:    f02e0e03    ....    BIC      lr,lr,#3
        0x0001c84a:    f85e6b04    ^..k    LDR      r6,[lr],#4
        0x0001c84e:    4236        6B      TST      r6,r6
        0x0001c850:    d405        ..      BMI      0x1c85e ; __fpl_dnaninf + 28
        0x0001c852:    2a01        .*      CMP      r2,#1
        0x0001c854:    eb430503    C...    ADC      r5,r3,r3
        0x0001c858:    f5151f00    ....    CMN      r5,#0x200000
        0x0001c85c:    d812        ..      BHI      0x1c884 ; __fpl_dnaninf + 66
        0x0001c85e:    2801        .(      CMP      r0,#1
        0x0001c860:    eb410c01    A...    ADC      r12,r1,r1
        0x0001c864:    f51c1f00    ....    CMN      r12,#0x200000
        0x0001c868:    d80c        ..      BHI      0x1c884 ; __fpl_dnaninf + 66
        0x0001c86a:    d10e        ..      BNE      0x1c88a ; __fpl_dnaninf + 72
        0x0001c86c:    ea4f7cd1    O..|    LSR      r12,r1,#31
        0x0001c870:    eb0c0c4c    ..L.    ADD      r12,r12,r12,LSL #1
        0x0001c874:    f10c0c02    ....    ADD      r12,r12,#2
        0x0001c878:    f5151f00    ....    CMN      r5,#0x200000
        0x0001c87c:    bf08        ..      IT       EQ
        0x0001c87e:    eb4c7cd3    L..|    ADCEQ    r12,r12,r3,LSR #31
        0x0001c882:    e004        ..      B        0x1c88e ; __fpl_dnaninf + 76
        0x0001c884:    f04f0c08    O...    MOV      r12,#8
        0x0001c888:    e001        ..      B        0x1c88e ; __fpl_dnaninf + 76
        0x0001c88a:    ea4f7cd3    O..|    LSR      r12,r3,#31
        0x0001c88e:    eb0c054c    ..L.    ADD      r5,r12,r12,LSL #1
        0x0001c892:    fa26f605    &...    LSR      r6,r6,r5
        0x0001c896:    f0060607    ....    AND      r6,r6,#7
        0x0001c89a:    f1b60c04    ....    SUBS     r12,r6,#4
        0x0001c89e:    d206        ..      BCS      0x1c8ae ; __fpl_dnaninf + 108
        0x0001c8a0:    eb0e0c86    ....    ADD      r12,lr,r6,LSL #2
        0x0001c8a4:    e8bd4070    ..p@    POP      {r4-r6,lr}
        0x0001c8a8:    f04c0c01    L...    ORR      r12,r12,#1
        0x0001c8ac:    4760        `G      BX       r12
        0x0001c8ae:    e8dff00c    ....    TBB      [pc,r12]
    $d
        0x0001c8b2:    0b09        ..      DCW    2825
        0x0001c8b4:    0202        ..      DCW    514
    $t
        0x0001c8b6:    f04f4100    O..A    MOV      r1,#0x80000000
        0x0001c8ba:    f5a12100    ...!    SUB      r1,r1,#0x80000
        0x0001c8be:    f04f0000    O...    MOV      r0,#0
        0x0001c8c2:    bd70        p.      POP      {r4-r6,pc}
        0x0001c8c4:    4619        .F      MOV      r1,r3
        0x0001c8c6:    4610        .F      MOV      r0,r2
        0x0001c8c8:    2801        .(      CMP      r0,#1
        0x0001c8ca:    eb510401    Q...    ADCS     r4,r1,r1
        0x0001c8ce:    bf18        ..      IT       NE
        0x0001c8d0:    f5d41400    ....    RSBSNE   r4,r4,#0x200000
        0x0001c8d4:    bf84        ..      ITT      HI
        0x0001c8d6:    2000        .       MOVHI    r0,#0
        0x0001c8d8:    f0014100    ...A    ANDHI    r1,r1,#0x80000000
        0x0001c8dc:    bd70        p.      POP      {r4-r6,pc}
    x$fpl$fpinit
    $v0
    _fp_init
        0x0001c8de:    eef10a10    ....    VMRS     r0,FPSCR
        0x0001c8e2:    f64f71ff    O..q    MOV      r1,#0xffff
        0x0001c8e6:    f2c031c0    ...1    MOVT     r1,#0x3c0
        0x0001c8ea:    ea200001     ...    BIC      r0,r0,r1
        0x0001c8ee:    f0407040    @.@p    ORR      r0,r0,#0x3000000
        0x0001c8f2:    eee10a10    ....    VMSR     FPSCR,r0
    __fplib_config_fpu_vfp
    __fplib_config_pureend_doubles
        0x0001c8f6:    4770        pG      BX       lr
    x$fpl$fretinf
    $v0
    __fpl_fretinf
        0x0001c8f8:    21ff        .!      MOVS     r1,#0xff
        0x0001c8fa:    ea4150d0    A..P    ORR      r0,r1,r0,LSR #23
        0x0001c8fe:    05c0        ..      LSLS     r0,r0,#23
        0x0001c900:    4770        pG      BX       lr
    $d.realdata
    x$fpl$usenofp
    __I$use$fp
    am_hal_daxi_defaults
        0x0001c902:    0002        ..      DCW    2
        0x0001c904:    00000000    ....    DCD    0
    am_hal_gpio_pincfg_output
        0x0001c908:    00000183    ....    DCD    387
    am_hal_pwrctrl_peripheral_control
        0x0001c90c:    40021004    ...@    DCD    1073876996
        0x0001c910:    00000001    ....    DCD    1
        0x0001c914:    40021008    ...@    DCD    1073877000
        0x0001c918:    00000001    ....    DCD    1
        0x0001c91c:    40021004    ...@    DCD    1073876996
        0x0001c920:    00000002    ....    DCD    2
        0x0001c924:    40021008    ...@    DCD    1073877000
        0x0001c928:    0000001e    ....    DCD    30
        0x0001c92c:    40021004    ...@    DCD    1073876996
        0x0001c930:    00000004    ....    DCD    4
        0x0001c934:    40021008    ...@    DCD    1073877000
        0x0001c938:    0000001e    ....    DCD    30
        0x0001c93c:    40021004    ...@    DCD    1073876996
        0x0001c940:    00000008    ....    DCD    8
        0x0001c944:    40021008    ...@    DCD    1073877000
        0x0001c948:    0000001e    ....    DCD    30
        0x0001c94c:    40021004    ...@    DCD    1073876996
        0x0001c950:    00000010    ....    DCD    16
        0x0001c954:    40021008    ...@    DCD    1073877000
        0x0001c958:    0000001e    ....    DCD    30
        0x0001c95c:    40021004    ...@    DCD    1073876996
        0x0001c960:    00000020     ...    DCD    32
        0x0001c964:    40021008    ...@    DCD    1073877000
        0x0001c968:    000001e0    ....    DCD    480
        0x0001c96c:    40021004    ...@    DCD    1073876996
        0x0001c970:    00000040    @...    DCD    64
        0x0001c974:    40021008    ...@    DCD    1073877000
        0x0001c978:    000001e0    ....    DCD    480
        0x0001c97c:    40021004    ...@    DCD    1073876996
        0x0001c980:    00000080    ....    DCD    128
        0x0001c984:    40021008    ...@    DCD    1073877000
        0x0001c988:    000001e0    ....    DCD    480
        0x0001c98c:    40021004    ...@    DCD    1073876996
        0x0001c990:    00000100    ....    DCD    256
        0x0001c994:    40021008    ...@    DCD    1073877000
        0x0001c998:    000001e0    ....    DCD    480
        0x0001c99c:    40021004    ...@    DCD    1073876996
        0x0001c9a0:    00000200    ....    DCD    512
        0x0001c9a4:    40021008    ...@    DCD    1073877000
        0x0001c9a8:    00001e00    ....    DCD    7680
        0x0001c9ac:    40021004    ...@    DCD    1073876996
        0x0001c9b0:    00000400    ....    DCD    1024
        0x0001c9b4:    40021008    ...@    DCD    1073877000
        0x0001c9b8:    00001e00    ....    DCD    7680
        0x0001c9bc:    40021004    ...@    DCD    1073876996
        0x0001c9c0:    00000800    ....    DCD    2048
        0x0001c9c4:    40021008    ...@    DCD    1073877000
        0x0001c9c8:    00001e00    ....    DCD    7680
        0x0001c9cc:    40021004    ...@    DCD    1073876996
        0x0001c9d0:    00001000    ....    DCD    4096
        0x0001c9d4:    40021008    ...@    DCD    1073877000
        0x0001c9d8:    00001e00    ....    DCD    7680
        0x0001c9dc:    40021004    ...@    DCD    1073876996
        0x0001c9e0:    00002000    . ..    DCD    8192
        0x0001c9e4:    40021008    ...@    DCD    1073877000
        0x0001c9e8:    00002000    . ..    DCD    8192
        0x0001c9ec:    40021004    ...@    DCD    1073876996
        0x0001c9f0:    00004000    .@..    DCD    16384
        0x0001c9f4:    40021008    ...@    DCD    1073877000
        0x0001c9f8:    0001c000    ....    DCD    114688
        0x0001c9fc:    40021004    ...@    DCD    1073876996
        0x0001ca00:    00008000    ....    DCD    32768
        0x0001ca04:    40021008    ...@    DCD    1073877000
        0x0001ca08:    0001c000    ....    DCD    114688
        0x0001ca0c:    40021004    ...@    DCD    1073876996
        0x0001ca10:    00010000    ....    DCD    65536
        0x0001ca14:    40021008    ...@    DCD    1073877000
        0x0001ca18:    0001c000    ....    DCD    114688
        0x0001ca1c:    40021004    ...@    DCD    1073876996
        0x0001ca20:    00020000    ....    DCD    131072
        0x0001ca24:    40021008    ...@    DCD    1073877000
        0x0001ca28:    00020000    ....    DCD    131072
        0x0001ca2c:    40021004    ...@    DCD    1073876996
        0x0001ca30:    00040000    ....    DCD    262144
        0x0001ca34:    40021008    ...@    DCD    1073877000
        0x0001ca38:    00040000    ....    DCD    262144
        0x0001ca3c:    40021004    ...@    DCD    1073876996
        0x0001ca40:    00080000    ....    DCD    524288
        0x0001ca44:    40021008    ...@    DCD    1073877000
        0x0001ca48:    00080000    ....    DCD    524288
        0x0001ca4c:    40021004    ...@    DCD    1073876996
        0x0001ca50:    00100000    ....    DCD    1048576
        0x0001ca54:    40021008    ...@    DCD    1073877000
        0x0001ca58:    00100000    ....    DCD    1048576
        0x0001ca5c:    40021004    ...@    DCD    1073876996
        0x0001ca60:    00200000    .. .    DCD    2097152
        0x0001ca64:    40021008    ...@    DCD    1073877000
        0x0001ca68:    00200000    .. .    DCD    2097152
        0x0001ca6c:    40021004    ...@    DCD    1073876996
        0x0001ca70:    00400000    ..@.    DCD    4194304
        0x0001ca74:    40021008    ...@    DCD    1073877000
        0x0001ca78:    00400000    ..@.    DCD    4194304
        0x0001ca7c:    40021004    ...@    DCD    1073876996
        0x0001ca80:    00800000    ....    DCD    8388608
        0x0001ca84:    40021008    ...@    DCD    1073877000
        0x0001ca88:    00800000    ....    DCD    8388608
        0x0001ca8c:    40021004    ...@    DCD    1073876996
        0x0001ca90:    01000000    ....    DCD    16777216
        0x0001ca94:    40021008    ...@    DCD    1073877000
        0x0001ca98:    01000000    ....    DCD    16777216
        0x0001ca9c:    4002100c    ...@    DCD    1073877004
        0x0001caa0:    00000001    ....    DCD    1
        0x0001caa4:    40021010    ...@    DCD    1073877008
        0x0001caa8:    000000ff    ....    DCD    255
        0x0001caac:    4002100c    ...@    DCD    1073877004
        0x0001cab0:    00000002    ....    DCD    2
        0x0001cab4:    40021010    ...@    DCD    1073877008
        0x0001cab8:    000000ff    ....    DCD    255
        0x0001cabc:    4002100c    ...@    DCD    1073877004
        0x0001cac0:    00000004    ....    DCD    4
        0x0001cac4:    40021010    ...@    DCD    1073877008
        0x0001cac8:    000000ff    ....    DCD    255
        0x0001cacc:    4002100c    ...@    DCD    1073877004
        0x0001cad0:    00000008    ....    DCD    8
        0x0001cad4:    40021010    ...@    DCD    1073877008
        0x0001cad8:    000000ff    ....    DCD    255
        0x0001cadc:    4002100c    ...@    DCD    1073877004
        0x0001cae0:    00000010    ....    DCD    16
        0x0001cae4:    40021010    ...@    DCD    1073877008
        0x0001cae8:    000000ff    ....    DCD    255
        0x0001caec:    4002100c    ...@    DCD    1073877004
        0x0001caf0:    00000020     ...    DCD    32
        0x0001caf4:    40021010    ...@    DCD    1073877008
        0x0001caf8:    000000ff    ....    DCD    255
        0x0001cafc:    4002100c    ...@    DCD    1073877004
        0x0001cb00:    00000040    @...    DCD    64
        0x0001cb04:    40021010    ...@    DCD    1073877008
        0x0001cb08:    000000ff    ....    DCD    255
        0x0001cb0c:    4002100c    ...@    DCD    1073877004
        0x0001cb10:    00000080    ....    DCD    128
        0x0001cb14:    40021010    ...@    DCD    1073877008
        0x0001cb18:    000000ff    ....    DCD    255
        0x0001cb1c:    4002100c    ...@    DCD    1073877004
        0x0001cb20:    00000400    ....    DCD    1024
        0x0001cb24:    40021010    ...@    DCD    1073877008
        0x0001cb28:    00000400    ....    DCD    1024
    gAxiMemRange
        0x0001cb2c:    10060000    ....    DCD    268828672
        0x0001cb30:    00080000    ....    DCD    524288
        0x0001cb34:    40021028    (..@    DCD    1073877032
        0x0001cb38:    00000001    ....    DCD    1
        0x0001cb3c:    100e0000    ....    DCD    269352960
        0x0001cb40:    00080000    ....    DCD    524288
        0x0001cb44:    40021028    (..@    DCD    1073877032
        0x0001cb48:    00000002    ....    DCD    2
        0x0001cb4c:    10160000    ....    DCD    269877248
        0x0001cb50:    00020000    ....    DCD    131072
        0x0001cb54:    4002105c    \..@    DCD    1073877084
        0x0001cb58:    00000002    ....    DCD    2
        0x0001cb5c:    10180000    ....    DCD    270008320
        0x0001cb60:    00040000    ....    DCD    262144
        0x0001cb64:    4002105c    \..@    DCD    1073877084
        0x0001cb68:    00000001    ....    DCD    1
        0x0001cb6c:    101d0000    ....    DCD    270336000
        0x0001cb70:    00008000    ....    DCD    32768
        0x0001cb74:    4002107c    |..@    DCD    1073877116
        0x0001cb78:    00000002    ....    DCD    2
        0x0001cb7c:    101c0000    ....    DCD    270270464
        0x0001cb80:    00010000    ....    DCD    65536
        0x0001cb84:    4002107c    |..@    DCD    1073877116
        0x0001cb88:    00000001    ....    DCD    1
    g_DefaultMcuMemCfg
        0x0001cb8c:    07070102    ....    DCD    117899522
        0x0001cb90:    0001        ..      DCW    1
    g_DefaultSRAMCfg
        0x0001cb92:    0003        ..      DCW    3
        0x0001cb94:    03000000    ....    DCD    50331648
    g_am_hal_bootrom_helper
        0x0001cb98:    0800004d    M...    DCD    134217805
        0x0001cb9c:    08000051    Q...    DCD    134217809
        0x0001cba0:    08000055    U...    DCD    134217813
        0x0001cba4:    08000059    Y...    DCD    134217817
        0x0001cba8:    0800006d    m...    DCD    134217837
        0x0001cbac:    08000075    u...    DCD    134217845
        0x0001cbb0:    08000079    y...    DCD    134217849
        0x0001cbb4:    08000081    ....    DCD    134217857
        0x0001cbb8:    08000099    ....    DCD    134217881
        0x0001cbbc:    0800009d    ....    DCD    134217885
    __tagsym$$used.7
    sGlobalAccess
        0x0001cbc0:    0001cdf8    ....    DCD    118264
        0x0001cbc4:    0001cde4    ....    DCD    118244
        0x0001cbc8:    0001cdbc    ....    DCD    118204
        0x0001cbcc:    0001cdd0    ....    DCD    118224
        0x0001cbd0:    10060004    ....    DCD    268828676
        0x0001cbd4:    10060018    ....    DCD    268828696
        0x0001cbd8:    1006002c    ,...    DCD    268828716
    .L.str
    .L.str.15
        0x0001cbdc:    3d3d3d3d    ====    DCD    1027423549
        0x0001cbe0:    3d3d3d3d    ====    DCD    1027423549
        0x0001cbe4:    3d3d3d3d    ====    DCD    1027423549
        0x0001cbe8:    3d3d3d3d    ====    DCD    1027423549
        0x0001cbec:    3d3d3d3d    ====    DCD    1027423549
        0x0001cbf0:    3d3d3d3d    ====    DCD    1027423549
        0x0001cbf4:    3d3d        ==      DCW    15677
        0x0001cbf6:    3d          =       DCB    61
    .L.str.1
        0x0001cbf7:    3d          =       DCB    61
        0x0001cbf8:    3d3d3d3d    ====    DCD    1027423549
        0x0001cbfc:    3d3d3d3d    ====    DCD    1027423549
        0x0001cc00:    3d3d3d3d    ====    DCD    1027423549
        0x0001cc04:    3d3d3d3d    ====    DCD    1027423549
        0x0001cc08:    3d3d3d3d    ====    DCD    1027423549
        0x0001cc0c:    3d3d3d3d    ====    DCD    1027423549
        0x0001cc10:    3d3d        ==      DCW    15677
        0x0001cc12:    3d          =       DCB    61
    .L.str.2
        0x0001cc13:    3d          =       DCB    61
        0x0001cc14:    3d3d3d3d    ====    DCD    1027423549
        0x0001cc18:    0a0a        ..      DCW    2570
        0x0001cc1a:    00          .       DCB    0
    .L.str.14
        0x0001cc1b:    0a          .       DCB    10
        0x0001cc1c:    3d3d3d3d    ====    DCD    1027423549
        0x0001cc20:    3d3d3d3d    ====    DCD    1027423549
        0x0001cc24:    73655420     Tes    DCD    1936020512
        0x0001cc28:    756d2074    t mu    DCD    1970086004
        0x0001cc2c:    746c        lt      DCW    29804
    .L.str.3
        0x0001cc2e:    7069        ip      DCW    28777
        0x0001cc30:    6220656c    le b    DCD    1646290284
        0x0001cc34:    6b636f6c    lock    DCD    1801678700
        0x0001cc38:    6e797320     syn    DCD    1853453088
        0x0001cc3c:    72772063    c wr    DCD    1920409699
        0x0001cc40:    20657469    ite     DCD    543519849
        0x0001cc44:    20646e61    and     DCD    543452769
        0x0001cc48:    6572        re      DCW    25970
    .L.str.4
        0x0001cc4a:    6461        ad      DCW    25697
        0x0001cc4c:    206e6920     in     DCD    544106784
        0x0001cc50:    41525353    SSRA    DCD    1095914323
        0x0001cc54:    3d3d204d    M ==    DCD    1027416141
        0x0001cc58:    3d3d3d3d    ====    DCD    1027423549
        0x0001cc5c:    3d3d        ==      DCW    15677
    .L.str.5
        0x0001cc5e:    000a        ..      DCW    10
    .L.str.16
        0x0001cc60:    3d3d3d0a    .===    DCD    1027423498
        0x0001cc64:    3d3d3d3d    ====    DCD    1027423549
        0x0001cc68:    6554203d    = Te    DCD    1700012093
        0x0001cc6c:    73207473    st s    DCD    1931506803
        0x0001cc70:    6c676e69    ingl    DCD    1818717801
        0x0001cc74:    6c622065    e bl    DCD    1818370149
        0x0001cc78:    206b636f    ock     DCD    543908719
        0x0001cc7c:    636e7973    sync    DCD    1668184435
        0x0001cc80:    69727720     wri    DCD    1769109280
        0x0001cc84:    61206574    te a    DCD    1629513076
        0x0001cc88:    7220646e    nd r    DCD    1914725486
        0x0001cc8c:    20646165    ead     DCD    543449445
        0x0001cc90:    54206e69    in T    DCD    1411411561
        0x0001cc94:    3d204d43    CM =    DCD    1025527107
        0x0001cc98:    3d3d3d3d    ====    DCD    1027423549
        0x0001cc9c:    0a3d3d3d    ===.    DCD    171785533
        0x0001cca0:    00          .       DCB    0
    .L.str.6
        0x0001cca1:    707569      pui     DCB    112,117,105
        0x0001cca4:    42645238    8RdB    DCD    1113870904
        0x0001cca8:    255b6675    uf[%    DCD    626746997
        0x0001ccac:    3d205d64    d] =    DCD    1025531236
        0x0001ccb0:    20642520     %d     DCD    543434016
        0x0001ccb4:    20646e61    and     DCD    543452769
        0x0001ccb8:    38697570    pui8    DCD    946435440
        0x0001ccbc:    75427257    WrBu    DCD    1967288919
        0x0001ccc0:    64255b66    f[%d    DCD    1680169830
        0x0001ccc4:    203d205d    ] =     DCD    540876893
        0x0001ccc8:    000a6425    %d..    DCD    680997
    .L.str.7
        0x0001cccc:    61746164    data    DCD    1635017060
        0x0001ccd0:    74616d20     mat    DCD    1952541984
        0x0001ccd4:    64656863    ched    DCD    1684367459
        0x0001ccd8:    000a        ..      DCW    10
    .L.str.13
        0x0001ccda:    6573        se      DCW    25971
        0x0001ccdc:    6e697474    ttin    DCD    1852404852
        0x0001cce0:    44532067    g SD    DCD    1146298471
        0x0001cce4:    20303552    R50     DCD    540030290
        0x0001cce8:    6c696166    fail    DCD    1818845542
        0x0001ccec:    000a6465    ed..    DCD    681061
    .L.str.9
        0x0001ccf0:    64726163    card    DCD    1685217635
        0x0001ccf4:    736f6820     hos    DCD    1936680992
        0x0001ccf8:    73692074    t is    DCD    1936269428
        0x0001ccfc:    756f6620     fou    DCD    1970234912
        0x0001cd00:    000a646e    nd..    DCD    681070
    .L.str.17
        0x0001cd04:    7261430a    .Car    DCD    1918976778
        0x0001cd08:    6f702064    d po    DCD    1869619300
        0x0001cd0c:    20726577    wer     DCD    544367991
        0x0001cd10:    69766173    savi    DCD    1769365875
        0x0001cd14:    000a676e    ng..    DCD    681838
    .L.str.19
        0x0001cd18:    6165520a    .Rea    DCD    1634030090
        0x0001cd1c:    31352064    d 51    DCD    825565284
        0x0001cd20:    79622032    2 by    DCD    2036473906
        0x0001cd24:    20736574    tes     DCD    544433524
        0x0001cd28:    636f6c62    bloc    DCD    1668246626
        0x0001cd2c:    0a6b        k.      DCW    2667
        0x0001cd2e:    00          .       DCB    0
    .L.str.11
        0x0001cd2f:    43          C       DCB    67
        0x0001cd30:    6b636568    heck    DCD    1801676136
        0x0001cd34:    20676e69    ing     DCD    543649385
        0x0001cd38:    63206669    if c    DCD    1663067753
        0x0001cd3c:    20647261    ard     DCD    543453793
        0x0001cd40:    61207369    is a    DCD    1629516649
        0x0001cd44:    6c696176    vail    DCD    1818845558
        0x0001cd48:    656c6261    able    DCD    1701601889
        0x0001cd4c:    61676120     aga    DCD    1634165024
        0x0001cd50:    000a6e69    in..    DCD    683625
    .L.str.12
        0x0001cd54:    64726163    card    DCD    1685217635
        0x0001cd58:    696e6920     ini    DCD    1768843552
        0x0001cd5c:    61662074    t fa    DCD    1634082932
        0x0001cd60:    64656c69    iled    DCD    1684368489
        0x0001cd64:    7274202c    , tr    DCD    1920213036
        0x0001cd68:    67612079    y ag    DCD    1734418553
        0x0001cd6c:    0a6e6961    ain.    DCD    175008097
        0x0001cd70:    00          .       DCB    0
    .L.str.8
        0x0001cd71:    4e6f20      No      DCB    78,111,32
        0x0001cd74:    68637573    such    DCD    1751348595
        0x0001cd78:    72616320     car    DCD    1918984992
        0x0001cd7c:    6f682064    d ho    DCD    1869095012
        0x0001cd80:    61207473    st a    DCD    1629516915
        0x0001cd84:    7320646e    nd s    DCD    1931502702
        0x0001cd88:    0a706f74    top.    DCD    175140724
        0x0001cd8c:    00          .       DCB    0
    .L.str.18
        0x0001cd8d:    0a4361      .Ca     DCB    10,67,97
        0x0001cd90:    70206472    rd p    DCD    1881171058
        0x0001cd94:    7265776f    ower    DCD    1919252335
        0x0001cd98:    6b617720     wak    DCD    1801549600
        0x0001cd9c:    0a707565    eup.    DCD    175142245
        0x0001cda0:    00          .       DCB    0
    .L.str.10
        0x0001cda1:    4e6f20      No      DCB    78,111,32
        0x0001cda4:    64726163    card    DCD    1685217635
        0x0001cda8:    20736920     is     DCD    544434464
        0x0001cdac:    73657270    pres    DCD    1936028272
        0x0001cdb0:    20746e65    ent     DCD    544501349
        0x0001cdb4:    0a776f6e    now.    DCD    175599470
        0x0001cdb8:    00000000    ....    DCD    0
    __tagsym$$used.1
    ui32DSP0Allowed
        0x0001cdbc:    00000000    ....    DCD    0
        0x0001cdc0:    00000000    ....    DCD    0
        0x0001cdc4:    00000000    ....    DCD    0
        0x0001cdc8:    00000000    ....    DCD    0
        0x0001cdcc:    00000000    ....    DCD    0
    __tagsym$$used.2
    ui32DSP1Allowed
        0x0001cdd0:    00000000    ....    DCD    0
        0x0001cdd4:    00000000    ....    DCD    0
        0x0001cdd8:    00000000    ....    DCD    0
        0x0001cddc:    00000000    ....    DCD    0
        0x0001cde0:    00000000    ....    DCD    0
    __tagsym$$used.0
    ui32MCUAllowed
        0x0001cde4:    00000000    ....    DCD    0
        0x0001cde8:    00000000    ....    DCD    0
        0x0001cdec:    00000000    ....    DCD    0
        0x0001cdf0:    00000000    ....    DCD    0
        0x0001cdf4:    00000000    ....    DCD    0
    __tagsym$$used.3
    ui32SharedAccess
        0x0001cdf8:    00000000    ....    DCD    0
        0x0001cdfc:    00000000    ....    DCD    0
        0x0001ce00:    00000000    ....    DCD    0
        0x0001ce04:    00000000    ....    DCD    0
        0x0001ce08:    00000000    ....    DCD    0
    Region$$Table$$Base
        0x0001ce0c:    0001d000    ....    DCD    118784
        0x0001ce10:    10000000    ....    DCD    268435456
        0x0001ce14:    00001000    ....    DCD    4096
        0x0001ce18:    000182cc    ....    DCD    99020
        0x0001ce1c:    0001e000    ....    DCD    122880
        0x0001ce20:    10060000    ....    DCD    268828672
        0x0001ce24:    00000040    @...    DCD    64
        0x0001ce28:    000182cc    ....    DCD    99020
        0x0001ce2c:    0001e000    ....    DCD    122880
        0x0001ce30:    10001000    ....    DCD    268439552
        0x0001ce34:    00005300    .S..    DCD    21248
        0x0001ce38:    000182e8    ....    DCD    99048
    Region$$Table$$Limit

** Section #2 'MCU_TCM' (SHT_PROGBITS) [SHF_ALLOC + SHF_WRITE]
    Size   : 4096 bytes (alignment 4096)
    Address: 0x10000000

    0x10000000:   92 24 01 80 20 01 00 00 6d db 02 40 d1 02 00 00    .$.. ...m..@....
    0x10000010:   02 8c 00 00 02 8c 00 00 02 8c 00 00 02 0c 00 00    ................
    0x10000020:   02 0c 00 00 02 0c 00 00 02 0c 00 00 02 0c 00 00    ................
    0x10000030:   02 0c 00 00 02 0c 00 00 44 f2 04 01 c4 f2 01 01    ........D.......
    0x10000040:   c3 22 4a 60 05 22 cb 6c 43 f0 10 03 cb 64 0a 65    ."J`.".lC....d.e
    0x10000050:   01 23 cb 60 00 22 0a 61 4a 61 8a 61 00 f0 0f 00    .#.`.".aJa.a....
    0x10000060:   0b 68 43 f0 08 03 0b 60 0a 68 22 f0 08 02 0a 60    .hC....`.h"....`
    0x10000070:   09 22 0b 6d 62 f3 95 23 0b 65 06 22 0b 6d 62 f3    .".mb..#.e.".mb.
    0x10000080:   04 03 0b 65 0a 68 42 f0 08 02 0a 60 0b 68 23 f0    ...e.hB....`.h#.
    0x10000090:   08 03 0b 60 ca 6e 0b 68 23 f0 08 03 12 09 0b 60    ...`.n.h#......`
    0x100000a0:   40 ea 02 10 c8 60 05 20 0a 6d 60 f3 04 02 0a 65    @....`. .m`....e
    0x100000b0:   08 68 40 f0 08 00 08 60 0a 68 22 f0 08 02 0a 60    .h@....`.h"....`
    0x100000c0:   00 22 08 6d 6f f3 95 20 08 65 ca 60 05 20 0a 6d    .".mo.. .e.`. .m
    0x100000d0:   60 f3 04 02 0a 65 08 68 40 f0 08 00 08 60 0a 68    `....e.h@....`.h
    0x100000e0:   22 f0 08 02 0a 60 00 22 c8 6c 20 f0 10 00 c8 64    "....`.".l ....d
    0x100000f0:   4a 60 70 47 44 f2 04 01 c4 f2 01 01 c3 20 48 60    J`pGD........ H`
    0x10000100:   05 20 ca 6c 42 f0 10 02 ca 64 08 65 01 22 ca 60    . .lB....d.e.".`
    0x10000110:   00 20 08 61 48 61 88 61 0a 68 42 f0 08 02 0a 60    . .aHa.a.hB....`
    0x10000120:   08 68 20 f0 08 00 08 60 09 20 0a 6d 60 f3 95 22    .h ....`. .m`.."
    0x10000130:   0a 65 06 20 0a 6d 60 f3 04 02 0a 65 08 68 40 f0    .e. .m`....e.h@.
    0x10000140:   08 00 08 60 45 f6 a0 00 0a 68 22 f0 08 02 0a 60    ...`E....h"....`
    0x10000150:   c0 f2 10 00 ca 6e 02 f0 0f 02 02 43 ca 60 05 20    .....n.....C.`. 
    0x10000160:   0a 6d 60 f3 04 02 0a 65 08 68 40 f0 08 00 08 60    .m`....e.h@....`
    0x10000170:   0a 68 22 f0 08 02 0a 60 00 22 08 6d 6f f3 95 20    .h"....`.".mo.. 
    0x10000180:   08 65 ca 60 05 20 0a 6d 60 f3 04 02 0a 65 08 68    .e.`. .m`....e.h
    0x10000190:   40 f0 08 00 08 60 0a 68 22 f0 08 02 0a 60 00 22    @....`.h"....`."
    0x100001a0:   c8 6c 20 f0 10 00 c8 64 4a 60 00 20 70 47 00 00    .l ....dJ`. pG..
    0x100001b0:   00 00 00 00 00 00 00 00 00 00 00 00 00 00 00 00    ................
    0x100001c0:   00 00 00 00 00 00 00 00 00 00 00 00 00 00 00 00    ................
    0x100001d0:   00 00 00 00 00 00 00 00 00 00 00 00 00 00 00 00    ................
    0x100001e0:   00 00 00 00 00 00 00 00 00 00 00 00 00 00 00 00    ................
    0x100001f0:   00 00 00 00 00 00 00 00 00 00 00 00 00 00 00 00    ................
    0x10000200:   00 00 00 00 00 00 00 00 00 00 00 00 00 00 00 00    ................
    0x10000210:   18 02 00 10 00 00 00 00 5b a6 01 00 0b a6 01 00    ........[.......
    0x10000220:   af 89 01 00 35 a6 01 00 4f aa 01 00 a1 aa 01 00    ....5...O.......
    0x10000230:   b1 a9 01 00 55 ab 01 00 07 ab 01 00 e3 a5 01 00    ....U...........
    0x10000240:   3d a0 01 00 ff ff ff ff ff ff ff ff ff ff ff ff    =...............
    0x10000250:   ff ff ff ff ff ff ff ff 08 1e 0c 40 18 1e 0c 40    ...........@...@
    0x10000260:   39 00 00 10 f5 00 00 10 00 00 00 00 00 00 00 00    9...............
    0x10000270:   08 60 bf f3 4f 8f 30 bf bf f3 6f 8f 70 47 00 bf    .`..O.0...o.pG..
    0x10000280:   00 00 00 00 00 00 00 00 00 00 00 00 00 00 00 00    ................
    0x10000290:   71 02 00 10 00 00 00 00 00 00 00 00 00 00 00 00    q...............
    0x100002a0:   00 00 00 00 00 00 00 00 00 00 00 00 00 00 00 00    ................
    0x100002b0:   00 00 00 00 00 00 00 00 00 00 00 00 00 00 00 00    ................
    0x100002c0:   00 00 00 00 00 00 00 00 00 00 00 00 00 00 00 00    ................
    0x100002d0:   00 00 00 00 00 00 00 00 00 00 00 00 00 00 00 00    ................
    0x100002e0:   00 00 00 00 00 00 00 00 00 00 00 00 00 00 00 00    ................
    0x100002f0:   00 00 00 00 00 00 00 00 00 00 00 00 00 00 00 00    ................
    0x10000300:   00 00 00 00 00 00 00 00 00 00 00 00 00 00 00 00    ................
    0x10000310:   00 00 00 00 00 00 00 00 00 00 00 00 00 00 00 00    ................
    0x10000320:   00 00 00 00 00 00 00 00 00 00 00 00 00 00 00 00    ................
    0x10000330:   00 00 00 00 00 00 00 00 00 00 00 00 00 00 00 00    ................
    0x10000340:   00 00 00 00 00 00 00 00 00 00 00 00 00 00 00 00    ................
    0x10000350:   00 00 00 00 00 00 00 00 00 00 00 00 00 00 00 00    ................
    0x10000360:   00 00 00 00 00 00 00 00 00 00 00 00 00 00 00 00    ................
    0x10000370:   00 00 00 00 00 00 00 00 00 00 00 00 00 00 00 00    ................
    0x10000380:   00 00 00 00 00 00 00 00 00 00 00 00 00 00 00 00    ................
    0x10000390:   00 00 00 00 00 00 00 00 00 00 00 00 00 00 00 00    ................
    0x100003a0:   00 00 00 00 00 00 00 00 00 00 00 00 00 00 00 00    ................
    0x100003b0:   00 00 00 00 00 00 00 00 00 00 00 00 00 00 00 00    ................
    0x100003c0:   00 00 00 00 00 00 00 00 00 00 00 00 00 00 00 00    ................
    0x100003d0:   00 00 00 00 00 00 00 00 00 00 00 00 00 00 00 00    ................
    0x100003e0:   00 00 00 00 00 00 00 00 00 00 00 00 00 00 00 00    ................
    0x100003f0:   00 00 00 00 00 00 00 00 00 00 00 00 00 00 00 00    ................
    0x10000400:   00 00 00 00 00 00 00 00 00 00 00 00 00 00 00 00    ................
    0x10000410:   00 00 00 00 00 00 00 00 00 00 00 00 00 00 00 00    ................
    0x10000420:   00 00 00 00 00 00 00 00 00 00 00 00 00 00 00 00    ................
    0x10000430:   00 00 00 00 00 00 00 00 00 00 00 00 00 00 00 00    ................
    0x10000440:   00 00 00 00 00 00 00 00 00 00 00 00 00 00 00 00    ................
    0x10000450:   00 00 00 00 00 00 00 00 00 00 00 00 00 00 00 00    ................
    0x10000460:   00 00 00 00 00 00 00 00 00 00 00 00 00 00 00 00    ................
    0x10000470:   00 00 00 00 00 00 00 00 00 00 00 00 00 00 00 00    ................
    0x10000480:   00 00 00 00 00 00 00 00 00 00 00 00 00 00 00 00    ................
    0x10000490:   00 00 00 00 00 00 00 00 00 00 00 00 00 00 00 00    ................
    0x100004a0:   00 00 00 00 00 00 00 00 00 00 00 00 00 00 00 00    ................
    0x100004b0:   00 00 00 00 00 00 00 00 00 00 00 00 00 00 00 00    ................
    0x100004c0:   00 00 00 00 00 00 00 00 00 00 00 00 00 00 00 00    ................
    0x100004d0:   00 00 00 00 00 00 00 00 00 00 00 00 00 00 00 00    ................
    0x100004e0:   00 00 00 00 00 00 00 00 00 00 00 00 00 00 00 00    ................
    0x100004f0:   00 00 00 00 00 00 00 00 00 00 00 00 00 00 00 00    ................
    0x10000500:   00 00 00 00 00 00 00 00 00 00 00 00 00 00 00 00    ................
    0x10000510:   00 00 00 00 00 00 00 00 00 00 00 00 00 00 00 00    ................
    0x10000520:   00 00 00 00 00 00 00 00 00 00 00 00 00 00 00 00    ................
    0x10000530:   00 00 00 00 00 00 00 00 00 00 00 00 00 00 00 00    ................
    0x10000540:   00 00 00 00 00 00 00 00 00 00 00 00 00 00 00 00    ................
    0x10000550:   00 00 00 00 00 00 00 00 00 00 00 00 00 00 00 00    ................
    0x10000560:   00 00 00 00 00 00 00 00 00 00 00 00 00 00 00 00    ................
    0x10000570:   00 00 00 00 00 00 00 00 00 00 00 00 00 00 00 00    ................
    0x10000580:   00 00 00 00 00 00 00 00 00 00 00 00 00 00 00 00    ................
    0x10000590:   00 00 00 00 00 00 00 00 00 00 00 00 00 00 00 00    ................
    0x100005a0:   00 00 00 00 00 00 00 00 00 00 00 00 00 00 00 00    ................
    0x100005b0:   00 00 00 00 00 00 00 00 00 00 00 00 00 00 00 00    ................
    0x100005c0:   00 00 00 00 00 00 00 00 00 00 00 00 00 00 00 00    ................
    0x100005d0:   00 00 00 00 00 00 00 00 00 00 00 00 00 00 00 00    ................
    0x100005e0:   00 00 00 00 00 00 00 00 00 00 00 00 00 00 00 00    ................
    0x100005f0:   00 00 00 00 00 00 00 00 00 00 00 00 00 00 00 00    ................
    0x10000600:   00 00 00 00 00 00 00 00 00 00 00 00 00 00 00 00    ................
    0x10000610:   00 00 00 00 00 00 00 00 00 00 00 00 00 00 00 00    ................
    0x10000620:   00 00 00 00 00 00 00 00 00 00 00 00 00 00 00 00    ................
    0x10000630:   00 00 00 00 00 00 00 00 00 00 00 00 00 00 00 00    ................
    0x10000640:   00 00 00 00 00 00 00 00 00 00 00 00 00 00 00 00    ................
    0x10000650:   00 00 00 00 00 00 00 00 00 00 00 00 00 00 00 00    ................
    0x10000660:   00 00 00 00 00 00 00 00 00 00 00 00 00 00 00 00    ................
    0x10000670:   00 00 00 00 00 00 00 00 00 00 00 00 00 00 00 00    ................
    0x10000680:   00 00 00 00 00 00 00 00 00 00 00 00 00 00 00 00    ................
    0x10000690:   00 00 00 00 00 00 00 00 00 00 00 00 00 00 00 00    ................
    0x100006a0:   00 00 00 00 00 00 00 00 00 00 00 00 00 00 00 00    ................
    0x100006b0:   00 00 00 00 00 00 00 00 00 00 00 00 00 00 00 00    ................
    0x100006c0:   00 00 00 00 00 00 00 00 00 00 00 00 00 00 00 00    ................
    0x100006d0:   00 00 00 00 00 00 00 00 00 00 00 00 00 00 00 00    ................
    0x100006e0:   00 00 00 00 00 00 00 00 00 00 00 00 00 00 00 00    ................
    0x100006f0:   00 00 00 00 00 00 00 00 00 00 00 00 00 00 00 00    ................
    0x10000700:   00 00 00 00 00 00 00 00 00 00 00 00 00 00 00 00    ................
    0x10000710:   00 00 00 00 00 00 00 00 00 00 00 00 00 00 00 00    ................
    0x10000720:   00 00 00 00 00 00 00 00 00 00 00 00 00 00 00 00    ................
    0x10000730:   00 00 00 00 00 00 00 00 00 00 00 00 00 00 00 00    ................
    0x10000740:   00 00 00 00 00 00 00 00 00 00 00 00 00 00 00 00    ................
    0x10000750:   00 00 00 00 00 00 00 00 00 00 00 00 00 00 00 00    ................
    0x10000760:   00 00 00 00 00 00 00 00 00 00 00 00 00 00 00 00    ................
    0x10000770:   00 00 00 00 00 00 00 00 00 00 00 00 00 00 00 00    ................
    0x10000780:   00 00 00 00 00 00 00 00 00 00 00 00 00 00 00 00    ................
    0x10000790:   00 00 00 00 00 00 00 00 00 00 00 00 00 00 00 00    ................
    0x100007a0:   00 00 00 00 00 00 00 00 00 00 00 00 00 00 00 00    ................
    0x100007b0:   00 00 00 00 00 00 00 00 00 00 00 00 00 00 00 00    ................
    0x100007c0:   00 00 00 00 00 00 00 00 00 00 00 00 00 00 00 00    ................
    0x100007d0:   00 00 00 00 00 00 00 00 00 00 00 00 00 00 00 00    ................
    0x100007e0:   00 00 00 00 00 00 00 00 00 00 00 00 00 00 00 00    ................
    0x100007f0:   00 00 00 00 00 00 00 00 00 00 00 00 00 00 00 00    ................
    0x10000800:   00 00 00 00 00 00 00 00 00 00 00 00 00 00 00 00    ................
    0x10000810:   00 00 00 00 00 00 00 00 00 00 00 00 00 00 00 00    ................
    0x10000820:   00 00 00 00 00 00 00 00 00 00 00 00 00 00 00 00    ................
    0x10000830:   00 00 00 00 00 00 00 00 00 00 00 00 00 00 00 00    ................
    0x10000840:   00 00 00 00 00 00 00 00 00 00 00 00 00 00 00 00    ................
    0x10000850:   00 00 00 00 00 00 00 00 00 00 00 00 00 00 00 00    ................
    0x10000860:   00 00 00 00 00 00 00 00 00 00 00 00 00 00 00 00    ................
    0x10000870:   00 00 00 00 00 00 00 00 00 00 00 00 00 00 00 00    ................
    0x10000880:   00 00 00 00 00 00 00 00 00 00 00 00 00 00 00 00    ................
    0x10000890:   00 00 00 00 00 00 00 00 00 00 00 00 00 00 00 00    ................
    0x100008a0:   00 00 00 00 00 00 00 00 00 00 00 00 00 00 00 00    ................
    0x100008b0:   00 00 00 00 00 00 00 00 00 00 00 00 00 00 00 00    ................
    0x100008c0:   00 00 00 00 00 00 00 00 00 00 00 00 00 00 00 00    ................
    0x100008d0:   00 00 00 00 00 00 00 00 00 00 00 00 00 00 00 00    ................
    0x100008e0:   00 00 00 00 00 00 00 00 00 00 00 00 00 00 00 00    ................
    0x100008f0:   00 00 00 00 00 00 00 00 00 00 00 00 00 00 00 00    ................
    0x10000900:   00 00 00 00 00 00 00 00 00 00 00 00 00 00 00 00    ................
    0x10000910:   00 00 00 00 00 00 00 00 00 00 00 00 00 00 00 00    ................
    0x10000920:   00 00 00 00 00 00 00 00 00 00 00 00 00 00 00 00    ................
    0x10000930:   00 00 00 00 00 00 00 00 00 00 00 00 00 00 00 00    ................
    0x10000940:   00 00 00 00 00 00 00 00 00 00 00 00 00 00 00 00    ................
    0x10000950:   00 00 00 00 00 00 00 00 00 00 00 00 00 00 00 00    ................
    0x10000960:   00 00 00 00 00 00 00 00 00 00 00 00 00 00 00 00    ................
    0x10000970:   00 00 00 00 00 00 00 00 00 00 00 00 00 00 00 00    ................
    0x10000980:   00 00 00 00 00 00 00 00 00 00 00 00 00 00 00 00    ................
    0x10000990:   00 00 00 00 00 00 00 00 00 00 00 00 00 00 00 00    ................
    0x100009a0:   00 00 00 00 00 00 00 00 00 00 00 00 00 00 00 00    ................
    0x100009b0:   00 00 00 00 00 00 00 00 00 00 00 00 00 00 00 00    ................
    0x100009c0:   00 00 00 00 00 00 00 00 00 00 00 00 00 00 00 00    ................
    0x100009d0:   00 00 00 00 00 00 00 00 00 00 00 00 00 00 00 00    ................
    0x100009e0:   00 00 00 00 00 00 00 00 00 00 00 00 00 00 00 00    ................
    0x100009f0:   00 00 00 00 00 00 00 00 00 00 00 00 00 00 00 00    ................
    0x10000a00:   00 00 00 00 00 00 00 00 00 00 00 00 00 00 00 00    ................
    0x10000a10:   00 00 00 00 00 00 00 00 00 00 00 00 00 00 00 00    ................
    0x10000a20:   00 00 00 00 00 00 00 00 00 00 00 00 00 00 00 00    ................
    0x10000a30:   00 00 00 00 00 00 00 00 00 00 00 00 00 00 00 00    ................
    0x10000a40:   00 00 00 00 00 00 00 00 00 00 00 00 00 00 00 00    ................
    0x10000a50:   00 00 00 00 00 00 00 00 00 00 00 00 00 00 00 00    ................
    0x10000a60:   00 00 00 00 00 00 00 00 00 00 00 00 00 00 00 00    ................
    0x10000a70:   00 00 00 00 00 00 00 00 00 00 00 00 00 00 00 00    ................
    0x10000a80:   00 00 00 00 00 00 00 00 00 00 00 00 00 00 00 00    ................
    0x10000a90:   00 00 00 00 00 00 00 00 00 00 00 00 00 00 00 00    ................
    0x10000aa0:   00 00 00 00 00 00 00 00 00 00 00 00 00 00 00 00    ................
    0x10000ab0:   00 00 00 00 00 00 00 00 00 00 00 00 00 00 00 00    ................
    0x10000ac0:   00 00 00 00 00 00 00 00 00 00 00 00 00 00 00 00    ................
    0x10000ad0:   00 00 00 00 00 00 00 00 00 00 00 00 00 00 00 00    ................
    0x10000ae0:   00 00 00 00 00 00 00 00 00 00 00 00 00 00 00 00    ................
    0x10000af0:   00 00 00 00 00 00 00 00 00 00 00 00 00 00 00 00    ................
    0x10000b00:   00 00 00 00 00 00 00 00 00 00 00 00 00 00 00 00    ................
    0x10000b10:   00 00 00 00 00 00 00 00 00 00 00 00 00 00 00 00    ................
    0x10000b20:   00 00 00 00 00 00 00 00 00 00 00 00 00 00 00 00    ................
    0x10000b30:   00 00 00 00 00 00 00 00 00 00 00 00 00 00 00 00    ................
    0x10000b40:   00 00 00 00 00 00 00 00 00 00 00 00 00 00 00 00    ................
    0x10000b50:   00 00 00 00 00 00 00 00 00 00 00 00 00 00 00 00    ................
    0x10000b60:   00 00 00 00 00 00 00 00 00 00 00 00 00 00 00 00    ................
    0x10000b70:   00 00 00 00 00 00 00 00 00 00 00 00 00 00 00 00    ................
    0x10000b80:   00 00 00 00 00 00 00 00 00 00 00 00 00 00 00 00    ................
    0x10000b90:   00 00 00 00 00 00 00 00 00 00 00 00 00 00 00 00    ................
    0x10000ba0:   00 00 00 00 00 00 00 00 00 00 00 00 00 00 00 00    ................
    0x10000bb0:   00 00 00 00 00 00 00 00 00 00 00 00 00 00 00 00    ................
    0x10000bc0:   00 00 00 00 00 00 00 00 00 00 00 00 00 00 00 00    ................
    0x10000bd0:   00 00 00 00 00 00 00 00 00 00 00 00 00 00 00 00    ................
    0x10000be0:   00 00 00 00 00 00 00 00 00 00 00 00 00 00 00 00    ................
    0x10000bf0:   00 00 00 00 00 00 00 00 00 00 00 00 00 00 00 00    ................
    0x10000c00:   00 00 00 00 00 00 00 00 00 00 00 00 00 00 00 00    ................
    0x10000c10:   00 00 00 00 00 00 00 00 00 00 00 00 00 00 00 00    ................
    0x10000c20:   00 00 00 00 00 00 00 00 00 00 00 00 00 00 00 00    ................
    0x10000c30:   00 00 00 00 00 00 00 00 00 00 00 00 00 00 00 00    ................
    0x10000c40:   00 00 00 00 00 00 00 00 00 00 00 00 00 00 00 00    ................
    0x10000c50:   00 00 00 00 00 00 00 00 00 00 00 00 00 00 00 00    ................
    0x10000c60:   00 00 00 00 00 00 00 00 00 00 00 00 00 00 00 00    ................
    0x10000c70:   00 00 00 00 00 00 00 00 00 00 00 00 00 00 00 00    ................
    0x10000c80:   00 00 00 00 00 00 00 00 00 00 00 00 00 00 00 00    ................
    0x10000c90:   00 00 00 00 00 00 00 00 00 00 00 00 00 00 00 00    ................
    0x10000ca0:   00 00 00 00 00 00 00 00 00 00 00 00 00 00 00 00    ................
    0x10000cb0:   00 00 00 00 00 00 00 00 00 00 00 00 00 00 00 00    ................
    0x10000cc0:   00 00 00 00 00 00 00 00 00 00 00 00 00 00 00 00    ................
    0x10000cd0:   00 00 00 00 00 00 00 00 00 00 00 00 00 00 00 00    ................
    0x10000ce0:   00 00 00 00 00 00 00 00 00 00 00 00 00 00 00 00    ................
    0x10000cf0:   00 00 00 00 00 00 00 00 00 00 00 00 00 00 00 00    ................
    0x10000d00:   00 00 00 00 00 00 00 00 00 00 00 00 00 00 00 00    ................
    0x10000d10:   00 00 00 00 00 00 00 00 00 00 00 00 00 00 00 00    ................
    0x10000d20:   00 00 00 00 00 00 00 00 00 00 00 00 00 00 00 00    ................
    0x10000d30:   00 00 00 00 00 00 00 00 00 00 00 00 00 00 00 00    ................
    0x10000d40:   00 00 00 00 00 00 00 00 00 00 00 00 00 00 00 00    ................
    0x10000d50:   00 00 00 00 00 00 00 00 00 00 00 00 00 00 00 00    ................
    0x10000d60:   00 00 00 00 00 00 00 00 00 00 00 00 00 00 00 00    ................
    0x10000d70:   00 00 00 00 00 00 00 00 00 00 00 00 00 00 00 00    ................
    0x10000d80:   00 00 00 00 00 00 00 00 00 00 00 00 00 00 00 00    ................
    0x10000d90:   00 00 00 00 00 00 00 00 00 00 00 00 00 00 00 00    ................
    0x10000da0:   00 00 00 00 00 00 00 00 00 00 00 00 00 00 00 00    ................
    0x10000db0:   00 00 00 00 00 00 00 00 00 00 00 00 00 00 00 00    ................
    0x10000dc0:   00 00 00 00 00 00 00 00 00 00 00 00 00 00 00 00    ................
    0x10000dd0:   00 00 00 00 00 00 00 00 00 00 00 00 00 00 00 00    ................
    0x10000de0:   00 00 00 00 00 00 00 00 00 00 00 00 00 00 00 00    ................
    0x10000df0:   00 00 00 00 00 00 00 00 00 00 00 00 00 00 00 00    ................
    0x10000e00:   00 00 00 00 00 00 00 00 00 00 00 00 00 00 00 00    ................
    0x10000e10:   00 00 00 00 00 00 00 00 00 00 00 00 00 00 00 00    ................
    0x10000e20:   00 00 00 00 00 00 00 00 00 00 00 00 00 00 00 00    ................
    0x10000e30:   00 00 00 00 00 00 00 00 00 00 00 00 00 00 00 00    ................
    0x10000e40:   00 00 00 00 00 00 00 00 00 00 00 00 00 00 00 00    ................
    0x10000e50:   00 00 00 00 00 00 00 00 00 00 00 00 00 00 00 00    ................
    0x10000e60:   00 00 00 00 00 00 00 00 00 00 00 00 00 00 00 00    ................
    0x10000e70:   00 00 00 00 00 00 00 00 00 00 00 00 00 00 00 00    ................
    0x10000e80:   00 00 00 00 00 00 00 00 00 00 00 00 00 00 00 00    ................
    0x10000e90:   00 00 00 00 00 00 00 00 00 00 00 00 00 00 00 00    ................
    0x10000ea0:   00 00 00 00 00 00 00 00 00 00 00 00 00 00 00 00    ................
    0x10000eb0:   00 00 00 00 00 00 00 00 00 00 00 00 00 00 00 00    ................
    0x10000ec0:   00 00 00 00 00 00 00 00 00 00 00 00 00 00 00 00    ................
    0x10000ed0:   00 00 00 00 00 00 00 00 00 00 00 00 00 00 00 00    ................
    0x10000ee0:   00 00 00 00 00 00 00 00 00 00 00 00 00 00 00 00    ................
    0x10000ef0:   00 00 00 00 00 00 00 00 00 00 00 00 00 00 00 00    ................
    0x10000f00:   00 00 00 00 00 00 00 00 00 00 00 00 00 00 00 00    ................
    0x10000f10:   00 00 00 00 00 00 00 00 00 00 00 00 00 00 00 00    ................
    0x10000f20:   00 00 00 00 00 00 00 00 00 00 00 00 00 00 00 00    ................
    0x10000f30:   00 00 00 00 00 00 00 00 00 00 00 00 00 00 00 00    ................
    0x10000f40:   00 00 00 00 00 00 00 00 00 00 00 00 00 00 00 00    ................
    0x10000f50:   00 00 00 00 00 00 00 00 00 00 00 00 00 00 00 00    ................
    0x10000f60:   00 00 00 00 00 00 00 00 00 00 00 00 00 00 00 00    ................
    0x10000f70:   00 00 00 00 00 00 00 00 00 00 00 00 00 00 00 00    ................
    0x10000f80:   00 00 00 00 00 00 00 00 00 00 00 00 00 00 00 00    ................
    0x10000f90:   00 00 00 00 00 00 00 00 00 00 00 00 00 00 00 00    ................
    0x10000fa0:   00 00 00 00 00 00 00 00 00 00 00 00 00 00 00 00    ................
    0x10000fb0:   00 00 00 00 00 00 00 00 00 00 00 00 00 00 00 00    ................
    0x10000fc0:   00 00 00 00 00 00 00 00 00 00 00 00 00 00 00 00    ................
    0x10000fd0:   00 00 00 00 00 00 00 00 00 00 00 00 00 00 00 00    ................
    0x10000fe0:   00 00 00 00 00 00 00 00 00 00 00 00 00 00 00 00    ................
    0x10000ff0:   00 00 00 00 00 00 00 00 00 00 00 00 00 00 00 00    ................


** Section #3 'MCU_TCM' (SHT_NOBITS) [SHF_ALLOC + SHF_WRITE]
    Size   : 21248 bytes (alignment 4096)
    Address: 0x10001000


** Section #4 'SHARED_SRAM' (SHT_PROGBITS) [SHF_ALLOC + SHF_WRITE]
    Size   : 64 bytes (alignment 4)
    Address: 0x10060000

    0x10060000:   c0 cb 01 00 00 00 00 00 00 00 00 00 00 00 00 00    ................
    0x10060010:   00 00 00 00 00 00 00 00 00 00 00 00 00 00 00 00    ................
    0x10060020:   00 00 00 00 00 00 00 00 00 00 00 00 00 00 00 00    ................
    0x10060030:   00 00 00 00 00 00 00 00 00 00 00 00 00 00 00 00    ................


** Section #5 '.debug_abbrev' (SHT_PROGBITS)
    Size   : 1351 bytes


** Section #6 '.debug_frame' (SHT_PROGBITS)
    Size   : 6760 bytes


** Section #7 '.debug_info' (SHT_PROGBITS)
    Size   : 91857 bytes


** Section #8 '.debug_line' (SHT_PROGBITS)
    Size   : 6042 bytes


** Section #9 '.debug_str' (SHT_PROGBITS)
    Size   : 33986 bytes


** Section #10 '.debug_ranges' (SHT_PROGBITS)
    Size   : 288 bytes


** Section #11 '.symtab' (SHT_SYMTAB)
    Size   : 9264 bytes (alignment 4)
    String table #12 '.strtab'
    Last local symbol no. 277

    Symbol table .symtab (578 symbols, 277 local)

      #  Symbol Name                Value      Bind  Sec  Type  Vis  Size
    ========================================================================

      1  $d                         0x00018000   Lc    1   --   De 
      2  $t                         0x00018200   Lc    1   --   De 
      3  $d                         0x00018230   Lc    1   --   De 
      4  $t                         0x00018234   Lc    1   --   De 
      5  $d                         0x00018268   Lc    1   --   De 
      6  $t                         0x00018270   Lc    1   --   De 
      7  $d                         0x0001833a   Lc    1   --   De 
      8  $t                         0x00018348   Lc    1   --   De 
      9  $d                         0x00018440   Lc    1   --   De 
     10  $t                         0x00018444   Lc    1   --   De 
     11  $d                         0x0001844c   Lc    1   --   De 
     12  $t                         0x00018450   Lc    1   --   De 
     13  $t.0                       0x00018454   Lc    1   --   De 
     14  $d.4                       0x00018474   Lc    1   --   De 
     15  $t.27                      0x00018478   Lc    1   --   De 
     16  $d.2                       0x000195f4   Lc    1   --   De 
     17  $t.5                       0x00019604   Lc    1   --   De 
     18  $d.6                       0x00019612   Lc    1   --   De 
     19  $t.7                       0x00019618   Lc    1   --   De 
     20  $d.23                      0x0001983c   Lc    1   --   De 
     21  $t.24                      0x00019840   Lc    1   --   De 
     22  $d.5                       0x00019d9c   Lc    1   --   De 
     23  $t.6                       0x00019da4   Lc    1   --   De 
     24  $d.9                       0x00019ffe   Lc    1   --   De 
     25  $t.10                      0x0001a002   Lc    1   --   De 
     26  $d.4                       0x0001b506   Lc    1   --   De 
     27  $t.5                       0x0001b56c   Lc    1   --   De 
     28  $d.1                       0x0001c55e   Lc    1   --   De 
     29  $t.2                       0x0001c56e   Lc    1   --   De 
     30  $t                         0x0001c7e0   Lc    1   --   De 
     31  $d                         0x0001c830   Lc    1   --   De 
     32  $t                         0x0001c834   Lc    1   --   De 
     33  $d                         0x0001c8b2   Lc    1   --   De 
     34  $t                         0x0001c8b6   Lc    1   --   De 
     35  $d.realdata                0x0001c902   Lc    1   --   De 
     36  $d.realdata                0x10000000   Lc    2   --   De 
     37  $d.realdata                0x10060000   Lc    4   --   De 
     38  am_resources.c             0x00000000   Lc  Abs  File  De 
     39  __tagsym$$used.0           0x0001cde4   Lc    1   --   De 
     40  __tagsym$$used.1           0x0001cdbc   Lc    1   --   De 
     41  __tagsym$$used.2           0x0001cdd0   Lc    1   --   De 
     42  __tagsym$$used.3           0x0001cdf8   Lc    1   --   De 
     43  __tagsym$$used.4           0x10060004   Lc    4   --   De 
     44  __tagsym$$used.5           0x10060018   Lc    4   --   De 
     45  __tagsym$$used.6           0x1006002c   Lc    4   --   De 
     46  __tagsym$$used.7           0x0001cbc0   Lc    1   --   De 
     47  __tagsym$$used.8           0x10060000   Lc    4   --   De 
     48  emmc_raw_block_read_write.c
                                    0x00000000   Lc  Abs  File  De 
     49  .L.str                     0x0001cbdc   Lc    1  Data  De   0x1b
     50  .L.str.15                  0x0001cbdc   Lc    1  Data  De   0x3f
     51  .L.str.1                   0x0001cbf7   Lc    1  Data  De   0x1c
     52  .L.str.2                   0x0001cc13   Lc    1  Data  De   0x1b
     53  .L.str.14                  0x0001cc1b   Lc    1  Data  De   0x45
     54  .L.str.3                   0x0001cc2e   Lc    1  Data  De   0x1c
     55  .L.str.4                   0x0001cc4a   Lc    1  Data  De   0x14
     56  .L.str.5                   0x0001cc5e   Lc    1  Data  De   0x14
     57  .L.str.16                  0x0001cc60   Lc    1  Data  De   0x41
     58  .L.str.6                   0x0001cca1   Lc    1  Data  De   0x2b
     59  .L.str.7                   0x0001cccc   Lc    1  Data  De   0xe
     60  .L.str.13                  0x0001ccda   Lc    1  Data  De   0x16
     61  .L.str.9                   0x0001ccf0   Lc    1  Data  De   0x14
     62  .L.str.17                  0x0001cd04   Lc    1  Data  De   0x14
     63  .L.str.19                  0x0001cd18   Lc    1  Data  De   0x17
     64  .L.str.11                  0x0001cd2f   Lc    1  Data  De   0x25
     65  .L.str.12                  0x0001cd54   Lc    1  Data  De   0x1d
     66  .L.str.8                   0x0001cd71   Lc    1  Data  De   0x1c
     67  .L.str.18                  0x0001cd8d   Lc    1  Data  De   0x14
     68  .L.str.10                  0x0001cda1   Lc    1  Data  De   0x18
     69  am_util_debug.c            0x00000000   Lc  Abs  File  De 
     70  am_util_delay.c            0x00000000   Lc  Abs  File  De 
     71  am_util_faultisr.c         0x00000000   Lc  Abs  File  De 
     72  am_util_id.c               0x00000000   Lc  Abs  File  De 
     73  am_util_stdio.c            0x00000000   Lc  Abs  File  De 
     74  decstr_to_int              0x0001bc5d   Lc    1  Code  De   0xa6
     75  simple_strlen              0x0001c4f9   Lc    1  Code  De   0x36
     76  padbuffer                  0x0001c4a9   Lc    1  Code  De   0x50
     77  ndigits_in_hex             0x0001c3fd   Lc    1  Code  De   0x3e
     78  uint64_to_hexstr           0x0001c699   Lc    1  Code  De   0xc0
     79  ndigits_in_u64             0x0001c46d   Lc    1  Code  De   0x3c
     80  uint64_to_str              0x0001c759   Lc    1  Code  De   0x88
     81  ndigits_in_i64             0x0001c43d   Lc    1  Code  De   0x30
     82  ftoa                       0x0001be1d   Lc    1  Code  De   0x230
     83  divu64_10                  0x0001bd05   Lc    1  Code  De   0x118
     84  g_bTxtXlate                0x10001380   Lc    3  Data  De   0x1
     85  g_prfbuf                   0x10001388   Lc    3  Data  De   0x400
     86  ../keil6/startup_keil6.s   0x00000000   Lc  Abs  File  De 
     87  STACK                      0x10003800   Lc    3  Sect  De   0x2b00
     88  StackMem                   0x10003800   Lc    3  Data  De 
     89  HEAP                       0x10003800   Lc    3  Sect  De 
     90  HeapMem                    0x10003800   Lc    3  Data  De 
     91  RESET                      0x00018000   Lc    1  Sect  De   0x234
     92  $v0                        0x00018200   Lc    1   --   De 
     93  am_cryptosec_isr           0x0001822f   Lc    1  Code  De 
     94  am_default_isr             0x0001822f   Lc    1  Code  De   0x2
     95  .text                      0x00018330   Lc    1  Sect  De   0x18
     96  $v0                        0x00018330   Lc    1   --   De 
     97  am_bsp.c                   0x00000000   Lc  Abs  File  De 
     98  g_ePrintInterface          0x10001382   Lc    3  Data  De   0x1
     99  am_hal_card.c              0x00000000   Lc  Abs  File  De 
    100  am_hal_card_pwr_notification
                                    0x00018dd3   Lc    1  Code  De   0x5a
    101  am_hal_sdmmc_cmd5          0x0001ac67   Lc    1  Code  De   0x5c
    102  am_hal_sdmmc_cmd7_card_select
                                    0x0001acc3   Lc    1  Code  De   0x4a
    103  am_hal_card_set_bus_width  0x00018fa9   Lc    1  Code  De   0x84
    104  am_hal_card_set_speed      0x0001902d   Lc    1  Code  De   0x9a
    105  am_hal_card_block_rw       0x000186ed   Lc    1  Code  De   0x102
    106  am_hal_sdmmc_cmd8_send_ext_csd
                                    0x0001ad0d   Lc    1  Code  De   0x62
    107  am_hal_card_host.c         0x00000000   Lc  Abs  File  De 
    108  am_hal_sdhc_host_init      0x0001a65b   Lc    1  Code  De   0x4a
    109  am_hal_sdhc_host_deinit    0x0001a60b   Lc    1  Code  De   0x28
    110  am_hal_card_host_power_control
                                    0x000189af   Lc    1  Code  De   0xa
    111  am_hal_sdhc_host_execute_cmd
                                    0x0001a635   Lc    1  Code  De   0x26
    112  g_sdhc_card_host           0x100001b0   Lc    2  Data  De   0x68
    113  g_sdhc_host_ops            0x10000218   Lc    2  Data  De   0x2c
    114  am_hal_fault.c             0x00000000   Lc  Abs  File  De 
    115  am_hal_interrupt.c         0x00000000   Lc  Abs  File  De 
    116  am_hal_mcuctrl.c           0x00000000   Lc  Abs  File  De 
    117  am_hal_sdhc.c              0x00000000   Lc  Abs  File  De 
    118  am_hal_sdhc_software_reset 0x0001ac2d   Lc    1  Code  De   0x3a
    119  am_hal_sdhc_pio_xfer_data  0x0001a865   Lc    1  Code  De   0x7c
    120  g_SDHCState                0x1000132c   Lc    3  Data  De   0x54
    121  adma_desc_table            0x100010a0   Lc    3  Data  De   0x80
    122  am_hal_utils.c             0x00000000   Lc  Abs  File  De 
    123  am_hal_gpio.c              0x00000000   Lc  Abs  File  De 
    124  g_ui32DSpintbl             0x000195f4   Lc    1   --   De 
    125  am_bsp_pins.c              0x00000000   Lc  Abs  File  De 
    126  am_hal_bootrom_helper.c    0x00000000   Lc  Abs  File  De 
    127  am_hal_cachectrl.c         0x00000000   Lc  Abs  File  De 
    128  gAxiMemRange               0x0001cb2c   Lc    1  Data  De   0x60
    129  ui32AxiBufPwrStatReg       0x100017f8   Lc    3  Data  De   0x4
    130  ui32AxiBufPwrStatMask      0x100017f4   Lc    3  Data  De   0x4
    131  p64BAxiMem                 0x100017dc   Lc    3  Data  De   0x4
    132  am_hal_itm.c               0x00000000   Lc  Abs  File  De 
    133  am_hal_rtc.c               0x00000000   Lc  Abs  File  De 
    134  am_hal_tpiu.c              0x00000000   Lc  Abs  File  De 
    135  am_hal_uart.c              0x00000000   Lc  Abs  File  De 
    136  am_hal_dcu.c               0x00000000   Lc  Abs  File  De 
    137  am_hal_pin.c               0x00000000   Lc  Abs  File  De 
    138  am_hal_pwrctrl.c           0x00000000   Lc  Abs  File  De 
    139  VDDF_simobuck_boost        0x000184b1   Lc    1  Code  De   0xd4
    140  buck_interval_check        0x0001ba55   Lc    1  Code  De   0x136
    141  TrimVersionGet             0x00018479   Lc    1  Code  De   0x38
    142  storeAndWFIRAM             0x10000270   Lc    2  Data  De   0x20
    143  am_hal_mram.c              0x00000000   Lc  Abs  File  De 
    144  g_program_mram_tmc_tcycrd  0x10000038   Lc    2  Data  De   0xbc
    145  g_recover_broken_mram_tmc_r_timer1
                                    0x100000f4   Lc    2  Data  De   0xbc
    146  am_hal_mspi.c              0x00000000   Lc  Abs  File  De 
    147  am_hal_queue.c             0x00000000   Lc  Abs  File  De 
    148  am_hal_timer.c             0x00000000   Lc  Abs  File  De 
    149  TimerFlags                 0x10001060   Lc    3  Data  De   0x40
    150  am_hal_cmdq.c              0x00000000   Lc  Abs  File  De 
    151  am_hal_global.c            0x00000000   Lc  Abs  File  De 
    152  dc.s                       0x00000000   Lc  Abs  File  De 
    153  ../clib/memcpset.s         0x00000000   Lc  Abs  File  De 
    154  ../clib/memcpset.s         0x00000000   Lc  Abs  File  De 
    155  .text                      0x00018348   Lc    1  Sect  De   0x44
    156  ../clib/memcpset.s         0x00000000   Lc  Abs  File  De 
    157  .text                      0x0001838c   Lc    1  Sect  De   0x4e
    158  ../clib/heapaux.c          0x00000000   Lc  Abs  File  De 
    159  .text                      0x000183da   Lc    1  Sect  De 
    160  ../clib/angel/startup.s    0x00000000   Lc  Abs  File  De 
    161  !!!main                    0x00018234   Lc    1  Sect  De   0x8
    162  ../clib/angel/handlers.s   0x00000000   Lc  Abs  File  De 
    163  !!handler_copy             0x000182cc   Lc    1  Sect  De   0x1a
    164  ../fplib/d2f.s             0x00000000   Lc  Abs  File  De 
    165  x$fpl$d2f                  0x0001c7e0   Lc    1  Sect  De   0x62
    166  $v0                        0x0001c7e0   Lc    1   --   De 
    167  ../clib/angel/kernel.s     0x00000000   Lc  Abs  File  De 
    168  .ARM.Collect$$rtentry$$00000000
                                    0x00018310   Lc    1  Sect  De 
    169  ../clib/memcpset.s         0x00000000   Lc  Abs  File  De 
    170  ../fplib/dnaninf.s         0x00000000   Lc  Abs  File  De 
    171  x$fpl$dnaninf              0x0001c842   Lc    1  Sect  De   0x9c
    172  $v0                        0x0001c842   Lc    1   --   De 
    173  ../fplib/fretinf.s         0x00000000   Lc  Abs  File  De 
    174  x$fpl$fretinf              0x0001c8f8   Lc    1  Sect  De   0xa
    175  $v0                        0x0001c8f8   Lc    1   --   De 
    176  ../fplib/usenofp.s         0x00000000   Lc  Abs  File  De 
    177  x$fpl$usenofp              0x0001c902   Lc    1  Sect  De 
    178  ../clib/angel/kernel.s     0x00000000   Lc  Abs  File  De 
    179  .ARM.Collect$$rtentry$$00000002
                                    0x00018310   Lc    1  Sect  De 
    180  .ARM.Collect$$rtentry$$00000009
                                    0x00018316   Lc    1  Sect  De 
    181  .ARM.Collect$$rtentry$$0000000A
                                    0x00018316   Lc    1  Sect  De   0x4
    182  .ARM.Collect$$rtentry$$0000000C
                                    0x0001831a   Lc    1  Sect  De 
    183  .ARM.Collect$$rtentry$$0000000D
                                    0x0001831a   Lc    1  Sect  De   0x8
    184  ../clib/angel/kernel.s     0x00000000   Lc  Abs  File  De 
    185  .ARM.Collect$$rtentry$$00000004
                                    0x00018310   Lc    1  Sect  De   0x6
    186  ../clib/angel/sys.s        0x00000000   Lc  Abs  File  De 
    187  .text                      0x000183e0   Lc    1  Sect  De   0x4a
    188  ../clib/stdlib.c           0x00000000   Lc  Abs  File  De 
    189  .text                      0x0001842a   Lc    1  Sect  De 
    190  ../clib/angel/boardlib.s   0x00000000   Lc  Abs  File  De 
    191  ../clib/angel/boardlib.s   0x00000000   Lc  Abs  File  De 
    192  ../clib/angel/boardlib.s   0x00000000   Lc  Abs  File  De 
    193  ../clib/libinit.s          0x00000000   Lc  Abs  File  De 
    194  .ARM.Collect$$libinit$$00000000
                                    0x00018304   Lc    1  Sect  De   0x2
    195  ../clib/angel/sys.s        0x00000000   Lc  Abs  File  De 
    196  .text                      0x0001843c   Lc    1  Sect  De   0x8
    197  .bss                       0x10001000   Lc    3  Sect  De   0x60
    198  ../clib/angel/kernel.s     0x00000000   Lc  Abs  File  De 
    199  .ARM.Collect$$rtexit$$00000000
                                    0x00018322   Lc    1  Sect  De   0x2
    200  ../clib/libinit.s          0x00000000   Lc  Abs  File  De 
    201  .ARM.Collect$$libinit$$00000001
                                    0x00018306   Lc    1  Sect  De   0x4
    202  .ARM.Collect$$libinit$$00000004
                                    0x0001830a   Lc    1  Sect  De 
    203  .ARM.Collect$$libinit$$0000000A
                                    0x0001830a   Lc    1  Sect  De 
    204  .ARM.Collect$$libinit$$0000000C
                                    0x0001830a   Lc    1  Sect  De 
    205  .ARM.Collect$$libinit$$0000000E
                                    0x0001830a   Lc    1  Sect  De 
    206  .ARM.Collect$$libinit$$00000011
                                    0x0001830a   Lc    1  Sect  De 
    207  .ARM.Collect$$libinit$$00000013
                                    0x0001830a   Lc    1  Sect  De 
    208  .ARM.Collect$$libinit$$00000015
                                    0x0001830a   Lc    1  Sect  De 
    209  .ARM.Collect$$libinit$$00000017
                                    0x0001830a   Lc    1  Sect  De 
    210  .ARM.Collect$$libinit$$00000019
                                    0x0001830a   Lc    1  Sect  De 
    211  .ARM.Collect$$libinit$$0000001B
                                    0x0001830a   Lc    1  Sect  De 
    212  .ARM.Collect$$libinit$$0000001D
                                    0x0001830a   Lc    1  Sect  De 
    213  .ARM.Collect$$libinit$$0000001F
                                    0x0001830a   Lc    1  Sect  De 
    214  .ARM.Collect$$libinit$$00000021
                                    0x0001830a   Lc    1  Sect  De 
    215  .ARM.Collect$$libinit$$00000023
                                    0x0001830a   Lc    1  Sect  De 
    216  .ARM.Collect$$libinit$$00000025
                                    0x0001830a   Lc    1  Sect  De 
    217  .ARM.Collect$$libinit$$0000002C
                                    0x0001830a   Lc    1  Sect  De 
    218  .ARM.Collect$$libinit$$0000002E
                                    0x0001830a   Lc    1  Sect  De 
    219  .ARM.Collect$$libinit$$00000030
                                    0x0001830a   Lc    1  Sect  De 
    220  .ARM.Collect$$libinit$$00000032
                                    0x0001830a   Lc    1  Sect  De 
    221  .ARM.Collect$$libinit$$00000033
                                    0x0001830a   Lc    1  Sect  De   0x2
    222  ../clib/angel/kernel.s     0x00000000   Lc  Abs  File  De 
    223  .ARM.Collect$$rtexit$$00000002
                                    0x00018324   Lc    1  Sect  De 
    224  .ARM.Collect$$rtexit$$00000003
                                    0x00018324   Lc    1  Sect  De   0x4
    225  .ARM.Collect$$rtexit$$00000004
                                    0x00018328   Lc    1  Sect  De   0x6
    226  ../clib/armsys.c           0x00000000   Lc  Abs  File  De 
    227  ../clib/armsys.c           0x00000000   Lc  Abs  File  De 
    228  ../fplib/fpinit.s          0x00000000   Lc  Abs  File  De 
    229  x$fpl$fpinit               0x0001c8de   Lc    1  Sect  De   0x1a
    230  $v0                        0x0001c8de   Lc    1   --   De 
    231  ../clib/angel/sysapp.c     0x00000000   Lc  Abs  File  De 
    232  .text                      0x00018444   Lc    1  Sect  De 
    233  ../clib/angel/sysapp.c     0x00000000   Lc  Abs  File  De 
    234  ../clib/angel/boardlib.s   0x00000000   Lc  Abs  File  De 
    235  ../clib/armsys.c           0x00000000   Lc  Abs  File  De 
    236  ../clib/armsys.c           0x00000000   Lc  Abs  File  De 
    237  ../clib/libinit.s          0x00000000   Lc  Abs  File  De 
    238  .ARM.Collect$$libshutdown$$00000000
                                    0x0001830c   Lc    1  Sect  De   0x2
    239  ../clib/angel/sysapp.c     0x00000000   Lc  Abs  File  De 
    240  ../clib/angel/sysapp.c     0x00000000   Lc  Abs  File  De 
    241  ../clib/angel/sys.s        0x00000000   Lc  Abs  File  De 
    242  .text                      0x00018450   Lc    1  Sect  De   0x2
    243  ../clib/angel/sys.s        0x00000000   Lc  Abs  File  De 
    244  .text                      0x00018452   Lc    1  Sect  De 
    245  ../clib/heapalloc.c        0x00000000   Lc  Abs  File  De 
    246  ../clib/signal.c           0x00000000   Lc  Abs  File  De 
    247  ../clib/signal.c           0x00000000   Lc  Abs  File  De 
    248  ../clib/libinit.s          0x00000000   Lc  Abs  File  De 
    249  .ARM.Collect$$libshutdown$$00000002
                                    0x0001830e   Lc    1  Sect  De 
    250  .ARM.Collect$$libshutdown$$00000004
                                    0x0001830e   Lc    1  Sect  De 
    251  .ARM.Collect$$libshutdown$$00000007
                                    0x0001830e   Lc    1  Sect  De 
    252  .ARM.Collect$$libshutdown$$0000000A
                                    0x0001830e   Lc    1  Sect  De 
    253  .ARM.Collect$$libshutdown$$0000000C
                                    0x0001830e   Lc    1  Sect  De 
    254  .ARM.Collect$$libshutdown$$0000000F
                                    0x0001830e   Lc    1  Sect  De 
    255  .ARM.Collect$$libshutdown$$00000010
                                    0x0001830e   Lc    1  Sect  De   0x2
    256  ../clib/angel/rt.s         0x00000000   Lc  Abs  File  De 
    257  ../clib/signal.c           0x00000000   Lc  Abs  File  De 
    258  ../clib/signal.c           0x00000000   Lc  Abs  File  De 
    259  ../clib/signal.c           0x00000000   Lc  Abs  File  De 
    260  ../clib/signal.c           0x00000000   Lc  Abs  File  De 
    261  ../clib/angel/sysapp.c     0x00000000   Lc  Abs  File  De 
    262  ../clib/angel/sysapp.c     0x00000000   Lc  Abs  File  De 
    263  ../clib/signal.s           0x00000000   Lc  Abs  File  De 
    264  ../clib/signal.c           0x00000000   Lc  Abs  File  De 
    265  ../clib/signal.c           0x00000000   Lc  Abs  File  De 
    266  ../clib/signal.c           0x00000000   Lc  Abs  File  De 
    267  ../clib/signal.c           0x00000000   Lc  Abs  File  De 
    268  ../clib/signal.c           0x00000000   Lc  Abs  File  De 
    269  ../clib/signal.c           0x00000000   Lc  Abs  File  De 
    270  ../clib/signal.c           0x00000000   Lc  Abs  File  De 
    271  ../clib/signal.c           0x00000000   Lc  Abs  File  De 
    272  ../clib/angel/dczerorl2.s  0x00000000   Lc  Abs  File  De 
    273  !!dczerorl2                0x00018270   Lc    1  Sect  De   0x5a
    274  ../clib/angel/scatter.s    0x00000000   Lc  Abs  File  De 
    275  !!!scatter                 0x0001823c   Lc    1  Sect  De   0x34
    276  ../clib/angel/handlers.s   0x00000000   Lc  Abs  File  De 
    277  !!handler_zi               0x000182e8   Lc    1  Sect  De   0x1c
    278  BuildAttributes$$THM_ISAv4$E$P$D$K$B$S$7EM$VFPi3$EXTD16$VFPS$VFMA$PE$A:L22UL41UL21$X:L11$S22US41US21$IEEE1$IW$~IW$USESV6$~STKCKD$USESV7$~SHL$OSPACE$ROPI$EBA8$UX$STANDARDLIB$REQ8$PRES8$EABIv2
                                    0x00000000   Gb  Abs   --   Hi 
    279  __Vectors                  0x00018000   Gb    1  Data  Hi 
    280  __Patchable                0x00018190   Gb    1  Data  Hi 
    281  Reset_Handler              0x00018201   Wk    1  Code  Hi   0x1c
    282  NMI_Handler                0x0001821f   Wk    1  Code  Hi   0x2
    283  MemManage_Handler          0x00018221   Wk    1  Code  Hi   0x2
    284  BusFault_Handler           0x00018223   Wk    1  Code  Hi   0x2
    285  UsageFault_Handler         0x00018225   Wk    1  Code  Hi   0x2
    286  SVC_Handler                0x00018227   Wk    1  Code  Hi   0x2
    287  DebugMon_Handler           0x00018229   Wk    1  Code  Hi   0x2
    288  PendSV_Handler             0x0001822b   Wk    1  Code  Hi   0x2
    289  SysTick_Handler            0x0001822d   Wk    1  Code  Hi   0x2
    290  am_adc_isr                 0x0001822f   Wk    1  Code  Hi 
    291  am_audadc0_isr             0x0001822f   Wk    1  Code  Hi 
    292  am_brownout_isr            0x0001822f   Wk    1  Code  Hi 
    293  am_cachecpu_isr            0x0001822f   Wk    1  Code  Hi 
    294  am_clkgen_isr              0x0001822f   Wk    1  Code  Hi 
    295  am_ctimer_isr              0x0001822f   Wk    1  Code  Hi 
    296  am_disp_isr                0x0001822f   Wk    1  Code  Hi 
    297  am_dsi_isr                 0x0001822f   Wk    1  Code  Hi 
    298  am_dspi2s0_isr             0x0001822f   Wk    1  Code  Hi 
    299  am_dspi2s1_isr             0x0001822f   Wk    1  Code  Hi 
    300  am_dspi2s2_isr             0x0001822f   Wk    1  Code  Hi 
    301  am_dspi2s3_isr             0x0001822f   Wk    1  Code  Hi 
    302  am_gpio0_001f_isr          0x0001822f   Wk    1  Code  Hi 
    303  am_gpio0_203f_isr          0x0001822f   Wk    1  Code  Hi 
    304  am_gpio0_405f_isr          0x0001822f   Wk    1  Code  Hi 
    305  am_gpio0_607f_isr          0x0001822f   Wk    1  Code  Hi 
    306  am_gpio1_001f_isr          0x0001822f   Wk    1  Code  Hi 
    307  am_gpio1_203f_isr          0x0001822f   Wk    1  Code  Hi 
    308  am_gpio1_405f_isr          0x0001822f   Wk    1  Code  Hi 
    309  am_gpio1_607f_isr          0x0001822f   Wk    1  Code  Hi 
    310  am_gpu_isr                 0x0001822f   Wk    1  Code  Hi 
    311  am_iomaster0_isr           0x0001822f   Wk    1  Code  Hi 
    312  am_iomaster1_isr           0x0001822f   Wk    1  Code  Hi 
    313  am_iomaster2_isr           0x0001822f   Wk    1  Code  Hi 
    314  am_iomaster3_isr           0x0001822f   Wk    1  Code  Hi 
    315  am_iomaster4_isr           0x0001822f   Wk    1  Code  Hi 
    316  am_iomaster5_isr           0x0001822f   Wk    1  Code  Hi 
    317  am_iomaster6_isr           0x0001822f   Wk    1  Code  Hi 
    318  am_iomaster7_isr           0x0001822f   Wk    1  Code  Hi 
    319  am_ioslave_acc_isr         0x0001822f   Wk    1  Code  Hi 
    320  am_ioslave_ios_isr         0x0001822f   Wk    1  Code  Hi 
    321  am_mspi0_isr               0x0001822f   Wk    1  Code  Hi 
    322  am_mspi1_isr               0x0001822f   Wk    1  Code  Hi 
    323  am_mspi2_isr               0x0001822f   Wk    1  Code  Hi 
    324  am_pdm0_isr                0x0001822f   Wk    1  Code  Hi 
    325  am_pdm1_isr                0x0001822f   Wk    1  Code  Hi 
    326  am_pdm2_isr                0x0001822f   Wk    1  Code  Hi 
    327  am_pdm3_isr                0x0001822f   Wk    1  Code  Hi 
    328  am_rtc_isr                 0x0001822f   Wk    1  Code  Hi 
    329  am_stimer_cmpr0_isr        0x0001822f   Wk    1  Code  Hi 
    330  am_stimer_cmpr1_isr        0x0001822f   Wk    1  Code  Hi 
    331  am_stimer_cmpr2_isr        0x0001822f   Wk    1  Code  Hi 
    332  am_stimer_cmpr3_isr        0x0001822f   Wk    1  Code  Hi 
    333  am_stimer_cmpr4_isr        0x0001822f   Wk    1  Code  Hi 
    334  am_stimer_cmpr5_isr        0x0001822f   Wk    1  Code  Hi 
    335  am_stimer_cmpr6_isr        0x0001822f   Wk    1  Code  Hi 
    336  am_stimer_cmpr7_isr        0x0001822f   Wk    1  Code  Hi 
    337  am_stimerof_isr            0x0001822f   Wk    1  Code  Hi 
    338  am_timer00_isr             0x0001822f   Wk    1  Code  Hi 
    339  am_timer01_isr             0x0001822f   Wk    1  Code  Hi 
    340  am_timer02_isr             0x0001822f   Wk    1  Code  Hi 
    341  am_timer03_isr             0x0001822f   Wk    1  Code  Hi 
    342  am_timer04_isr             0x0001822f   Wk    1  Code  Hi 
    343  am_timer05_isr             0x0001822f   Wk    1  Code  Hi 
    344  am_timer06_isr             0x0001822f   Wk    1  Code  Hi 
    345  am_timer07_isr             0x0001822f   Wk    1  Code  Hi 
    346  am_timer08_isr             0x0001822f   Wk    1  Code  Hi 
    347  am_timer09_isr             0x0001822f   Wk    1  Code  Hi 
    348  am_timer10_isr             0x0001822f   Wk    1  Code  Hi 
    349  am_timer11_isr             0x0001822f   Wk    1  Code  Hi 
    350  am_timer12_isr             0x0001822f   Wk    1  Code  Hi 
    351  am_timer13_isr             0x0001822f   Wk    1  Code  Hi 
    352  am_timer14_isr             0x0001822f   Wk    1  Code  Hi 
    353  am_timer15_isr             0x0001822f   Wk    1  Code  Hi 
    354  am_uart1_isr               0x0001822f   Wk    1  Code  Hi 
    355  am_uart2_isr               0x0001822f   Wk    1  Code  Hi 
    356  am_uart3_isr               0x0001822f   Wk    1  Code  Hi 
    357  am_uart_isr                0x0001822f   Wk    1  Code  Hi 
    358  am_usb_isr                 0x0001822f   Wk    1  Code  Hi 
    359  am_vcomp_isr               0x0001822f   Wk    1  Code  Hi 
    360  am_watchdog_isr            0x0001822f   Wk    1  Code  Hi 
    361  __main                     0x00018235   Gb    1  Code  Hi   0x8
    362  __scatterload              0x0001823d   Gb    1  Code  Hi 
    363  __scatterload_rt2          0x0001823d   Gb    1  Code  Hi   0x2c
    364  __scatterload_rt2_thumb_only
                                    0x0001823d   Gb    1  Code  Hi 
    365  __scatterload_null         0x0001824b   Gb    1  Code  Hi 
    366  __decompress               0x00018271   Gb    1  Code  Hi   0x5a
    367  __decompress1              0x00018271   Gb    1  Code  Hi 
    368  __scatterload_copy         0x000182cd   Gb    1  Code  Hi   0x1a
    369  __scatterload_zeroinit     0x000182e9   Gb    1  Code  Hi   0x1c
    370  __rt_lib_init              0x00018305   Gb    1  Code  De 
    371  __rt_lib_init_fp_1         0x00018307   Gb    1  Code  Hi 
    372  __rt_lib_init_alloca_1     0x0001830b   Gb    1  Code  Hi 
    373  __rt_lib_init_argv_1       0x0001830b   Gb    1  Code  Hi 
    374  __rt_lib_init_atexit_1     0x0001830b   Gb    1  Code  Hi 
    375  __rt_lib_init_clock_1      0x0001830b   Gb    1  Code  Hi 
    376  __rt_lib_init_cpp_1        0x0001830b   Gb    1  Code  Hi 
    377  __rt_lib_init_exceptions_1 0x0001830b   Gb    1  Code  Hi 
    378  __rt_lib_init_fp_trap_1    0x0001830b   Gb    1  Code  Hi 
    379  __rt_lib_init_getenv_1     0x0001830b   Gb    1  Code  Hi 
    380  __rt_lib_init_heap_1       0x0001830b   Gb    1  Code  Hi 
    381  __rt_lib_init_lc_collate_1 0x0001830b   Gb    1  Code  Hi 
    382  __rt_lib_init_lc_ctype_1   0x0001830b   Gb    1  Code  Hi 
    383  __rt_lib_init_lc_monetary_1
                                    0x0001830b   Gb    1  Code  Hi 
    384  __rt_lib_init_lc_numeric_1 0x0001830b   Gb    1  Code  Hi 
    385  __rt_lib_init_lc_time_1    0x0001830b   Gb    1  Code  Hi 
    386  __rt_lib_init_preinit_1    0x0001830b   Gb    1  Code  Hi 
    387  __rt_lib_init_rand_1       0x0001830b   Gb    1  Code  Hi 
    388  __rt_lib_init_return       0x0001830b   Gb    1  Code  Hi 
    389  __rt_lib_init_signal_1     0x0001830b   Gb    1  Code  Hi 
    390  __rt_lib_init_stdio_1      0x0001830b   Gb    1  Code  Hi 
    391  __rt_lib_init_user_alloc_1 0x0001830b   Gb    1  Code  Hi 
    392  __rt_lib_shutdown          0x0001830d   Gb    1  Code  De 
    393  __rt_lib_shutdown_cpp_1    0x0001830f   Gb    1  Code  Hi 
    394  __rt_lib_shutdown_fp_trap_1
                                    0x0001830f   Gb    1  Code  Hi 
    395  __rt_lib_shutdown_heap_1   0x0001830f   Gb    1  Code  Hi 
    396  __rt_lib_shutdown_return   0x0001830f   Gb    1  Code  Hi 
    397  __rt_lib_shutdown_signal_1 0x0001830f   Gb    1  Code  Hi 
    398  __rt_lib_shutdown_stdio_1  0x0001830f   Gb    1  Code  Hi 
    399  __rt_lib_shutdown_user_alloc_1
                                    0x0001830f   Gb    1  Code  Hi 
    400  __rt_entry                 0x00018311   Gb    1  Code  Hi 
    401  __rt_entry_presh_1         0x00018311   Gb    1  Code  Hi 
    402  __rt_entry_sh              0x00018311   Gb    1  Code  Hi 
    403  __rt_entry_li              0x00018317   Gb    1  Code  Hi 
    404  __rt_entry_postsh_1        0x00018317   Gb    1  Code  Hi 
    405  __rt_entry_main            0x0001831b   Gb    1  Code  Hi 
    406  __rt_entry_postli_1        0x0001831b   Gb    1  Code  Hi 
    407  __rt_exit                  0x00018323   Gb    1  Code  De 
    408  __rt_exit_ls               0x00018325   Gb    1  Code  Hi 
    409  __rt_exit_prels_1          0x00018325   Gb    1  Code  Hi 
    410  __rt_exit_exit             0x00018329   Gb    1  Code  Hi 
    411  __user_initial_stackheap   0x00018331   Gb    1  Code  Hi   0xa
    412  __aeabi_memclr             0x00018349   Gb    1  Code  De 
    413  __rt_memclr                0x00018349   Gb    1  Code  De 
    414  _memset                    0x0001834d   Gb    1  Code  De   0x40
    415  __aeabi_memclr4            0x0001838d   Gb    1  Code  De 
    416  __aeabi_memclr8            0x0001838d   Gb    1  Code  De 
    417  __rt_memclr_w              0x0001838d   Gb    1  Code  De 
    418  _memset_w                  0x00018391   Gb    1  Code  De   0x4a
    419  __use_two_region_memory    0x000183db   Gb    1  Code  Hi   0x2
    420  __rt_heap_escrow$2region   0x000183dd   Gb    1  Code  De   0x2
    421  __rt_heap_expand$2region   0x000183df   Gb    1  Code  De   0x2
    422  __user_setup_stackheap     0x000183e1   Gb    1  Code  De   0x4a
    423  exit                       0x0001842b   Gb    1  Code  De   0x12
    424  __user_libspace            0x0001843d   Wk    1  Code  De   0x8
    425  __user_perproc_libspace    0x0001843d   Wk    1  Code  De 
    426  __user_perthread_libspace  0x0001843d   Wk    1  Code  De 
    427  _sys_exit                  0x00018445   Gb    1  Code  De   0x8
    428  __I$use$semihosting        0x00018451   Gb    1  Code  Hi 
    429  __use_no_semihosting_swi   0x00018451   Gb    1  Code  Hi   0x2
    430  __semihosting_library_function
                                    0x00018453   Gb    1  Code  Hi 
    431  HardFault_Handler          0x00018455   Gb    1  Code  Hi   0x1e
    432  am_bsp_itm_printf_enable   0x00018585   Gb    1  Code  Hi   0x7c
    433  am_bsp_low_power_init      0x00018601   Gb    1  Code  Hi   0x16
    434  am_bsp_sdio_pins_enable    0x00018617   Gb    1  Code  Hi   0xbe
    435  am_hal_card_block_read_sync
                                    0x000186d5   Gb    1  Code  Hi   0x18
    436  am_hal_card_block_write_sync
                                    0x000187ef   Gb    1  Code  Hi   0x14
    437  am_hal_card_cfg_set        0x00018803   Gb    1  Code  Hi   0x114
    438  am_hal_card_get_ext_csd_field
                                    0x00018919   Gb    1  Code  Hi   0x52
    439  am_hal_card_host_find_card 0x0001896b   Gb    1  Code  Hi   0x44
    440  am_hal_card_init           0x000189b9   Gb    1  Code  Hi   0x36e
    441  am_hal_card_mode_switch    0x00018d29   Gb    1  Code  Hi   0xaa
    442  am_hal_card_pwrctrl_sleep  0x00018e2d   Gb    1  Code  Hi   0xe6
    443  am_hal_card_pwrctrl_wakeup 0x00018f13   Gb    1  Code  Hi   0x96
    444  am_hal_card_status         0x000190c7   Gb    1  Code  Hi   0x58
    445  am_hal_daxi_config         0x0001911f   Gb    1  Code  Hi   0x54
    446  am_hal_daxi_control        0x00019175   Gb    1  Code  Hi   0x14c
    447  am_hal_dcu_get             0x000192c1   Gb    1  Code  Hi   0x9a
    448  am_hal_dcu_update          0x0001935d   Gb    1  Code  Hi   0xec
    449  am_hal_delay_us            0x00019449   Gb    1  Code  Hi   0x36
    450  am_hal_delay_us_status_change
                                    0x00019481   Gb    1  Code  Hi   0x54
    451  am_hal_delay_us_status_check
                                    0x000194d5   Gb    1  Code  Hi   0x62
    452  am_hal_fault_status_get    0x00019537   Gb    1  Code  Hi   0x3a
    453  am_hal_get_card_host       0x00019571   Gb    1  Code  Hi   0x36
    454  am_hal_gpio_pinconfig      0x000195a9   Gb    1  Code  Hi   0x4c
    455  am_hal_gpio_state_write    0x00019605   Gb    1  Code  Hi   0xe8
    456  am_hal_interrupt_master_disable
                                    0x000196ed   Gb    1  Code  Hi   0x8
    457  am_hal_interrupt_master_enable
                                    0x000196f5   Gb    1  Code  Hi   0x8
    458  am_hal_interrupt_master_set
                                    0x000196fd   Gb    1  Code  Hi   0x6
    459  am_hal_itm_enable          0x00019705   Gb    1  Code  Hi   0x42
    460  am_hal_itm_print           0x00019749   Gb    1  Code  Hi   0x2e
    461  am_hal_load_ui32           0x00019777   Gb    1  Code  Hi   0xc
    462  am_hal_mram_ds_init        0x00019783   Gb    1  Code  Hi   0x12
    463  am_hal_mram_info_read      0x00019795   Gb    1  Code  Hi   0x94
    464  am_hal_pwrctrl_control     0x00019829   Gb    1  Code  Hi   0x38c
    465  am_hal_pwrctrl_low_power_init
                                    0x00019bb5   Gb    1  Code  Hi   0x120
    466  am_hal_pwrctrl_mcu_memory_config
                                    0x00019cd5   Gb    1  Code  Hi   0xfa
    467  am_hal_pwrctrl_periph_disable
                                    0x00019dcf   Gb    1  Code  Hi   0x116
    468  am_hal_pwrctrl_periph_enable
                                    0x00019ee5   Gb    1  Code  Hi   0x9c
    469  am_hal_pwrctrl_sram_config 0x00019f81   Gb    1  Code  Hi   0xa8
    470  am_hal_rtc_osc_disable     0x0001a029   Gb    1  Code  Hi   0x14
    471  am_hal_sdhc_card_busy      0x0001a03d   Gb    1  Code  Hi   0x5a
    472  am_hal_sdhc_deinitialize   0x0001a097   Gb    1  Code  Hi   0x26
    473  am_hal_sdhc_disable        0x0001a0bd   Gb    1  Code  Hi   0x74
    474  am_hal_sdhc_enable         0x0001a131   Gb    1  Code  Hi   0xa8
    475  am_hal_sdhc_execute_cmd    0x0001a1d9   Gb    1  Code  Hi   0x40a
    476  am_hal_sdhc_get_cd         0x0001a5e3   Gb    1  Code  Hi   0x28
    477  am_hal_sdhc_initialize     0x0001a6a5   Gb    1  Code  Hi   0x34
    478  am_hal_sdhc_interrupt_service
                                    0x0001a6d9   Gb    1  Code  Hi   0x11a
    479  am_hal_sdhc_intr_status_clear
                                    0x0001a7f3   Gb    1  Code  Hi   0x2e
    480  am_hal_sdhc_intr_status_get
                                    0x0001a821   Gb    1  Code  Hi   0x44
    481  am_hal_sdhc_power_control  0x0001a8e1   Gb    1  Code  Hi   0xce
    482  am_hal_sdhc_set_bus_clock  0x0001a9b1   Gb    1  Code  Hi   0x9e
    483  am_hal_sdhc_set_bus_voltage
                                    0x0001aa4f   Gb    1  Code  Hi   0x52
    484  am_hal_sdhc_set_bus_width  0x0001aaa1   Gb    1  Code  Hi   0x66
    485  am_hal_sdhc_set_txrx_delay 0x0001ab07   Gb    1  Code  Hi   0x4e
    486  am_hal_sdhc_set_uhs_mode   0x0001ab55   Gb    1  Code  Hi   0x4e
    487  am_hal_sdhc_setup_host     0x0001aba3   Gb    1  Code  Hi   0x8a
    488  am_hal_timer_clear         0x0001ad6f   Gb    1  Code  Hi   0x58
    489  am_hal_timer_clear_stop    0x0001adc7   Gb    1  Code  Hi   0x54
    490  am_hal_timer_default_config_set
                                    0x0001ae1b   Gb    1  Code  Hi   0x20
    491  am_hal_timer_disable       0x0001ae3b   Gb    1  Code  Hi   0x3c
    492  am_hal_timer_enable        0x0001ae77   Gb    1  Code  Hi   0x4e
    493  am_hal_timer_enable_sync   0x0001aec5   Gb    1  Code  Hi   0x6c
    494  am_hal_timer_interrupt_clear
                                    0x0001af31   Gb    1  Code  Hi   0x10
    495  am_hal_timer_interrupt_enable
                                    0x0001af41   Gb    1  Code  Hi   0x54
    496  am_hal_timer_interrupt_status_get
                                    0x0001af95   Gb    1  Code  Hi   0x16
    497  am_hal_timer_read          0x0001afab   Gb    1  Code  Hi   0x26
    498  am_hal_timer_reset_config  0x0001afd1   Gb    1  Code  Hi   0x72
    499  am_hal_tpiu_enable         0x0001b043   Gb    1  Code  Hi   0x76
    500  am_hal_triple_read         0x0001b0b9   Gb    1  Code  Hi   0x24
    501  am_hal_util_write_and_wait 0x0001b0dd   Gb    1  Code  Hi   0x146
    502  am_sdio_isr                0x0001b225   Gb    1  Code  Hi   0x36
    503  am_util_delay_ms           0x0001b25d   Gb    1  Code  Hi   0x16
    504  am_util_delay_us           0x0001b275   Gb    1  Code  Hi   0x10
    505  am_util_faultisr_collect_data
                                    0x0001b285   Gb    1  Code  Hi   0xd6
    506  am_util_stdio_printf       0x0001b35d   Gb    1  Code  Hi   0x5c
    507  am_util_stdio_printf_init  0x0001b3b9   Gb    1  Code  Hi   0x14
    508  am_util_stdio_vsprintf     0x0001b3cd   Gb    1  Code  Hi   0x654
    509  am_valid_sp                0x0001ba21   Gb    1  Code  Hi   0x32
    510  buck_ldo_override_init     0x0001bb8b   Gb    1  Code  Hi   0x62
    511  check_if_data_match        0x0001bbed   Gb    1  Code  Hi   0x6e
    512  getStackedReg              0x0001c04d   Gb    1  Code  Hi   0x8
    513  internal_timer_config      0x0001c055   Gb    1  Code  Hi   0xce
    514  main                       0x0001c125   Gb    1  Code  Hi   0x2d6
    515  timer_config_b1            0x0001c531   Gb    1  Code  Hi   0x166
    516  __aeabi_d2f                0x0001c7e1   Gb    1  Code  De 
    517  _d2f                       0x0001c7e1   Gb    1  Code  De   0x62
    518  __fpl_dnaninf              0x0001c843   Gb    1  Code  De   0x9c
    519  _fp_init                   0x0001c8df   Gb    1  Code  De   0x1a
    520  __fplib_config_fpu_vfp     0x0001c8f7   Gb    1  Code  De 
    521  __fplib_config_pureend_doubles
                                    0x0001c8f7   Gb    1  Code  De 
    522  __fpl_fretinf              0x0001c8f9   Gb    1  Code  De   0xa
    523  __I$use$fp                 0x0001c902   Gb    1   --   De 
    524  am_hal_daxi_defaults       0x0001c902   Gb    1  Data  Hi   0x3
    525  am_hal_gpio_pincfg_output  0x0001c908   Gb    1  Data  Hi   0x4
    526  am_hal_pwrctrl_peripheral_control
                                    0x0001c90c   Gb    1  Data  Hi   0x220
    527  g_DefaultMcuMemCfg         0x0001cb8c   Gb    1  Data  Hi   0x6
    528  g_DefaultSRAMCfg           0x0001cb92   Gb    1  Data  Hi   0x6
    529  g_am_hal_bootrom_helper    0x0001cb98   Gb    1  Data  Hi   0x28
    530  sGlobalAccess              0x0001cbc0   Gb    1  Data  Hi   0x1c
    531  ui32DSP0Allowed            0x0001cdbc   Gb    1  Data  Hi   0x14
    532  ui32DSP1Allowed            0x0001cdd0   Gb    1  Data  Hi   0x14
    533  ui32MCUAllowed             0x0001cde4   Gb    1  Data  Hi   0x14
    534  ui32SharedAccess           0x0001cdf8   Gb    1  Data  Hi   0x14
    535  Region$$Table$$Base        0x0001ce0c   Gb    1   --   Hi 
    536  Region$$Table$$Limit       0x0001ce3c   Gb    1   --   Hi 
    537  gDcuDisable                0x10000000   Gb    2  Data  Hi   0x8
    538  gDcuEnable                 0x10000008   Gb    2  Data  Hi   0x8
    539  g_AM_BSP_GPIO_SDIO_CLK     0x10000010   Gb    2  Data  Hi   0x4
    540  g_AM_BSP_GPIO_SDIO_CMD     0x10000014   Gb    2  Data  Hi   0x4
    541  g_AM_BSP_GPIO_SDIO_DAT0    0x10000018   Gb    2  Data  Hi   0x4
    542  g_AM_BSP_GPIO_SDIO_DAT1    0x1000001c   Gb    2  Data  Hi   0x4
    543  g_AM_BSP_GPIO_SDIO_DAT2    0x10000020   Gb    2  Data  Hi   0x4
    544  g_AM_BSP_GPIO_SDIO_DAT3    0x10000024   Gb    2  Data  Hi   0x4
    545  g_AM_BSP_GPIO_SDIO_DAT4    0x10000028   Gb    2  Data  Hi   0x4
    546  g_AM_BSP_GPIO_SDIO_DAT5    0x1000002c   Gb    2  Data  Hi   0x4
    547  g_AM_BSP_GPIO_SDIO_DAT6    0x10000030   Gb    2  Data  Hi   0x4
    548  g_AM_BSP_GPIO_SDIO_DAT7    0x10000034   Gb    2  Data  Hi   0x4
    549  g_ui32TrimVer              0x10000244   Gb    2  Data  Hi   0x4
    550  g_ui32origMEMLDOActiveTrim 0x10000248   Gb    2  Data  Hi   0x4
    551  g_ui32origSimobuckVDDCtrim 0x1000024c   Gb    2  Data  Hi   0x4
    552  g_ui32origSimobuckVDDFtrim 0x10000250   Gb    2  Data  Hi   0x4
    553  g_ui32origSimobuckVDDStrim 0x10000254   Gb    2  Data  Hi   0x4
    554  gpDcuEnable                0x10000258   Gb    2  Data  Hi   0x4
    555  gpDcuLock                  0x1000025c   Gb    2  Data  Hi   0x4
    556  program_mram_tmc_tcycrd    0x10000260   Gb    2  Data  Hi   0x4
    557  recover_broken_mram_tmc_r_timer1
                                    0x10000264   Gb    2  Data  Hi   0x4
    558  storeAndWFIfuncRAM         0x10000290   Gb    2  Data  Hi   0x4
    559  __libspace_start           0x10001000   Gb    3  Data  De   0x60
    560  __temporary_stack_top$libspace
                                    0x10001060   Gb    3  Data  De 
    561  gFaultStack                0x10001120   Gb    3  Data  Hi   0x200
    562  gMspiXipState              0x10001320   Gb    3  Data  Hi   0x4
    563  gStartOff                  0x10001324   Gb    3  Data  Hi   0x4
    564  g_AM_BSP_GPIO_ITM_SWO      0x10001328   Gb    3  Data  Hi   0x4
    565  g_bVDDCbuckboosted         0x10001381   Gb    3  Data  Hi   0x1
    566  g_pfnCharPrint             0x10001384   Gb    3  Data  Hi   0x4
    567  g_trim_reg_origvals        0x10001788   Gb    3  Data  Hi   0x54
    568  pSdhcCardHost              0x100017e0   Gb    3  Data  Hi   0x4
    569  pui8RdBufDspRam0           0x100017e4   Gb    3  Data  Hi   0x4
    570  pui8RdBufSSRAM             0x100017e8   Gb    3  Data  Hi   0x4
    571  pui8WrBufDspRam0           0x100017ec   Gb    3  Data  Hi   0x4
    572  pui8WrBufSSRAM             0x100017f0   Gb    3  Data  Hi   0x4
    573  ui8RdBuf                   0x10002000   Gb    3  Data  Hi   0x800
    574  ui8WrBuf                   0x10003000   Gb    3  Data  Hi   0x800
    575  psGlobalAccessPtr          0x10060000   Gb    4  Data  Hi   0x4
    576  ui32MCUClaimed             0x10060004   Gb    4  Data  Hi   0x14
    577  ui32DSP0Claimed            0x10060018   Gb    4  Data  Hi   0x14
    578  ui32DSP1Claimed            0x1006002c   Gb    4  Data  Hi   0x14


** Section #12 '.strtab' (SHT_STRTAB)
    Size   : 9768 bytes

            #  Offset String
        ====================================

            1      1: $d
            2      4: $t
            3      7: $t.0
            4     12: $d.4
            5     17: $t.27
            6     23: $d.2
            7     28: $t.5
            8     33: $d.6
            9     38: $t.7
           10     43: $d.23
           11     49: $t.24
           12     55: $d.5
           13     60: $t.6
           14     65: $d.9
           15     70: $t.10
           16     76: $d.1
           17     81: $t.2
           18     86: $d.realdata
           19     98: am_resources.c
           20    113: __tagsym$$used.0
           21    130: __tagsym$$used.1
           22    147: __tagsym$$used.2
           23    164: __tagsym$$used.3
           24    181: __tagsym$$used.4
           25    198: __tagsym$$used.5
           26    215: __tagsym$$used.6
           27    232: __tagsym$$used.7
           28    249: __tagsym$$used.8
           29    266: emmc_raw_block_read_write.c
           30    294: .L.str
           31    301: .L.str.15
           32    311: .L.str.1
           33    320: .L.str.2
           34    329: .L.str.14
           35    339: .L.str.3
           36    348: .L.str.4
           37    357: .L.str.5
           38    366: .L.str.16
           39    376: .L.str.6
           40    385: .L.str.7
           41    394: .L.str.13
           42    404: .L.str.9
           43    413: .L.str.17
           44    423: .L.str.19
           45    433: .L.str.11
           46    443: .L.str.12
           47    453: .L.str.8
           48    462: .L.str.18
           49    472: .L.str.10
           50    482: am_util_debug.c
           51    498: am_util_delay.c
           52    514: am_util_faultisr.c
           53    533: am_util_id.c
           54    546: am_util_stdio.c
           55    562: decstr_to_int
           56    576: simple_strlen
           57    590: padbuffer
           58    600: ndigits_in_hex
           59    615: uint64_to_hexstr
           60    632: ndigits_in_u64
           61    647: uint64_to_str
           62    661: ndigits_in_i64
           63    676: ftoa
           64    681: divu64_10
           65    691: g_bTxtXlate
           66    703: g_prfbuf
           67    712: ../keil6/startup_keil6.s
           68    737: STACK
           69    743: StackMem
           70    752: HEAP
           71    757: HeapMem
           72    765: RESET
           73    771: $v0
           74    775: am_cryptosec_isr
           75    792: am_default_isr
           76    807: .text
           77    813: am_bsp.c
           78    822: g_ePrintInterface
           79    840: am_hal_card.c
           80    854: am_hal_card_pwr_notification
           81    883: am_hal_sdmmc_cmd5
           82    901: am_hal_sdmmc_cmd7_card_select
           83    931: am_hal_card_set_bus_width
           84    957: am_hal_card_set_speed
           85    979: am_hal_card_block_rw
           86   1000: am_hal_sdmmc_cmd8_send_ext_csd
           87   1031: am_hal_card_host.c
           88   1050: am_hal_sdhc_host_init
           89   1072: am_hal_sdhc_host_deinit
           90   1096: am_hal_card_host_power_control
           91   1127: am_hal_sdhc_host_execute_cmd
           92   1156: g_sdhc_card_host
           93   1173: g_sdhc_host_ops
           94   1189: am_hal_fault.c
           95   1204: am_hal_interrupt.c
           96   1223: am_hal_mcuctrl.c
           97   1240: am_hal_sdhc.c
           98   1254: am_hal_sdhc_software_reset
           99   1281: am_hal_sdhc_pio_xfer_data
          100   1307: g_SDHCState
          101   1319: adma_desc_table
          102   1335: am_hal_utils.c
          103   1350: am_hal_gpio.c
          104   1364: g_ui32DSpintbl
          105   1379: am_bsp_pins.c
          106   1393: am_hal_bootrom_helper.c
          107   1417: am_hal_cachectrl.c
          108   1436: gAxiMemRange
          109   1449: ui32AxiBufPwrStatReg
          110   1470: ui32AxiBufPwrStatMask
          111   1492: p64BAxiMem
          112   1503: am_hal_itm.c
          113   1516: am_hal_rtc.c
          114   1529: am_hal_tpiu.c
          115   1543: am_hal_uart.c
          116   1557: am_hal_dcu.c
          117   1570: am_hal_pin.c
          118   1583: am_hal_pwrctrl.c
          119   1600: VDDF_simobuck_boost
          120   1620: buck_interval_check
          121   1640: TrimVersionGet
          122   1655: storeAndWFIRAM
          123   1670: am_hal_mram.c
          124   1684: g_program_mram_tmc_tcycrd
          125   1710: g_recover_broken_mram_tmc_r_timer1
          126   1745: am_hal_mspi.c
          127   1759: am_hal_queue.c
          128   1774: am_hal_timer.c
          129   1789: TimerFlags
          130   1800: am_hal_cmdq.c
          131   1814: am_hal_global.c
          132   1830: dc.s
          133   1835: ../clib/memcpset.s
          134   1854: ../clib/heapaux.c
          135   1872: ../clib/angel/startup.s
          136   1896: !!!main
          137   1904: ../clib/angel/handlers.s
          138   1929: !!handler_copy
          139   1944: ../fplib/d2f.s
          140   1959: x$fpl$d2f
          141   1969: ../clib/angel/kernel.s
          142   1992: .ARM.Collect$$rtentry$$00000000
          143   2024: ../fplib/dnaninf.s
          144   2043: x$fpl$dnaninf
          145   2057: ../fplib/fretinf.s
          146   2076: x$fpl$fretinf
          147   2090: ../fplib/usenofp.s
          148   2109: x$fpl$usenofp
          149   2123: .ARM.Collect$$rtentry$$00000002
          150   2155: .ARM.Collect$$rtentry$$00000009
          151   2187: .ARM.Collect$$rtentry$$0000000A
          152   2219: .ARM.Collect$$rtentry$$0000000C
          153   2251: .ARM.Collect$$rtentry$$0000000D
          154   2283: .ARM.Collect$$rtentry$$00000004
          155   2315: ../clib/angel/sys.s
          156   2335: ../clib/stdlib.c
          157   2352: ../clib/angel/boardlib.s
          158   2377: ../clib/libinit.s
          159   2395: .ARM.Collect$$libinit$$00000000
          160   2427: .bss
          161   2432: .ARM.Collect$$rtexit$$00000000
          162   2463: .ARM.Collect$$libinit$$00000001
          163   2495: .ARM.Collect$$libinit$$00000004
          164   2527: .ARM.Collect$$libinit$$0000000A
          165   2559: .ARM.Collect$$libinit$$0000000C
          166   2591: .ARM.Collect$$libinit$$0000000E
          167   2623: .ARM.Collect$$libinit$$00000011
          168   2655: .ARM.Collect$$libinit$$00000013
          169   2687: .ARM.Collect$$libinit$$00000015
          170   2719: .ARM.Collect$$libinit$$00000017
          171   2751: .ARM.Collect$$libinit$$00000019
          172   2783: .ARM.Collect$$libinit$$0000001B
          173   2815: .ARM.Collect$$libinit$$0000001D
          174   2847: .ARM.Collect$$libinit$$0000001F
          175   2879: .ARM.Collect$$libinit$$00000021
          176   2911: .ARM.Collect$$libinit$$00000023
          177   2943: .ARM.Collect$$libinit$$00000025
          178   2975: .ARM.Collect$$libinit$$0000002C
          179   3007: .ARM.Collect$$libinit$$0000002E
          180   3039: .ARM.Collect$$libinit$$00000030
          181   3071: .ARM.Collect$$libinit$$00000032
          182   3103: .ARM.Collect$$libinit$$00000033
          183   3135: .ARM.Collect$$rtexit$$00000002
          184   3166: .ARM.Collect$$rtexit$$00000003
          185   3197: .ARM.Collect$$rtexit$$00000004
          186   3228: ../clib/armsys.c
          187   3245: ../fplib/fpinit.s
          188   3263: x$fpl$fpinit
          189   3276: ../clib/angel/sysapp.c
          190   3299: .ARM.Collect$$libshutdown$$00000000
          191   3335: ../clib/heapalloc.c
          192   3355: ../clib/signal.c
          193   3372: .ARM.Collect$$libshutdown$$00000002
          194   3408: .ARM.Collect$$libshutdown$$00000004
          195   3444: .ARM.Collect$$libshutdown$$00000007
          196   3480: .ARM.Collect$$libshutdown$$0000000A
          197   3516: .ARM.Collect$$libshutdown$$0000000C
          198   3552: .ARM.Collect$$libshutdown$$0000000F
          199   3588: .ARM.Collect$$libshutdown$$00000010
          200   3624: ../clib/angel/rt.s
          201   3643: ../clib/signal.s
          202   3660: ../clib/angel/dczerorl2.s
          203   3686: !!dczerorl2
          204   3698: ../clib/angel/scatter.s
          205   3722: !!!scatter
          206   3733: !!handler_zi
          207   3746: BuildAttributes$$THM_ISAv4$E$P$D$K$B$S$7EM$VFPi3$EXTD16$VFPS$VFMA$PE$A:L22UL41UL21$X:L11$S22US41US21$IEEE1$IW$~IW$USESV6$~STKCKD$USESV7$~SHL$OSPACE$ROPI$EBA8$UX$STANDARDLIB$REQ8$PRES8$EABIv2
          208   3937: __Vectors
          209   3947: __Patchable
          210   3959: Reset_Handler
          211   3973: NMI_Handler
          212   3985: MemManage_Handler
          213   4003: BusFault_Handler
          214   4020: UsageFault_Handler
          215   4039: SVC_Handler
          216   4051: DebugMon_Handler
          217   4068: PendSV_Handler
          218   4083: SysTick_Handler
          219   4099: am_adc_isr
          220   4110: am_audadc0_isr
          221   4125: am_brownout_isr
          222   4141: am_cachecpu_isr
          223   4157: am_clkgen_isr
          224   4171: am_ctimer_isr
          225   4185: am_disp_isr
          226   4197: am_dsi_isr
          227   4208: am_dspi2s0_isr
          228   4223: am_dspi2s1_isr
          229   4238: am_dspi2s2_isr
          230   4253: am_dspi2s3_isr
          231   4268: am_gpio0_001f_isr
          232   4286: am_gpio0_203f_isr
          233   4304: am_gpio0_405f_isr
          234   4322: am_gpio0_607f_isr
          235   4340: am_gpio1_001f_isr
          236   4358: am_gpio1_203f_isr
          237   4376: am_gpio1_405f_isr
          238   4394: am_gpio1_607f_isr
          239   4412: am_gpu_isr
          240   4423: am_iomaster0_isr
          241   4440: am_iomaster1_isr
          242   4457: am_iomaster2_isr
          243   4474: am_iomaster3_isr
          244   4491: am_iomaster4_isr
          245   4508: am_iomaster5_isr
          246   4525: am_iomaster6_isr
          247   4542: am_iomaster7_isr
          248   4559: am_ioslave_acc_isr
          249   4578: am_ioslave_ios_isr
          250   4597: am_mspi0_isr
          251   4610: am_mspi1_isr
          252   4623: am_mspi2_isr
          253   4636: am_pdm0_isr
          254   4648: am_pdm1_isr
          255   4660: am_pdm2_isr
          256   4672: am_pdm3_isr
          257   4684: am_rtc_isr
          258   4695: am_stimer_cmpr0_isr
          259   4715: am_stimer_cmpr1_isr
          260   4735: am_stimer_cmpr2_isr
          261   4755: am_stimer_cmpr3_isr
          262   4775: am_stimer_cmpr4_isr
          263   4795: am_stimer_cmpr5_isr
          264   4815: am_stimer_cmpr6_isr
          265   4835: am_stimer_cmpr7_isr
          266   4855: am_stimerof_isr
          267   4871: am_timer00_isr
          268   4886: am_timer01_isr
          269   4901: am_timer02_isr
          270   4916: am_timer03_isr
          271   4931: am_timer04_isr
          272   4946: am_timer05_isr
          273   4961: am_timer06_isr
          274   4976: am_timer07_isr
          275   4991: am_timer08_isr
          276   5006: am_timer09_isr
          277   5021: am_timer10_isr
          278   5036: am_timer11_isr
          279   5051: am_timer12_isr
          280   5066: am_timer13_isr
          281   5081: am_timer14_isr
          282   5096: am_timer15_isr
          283   5111: am_uart1_isr
          284   5124: am_uart2_isr
          285   5137: am_uart3_isr
          286   5150: am_uart_isr
          287   5162: am_usb_isr
          288   5173: am_vcomp_isr
          289   5186: am_watchdog_isr
          290   5202: __main
          291   5209: __scatterload
          292   5223: __scatterload_rt2
          293   5241: __scatterload_rt2_thumb_only
          294   5270: __scatterload_null
          295   5289: __decompress
          296   5302: __decompress1
          297   5316: __scatterload_copy
          298   5335: __scatterload_zeroinit
          299   5358: __rt_lib_init
          300   5372: __rt_lib_init_fp_1
          301   5391: __rt_lib_init_alloca_1
          302   5414: __rt_lib_init_argv_1
          303   5435: __rt_lib_init_atexit_1
          304   5458: __rt_lib_init_clock_1
          305   5480: __rt_lib_init_cpp_1
          306   5500: __rt_lib_init_exceptions_1
          307   5527: __rt_lib_init_fp_trap_1
          308   5551: __rt_lib_init_getenv_1
          309   5574: __rt_lib_init_heap_1
          310   5595: __rt_lib_init_lc_collate_1
          311   5622: __rt_lib_init_lc_ctype_1
          312   5647: __rt_lib_init_lc_monetary_1
          313   5675: __rt_lib_init_lc_numeric_1
          314   5702: __rt_lib_init_lc_time_1
          315   5726: __rt_lib_init_preinit_1
          316   5750: __rt_lib_init_rand_1
          317   5771: __rt_lib_init_return
          318   5792: __rt_lib_init_signal_1
          319   5815: __rt_lib_init_stdio_1
          320   5837: __rt_lib_init_user_alloc_1
          321   5864: __rt_lib_shutdown
          322   5882: __rt_lib_shutdown_cpp_1
          323   5906: __rt_lib_shutdown_fp_trap_1
          324   5934: __rt_lib_shutdown_heap_1
          325   5959: __rt_lib_shutdown_return
          326   5984: __rt_lib_shutdown_signal_1
          327   6011: __rt_lib_shutdown_stdio_1
          328   6037: __rt_lib_shutdown_user_alloc_1
          329   6068: __rt_entry
          330   6079: __rt_entry_presh_1
          331   6098: __rt_entry_sh
          332   6112: __rt_entry_li
          333   6126: __rt_entry_postsh_1
          334   6146: __rt_entry_main
          335   6162: __rt_entry_postli_1
          336   6182: __rt_exit
          337   6192: __rt_exit_ls
          338   6205: __rt_exit_prels_1
          339   6223: __rt_exit_exit
          340   6238: __user_initial_stackheap
          341   6263: __aeabi_memclr
          342   6278: __rt_memclr
          343   6290: _memset
          344   6298: __aeabi_memclr4
          345   6314: __aeabi_memclr8
          346   6330: __rt_memclr_w
          347   6344: _memset_w
          348   6354: __use_two_region_memory
          349   6378: __rt_heap_escrow$2region
          350   6403: __rt_heap_expand$2region
          351   6428: __user_setup_stackheap
          352   6451: exit
          353   6456: __user_libspace
          354   6472: __user_perproc_libspace
          355   6496: __user_perthread_libspace
          356   6522: _sys_exit
          357   6532: __I$use$semihosting
          358   6552: __use_no_semihosting_swi
          359   6577: __semihosting_library_function
          360   6608: HardFault_Handler
          361   6626: am_bsp_itm_printf_enable
          362   6651: am_bsp_low_power_init
          363   6673: am_bsp_sdio_pins_enable
          364   6697: am_hal_card_block_read_sync
          365   6725: am_hal_card_block_write_sync
          366   6754: am_hal_card_cfg_set
          367   6774: am_hal_card_get_ext_csd_field
          368   6804: am_hal_card_host_find_card
          369   6831: am_hal_card_init
          370   6848: am_hal_card_mode_switch
          371   6872: am_hal_card_pwrctrl_sleep
          372   6898: am_hal_card_pwrctrl_wakeup
          373   6925: am_hal_card_status
          374   6944: am_hal_daxi_config
          375   6963: am_hal_daxi_control
          376   6983: am_hal_dcu_get
          377   6998: am_hal_dcu_update
          378   7016: am_hal_delay_us
          379   7032: am_hal_delay_us_status_change
          380   7062: am_hal_delay_us_status_check
          381   7091: am_hal_fault_status_get
          382   7115: am_hal_get_card_host
          383   7136: am_hal_gpio_pinconfig
          384   7158: am_hal_gpio_state_write
          385   7182: am_hal_interrupt_master_disable
          386   7214: am_hal_interrupt_master_enable
          387   7245: am_hal_interrupt_master_set
          388   7273: am_hal_itm_enable
          389   7291: am_hal_itm_print
          390   7308: am_hal_load_ui32
          391   7325: am_hal_mram_ds_init
          392   7345: am_hal_mram_info_read
          393   7367: am_hal_pwrctrl_control
          394   7390: am_hal_pwrctrl_low_power_init
          395   7420: am_hal_pwrctrl_mcu_memory_config
          396   7453: am_hal_pwrctrl_periph_disable
          397   7483: am_hal_pwrctrl_periph_enable
          398   7512: am_hal_pwrctrl_sram_config
          399   7539: am_hal_rtc_osc_disable
          400   7562: am_hal_sdhc_card_busy
          401   7584: am_hal_sdhc_deinitialize
          402   7609: am_hal_sdhc_disable
          403   7629: am_hal_sdhc_enable
          404   7648: am_hal_sdhc_execute_cmd
          405   7672: am_hal_sdhc_get_cd
          406   7691: am_hal_sdhc_initialize
          407   7714: am_hal_sdhc_interrupt_service
          408   7744: am_hal_sdhc_intr_status_clear
          409   7774: am_hal_sdhc_intr_status_get
          410   7802: am_hal_sdhc_power_control
          411   7828: am_hal_sdhc_set_bus_clock
          412   7854: am_hal_sdhc_set_bus_voltage
          413   7882: am_hal_sdhc_set_bus_width
          414   7908: am_hal_sdhc_set_txrx_delay
          415   7935: am_hal_sdhc_set_uhs_mode
          416   7960: am_hal_sdhc_setup_host
          417   7983: am_hal_timer_clear
          418   8002: am_hal_timer_clear_stop
          419   8026: am_hal_timer_default_config_set
          420   8058: am_hal_timer_disable
          421   8079: am_hal_timer_enable
          422   8099: am_hal_timer_enable_sync
          423   8124: am_hal_timer_interrupt_clear
          424   8153: am_hal_timer_interrupt_enable
          425   8183: am_hal_timer_interrupt_status_get
          426   8217: am_hal_timer_read
          427   8235: am_hal_timer_reset_config
          428   8261: am_hal_tpiu_enable
          429   8280: am_hal_triple_read
          430   8299: am_hal_util_write_and_wait
          431   8326: am_sdio_isr
          432   8338: am_util_delay_ms
          433   8355: am_util_delay_us
          434   8372: am_util_faultisr_collect_data
          435   8402: am_util_stdio_printf
          436   8423: am_util_stdio_printf_init
          437   8449: am_util_stdio_vsprintf
          438   8472: am_valid_sp
          439   8484: buck_ldo_override_init
          440   8507: check_if_data_match
          441   8527: getStackedReg
          442   8541: internal_timer_config
          443   8563: main
          444   8568: timer_config_b1
          445   8584: __aeabi_d2f
          446   8596: _d2f
          447   8601: __fpl_dnaninf
          448   8615: _fp_init
          449   8624: __fplib_config_fpu_vfp
          450   8647: __fplib_config_pureend_doubles
          451   8678: __fpl_fretinf
          452   8692: __I$use$fp
          453   8703: am_hal_daxi_defaults
          454   8724: am_hal_gpio_pincfg_output
          455   8750: am_hal_pwrctrl_peripheral_control
          456   8784: g_DefaultMcuMemCfg
          457   8803: g_DefaultSRAMCfg
          458   8820: g_am_hal_bootrom_helper
          459   8844: sGlobalAccess
          460   8858: ui32DSP0Allowed
          461   8874: ui32DSP1Allowed
          462   8890: ui32MCUAllowed
          463   8905: ui32SharedAccess
          464   8922: Region$$Table$$Base
          465   8942: Region$$Table$$Limit
          466   8963: gDcuDisable
          467   8975: gDcuEnable
          468   8986: g_AM_BSP_GPIO_SDIO_CLK
          469   9009: g_AM_BSP_GPIO_SDIO_CMD
          470   9032: g_AM_BSP_GPIO_SDIO_DAT0
          471   9056: g_AM_BSP_GPIO_SDIO_DAT1
          472   9080: g_AM_BSP_GPIO_SDIO_DAT2
          473   9104: g_AM_BSP_GPIO_SDIO_DAT3
          474   9128: g_AM_BSP_GPIO_SDIO_DAT4
          475   9152: g_AM_BSP_GPIO_SDIO_DAT5
          476   9176: g_AM_BSP_GPIO_SDIO_DAT6
          477   9200: g_AM_BSP_GPIO_SDIO_DAT7
          478   9224: g_ui32TrimVer
          479   9238: g_ui32origMEMLDOActiveTrim
          480   9265: g_ui32origSimobuckVDDCtrim
          481   9292: g_ui32origSimobuckVDDFtrim
          482   9319: g_ui32origSimobuckVDDStrim
          483   9346: gpDcuEnable
          484   9358: gpDcuLock
          485   9368: program_mram_tmc_tcycrd
          486   9392: recover_broken_mram_tmc_r_timer1
          487   9425: storeAndWFIfuncRAM
          488   9444: __libspace_start
          489   9461: __temporary_stack_top$libspace
          490   9492: gFaultStack
          491   9504: gMspiXipState
          492   9518: gStartOff
          493   9528: g_AM_BSP_GPIO_ITM_SWO
          494   9550: g_bVDDCbuckboosted
          495   9569: g_pfnCharPrint
          496   9584: g_trim_reg_origvals
          497   9604: pSdhcCardHost
          498   9618: pui8RdBufDspRam0
          499   9635: pui8RdBufSSRAM
          500   9650: pui8WrBufDspRam0
          501   9667: pui8WrBufSSRAM
          502   9682: ui8RdBuf
          503   9691: ui8WrBuf
          504   9700: psGlobalAccessPtr
          505   9718: ui32MCUClaimed
          506   9733: ui32DSP0Claimed
          507   9749: ui32DSP1Claimed
          508   9765: 
          509   9766: 
          510   9767: 


** Section #13 '.note' (SHT_NOTE)
    Size   : 32 bytes (alignment 4)


** Section #14 '.comment' (SHT_PROGBITS)
    Size   : 1680 bytes


** Section #15 '.shstrtab' (SHT_STRTAB)
    Size   : 148 bytes

            #  Offset String
        ====================================

            1      1: MCU_MRAM
            2     10: MCU_TCM
            3     18: SHARED_SRAM
            4     30: .debug_abbrev
            5     44: .debug_frame
            6     57: .debug_info
            7     69: .debug_line
            8     81: .debug_str
            9     92: .debug_ranges
           10    106: .symtab
           11    114: .strtab
           12    122: .note
           13    128: .comment
           14    137: .shstrtab
           15    147: 


