
========================================================================

** ELF Header Information

    File Name: bin\tinyusb_hid_generic.axf

    Machine class: ELFCLASS32 (32-bit)
    Data encoding: ELFDATA2LSB (Little endian)
    Header version: EV_CURRENT (Current version)
    Operating System ABI: none
    ABI Version: 0
    File Type: ET_EXEC (Executable) (2)
    Machine: EM_ARM (ARM)

    Image Entry point: 0x00018235
    Flags: EF_ARM_HASENTRY + EF_ARM_ABI_FLOAT_HARD (0x05000402)

    ARM ELF revision: 5 (ABI version 2)

    Conforms to Hard float procedure-call standard

    Built with
    Component: ARM Compiler 6.16 Tool: armasm [5dfea300]
    Component: ARM Compiler 6.16 Tool: armlink [5dfeaa00]

    Header size: 52 bytes (0x34)
    Program header entry size: 32 bytes (0x20)
    Section header entry size: 40 bytes (0x28)

    Program header entries: 1
    Section header entries: 16

    Program header offset: 170692 (0x00029ac4)
    Section header offset: 170724 (0x00029ae4)

    Section header string table index: 15

========================================================================

** Program header #0 (PT_LOAD) [PF_X + PF_W + PF_R + PF_ARM_ENTRY]
    Size : 49040 bytes (33328 bytes in file)
    Virtual address: 0x00018000 (Alignment 8)


========================================================================

** Section #1 'MCU_MRAM' (SHT_PROGBITS) [SHF_ALLOC + SHF_EXECINSTR]
    Size   : 33156 bytes (alignment 4)
    Address: 0x00018000

    $d
    RESET
    __Vectors
        0x00018000:    10003dc8    .=..    DCD    268451272
        0x00018004:    00018201    ....    DCD    98817
        0x00018008:    0001821f    ....    DCD    98847
        0x0001800c:    0001821d    ....    DCD    98845
        0x00018010:    00018221    !...    DCD    98849
        0x00018014:    00018223    #...    DCD    98851
        0x00018018:    00018225    %...    DCD    98853
        0x0001801c:    00000000    ....    DCD    0
        0x00018020:    00000000    ....    DCD    0
        0x00018024:    00000000    ....    DCD    0
        0x00018028:    00000000    ....    DCD    0
        0x0001802c:    00018227    '...    DCD    98855
        0x00018030:    00018229    )...    DCD    98857
        0x00018034:    00000000    ....    DCD    0
        0x00018038:    0001822b    +...    DCD    98859
        0x0001803c:    0001822d    -...    DCD    98861
        0x00018040:    0001822f    /...    DCD    98863
        0x00018044:    0001822f    /...    DCD    98863
        0x00018048:    0001822f    /...    DCD    98863
        0x0001804c:    0001822f    /...    DCD    98863
        0x00018050:    0001822f    /...    DCD    98863
        0x00018054:    0001822f    /...    DCD    98863
        0x00018058:    0001822f    /...    DCD    98863
        0x0001805c:    0001822f    /...    DCD    98863
        0x00018060:    0001822f    /...    DCD    98863
        0x00018064:    0001822f    /...    DCD    98863
        0x00018068:    0001822f    /...    DCD    98863
        0x0001806c:    0001822f    /...    DCD    98863
        0x00018070:    0001822f    /...    DCD    98863
        0x00018074:    0001822f    /...    DCD    98863
        0x00018078:    0001822f    /...    DCD    98863
        0x0001807c:    0001822f    /...    DCD    98863
        0x00018080:    0001822f    /...    DCD    98863
        0x00018084:    0001822f    /...    DCD    98863
        0x00018088:    0001822f    /...    DCD    98863
        0x0001808c:    0001822f    /...    DCD    98863
        0x00018090:    0001822f    /...    DCD    98863
        0x00018094:    0001822f    /...    DCD    98863
        0x00018098:    0001822f    /...    DCD    98863
        0x0001809c:    0001822f    /...    DCD    98863
        0x000180a0:    0001822f    /...    DCD    98863
        0x000180a4:    0001822f    /...    DCD    98863
        0x000180a8:    0001822f    /...    DCD    98863
        0x000180ac:    0001b009    ....    DCD    110601
        0x000180b0:    0001822f    /...    DCD    98863
        0x000180b4:    0001822f    /...    DCD    98863
        0x000180b8:    0001822f    /...    DCD    98863
        0x000180bc:    0001822f    /...    DCD    98863
        0x000180c0:    0001822f    /...    DCD    98863
        0x000180c4:    0001822f    /...    DCD    98863
        0x000180c8:    0001822f    /...    DCD    98863
        0x000180cc:    0001822f    /...    DCD    98863
        0x000180d0:    0001822f    /...    DCD    98863
        0x000180d4:    0001822f    /...    DCD    98863
        0x000180d8:    0001822f    /...    DCD    98863
        0x000180dc:    0001822f    /...    DCD    98863
        0x000180e0:    0001822f    /...    DCD    98863
        0x000180e4:    0001822f    /...    DCD    98863
        0x000180e8:    0001822f    /...    DCD    98863
        0x000180ec:    0001822f    /...    DCD    98863
        0x000180f0:    0001822f    /...    DCD    98863
        0x000180f4:    0001822f    /...    DCD    98863
        0x000180f8:    0001822f    /...    DCD    98863
        0x000180fc:    0001822f    /...    DCD    98863
        0x00018100:    0001822f    /...    DCD    98863
        0x00018104:    0001822f    /...    DCD    98863
        0x00018108:    0001822f    /...    DCD    98863
        0x0001810c:    0001822f    /...    DCD    98863
        0x00018110:    0001822f    /...    DCD    98863
        0x00018114:    0001822f    /...    DCD    98863
        0x00018118:    0001822f    /...    DCD    98863
        0x0001811c:    0001822f    /...    DCD    98863
        0x00018120:    0001822f    /...    DCD    98863
        0x00018124:    0001822f    /...    DCD    98863
        0x00018128:    0001822f    /...    DCD    98863
        0x0001812c:    0001822f    /...    DCD    98863
        0x00018130:    0001822f    /...    DCD    98863
        0x00018134:    0001822f    /...    DCD    98863
        0x00018138:    0001822f    /...    DCD    98863
        0x0001813c:    0001822f    /...    DCD    98863
        0x00018140:    0001822f    /...    DCD    98863
        0x00018144:    0001822f    /...    DCD    98863
        0x00018148:    0001822f    /...    DCD    98863
        0x0001814c:    0001822f    /...    DCD    98863
        0x00018150:    0001822f    /...    DCD    98863
        0x00018154:    0001822f    /...    DCD    98863
        0x00018158:    0001822f    /...    DCD    98863
        0x0001815c:    0001822f    /...    DCD    98863
        0x00018160:    0001822f    /...    DCD    98863
        0x00018164:    0001822f    /...    DCD    98863
        0x00018168:    0001822f    /...    DCD    98863
        0x0001816c:    0001822f    /...    DCD    98863
        0x00018170:    0001822f    /...    DCD    98863
        0x00018174:    0001822f    /...    DCD    98863
        0x00018178:    0001822f    /...    DCD    98863
        0x0001817c:    0001822f    /...    DCD    98863
        0x00018180:    0001822f    /...    DCD    98863
        0x00018184:    0001822f    /...    DCD    98863
        0x00018188:    0001822f    /...    DCD    98863
        0x0001818c:    0001822f    /...    DCD    98863
    __Patchable
        0x00018190:    00000000    ....    DCD    0
        0x00018194:    00000000    ....    DCD    0
        0x00018198:    00000000    ....    DCD    0
        0x0001819c:    00000000    ....    DCD    0
        0x000181a0:    00000000    ....    DCD    0
        0x000181a4:    00000000    ....    DCD    0
        0x000181a8:    00000000    ....    DCD    0
        0x000181ac:    00000000    ....    DCD    0
        0x000181b0:    00000000    ....    DCD    0
        0x000181b4:    00000000    ....    DCD    0
        0x000181b8:    00000000    ....    DCD    0
        0x000181bc:    00000000    ....    DCD    0
        0x000181c0:    00000000    ....    DCD    0
        0x000181c4:    00000000    ....    DCD    0
        0x000181c8:    00000000    ....    DCD    0
        0x000181cc:    00000000    ....    DCD    0
        0x000181d0:    00000000    ....    DCD    0
        0x000181d4:    00000000    ....    DCD    0
        0x000181d8:    00000000    ....    DCD    0
        0x000181dc:    00000000    ....    DCD    0
        0x000181e0:    00000000    ....    DCD    0
        0x000181e4:    00000000    ....    DCD    0
        0x000181e8:    00000000    ....    DCD    0
        0x000181ec:    00000000    ....    DCD    0
        0x000181f0:    00000000    ....    DCD    0
        0x000181f4:    00000000    ....    DCD    0
        0x000181f8:    00000000    ....    DCD    0
        0x000181fc:    00000000    ....    DCD    0
    $t
    $v0
    Reset_Handler
        0x00018200:    f64e5088    N..P    MOV      r0,#0xed88
        0x00018204:    f2ce0000    ....    MOVT     r0,#0xe000
        0x00018208:    6801        .h      LDR      r1,[r0,#0]
        0x0001820a:    f4410170    A.p.    ORR      r1,r1,#0xf00000
        0x0001820e:    6001        .`      STR      r1,[r0,#0]
        0x00018210:    f3bf8f4f    ..O.    DSB      
        0x00018214:    f3bf8f6f    ..o.    ISB      
        0x00018218:    4805        .H      LDR      r0,[pc,#20] ; [0x18230] = 0x18235
        0x0001821a:    4700        .G      BX       r0
    HardFault_Handler
        0x0001821c:    e7fe        ..      B        HardFault_Handler ; 0x1821c
    NMI_Handler
        0x0001821e:    e7fe        ..      B        NMI_Handler ; 0x1821e
    MemManage_Handler
        0x00018220:    e7fe        ..      B        MemManage_Handler ; 0x18220
    BusFault_Handler
        0x00018222:    e7fe        ..      B        BusFault_Handler ; 0x18222
    UsageFault_Handler
        0x00018224:    e7fe        ..      B        UsageFault_Handler ; 0x18224
    SVC_Handler
        0x00018226:    e7fe        ..      B        SVC_Handler ; 0x18226
    DebugMon_Handler
        0x00018228:    e7fe        ..      B        DebugMon_Handler ; 0x18228
    PendSV_Handler
        0x0001822a:    e7fe        ..      B        PendSV_Handler ; 0x1822a
    SysTick_Handler
        0x0001822c:    e7fe        ..      B        SysTick_Handler ; 0x1822c
    am_cryptosec_isr
    am_default_isr
    am_adc_isr
    am_audadc0_isr
    am_brownout_isr
    am_cachecpu_isr
    am_clkgen_isr
    am_ctimer_isr
    am_disp_isr
    am_dsi_isr
    am_dspi2s0_isr
    am_dspi2s1_isr
    am_dspi2s2_isr
    am_dspi2s3_isr
    am_gpio0_001f_isr
    am_gpio0_203f_isr
    am_gpio0_405f_isr
    am_gpio0_607f_isr
    am_gpio1_001f_isr
    am_gpio1_203f_isr
    am_gpio1_405f_isr
    am_gpio1_607f_isr
    am_gpu_isr
    am_iomaster0_isr
    am_iomaster1_isr
    am_iomaster2_isr
    am_iomaster3_isr
    am_iomaster4_isr
    am_iomaster5_isr
    am_iomaster6_isr
    am_iomaster7_isr
    am_ioslave_acc_isr
    am_ioslave_ios_isr
    am_mspi0_isr
    am_mspi1_isr
    am_mspi2_isr
    am_pdm0_isr
    am_pdm1_isr
    am_pdm2_isr
    am_pdm3_isr
    am_rtc_isr
    am_sdio_isr
    am_stimer_cmpr0_isr
    am_stimer_cmpr1_isr
    am_stimer_cmpr2_isr
    am_stimer_cmpr3_isr
    am_stimer_cmpr4_isr
    am_stimer_cmpr5_isr
    am_stimer_cmpr6_isr
    am_stimer_cmpr7_isr
    am_stimerof_isr
    am_timer00_isr
    am_timer01_isr
    am_timer02_isr
    am_timer03_isr
    am_timer04_isr
    am_timer05_isr
    am_timer06_isr
    am_timer07_isr
    am_timer08_isr
    am_timer09_isr
    am_timer10_isr
    am_timer11_isr
    am_timer12_isr
    am_timer13_isr
    am_timer14_isr
    am_timer15_isr
    am_uart1_isr
    am_uart2_isr
    am_uart3_isr
    am_uart_isr
    am_vcomp_isr
    am_watchdog_isr
        0x0001822e:    e7fe        ..      B        am_cryptosec_isr ; 0x1822e
    $d
        0x00018230:    00018235    5...    DCD    98869
    $t
    !!!main
    __main
        0x00018234:    f000f802    ....    BL       __scatterload ; 0x1823c
        0x00018238:    f000f83c    ..<.    BL       __rt_entry ; 0x182b4
    !!!scatter
    __scatterload
    __scatterload_rt2
    __scatterload_rt2_thumb_only
        0x0001823c:    a00a        ..      ADR      r0,{pc}+0x2c ; 0x18268
        0x0001823e:    e8900c00    ....    LDM      r0,{r10,r11}
        0x00018242:    4482        .D      ADD      r10,r10,r0
        0x00018244:    4483        .D      ADD      r11,r11,r0
        0x00018246:    f1aa0701    ....    SUB      r7,r10,#1
    __scatterload_null
        0x0001824a:    45da        .E      CMP      r10,r11
        0x0001824c:    d101        ..      BNE      0x18252 ; __scatterload_null + 8
        0x0001824e:    f000f831    ..1.    BL       __rt_entry ; 0x182b4
        0x00018252:    f2af0e09    ....    ADR      lr,{pc}-7 ; 0x1824b
        0x00018256:    e8ba000f    ....    LDM      r10!,{r0-r3}
        0x0001825a:    f0130f01    ....    TST      r3,#1
        0x0001825e:    bf18        ..      IT       NE
        0x00018260:    1afb        ..      SUBNE    r3,r7,r3
        0x00018262:    f0430301    C...    ORR      r3,r3,#1
        0x00018266:    4718        .G      BX       r3
    $d
        0x00018268:    00007eec    .~..    DCD    32492
        0x0001826c:    00007f1c    ....    DCD    32540
    $t
    !!handler_copy
    __scatterload_copy
        0x00018270:    3a10        .:      SUBS     r2,r2,#0x10
        0x00018272:    bf24        $.      ITT      CS
        0x00018274:    c878        x.      LDMCS    r0!,{r3-r6}
        0x00018276:    c178        x.      STMCS    r1!,{r3-r6}
        0x00018278:    d8fa        ..      BHI      __scatterload_copy ; 0x18270
        0x0001827a:    0752        R.      LSLS     r2,r2,#29
        0x0001827c:    bf24        $.      ITT      CS
        0x0001827e:    c830        0.      LDMCS    r0!,{r4,r5}
        0x00018280:    c130        0.      STMCS    r1!,{r4,r5}
        0x00018282:    bf44        D.      ITT      MI
        0x00018284:    6804        .h      LDRMI    r4,[r0,#0]
        0x00018286:    600c        .`      STRMI    r4,[r1,#0]
        0x00018288:    4770        pG      BX       lr
        0x0001828a:    0000        ..      MOVS     r0,r0
    !!handler_zi
    __scatterload_zeroinit
        0x0001828c:    2300        .#      MOVS     r3,#0
        0x0001828e:    2400        .$      MOVS     r4,#0
        0x00018290:    2500        .%      MOVS     r5,#0
        0x00018292:    2600        .&      MOVS     r6,#0
        0x00018294:    3a10        .:      SUBS     r2,r2,#0x10
        0x00018296:    bf28        (.      IT       CS
        0x00018298:    c178        x.      STMCS    r1!,{r3-r6}
        0x0001829a:    d8fb        ..      BHI      0x18294 ; __scatterload_zeroinit + 8
        0x0001829c:    0752        R.      LSLS     r2,r2,#29
        0x0001829e:    bf28        (.      IT       CS
        0x000182a0:    c130        0.      STMCS    r1!,{r4,r5}
        0x000182a2:    bf48        H.      IT       MI
        0x000182a4:    600b        .`      STRMI    r3,[r1,#0]
        0x000182a6:    4770        pG      BX       lr
    .ARM.Collect$$libinit$$00000000
    __rt_lib_init
        0x000182a8:    b51f        ..      PUSH     {r0-r4,lr}
    .ARM.Collect$$libinit$$00000001
    __rt_lib_init_fp_1
        0x000182aa:    f007fa5c    ..\.    BL       _fp_init ; 0x1f766
    .ARM.Collect$$libinit$$00000004
    .ARM.Collect$$libinit$$0000000A
    .ARM.Collect$$libinit$$0000000C
    .ARM.Collect$$libinit$$0000000E
    .ARM.Collect$$libinit$$00000011
    .ARM.Collect$$libinit$$00000013
    .ARM.Collect$$libinit$$00000015
    .ARM.Collect$$libinit$$00000017
    .ARM.Collect$$libinit$$00000019
    .ARM.Collect$$libinit$$0000001B
    .ARM.Collect$$libinit$$0000001D
    .ARM.Collect$$libinit$$0000001F
    .ARM.Collect$$libinit$$00000021
    .ARM.Collect$$libinit$$00000023
    .ARM.Collect$$libinit$$00000025
    .ARM.Collect$$libinit$$0000002C
    .ARM.Collect$$libinit$$0000002E
    .ARM.Collect$$libinit$$00000030
    .ARM.Collect$$libinit$$00000032
    .ARM.Collect$$libinit$$00000033
    __rt_lib_init_alloca_1
    __rt_lib_init_argv_1
    __rt_lib_init_atexit_1
    __rt_lib_init_clock_1
    __rt_lib_init_cpp_1
    __rt_lib_init_exceptions_1
    __rt_lib_init_fp_trap_1
    __rt_lib_init_getenv_1
    __rt_lib_init_heap_1
    __rt_lib_init_lc_collate_1
    __rt_lib_init_lc_ctype_1
    __rt_lib_init_lc_monetary_1
    __rt_lib_init_lc_numeric_1
    __rt_lib_init_lc_time_1
    __rt_lib_init_preinit_1
    __rt_lib_init_rand_1
    __rt_lib_init_return
    __rt_lib_init_signal_1
    __rt_lib_init_stdio_1
    __rt_lib_init_user_alloc_1
        0x000182ae:    bd1f        ..      POP      {r0-r4,pc}
    .ARM.Collect$$libshutdown$$00000000
    __rt_lib_shutdown
        0x000182b0:    b510        ..      PUSH     {r4,lr}
    .ARM.Collect$$libshutdown$$00000002
    .ARM.Collect$$libshutdown$$00000004
    .ARM.Collect$$libshutdown$$00000007
    .ARM.Collect$$libshutdown$$0000000A
    .ARM.Collect$$libshutdown$$0000000C
    .ARM.Collect$$libshutdown$$0000000F
    .ARM.Collect$$libshutdown$$00000010
    __rt_lib_shutdown_cpp_1
    __rt_lib_shutdown_fp_trap_1
    __rt_lib_shutdown_heap_1
    __rt_lib_shutdown_return
    __rt_lib_shutdown_signal_1
    __rt_lib_shutdown_stdio_1
    __rt_lib_shutdown_user_alloc_1
        0x000182b2:    bd10        ..      POP      {r4,pc}
    .ARM.Collect$$rtentry$$00000000
    .ARM.Collect$$rtentry$$00000002
    .ARM.Collect$$rtentry$$00000004
    __rt_entry
    __rt_entry_presh_1
    __rt_entry_sh
        0x000182b4:    f000f980    ....    BL       __user_setup_stackheap ; 0x185b8
        0x000182b8:    4611        .F      MOV      r1,r2
    .ARM.Collect$$rtentry$$00000009
    .ARM.Collect$$rtentry$$0000000A
    __rt_entry_li
    __rt_entry_postsh_1
        0x000182ba:    f7fffff5    ....    BL       __rt_lib_init ; 0x182a8
    .ARM.Collect$$rtentry$$0000000C
    .ARM.Collect$$rtentry$$0000000D
    __rt_entry_main
    __rt_entry_postli_1
        0x000182be:    f004fdab    ....    BL       main ; 0x1ce18
        0x000182c2:    f000f99e    ....    BL       exit ; 0x18602
    .ARM.Collect$$rtexit$$00000000
    __rt_exit
        0x000182c6:    b403        ..      PUSH     {r0,r1}
    .ARM.Collect$$rtexit$$00000002
    .ARM.Collect$$rtexit$$00000003
    __rt_exit_ls
    __rt_exit_prels_1
        0x000182c8:    f7fffff2    ....    BL       __rt_lib_shutdown ; 0x182b0
    .ARM.Collect$$rtexit$$00000004
    __rt_exit_exit
        0x000182cc:    bc03        ..      POP      {r0,r1}
        0x000182ce:    f000f9a1    ....    BL       _sys_exit ; 0x18614
        0x000182d2:    0000        ..      MOVS     r0,r0
    .text
    $v0
    __user_initial_stackheap
        0x000182d4:    4802        .H      LDR      r0,[pc,#8] ; [0x182e0] = 0x100012c8
        0x000182d6:    4903        .I      LDR      r1,[pc,#12] ; [0x182e4] = 0x10003dc8
        0x000182d8:    4a01        .J      LDR      r2,[pc,#4] ; [0x182e0] = 0x100012c8
        0x000182da:    4b03        .K      LDR      r3,[pc,#12] ; [0x182e8] = 0x100012c8
        0x000182dc:    4770        pG      BX       lr
    $d
        0x000182de:    0000        ..      DCW    0
        0x000182e0:    100012c8    ....    DCD    268440264
        0x000182e4:    10003dc8    .=..    DCD    268451272
        0x000182e8:    100012c8    ....    DCD    268440264
    $t
    .text
    __aeabi_uldivmod
    _ll_udiv
        0x000182ec:    ea530c02    S...    ORRS     r12,r3,r2
        0x000182f0:    f0008069    ..i.    BEQ.W    0x183c6 ; __aeabi_uldivmod + 218
        0x000182f4:    e92d4bf0    -..K    PUSH     {r4-r9,r11,lr}
        0x000182f8:    f04f0600    O...    MOV      r6,#0
        0x000182fc:    2b00        .+      CMP      r3,#0
        0x000182fe:    bf1f        ..      ITTTT    NE
        0x00018300:    fab3f583    ....    CLZNE    r5,r3
        0x00018304:    fa03f405    ....    LSLNE    r4,r3,r5
        0x00018308:    fa24f605    $...    LSRNE    r6,r4,r5
        0x0001830c:    405e        ^@      EORNE    r6,r6,r3
        0x0001830e:    bf12        ..      ITEE     NE
        0x00018310:    4316        .C      ORRNE    r6,r6,r2
        0x00018312:    fab2f582    ....    CLZEQ    r5,r2
        0x00018316:    fa02f405    ....    LSLEQ    r4,r2,r5
        0x0001831a:    f1c50520    .. .    RSB      r5,r5,#0x20
        0x0001831e:    bf1e        ..      ITTT     NE
        0x00018320:    fa22fc05    "...    LSRNE    r12,r2,r5
        0x00018324:    ea44040c    D...    ORRNE    r4,r4,r12
        0x00018328:    3520         5      ADDNE    r5,r5,#0x20
        0x0001832a:    ea564c04    V..L    ORRS     r12,r6,r4,LSL #16
        0x0001832e:    ea4f4414    O..D    LSR      r4,r4,#16
        0x00018332:    bf18        ..      IT       NE
        0x00018334:    1c64        d.      ADDNE    r4,r4,#1
        0x00018336:    f04f0800    O...    MOV      r8,#0
        0x0001833a:    f04f0900    O...    MOV      r9,#0
        0x0001833e:    4290        .B      CMP      r0,r2
        0x00018340:    eb710c03    q...    SBCS     r12,r1,r3
        0x00018344:    d339        9.      BCC      0x183ba ; __aeabi_uldivmod + 206
        0x00018346:    2900        .)      CMP      r1,#0
        0x00018348:    bf19        ..      ITTEE    NE
        0x0001834a:    fab1f781    ....    CLZNE    r7,r1
        0x0001834e:    fa01f607    ....    LSLNE    r6,r1,r7
        0x00018352:    fab0f780    ....    CLZEQ    r7,r0
        0x00018356:    fa00f607    ....    LSLEQ    r6,r0,r7
        0x0001835a:    f1c70720    .. .    RSB      r7,r7,#0x20
        0x0001835e:    bf1e        ..      ITTT     NE
        0x00018360:    fa20fc07     ...    LSRNE    r12,r0,r7
        0x00018364:    ea46060c    F...    ORRNE    r6,r6,r12
        0x00018368:    3720         7      ADDNE    r7,r7,#0x20
        0x0001836a:    fbb6fcf4    ....    UDIV     r12,r6,r4
        0x0001836e:    eba70705    ....    SUB      r7,r7,r5
        0x00018372:    3f10        .?      SUBS     r7,r7,#0x10
        0x00018374:    f0070b1f    ....    AND      r11,r7,#0x1f
        0x00018378:    f1cb0620    .. .    RSB      r6,r11,#0x20
        0x0001837c:    fa2cf606    ,...    LSR      r6,r12,r6
        0x00018380:    fa0cfb0b    ....    LSL      r11,r12,r11
        0x00018384:    bf44        D.      ITT      MI
        0x00018386:    46b3        .F      MOVMI    r11,r6
        0x00018388:    2600        .&      MOVMI    r6,#0
        0x0001838a:    2f20         /      CMP      r7,#0x20
        0x0001838c:    bfa4        ..      ITT      GE
        0x0001838e:    465e        ^F      MOVGE    r6,r11
        0x00018390:    f04f0b00    O...    MOVGE    r11,#0
        0x00018394:    ea5b0c06    [...    ORRS     r12,r11,r6
        0x00018398:    bf08        ..      IT       EQ
        0x0001839a:    f04f0b01    O...    MOVEQ    r11,#1
        0x0001839e:    eb19090b    ....    ADDS     r9,r9,r11
        0x000183a2:    eb480806    H...    ADC      r8,r8,r6
        0x000183a6:    fbab7c02    ...|    UMULL    r7,r12,r11,r2
        0x000183aa:    fb06cc02    ....    MLA      r12,r6,r2,r12
        0x000183ae:    fb0bcc03    ....    MLA      r12,r11,r3,r12
        0x000183b2:    1bc0        ..      SUBS     r0,r0,r7
        0x000183b4:    eb71010c    q...    SBCS     r1,r1,r12
        0x000183b8:    e7c1        ..      B        0x1833e ; __aeabi_uldivmod + 82
        0x000183ba:    460b        .F      MOV      r3,r1
        0x000183bc:    4602        .F      MOV      r2,r0
        0x000183be:    4641        AF      MOV      r1,r8
        0x000183c0:    4648        HF      MOV      r0,r9
        0x000183c2:    e8bd8bf0    ....    POP      {r4-r9,r11,pc}
        0x000183c6:    b513        ..      PUSH     {r0,r1,r4,lr}
        0x000183c8:    4308        .C      ORRS     r0,r0,r1
        0x000183ca:    bf18        ..      IT       NE
        0x000183cc:    f04f30ff    O..0    MOVNE    r0,#0xffffffff
        0x000183d0:    4601        .F      MOV      r1,r0
        0x000183d2:    f3af8000    ....    NOP.W    
        0x000183d6:    e8bd401c    ...@    POP      {r2-r4,lr}
        0x000183da:    4770        pG      BX       lr
    .text
    strlen
        0x000183dc:    b510        ..      PUSH     {r4,lr}
        0x000183de:    1c43        C.      ADDS     r3,r0,#1
        0x000183e0:    e002        ..      B        0x183e8 ; strlen + 12
        0x000183e2:    f8101b01    ....    LDRB     r1,[r0],#1
        0x000183e6:    b171        q.      CBZ      r1,0x18406 ; strlen + 42
        0x000183e8:    0781        ..      LSLS     r1,r0,#30
        0x000183ea:    d1fa        ..      BNE      0x183e2 ; strlen + 6
        0x000183ec:    f04f3201    O..2    MOV      r2,#0x1010101
        0x000183f0:    c802        ..      LDM      r0!,{r1}
        0x000183f2:    1a8c        ..      SUBS     r4,r1,r2
        0x000183f4:    438c        .C      BICS     r4,r4,r1
        0x000183f6:    ea1411c2    ....    ANDS     r1,r4,r2,LSL #7
        0x000183fa:    d0f9        ..      BEQ      0x183f0 ; strlen + 20
        0x000183fc:    1ac0        ..      SUBS     r0,r0,r3
        0x000183fe:    060a        ..      LSLS     r2,r1,#24
        0x00018400:    d003        ..      BEQ      0x1840a ; strlen + 46
        0x00018402:    1ec0        ..      SUBS     r0,r0,#3
        0x00018404:    bd10        ..      POP      {r4,pc}
        0x00018406:    1ac0        ..      SUBS     r0,r0,r3
        0x00018408:    bd10        ..      POP      {r4,pc}
        0x0001840a:    040a        ..      LSLS     r2,r1,#16
        0x0001840c:    d001        ..      BEQ      0x18412 ; strlen + 54
        0x0001840e:    1e80        ..      SUBS     r0,r0,#2
        0x00018410:    bd10        ..      POP      {r4,pc}
        0x00018412:    0209        ..      LSLS     r1,r1,#8
        0x00018414:    d0fc        ..      BEQ      0x18410 ; strlen + 52
        0x00018416:    1e40        @.      SUBS     r0,r0,#1
        0x00018418:    bd10        ..      POP      {r4,pc}
    .text
    __aeabi_memcpy
    __rt_memcpy
        0x0001841a:    2a03        .*      CMP      r2,#3
        0x0001841c:    f2408030    @.0.    BLS.W    _memcpy_lastbytes ; 0x18480
        0x00018420:    f0100c03    ....    ANDS     r12,r0,#3
        0x00018424:    f0008015    ....    BEQ.W    0x18452 ; __aeabi_memcpy + 56
        0x00018428:    f8113b01    ...;    LDRB     r3,[r1],#1
        0x0001842c:    f1bc0f02    ....    CMP      r12,#2
        0x00018430:    4462        bD      ADD      r2,r2,r12
        0x00018432:    bf98        ..      IT       LS
        0x00018434:    f811cb01    ....    LDRBLS   r12,[r1],#1
        0x00018438:    f8003b01    ...;    STRB     r3,[r0],#1
        0x0001843c:    bf38        8.      IT       CC
        0x0001843e:    f8113b01    ...;    LDRBCC   r3,[r1],#1
        0x00018442:    f1a20204    ....    SUB      r2,r2,#4
        0x00018446:    bf98        ..      IT       LS
        0x00018448:    f800cb01    ....    STRBLS   r12,[r0],#1
        0x0001844c:    bf38        8.      IT       CC
        0x0001844e:    f8003b01    ...;    STRBCC   r3,[r0],#1
        0x00018452:    f0110303    ....    ANDS     r3,r1,#3
        0x00018456:    f0008079    ..y.    BEQ.W    __aeabi_memcpy4 ; 0x1854c
        0x0001845a:    3a08        .:      SUBS     r2,r2,#8
        0x0001845c:    f0c08008    ....    BCC.W    0x18470 ; __aeabi_memcpy + 86
        0x00018460:    f8513b04    Q..;    LDR      r3,[r1],#4
        0x00018464:    3a08        .:      SUBS     r2,r2,#8
        0x00018466:    f851cb04    Q...    LDR      r12,[r1],#4
        0x0001846a:    e8a01008    ....    STM      r0!,{r3,r12}
        0x0001846e:    e7f5        ..      B        0x1845c ; __aeabi_memcpy + 66
        0x00018470:    1d12        ..      ADDS     r2,r2,#4
        0x00018472:    bf5c        \.      ITT      PL
        0x00018474:    f8513b04    Q..;    LDRPL    r3,[r1],#4
        0x00018478:    f8403b04    @..;    STRPL    r3,[r0],#4
        0x0001847c:    f3af8000    ....    NOP.W    
    _memcpy_lastbytes
        0x00018480:    07d2        ..      LSLS     r2,r2,#31
        0x00018482:    bf24        $.      ITT      CS
        0x00018484:    f8113b01    ...;    LDRBCS   r3,[r1],#1
        0x00018488:    f811cb01    ....    LDRBCS   r12,[r1],#1
        0x0001848c:    bf48        H.      IT       MI
        0x0001848e:    f8112b01    ...+    LDRBMI   r2,[r1],#1
        0x00018492:    bf24        $.      ITT      CS
        0x00018494:    f8003b01    ...;    STRBCS   r3,[r0],#1
        0x00018498:    f800cb01    ....    STRBCS   r12,[r0],#1
        0x0001849c:    bf48        H.      IT       MI
        0x0001849e:    f8002b01    ...+    STRBMI   r2,[r0],#1
        0x000184a2:    4770        pG      BX       lr
    .text
    __aeabi_memset
        0x000184a4:    f00203ff    ....    AND      r3,r2,#0xff
        0x000184a8:    ea432203    C.."    ORR      r2,r3,r3,LSL #8
        0x000184ac:    ea424202    B..B    ORR      r2,r2,r2,LSL #16
        0x000184b0:    f000b802    ....    B.W      _memset ; 0x184b8
    .text
    __aeabi_memclr
    __rt_memclr
        0x000184b4:    f04f0200    O...    MOV      r2,#0
    _memset
        0x000184b8:    2904        .)      CMP      r1,#4
        0x000184ba:    f0c08012    ....    BCC.W    0x184e2 ; _memset + 42
        0x000184be:    f0100c03    ....    ANDS     r12,r0,#3
        0x000184c2:    f000801b    ....    BEQ.W    _memset_w ; 0x184fc
        0x000184c6:    f1cc0c04    ....    RSB      r12,r12,#4
        0x000184ca:    f1bc0f02    ....    CMP      r12,#2
        0x000184ce:    bf18        ..      IT       NE
        0x000184d0:    f8002b01    ...+    STRBNE   r2,[r0],#1
        0x000184d4:    bfa8        ..      IT       GE
        0x000184d6:    f8202b02     ..+    STRHGE   r2,[r0],#2
        0x000184da:    eba1010c    ....    SUB      r1,r1,r12
        0x000184de:    f000b80d    ....    B.W      _memset_w ; 0x184fc
        0x000184e2:    ea5f7cc1    _..|    LSLS     r12,r1,#31
        0x000184e6:    bf24        $.      ITT      CS
        0x000184e8:    f8002b01    ...+    STRBCS   r2,[r0],#1
        0x000184ec:    f8002b01    ...+    STRBCS   r2,[r0],#1
        0x000184f0:    bf48        H.      IT       MI
        0x000184f2:    f8002b01    ...+    STRBMI   r2,[r0],#1
        0x000184f6:    4770        pG      BX       lr
    .text
    __aeabi_memclr4
    __aeabi_memclr8
    __rt_memclr_w
        0x000184f8:    f04f0200    O...    MOV      r2,#0
    _memset_w
        0x000184fc:    b500        ..      PUSH     {lr}
        0x000184fe:    4613        .F      MOV      r3,r2
        0x00018500:    4694        .F      MOV      r12,r2
        0x00018502:    4696        .F      MOV      lr,r2
        0x00018504:    3920         9      SUBS     r1,r1,#0x20
        0x00018506:    bf22        ".      ITTT     CS
        0x00018508:    e8a0500c    ...P    STMCS    r0!,{r2,r3,r12,lr}
        0x0001850c:    e8a0500c    ...P    STMCS    r0!,{r2,r3,r12,lr}
        0x00018510:    f1b10120    .. .    SUBSCS   r1,r1,#0x20
        0x00018514:    f4bfaff7    ....    BCS.W    0x18506 ; _memset_w + 10
        0x00018518:    0709        ..      LSLS     r1,r1,#28
        0x0001851a:    bf28        (.      IT       CS
        0x0001851c:    e8a0500c    ...P    STMCS    r0!,{r2,r3,r12,lr}
        0x00018520:    bf48        H.      IT       MI
        0x00018522:    c00c        ..      STMMI    r0!,{r2,r3}
        0x00018524:    f85deb04    ]...    POP      {lr}
        0x00018528:    0089        ..      LSLS     r1,r1,#2
        0x0001852a:    bf28        (.      IT       CS
        0x0001852c:    f8402b04    @..+    STRCS    r2,[r0],#4
        0x00018530:    bf08        ..      IT       EQ
        0x00018532:    4770        pG      BXEQ     lr
        0x00018534:    bf48        H.      IT       MI
        0x00018536:    f8202b02     ..+    STRHMI   r2,[r0],#2
        0x0001853a:    f0114f80    ...O    TST      r1,#0x40000000
        0x0001853e:    bf18        ..      IT       NE
        0x00018540:    f8002b01    ...+    STRBNE   r2,[r0],#1
        0x00018544:    4770        pG      BX       lr
    .text
    __use_two_region_memory
        0x00018546:    4770        pG      BX       lr
    __rt_heap_escrow$2region
        0x00018548:    4770        pG      BX       lr
    __rt_heap_expand$2region
        0x0001854a:    4770        pG      BX       lr
    .text
    __aeabi_memcpy4
    __aeabi_memcpy8
    __rt_memcpy_w
        0x0001854c:    b510        ..      PUSH     {r4,lr}
        0x0001854e:    3a20         :      SUBS     r2,r2,#0x20
        0x00018550:    f0c0800b    ....    BCC.W    0x1856a ; __aeabi_memcpy4 + 30
        0x00018554:    e8b15018    ...P    LDM      r1!,{r3,r4,r12,lr}
        0x00018558:    e8a05018    ...P    STM      r0!,{r3,r4,r12,lr}
        0x0001855c:    e8b15018    ...P    LDM      r1!,{r3,r4,r12,lr}
        0x00018560:    e8a05018    ...P    STM      r0!,{r3,r4,r12,lr}
        0x00018564:    3a20         :      SUBS     r2,r2,#0x20
        0x00018566:    f4bfaff5    ....    BCS.W    0x18554 ; __aeabi_memcpy4 + 8
        0x0001856a:    ea5f7c02    _..|    LSLS     r12,r2,#28
        0x0001856e:    bf24        $.      ITT      CS
        0x00018570:    e8b15018    ...P    LDMCS    r1!,{r3,r4,r12,lr}
        0x00018574:    e8a05018    ...P    STMCS    r0!,{r3,r4,r12,lr}
        0x00018578:    bf44        D.      ITT      MI
        0x0001857a:    c918        ..      LDMMI    r1!,{r3,r4}
        0x0001857c:    c018        ..      STMMI    r0!,{r3,r4}
        0x0001857e:    e8bd4010    ...@    POP      {r4,lr}
        0x00018582:    ea5f7c82    _..|    LSLS     r12,r2,#30
        0x00018586:    bf24        $.      ITT      CS
        0x00018588:    f8513b04    Q..;    LDRCS    r3,[r1],#4
        0x0001858c:    f8403b04    @..;    STRCS    r3,[r0],#4
        0x00018590:    bf08        ..      IT       EQ
        0x00018592:    4770        pG      BXEQ     lr
    _memcpy_lastbytes_aligned
        0x00018594:    07d2        ..      LSLS     r2,r2,#31
        0x00018596:    bf28        (.      IT       CS
        0x00018598:    f8313b02    1..;    LDRHCS   r3,[r1],#2
        0x0001859c:    bf48        H.      IT       MI
        0x0001859e:    f8112b01    ...+    LDRBMI   r2,[r1],#1
        0x000185a2:    bf28        (.      IT       CS
        0x000185a4:    f8203b02     ..;    STRHCS   r3,[r0],#2
        0x000185a8:    bf48        H.      IT       MI
        0x000185aa:    f8002b01    ...+    STRBMI   r2,[r0],#1
        0x000185ae:    4770        pG      BX       lr
    .text
    __user_libspace
    __user_perproc_libspace
    __user_perthread_libspace
        0x000185b0:    4800        .H      LDR      r0,[pc,#0] ; [0x185b4] = 0x10000068
        0x000185b2:    4770        pG      BX       lr
    $d
        0x000185b4:    10000068    h...    DCD    268435560
    $t
    .text
    __user_setup_stackheap
        0x000185b8:    4675        uF      MOV      r5,lr
        0x000185ba:    f7fffff9    ....    BL       __user_libspace ; 0x185b0
        0x000185be:    46ae        .F      MOV      lr,r5
        0x000185c0:    0005        ..      MOVS     r5,r0
        0x000185c2:    4669        iF      MOV      r1,sp
        0x000185c4:    4653        SF      MOV      r3,r10
        0x000185c6:    f0200007     ...    BIC      r0,r0,#7
        0x000185ca:    4685        .F      MOV      sp,r0
        0x000185cc:    b018        ..      ADD      sp,sp,#0x60
        0x000185ce:    b520         .      PUSH     {r5,lr}
        0x000185d0:    f7fffe80    ....    BL       __user_initial_stackheap ; 0x182d4
        0x000185d4:    e8bd4020    .. @    POP      {r5,lr}
        0x000185d8:    f04f0600    O...    MOV      r6,#0
        0x000185dc:    f04f0700    O...    MOV      r7,#0
        0x000185e0:    f04f0800    O...    MOV      r8,#0
        0x000185e4:    f04f0b00    O...    MOV      r11,#0
        0x000185e8:    46ac        .F      MOV      r12,r5
        0x000185ea:    e8ac09c0    ....    STM      r12!,{r6-r8,r11}
        0x000185ee:    e8ac09c0    ....    STM      r12!,{r6-r8,r11}
        0x000185f2:    e8ac09c0    ....    STM      r12!,{r6-r8,r11}
        0x000185f6:    e8ac09c0    ....    STM      r12!,{r6-r8,r11}
        0x000185fa:    f0210107    !...    BIC      r1,r1,#7
        0x000185fe:    468d        .F      MOV      sp,r1
        0x00018600:    4770        pG      BX       lr
    .text
    exit
        0x00018602:    b510        ..      PUSH     {r4,lr}
        0x00018604:    4604        .F      MOV      r4,r0
        0x00018606:    f3af8000    ....    NOP.W    
        0x0001860a:    4620         F      MOV      r0,r4
        0x0001860c:    e8bd4010    ...@    POP      {r4,lr}
        0x00018610:    f7ffbe59    ..Y.    B.W      __rt_exit ; 0x182c6
    .text
    _sys_exit
        0x00018614:    4901        .I      LDR      r1,[pc,#4] ; [0x1861c] = 0x20026
        0x00018616:    2018        .       MOVS     r0,#0x18
        0x00018618:    beab        ..      BKPT     #0xab
        0x0001861a:    e7fe        ..      B        0x1861a ; _sys_exit + 6
    $d
        0x0001861c:    00020026    &...    DCD    131110
    $t
    .text
    __I$use$semihosting
    __use_no_semihosting_swi
        0x00018620:    4770        pG      BX       lr
    .text
    __semihosting_library_function
        0x00018622:    0000        ..      MOVS     r0,r0
    $t.16
    __NVIC_DisableIRQ
        0x00018624:    b081        ..      SUB      sp,sp,#4
        0x00018626:    f88d0003    ....    STRB     r0,[sp,#3]
        0x0001862a:    f99d0003    ....    LDRSB    r0,[sp,#3]
        0x0001862e:    2800        .(      CMP      r0,#0
        0x00018630:    d412        ..      BMI      0x18658 ; __NVIC_DisableIRQ + 52
        0x00018632:    e7ff        ..      B        0x18634 ; __NVIC_DisableIRQ + 16
        0x00018634:    f99d1003    ....    LDRSB    r1,[sp,#3]
        0x00018638:    f001021f    ....    AND      r2,r1,#0x1f
        0x0001863c:    2001        .       MOVS     r0,#1
        0x0001863e:    4090        .@      LSLS     r0,r0,r2
        0x00018640:    094a        J.      LSRS     r2,r1,#5
        0x00018642:    f24e1180    N...    MOV      r1,#0xe180
        0x00018646:    f2ce0100    ....    MOVT     r1,#0xe000
        0x0001864a:    f8410022    A.".    STR      r0,[r1,r2,LSL #2]
        0x0001864e:    f3bf8f4f    ..O.    DSB      
        0x00018652:    f3bf8f6f    ..o.    ISB      
        0x00018656:    e7ff        ..      B        0x18658 ; __NVIC_DisableIRQ + 52
        0x00018658:    b001        ..      ADD      sp,sp,#4
        0x0001865a:    4770        pG      BX       lr
    __NVIC_EnableIRQ
        0x0001865c:    b081        ..      SUB      sp,sp,#4
        0x0001865e:    f88d0003    ....    STRB     r0,[sp,#3]
        0x00018662:    f99d0003    ....    LDRSB    r0,[sp,#3]
        0x00018666:    2800        .(      CMP      r0,#0
        0x00018668:    d40e        ..      BMI      0x18688 ; __NVIC_EnableIRQ + 44
        0x0001866a:    e7ff        ..      B        0x1866c ; __NVIC_EnableIRQ + 16
        0x0001866c:    f99d1003    ....    LDRSB    r1,[sp,#3]
        0x00018670:    f001021f    ....    AND      r2,r1,#0x1f
        0x00018674:    2001        .       MOVS     r0,#1
        0x00018676:    4090        .@      LSLS     r0,r0,r2
        0x00018678:    094a        J.      LSRS     r2,r1,#5
        0x0001867a:    f24e1100    N...    MOVW     r1,#0xe100
        0x0001867e:    f2ce0100    ....    MOVT     r1,#0xe000
        0x00018682:    f8410022    A.".    STR      r0,[r1,r2,LSL #2]
        0x00018686:    e7ff        ..      B        0x18688 ; __NVIC_EnableIRQ + 44
        0x00018688:    b001        ..      ADD      sp,sp,#4
        0x0001868a:    4770        pG      BX       lr
    __NVIC_SetPriority
        0x0001868c:    b082        ..      SUB      sp,sp,#8
        0x0001868e:    f88d0007    ....    STRB     r0,[sp,#7]
        0x00018692:    9100        ..      STR      r1,[sp,#0]
        0x00018694:    f99d0007    ....    LDRSB    r0,[sp,#7]
        0x00018698:    2800        .(      CMP      r0,#0
        0x0001869a:    d40a        ..      BMI      0x186b2 ; __NVIC_SetPriority + 38
        0x0001869c:    e7ff        ..      B        0x1869e ; __NVIC_SetPriority + 18
        0x0001869e:    9800        ..      LDR      r0,[sp,#0]
        0x000186a0:    0140        @.      LSLS     r0,r0,#5
        0x000186a2:    f99d1007    ....    LDRSB    r1,[sp,#7]
        0x000186a6:    f24e4200    N..B    MOVW     r2,#0xe400
        0x000186aa:    f2ce0200    ....    MOVT     r2,#0xe000
        0x000186ae:    5488        .T      STRB     r0,[r1,r2]
        0x000186b0:    e00b        ..      B        0x186ca ; __NVIC_SetPriority + 62
        0x000186b2:    9800        ..      LDR      r0,[sp,#0]
        0x000186b4:    0140        @.      LSLS     r0,r0,#5
        0x000186b6:    f89d1007    ....    LDRB     r1,[sp,#7]
        0x000186ba:    f001010f    ....    AND      r1,r1,#0xf
        0x000186be:    f64e5214    N..R    MOV      r2,#0xed14
        0x000186c2:    f2ce0200    ....    MOVT     r2,#0xe000
        0x000186c6:    5488        .T      STRB     r0,[r1,r2]
        0x000186c8:    e7ff        ..      B        0x186ca ; __NVIC_SetPriority + 62
        0x000186ca:    b002        ..      ADD      sp,sp,#8
        0x000186cc:    4770        pG      BX       lr
        0x000186ce:    0000        ..      MOVS     r0,r0
    _data_stage_xact
        0x000186d0:    b580        ..      PUSH     {r7,lr}
        0x000186d2:    b086        ..      SUB      sp,sp,#0x18
        0x000186d4:    f88d0017    ....    STRB     r0,[sp,#0x17]
        0x000186d8:    2000        .       MOVS     r0,#0
        0x000186da:    f88d0016    ....    STRB     r0,[sp,#0x16]
        0x000186de:    f24000d0    @...    MOVW     r0,#0xd0
        0x000186e2:    f2c10000    ....    MOVT     r0,#0x1000
        0x000186e6:    7801        .x      LDRB     r1,[r0,#0]
        0x000186e8:    2001        .       MOVS     r0,#1
        0x000186ea:    ebb01fd1    ....    CMP      r0,r1,LSR #7
        0x000186ee:    d104        ..      BNE      0x186fa ; _data_stage_xact + 42
        0x000186f0:    e7ff        ..      B        0x186f2 ; _data_stage_xact + 34
        0x000186f2:    2080        .       MOVS     r0,#0x80
        0x000186f4:    f88d0016    ....    STRB     r0,[sp,#0x16]
        0x000186f8:    e7ff        ..      B        0x186fa ; _data_stage_xact + 42
        0x000186fa:    f89d1016    ....    LDRB     r1,[sp,#0x16]
        0x000186fe:    f24000d0    @...    MOVW     r0,#0xd0
        0x00018702:    f2c10000    ....    MOVT     r0,#0x1000
        0x00018706:    9002        ..      STR      r0,[sp,#8]
        0x00018708:    8982        ..      LDRH     r2,[r0,#0xc]
        0x0001870a:    f64f70db    O..p    MOV      r0,#0xffdb
        0x0001870e:    f2c00001    ....    MOVT     r0,#1
        0x00018712:    f002fd23    ..#.    BL       am_util_stdio_printf ; 0x1b15c
        0x00018716:    9802        ..      LDR      r0,[sp,#8]
        0x00018718:    f89d1017    ....    LDRB     r1,[sp,#0x17]
        0x0001871c:    9103        ..      STR      r1,[sp,#0xc]
        0x0001871e:    f89d1016    ....    LDRB     r1,[sp,#0x16]
        0x00018722:    9104        ..      STR      r1,[sp,#0x10]
        0x00018724:    8980        ..      LDRH     r0,[r0,#0xc]
        0x00018726:    b138        8.      CBZ      r0,0x18738 ; _data_stage_xact + 104
        0x00018728:    e7ff        ..      B        0x1872a ; _data_stage_xact + 90
        0x0001872a:    f24000d0    @...    MOVW     r0,#0xd0
        0x0001872e:    f2c10000    ....    MOVT     r0,#0x1000
        0x00018732:    6880        .h      LDR      r0,[r0,#8]
        0x00018734:    9001        ..      STR      r0,[sp,#4]
        0x00018736:    e002        ..      B        0x1873e ; _data_stage_xact + 110
        0x00018738:    2000        .       MOVS     r0,#0
        0x0001873a:    9001        ..      STR      r0,[sp,#4]
        0x0001873c:    e7ff        ..      B        0x1873e ; _data_stage_xact + 110
        0x0001873e:    9904        ..      LDR      r1,[sp,#0x10]
        0x00018740:    9803        ..      LDR      r0,[sp,#0xc]
        0x00018742:    9a01        ..      LDR      r2,[sp,#4]
        0x00018744:    f24003d0    @...    MOVW     r3,#0xd0
        0x00018748:    f2c10300    ....    MOVT     r3,#0x1000
        0x0001874c:    899b        ..      LDRH     r3,[r3,#0xc]
        0x0001874e:    b2c0        ..      UXTB     r0,r0
        0x00018750:    b2c9        ..      UXTB     r1,r1
        0x00018752:    f003f9d7    ....    BL       dcd_edpt_xfer ; 0x1bb04
        0x00018756:    b006        ..      ADD      sp,sp,#0x18
        0x00018758:    bd80        ..      POP      {r7,pc}
        0x0001875a:    0000        ..      MOVS     r0,r0
    _ff_mod
        0x0001875c:    b081        ..      SUB      sp,sp,#4
        0x0001875e:    f8ad0002    ....    STRH     r0,[sp,#2]
        0x00018762:    f8ad1000    ....    STRH     r1,[sp,#0]
        0x00018766:    e7ff        ..      B        0x18768 ; _ff_mod + 12
        0x00018768:    f8bd0002    ....    LDRH     r0,[sp,#2]
        0x0001876c:    f8bd1000    ....    LDRH     r1,[sp,#0]
        0x00018770:    4288        .B      CMP      r0,r1
        0x00018772:    db08        ..      BLT      0x18786 ; _ff_mod + 42
        0x00018774:    e7ff        ..      B        0x18776 ; _ff_mod + 26
        0x00018776:    f8bd1000    ....    LDRH     r1,[sp,#0]
        0x0001877a:    f8bd0002    ....    LDRH     r0,[sp,#2]
        0x0001877e:    1a40        @.      SUBS     r0,r0,r1
        0x00018780:    f8ad0002    ....    STRH     r0,[sp,#2]
        0x00018784:    e7f0        ..      B        0x18768 ; _ff_mod + 12
        0x00018786:    f8bd0002    ....    LDRH     r0,[sp,#2]
        0x0001878a:    b001        ..      ADD      sp,sp,#4
        0x0001878c:    4770        pG      BX       lr
        0x0001878e:    0000        ..      MOVS     r0,r0
    _ff_pull
        0x00018790:    b580        ..      PUSH     {r7,lr}
        0x00018792:    b084        ..      SUB      sp,sp,#0x10
        0x00018794:    9003        ..      STR      r0,[sp,#0xc]
        0x00018796:    9102        ..      STR      r1,[sp,#8]
        0x00018798:    f8ad2006    ...     STRH     r2,[sp,#6]
        0x0001879c:    9802        ..      LDR      r0,[sp,#8]
        0x0001879e:    9a03        ..      LDR      r2,[sp,#0xc]
        0x000187a0:    6813        .h      LDR      r3,[r2,#0]
        0x000187a2:    f8bd1006    ....    LDRH     r1,[sp,#6]
        0x000187a6:    88d2        ..      LDRH     r2,[r2,#6]
        0x000187a8:    fb013102    ...1    MLA      r1,r1,r2,r3
        0x000187ac:    f7fffe35    ..5.    BL       __aeabi_memcpy ; 0x1841a
        0x000187b0:    b004        ..      ADD      sp,sp,#0x10
        0x000187b2:    bd80        ..      POP      {r7,pc}
    _ff_push
        0x000187b4:    b580        ..      PUSH     {r7,lr}
        0x000187b6:    b084        ..      SUB      sp,sp,#0x10
        0x000187b8:    9003        ..      STR      r0,[sp,#0xc]
        0x000187ba:    9102        ..      STR      r1,[sp,#8]
        0x000187bc:    f8ad2006    ...     STRH     r2,[sp,#6]
        0x000187c0:    9a03        ..      LDR      r2,[sp,#0xc]
        0x000187c2:    6811        .h      LDR      r1,[r2,#0]
        0x000187c4:    f8bd0006    ....    LDRH     r0,[sp,#6]
        0x000187c8:    88d2        ..      LDRH     r2,[r2,#6]
        0x000187ca:    fb001002    ....    MLA      r0,r0,r2,r1
        0x000187ce:    9902        ..      LDR      r1,[sp,#8]
        0x000187d0:    f7fffe23    ..#.    BL       __aeabi_memcpy ; 0x1841a
        0x000187d4:    b004        ..      ADD      sp,sp,#0x10
        0x000187d6:    bd80        ..      POP      {r7,pc}
    _osal_q_lock
        0x000187d8:    b580        ..      PUSH     {r7,lr}
        0x000187da:    b082        ..      SUB      sp,sp,#8
        0x000187dc:    9001        ..      STR      r0,[sp,#4]
        0x000187de:    9801        ..      LDR      r0,[sp,#4]
        0x000187e0:    7800        .x      LDRB     r0,[r0,#0]
        0x000187e2:    2801        .(      CMP      r0,#1
        0x000187e4:    d104        ..      BNE      0x187f0 ; _osal_q_lock + 24
        0x000187e6:    e7ff        ..      B        0x187e8 ; _osal_q_lock + 16
        0x000187e8:    2000        .       MOVS     r0,#0
        0x000187ea:    f003fb37    ..7.    BL       dcd_int_disable ; 0x1be5c
        0x000187ee:    e7ff        ..      B        0x187f0 ; _osal_q_lock + 24
        0x000187f0:    b002        ..      ADD      sp,sp,#8
        0x000187f2:    bd80        ..      POP      {r7,pc}
    _osal_q_unlock
        0x000187f4:    b580        ..      PUSH     {r7,lr}
        0x000187f6:    b082        ..      SUB      sp,sp,#8
        0x000187f8:    9001        ..      STR      r0,[sp,#4]
        0x000187fa:    9801        ..      LDR      r0,[sp,#4]
        0x000187fc:    7800        .x      LDRB     r0,[r0,#0]
        0x000187fe:    2801        .(      CMP      r0,#1
        0x00018800:    d104        ..      BNE      0x1880c ; _osal_q_unlock + 24
        0x00018802:    e7ff        ..      B        0x18804 ; _osal_q_unlock + 16
        0x00018804:    2000        .       MOVS     r0,#0
        0x00018806:    f003fb33    ..3.    BL       dcd_int_enable ; 0x1be70
        0x0001880a:    e7ff        ..      B        0x1880c ; _osal_q_unlock + 24
        0x0001880c:    b002        ..      ADD      sp,sp,#8
        0x0001880e:    bd80        ..      POP      {r7,pc}
    _status_stage_xact
        0x00018810:    b580        ..      PUSH     {r7,lr}
        0x00018812:    b084        ..      SUB      sp,sp,#0x10
        0x00018814:    f88d000f    ....    STRB     r0,[sp,#0xf]
        0x00018818:    9102        ..      STR      r1,[sp,#8]
        0x0001881a:    9802        ..      LDR      r0,[sp,#8]
        0x0001881c:    7801        .x      LDRB     r1,[r0,#0]
        0x0001881e:    2001        .       MOVS     r0,#1
        0x00018820:    ea8010d1    ....    EOR      r0,r0,r1,LSR #7
        0x00018824:    01c0        ..      LSLS     r0,r0,#7
        0x00018826:    f88d0007    ....    STRB     r0,[sp,#7]
        0x0001882a:    f89d1007    ....    LDRB     r1,[sp,#7]
        0x0001882e:    f2400025    @.%.    MOVW     r0,#0x25
        0x00018832:    f2c00002    ....    MOVT     r0,#2
        0x00018836:    f002fc91    ....    BL       am_util_stdio_printf ; 0x1b15c
        0x0001883a:    f89d000f    ....    LDRB     r0,[sp,#0xf]
        0x0001883e:    f89d1007    ....    LDRB     r1,[sp,#7]
        0x00018842:    2300        .#      MOVS     r3,#0
        0x00018844:    461a        .F      MOV      r2,r3
        0x00018846:    f003f95d    ..].    BL       dcd_edpt_xfer ; 0x1bb04
        0x0001884a:    b004        ..      ADD      sp,sp,#0x10
        0x0001884c:    bd80        ..      POP      {r7,pc}
        0x0001884e:    0000        ..      MOVS     r0,r0
    _tu_fifo_correct_read_pointer
        0x00018850:    b580        ..      PUSH     {r7,lr}
        0x00018852:    b082        ..      SUB      sp,sp,#8
        0x00018854:    9001        ..      STR      r0,[sp,#4]
        0x00018856:    f8ad1002    ....    STRH     r1,[sp,#2]
        0x0001885a:    9801        ..      LDR      r0,[sp,#4]
        0x0001885c:    f8bd1002    ....    LDRH     r1,[sp,#2]
        0x00018860:    8882        ..      LDRH     r2,[r0,#4]
        0x00018862:    f002ffe5    ....    BL       backward_pointer ; 0x1b830
        0x00018866:    9901        ..      LDR      r1,[sp,#4]
        0x00018868:    8208        ..      STRH     r0,[r1,#0x10]
        0x0001886a:    b002        ..      ADD      sp,sp,#8
        0x0001886c:    bd80        ..      POP      {r7,pc}
        0x0001886e:    0000        ..      MOVS     r0,r0
    _tu_fifo_count
        0x00018870:    b083        ..      SUB      sp,sp,#0xc
        0x00018872:    9002        ..      STR      r0,[sp,#8]
        0x00018874:    f8ad1006    ....    STRH     r1,[sp,#6]
        0x00018878:    f8ad2004    ...     STRH     r2,[sp,#4]
        0x0001887c:    f8bd0006    ....    LDRH     r0,[sp,#6]
        0x00018880:    f8bd1004    ....    LDRH     r1,[sp,#4]
        0x00018884:    1a40        @.      SUBS     r0,r0,r1
        0x00018886:    f8ad0002    ....    STRH     r0,[sp,#2]
        0x0001888a:    f8bd0004    ....    LDRH     r0,[sp,#4]
        0x0001888e:    f8bd1006    ....    LDRH     r1,[sp,#6]
        0x00018892:    4288        .B      CMP      r0,r1
        0x00018894:    dd08        ..      BLE      0x188a8 ; _tu_fifo_count + 56
        0x00018896:    e7ff        ..      B        0x18898 ; _tu_fifo_count + 40
        0x00018898:    9802        ..      LDR      r0,[sp,#8]
        0x0001889a:    8941        A.      LDRH     r1,[r0,#0xa]
        0x0001889c:    f8bd0002    ....    LDRH     r0,[sp,#2]
        0x000188a0:    1a40        @.      SUBS     r0,r0,r1
        0x000188a2:    f8ad0002    ....    STRH     r0,[sp,#2]
        0x000188a6:    e7ff        ..      B        0x188a8 ; _tu_fifo_count + 56
        0x000188a8:    f8bd0002    ....    LDRH     r0,[sp,#2]
        0x000188ac:    b003        ..      ADD      sp,sp,#0xc
        0x000188ae:    4770        pG      BX       lr
    _tu_fifo_full
        0x000188b0:    b580        ..      PUSH     {r7,lr}
        0x000188b2:    b082        ..      SUB      sp,sp,#8
        0x000188b4:    9001        ..      STR      r0,[sp,#4]
        0x000188b6:    f8ad1002    ....    STRH     r1,[sp,#2]
        0x000188ba:    f8ad2000    ...     STRH     r2,[sp,#0]
        0x000188be:    9801        ..      LDR      r0,[sp,#4]
        0x000188c0:    f8bd1002    ....    LDRH     r1,[sp,#2]
        0x000188c4:    f8bd2000    ...     LDRH     r2,[sp,#0]
        0x000188c8:    f7ffffd2    ....    BL       _tu_fifo_count ; 0x18870
        0x000188cc:    9901        ..      LDR      r1,[sp,#4]
        0x000188ce:    8889        ..      LDRH     r1,[r1,#4]
        0x000188d0:    1a40        @.      SUBS     r0,r0,r1
        0x000188d2:    fab0f080    ....    CLZ      r0,r0
        0x000188d6:    0940        @.      LSRS     r0,r0,#5
        0x000188d8:    b002        ..      ADD      sp,sp,#8
        0x000188da:    bd80        ..      POP      {r7,pc}
    _tu_fifo_peek
        0x000188dc:    b580        ..      PUSH     {r7,lr}
        0x000188de:    b086        ..      SUB      sp,sp,#0x18
        0x000188e0:    9004        ..      STR      r0,[sp,#0x10]
        0x000188e2:    9103        ..      STR      r1,[sp,#0xc]
        0x000188e4:    f8ad200a    ...     STRH     r2,[sp,#0xa]
        0x000188e8:    f8ad3008    ...0    STRH     r3,[sp,#8]
        0x000188ec:    9804        ..      LDR      r0,[sp,#0x10]
        0x000188ee:    f8bd100a    ....    LDRH     r1,[sp,#0xa]
        0x000188f2:    f8bd2008    ...     LDRH     r2,[sp,#8]
        0x000188f6:    f7ffffbb    ....    BL       _tu_fifo_count ; 0x18870
        0x000188fa:    f8ad0006    ....    STRH     r0,[sp,#6]
        0x000188fe:    f8bd0006    ....    LDRH     r0,[sp,#6]
        0x00018902:    9904        ..      LDR      r1,[sp,#0x10]
        0x00018904:    8889        ..      LDRH     r1,[r1,#4]
        0x00018906:    4288        .B      CMP      r0,r1
        0x00018908:    dd0a        ..      BLE      0x18920 ; _tu_fifo_peek + 68
        0x0001890a:    e7ff        ..      B        0x1890c ; _tu_fifo_peek + 48
        0x0001890c:    9804        ..      LDR      r0,[sp,#0x10]
        0x0001890e:    f8bd100a    ....    LDRH     r1,[sp,#0xa]
        0x00018912:    f7ffff9d    ....    BL       _tu_fifo_correct_read_pointer ; 0x18850
        0x00018916:    9804        ..      LDR      r0,[sp,#0x10]
        0x00018918:    8880        ..      LDRH     r0,[r0,#4]
        0x0001891a:    f8ad0006    ....    STRH     r0,[sp,#6]
        0x0001891e:    e7ff        ..      B        0x18920 ; _tu_fifo_peek + 68
        0x00018920:    f8bd0006    ....    LDRH     r0,[sp,#6]
        0x00018924:    b920         .      CBNZ     r0,0x18930 ; _tu_fifo_peek + 84
        0x00018926:    e7ff        ..      B        0x18928 ; _tu_fifo_peek + 76
        0x00018928:    2000        .       MOVS     r0,#0
        0x0001892a:    f88d0017    ....    STRB     r0,[sp,#0x17]
        0x0001892e:    e010        ..      B        0x18952 ; _tu_fifo_peek + 118
        0x00018930:    9804        ..      LDR      r0,[sp,#0x10]
        0x00018932:    f8bd1008    ....    LDRH     r1,[sp,#8]
        0x00018936:    f003fddf    ....    BL       get_relative_pointer ; 0x1c4f8
        0x0001893a:    f8ad0004    ....    STRH     r0,[sp,#4]
        0x0001893e:    9804        ..      LDR      r0,[sp,#0x10]
        0x00018940:    9903        ..      LDR      r1,[sp,#0xc]
        0x00018942:    f8bd2004    ...     LDRH     r2,[sp,#4]
        0x00018946:    f7ffff23    ..#.    BL       _ff_pull ; 0x18790
        0x0001894a:    2001        .       MOVS     r0,#1
        0x0001894c:    f88d0017    ....    STRB     r0,[sp,#0x17]
        0x00018950:    e7ff        ..      B        0x18952 ; _tu_fifo_peek + 118
        0x00018952:    f89d0017    ....    LDRB     r0,[sp,#0x17]
        0x00018956:    b006        ..      ADD      sp,sp,#0x18
        0x00018958:    bd80        ..      POP      {r7,pc}
        0x0001895a:    0000        ..      MOVS     r0,r0
    advance_pointer
        0x0001895c:    b082        ..      SUB      sp,sp,#8
        0x0001895e:    9001        ..      STR      r0,[sp,#4]
        0x00018960:    f8ad1002    ....    STRH     r1,[sp,#2]
        0x00018964:    f8ad2000    ...     STRH     r2,[sp,#0]
        0x00018968:    f8bd0002    ....    LDRH     r0,[sp,#2]
        0x0001896c:    f8bd1000    ....    LDRH     r1,[sp,#0]
        0x00018970:    4401        .D      ADD      r1,r1,r0
        0x00018972:    b289        ..      UXTH     r1,r1
        0x00018974:    4288        .B      CMP      r0,r1
        0x00018976:    dc0b        ..      BGT      0x18990 ; advance_pointer + 52
        0x00018978:    e7ff        ..      B        0x1897a ; advance_pointer + 30
        0x0001897a:    f8bd0002    ....    LDRH     r0,[sp,#2]
        0x0001897e:    f8bd1000    ....    LDRH     r1,[sp,#0]
        0x00018982:    4408        .D      ADD      r0,r0,r1
        0x00018984:    b280        ..      UXTH     r0,r0
        0x00018986:    9901        ..      LDR      r1,[sp,#4]
        0x00018988:    8989        ..      LDRH     r1,[r1,#0xc]
        0x0001898a:    4288        .B      CMP      r0,r1
        0x0001898c:    dd0b        ..      BLE      0x189a6 ; advance_pointer + 74
        0x0001898e:    e7ff        ..      B        0x18990 ; advance_pointer + 52
        0x00018990:    f8bd0002    ....    LDRH     r0,[sp,#2]
        0x00018994:    f8bd1000    ....    LDRH     r1,[sp,#0]
        0x00018998:    4408        .D      ADD      r0,r0,r1
        0x0001899a:    9901        ..      LDR      r1,[sp,#4]
        0x0001899c:    8949        I.      LDRH     r1,[r1,#0xa]
        0x0001899e:    4408        .D      ADD      r0,r0,r1
        0x000189a0:    f8ad0002    ....    STRH     r0,[sp,#2]
        0x000189a4:    e007        ..      B        0x189b6 ; advance_pointer + 90
        0x000189a6:    f8bd1000    ....    LDRH     r1,[sp,#0]
        0x000189aa:    f8bd0002    ....    LDRH     r0,[sp,#2]
        0x000189ae:    4408        .D      ADD      r0,r0,r1
        0x000189b0:    f8ad0002    ....    STRH     r0,[sp,#2]
        0x000189b4:    e7ff        ..      B        0x189b6 ; advance_pointer + 90
        0x000189b6:    f8bd0002    ....    LDRH     r0,[sp,#2]
        0x000189ba:    b002        ..      ADD      sp,sp,#8
        0x000189bc:    4770        pG      BX       lr
    am_bsp_buffered_uart_printf_enable
        0x000189be:    b510        ..      PUSH     {r4,lr}
        0x000189c0:    b082        ..      SUB      sp,sp,#8
        0x000189c2:    f64024b0    @..$    MOVW     r4,#0xab0
        0x000189c6:    f2c10400    ....    MOVT     r4,#0x1000
        0x000189ca:    2000        .       MOVS     r0,#0
        0x000189cc:    4621        !F      MOV      r1,r4
        0x000189ce:    f001f931    ..1.    BL       am_hal_uart_initialize ; 0x19c34
        0x000189d2:    bb80        ..      CBNZ     r0,0x18a36 ; am_bsp_buffered_uart_printf_enable + 120
        0x000189d4:    6820         h      LDR      r0,[r4,#0]
        0x000189d6:    2100        .!      MOVS     r1,#0
        0x000189d8:    2200        ."      MOVS     r2,#0
        0x000189da:    f001f963    ..c.    BL       am_hal_uart_power_control ; 0x19ca4
        0x000189de:    bb50        P.      CBNZ     r0,0x18a36 ; am_bsp_buffered_uart_printf_enable + 120
        0x000189e0:    6820         h      LDR      r0,[r4,#0]
        0x000189e2:    f64f312c    O.,1    MOV      r1,#0xfb2c
        0x000189e6:    f2c00101    ....    MOVT     r1,#1
        0x000189ea:    f001f861    ..a.    BL       am_hal_uart_configure ; 0x19ab0
        0x000189ee:    bb10        ..      CBNZ     r0,0x18a36 ; am_bsp_buffered_uart_printf_enable + 120
        0x000189f0:    6820         h      LDR      r0,[r4,#0]
        0x000189f2:    f64061c4    @..a    MOV      r1,#0xec4
        0x000189f6:    f64023c4    @..#    MOV      r3,#0xac4
        0x000189fa:    f44f6480    O..d    MOV      r4,#0x400
        0x000189fe:    f2c10100    ....    MOVT     r1,#0x1000
        0x00018a02:    f2c10300    ....    MOVT     r3,#0x1000
        0x00018a06:    f44f6280    O..b    MOV      r2,#0x400
        0x00018a0a:    9400        ..      STR      r4,[sp,#0]
        0x00018a0c:    f001f820    .. .    BL       am_hal_uart_buffer_configure ; 0x19a50
        0x00018a10:    b988        ..      CBNZ     r0,0x18a36 ; am_bsp_buffered_uart_printf_enable + 120
        0x00018a12:    f2400034    @.4.    MOVW     r0,#0x34
        0x00018a16:    f2c10000    ....    MOVT     r0,#0x1000
        0x00018a1a:    6801        .h      LDR      r1,[r0,#0]
        0x00018a1c:    200c        .       MOVS     r0,#0xc
        0x00018a1e:    f000fbb9    ....    BL       am_hal_gpio_pinconfig ; 0x19194
        0x00018a22:    b940        @.      CBNZ     r0,0x18a36 ; am_bsp_buffered_uart_printf_enable + 120
        0x00018a24:    f2400030    @.0.    MOVW     r0,#0x30
        0x00018a28:    f2c10000    ....    MOVT     r0,#0x1000
        0x00018a2c:    6801        .h      LDR      r1,[r0,#0]
        0x00018a2e:    202f        /       MOVS     r0,#0x2f
        0x00018a30:    f000fbb0    ....    BL       am_hal_gpio_pinconfig ; 0x19194
        0x00018a34:    b118        ..      CBZ      r0,0x18a3e ; am_bsp_buffered_uart_printf_enable + 128
        0x00018a36:    f04f30ff    O..0    MOV      r0,#0xffffffff
        0x00018a3a:    b002        ..      ADD      sp,sp,#8
        0x00018a3c:    bd10        ..      POP      {r4,pc}
        0x00018a3e:    f64830cd    H..0    MOV      r0,#0x8bcd
        0x00018a42:    f2c00001    ....    MOVT     r0,#1
        0x00018a46:    f002fbb7    ....    BL       am_util_stdio_printf_init ; 0x1b1b8
        0x00018a4a:    f24e400f    N..@    MOV      r0,#0xe40f
        0x00018a4e:    f2ce0000    ....    MOVT     r0,#0xe000
        0x00018a52:    2180        .!      MOVS     r1,#0x80
        0x00018a54:    7001        .p      STRB     r1,[r0,#0]
        0x00018a56:    f24e1000    N...    MOVW     r0,#0xe100
        0x00018a5a:    f2ce0000    ....    MOVT     r0,#0xe000
        0x00018a5e:    f44f4100    O..A    MOV      r1,#0x8000
        0x00018a62:    6001        .`      STR      r1,[r0,#0]
        0x00018a64:    f24060a2    @..`    MOV      r0,#0x6a2
        0x00018a68:    f2c10000    ....    MOVT     r0,#0x1000
        0x00018a6c:    2103        .!      MOVS     r1,#3
        0x00018a6e:    7001        .p      STRB     r1,[r0,#0]
        0x00018a70:    2000        .       MOVS     r0,#0
        0x00018a72:    e7e2        ..      B        0x18a3a ; am_bsp_buffered_uart_printf_enable + 124
    am_bsp_debug_printf_enable
        0x00018a74:    f24060a2    @..`    MOV      r0,#0x6a2
        0x00018a78:    f2c10000    ....    MOVT     r0,#0x1000
        0x00018a7c:    7800        .x      LDRB     r0,[r0,#0]
        0x00018a7e:    2802        .(      CMP      r0,#2
        0x00018a80:    d307        ..      BCC      0x18a92 ; am_bsp_debug_printf_enable + 30
        0x00018a82:    d008        ..      BEQ      0x18a96 ; am_bsp_debug_printf_enable + 34
        0x00018a84:    2803        .(      CMP      r0,#3
        0x00018a86:    bf1c        ..      ITT      NE
        0x00018a88:    f04f30ff    O..0    MOVNE    r0,#0xffffffff
        0x00018a8c:    4770        pG      BXNE     lr
        0x00018a8e:    f7ffbf96    ....    B.W      am_bsp_buffered_uart_printf_enable ; 0x189be
        0x00018a92:    f000b822    ..".    B.W      am_bsp_itm_printf_enable ; 0x18ada
        0x00018a96:    f000b85e    ..^.    B.W      am_bsp_uart_printf_enable ; 0x18b56
    am_bsp_external_vddusb0p9_switch
        0x00018a9a:    b510        ..      PUSH     {r4,lr}
        0x00018a9c:    f240013c    @.<.    MOVW     r1,#0x3c
        0x00018aa0:    f2c10100    ....    MOVT     r1,#0x1000
        0x00018aa4:    6809        .h      LDR      r1,[r1,#0]
        0x00018aa6:    4604        .F      MOV      r4,r0
        0x00018aa8:    200f        .       MOVS     r0,#0xf
        0x00018aaa:    f000fb73    ..s.    BL       am_hal_gpio_pinconfig ; 0x19194
        0x00018aae:    200f        .       MOVS     r0,#0xf
        0x00018ab0:    4621        !F      MOV      r1,r4
        0x00018ab2:    e8bd4010    ...@    POP      {r4,lr}
        0x00018ab6:    f000bb9b    ....    B.W      am_hal_gpio_state_write ; 0x191f0
    am_bsp_external_vddusb33_switch
        0x00018aba:    b510        ..      PUSH     {r4,lr}
        0x00018abc:    f2400140    @.@.    MOVW     r1,#0x40
        0x00018ac0:    f2c10100    ....    MOVT     r1,#0x1000
        0x00018ac4:    6809        .h      LDR      r1,[r1,#0]
        0x00018ac6:    4604        .F      MOV      r4,r0
        0x00018ac8:    200d        .       MOVS     r0,#0xd
        0x00018aca:    f000fb63    ..c.    BL       am_hal_gpio_pinconfig ; 0x19194
        0x00018ace:    200d        .       MOVS     r0,#0xd
        0x00018ad0:    4621        !F      MOV      r1,r4
        0x00018ad2:    e8bd4010    ...@    POP      {r4,lr}
        0x00018ad6:    f000bb8b    ....    B.W      am_hal_gpio_state_write ; 0x191f0
    am_bsp_itm_printf_enable
        0x00018ada:    b580        ..      PUSH     {r7,lr}
        0x00018adc:    b082        ..      SUB      sp,sp,#8
        0x00018ade:    f2410008    A...    MOV      r0,#0x1008
        0x00018ae2:    f2c40002    ....    MOVT     r0,#0x4002
        0x00018ae6:    6800        .h      LDR      r0,[r0,#0]
        0x00018ae8:    02c0        ..      LSLS     r0,r0,#11
        0x00018aea:    d512        ..      BPL      0x18b12 ; am_bsp_itm_printf_enable + 56
        0x00018aec:    f640207c    @.|     MOV      r0,#0xa7c
        0x00018af0:    f2c4000c    ....    MOVT     r0,#0x400c
        0x00018af4:    6800        .h      LDR      r0,[r0,#0]
        0x00018af6:    07c0        ..      LSLS     r0,r0,#31
        0x00018af8:    d00b        ..      BEQ      0x18b12 ; am_bsp_itm_printf_enable + 56
        0x00018afa:    a801        ..      ADD      r0,sp,#4
        0x00018afc:    f000fa0e    ....    BL       am_hal_dcu_get ; 0x18f1c
        0x00018b00:    f89d0004    ....    LDRB     r0,[sp,#4]
        0x00018b04:    06c0        ..      LSLS     r0,r0,#27
        0x00018b06:    d408        ..      BMI      0x18b1a ; am_bsp_itm_printf_enable + 64
        0x00018b08:    2001        .       MOVS     r0,#1
        0x00018b0a:    2110        .!      MOVS     r1,#0x10
        0x00018b0c:    f000fa54    ..T.    BL       am_hal_dcu_update ; 0x18fb8
        0x00018b10:    b118        ..      CBZ      r0,0x18b1a ; am_bsp_itm_printf_enable + 64
        0x00018b12:    f04f30ff    O..0    MOV      r0,#0xffffffff
        0x00018b16:    b002        ..      ADD      sp,sp,#8
        0x00018b18:    bd80        ..      POP      {r7,pc}
        0x00018b1a:    f24060a2    @..`    MOV      r0,#0x6a2
        0x00018b1e:    f2c10000    ....    MOVT     r0,#0x1000
        0x00018b22:    2101        .!      MOVS     r1,#1
        0x00018b24:    7001        .p      STRB     r1,[r0,#0]
        0x00018b26:    f000fbe3    ....    BL       am_hal_itm_enable ; 0x192f0
        0x00018b2a:    f2442040    D.@     MOV      r0,#0x4240
        0x00018b2e:    f2c0000f    ....    MOVT     r0,#0xf
        0x00018b32:    f000ff57    ..W.    BL       am_hal_tpiu_enable ; 0x199e4
        0x00018b36:    f2400038    @.8.    MOVW     r0,#0x38
        0x00018b3a:    f2c10000    ....    MOVT     r0,#0x1000
        0x00018b3e:    6801        .h      LDR      r1,[r0,#0]
        0x00018b40:    201c        .       MOVS     r0,#0x1c
        0x00018b42:    f000fb27    ..'.    BL       am_hal_gpio_pinconfig ; 0x19194
        0x00018b46:    f2493035    I.50    MOV      r0,#0x9335
        0x00018b4a:    f2c00001    ....    MOVT     r0,#1
        0x00018b4e:    f002fb33    ..3.    BL       am_util_stdio_printf_init ; 0x1b1b8
        0x00018b52:    2000        .       MOVS     r0,#0
        0x00018b54:    e7df        ..      B        0x18b16 ; am_bsp_itm_printf_enable + 60
    am_bsp_uart_printf_enable
        0x00018b56:    b510        ..      PUSH     {r4,lr}
        0x00018b58:    f64024b0    @..$    MOVW     r4,#0xab0
        0x00018b5c:    f2c10400    ....    MOVT     r4,#0x1000
        0x00018b60:    2000        .       MOVS     r0,#0
        0x00018b62:    4621        !F      MOV      r1,r4
        0x00018b64:    f001f866    ..f.    BL       am_hal_uart_initialize ; 0x19c34
        0x00018b68:    b9f8        ..      CBNZ     r0,0x18baa ; am_bsp_uart_printf_enable + 84
        0x00018b6a:    6820         h      LDR      r0,[r4,#0]
        0x00018b6c:    2100        .!      MOVS     r1,#0
        0x00018b6e:    2200        ."      MOVS     r2,#0
        0x00018b70:    f001f898    ....    BL       am_hal_uart_power_control ; 0x19ca4
        0x00018b74:    b9c8        ..      CBNZ     r0,0x18baa ; am_bsp_uart_printf_enable + 84
        0x00018b76:    6820         h      LDR      r0,[r4,#0]
        0x00018b78:    f64f312c    O.,1    MOV      r1,#0xfb2c
        0x00018b7c:    f2c00101    ....    MOVT     r1,#1
        0x00018b80:    f000ff96    ....    BL       am_hal_uart_configure ; 0x19ab0
        0x00018b84:    b988        ..      CBNZ     r0,0x18baa ; am_bsp_uart_printf_enable + 84
        0x00018b86:    f2400034    @.4.    MOVW     r0,#0x34
        0x00018b8a:    f2c10000    ....    MOVT     r0,#0x1000
        0x00018b8e:    6801        .h      LDR      r1,[r0,#0]
        0x00018b90:    200c        .       MOVS     r0,#0xc
        0x00018b92:    f000faff    ....    BL       am_hal_gpio_pinconfig ; 0x19194
        0x00018b96:    b940        @.      CBNZ     r0,0x18baa ; am_bsp_uart_printf_enable + 84
        0x00018b98:    f2400030    @.0.    MOVW     r0,#0x30
        0x00018b9c:    f2c10000    ....    MOVT     r0,#0x1000
        0x00018ba0:    6801        .h      LDR      r1,[r0,#0]
        0x00018ba2:    202f        /       MOVS     r0,#0x2f
        0x00018ba4:    f000faf6    ....    BL       am_hal_gpio_pinconfig ; 0x19194
        0x00018ba8:    b110        ..      CBZ      r0,0x18bb0 ; am_bsp_uart_printf_enable + 90
        0x00018baa:    f04f30ff    O..0    MOV      r0,#0xffffffff
        0x00018bae:    bd10        ..      POP      {r4,pc}
        0x00018bb0:    f24060a2    @..`    MOV      r0,#0x6a2
        0x00018bb4:    f2c10000    ....    MOVT     r0,#0x1000
        0x00018bb8:    2102        .!      MOVS     r1,#2
        0x00018bba:    7001        .p      STRB     r1,[r0,#0]
        0x00018bbc:    f64830cd    H..0    MOV      r0,#0x8bcd
        0x00018bc0:    f2c00001    ....    MOVT     r0,#1
        0x00018bc4:    f002faf8    ....    BL       am_util_stdio_printf_init ; 0x1b1b8
        0x00018bc8:    2000        .       MOVS     r0,#0
        0x00018bca:    bd10        ..      POP      {r4,pc}
    am_bsp_uart_string_print
        0x00018bcc:    b510        ..      PUSH     {r4,lr}
        0x00018bce:    b08a        ..      SUB      sp,sp,#0x28
        0x00018bd0:    2400        .$      MOVS     r4,#0
        0x00018bd2:    9409        ..      STR      r4,[sp,#0x24]
        0x00018bd4:    5d01        .]      LDRB     r1,[r0,r4]
        0x00018bd6:    3401        .4      ADDS     r4,#1
        0x00018bd8:    2900        .)      CMP      r1,#0
        0x00018bda:    d1fb        ..      BNE      0x18bd4 ; am_bsp_uart_string_print + 8
        0x00018bdc:    9002        ..      STR      r0,[sp,#8]
        0x00018bde:    1e60        `.      SUBS     r0,r4,#1
        0x00018be0:    9003        ..      STR      r0,[sp,#0xc]
        0x00018be2:    a809        ..      ADD      r0,sp,#0x24
        0x00018be4:    2100        .!      MOVS     r1,#0
        0x00018be6:    9004        ..      STR      r0,[sp,#0x10]
        0x00018be8:    f04f30ff    O..0    MOV      r0,#0xffffffff
        0x00018bec:    e9cd0105    ....    STRD     r0,r1,[sp,#0x14]
        0x00018bf0:    f64020b0    @..     MOVW     r0,#0xab0
        0x00018bf4:    f2c10000    ....    MOVT     r0,#0x1000
        0x00018bf8:    6800        .h      LDR      r0,[r0,#0]
        0x00018bfa:    f88d1004    ....    STRB     r1,[sp,#4]
        0x00018bfe:    9107        ..      STR      r1,[sp,#0x1c]
        0x00018c00:    9108        ..      STR      r1,[sp,#0x20]
        0x00018c02:    a901        ..      ADD      r1,sp,#4
        0x00018c04:    f001f8ac    ....    BL       am_hal_uart_transfer ; 0x19d60
        0x00018c08:    9809        ..      LDR      r0,[sp,#0x24]
        0x00018c0a:    3001        .0      ADDS     r0,#1
        0x00018c0c:    42a0        .B      CMP      r0,r4
        0x00018c0e:    bf04        ..      ITT      EQ
        0x00018c10:    b00a        ..      ADDEQ    sp,sp,#0x28
        0x00018c12:    bd10        ..      POPEQ    {r4,pc}
        0x00018c14:    e7fe        ..      B        0x18c14 ; am_bsp_uart_string_print + 72
    am_hal_cachectrl_config
        0x00018c16:    b5b0        ..      PUSH     {r4,r5,r7,lr}
        0x00018c18:    b082        ..      SUB      sp,sp,#8
        0x00018c1a:    4604        .F      MOV      r4,r0
        0x00018c1c:    f000fb5c    ..\.    BL       am_hal_interrupt_master_disable ; 0x192d8
        0x00018c20:    9001        ..      STR      r0,[sp,#4]
        0x00018c22:    f04f4590    O..E    MOV      r5,#0x48000000
        0x00018c26:    6828        (h      LDR      r0,[r5,#0]
        0x00018c28:    f4207040     .@p    BIC      r0,r0,#0x300
        0x00018c2c:    6028        (`      STR      r0,[r5,#0]
        0x00018c2e:    9801        ..      LDR      r0,[sp,#4]
        0x00018c30:    f000fb5a    ..Z.    BL       am_hal_interrupt_master_set ; 0x192e8
        0x00018c34:    78a1        .x      LDRB     r1,[r4,#2]
        0x00018c36:    7820         x      LDRB     r0,[r4,#0]
        0x00018c38:    7862        bx      LDRB     r2,[r4,#1]
        0x00018c3a:    0049        I.      LSLS     r1,r1,#1
        0x00018c3c:    b2c9        ..      UXTB     r1,r1
        0x00018c3e:    f0020203    ....    AND      r2,r2,#3
        0x00018c42:    f3601107    `...    BFI      r1,r0,#4,#4
        0x00018c46:    ea412002    A..     ORR      r0,r1,r2,LSL #8
        0x00018c4a:    f4401080    @...    ORR      r0,r0,#0x100000
        0x00018c4e:    f4406180    @..a    ORR      r1,r0,#0x400
        0x00018c52:    2000        .       MOVS     r0,#0
        0x00018c54:    6029        )`      STR      r1,[r5,#0]
        0x00018c56:    b002        ..      ADD      sp,sp,#8
        0x00018c58:    bdb0        ..      POP      {r4,r5,r7,pc}
    am_hal_cachectrl_enable
        0x00018c5a:    f04f4090    O..@    MOV      r0,#0x48000000
        0x00018c5e:    6801        .h      LDR      r1,[r0,#0]
        0x00018c60:    f0410101    A...    ORR      r1,r1,#1
        0x00018c64:    6001        .`      STR      r1,[r0,#0]
        0x00018c66:    2108        .!      MOVS     r1,#8
        0x00018c68:    f6c40100    ....    MOVT     r1,#0x4800
        0x00018c6c:    6808        .h      LDR      r0,[r1,#0]
        0x00018c6e:    f0400201    @...    ORR      r2,r0,#1
        0x00018c72:    2000        .       MOVS     r0,#0
        0x00018c74:    600a        .`      STR      r2,[r1,#0]
        0x00018c76:    4770        pG      BX       lr
    am_hal_clkgen_control
        0x00018c78:    b510        ..      PUSH     {r4,lr}
        0x00018c7a:    4602        .F      MOV      r2,r0
        0x00018c7c:    281e        .(      CMP      r0,#0x1e
        0x00018c7e:    f04f0006    O...    MOV      r0,#6
        0x00018c82:    bf88        ..      IT       HI
        0x00018c84:    bd10        ..      POPHI    {r4,pc}
        0x00018c86:    e8dff012    ....    TBH      [pc,r2,LSL #1]
    $d.1
        0x00018c8a:    001f        ..      DCW    31
        0x00018c8c:    00300027    '.0.    DCD    3145767
        0x00018c90:    00400037    7.@.    DCD    4194359
        0x00018c94:    00710068    h.q.    DCD    7405672
        0x00018c98:    00a00091    ....    DCD    10485905
        0x00018c9c:    010d010d    ....    DCD    17629453
        0x00018ca0:    010d010d    ....    DCD    17629453
        0x00018ca4:    010d010d    ....    DCD    17629453
        0x00018ca8:    010d010d    ....    DCD    17629453
        0x00018cac:    010d010d    ....    DCD    17629453
        0x00018cb0:    00b400ac    ....    DCD    11796652
        0x00018cb4:    00c400bc    ....    DCD    12845244
        0x00018cb8:    00d400cb    ....    DCD    13893835
        0x00018cbc:    00e400dc    ....    DCD    14942428
        0x00018cc0:    00f400ec    ....    DCD    15991020
        0x00018cc4:    010400fb    ....    DCD    17039611
    $t.2
        0x00018cc8:    f244000c    D...    MOV      r0,#0x400c
        0x00018ccc:    f2c40000    ....    MOVT     r0,#0x4000
        0x00018cd0:    6801        .h      LDR      r1,[r0,#0]
        0x00018cd2:    f0210180    !...    BIC      r1,r1,#0x80
        0x00018cd6:    e006        ..      B        0x18ce6 ; am_hal_clkgen_control + 110
        0x00018cd8:    f244000c    D...    MOV      r0,#0x400c
        0x00018cdc:    f2c40000    ....    MOVT     r0,#0x4000
        0x00018ce0:    6801        .h      LDR      r1,[r0,#0]
        0x00018ce2:    f0410180    A...    ORR      r1,r1,#0x80
        0x00018ce6:    6001        .`      STR      r1,[r0,#0]
        0x00018ce8:    e0db        ..      B        0x18ea2 ; am_hal_clkgen_control + 554
        0x00018cea:    2900        .)      CMP      r1,#0
        0x00018cec:    f00080dd    ....    BEQ.W    0x18eaa ; am_hal_clkgen_control + 562
        0x00018cf0:    6808        .h      LDR      r0,[r1,#0]
        0x00018cf2:    f0400001    @...    ORR      r0,r0,#1
        0x00018cf6:    e0dc        ..      B        0x18eb2 ; am_hal_clkgen_control + 570
        0x00018cf8:    f244000c    D...    MOV      r0,#0x400c
        0x00018cfc:    f2c40000    ....    MOVT     r0,#0x4000
        0x00018d00:    6941        Ai      LDR      r1,[r0,#0x14]
        0x00018d02:    f0210101    !...    BIC      r1,r1,#1
        0x00018d06:    6141        Aa      STR      r1,[r0,#0x14]
        0x00018d08:    e0cb        ..      B        0x18ea2 ; am_hal_clkgen_control + 554
        0x00018d0a:    f244000c    D...    MOV      r0,#0x400c
        0x00018d0e:    f2c40000    ....    MOVT     r0,#0x4000
        0x00018d12:    6bc2        .k      LDR      r2,[r0,#0x3c]
        0x00018d14:    2402        .$      MOVS     r4,#2
        0x00018d16:    f0220201    "...    BIC      r2,r2,#1
        0x00018d1a:    63c2        .c      STR      r2,[r0,#0x3c]
        0x00018d1c:    6c03        .l      LDR      r3,[r0,#0x40]
        0x00018d1e:    f64452d0    D..R    MOV      r2,#0x4dd0
        0x00018d22:    f0430307    C...    ORR      r3,r3,#7
        0x00018d26:    6403        .d      STR      r3,[r0,#0x40]
        0x00018d28:    6c43        Cl      LDR      r3,[r0,#0x44]
        0x00018d2a:    f2c00262    ..b.    MOVT     r2,#0x62
        0x00018d2e:    f3640301    d...    BFI      r3,r4,#0,#2
        0x00018d32:    6443        Cd      STR      r3,[r0,#0x44]
        0x00018d34:    b121        !.      CBZ      r1,0x18d40 ; am_hal_clkgen_control + 200
        0x00018d36:    6809        .h      LDR      r1,[r1,#0]
        0x00018d38:    2900        .)      CMP      r1,#0
        0x00018d3a:    bf18        ..      IT       NE
        0x00018d3c:    f44f0200    O...    MOVNE    r2,#0x800000
        0x00018d40:    f64f73fc    O..s    MOV      r3,#0xfffc
        0x00018d44:    6c41        Al      LDR      r1,[r0,#0x44]
        0x00018d46:    f6c773ff    ...s    MOVT     r3,#0x7fff
        0x00018d4a:    3307        .3      ADDS     r3,#7
        0x00018d4c:    4019        .@      ANDS     r1,r1,r3
        0x00018d4e:    4311        .C      ORRS     r1,r1,r2
        0x00018d50:    6441        Ad      STR      r1,[r0,#0x44]
        0x00018d52:    6bc1        .k      LDR      r1,[r0,#0x3c]
        0x00018d54:    f0410101    A...    ORR      r1,r1,#1
        0x00018d58:    e006        ..      B        0x18d68 ; am_hal_clkgen_control + 240
        0x00018d5a:    f244000c    D...    MOV      r0,#0x400c
        0x00018d5e:    f2c40000    ....    MOVT     r0,#0x4000
        0x00018d62:    6bc1        .k      LDR      r1,[r0,#0x3c]
        0x00018d64:    f0210101    !...    BIC      r1,r1,#1
        0x00018d68:    63c1        .c      STR      r1,[r0,#0x3c]
        0x00018d6a:    e09a        ..      B        0x18ea2 ; am_hal_clkgen_control + 554
        0x00018d6c:    2900        .)      CMP      r1,#0
        0x00018d6e:    f000809a    ....    BEQ.W    0x18ea6 ; am_hal_clkgen_control + 558
        0x00018d72:    6808        .h      LDR      r0,[r1,#0]
        0x00018d74:    2801        .(      CMP      r0,#1
        0x00018d76:    f0408096    @...    BNE.W    0x18ea6 ; am_hal_clkgen_control + 558
        0x00018d7a:    f244040c    D...    MOV      r4,#0x400c
        0x00018d7e:    f2c40400    ....    MOVT     r4,#0x4000
        0x00018d82:    6960        `i      LDR      r0,[r4,#0x14]
        0x00018d84:    f6464300    F..C    MOVW     r3,#0x6c00
        0x00018d88:    f0200001     ...    BIC      r0,r0,#1
        0x00018d8c:    6160        `a      STR      r0,[r4,#0x14]
        0x00018d8e:    6c20         l      LDR      r0,[r4,#0x40]
        0x00018d90:    f2c023dc    ...#    MOVT     r3,#0x2dc
        0x00018d94:    f0400007    @...    ORR      r0,r0,#7
        0x00018d98:    6420         d      STR      r0,[r4,#0x40]
        0x00018d9a:    684a        Jh      LDR      r2,[r1,#4]
        0x00018d9c:    1e50        P.      SUBS     r0,r2,#1
        0x00018d9e:    4298        .B      CMP      r0,r3
        0x00018da0:    f080808d    ....    BCS.W    0x18ebe ; am_hal_clkgen_control + 582
        0x00018da4:    f44f1c00    O...    MOV      r12,#0x200000
        0x00018da8:    2002        .       MOVS     r0,#2
        0x00018daa:    e091        ..      B        0x18ed0 ; am_hal_clkgen_control + 600
        0x00018dac:    f244000c    D...    MOV      r0,#0x400c
        0x00018db0:    f2c40000    ....    MOVT     r0,#0x4000
        0x00018db4:    6b81        .k      LDR      r1,[r0,#0x38]
        0x00018db6:    0689        ..      LSLS     r1,r1,#26
        0x00018db8:    d473        s.      BMI      0x18ea2 ; am_hal_clkgen_control + 554
        0x00018dba:    6b81        .k      LDR      r1,[r0,#0x38]
        0x00018dbc:    f0410120    A. .    ORR      r1,r1,#0x20
        0x00018dc0:    6381        .c      STR      r1,[r0,#0x38]
        0x00018dc2:    200a        .       MOVS     r0,#0xa
        0x00018dc4:    f000f96e    ..n.    BL       am_hal_delay_us ; 0x190a4
        0x00018dc8:    e06b        k.      B        0x18ea2 ; am_hal_clkgen_control + 554
        0x00018dca:    f244000c    D...    MOV      r0,#0x400c
        0x00018dce:    f2c40000    ....    MOVT     r0,#0x4000
        0x00018dd2:    6b81        .k      LDR      r1,[r0,#0x38]
        0x00018dd4:    0689        ..      LSLS     r1,r1,#26
        0x00018dd6:    d564        d.      BPL      0x18ea2 ; am_hal_clkgen_control + 554
        0x00018dd8:    6b81        .k      LDR      r1,[r0,#0x38]
        0x00018dda:    f0210120    !. .    BIC      r1,r1,#0x20
        0x00018dde:    6381        .c      STR      r1,[r0,#0x38]
        0x00018de0:    e05f        _.      B        0x18ea2 ; am_hal_clkgen_control + 554
        0x00018de2:    f244000c    D...    MOV      r0,#0x400c
        0x00018de6:    f2c40000    ....    MOVT     r0,#0x4000
        0x00018dea:    6f81        .o      LDR      r1,[r0,#0x78]
        0x00018dec:    f0410180    A...    ORR      r1,r1,#0x80
        0x00018df0:    e056        V.      B        0x18ea0 ; am_hal_clkgen_control + 552
        0x00018df2:    f244000c    D...    MOV      r0,#0x400c
        0x00018df6:    f2c40000    ....    MOVT     r0,#0x4000
        0x00018dfa:    6f81        .o      LDR      r1,[r0,#0x78]
        0x00018dfc:    f0210180    !...    BIC      r1,r1,#0x80
        0x00018e00:    e04e        N.      B        0x18ea0 ; am_hal_clkgen_control + 552
        0x00018e02:    f244000c    D...    MOV      r0,#0x400c
        0x00018e06:    f2c40000    ....    MOVT     r0,#0x4000
        0x00018e0a:    6f81        .o      LDR      r1,[r0,#0x78]
        0x00018e0c:    f0210130    !.0.    BIC      r1,r1,#0x30
        0x00018e10:    e046        F.      B        0x18ea0 ; am_hal_clkgen_control + 552
        0x00018e12:    f244000c    D...    MOV      r0,#0x400c
        0x00018e16:    f2c40000    ....    MOVT     r0,#0x4000
        0x00018e1a:    6f81        .o      LDR      r1,[r0,#0x78]
        0x00018e1c:    2201        ."      MOVS     r2,#1
        0x00018e1e:    e005        ..      B        0x18e2c ; am_hal_clkgen_control + 436
        0x00018e20:    f244000c    D...    MOV      r0,#0x400c
        0x00018e24:    f2c40000    ....    MOVT     r0,#0x4000
        0x00018e28:    6f81        .o      LDR      r1,[r0,#0x78]
        0x00018e2a:    2202        ."      MOVS     r2,#2
        0x00018e2c:    f3621105    b...    BFI      r1,r2,#4,#2
        0x00018e30:    e036        6.      B        0x18ea0 ; am_hal_clkgen_control + 552
        0x00018e32:    f244000c    D...    MOV      r0,#0x400c
        0x00018e36:    f2c40000    ....    MOVT     r0,#0x4000
        0x00018e3a:    6f81        .o      LDR      r1,[r0,#0x78]
        0x00018e3c:    f0410130    A.0.    ORR      r1,r1,#0x30
        0x00018e40:    e02e        ..      B        0x18ea0 ; am_hal_clkgen_control + 552
        0x00018e42:    f244000c    D...    MOV      r0,#0x400c
        0x00018e46:    f2c40000    ....    MOVT     r0,#0x4000
        0x00018e4a:    6f81        .o      LDR      r1,[r0,#0x78]
        0x00018e4c:    f0410108    A...    ORR      r1,r1,#8
        0x00018e50:    e026        &.      B        0x18ea0 ; am_hal_clkgen_control + 552
        0x00018e52:    f244000c    D...    MOV      r0,#0x400c
        0x00018e56:    f2c40000    ....    MOVT     r0,#0x4000
        0x00018e5a:    6f81        .o      LDR      r1,[r0,#0x78]
        0x00018e5c:    f0210108    !...    BIC      r1,r1,#8
        0x00018e60:    e01e        ..      B        0x18ea0 ; am_hal_clkgen_control + 552
        0x00018e62:    f244000c    D...    MOV      r0,#0x400c
        0x00018e66:    f2c40000    ....    MOVT     r0,#0x4000
        0x00018e6a:    6f81        .o      LDR      r1,[r0,#0x78]
        0x00018e6c:    f0210103    !...    BIC      r1,r1,#3
        0x00018e70:    e016        ..      B        0x18ea0 ; am_hal_clkgen_control + 552
        0x00018e72:    f244000c    D...    MOV      r0,#0x400c
        0x00018e76:    f2c40000    ....    MOVT     r0,#0x4000
        0x00018e7a:    6f81        .o      LDR      r1,[r0,#0x78]
        0x00018e7c:    2201        ."      MOVS     r2,#1
        0x00018e7e:    e005        ..      B        0x18e8c ; am_hal_clkgen_control + 532
        0x00018e80:    f244000c    D...    MOV      r0,#0x400c
        0x00018e84:    f2c40000    ....    MOVT     r0,#0x4000
        0x00018e88:    6f81        .o      LDR      r1,[r0,#0x78]
        0x00018e8a:    2202        ."      MOVS     r2,#2
        0x00018e8c:    f3620101    b...    BFI      r1,r2,#0,#2
        0x00018e90:    e006        ..      B        0x18ea0 ; am_hal_clkgen_control + 552
        0x00018e92:    f244000c    D...    MOV      r0,#0x400c
        0x00018e96:    f2c40000    ....    MOVT     r0,#0x4000
        0x00018e9a:    6f81        .o      LDR      r1,[r0,#0x78]
        0x00018e9c:    f0410103    A...    ORR      r1,r1,#3
        0x00018ea0:    6781        .g      STR      r1,[r0,#0x78]
        0x00018ea2:    2000        .       MOVS     r0,#0
        0x00018ea4:    bd10        ..      POP      {r4,pc}
        0x00018ea6:    2006        .       MOVS     r0,#6
        0x00018ea8:    bd10        ..      POP      {r4,pc}
        0x00018eaa:    f64b0001    K...    MOV      r0,#0xb801
        0x00018eae:    f2c000a5    ....    MOVT     r0,#0xa5
        0x00018eb2:    f244010c    D...    MOV      r1,#0x400c
        0x00018eb6:    f2c40100    ....    MOVT     r1,#0x4000
        0x00018eba:    6148        Ha      STR      r0,[r1,#0x14]
        0x00018ebc:    e7f1        ..      B        0x18ea2 ; am_hal_clkgen_control + 554
        0x00018ebe:    f24d73ff    M..s    MOV      r3,#0xd7ff
        0x00018ec2:    f2c053b8    ...S    MOVT     r3,#0x5b8
        0x00018ec6:    4298        .B      CMP      r0,r3
        0x00018ec8:    d815        ..      BHI      0x18ef6 ; am_hal_clkgen_control + 638
        0x00018eca:    f44f0c80    O...    MOV      r12,#0x400000
        0x00018ece:    2003        .       MOVS     r0,#3
        0x00018ed0:    6c63        cl      LDR      r3,[r4,#0x44]
        0x00018ed2:    f0230303    #...    BIC      r3,r3,#3
        0x00018ed6:    4418        .D      ADD      r0,r0,r3
        0x00018ed8:    6460        `d      STR      r0,[r4,#0x44]
        0x00018eda:    688b        .h      LDR      r3,[r1,#8]
        0x00018edc:    0850        P.      LSRS     r0,r2,#1
        0x00018ede:    2100        .!      MOVS     r1,#0
        0x00018ee0:    fbec0103    ....    UMLAL    r0,r1,r12,r3
        0x00018ee4:    2300        .#      MOVS     r3,#0
        0x00018ee6:    f7fffa01    ....    BL       __aeabi_uldivmod ; 0x182ec
        0x00018eea:    0f42        B.      LSRS     r2,r0,#29
        0x00018eec:    ea4202c1    B...    ORR      r2,r2,r1,LSL #3
        0x00018ef0:    ea427151    B.Qq    ORR      r1,r2,r1,LSR #29
        0x00018ef4:    b109        ..      CBZ      r1,0x18efa ; am_hal_clkgen_control + 642
        0x00018ef6:    2005        .       MOVS     r0,#5
        0x00018ef8:    bd10        ..      POP      {r4,pc}
        0x00018efa:    f64f72fc    O..r    MOV      r2,#0xfffc
        0x00018efe:    6c61        al      LDR      r1,[r4,#0x44]
        0x00018f00:    f6c772ff    ...r    MOVT     r2,#0x7fff
        0x00018f04:    ea020080    ....    AND      r0,r2,r0,LSL #2
        0x00018f08:    3207        .2      ADDS     r2,#7
        0x00018f0a:    4011        .@      ANDS     r1,r1,r2
        0x00018f0c:    4408        .D      ADD      r0,r0,r1
        0x00018f0e:    6460        `d      STR      r0,[r4,#0x44]
        0x00018f10:    6be0        .k      LDR      r0,[r4,#0x3c]
        0x00018f12:    f0400001    @...    ORR      r0,r0,#1
        0x00018f16:    63e0        .c      STR      r0,[r4,#0x3c]
        0x00018f18:    e7c3        ..      B        0x18ea2 ; am_hal_clkgen_control + 554
        0x00018f1a:    0000        ..      MOVS     r0,r0
    am_hal_dcu_get
        0x00018f1c:    b5b0        ..      PUSH     {r4,r5,r7,lr}
        0x00018f1e:    b084        ..      SUB      sp,sp,#0x10
        0x00018f20:    f2410108    A...    MOV      r1,#0x1008
        0x00018f24:    f2c40102    ....    MOVT     r1,#0x4002
        0x00018f28:    6809        .h      LDR      r1,[r1,#0]
        0x00018f2a:    02c9        ..      LSLS     r1,r1,#11
        0x00018f2c:    d506        ..      BPL      0x18f3c ; am_hal_dcu_get + 32
        0x00018f2e:    f640217c    @.|!    MOV      r1,#0xa7c
        0x00018f32:    f2c4010c    ....    MOVT     r1,#0x400c
        0x00018f36:    6809        .h      LDR      r1,[r1,#0]
        0x00018f38:    07c9        ..      LSLS     r1,r1,#31
        0x00018f3a:    d101        ..      BNE      0x18f40 ; am_hal_dcu_get + 36
        0x00018f3c:    2007        .       MOVS     r0,#7
        0x00018f3e:    e038        8.      B        0x18fb2 ; am_hal_dcu_get + 150
        0x00018f40:    f2400150    @.P.    MOVW     r1,#0x50
        0x00018f44:    f2c10100    ....    MOVT     r1,#0x1000
        0x00018f48:    6809        .h      LDR      r1,[r1,#0]
        0x00018f4a:    f24023b4    @..#    MOVW     r3,#0x2b4
        0x00018f4e:    684a        Jh      LDR      r2,[r1,#4]
        0x00018f50:    f2c10300    ....    MOVT     r3,#0x1000
        0x00018f54:    9201        ..      STR      r2,[sp,#4]
        0x00018f56:    6809        .h      LDR      r1,[r1,#0]
        0x00018f58:    9102        ..      STR      r1,[sp,#8]
        0x00018f5a:    681b        .h      LDR      r3,[r3,#0]
        0x00018f5c:    fa21fc03    !...    LSR      r12,r1,r3
        0x00018f60:    f1c30120    .. .    RSB      r1,r3,#0x20
        0x00018f64:    fa02f101    ....    LSL      r1,r2,r1
        0x00018f68:    ea4c0e01    L...    ORR      lr,r12,r1
        0x00018f6c:    f1b30120    .. .    SUBS     r1,r3,#0x20
        0x00018f70:    bf58        X.      IT       PL
        0x00018f72:    fa22fe01    "...    LSRPL    lr,r2,r1
        0x00018f76:    fa22f203    "...    LSR      r2,r2,r3
        0x00018f7a:    f04f0300    O...    MOV      r3,#0
        0x00018f7e:    f04f0c01    O...    MOV      r12,#1
        0x00018f82:    f04f0100    O...    MOV      r1,#0
        0x00018f86:    bf58        X.      IT       PL
        0x00018f88:    2200        ."      MOVPL    r2,#0
        0x00018f8a:    bf00        ..      NOP      
        0x00018f8c:    f00e0407    ....    AND      r4,lr,#7
        0x00018f90:    fa0cf503    ....    LSL      r5,r12,r3
        0x00018f94:    f0940f05    ....    TEQ      r4,#5
        0x00018f98:    bf08        ..      IT       EQ
        0x00018f9a:    4329        )C      ORREQ    r1,r1,r5
        0x00018f9c:    ea4f05de    O...    LSR      r5,lr,#3
        0x00018fa0:    3301        .3      ADDS     r3,#1
        0x00018fa2:    ea457e42    E.B~    ORR      lr,r5,r2,LSL #29
        0x00018fa6:    2b14        .+      CMP      r3,#0x14
        0x00018fa8:    ea4f02d2    O...    LSR      r2,r2,#3
        0x00018fac:    d1ee        ..      BNE      0x18f8c ; am_hal_dcu_get + 112
        0x00018fae:    6001        .`      STR      r1,[r0,#0]
        0x00018fb0:    2000        .       MOVS     r0,#0
        0x00018fb2:    b004        ..      ADD      sp,sp,#0x10
        0x00018fb4:    bdb0        ..      POP      {r4,r5,r7,pc}
        0x00018fb6:    0000        ..      MOVS     r0,r0
    am_hal_dcu_update
        0x00018fb8:    e92d41f0    -..A    PUSH     {r4-r8,lr}
        0x00018fbc:    b086        ..      SUB      sp,sp,#0x18
        0x00018fbe:    f2410208    A...    MOV      r2,#0x1008
        0x00018fc2:    f2c40202    ....    MOVT     r2,#0x4002
        0x00018fc6:    6812        .h      LDR      r2,[r2,#0]
        0x00018fc8:    02d2        ..      LSLS     r2,r2,#11
        0x00018fca:    d53b        ;.      BPL      0x19044 ; am_hal_dcu_update + 140
        0x00018fcc:    f6402c7c    @.|,    MOV      r12,#0xa7c
        0x00018fd0:    f2c40c0c    ....    MOVT     r12,#0x400c
        0x00018fd4:    f8dc2000    ...     LDR      r2,[r12,#0]
        0x00018fd8:    07d2        ..      LSLS     r2,r2,#31
        0x00018fda:    f04f0207    O...    MOV      r2,#7
        0x00018fde:    d032        2.      BEQ      0x19046 ; am_hal_dcu_update + 142
        0x00018fe0:    f24023b4    @..#    MOVW     r3,#0x2b4
        0x00018fe4:    f2c10300    ....    MOVT     r3,#0x1000
        0x00018fe8:    f8d38000    ....    LDR      r8,[r3,#0]
        0x00018fec:    2500        .%      MOVS     r5,#0
        0x00018fee:    2300        .#      MOVS     r3,#0
        0x00018ff0:    f04f0e00    O...    MOV      lr,#0
        0x00018ff4:    078e        ..      LSLS     r6,r1,#30
        0x00018ff6:    d511        ..      BPL      0x1901c ; am_hal_dcu_update + 100
        0x00018ff8:    eb080605    ....    ADD      r6,r8,r5
        0x00018ffc:    f1c60420    .. .    RSB      r4,r6,#0x20
        0x00019000:    f1b60720    .. .    SUBS     r7,r6,#0x20
        0x00019004:    fa22f404    "...    LSR      r4,r2,r4
        0x00019008:    fa02f606    ....    LSL      r6,r2,r6
        0x0001900c:    bf58        X.      IT       PL
        0x0001900e:    fa02f407    ....    LSLPL    r4,r2,r7
        0x00019012:    bf58        X.      IT       PL
        0x00019014:    2600        .&      MOVPL    r6,#0
        0x00019016:    ea4e0e04    N...    ORR      lr,lr,r4
        0x0001901a:    4333        3C      ORRS     r3,r3,r6
        0x0001901c:    3503        .5      ADDS     r5,#3
        0x0001901e:    2d3c        <-      CMP      r5,#0x3c
        0x00019020:    ea4f0151    O.Q.    LSR      r1,r1,#1
        0x00019024:    d1e6        ..      BNE      0x18ff4 ; am_hal_dcu_update + 60
        0x00019026:    f2400154    @.T.    MOVW     r1,#0x54
        0x0001902a:    f2c10100    ....    MOVT     r1,#0x1000
        0x0001902e:    6809        .h      LDR      r1,[r1,#0]
        0x00019030:    684a        Jh      LDR      r2,[r1,#4]
        0x00019032:    9201        ..      STR      r2,[sp,#4]
        0x00019034:    6809        .h      LDR      r1,[r1,#0]
        0x00019036:    ea02020e    ....    AND      r2,r2,lr
        0x0001903a:    ea010403    ....    AND      r4,r1,r3
        0x0001903e:    4322        "C      ORRS     r2,r2,r4
        0x00019040:    9102        ..      STR      r1,[sp,#8]
        0x00019042:    d004        ..      BEQ      0x1904e ; am_hal_dcu_update + 150
        0x00019044:    2207        ."      MOVS     r2,#7
        0x00019046:    4610        .F      MOV      r0,r2
        0x00019048:    b006        ..      ADD      sp,sp,#0x18
        0x0001904a:    e8bd81f0    ....    POP      {r4-r8,pc}
        0x0001904e:    f2400150    @.P.    MOVW     r1,#0x50
        0x00019052:    f2c10100    ....    MOVT     r1,#0x1000
        0x00019056:    6809        .h      LDR      r1,[r1,#0]
        0x00019058:    f2400528    @.(.    MOVW     r5,#0x28
        0x0001905c:    684a        Jh      LDR      r2,[r1,#4]
        0x0001905e:    f2400620    @. .    MOVW     r6,#0x20
        0x00019062:    9203        ..      STR      r2,[sp,#0xc]
        0x00019064:    680c        .h      LDR      r4,[r1,#0]
        0x00019066:    f2c10500    ....    MOVT     r5,#0x1000
        0x0001906a:    f2c10600    ....    MOVT     r6,#0x1000
        0x0001906e:    9404        ..      STR      r4,[sp,#0x10]
        0x00019070:    2800        .(      CMP      r0,#0
        0x00019072:    bf18        ..      IT       NE
        0x00019074:    462e        .F      MOVNE    r6,r5
        0x00019076:    e9d65000    ...P    LDRD     r5,r0,[r6,#0]
        0x0001907a:    439c        .C      BICS     r4,r4,r3
        0x0001907c:    ea22020e    "...    BIC      r2,r2,lr
        0x00019080:    402b        +@      ANDS     r3,r3,r5
        0x00019082:    ea00000e    ....    AND      r0,r0,lr
        0x00019086:    4310        .C      ORRS     r0,r0,r2
        0x00019088:    ea430204    C...    ORR      r2,r3,r4
        0x0001908c:    e9cd0203    ....    STRD     r0,r2,[sp,#0xc]
        0x00019090:    9803        ..      LDR      r0,[sp,#0xc]
        0x00019092:    6048        H`      STR      r0,[r1,#4]
        0x00019094:    9804        ..      LDR      r0,[sp,#0x10]
        0x00019096:    6008        .`      STR      r0,[r1,#0]
        0x00019098:    f8dc0000    ....    LDR      r0,[r12,#0]
        0x0001909c:    07c0        ..      LSLS     r0,r0,#31
        0x0001909e:    d0fb        ..      BEQ      0x19098 ; am_hal_dcu_update + 224
        0x000190a0:    2200        ."      MOVS     r2,#0
        0x000190a2:    e7d0        ..      B        0x19046 ; am_hal_dcu_update + 142
    am_hal_delay_us
        0x000190a4:    f2410100    A...    MOVW     r1,#0x1000
        0x000190a8:    f2c40102    ....    MOVT     r1,#0x4002
        0x000190ac:    6809        .h      LDR      r1,[r1,#0]
        0x000190ae:    2205        ."      MOVS     r2,#5
        0x000190b0:    f0010118    ....    AND      r1,r1,#0x18
        0x000190b4:    2910        .)      CMP      r1,#0x10
        0x000190b6:    bf08        ..      IT       EQ
        0x000190b8:    2206        ."      MOVEQ    r2,#6
        0x000190ba:    fa00f002    ....    LSL      r0,r0,r2
        0x000190be:    f04f010f    O...    MOV      r1,#0xf
        0x000190c2:    bf08        ..      IT       EQ
        0x000190c4:    2115        .!      MOVEQ    r1,#0x15
        0x000190c6:    4281        .B      CMP      r1,r0
        0x000190c8:    bf28        (.      IT       CS
        0x000190ca:    4770        pG      BXCS     lr
        0x000190cc:    1a40        @.      SUBS     r0,r0,r1
        0x000190ce:    f64f3104    O..1    MOV      r1,#0xfb04
        0x000190d2:    f2c00101    ....    MOVT     r1,#1
        0x000190d6:    6a49        Ij      LDR      r1,[r1,#0x24]
        0x000190d8:    4708        .G      BX       r1
        0x000190da:    0000        ..      MOVS     r0,r0
    am_hal_delay_us_status_change
        0x000190dc:    e92d43f0    -..C    PUSH     {r4-r9,lr}
        0x000190e0:    b081        ..      SUB      sp,sp,#4
        0x000190e2:    460d        .F      MOV      r5,r1
        0x000190e4:    6809        .h      LDR      r1,[r1,#0]
        0x000190e6:    4011        .@      ANDS     r1,r1,r2
        0x000190e8:    4299        .B      CMP      r1,r3
        0x000190ea:    d01b        ..      BEQ      0x19124 ; am_hal_delay_us_status_change + 72
        0x000190ec:    f64f3104    O..1    MOV      r1,#0xfb04
        0x000190f0:    f2c00101    ....    MOVT     r1,#1
        0x000190f4:    6a4f        Oj      LDR      r7,[r1,#0x24]
        0x000190f6:    f2410900    A...    MOVW     r9,#0x1000
        0x000190fa:    4698        .F      MOV      r8,r3
        0x000190fc:    4616        .F      MOV      r6,r2
        0x000190fe:    1c44        D.      ADDS     r4,r0,#1
        0x00019100:    f2c40902    ....    MOVT     r9,#0x4002
        0x00019104:    3c01        .<      SUBS     r4,#1
        0x00019106:    d00f        ..      BEQ      0x19128 ; am_hal_delay_us_status_change + 76
        0x00019108:    f8d90000    ....    LDR      r0,[r9,#0]
        0x0001910c:    f0000018    ....    AND      r0,r0,#0x18
        0x00019110:    2810        .(      CMP      r0,#0x10
        0x00019112:    f04f0011    O...    MOV      r0,#0x11
        0x00019116:    bf08        ..      IT       EQ
        0x00019118:    202b        +       MOVEQ    r0,#0x2b
        0x0001911a:    47b8        .G      BLX      r7
        0x0001911c:    6828        (h      LDR      r0,[r5,#0]
        0x0001911e:    4030        0@      ANDS     r0,r0,r6
        0x00019120:    4540        @E      CMP      r0,r8
        0x00019122:    d1ef        ..      BNE      0x19104 ; am_hal_delay_us_status_change + 40
        0x00019124:    2000        .       MOVS     r0,#0
        0x00019126:    e000        ..      B        0x1912a ; am_hal_delay_us_status_change + 78
        0x00019128:    2004        .       MOVS     r0,#4
        0x0001912a:    b001        ..      ADD      sp,sp,#4
        0x0001912c:    e8bd83f0    ....    POP      {r4-r9,pc}
    am_hal_delay_us_status_check
        0x00019130:    e92d47f0    -..G    PUSH     {r4-r10,lr}
        0x00019134:    4607        .F      MOV      r7,r0
        0x00019136:    f64f3004    O..0    MOV      r0,#0xfb04
        0x0001913a:    f2c00001    ....    MOVT     r0,#1
        0x0001913e:    f8dd8020    .. .    LDR      r8,[sp,#0x20]
        0x00019142:    6a44        Dj      LDR      r4,[r0,#0x24]
        0x00019144:    f2410a00    A...    MOVW     r10,#0x1000
        0x00019148:    4699        .F      MOV      r9,r3
        0x0001914a:    4615        .F      MOV      r5,r2
        0x0001914c:    460e        .F      MOV      r6,r1
        0x0001914e:    f2c40a02    ....    MOVT     r10,#0x4002
        0x00019152:    bf00        ..      NOP      
        0x00019154:    6830        0h      LDR      r0,[r6,#0]
        0x00019156:    f1b80f00    ....    CMP      r8,#0
        0x0001915a:    ea000005    ....    AND      r0,r0,r5
        0x0001915e:    d003        ..      BEQ      0x19168 ; am_hal_delay_us_status_check + 56
        0x00019160:    4548        HE      CMP      r0,r9
        0x00019162:    d103        ..      BNE      0x1916c ; am_hal_delay_us_status_check + 60
        0x00019164:    e00f        ..      B        0x19186 ; am_hal_delay_us_status_check + 86
        0x00019166:    bf00        ..      NOP      
        0x00019168:    4548        HE      CMP      r0,r9
        0x0001916a:    d10c        ..      BNE      0x19186 ; am_hal_delay_us_status_check + 86
        0x0001916c:    b177        w.      CBZ      r7,0x1918c ; am_hal_delay_us_status_check + 92
        0x0001916e:    f8da0000    ....    LDR      r0,[r10,#0]
        0x00019172:    3f01        .?      SUBS     r7,#1
        0x00019174:    f0000018    ....    AND      r0,r0,#0x18
        0x00019178:    2810        .(      CMP      r0,#0x10
        0x0001917a:    f04f0011    O...    MOV      r0,#0x11
        0x0001917e:    bf08        ..      IT       EQ
        0x00019180:    202b        +       MOVEQ    r0,#0x2b
        0x00019182:    47a0        .G      BLX      r4
        0x00019184:    e7e6        ..      B        0x19154 ; am_hal_delay_us_status_check + 36
        0x00019186:    2000        .       MOVS     r0,#0
        0x00019188:    e8bd87f0    ....    POP      {r4-r10,pc}
        0x0001918c:    2004        .       MOVS     r0,#4
        0x0001918e:    e8bd87f0    ....    POP      {r4-r10,pc}
        0x00019192:    0000        ..      MOVS     r0,r0
    am_hal_gpio_pinconfig
        0x00019194:    b081        ..      SUB      sp,sp,#4
        0x00019196:    287f        .(      CMP      r0,#0x7f
        0x00019198:    9100        ..      STR      r1,[sp,#0]
        0x0001919a:    d901        ..      BLS      0x191a0 ; am_hal_gpio_pinconfig + 12
        0x0001919c:    2005        .       MOVS     r0,#5
        0x0001919e:    e01c        ..      B        0x191da ; am_hal_gpio_pinconfig + 70
        0x000191a0:    0509        ..      LSLS     r1,r1,#20
        0x000191a2:    d508        ..      BPL      0x191b6 ; am_hal_gpio_pinconfig + 34
        0x000191a4:    0941        A.      LSRS     r1,r0,#5
        0x000191a6:    a20e        ..      ADR      r2,{pc}+0x3a ; 0x191e0
        0x000191a8:    f8521021    R.!.    LDR      r1,[r2,r1,LSL #2]
        0x000191ac:    f000021f    ....    AND      r2,r0,#0x1f
        0x000191b0:    40d1        .@      LSRS     r1,r1,r2
        0x000191b2:    07c9        ..      LSLS     r1,r1,#31
        0x000191b4:    d010        ..      BEQ      0x191d8 ; am_hal_gpio_pinconfig + 68
        0x000191b6:    f2402100    @..!    MOVW     r1,#0x200
        0x000191ba:    f2c40101    ....    MOVT     r1,#0x4001
        0x000191be:    2273        s"      MOVS     r2,#0x73
        0x000191c0:    600a        .`      STR      r2,[r1,#0]
        0x000191c2:    9a00        ..      LDR      r2,[sp,#0]
        0x000191c4:    f64f6300    O..c    MOVW     r3,#0xfe00
        0x000191c8:    eb010080    ....    ADD      r0,r1,r0,LSL #2
        0x000191cc:    f6cf73ff    ...s    MOVT     r3,#0xffff
        0x000191d0:    50c2        .P      STR      r2,[r0,r3]
        0x000191d2:    2000        .       MOVS     r0,#0
        0x000191d4:    6008        .`      STR      r0,[r1,#0]
        0x000191d6:    e000        ..      B        0x191da ; am_hal_gpio_pinconfig + 70
        0x000191d8:    2007        .       MOVS     r0,#7
        0x000191da:    b001        ..      ADD      sp,sp,#4
        0x000191dc:    4770        pG      BX       lr
        0x000191de:    bf00        ..      NOP      
    $d.2
    g_ui32DSpintbl
        0x000191e0:    8fc007e0    ....    DCD    2411726816
        0x000191e4:    e3fbffff    ....    DCD    3824943103
        0x000191e8:    01ffffff    ....    DCD    33554431
        0x000191ec:    00000000    ....    DCD    0
    $t.5
    am_hal_gpio_state_write
        0x000191f0:    b510        ..      PUSH     {r4,lr}
        0x000191f2:    b082        ..      SUB      sp,sp,#8
        0x000191f4:    2905        .)      CMP      r1,#5
        0x000191f6:    d86c        l.      BHI      0x192d2 ; am_hal_gpio_state_write + 226
        0x000191f8:    4604        .F      MOV      r4,r0
        0x000191fa:    e8dff001    ....    TBB      [pc,r1]
    $d.6
        0x000191fe:    1203        ..      DCW    4611
        0x00019200:    54453621    !6ET    DCD    1413821985
    $t.7
        0x00019204:    f004001f    ....    AND      r0,r4,#0x1f
        0x00019208:    2101        .!      MOVS     r1,#1
        0x0001920a:    f2402214    @.."    MOVW     r2,#0x214
        0x0001920e:    fa01f000    ....    LSL      r0,r1,r0
        0x00019212:    f3c41141    ..A.    UBFX     r1,r4,#5,#2
        0x00019216:    f2c40201    ....    MOVT     r2,#0x4001
        0x0001921a:    eb020181    ....    ADD      r1,r2,r1,LSL #2
        0x0001921e:    6208        .b      STR      r0,[r1,#0x20]
        0x00019220:    e057        W.      B        0x192d2 ; am_hal_gpio_state_write + 226
        0x00019222:    f004001f    ....    AND      r0,r4,#0x1f
        0x00019226:    2101        .!      MOVS     r1,#1
        0x00019228:    f2402214    @.."    MOVW     r2,#0x214
        0x0001922c:    fa01f000    ....    LSL      r0,r1,r0
        0x00019230:    f3c41141    ..A.    UBFX     r1,r4,#5,#2
        0x00019234:    f2c40201    ....    MOVT     r2,#0x4001
        0x00019238:    eb020181    ....    ADD      r1,r2,r1,LSL #2
        0x0001923c:    6108        .a      STR      r0,[r1,#0x10]
        0x0001923e:    e048        H.      B        0x192d2 ; am_hal_gpio_state_write + 226
        0x00019240:    f000f84a    ..J.    BL       am_hal_interrupt_master_disable ; 0x192d8
        0x00019244:    f2402314    @..#    MOVW     r3,#0x214
        0x00019248:    9001        ..      STR      r0,[sp,#4]
        0x0001924a:    f3c41241    ..A.    UBFX     r2,r4,#5,#2
        0x0001924e:    f2c40301    ....    MOVT     r3,#0x4001
        0x00019252:    f004001f    ....    AND      r0,r4,#0x1f
        0x00019256:    2101        .!      MOVS     r1,#1
        0x00019258:    f8534022    S."@    LDR      r4,[r3,r2,LSL #2]
        0x0001925c:    fa01f000    ....    LSL      r0,r1,r0
        0x00019260:    4060        `@      EORS     r0,r0,r4
        0x00019262:    f8430022    C.".    STR      r0,[r3,r2,LSL #2]
        0x00019266:    9801        ..      LDR      r0,[sp,#4]
        0x00019268:    e031        1.      B        0x192ce ; am_hal_gpio_state_write + 222
        0x0001926a:    f004001f    ....    AND      r0,r4,#0x1f
        0x0001926e:    2101        .!      MOVS     r1,#1
        0x00019270:    f2402214    @.."    MOVW     r2,#0x214
        0x00019274:    fa01f000    ....    LSL      r0,r1,r0
        0x00019278:    f3c41141    ..A.    UBFX     r1,r4,#5,#2
        0x0001927c:    f2c40201    ....    MOVT     r2,#0x4001
        0x00019280:    eb020181    ....    ADD      r1,r2,r1,LSL #2
        0x00019284:    6508        .e      STR      r0,[r1,#0x50]
        0x00019286:    e024        $.      B        0x192d2 ; am_hal_gpio_state_write + 226
        0x00019288:    f004001f    ....    AND      r0,r4,#0x1f
        0x0001928c:    2101        .!      MOVS     r1,#1
        0x0001928e:    f2402214    @.."    MOVW     r2,#0x214
        0x00019292:    fa01f000    ....    LSL      r0,r1,r0
        0x00019296:    f3c41141    ..A.    UBFX     r1,r4,#5,#2
        0x0001929a:    f2c40201    ....    MOVT     r2,#0x4001
        0x0001929e:    eb020181    ....    ADD      r1,r2,r1,LSL #2
        0x000192a2:    6408        .d      STR      r0,[r1,#0x40]
        0x000192a4:    e015        ..      B        0x192d2 ; am_hal_gpio_state_write + 226
        0x000192a6:    f000f817    ....    BL       am_hal_interrupt_master_disable ; 0x192d8
        0x000192aa:    f2402314    @..#    MOVW     r3,#0x214
        0x000192ae:    f3c41241    ..A.    UBFX     r2,r4,#5,#2
        0x000192b2:    f2c40301    ....    MOVT     r3,#0x4001
        0x000192b6:    9000        ..      STR      r0,[sp,#0]
        0x000192b8:    eb030282    ....    ADD      r2,r3,r2,LSL #2
        0x000192bc:    f004001f    ....    AND      r0,r4,#0x1f
        0x000192c0:    2101        .!      MOVS     r1,#1
        0x000192c2:    6b13        .k      LDR      r3,[r2,#0x30]
        0x000192c4:    fa01f000    ....    LSL      r0,r1,r0
        0x000192c8:    4058        X@      EORS     r0,r0,r3
        0x000192ca:    6310        .c      STR      r0,[r2,#0x30]
        0x000192cc:    9800        ..      LDR      r0,[sp,#0]
        0x000192ce:    f000f80b    ....    BL       am_hal_interrupt_master_set ; 0x192e8
        0x000192d2:    2000        .       MOVS     r0,#0
        0x000192d4:    b002        ..      ADD      sp,sp,#8
        0x000192d6:    bd10        ..      POP      {r4,pc}
    am_hal_interrupt_master_disable
        0x000192d8:    f3ef8010    ....    MRS      r0,PRIMASK
        0x000192dc:    b672        r.      CPSID    i
        0x000192de:    4770        pG      BX       lr
    am_hal_interrupt_master_enable
        0x000192e0:    f3ef8010    ....    MRS      r0,PRIMASK
        0x000192e4:    b662        b.      CPSIE    i
        0x000192e6:    4770        pG      BX       lr
    am_hal_interrupt_master_set
        0x000192e8:    f3808810    ....    MSR      PRIMASK,r0
        0x000192ec:    4770        pG      BX       lr
        0x000192ee:    0000        ..      MOVS     r0,r0
    am_hal_itm_enable
        0x000192f0:    f64e50fc    N..P    MOV      r0,#0xedfc
        0x000192f4:    f2ce0000    ....    MOVT     r0,#0xe000
        0x000192f8:    6801        .h      LDR      r1,[r0,#0]
        0x000192fa:    f0417180    A..q    ORR      r1,r1,#0x1000000
        0x000192fe:    6001        .`      STR      r1,[r0,#0]
        0x00019300:    6801        .h      LDR      r1,[r0,#0]
        0x00019302:    01c9        ..      LSLS     r1,r1,#7
        0x00019304:    d5fc        ..      BPL      0x19300 ; am_hal_itm_enable + 16
        0x00019306:    f6406000    @..`    MOVW     r0,#0xe00
        0x0001930a:    f64c6155    L.Ua    MOV      r1,#0xce55
        0x0001930e:    f2ce0000    ....    MOVT     r0,#0xe000
        0x00019312:    f2cc51ac    ...Q    MOVT     r1,#0xc5ac
        0x00019316:    f8c011b0    ....    STR      r1,[r0,#0x1b0]
        0x0001931a:    210f        .!      MOVS     r1,#0xf
        0x0001931c:    6401        .d      STR      r1,[r0,#0x40]
        0x0001931e:    f04f31ff    O..1    MOV      r1,#0xffffffff
        0x00019322:    6001        .`      STR      r1,[r0,#0]
        0x00019324:    f2405111    @..Q    MOV      r1,#0x511
        0x00019328:    f2c00115    ....    MOVT     r1,#0x15
        0x0001932c:    f8c01080    ....    STR      r1,[r0,#0x80]
        0x00019330:    4770        pG      BX       lr
        0x00019332:    0000        ..      MOVS     r0,r0
    am_hal_itm_print
        0x00019334:    2100        .!      MOVS     r1,#0
        0x00019336:    bf00        ..      NOP      
        0x00019338:    5c42        B\      LDRB     r2,[r0,r1]
        0x0001933a:    3101        .1      ADDS     r1,#1
        0x0001933c:    2a00        .*      CMP      r2,#0
        0x0001933e:    d1fb        ..      BNE      0x19338 ; am_hal_itm_print + 4
        0x00019340:    3901        .9      SUBS     r1,#1
        0x00019342:    bf08        ..      IT       EQ
        0x00019344:    4770        pG      BXEQ     lr
        0x00019346:    f04f4260    O.`B    MOV      r2,#0xe0000000
        0x0001934a:    bf00        ..      NOP      
        0x0001934c:    f890c000    ....    LDRB     r12,[r0,#0]
        0x00019350:    6813        .h      LDR      r3,[r2,#0]
        0x00019352:    2b00        .+      CMP      r3,#0
        0x00019354:    d0fc        ..      BEQ      0x19350 ; am_hal_itm_print + 28
        0x00019356:    3001        .0      ADDS     r0,#1
        0x00019358:    3901        .9      SUBS     r1,#1
        0x0001935a:    f882c000    ....    STRB     r12,[r2,#0]
        0x0001935e:    d1f5        ..      BNE      0x1934c ; am_hal_itm_print + 24
        0x00019360:    4770        pG      BX       lr
        0x00019362:    0000        ..      MOVS     r0,r0
    am_hal_mcuctrl_control
        0x00019364:    b570        p.      PUSH     {r4-r6,lr}
        0x00019366:    b082        ..      SUB      sp,sp,#8
        0x00019368:    2805        .(      CMP      r0,#5
        0x0001936a:    f2008148    ..H.    BHI.W    0x195fe ; am_hal_mcuctrl_control + 666
        0x0001936e:    460c        .F      MOV      r4,r1
        0x00019370:    e8dff010    ....    TBH      [pc,r0,LSL #1]
    $d.2
        0x00019374:    00170006    ....    DCD    1507334
        0x00019378:    0092002c    ,...    DCD    9568300
        0x0001937c:    013400e6    ..4.    DCD    20185318
    $t.3
        0x00019380:    f7ffffaa    ....    BL       am_hal_interrupt_master_disable ; 0x192d8
        0x00019384:    9000        ..      STR      r0,[sp,#0]
        0x00019386:    f2401020    @. .    MOVW     r0,#0x120
        0x0001938a:    f2c40002    ....    MOVT     r0,#0x4002
        0x0001938e:    6801        .h      LDR      r1,[r0,#0]
        0x00019390:    9101        ..      STR      r1,[sp,#4]
        0x00019392:    9901        ..      LDR      r1,[sp,#4]
        0x00019394:    f021011f    !...    BIC      r1,r1,#0x1f
        0x00019398:    9101        ..      STR      r1,[sp,#4]
        0x0001939a:    9901        ..      LDR      r1,[sp,#4]
        0x0001939c:    f0410119    A...    ORR      r1,r1,#0x19
        0x000193a0:    e00f        ..      B        0x193c2 ; am_hal_mcuctrl_control + 94
        0x000193a2:    f7ffff99    ....    BL       am_hal_interrupt_master_disable ; 0x192d8
        0x000193a6:    9000        ..      STR      r0,[sp,#0]
        0x000193a8:    f2401020    @. .    MOVW     r0,#0x120
        0x000193ac:    f2c40002    ....    MOVT     r0,#0x4002
        0x000193b0:    6801        .h      LDR      r1,[r0,#0]
        0x000193b2:    9101        ..      STR      r1,[sp,#4]
        0x000193b4:    9901        ..      LDR      r1,[sp,#4]
        0x000193b6:    f021011f    !...    BIC      r1,r1,#0x1f
        0x000193ba:    9101        ..      STR      r1,[sp,#4]
        0x000193bc:    9901        ..      LDR      r1,[sp,#4]
        0x000193be:    f0410118    A...    ORR      r1,r1,#0x18
        0x000193c2:    9101        ..      STR      r1,[sp,#4]
        0x000193c4:    9901        ..      LDR      r1,[sp,#4]
        0x000193c6:    6001        .`      STR      r1,[r0,#0]
        0x000193c8:    9800        ..      LDR      r0,[sp,#0]
        0x000193ca:    e103        ..      B        0x195d4 ; am_hal_mcuctrl_control + 624
        0x000193cc:    2c00        .,      CMP      r4,#0
        0x000193ce:    f0008116    ....    BEQ.W    0x195fe ; am_hal_mcuctrl_control + 666
        0x000193d2:    f2401520    @. .    MOVW     r5,#0x120
        0x000193d6:    f2c40502    ....    MOVT     r5,#0x4002
        0x000193da:    f7ffff7d    ..}.    BL       am_hal_interrupt_master_disable ; 0x192d8
        0x000193de:    9001        ..      STR      r0,[sp,#4]
        0x000193e0:    f2402ca8    @..,    MOVW     r12,#0x2a8
        0x000193e4:    f2c10c00    ....    MOVT     r12,#0x1000
        0x000193e8:    7922        "y      LDRB     r2,[r4,#4]
        0x000193ea:    f8dc1000    ....    LDR      r1,[r12,#0]
        0x000193ee:    b1aa        ..      CBZ      r2,0x1941c ; am_hal_mcuctrl_control + 184
        0x000193f0:    6822        "h      LDR      r2,[r4,#0]
        0x000193f2:    79e3        .y      LDRB     r3,[r4,#7]
        0x000193f4:    ea420001    B...    ORR      r0,r2,r1
        0x000193f8:    2b00        .+      CMP      r3,#0
        0x000193fa:    f8cc0000    ....    STR      r0,[r12,#0]
        0x000193fe:    f8dc0004    ....    LDR      r0,[r12,#4]
        0x00019402:    bf0c        ..      ITE      EQ
        0x00019404:    ea200202     ...    BICEQ    r2,r0,r2
        0x00019408:    4302        .C      ORRNE    r2,r2,r0
        0x0001940a:    f8cc2004    ...     STR      r2,[r12,#4]
        0x0001940e:    68e8        .h      LDR      r0,[r5,#0xc]
        0x00019410:    2a00        .*      CMP      r2,#0
        0x00019412:    f0200080     ...    BIC      r0,r0,#0x80
        0x00019416:    bf18        ..      IT       NE
        0x00019418:    3080        .0      ADDNE    r0,r0,#0x80
        0x0001941a:    60e8        .`      STR      r0,[r5,#0xc]
        0x0001941c:    b911        ..      CBNZ     r1,0x19424 ; am_hal_mcuctrl_control + 192
        0x0001941e:    f8dc0000    ....    LDR      r0,[r12,#0]
        0x00019422:    b918        ..      CBNZ     r0,0x1942c ; am_hal_mcuctrl_control + 200
        0x00019424:    79a0        .y      LDRB     r0,[r4,#6]
        0x00019426:    2800        .(      CMP      r0,#0
        0x00019428:    f00080d3    ....    BEQ.W    0x195d2 ; am_hal_mcuctrl_control + 622
        0x0001942c:    2001        .       MOVS     r0,#1
        0x0001942e:    f88c0008    ....    STRB     r0,[r12,#8]
        0x00019432:    f2400048    @.H.    MOVW     r0,#0x48
        0x00019436:    f240014c    @.L.    MOVW     r1,#0x4c
        0x0001943a:    f2c10000    ....    MOVT     r0,#0x1000
        0x0001943e:    f2c10100    ....    MOVT     r1,#0x1000
        0x00019442:    6800        .h      LDR      r0,[r0,#0]
        0x00019444:    6809        .h      LDR      r1,[r1,#0]
        0x00019446:    f000003f    ..?.    AND      r0,r0,#0x3f
        0x0001944a:    f001010f    ....    AND      r1,r1,#0xf
        0x0001944e:    ea401081    @...    ORR      r0,r0,r1,LSL #6
        0x00019452:    f6484100    H..A    MOVW     r1,#0x8c00
        0x00019456:    f6c071ff    ...q    MOVT     r1,#0xfff
        0x0001945a:    4308        .C      ORRS     r0,r0,r1
        0x0001945c:    60a8        .`      STR      r0,[r5,#8]
        0x0001945e:    68e8        .h      LDR      r0,[r5,#0xc]
        0x00019460:    f0200022     .".    BIC      r0,r0,#0x22
        0x00019464:    1c81        ..      ADDS     r1,r0,#2
        0x00019466:    60e9        .`      STR      r1,[r5,#0xc]
        0x00019468:    f0400103    @...    ORR      r1,r0,#3
        0x0001946c:    60e9        .`      STR      r1,[r5,#0xc]
        0x0001946e:    f0400113    @...    ORR      r1,r0,#0x13
        0x00019472:    f040001b    @...    ORR      r0,r0,#0x1b
        0x00019476:    60e9        .`      STR      r1,[r5,#0xc]
        0x00019478:    60e8        .`      STR      r0,[r5,#0xc]
        0x0001947a:    2005        .       MOVS     r0,#5
        0x0001947c:    f7fffe12    ....    BL       am_hal_delay_us ; 0x190a4
        0x00019480:    68e8        .h      LDR      r0,[r5,#0xc]
        0x00019482:    7961        ay      LDRB     r1,[r4,#5]
        0x00019484:    f4407280    @..r    ORR      r2,r0,#0x100
        0x00019488:    f0220219    "...    BIC      r2,r2,#0x19
        0x0001948c:    2900        .)      CMP      r1,#0
        0x0001948e:    bf08        ..      IT       EQ
        0x00019490:    f0200210     ...    BICEQ    r2,r0,#0x10
        0x00019494:    60ea        .`      STR      r2,[r5,#0xc]
        0x00019496:    e09c        ..      B        0x195d2 ; am_hal_mcuctrl_control + 622
        0x00019498:    2c00        .,      CMP      r4,#0
        0x0001949a:    f00080b0    ....    BEQ.W    0x195fe ; am_hal_mcuctrl_control + 666
        0x0001949e:    f2401620    @. .    MOVW     r6,#0x120
        0x000194a2:    f2c40602    ....    MOVT     r6,#0x4002
        0x000194a6:    f7ffff17    ....    BL       am_hal_interrupt_master_disable ; 0x192d8
        0x000194aa:    9001        ..      STR      r0,[sp,#4]
        0x000194ac:    f24020a8    @..     MOVW     r0,#0x2a8
        0x000194b0:    f2c10000    ....    MOVT     r0,#0x1000
        0x000194b4:    7922        "y      LDRB     r2,[r4,#4]
        0x000194b6:    6801        .h      LDR      r1,[r0,#0]
        0x000194b8:    b192        ..      CBZ      r2,0x194e0 ; am_hal_mcuctrl_control + 380
        0x000194ba:    6822        "h      LDR      r2,[r4,#0]
        0x000194bc:    79e3        .y      LDRB     r3,[r4,#7]
        0x000194be:    ea420501    B...    ORR      r5,r2,r1
        0x000194c2:    2b00        .+      CMP      r3,#0
        0x000194c4:    6005        .`      STR      r5,[r0,#0]
        0x000194c6:    6843        Ch      LDR      r3,[r0,#4]
        0x000194c8:    bf0c        ..      ITE      EQ
        0x000194ca:    ea230202    #...    BICEQ    r2,r3,r2
        0x000194ce:    431a        .C      ORRNE    r2,r2,r3
        0x000194d0:    6042        B`      STR      r2,[r0,#4]
        0x000194d2:    68f3        .h      LDR      r3,[r6,#0xc]
        0x000194d4:    2a00        .*      CMP      r2,#0
        0x000194d6:    f0230380    #...    BIC      r3,r3,#0x80
        0x000194da:    bf18        ..      IT       NE
        0x000194dc:    3380        .3      ADDNE    r3,r3,#0x80
        0x000194de:    60f3        .`      STR      r3,[r6,#0xc]
        0x000194e0:    b909        ..      CBNZ     r1,0x194e6 ; am_hal_mcuctrl_control + 386
        0x000194e2:    6800        .h      LDR      r0,[r0,#0]
        0x000194e4:    b910        ..      CBNZ     r0,0x194ec ; am_hal_mcuctrl_control + 392
        0x000194e6:    79a0        .y      LDRB     r0,[r4,#6]
        0x000194e8:    2800        .(      CMP      r0,#0
        0x000194ea:    d072        r.      BEQ      0x195d2 ; am_hal_mcuctrl_control + 622
        0x000194ec:    f2400048    @.H.    MOVW     r0,#0x48
        0x000194f0:    f240014c    @.L.    MOVW     r1,#0x4c
        0x000194f4:    f2c10000    ....    MOVT     r0,#0x1000
        0x000194f8:    f2c10100    ....    MOVT     r1,#0x1000
        0x000194fc:    6800        .h      LDR      r0,[r0,#0]
        0x000194fe:    6809        .h      LDR      r1,[r1,#0]
        0x00019500:    f000003f    ..?.    AND      r0,r0,#0x3f
        0x00019504:    f001010f    ....    AND      r1,r1,#0xf
        0x00019508:    ea401081    @...    ORR      r0,r0,r1,LSL #6
        0x0001950c:    f6484100    H..A    MOVW     r1,#0x8c00
        0x00019510:    f6c071ff    ...q    MOVT     r1,#0xfff
        0x00019514:    4308        .C      ORRS     r0,r0,r1
        0x00019516:    60b0        .`      STR      r0,[r6,#8]
        0x00019518:    68f0        .h      LDR      r0,[r6,#0xc]
        0x0001951a:    f0400122    @.".    ORR      r1,r0,#0x22
        0x0001951e:    60f1        .`      STR      r1,[r6,#0xc]
        0x00019520:    f0400123    @.#.    ORR      r1,r0,#0x23
        0x00019524:    60f1        .`      STR      r1,[r6,#0xc]
        0x00019526:    7961        ay      LDRB     r1,[r4,#5]
        0x00019528:    f4407291    @..r    ORR      r2,r0,#0x122
        0x0001952c:    f0220201    "...    BIC      r2,r2,#1
        0x00019530:    f040000b    @...    ORR      r0,r0,#0xb
        0x00019534:    2900        .)      CMP      r1,#0
        0x00019536:    bf08        ..      IT       EQ
        0x00019538:    f0200220     . .    BICEQ    r2,r0,#0x20
        0x0001953c:    60f2        .`      STR      r2,[r6,#0xc]
        0x0001953e:    e048        H.      B        0x195d2 ; am_hal_mcuctrl_control + 622
        0x00019540:    2c00        .,      CMP      r4,#0
        0x00019542:    d05c        \.      BEQ      0x195fe ; am_hal_mcuctrl_control + 666
        0x00019544:    f2401520    @. .    MOVW     r5,#0x120
        0x00019548:    f2c40502    ....    MOVT     r5,#0x4002
        0x0001954c:    f7fffec4    ....    BL       am_hal_interrupt_master_disable ; 0x192d8
        0x00019550:    9001        ..      STR      r0,[sp,#4]
        0x00019552:    7920         y      LDRB     r0,[r4,#4]
        0x00019554:    b1b8        ..      CBZ      r0,0x19586 ; am_hal_mcuctrl_control + 546
        0x00019556:    f24021a8    @..!    MOVW     r1,#0x2a8
        0x0001955a:    f2c10100    ....    MOVT     r1,#0x1000
        0x0001955e:    6820         h      LDR      r0,[r4,#0]
        0x00019560:    e9d12300    ...#    LDRD     r2,r3,[r1,#0]
        0x00019564:    4382        .C      BICS     r2,r2,r0
        0x00019566:    600a        .`      STR      r2,[r1,#0]
        0x00019568:    79e2        .y      LDRB     r2,[r4,#7]
        0x0001956a:    ea430600    C...    ORR      r6,r3,r0
        0x0001956e:    2a00        .*      CMP      r2,#0
        0x00019570:    bf08        ..      IT       EQ
        0x00019572:    ea230600    #...    BICEQ    r6,r3,r0
        0x00019576:    604e        N`      STR      r6,[r1,#4]
        0x00019578:    68e8        .h      LDR      r0,[r5,#0xc]
        0x0001957a:    2e00        ..      CMP      r6,#0
        0x0001957c:    f0200080     ...    BIC      r0,r0,#0x80
        0x00019580:    bf18        ..      IT       NE
        0x00019582:    3080        .0      ADDNE    r0,r0,#0x80
        0x00019584:    60e8        .`      STR      r0,[r5,#0xc]
        0x00019586:    f24020a8    @..     MOVW     r0,#0x2a8
        0x0001958a:    f2c10000    ....    MOVT     r0,#0x1000
        0x0001958e:    6801        .h      LDR      r1,[r0,#0]
        0x00019590:    b109        ..      CBZ      r1,0x19596 ; am_hal_mcuctrl_control + 562
        0x00019592:    79a1        .y      LDRB     r1,[r4,#6]
        0x00019594:    b1e9        ..      CBZ      r1,0x195d2 ; am_hal_mcuctrl_control + 622
        0x00019596:    2100        .!      MOVS     r1,#0
        0x00019598:    7201        .r      STRB     r1,[r0,#8]
        0x0001959a:    6001        .`      STR      r1,[r0,#0]
        0x0001959c:    f2400048    @.H.    MOVW     r0,#0x48
        0x000195a0:    f240014c    @.L.    MOVW     r1,#0x4c
        0x000195a4:    f2c10000    ....    MOVT     r0,#0x1000
        0x000195a8:    f2c10100    ....    MOVT     r1,#0x1000
        0x000195ac:    6800        .h      LDR      r0,[r0,#0]
        0x000195ae:    6809        .h      LDR      r1,[r1,#0]
        0x000195b0:    f000003f    ..?.    AND      r0,r0,#0x3f
        0x000195b4:    f001010f    ....    AND      r1,r1,#0xf
        0x000195b8:    ea401081    @...    ORR      r0,r0,r1,LSL #6
        0x000195bc:    f0407044    @.Dp    ORR      r0,r0,#0x3100000
        0x000195c0:    f44030f8    @..0    ORR      r0,r0,#0x1f000
        0x000195c4:    60a8        .`      STR      r0,[r5,#8]
        0x000195c6:    68e8        .h      LDR      r0,[r5,#0xc]
        0x000195c8:    f240112b    @.+.    MOV      r1,#0x12b
        0x000195cc:    4388        .C      BICS     r0,r0,r1
        0x000195ce:    3002        .0      ADDS     r0,#2
        0x000195d0:    60e8        .`      STR      r0,[r5,#0xc]
        0x000195d2:    9801        ..      LDR      r0,[sp,#4]
        0x000195d4:    f7fffe88    ....    BL       am_hal_interrupt_master_set ; 0x192e8
        0x000195d8:    2000        .       MOVS     r0,#0
        0x000195da:    e011        ..      B        0x19600 ; am_hal_mcuctrl_control + 668
        0x000195dc:    b17c        |.      CBZ      r4,0x195fe ; am_hal_mcuctrl_control + 666
        0x000195de:    7820         x      LDRB     r0,[r4,#0]
        0x000195e0:    f24021a8    @..!    MOVW     r1,#0x2a8
        0x000195e4:    f2c10100    ....    MOVT     r1,#0x1000
        0x000195e8:    684a        Jh      LDR      r2,[r1,#4]
        0x000195ea:    2800        .(      CMP      r0,#0
        0x000195ec:    f2401020    @. .    MOVW     r0,#0x120
        0x000195f0:    f2c40002    ....    MOVT     r0,#0x4002
        0x000195f4:    d006        ..      BEQ      0x19604 ; am_hal_mcuctrl_control + 672
        0x000195f6:    f4421200    B...    ORR      r2,r2,#0x200000
        0x000195fa:    604a        J`      STR      r2,[r1,#4]
        0x000195fc:    e006        ..      B        0x1960c ; am_hal_mcuctrl_control + 680
        0x000195fe:    2006        .       MOVS     r0,#6
        0x00019600:    b002        ..      ADD      sp,sp,#8
        0x00019602:    bd70        p.      POP      {r4-r6,pc}
        0x00019604:    f4221200    "...    BIC      r2,r2,#0x200000
        0x00019608:    604a        J`      STR      r2,[r1,#4]
        0x0001960a:    b122        ".      CBZ      r2,0x19616 ; am_hal_mcuctrl_control + 690
        0x0001960c:    68c1        .h      LDR      r1,[r0,#0xc]
        0x0001960e:    f0410180    A...    ORR      r1,r1,#0x80
        0x00019612:    60c1        .`      STR      r1,[r0,#0xc]
        0x00019614:    e7e0        ..      B        0x195d8 ; am_hal_mcuctrl_control + 628
        0x00019616:    68c1        .h      LDR      r1,[r0,#0xc]
        0x00019618:    f0210180    !...    BIC      r1,r1,#0x80
        0x0001961c:    e7f9        ..      B        0x19612 ; am_hal_mcuctrl_control + 686
        0x0001961e:    0000        ..      MOVS     r0,r0
    am_hal_mcuctrl_info_get
        0x00019620:    b341        A.      CBZ      r1,0x19674 ; am_hal_mcuctrl_info_get + 84
        0x00019622:    4602        .F      MOV      r2,r0
        0x00019624:    2801        .(      CMP      r0,#1
        0x00019626:    f04f0006    O...    MOV      r0,#6
        0x0001962a:    d025        %.      BEQ      0x19678 ; am_hal_mcuctrl_info_get + 88
        0x0001962c:    2a00        .*      CMP      r2,#0
        0x0001962e:    d17c        |.      BNE      0x1972a ; am_hal_mcuctrl_info_get + 266
        0x00019630:    2000        .       MOVS     r0,#0
        0x00019632:    2200        ."      MOVS     r2,#0
        0x00019634:    7008        .p      STRB     r0,[r1,#0]
        0x00019636:    f2c40202    ....    MOVT     r2,#0x4002
        0x0001963a:    6953        Si      LDR      r3,[r2,#0x14]
        0x0001963c:    f0030303    ....    AND      r3,r3,#3
        0x00019640:    704b        Kp      STRB     r3,[r1,#1]
        0x00019642:    6953        Si      LDR      r3,[r2,#0x14]
        0x00019644:    f3c30381    ....    UBFX     r3,r3,#2,#2
        0x00019648:    708b        .p      STRB     r3,[r1,#2]
        0x0001964a:    6953        Si      LDR      r3,[r2,#0x14]
        0x0001964c:    f3c31380    ....    UBFX     r3,r3,#6,#1
        0x00019650:    70cb        .p      STRB     r3,[r1,#3]
        0x00019652:    6953        Si      LDR      r3,[r2,#0x14]
        0x00019654:    b2db        ..      UXTB     r3,r3
        0x00019656:    09db        ..      LSRS     r3,r3,#7
        0x00019658:    710b        .q      STRB     r3,[r1,#4]
        0x0001965a:    6953        Si      LDR      r3,[r2,#0x14]
        0x0001965c:    f3c32300    ...#    UBFX     r3,r3,#8,#1
        0x00019660:    714b        Kq      STRB     r3,[r1,#5]
        0x00019662:    6953        Si      LDR      r3,[r2,#0x14]
        0x00019664:    f3c32340    ..@#    UBFX     r3,r3,#9,#1
        0x00019668:    718b        .q      STRB     r3,[r1,#6]
        0x0001966a:    6952        Ri      LDR      r2,[r2,#0x14]
        0x0001966c:    f3c22280    ..."    UBFX     r2,r2,#10,#1
        0x00019670:    71ca        .q      STRB     r2,[r1,#7]
        0x00019672:    4770        pG      BX       lr
        0x00019674:    2006        .       MOVS     r0,#6
        0x00019676:    4770        pG      BX       lr
        0x00019678:    2200        ."      MOVS     r2,#0
        0x0001967a:    f2c40202    ....    MOVT     r2,#0x4002
        0x0001967e:    6813        .h      LDR      r3,[r2,#0]
        0x00019680:    600b        .`      STR      r3,[r1,#0]
        0x00019682:    6853        Sh      LDR      r3,[r2,#4]
        0x00019684:    604b        K`      STR      r3,[r1,#4]
        0x00019686:    6893        .h      LDR      r3,[r2,#8]
        0x00019688:    608b        .`      STR      r3,[r1,#8]
        0x0001968a:    68d3        .h      LDR      r3,[r2,#0xc]
        0x0001968c:    60cb        .`      STR      r3,[r1,#0xc]
        0x0001968e:    6913        .i      LDR      r3,[r2,#0x10]
        0x00019690:    610b        .a      STR      r3,[r1,#0x10]
        0x00019692:    6953        Si      LDR      r3,[r2,#0x14]
        0x00019694:    614b        Ka      STR      r3,[r1,#0x14]
        0x00019696:    2301        .#      MOVS     r3,#1
        0x00019698:    618b        .a      STR      r3,[r1,#0x18]
        0x0001969a:    6953        Si      LDR      r3,[r2,#0x14]
        0x0001969c:    ea000053    ..S.    AND      r0,r0,r3,LSR #1
        0x000196a0:    a322        ".      ADR      r3,{pc}+0x8c ; 0x1972c
        0x000196a2:    5a18        .Z      LDRH     r0,[r3,r0]
        0x000196a4:    f64f2330    O.0#    MOV      r3,#0xfa30
        0x000196a8:    0280        ..      LSLS     r0,r0,#10
        0x000196aa:    6288        .b      STR      r0,[r1,#0x28]
        0x000196ac:    f44f20c0    O..     MOV      r0,#0x60000
        0x000196b0:    6208        .b      STR      r0,[r1,#0x20]
        0x000196b2:    6950        Pi      LDR      r0,[r2,#0x14]
        0x000196b4:    6952        Ri      LDR      r2,[r2,#0x14]
        0x000196b6:    f2c00301    ....    MOVT     r3,#1
        0x000196ba:    f0020203    ....    AND      r2,r2,#3
        0x000196be:    f0000003    ....    AND      r0,r0,#3
        0x000196c2:    eb030282    ....    ADD      r2,r3,r2,LSL #2
        0x000196c6:    f8330020    3. .    LDRH     r0,[r3,r0,LSL #2]
        0x000196ca:    8852        R.      LDRH     r2,[r2,#2]
        0x000196cc:    4410        .D      ADD      r0,r0,r2
        0x000196ce:    0280        ..      LSLS     r0,r0,#10
        0x000196d0:    6248        Hb      STR      r0,[r1,#0x24]
        0x000196d2:    f64070e0    @..p    MOVW     r0,#0xfe0
        0x000196d6:    f2cf0000    ....    MOVT     r0,#0xf000
        0x000196da:    6802        .h      LDR      r2,[r0,#0]
        0x000196dc:    b2d2        ..      UXTB     r2,r2
        0x000196de:    62ca        .b      STR      r2,[r1,#0x2c]
        0x000196e0:    6843        Ch      LDR      r3,[r0,#4]
        0x000196e2:    f363220b    c.."    BFI      r2,r3,#8,#4
        0x000196e6:    62ca        .b      STR      r2,[r1,#0x2c]
        0x000196e8:    6842        Bh      LDR      r2,[r0,#4]
        0x000196ea:    f3c21203    ....    UBFX     r2,r2,#4,#4
        0x000196ee:    630a        .c      STR      r2,[r1,#0x30]
        0x000196f0:    6883        .h      LDR      r3,[r0,#8]
        0x000196f2:    f3631207    c...    BFI      r2,r3,#4,#4
        0x000196f6:    630a        .c      STR      r2,[r1,#0x30]
        0x000196f8:    6882        .h      LDR      r2,[r0,#8]
        0x000196fa:    f00202f0    ....    AND      r2,r2,#0xf0
        0x000196fe:    634a        Jc      STR      r2,[r1,#0x34]
        0x00019700:    68c3        .h      LDR      r3,[r0,#0xc]
        0x00019702:    f3c31303    ....    UBFX     r3,r3,#4,#4
        0x00019706:    441a        .D      ADD      r2,r2,r3
        0x00019708:    634a        Jc      STR      r2,[r1,#0x34]
        0x0001970a:    69c2        .i      LDR      r2,[r0,#0x1c]
        0x0001970c:    0612        ..      LSLS     r2,r2,#24
        0x0001970e:    638a        .c      STR      r2,[r1,#0x38]
        0x00019710:    6983        .i      LDR      r3,[r0,#0x18]
        0x00019712:    f3634217    c..B    BFI      r2,r3,#16,#8
        0x00019716:    638a        .c      STR      r2,[r1,#0x38]
        0x00019718:    6943        Ci      LDR      r3,[r0,#0x14]
        0x0001971a:    f363220f    c.."    BFI      r2,r3,#8,#8
        0x0001971e:    638a        .c      STR      r2,[r1,#0x38]
        0x00019720:    6900        .i      LDR      r0,[r0,#0x10]
        0x00019722:    b2c0        ..      UXTB     r0,r0
        0x00019724:    4410        .D      ADD      r0,r0,r2
        0x00019726:    6388        .c      STR      r0,[r1,#0x38]
        0x00019728:    2000        .       MOVS     r0,#0
        0x0001972a:    4770        pG      BX       lr
    $d.6
    g_am_hal_mcuctrl_sku_mram_size
        0x0001972c:    04000200    ....    DCD    67109376
        0x00019730:    08000600    ....    DCD    134219264
    $t.15
    am_hal_pwrctrl_periph_disable
        0x00019734:    e92d43f0    -..C    PUSH     {r4-r9,lr}
        0x00019738:    b083        ..      SUB      sp,sp,#0xc
        0x0001973a:    2821        !(      CMP      r0,#0x21
        0x0001973c:    d901        ..      BLS      0x19742 ; am_hal_pwrctrl_periph_disable + 14
        0x0001973e:    2406        .$      MOVS     r4,#6
        0x00019740:    e083        ..      B        0x1984a ; am_hal_pwrctrl_periph_disable + 278
        0x00019742:    f64f0110    O...    MOV      r1,#0xf810
        0x00019746:    f2c00101    ....    MOVT     r1,#1
        0x0001974a:    0102        ..      LSLS     r2,r0,#4
        0x0001974c:    f8518002    Q...    LDR      r8,[r1,r2]
        0x00019750:    eb011500    ....    ADD      r5,r1,r0,LSL #4
        0x00019754:    686f        oh      LDR      r7,[r5,#4]
        0x00019756:    f8d81000    ....    LDR      r1,[r8,#0]
        0x0001975a:    4239        9B      TST      r1,r7
        0x0001975c:    d074        t.      BEQ      0x19848 ; am_hal_pwrctrl_periph_disable + 276
        0x0001975e:    2814        .(      CMP      r0,#0x14
        0x00019760:    d12c        ,.      BNE      0x197bc ; am_hal_pwrctrl_periph_disable + 136
        0x00019762:    f64076e0    @..v    MOVW     r6,#0xfe0
        0x00019766:    f2c4060c    ....    MOVT     r6,#0x400c
        0x0001976a:    6830        0h      LDR      r0,[r6,#0]
        0x0001976c:    28c0        .(      CMP      r0,#0xc0
        0x0001976e:    d125        %.      BNE      0x197bc ; am_hal_pwrctrl_periph_disable + 136
        0x00019770:    f640297c    @.|)    MOV      r9,#0xa7c
        0x00019774:    f2c4090c    ....    MOVT     r9,#0x400c
        0x00019778:    2064        d       MOVS     r0,#0x64
        0x0001977a:    4649        IF      MOV      r1,r9
        0x0001977c:    2201        ."      MOVS     r2,#1
        0x0001977e:    2301        .#      MOVS     r3,#1
        0x00019780:    f7fffcac    ....    BL       am_hal_delay_us_status_change ; 0x190dc
        0x00019784:    4604        .F      MOV      r4,r0
        0x00019786:    2800        .(      CMP      r0,#0
        0x00019788:    d15f        _.      BNE      0x1984a ; am_hal_pwrctrl_periph_disable + 278
        0x0001978a:    f5066173    ..sa    ADD      r1,r6,#0xf30
        0x0001978e:    2064        d       MOVS     r0,#0x64
        0x00019790:    2201        ."      MOVS     r2,#1
        0x00019792:    2301        .#      MOVS     r3,#1
        0x00019794:    f7fffca2    ....    BL       am_hal_delay_us_status_change ; 0x190dc
        0x00019798:    4604        .F      MOV      r4,r0
        0x0001979a:    2800        .(      CMP      r0,#0
        0x0001979c:    d155        U.      BNE      0x1984a ; am_hal_pwrctrl_periph_disable + 278
        0x0001979e:    f8d90004    ....    LDR      r0,[r9,#4]
        0x000197a2:    f0400001    @...    ORR      r0,r0,#1
        0x000197a6:    f8c90004    ....    STR      r0,[r9,#4]
        0x000197aa:    f64020b4    @..     MOV      r0,#0xab4
        0x000197ae:    f2c10000    ....    MOVT     r0,#0x1000
        0x000197b2:    6801        .h      LDR      r1,[r0,#0]
        0x000197b4:    b111        ..      CBZ      r1,0x197bc ; am_hal_pwrctrl_periph_disable + 136
        0x000197b6:    2000        .       MOVS     r0,#0
        0x000197b8:    f002f8f7    ....    BL       crypto_boost_trims ; 0x1b9aa
        0x000197bc:    e9d56502    ...e    LDRD     r6,r5,[r5,#8]
        0x000197c0:    f7fffd8a    ....    BL       am_hal_interrupt_master_disable ; 0x192d8
        0x000197c4:    9002        ..      STR      r0,[sp,#8]
        0x000197c6:    f8d80000    ....    LDR      r0,[r8,#0]
        0x000197ca:    43b8        .C      BICS     r0,r0,r7
        0x000197cc:    f8c80000    ....    STR      r0,[r8,#0]
        0x000197d0:    9802        ..      LDR      r0,[sp,#8]
        0x000197d2:    f7fffd89    ....    BL       am_hal_interrupt_master_set ; 0x192e8
        0x000197d6:    2400        .$      MOVS     r4,#0
        0x000197d8:    2005        .       MOVS     r0,#5
        0x000197da:    4631        1F      MOV      r1,r6
        0x000197dc:    462a        *F      MOV      r2,r5
        0x000197de:    462b        +F      MOV      r3,r5
        0x000197e0:    9400        ..      STR      r4,[sp,#0]
        0x000197e2:    f7fffca5    ....    BL       am_hal_delay_us_status_check ; 0x19130
        0x000197e6:    b380        ..      CBZ      r0,0x1984a ; am_hal_pwrctrl_periph_disable + 278
        0x000197e8:    f5b57ff0    ....    CMP      r5,#0x1e0
        0x000197ec:    f04f0400    O...    MOV      r4,#0
        0x000197f0:    db0c        ..      BLT      0x1980c ; am_hal_pwrctrl_periph_disable + 216
        0x000197f2:    d014        ..      BEQ      0x1981e ; am_hal_pwrctrl_periph_disable + 234
        0x000197f4:    f5b53fe0    ...?    CMP      r5,#0x1c000
        0x000197f8:    d019        ..      BEQ      0x1982e ; am_hal_pwrctrl_periph_disable + 250
        0x000197fa:    f5b55ff0    ..._    CMP      r5,#0x1e00
        0x000197fe:    d124        $.      BNE      0x1984a ; am_hal_pwrctrl_periph_disable + 278
        0x00019800:    f8d80000    ....    LDR      r0,[r8,#0]
        0x00019804:    f4105ff0    ..._    TST      r0,#0x1e00
        0x00019808:    d11c        ..      BNE      0x19844 ; am_hal_pwrctrl_periph_disable + 272
        0x0001980a:    e01d        ..      B        0x19848 ; am_hal_pwrctrl_periph_disable + 276
        0x0001980c:    2d1e        .-      CMP      r5,#0x1e
        0x0001980e:    d014        ..      BEQ      0x1983a ; am_hal_pwrctrl_periph_disable + 262
        0x00019810:    2dff        .-      CMP      r5,#0xff
        0x00019812:    d11a        ..      BNE      0x1984a ; am_hal_pwrctrl_periph_disable + 278
        0x00019814:    f8d80000    ....    LDR      r0,[r8,#0]
        0x00019818:    0600        ..      LSLS     r0,r0,#24
        0x0001981a:    d113        ..      BNE      0x19844 ; am_hal_pwrctrl_periph_disable + 272
        0x0001981c:    e014        ..      B        0x19848 ; am_hal_pwrctrl_periph_disable + 276
        0x0001981e:    f8d80000    ....    LDR      r0,[r8,#0]
        0x00019822:    f4107ff0    ....    TST      r0,#0x1e0
        0x00019826:    bf18        ..      IT       NE
        0x00019828:    f8d80000    ....    LDRNE    r0,[r8,#0]
        0x0001982c:    e00c        ..      B        0x19848 ; am_hal_pwrctrl_periph_disable + 276
        0x0001982e:    f8d80000    ....    LDR      r0,[r8,#0]
        0x00019832:    f4103fe0    ...?    TST      r0,#0x1c000
        0x00019836:    d105        ..      BNE      0x19844 ; am_hal_pwrctrl_periph_disable + 272
        0x00019838:    e006        ..      B        0x19848 ; am_hal_pwrctrl_periph_disable + 276
        0x0001983a:    f8d80000    ....    LDR      r0,[r8,#0]
        0x0001983e:    f0100f1e    ....    TST      r0,#0x1e
        0x00019842:    d001        ..      BEQ      0x19848 ; am_hal_pwrctrl_periph_disable + 276
        0x00019844:    f8d80000    ....    LDR      r0,[r8,#0]
        0x00019848:    2400        .$      MOVS     r4,#0
        0x0001984a:    4620         F      MOV      r0,r4
        0x0001984c:    b003        ..      ADD      sp,sp,#0xc
        0x0001984e:    e8bd83f0    ....    POP      {r4-r9,pc}
    am_hal_pwrctrl_periph_enable
        0x00019852:    e92d43f0    -..C    PUSH     {r4-r9,lr}
        0x00019856:    b083        ..      SUB      sp,sp,#0xc
        0x00019858:    2821        !(      CMP      r0,#0x21
        0x0001985a:    d901        ..      BLS      0x19860 ; am_hal_pwrctrl_periph_enable + 14
        0x0001985c:    2706        .'      MOVS     r7,#6
        0x0001985e:    e00d        ..      B        0x1987c ; am_hal_pwrctrl_periph_enable + 42
        0x00019860:    4606        .F      MOV      r6,r0
        0x00019862:    f64f0110    O...    MOV      r1,#0xf810
        0x00019866:    f2c00101    ....    MOVT     r1,#1
        0x0001986a:    0132        2.      LSLS     r2,r6,#4
        0x0001986c:    588f        .X      LDR      r7,[r1,r2]
        0x0001986e:    eb011000    ....    ADD      r0,r1,r0,LSL #4
        0x00019872:    6844        Dh      LDR      r4,[r0,#4]
        0x00019874:    6839        9h      LDR      r1,[r7,#0]
        0x00019876:    4221        !B      TST      r1,r4
        0x00019878:    d004        ..      BEQ      0x19884 ; am_hal_pwrctrl_periph_enable + 50
        0x0001987a:    2700        .'      MOVS     r7,#0
        0x0001987c:    4638        8F      MOV      r0,r7
        0x0001987e:    b003        ..      ADD      sp,sp,#0xc
        0x00019880:    e8bd83f0    ....    POP      {r4-r9,pc}
        0x00019884:    e9d09502    ....    LDRD     r9,r5,[r0,#8]
        0x00019888:    f64028b4    @..(    MOV      r8,#0xab4
        0x0001988c:    2e14        ..      CMP      r6,#0x14
        0x0001988e:    f2c10800    ....    MOVT     r8,#0x1000
        0x00019892:    d105        ..      BNE      0x198a0 ; am_hal_pwrctrl_periph_enable + 78
        0x00019894:    f8d81000    ....    LDR      r1,[r8,#0]
        0x00019898:    b111        ..      CBZ      r1,0x198a0 ; am_hal_pwrctrl_periph_enable + 78
        0x0001989a:    2001        .       MOVS     r0,#1
        0x0001989c:    f002f885    ....    BL       crypto_boost_trims ; 0x1b9aa
        0x000198a0:    f7fffd1a    ....    BL       am_hal_interrupt_master_disable ; 0x192d8
        0x000198a4:    9002        ..      STR      r0,[sp,#8]
        0x000198a6:    6838        8h      LDR      r0,[r7,#0]
        0x000198a8:    4320         C      ORRS     r0,r0,r4
        0x000198aa:    6038        8`      STR      r0,[r7,#0]
        0x000198ac:    9802        ..      LDR      r0,[sp,#8]
        0x000198ae:    f7fffd1b    ....    BL       am_hal_interrupt_master_set ; 0x192e8
        0x000198b2:    2701        .'      MOVS     r7,#1
        0x000198b4:    2005        .       MOVS     r0,#5
        0x000198b6:    4649        IF      MOV      r1,r9
        0x000198b8:    462a        *F      MOV      r2,r5
        0x000198ba:    462b        +F      MOV      r3,r5
        0x000198bc:    9700        ..      STR      r7,[sp,#0]
        0x000198be:    f7fffc37    ..7.    BL       am_hal_delay_us_status_check ; 0x19130
        0x000198c2:    b150        P.      CBZ      r0,0x198da ; am_hal_pwrctrl_periph_enable + 136
        0x000198c4:    4607        .F      MOV      r7,r0
        0x000198c6:    2e14        ..      CMP      r6,#0x14
        0x000198c8:    d1d8        ..      BNE      0x1987c ; am_hal_pwrctrl_periph_enable + 42
        0x000198ca:    f8d81000    ....    LDR      r1,[r8,#0]
        0x000198ce:    2900        .)      CMP      r1,#0
        0x000198d0:    d0d4        ..      BEQ      0x1987c ; am_hal_pwrctrl_periph_enable + 42
        0x000198d2:    2000        .       MOVS     r0,#0
        0x000198d4:    f002f869    ..i.    BL       crypto_boost_trims ; 0x1b9aa
        0x000198d8:    e7d0        ..      B        0x1987c ; am_hal_pwrctrl_periph_enable + 42
        0x000198da:    2e14        ..      CMP      r6,#0x14
        0x000198dc:    d10b        ..      BNE      0x198f6 ; am_hal_pwrctrl_periph_enable + 164
        0x000198de:    f6417110    A..q    MOV      r1,#0x1f10
        0x000198e2:    f2c4010c    ....    MOVT     r1,#0x400c
        0x000198e6:    2064        d       MOVS     r0,#0x64
        0x000198e8:    2201        ."      MOVS     r2,#1
        0x000198ea:    2301        .#      MOVS     r3,#1
        0x000198ec:    f7fffbf6    ....    BL       am_hal_delay_us_status_change ; 0x190dc
        0x000198f0:    4607        .F      MOV      r7,r0
        0x000198f2:    2800        .(      CMP      r0,#0
        0x000198f4:    d1c2        ..      BNE      0x1987c ; am_hal_pwrctrl_periph_enable + 42
        0x000198f6:    f8d90000    ....    LDR      r0,[r9,#0]
        0x000198fa:    4028        (@      ANDS     r0,r0,r5
        0x000198fc:    fab0f080    ....    CLZ      r0,r0
        0x00019900:    0947        G.      LSRS     r7,r0,#5
        0x00019902:    e7bb        ..      B        0x1987c ; am_hal_pwrctrl_periph_enable + 42
    am_hal_queue_init
        0x00019904:    f04f0c00    O...    MOV      r12,#0
        0x00019908:    f8c0c000    ....    STR      r12,[r0,#0]
        0x0001990c:    f8c0c004    ....    STR      r12,[r0,#4]
        0x00019910:    f8c0c008    ....    STR      r12,[r0,#8]
        0x00019914:    e9c03203    ...2    STRD     r3,r2,[r0,#0xc]
        0x00019918:    6141        Aa      STR      r1,[r0,#0x14]
        0x0001991a:    4770        pG      BX       lr
    am_hal_queue_item_add
        0x0001991c:    b5f0        ..      PUSH     {r4-r7,lr}
        0x0001991e:    b081        ..      SUB      sp,sp,#4
        0x00019920:    4604        .F      MOV      r4,r0
        0x00019922:    6900        .i      LDR      r0,[r0,#0x10]
        0x00019924:    460d        .F      MOV      r5,r1
        0x00019926:    fb00f702    ....    MUL      r7,r0,r2
        0x0001992a:    f7fffcd5    ....    BL       am_hal_interrupt_master_disable ; 0x192d8
        0x0001992e:    9000        ..      STR      r0,[sp,#0]
        0x00019930:    68e1        .h      LDR      r1,[r4,#0xc]
        0x00019932:    68a0        .h      LDR      r0,[r4,#8]
        0x00019934:    eba10c00    ....    SUB      r12,r1,r0
        0x00019938:    45bc        .E      CMP      r12,r7
        0x0001993a:    d318        ..      BCC      0x1996e ; am_hal_queue_item_add + 82
        0x0001993c:    b1a7        ..      CBZ      r7,0x19968 ; am_hal_queue_item_add + 76
        0x0001993e:    462a        *F      MOV      r2,r5
        0x00019940:    463b        ;F      MOV      r3,r7
        0x00019942:    bf00        ..      NOP      
        0x00019944:    b125        %.      CBZ      r5,0x19950 ; am_hal_queue_item_add + 52
        0x00019946:    7811        .x      LDRB     r1,[r2,#0]
        0x00019948:    6960        `i      LDR      r0,[r4,#0x14]
        0x0001994a:    6826        &h      LDR      r6,[r4,#0]
        0x0001994c:    5581        .U      STRB     r1,[r0,r6]
        0x0001994e:    68e1        .h      LDR      r1,[r4,#0xc]
        0x00019950:    6820         h      LDR      r0,[r4,#0]
        0x00019952:    3b01        .;      SUBS     r3,#1
        0x00019954:    f1000001    ....    ADD      r0,r0,#1
        0x00019958:    fbb0f6f1    ....    UDIV     r6,r0,r1
        0x0001995c:    f1020201    ....    ADD      r2,r2,#1
        0x00019960:    fb060011    ....    MLS      r0,r6,r1,r0
        0x00019964:    6020         `      STR      r0,[r4,#0]
        0x00019966:    d1ed        ..      BNE      0x19944 ; am_hal_queue_item_add + 40
        0x00019968:    68a1        .h      LDR      r1,[r4,#8]
        0x0001996a:    4439        9D      ADD      r1,r1,r7
        0x0001996c:    60a1        .`      STR      r1,[r4,#8]
        0x0001996e:    9800        ..      LDR      r0,[sp,#0]
        0x00019970:    2400        .$      MOVS     r4,#0
        0x00019972:    45bc        .E      CMP      r12,r7
        0x00019974:    bf28        (.      IT       CS
        0x00019976:    2401        .$      MOVCS    r4,#1
        0x00019978:    f7fffcb6    ....    BL       am_hal_interrupt_master_set ; 0x192e8
        0x0001997c:    4620         F      MOV      r0,r4
        0x0001997e:    b001        ..      ADD      sp,sp,#4
        0x00019980:    bdf0        ..      POP      {r4-r7,pc}
        0x00019982:    0000        ..      MOVS     r0,r0
    am_hal_queue_item_get
        0x00019984:    b5f0        ..      PUSH     {r4-r7,lr}
        0x00019986:    b081        ..      SUB      sp,sp,#4
        0x00019988:    4604        .F      MOV      r4,r0
        0x0001998a:    6900        .i      LDR      r0,[r0,#0x10]
        0x0001998c:    460d        .F      MOV      r5,r1
        0x0001998e:    fb00f702    ....    MUL      r7,r0,r2
        0x00019992:    f7fffca1    ....    BL       am_hal_interrupt_master_disable ; 0x192d8
        0x00019996:    9000        ..      STR      r0,[sp,#0]
        0x00019998:    f8d4c008    ....    LDR      r12,[r4,#8]
        0x0001999c:    45bc        .E      CMP      r12,r7
        0x0001999e:    d317        ..      BCC      0x199d0 ; am_hal_queue_item_get + 76
        0x000199a0:    b19f        ..      CBZ      r7,0x199ca ; am_hal_queue_item_get + 70
        0x000199a2:    4629        )F      MOV      r1,r5
        0x000199a4:    463a        :F      MOV      r2,r7
        0x000199a6:    bf00        ..      NOP      
        0x000199a8:    b11d        ..      CBZ      r5,0x199b2 ; am_hal_queue_item_get + 46
        0x000199aa:    6863        ch      LDR      r3,[r4,#4]
        0x000199ac:    6960        `i      LDR      r0,[r4,#0x14]
        0x000199ae:    5cc0        .\      LDRB     r0,[r0,r3]
        0x000199b0:    7008        .p      STRB     r0,[r1,#0]
        0x000199b2:    6860        `h      LDR      r0,[r4,#4]
        0x000199b4:    68e3        .h      LDR      r3,[r4,#0xc]
        0x000199b6:    3001        .0      ADDS     r0,#1
        0x000199b8:    fbb0f6f3    ....    UDIV     r6,r0,r3
        0x000199bc:    3a01        .:      SUBS     r2,#1
        0x000199be:    fb060013    ....    MLS      r0,r6,r3,r0
        0x000199c2:    f1010101    ....    ADD      r1,r1,#1
        0x000199c6:    6060        ``      STR      r0,[r4,#4]
        0x000199c8:    d1ee        ..      BNE      0x199a8 ; am_hal_queue_item_get + 36
        0x000199ca:    68a1        .h      LDR      r1,[r4,#8]
        0x000199cc:    1bc9        ..      SUBS     r1,r1,r7
        0x000199ce:    60a1        .`      STR      r1,[r4,#8]
        0x000199d0:    9800        ..      LDR      r0,[sp,#0]
        0x000199d2:    2400        .$      MOVS     r4,#0
        0x000199d4:    45bc        .E      CMP      r12,r7
        0x000199d6:    bf28        (.      IT       CS
        0x000199d8:    2401        .$      MOVCS    r4,#1
        0x000199da:    f7fffc85    ....    BL       am_hal_interrupt_master_set ; 0x192e8
        0x000199de:    4620         F      MOV      r0,r4
        0x000199e0:    b001        ..      ADD      sp,sp,#4
        0x000199e2:    bdf0        ..      POP      {r4-r7,pc}
    am_hal_tpiu_enable
        0x000199e4:    f24a3280    J..2    MOV      r2,#0xa380
        0x000199e8:    2104        .!      MOVS     r1,#4
        0x000199ea:    f5a04361    ..aC    SUB      r3,r0,#0xe100
        0x000199ee:    f2c0021d    ....    MOVT     r2,#0x1d
        0x000199f2:    f2ce0104    ....    MOVT     r1,#0xe004
        0x000199f6:    f04f0c00    O...    MOV      r12,#0
        0x000199fa:    4293        .B      CMP      r3,r2
        0x000199fc:    f6464300    F..C    MOVW     r3,#0x6c00
        0x00019a00:    f8c1c300    ....    STR      r12,[r1,#0x300]
        0x00019a04:    bf84        ..      ITT      HI
        0x00019a06:    f2442040    D.@     MOVHI    r0,#0x4240
        0x00019a0a:    f2c0000f    ....    MOVTHI   r0,#0xf
        0x00019a0e:    f2c023dc    ...#    MOVT     r3,#0x2dc
        0x00019a12:    fbb3f0f0    ....    UDIV     r0,r3,r0
        0x00019a16:    2201        ."      MOVS     r2,#1
        0x00019a18:    3801        .8      SUBS     r0,#1
        0x00019a1a:    b280        ..      UXTH     r0,r0
        0x00019a1c:    600a        .`      STR      r2,[r1,#0]
        0x00019a1e:    60c8        .`      STR      r0,[r1,#0xc]
        0x00019a20:    2002        .       MOVS     r0,#2
        0x00019a22:    f8c100ec    ....    STR      r0,[r1,#0xec]
        0x00019a26:    f6407100    @..q    MOVW     r1,#0xf00
        0x00019a2a:    f2ce0104    ....    MOVT     r1,#0xe004
        0x00019a2e:    f8c1c000    ....    STR      r12,[r1,#0]
        0x00019a32:    f2402150    @.P!    MOVW     r1,#0x250
        0x00019a36:    f2c40102    ....    MOVT     r1,#0x4002
        0x00019a3a:    680a        .h      LDR      r2,[r1,#0]
        0x00019a3c:    f3600243    `.C.    BFI      r2,r0,#1,#3
        0x00019a40:    600a        .`      STR      r2,[r1,#0]
        0x00019a42:    6808        .h      LDR      r0,[r1,#0]
        0x00019a44:    f0400201    @...    ORR      r2,r0,#1
        0x00019a48:    2064        d       MOVS     r0,#0x64
        0x00019a4a:    600a        .`      STR      r2,[r1,#0]
        0x00019a4c:    f7ffbb2a    ..*.    B        am_hal_delay_us ; 0x190a4
    am_hal_uart_buffer_configure
        0x00019a50:    b5b0        ..      PUSH     {r4,r5,r7,lr}
        0x00019a52:    b1b0        ..      CBZ      r0,0x19a82 ; am_hal_uart_buffer_configure + 50
        0x00019a54:    4605        .F      MOV      r5,r0
        0x00019a56:    6800        .h      LDR      r0,[r0,#0]
        0x00019a58:    461c        .F      MOV      r4,r3
        0x00019a5a:    4613        .F      MOV      r3,r2
        0x00019a5c:    f6496206    I..b    MOV      r2,#0x9e06
        0x00019a60:    f020407e     .~@    BIC      r0,r0,#0xfe000000
        0x00019a64:    f2c012ea    ....    MOVT     r2,#0x1ea
        0x00019a68:    4290        .B      CMP      r0,r2
        0x00019a6a:    d10a        ..      BNE      0x19a82 ; am_hal_uart_buffer_configure + 50
        0x00019a6c:    b159        Y.      CBZ      r1,0x19a86 ; am_hal_uart_buffer_configure + 54
        0x00019a6e:    b153        S.      CBZ      r3,0x19a86 ; am_hal_uart_buffer_configure + 54
        0x00019a70:    2001        .       MOVS     r0,#1
        0x00019a72:    f885007c    ..|.    STRB     r0,[r5,#0x7c]
        0x00019a76:    f1050080    ....    ADD      r0,r5,#0x80
        0x00019a7a:    2201        ."      MOVS     r2,#1
        0x00019a7c:    f7ffff42    ..B.    BL       am_hal_queue_init ; 0x19904
        0x00019a80:    e004        ..      B        0x19a8c ; am_hal_uart_buffer_configure + 60
        0x00019a82:    2002        .       MOVS     r0,#2
        0x00019a84:    bdb0        ..      POP      {r4,r5,r7,pc}
        0x00019a86:    2000        .       MOVS     r0,#0
        0x00019a88:    f885007c    ..|.    STRB     r0,[r5,#0x7c]
        0x00019a8c:    b164        d.      CBZ      r4,0x19aa8 ; am_hal_uart_buffer_configure + 88
        0x00019a8e:    9b04        ..      LDR      r3,[sp,#0x10]
        0x00019a90:    b153        S.      CBZ      r3,0x19aa8 ; am_hal_uart_buffer_configure + 88
        0x00019a92:    2001        .       MOVS     r0,#1
        0x00019a94:    f8850098    ....    STRB     r0,[r5,#0x98]
        0x00019a98:    f105009c    ....    ADD      r0,r5,#0x9c
        0x00019a9c:    4621        !F      MOV      r1,r4
        0x00019a9e:    2201        ."      MOVS     r2,#1
        0x00019aa0:    f7ffff30    ..0.    BL       am_hal_queue_init ; 0x19904
        0x00019aa4:    2000        .       MOVS     r0,#0
        0x00019aa6:    bdb0        ..      POP      {r4,r5,r7,pc}
        0x00019aa8:    2000        .       MOVS     r0,#0
        0x00019aaa:    f8850098    ....    STRB     r0,[r5,#0x98]
        0x00019aae:    bdb0        ..      POP      {r4,r5,r7,pc}
    am_hal_uart_configure
        0x00019ab0:    b5f0        ..      PUSH     {r4-r7,lr}
        0x00019ab2:    6802        .h      LDR      r2,[r0,#0]
        0x00019ab4:    f6496306    I..c    MOV      r3,#0x9e06
        0x00019ab8:    f022427e    ".~B    BIC      r2,r2,#0xfe000000
        0x00019abc:    f2c013ea    ....    MOVT     r3,#0x1ea
        0x00019ac0:    429a        .B      CMP      r2,r3
        0x00019ac2:    d13e        >.      BNE      0x19b42 ; am_hal_uart_configure + 146
        0x00019ac4:    f8d0c024    ..$.    LDR      r12,[r0,#0x24]
        0x00019ac8:    f24c0430    L.0.    MOV      r4,#0xc030
        0x00019acc:    ea4f330c    O..3    LSL      r3,r12,#12
        0x00019ad0:    f2c40401    ....    MOVT     r4,#0x4001
        0x00019ad4:    f04f0e00    O...    MOV      lr,#0
        0x00019ad8:    f844e003    D...    STR      lr,[r4,r3]
        0x00019adc:    58e2        .X      LDR      r2,[r4,r3]
        0x00019ade:    f24e3660    N.`6    MOV      r6,#0xe360
        0x00019ae2:    f0420208    B...    ORR      r2,r2,#8
        0x00019ae6:    50e2        .P      STR      r2,[r4,r3]
        0x00019ae8:    680a        .h      LDR      r2,[r1,#0]
        0x00019aea:    58e5        .X      LDR      r5,[r4,r3]
        0x00019aec:    f2c00616    ....    MOVT     r6,#0x16
        0x00019af0:    f0250560    %.`.    BIC      r5,r5,#0x60
        0x00019af4:    2710        .'      MOVS     r7,#0x10
        0x00019af6:    42b2        .B      CMP      r2,r6
        0x00019af8:    bf88        ..      IT       HI
        0x00019afa:    2750        P'      MOVHI    r7,#0x50
        0x00019afc:    ea450207    E...    ORR      r2,r5,r7
        0x00019b00:    50e2        .P      STR      r2,[r4,r3]
        0x00019b02:    58e2        .X      LDR      r2,[r4,r3]
        0x00019b04:    f0220201    "...    BIC      r2,r2,#1
        0x00019b08:    50e2        .P      STR      r2,[r4,r3]
        0x00019b0a:    58e2        .X      LDR      r2,[r4,r3]
        0x00019b0c:    f4227200    "..r    BIC      r2,r2,#0x200
        0x00019b10:    50e2        .P      STR      r2,[r4,r3]
        0x00019b12:    58e2        .X      LDR      r2,[r4,r3]
        0x00019b14:    f4227280    "..r    BIC      r2,r2,#0x100
        0x00019b18:    50e2        .P      STR      r2,[r4,r3]
        0x00019b1a:    680a        .h      LDR      r2,[r1,#0]
        0x00019b1c:    58e3        .X      LDR      r3,[r4,r3]
        0x00019b1e:    f3c31302    ....    UBFX     r3,r3,#4,#3
        0x00019b22:    3b01        .;      SUBS     r3,#1
        0x00019b24:    2b05        .+      CMP      r3,#5
        0x00019b26:    d20e        ..      BCS      0x19b46 ; am_hal_uart_configure + 150
        0x00019b28:    a73d        =.      ADR      r7,{pc}+0xf8 ; 0x19c20
        0x00019b2a:    f8573023    W.#0    LDR      r3,[r7,r3,LSL #2]
        0x00019b2e:    ebb31f02    ....    CMP      r3,r2,LSL #4
        0x00019b32:    d20e        ..      BCS      0x19b52 ; am_hal_uart_configure + 162
        0x00019b34:    2100        .!      MOVS     r1,#0
        0x00019b36:    6281        .b      STR      r1,[r0,#0x28]
        0x00019b38:    2002        .       MOVS     r0,#2
        0x00019b3a:    f6c00000    ....    MOVT     r0,#0x800
        0x00019b3e:    1c41        A.      ADDS     r1,r0,#1
        0x00019b40:    e06b        k.      B        0x19c1a ; am_hal_uart_configure + 362
        0x00019b42:    2102        .!      MOVS     r1,#2
        0x00019b44:    e069        i.      B        0x19c1a ; am_hal_uart_configure + 362
        0x00019b46:    2102        .!      MOVS     r1,#2
        0x00019b48:    f6c00100    ....    MOVT     r1,#0x800
        0x00019b4c:    f8c0e028    ..(.    STR      lr,[r0,#0x28]
        0x00019b50:    e063        c.      B        0x19c1a ; am_hal_uart_configure + 362
        0x00019b52:    0112        ..      LSLS     r2,r2,#4
        0x00019b54:    019e        ..      LSLS     r6,r3,#6
        0x00019b56:    f24c0700    L...    MOVW     r7,#0xc000
        0x00019b5a:    fbb6f6f2    ....    UDIV     r6,r6,r2
        0x00019b5e:    fbb3f5f2    ....    UDIV     r5,r3,r2
        0x00019b62:    f2c40701    ....    MOVT     r7,#0x4001
        0x00019b66:    eb07320c    ...2    ADD      r2,r7,r12,LSL #12
        0x00019b6a:    eba61785    ....    SUB      r7,r6,r5,LSL #6
        0x00019b6e:    08be        ..      LSRS     r6,r7,#2
        0x00019b70:    eb061605    ....    ADD      r6,r6,r5,LSL #4
        0x00019b74:    fbb3f3f6    ....    UDIV     r3,r3,r6
        0x00019b78:    6255        Ub      STR      r5,[r2,#0x24]
        0x00019b7a:    6297        .b      STR      r7,[r2,#0x28]
        0x00019b7c:    6283        .b      STR      r3,[r0,#0x28]
        0x00019b7e:    6b10        .k      LDR      r0,[r2,#0x30]
        0x00019b80:    f4204080     ..@    BIC      r0,r0,#0x4000
        0x00019b84:    6310        .c      STR      r0,[r2,#0x30]
        0x00019b86:    6b10        .k      LDR      r0,[r2,#0x30]
        0x00019b88:    f4204000     ..@    BIC      r0,r0,#0x8000
        0x00019b8c:    6310        .c      STR      r0,[r2,#0x30]
        0x00019b8e:    8908        ..      LDRH     r0,[r1,#8]
        0x00019b90:    6b13        .k      LDR      r3,[r2,#0x30]
        0x00019b92:    4318        .C      ORRS     r0,r0,r3
        0x00019b94:    6310        .c      STR      r0,[r2,#0x30]
        0x00019b96:    7948        Hy      LDRB     r0,[r1,#5]
        0x00019b98:    2801        .(      CMP      r0,#1
        0x00019b9a:    d002        ..      BEQ      0x19ba2 ; am_hal_uart_configure + 242
        0x00019b9c:    b920         .      CBNZ     r0,0x19ba8 ; am_hal_uart_configure + 248
        0x00019b9e:    2000        .       MOVS     r0,#0
        0x00019ba0:    e000        ..      B        0x19ba4 ; am_hal_uart_configure + 244
        0x00019ba2:    2004        .       MOVS     r0,#4
        0x00019ba4:    2302        .#      MOVS     r3,#2
        0x00019ba6:    e001        ..      B        0x19bac ; am_hal_uart_configure + 252
        0x00019ba8:    2300        .#      MOVS     r3,#0
        0x00019baa:    2000        .       MOVS     r0,#0
        0x00019bac:    6ad7        .j      LDR      r7,[r2,#0x2c]
        0x00019bae:    f0270701    '...    BIC      r7,r7,#1
        0x00019bb2:    62d7        .b      STR      r7,[r2,#0x2c]
        0x00019bb4:    6ad7        .j      LDR      r7,[r2,#0x2c]
        0x00019bb6:    f0270702    '...    BIC      r7,r7,#2
        0x00019bba:    433b        ;C      ORRS     r3,r3,r7
        0x00019bbc:    62d3        .b      STR      r3,[r2,#0x2c]
        0x00019bbe:    6ad3        .j      LDR      r3,[r2,#0x2c]
        0x00019bc0:    f0230304    #...    BIC      r3,r3,#4
        0x00019bc4:    4318        .C      ORRS     r0,r0,r3
        0x00019bc6:    62d0        .b      STR      r0,[r2,#0x2c]
        0x00019bc8:    7988        .y      LDRB     r0,[r1,#6]
        0x00019bca:    6ad3        .j      LDR      r3,[r2,#0x2c]
        0x00019bcc:    f36003c3    `...    BFI      r3,r0,#3,#1
        0x00019bd0:    62d3        .b      STR      r3,[r2,#0x2c]
        0x00019bd2:    6ad0        .j      LDR      r0,[r2,#0x2c]
        0x00019bd4:    f0400010    @...    ORR      r0,r0,#0x10
        0x00019bd8:    62d0        .b      STR      r0,[r2,#0x2c]
        0x00019bda:    7908        .y      LDRB     r0,[r1,#4]
        0x00019bdc:    6ad3        .j      LDR      r3,[r2,#0x2c]
        0x00019bde:    f3601346    `.F.    BFI      r3,r0,#5,#2
        0x00019be2:    62d3        .b      STR      r3,[r2,#0x2c]
        0x00019be4:    6ad0        .j      LDR      r0,[r2,#0x2c]
        0x00019be6:    f0200080     ...    BIC      r0,r0,#0x80
        0x00019bea:    62d0        .b      STR      r0,[r2,#0x2c]
        0x00019bec:    7a88        .z      LDRB     r0,[r1,#0xa]
        0x00019bee:    6b53        Sk      LDR      r3,[r2,#0x34]
        0x00019bf0:    f3600302    `...    BFI      r3,r0,#0,#3
        0x00019bf4:    6353        Sc      STR      r3,[r2,#0x34]
        0x00019bf6:    7ac8        .z      LDRB     r0,[r1,#0xb]
        0x00019bf8:    6b51        Qk      LDR      r1,[r2,#0x34]
        0x00019bfa:    f36001c5    `...    BFI      r1,r0,#3,#3
        0x00019bfe:    6351        Qc      STR      r1,[r2,#0x34]
        0x00019c00:    6b10        .k      LDR      r0,[r2,#0x30]
        0x00019c02:    2100        .!      MOVS     r1,#0
        0x00019c04:    f0400001    @...    ORR      r0,r0,#1
        0x00019c08:    6310        .c      STR      r0,[r2,#0x30]
        0x00019c0a:    6b10        .k      LDR      r0,[r2,#0x30]
        0x00019c0c:    f4407000    @..p    ORR      r0,r0,#0x200
        0x00019c10:    6310        .c      STR      r0,[r2,#0x30]
        0x00019c12:    6b10        .k      LDR      r0,[r2,#0x30]
        0x00019c14:    f4407080    @..p    ORR      r0,r0,#0x100
        0x00019c18:    6310        .c      STR      r0,[r2,#0x30]
        0x00019c1a:    4608        .F      MOV      r0,r1
        0x00019c1c:    bdf0        ..      POP      {r4-r7,pc}
        0x00019c1e:    bf00        ..      NOP      
    $d.8
        0x00019c20:    016e3600    .6n.    DCD    24000000
        0x00019c24:    00b71b00    ....    DCD    12000000
        0x00019c28:    005b8d80    ..[.    DCD    6000000
        0x00019c2c:    002dc6c0    ..-.    DCD    3000000
        0x00019c30:    02dc6c00    .l..    DCD    48000000
    $t.0
    am_hal_uart_initialize
        0x00019c34:    b5b0        ..      PUSH     {r4,r5,r7,lr}
        0x00019c36:    2803        .(      CMP      r0,#3
        0x00019c38:    bf84        ..      ITT      HI
        0x00019c3a:    2005        .       MOVHI    r0,#5
        0x00019c3c:    bdb0        ..      POPHI    {r4,r5,r7,pc}
        0x00019c3e:    b379        y.      CBZ      r1,0x19ca0 ; am_hal_uart_initialize + 108
        0x00019c40:    680b        .h      LDR      r3,[r1,#0]
        0x00019c42:    f6496c06    I..l    MOV      r12,#0x9e06
        0x00019c46:    4602        .F      MOV      r2,r0
        0x00019c48:    f2c01cea    ....    MOVT     r12,#0x1ea
        0x00019c4c:    b133        3.      CBZ      r3,0x19c5c ; am_hal_uart_initialize + 40
        0x00019c4e:    681b        .h      LDR      r3,[r3,#0]
        0x00019c50:    f023437e    #.~C    BIC      r3,r3,#0xfe000000
        0x00019c54:    4563        cE      CMP      r3,r12
        0x00019c56:    bf04        ..      ITT      EQ
        0x00019c58:    2007        .       MOVEQ    r0,#7
        0x00019c5a:    bdb0        ..      POPEQ    {r4,r5,r7,pc}
        0x00019c5c:    f24025b8    @..%    MOVW     r5,#0x2b8
        0x00019c60:    f04f0eb8    O...    MOV      lr,#0xb8
        0x00019c64:    f2c10500    ....    MOVT     r5,#0x1000
        0x00019c68:    fb02f00e    ....    MUL      r0,r2,lr
        0x00019c6c:    582c        ,X      LDR      r4,[r5,r0]
        0x00019c6e:    fb02530e    ...S    MLA      r3,r2,lr,r5
        0x00019c72:    f004447e    ..~D    AND      r4,r4,#0xfe000000
        0x00019c76:    4464        dD      ADD      r4,r4,r12
        0x00019c78:    502c        ,P      STR      r4,[r5,r0]
        0x00019c7a:    2000        .       MOVS     r0,#0
        0x00019c7c:    e9c32009    ...     STRD     r2,r0,[r3,#0x24]
        0x00019c80:    2201        ."      MOVS     r2,#1
        0x00019c82:    7118        .q      STRB     r0,[r3,#4]
        0x00019c84:    f883002c    ..,.    STRB     r0,[r3,#0x2c]
        0x00019c88:    f8830054    ..T.    STRB     r0,[r3,#0x54]
        0x00019c8c:    f883007c    ..|.    STRB     r0,[r3,#0x7c]
        0x00019c90:    f8830098    ....    STRB     r0,[r3,#0x98]
        0x00019c94:    6798        .g      STR      r0,[r3,#0x78]
        0x00019c96:    6518        .e      STR      r0,[r3,#0x50]
        0x00019c98:    f88320b4    ...     STRB     r2,[r3,#0xb4]
        0x00019c9c:    600b        .`      STR      r3,[r1,#0]
        0x00019c9e:    bdb0        ..      POP      {r4,r5,r7,pc}
        0x00019ca0:    2006        .       MOVS     r0,#6
        0x00019ca2:    bdb0        ..      POP      {r4,r5,r7,pc}
    am_hal_uart_power_control
        0x00019ca4:    b5b0        ..      PUSH     {r4,r5,r7,lr}
        0x00019ca6:    4604        .F      MOV      r4,r0
        0x00019ca8:    6800        .h      LDR      r0,[r0,#0]
        0x00019caa:    f6496306    I..c    MOV      r3,#0x9e06
        0x00019cae:    f020407e     .~@    BIC      r0,r0,#0xfe000000
        0x00019cb2:    f2c013ea    ....    MOVT     r3,#0x1ea
        0x00019cb6:    4298        .B      CMP      r0,r3
        0x00019cb8:    d127        '.      BNE      0x19d0a ; am_hal_uart_power_control + 102
        0x00019cba:    6a65        ej      LDR      r5,[r4,#0x24]
        0x00019cbc:    1e48        H.      SUBS     r0,r1,#1
        0x00019cbe:    2802        .(      CMP      r0,#2
        0x00019cc0:    f1050009    ....    ADD      r0,r5,#9
        0x00019cc4:    d224        $.      BCS      0x19d10 ; am_hal_uart_power_control + 108
        0x00019cc6:    f24c0100    L...    MOVW     r1,#0xc000
        0x00019cca:    f2c40101    ....    MOVT     r1,#0x4001
        0x00019cce:    b18a        ..      CBZ      r2,0x19cf4 ; am_hal_uart_power_control + 80
        0x00019cd0:    eb013205    ...2    ADD      r2,r1,r5,LSL #12
        0x00019cd4:    6a13        .j      LDR      r3,[r2,#0x20]
        0x00019cd6:    60a3        .`      STR      r3,[r4,#8]
        0x00019cd8:    6a53        Sj      LDR      r3,[r2,#0x24]
        0x00019cda:    60e3        .`      STR      r3,[r4,#0xc]
        0x00019cdc:    6a93        .j      LDR      r3,[r2,#0x28]
        0x00019cde:    6123        #a      STR      r3,[r4,#0x10]
        0x00019ce0:    6ad3        .j      LDR      r3,[r2,#0x2c]
        0x00019ce2:    6163        ca      STR      r3,[r4,#0x14]
        0x00019ce4:    6b13        .k      LDR      r3,[r2,#0x30]
        0x00019ce6:    61a3        .a      STR      r3,[r4,#0x18]
        0x00019ce8:    6b53        Sk      LDR      r3,[r2,#0x34]
        0x00019cea:    61e3        .a      STR      r3,[r4,#0x1c]
        0x00019cec:    6b92        .k      LDR      r2,[r2,#0x38]
        0x00019cee:    6222        "b      STR      r2,[r4,#0x20]
        0x00019cf0:    2201        ."      MOVS     r2,#1
        0x00019cf2:    7122        "q      STRB     r2,[r4,#4]
        0x00019cf4:    eb013105    ...1    ADD      r1,r1,r5,LSL #12
        0x00019cf8:    f04f32ff    O..2    MOV      r2,#0xffffffff
        0x00019cfc:    2500        .%      MOVS     r5,#0
        0x00019cfe:    b2c0        ..      UXTB     r0,r0
        0x00019d00:    644a        Jd      STR      r2,[r1,#0x44]
        0x00019d02:    630d        .c      STR      r5,[r1,#0x30]
        0x00019d04:    f7fffd16    ....    BL       am_hal_pwrctrl_periph_disable ; 0x19734
        0x00019d08:    e000        ..      B        0x19d0c ; am_hal_uart_power_control + 104
        0x00019d0a:    2502        .%      MOVS     r5,#2
        0x00019d0c:    4628        (F      MOV      r0,r5
        0x00019d0e:    bdb0        ..      POP      {r4,r5,r7,pc}
        0x00019d10:    b9e1        ..      CBNZ     r1,0x19d4c ; am_hal_uart_power_control + 168
        0x00019d12:    b1ea        ..      CBZ      r2,0x19d50 ; am_hal_uart_power_control + 172
        0x00019d14:    7921        !y      LDRB     r1,[r4,#4]
        0x00019d16:    b301        ..      CBZ      r1,0x19d5a ; am_hal_uart_power_control + 182
        0x00019d18:    b2c0        ..      UXTB     r0,r0
        0x00019d1a:    f7fffd9a    ....    BL       am_hal_pwrctrl_periph_enable ; 0x19852
        0x00019d1e:    f24c0100    L...    MOVW     r1,#0xc000
        0x00019d22:    68a0        .h      LDR      r0,[r4,#8]
        0x00019d24:    f2c40101    ....    MOVT     r1,#0x4001
        0x00019d28:    eb013105    ...1    ADD      r1,r1,r5,LSL #12
        0x00019d2c:    6208        .b      STR      r0,[r1,#0x20]
        0x00019d2e:    68e0        .h      LDR      r0,[r4,#0xc]
        0x00019d30:    2500        .%      MOVS     r5,#0
        0x00019d32:    6248        Hb      STR      r0,[r1,#0x24]
        0x00019d34:    6920         i      LDR      r0,[r4,#0x10]
        0x00019d36:    6288        .b      STR      r0,[r1,#0x28]
        0x00019d38:    6960        `i      LDR      r0,[r4,#0x14]
        0x00019d3a:    62c8        .b      STR      r0,[r1,#0x2c]
        0x00019d3c:    69a0        .i      LDR      r0,[r4,#0x18]
        0x00019d3e:    6308        .c      STR      r0,[r1,#0x30]
        0x00019d40:    69e0        .i      LDR      r0,[r4,#0x1c]
        0x00019d42:    6348        Hc      STR      r0,[r1,#0x34]
        0x00019d44:    6a20         j      LDR      r0,[r4,#0x20]
        0x00019d46:    6388        .c      STR      r0,[r1,#0x38]
        0x00019d48:    7125        %q      STRB     r5,[r4,#4]
        0x00019d4a:    e7df        ..      B        0x19d0c ; am_hal_uart_power_control + 104
        0x00019d4c:    2506        .%      MOVS     r5,#6
        0x00019d4e:    e7dd        ..      B        0x19d0c ; am_hal_uart_power_control + 104
        0x00019d50:    b2c0        ..      UXTB     r0,r0
        0x00019d52:    f7fffd7e    ..~.    BL       am_hal_pwrctrl_periph_enable ; 0x19852
        0x00019d56:    2500        .%      MOVS     r5,#0
        0x00019d58:    e7d8        ..      B        0x19d0c ; am_hal_uart_power_control + 104
        0x00019d5a:    2507        .%      MOVS     r5,#7
        0x00019d5c:    e7d6        ..      B        0x19d0c ; am_hal_uart_power_control + 104
        0x00019d5e:    0000        ..      MOVS     r0,r0
    am_hal_uart_transfer
        0x00019d60:    b570        p.      PUSH     {r4-r6,lr}
        0x00019d62:    460c        .F      MOV      r4,r1
        0x00019d64:    7809        .x      LDRB     r1,[r1,#0]
        0x00019d66:    2903        .)      CMP      r1,#3
        0x00019d68:    d80a        ..      BHI      0x19d80 ; am_hal_uart_transfer + 32
        0x00019d6a:    4605        .F      MOV      r5,r0
        0x00019d6c:    e8dff001    ....    TBB      [pc,r1]
    $d.12
        0x00019d70:    2c260a02    ..&,    DCD    740690434
    $t.13
        0x00019d74:    4628        (F      MOV      r0,r5
        0x00019d76:    4621        !F      MOV      r1,r4
        0x00019d78:    f003f947    ..G.    BL       nonblocking_write ; 0x1d00a
        0x00019d7c:    b350        P.      CBZ      r0,0x19dd4 ; am_hal_uart_transfer + 116
        0x00019d7e:    bd70        p.      POP      {r4-r6,pc}
        0x00019d80:    2001        .       MOVS     r0,#1
        0x00019d82:    bd70        p.      POP      {r4-r6,pc}
        0x00019d84:    4628        (F      MOV      r0,r5
        0x00019d86:    4621        !F      MOV      r1,r4
        0x00019d88:    f003f8aa    ....    BL       nonblocking_read ; 0x1cee0
        0x00019d8c:    2800        .(      CMP      r0,#0
        0x00019d8e:    d1f6        ..      BNE      0x19d7e ; am_hal_uart_transfer + 30
        0x00019d90:    f895002c    ..,.    LDRB     r0,[r5,#0x2c]
        0x00019d94:    b398        ..      CBZ      r0,0x19dfe ; am_hal_uart_transfer + 158
        0x00019d96:    2600        .&      MOVS     r6,#0
        0x00019d98:    4628        (F      MOV      r0,r5
        0x00019d9a:    f003f8bd    ....    BL       nonblocking_read_sm ; 0x1cf18
        0x00019d9e:    f44f707a    O.zp    MOV      r0,#0x3e8
        0x00019da2:    f7fff97f    ....    BL       am_hal_delay_us ; 0x190a4
        0x00019da6:    6920         i      LDR      r0,[r4,#0x10]
        0x00019da8:    1c41        A.      ADDS     r1,r0,#1
        0x00019daa:    d002        ..      BEQ      0x19db2 ; am_hal_uart_transfer + 82
        0x00019dac:    3601        .6      ADDS     r6,#1
        0x00019dae:    4286        .B      CMP      r6,r0
        0x00019db0:    d027        '.      BEQ      0x19e02 ; am_hal_uart_transfer + 162
        0x00019db2:    f895002c    ..,.    LDRB     r0,[r5,#0x2c]
        0x00019db6:    2800        .(      CMP      r0,#0
        0x00019db8:    d1ee        ..      BNE      0x19d98 ; am_hal_uart_transfer + 56
        0x00019dba:    e020         .      B        0x19dfe ; am_hal_uart_transfer + 158
        0x00019dbc:    4628        (F      MOV      r0,r5
        0x00019dbe:    4621        !F      MOV      r1,r4
        0x00019dc0:    e8bd4070    ..p@    POP      {r4-r6,lr}
        0x00019dc4:    f003b921    ..!.    B.W      nonblocking_write ; 0x1d00a
        0x00019dc8:    4628        (F      MOV      r0,r5
        0x00019dca:    4621        !F      MOV      r1,r4
        0x00019dcc:    e8bd4070    ..p@    POP      {r4-r6,lr}
        0x00019dd0:    f003b886    ....    B.W      nonblocking_read ; 0x1cee0
        0x00019dd4:    f8950054    ..T.    LDRB     r0,[r5,#0x54]
        0x00019dd8:    b188        ..      CBZ      r0,0x19dfe ; am_hal_uart_transfer + 158
        0x00019dda:    2600        .&      MOVS     r6,#0
        0x00019ddc:    4628        (F      MOV      r0,r5
        0x00019dde:    f003f931    ..1.    BL       nonblocking_write_sm ; 0x1d044
        0x00019de2:    f44f707a    O.zp    MOV      r0,#0x3e8
        0x00019de6:    f7fff95d    ..].    BL       am_hal_delay_us ; 0x190a4
        0x00019dea:    6920         i      LDR      r0,[r4,#0x10]
        0x00019dec:    1c41        A.      ADDS     r1,r0,#1
        0x00019dee:    d002        ..      BEQ      0x19df6 ; am_hal_uart_transfer + 150
        0x00019df0:    3601        .6      ADDS     r6,#1
        0x00019df2:    4286        .B      CMP      r6,r0
        0x00019df4:    d009        ..      BEQ      0x19e0a ; am_hal_uart_transfer + 170
        0x00019df6:    f8950054    ..T.    LDRB     r0,[r5,#0x54]
        0x00019dfa:    2800        .(      CMP      r0,#0
        0x00019dfc:    d1ee        ..      BNE      0x19ddc ; am_hal_uart_transfer + 124
        0x00019dfe:    2000        .       MOVS     r0,#0
        0x00019e00:    bd70        p.      POP      {r4-r6,pc}
        0x00019e02:    2000        .       MOVS     r0,#0
        0x00019e04:    f885002c    ..,.    STRB     r0,[r5,#0x2c]
        0x00019e08:    e002        ..      B        0x19e10 ; am_hal_uart_transfer + 176
        0x00019e0a:    2000        .       MOVS     r0,#0
        0x00019e0c:    f8850054    ..T.    STRB     r0,[r5,#0x54]
        0x00019e10:    2004        .       MOVS     r0,#4
        0x00019e12:    bd70        p.      POP      {r4-r6,pc}
    am_hal_usb_attach
        0x00019e14:    b188        ..      CBZ      r0,0x19e3a ; am_hal_usb_attach + 38
        0x00019e16:    6800        .h      LDR      r0,[r0,#0]
        0x00019e18:    f6496106    I..a    MOV      r1,#0x9e06
        0x00019e1c:    f020407e     .~@    BIC      r0,r0,#0xfe000000
        0x00019e20:    f2c011ea    ....    MOVT     r1,#0x1ea
        0x00019e24:    4288        .B      CMP      r0,r1
        0x00019e26:    d108        ..      BNE      0x19e3a ; am_hal_usb_attach + 38
        0x00019e28:    2001        .       MOVS     r0,#1
        0x00019e2a:    f2c4000b    ....    MOVT     r0,#0x400b
        0x00019e2e:    7801        .x      LDRB     r1,[r0,#0]
        0x00019e30:    f0410140    A.@.    ORR      r1,r1,#0x40
        0x00019e34:    7001        .p      STRB     r1,[r0,#0]
        0x00019e36:    2000        .       MOVS     r0,#0
        0x00019e38:    4770        pG      BX       lr
        0x00019e3a:    2002        .       MOVS     r0,#2
        0x00019e3c:    4770        pG      BX       lr
    am_hal_usb_control
        0x00019e3e:    2801        .(      CMP      r0,#1
        0x00019e40:    d00b        ..      BEQ      0x19e5a ; am_hal_usb_control + 28
        0x00019e42:    b940        @.      CBNZ     r0,0x19e56 ; am_hal_usb_control + 24
        0x00019e44:    b139        9.      CBZ      r1,0x19e56 ; am_hal_usb_control + 24
        0x00019e46:    6808        .h      LDR      r0,[r1,#0]
        0x00019e48:    f2400144    @.D.    MOVW     r1,#0x44
        0x00019e4c:    f2c10100    ....    MOVT     r1,#0x1000
        0x00019e50:    6008        .`      STR      r0,[r1,#0]
        0x00019e52:    2000        .       MOVS     r0,#0
        0x00019e54:    4770        pG      BX       lr
        0x00019e56:    2006        .       MOVS     r0,#6
        0x00019e58:    4770        pG      BX       lr
        0x00019e5a:    6808        .h      LDR      r0,[r1,#0]
        0x00019e5c:    f001b81d    ....    B.W      am_hal_usb_setHFRC2 ; 0x1ae9a
    am_hal_usb_disable_phy_reset_override
        0x00019e60:    f2404118    @..A    MOVW     r1,#0x418
        0x00019e64:    f2c40102    ....    MOVT     r1,#0x4002
        0x00019e68:    6808        .h      LDR      r0,[r1,#0]
        0x00019e6a:    f0400003    @...    ORR      r0,r0,#3
        0x00019e6e:    6008        .`      STR      r0,[r1,#0]
        0x00019e70:    4770        pG      BX       lr
        0x00019e72:    0000        ..      MOVS     r0,r0
    am_hal_usb_enable_phy_reset_override
        0x00019e74:    f2404118    @..A    MOVW     r1,#0x418
        0x00019e78:    f2c40102    ....    MOVT     r1,#0x4002
        0x00019e7c:    6808        .h      LDR      r0,[r1,#0]
        0x00019e7e:    f0200003     ...    BIC      r0,r0,#3
        0x00019e82:    6008        .`      STR      r0,[r1,#0]
        0x00019e84:    4770        pG      BX       lr
        0x00019e86:    0000        ..      MOVS     r0,r0
    am_hal_usb_ep0_handle_setup_req
        0x00019e88:    b570        p.      PUSH     {r4-r6,lr}
        0x00019e8a:    b082        ..      SUB      sp,sp,#8
        0x00019e8c:    2210        ."      MOVS     r2,#0x10
        0x00019e8e:    f2c4020b    ....    MOVT     r2,#0x400b
        0x00019e92:    6811        .h      LDR      r1,[r2,#0]
        0x00019e94:    03c9        ..      LSLS     r1,r1,#15
        0x00019e96:    d51c        ..      BPL      0x19ed2 ; am_hal_usb_ep0_handle_setup_req + 74
        0x00019e98:    4606        .F      MOV      r6,r0
        0x00019e9a:    6890        .h      LDR      r0,[r2,#8]
        0x00019e9c:    f3c0038a    ....    UBFX     r3,r0,#2,#11
        0x00019ea0:    f0000103    ....    AND      r1,r0,#3
        0x00019ea4:    b12b        +.      CBZ      r3,0x19eb2 ; am_hal_usb_ep0_handle_setup_req + 42
        0x00019ea6:    466c        lF      MOV      r4,sp
        0x00019ea8:    6915        .i      LDR      r5,[r2,#0x10]
        0x00019eaa:    3b01        .;      SUBS     r3,#1
        0x00019eac:    f8445b04    D..[    STR      r5,[r4],#4
        0x00019eb0:    d1fa        ..      BNE      0x19ea8 ; am_hal_usb_ep0_handle_setup_req + 32
        0x00019eb2:    b139        9.      CBZ      r1,0x19ec4 ; am_hal_usb_ep0_handle_setup_req + 60
        0x00019eb4:    f64173fc    A..s    MOV      r3,#0x1ffc
        0x00019eb8:    4018        .@      ANDS     r0,r0,r3
        0x00019eba:    7c12        .|      LDRB     r2,[r2,#0x10]
        0x00019ebc:    466b        kF      MOV      r3,sp
        0x00019ebe:    4418        .D      ADD      r0,r0,r3
        0x00019ec0:    f7fefaf0    ....    BL       __aeabi_memset ; 0x184a4
        0x00019ec4:    2001        .       MOVS     r0,#1
        0x00019ec6:    f8d61100    ....    LDR      r1,[r6,#0x100]
        0x00019eca:    f8860056    ..V.    STRB     r0,[r6,#0x56]
        0x00019ece:    4668        hF      MOV      r0,sp
        0x00019ed0:    4788        .G      BLX      r1
        0x00019ed2:    b002        ..      ADD      sp,sp,#8
        0x00019ed4:    bd70        p.      POP      {r4-r6,pc}
    am_hal_usb_ep_clear_stall
        0x00019ed6:    b3a8        ..      CBZ      r0,0x19f44 ; am_hal_usb_ep_clear_stall + 110
        0x00019ed8:    6800        .h      LDR      r0,[r0,#0]
        0x00019eda:    f6496206    I..b    MOV      r2,#0x9e06
        0x00019ede:    f020407e     .~@    BIC      r0,r0,#0xfe000000
        0x00019ee2:    f2c012ea    ....    MOVT     r2,#0x1ea
        0x00019ee6:    4290        .B      CMP      r0,r2
        0x00019ee8:    d12c        ,.      BNE      0x19f44 ; am_hal_usb_ep_clear_stall + 110
        0x00019eea:    f001007e    ..~.    AND      r0,r1,#0x7e
        0x00019eee:    2805        .(      CMP      r0,#5
        0x00019ef0:    bf84        ..      ITT      HI
        0x00019ef2:    2006        .       MOVHI    r0,#6
        0x00019ef4:    4770        pG      BXHI     lr
        0x00019ef6:    f011037f    ....    ANDS     r3,r1,#0x7f
        0x00019efa:    d031        1.      BEQ      0x19f60 ; am_hal_usb_ep_clear_stall + 138
        0x00019efc:    f24e1c00    N...    MOVW     r12,#0xe100
        0x00019f00:    f2ce0c00    ....    MOVT     r12,#0xe000
        0x00019f04:    f04f6000    O..`    MOV      r0,#0x8000000
        0x00019f08:    f8cc0080    ....    STR      r0,[r12,#0x80]
        0x00019f0c:    220c        ."      MOVS     r2,#0xc
        0x00019f0e:    f3bf8f4f    ..O.    DSB      
        0x00019f12:    f2c4020b    ....    MOVT     r2,#0x400b
        0x00019f16:    f3bf8f6f    ..o.    ISB      
        0x00019f1a:    6810        .h      LDR      r0,[r2,#0]
        0x00019f1c:    b249        I.      SXTB     r1,r1
        0x00019f1e:    f4202070     .p     BIC      r0,r0,#0xf0000
        0x00019f22:    6010        .`      STR      r0,[r2,#0]
        0x00019f24:    6810        .h      LDR      r0,[r2,#0]
        0x00019f26:    f1b13fff    ...?    CMP      r1,#0xffffffff
        0x00019f2a:    ea404003    @..@    ORR      r0,r0,r3,LSL #16
        0x00019f2e:    6010        .`      STR      r0,[r2,#0]
        0x00019f30:    dd0a        ..      BLE      0x19f48 ; am_hal_usb_ep_clear_stall + 114
        0x00019f32:    6890        .h      LDR      r0,[r2,#8]
        0x00019f34:    f4201000     ...    BIC      r0,r0,#0x200000
        0x00019f38:    6090        .`      STR      r0,[r2,#8]
        0x00019f3a:    6890        .h      LDR      r0,[r2,#8]
        0x00019f3c:    f4400000    @...    ORR      r0,r0,#0x800000
        0x00019f40:    6090        .`      STR      r0,[r2,#8]
        0x00019f42:    e009        ..      B        0x19f58 ; am_hal_usb_ep_clear_stall + 130
        0x00019f44:    2002        .       MOVS     r0,#2
        0x00019f46:    4770        pG      BX       lr
        0x00019f48:    6850        Ph      LDR      r0,[r2,#4]
        0x00019f4a:    f4201080     ...    BIC      r0,r0,#0x100000
        0x00019f4e:    6050        P`      STR      r0,[r2,#4]
        0x00019f50:    6850        Ph      LDR      r0,[r2,#4]
        0x00019f52:    f4400080    @...    ORR      r0,r0,#0x400000
        0x00019f56:    6050        P`      STR      r0,[r2,#4]
        0x00019f58:    f04f6000    O..`    MOV      r0,#0x8000000
        0x00019f5c:    f8cc0000    ....    STR      r0,[r12,#0]
        0x00019f60:    2000        .       MOVS     r0,#0
        0x00019f62:    4770        pG      BX       lr
    am_hal_usb_ep_init
        0x00019f64:    b510        ..      PUSH     {r4,lr}
        0x00019f66:    b1d8        ..      CBZ      r0,0x19fa0 ; am_hal_usb_ep_init + 60
        0x00019f68:    f8d0c000    ....    LDR      r12,[r0,#0]
        0x00019f6c:    f6496e06    I..n    MOV      lr,#0x9e06
        0x00019f70:    f02c4c7e    ,.~L    BIC      r12,r12,#0xfe000000
        0x00019f74:    f2c01eea    ....    MOVT     lr,#0x1ea
        0x00019f78:    45f4        .E      CMP      r12,lr
        0x00019f7a:    d111        ..      BNE      0x19fa0 ; am_hal_usb_ep_init + 60
        0x00019f7c:    f0010c7e    ..~.    AND      r12,r1,#0x7e
        0x00019f80:    f1bc0f05    ....    CMP      r12,#5
        0x00019f84:    d80a        ..      BHI      0x19f9c ; am_hal_usb_ep_init + 56
        0x00019f86:    f2400c01    @...    MOVW     r12,#1
        0x00019f8a:    f2c40c0b    ....    MOVT     r12,#0x400b
        0x00019f8e:    f89ce000    ....    LDRB     lr,[r12,#0]
        0x00019f92:    2b41        A+      CMP      r3,#0x41
        0x00019f94:    d307        ..      BCC      0x19fa6 ; am_hal_usb_ep_init + 66
        0x00019f96:    f01e0e10    ....    ANDS     lr,lr,#0x10
        0x00019f9a:    d104        ..      BNE      0x19fa6 ; am_hal_usb_ep_init + 66
        0x00019f9c:    2106        .!      MOVS     r1,#6
        0x00019f9e:    e000        ..      B        0x19fa2 ; am_hal_usb_ep_init + 62
        0x00019fa0:    2102        .!      MOVS     r1,#2
        0x00019fa2:    4608        .F      MOV      r0,r1
        0x00019fa4:    bd10        ..      POP      {r4,pc}
        0x00019fa6:    f8dce00b    ....    LDR      lr,[r12,#0xb]
        0x00019faa:    f42e2e70    ..p.    BIC      lr,lr,#0xf0000
        0x00019fae:    f8cce00b    ....    STR      lr,[r12,#0xb]
        0x00019fb2:    f8dc400b    ...@    LDR      r4,[r12,#0xb]
        0x00019fb6:    f0110e7f    ....    ANDS     lr,r1,#0x7f
        0x00019fba:    ea44440e    D..D    ORR      r4,r4,lr,LSL #16
        0x00019fbe:    f8cc400b    ...@    STR      r4,[r12,#0xb]
        0x00019fc2:    d053        S.      BEQ      0x1a06c ; am_hal_usb_ep_init + 264
        0x00019fc4:    b249        I.      SXTB     r1,r1
        0x00019fc6:    f1b13fff    ...?    CMP      r1,#0xffffffff
        0x00019fca:    dd59        Y.      BLE      0x1a080 ; am_hal_usb_ep_init + 284
        0x00019fcc:    f8dc1013    ....    LDR      r1,[r12,#0x13]
        0x00019fd0:    f24074ff    @..t    MOV      r4,#0x7ff
        0x00019fd4:    43a1        .C      BICS     r1,r1,r4
        0x00019fd6:    f8cc1013    ....    STR      r1,[r12,#0x13]
        0x00019fda:    f8dc1013    ....    LDR      r1,[r12,#0x13]
        0x00019fde:    f0020203    ....    AND      r2,r2,#3
        0x00019fe2:    4319        .C      ORRS     r1,r1,r3
        0x00019fe4:    f8cc1013    ....    STR      r1,[r12,#0x13]
        0x00019fe8:    eb00014e    ..N.    ADD      r1,r0,lr,LSL #1
        0x00019fec:    f8a13062    ..b0    STRH     r3,[r1,#0x62]
        0x00019ff0:    f8dc1013    ....    LDR      r1,[r12,#0x13]
        0x00019ff4:    2a01        .*      CMP      r2,#1
        0x00019ff6:    f0214180    !..A    BIC      r1,r1,#0x40000000
        0x00019ffa:    bf08        ..      IT       EQ
        0x00019ffc:    f1014180    ...A    ADDEQ    r1,r1,#0x40000000
        0x0001a000:    f8cc1013    ....    STR      r1,[r12,#0x13]
        0x0001a004:    f8dc1013    ....    LDR      r1,[r12,#0x13]
        0x0001a008:    f4410100    A...    ORR      r1,r1,#0x800000
        0x0001a00c:    f8cc1013    ....    STR      r1,[r12,#0x13]
        0x0001a010:    f8dc1013    ....    LDR      r1,[r12,#0x13]
        0x0001a014:    03c9        ..      LSLS     r1,r1,#15
        0x0001a016:    d505        ..      BPL      0x1a024 ; am_hal_usb_ep_init + 192
        0x0001a018:    f8dc1013    ....    LDR      r1,[r12,#0x13]
        0x0001a01c:    f4411180    A...    ORR      r1,r1,#0x100000
        0x0001a020:    f8cc1013    ....    STR      r1,[r12,#0x13]
        0x0001a024:    f8dc1017    ....    LDR      r1,[r12,#0x17]
        0x0001a028:    091a        ..      LSRS     r2,r3,#4
        0x0001a02a:    f02151f8    !..Q    BIC      r1,r1,#0x1f000000
        0x0001a02e:    f8cc1017    ....    STR      r1,[r12,#0x17]
        0x0001a032:    2100        .!      MOVS     r1,#0
        0x0001a034:    f8dc4017    ...@    LDR      r4,[r12,#0x17]
        0x0001a038:    fab2fe82    ....    CLZ      lr,r2
        0x0001a03c:    ebb11f13    ....    CMP      r1,r3,LSR #4
        0x0001a040:    bf18        ..      IT       NE
        0x0001a042:    f1ce0220    .. .    RSBNE    r2,lr,#0x20
        0x0001a046:    ea446202    D..b    ORR      r2,r4,r2,LSL #24
        0x0001a04a:    f8cc2017    ...     STR      r2,[r12,#0x17]
        0x0001a04e:    f8dc201b    ...     LDR      r2,[r12,#0x1b]
        0x0001a052:    f36f421c    o..B    BFC      r2,#16,#13
        0x0001a056:    f8cc201b    ...     STR      r2,[r12,#0x1b]
        0x0001a05a:    6d02        .m      LDR      r2,[r0,#0x50]
        0x0001a05c:    eb0203d3    ....    ADD      r3,r2,r3,LSR #3
        0x0001a060:    6503        .e      STR      r3,[r0,#0x50]
        0x0001a062:    f8dc001b    ....    LDR      r0,[r12,#0x1b]
        0x0001a066:    ea404002    @..@    ORR      r0,r0,r2,LSL #16
        0x0001a06a:    e058        X.      B        0x1a11e ; am_hal_usb_ep_init + 442
        0x0001a06c:    f8bc1005    ....    LDRH     r1,[r12,#5]
        0x0001a070:    f0410101    A...    ORR      r1,r1,#1
        0x0001a074:    f8ac1005    ....    STRH     r1,[r12,#5]
        0x0001a078:    f8a03058    ..X0    STRH     r3,[r0,#0x58]
        0x0001a07c:    2100        .!      MOVS     r1,#0
        0x0001a07e:    e790        ..      B        0x19fa2 ; am_hal_usb_ep_init + 62
        0x0001a080:    f8dc100f    ....    LDR      r1,[r12,#0xf]
        0x0001a084:    f24074ff    @..t    MOV      r4,#0x7ff
        0x0001a088:    43a1        .C      BICS     r1,r1,r4
        0x0001a08a:    f8cc100f    ....    STR      r1,[r12,#0xf]
        0x0001a08e:    f8dc100f    ....    LDR      r1,[r12,#0xf]
        0x0001a092:    f0020203    ....    AND      r2,r2,#3
        0x0001a096:    4319        .C      ORRS     r1,r1,r3
        0x0001a098:    f8cc100f    ....    STR      r1,[r12,#0xf]
        0x0001a09c:    eb00014e    ..N.    ADD      r1,r0,lr,LSL #1
        0x0001a0a0:    f8a13058    ..X0    STRH     r3,[r1,#0x58]
        0x0001a0a4:    f8dc100f    ....    LDR      r1,[r12,#0xf]
        0x0001a0a8:    2a01        .*      CMP      r2,#1
        0x0001a0aa:    f0214180    !..A    BIC      r1,r1,#0x40000000
        0x0001a0ae:    bf08        ..      IT       EQ
        0x0001a0b0:    f1014180    ...A    ADDEQ    r1,r1,#0x40000000
        0x0001a0b4:    f8cc100f    ....    STR      r1,[r12,#0xf]
        0x0001a0b8:    f8dc100f    ....    LDR      r1,[r12,#0xf]
        0x0001a0bc:    f4410180    A...    ORR      r1,r1,#0x400000
        0x0001a0c0:    f8cc100f    ....    STR      r1,[r12,#0xf]
        0x0001a0c4:    f8dc100f    ....    LDR      r1,[r12,#0xf]
        0x0001a0c8:    0389        ..      LSLS     r1,r1,#14
        0x0001a0ca:    d505        ..      BPL      0x1a0d8 ; am_hal_usb_ep_init + 372
        0x0001a0cc:    f8dc100f    ....    LDR      r1,[r12,#0xf]
        0x0001a0d0:    f4412100    A..!    ORR      r1,r1,#0x80000
        0x0001a0d4:    f8cc100f    ....    STR      r1,[r12,#0xf]
        0x0001a0d8:    f8dc1017    ....    LDR      r1,[r12,#0x17]
        0x0001a0dc:    091a        ..      LSRS     r2,r3,#4
        0x0001a0de:    f42111f8    !...    BIC      r1,r1,#0x1f0000
        0x0001a0e2:    f8cc1017    ....    STR      r1,[r12,#0x17]
        0x0001a0e6:    2100        .!      MOVS     r1,#0
        0x0001a0e8:    f8dc4017    ...@    LDR      r4,[r12,#0x17]
        0x0001a0ec:    fab2fe82    ....    CLZ      lr,r2
        0x0001a0f0:    ebb11f13    ....    CMP      r1,r3,LSR #4
        0x0001a0f4:    bf18        ..      IT       NE
        0x0001a0f6:    f1ce0220    .. .    RSBNE    r2,lr,#0x20
        0x0001a0fa:    ea444202    D..B    ORR      r2,r4,r2,LSL #16
        0x0001a0fe:    f8cc2017    ...     STR      r2,[r12,#0x17]
        0x0001a102:    f8dc201b    ...     LDR      r2,[r12,#0x1b]
        0x0001a106:    f64174ff    A..t    MOV      r4,#0x1fff
        0x0001a10a:    43a2        .C      BICS     r2,r2,r4
        0x0001a10c:    f8cc201b    ...     STR      r2,[r12,#0x1b]
        0x0001a110:    6d02        .m      LDR      r2,[r0,#0x50]
        0x0001a112:    eb0203d3    ....    ADD      r3,r2,r3,LSR #3
        0x0001a116:    6503        .e      STR      r3,[r0,#0x50]
        0x0001a118:    f8dc001b    ....    LDR      r0,[r12,#0x1b]
        0x0001a11c:    4310        .C      ORRS     r0,r0,r2
        0x0001a11e:    f8cc001b    ....    STR      r0,[r12,#0x1b]
        0x0001a122:    e73e        >.      B        0x19fa2 ; am_hal_usb_ep_init + 62
    am_hal_usb_ep_stall
        0x0001a124:    b388        ..      CBZ      r0,0x1a18a ; am_hal_usb_ep_stall + 102
        0x0001a126:    6800        .h      LDR      r0,[r0,#0]
        0x0001a128:    f6496206    I..b    MOV      r2,#0x9e06
        0x0001a12c:    f020407e     .~@    BIC      r0,r0,#0xfe000000
        0x0001a130:    f2c012ea    ....    MOVT     r2,#0x1ea
        0x0001a134:    4290        .B      CMP      r0,r2
        0x0001a136:    d128        (.      BNE      0x1a18a ; am_hal_usb_ep_stall + 102
        0x0001a138:    f001007e    ..~.    AND      r0,r1,#0x7e
        0x0001a13c:    2805        .(      CMP      r0,#5
        0x0001a13e:    bf84        ..      ITT      HI
        0x0001a140:    2006        .       MOVHI    r0,#6
        0x0001a142:    4770        pG      BXHI     lr
        0x0001a144:    f24e1c00    N...    MOVW     r12,#0xe100
        0x0001a148:    f2ce0c00    ....    MOVT     r12,#0xe000
        0x0001a14c:    f04f6300    O..c    MOV      r3,#0x8000000
        0x0001a150:    f8cc3080    ...0    STR      r3,[r12,#0x80]
        0x0001a154:    220c        ."      MOVS     r2,#0xc
        0x0001a156:    f3bf8f4f    ..O.    DSB      
        0x0001a15a:    f2c4020b    ....    MOVT     r2,#0x400b
        0x0001a15e:    f3bf8f6f    ..o.    ISB      
        0x0001a162:    6813        .h      LDR      r3,[r2,#0]
        0x0001a164:    f011007f    ....    ANDS     r0,r1,#0x7f
        0x0001a168:    f4232370    #.p#    BIC      r3,r3,#0xf0000
        0x0001a16c:    6013        .`      STR      r3,[r2,#0]
        0x0001a16e:    6813        .h      LDR      r3,[r2,#0]
        0x0001a170:    ea434000    C..@    ORR      r0,r3,r0,LSL #16
        0x0001a174:    6010        .`      STR      r0,[r2,#0]
        0x0001a176:    d00a        ..      BEQ      0x1a18e ; am_hal_usb_ep_stall + 106
        0x0001a178:    b248        H.      SXTB     r0,r1
        0x0001a17a:    f1b03fff    ...?    CMP      r0,#0xffffffff
        0x0001a17e:    dd0a        ..      BLE      0x1a196 ; am_hal_usb_ep_stall + 114
        0x0001a180:    6890        .h      LDR      r0,[r2,#8]
        0x0001a182:    f4401000    @...    ORR      r0,r0,#0x200000
        0x0001a186:    6090        .`      STR      r0,[r2,#8]
        0x0001a188:    e009        ..      B        0x1a19e ; am_hal_usb_ep_stall + 122
        0x0001a18a:    2002        .       MOVS     r0,#2
        0x0001a18c:    4770        pG      BX       lr
        0x0001a18e:    6850        Ph      LDR      r0,[r2,#4]
        0x0001a190:    f44000c0    @...    ORR      r0,r0,#0x600000
        0x0001a194:    e002        ..      B        0x1a19c ; am_hal_usb_ep_stall + 120
        0x0001a196:    6850        Ph      LDR      r0,[r2,#4]
        0x0001a198:    f4401080    @...    ORR      r0,r0,#0x100000
        0x0001a19c:    6050        P`      STR      r0,[r2,#4]
        0x0001a19e:    f04f6000    O..`    MOV      r0,#0x8000000
        0x0001a1a2:    f8cc0000    ....    STR      r0,[r12,#0]
        0x0001a1a6:    2000        .       MOVS     r0,#0
        0x0001a1a8:    4770        pG      BX       lr
        0x0001a1aa:    0000        ..      MOVS     r0,r0
    am_hal_usb_ep_xfer
        0x0001a1ac:    e92d4ff0    -..O    PUSH     {r4-r11,lr}
        0x0001a1b0:    b081        ..      SUB      sp,sp,#4
        0x0001a1b2:    b170        p.      CBZ      r0,0x1a1d2 ; am_hal_usb_ep_xfer + 38
        0x0001a1b4:    6807        .h      LDR      r7,[r0,#0]
        0x0001a1b6:    f6496606    I..f    MOV      r6,#0x9e06
        0x0001a1ba:    f027477e    '.~G    BIC      r7,r7,#0xfe000000
        0x0001a1be:    f2c016ea    ....    MOVT     r6,#0x1ea
        0x0001a1c2:    42b7        .B      CMP      r7,r6
        0x0001a1c4:    d105        ..      BNE      0x1a1d2 ; am_hal_usb_ep_xfer + 38
        0x0001a1c6:    f001077e    ..~.    AND      r7,r1,#0x7e
        0x0001a1ca:    2f05        ./      CMP      r7,#5
        0x0001a1cc:    d905        ..      BLS      0x1a1da ; am_hal_usb_ep_xfer + 46
        0x0001a1ce:    2006        .       MOVS     r0,#6
        0x0001a1d0:    e000        ..      B        0x1a1d4 ; am_hal_usb_ep_xfer + 40
        0x0001a1d2:    2002        .       MOVS     r0,#2
        0x0001a1d4:    b001        ..      ADD      sp,sp,#4
        0x0001a1d6:    e8bd8ff0    ....    POP      {r4-r11,pc}
        0x0001a1da:    f24e1c00    N...    MOVW     r12,#0xe100
        0x0001a1de:    f2400e06    @...    MOVW     lr,#6
        0x0001a1e2:    f2ce0c00    ....    MOVT     r12,#0xe000
        0x0001a1e6:    f2c40e0b    ....    MOVT     lr,#0x400b
        0x0001a1ea:    f011047f    ....    ANDS     r4,r1,#0x7f
        0x0001a1ee:    ea4f1bd1    O...    LSR      r11,r1,#7
        0x0001a1f2:    d055        U.      BEQ      0x1a2a0 ; am_hal_usb_ep_xfer + 244
        0x0001a1f4:    f04f6500    O..e    MOV      r5,#0x8000000
        0x0001a1f8:    f8cc5080    ...P    STR      r5,[r12,#0x80]
        0x0001a1fc:    1e67        g.      SUBS     r7,r4,#1
        0x0001a1fe:    f3bf8f4f    ..O.    DSB      
        0x0001a202:    eb070147    ..G.    ADD      r1,r7,r7,LSL #1
        0x0001a206:    f3bf8f6f    ..o.    ISB      
        0x0001a20a:    eb000ac1    ....    ADD      r10,r0,r1,LSL #3
        0x0001a20e:    f8de1006    ....    LDR      r1,[lr,#6]
        0x0001a212:    eb0b064b    ..K.    ADD      r6,r11,r11,LSL #1
        0x0001a216:    f4212170    !.p!    BIC      r1,r1,#0xf0000
        0x0001a21a:    f8ce1006    ....    STR      r1,[lr,#6]
        0x0001a21e:    f8de1006    ....    LDR      r1,[lr,#6]
        0x0001a222:    eb0a0886    ....    ADD      r8,r10,r6,LSL #2
        0x0001a226:    ea414104    A..A    ORR      r1,r1,r4,LSL #16
        0x0001a22a:    f8ce1006    ....    STR      r1,[lr,#6]
        0x0001a22e:    f8181f84    ....    LDRB     r1,[r8,#0x84]!
        0x0001a232:    07ce        ..      LSLS     r6,r1,#31
        0x0001a234:    f040808c    @...    BNE.W    0x1a350 ; am_hal_usb_ep_xfer + 420
        0x0001a238:    f00101fa    ....    AND      r1,r1,#0xfa
        0x0001a23c:    ea41018b    A...    ORR      r1,r1,r11,LSL #2
        0x0001a240:    f1a80508    ....    SUB      r5,r8,#8
        0x0001a244:    3101        .1      ADDS     r1,#1
        0x0001a246:    f1bb0f00    ....    CMP      r11,#0
        0x0001a24a:    f8881000    ....    STRB     r1,[r8,#0]
        0x0001a24e:    f0008086    ....    BEQ.W    0x1a35e ; am_hal_usb_ep_xfer + 434
        0x0001a252:    eb000047    ..G.    ADD      r0,r0,r7,LSL #1
        0x0001a256:    f8b0905a    ..Z.    LDRH     r9,[r0,#0x5a]
        0x0001a25a:    2000        .       MOVS     r0,#0
        0x0001a25c:    4599        .E      CMP      r9,r3
        0x0001a25e:    9500        ..      STR      r5,[sp,#0]
        0x0001a260:    f240809c    @...    BLS.W    0x1a39c ; am_hal_usb_ep_xfer + 496
        0x0001a264:    ebb00f93    ....    CMP      r0,r3,LSR #2
        0x0001a268:    f0030703    ....    AND      r7,r3,#3
        0x0001a26c:    d00a        ..      BEQ      0x1a284 ; am_hal_usb_ep_xfer + 216
        0x0001a26e:    0898        ..      LSRS     r0,r3,#2
        0x0001a270:    f10e051a    ....    ADD      r5,lr,#0x1a
        0x0001a274:    4611        .F      MOV      r1,r2
        0x0001a276:    bf00        ..      NOP      
        0x0001a278:    f8516b04    Q..k    LDR      r6,[r1],#4
        0x0001a27c:    3801        .8      SUBS     r0,#1
        0x0001a27e:    f8456024    E.$`    STR      r6,[r5,r4,LSL #2]
        0x0001a282:    d1f9        ..      BNE      0x1a278 ; am_hal_usb_ep_xfer + 204
        0x0001a284:    b157        W.      CBZ      r7,0x1a29c ; am_hal_usb_ep_xfer + 240
        0x0001a286:    f0230103    #...    BIC      r1,r3,#3
        0x0001a28a:    f10e001a    ....    ADD      r0,lr,#0x1a
        0x0001a28e:    4411        .D      ADD      r1,r1,r2
        0x0001a290:    f8115b01    ...[    LDRB     r5,[r1],#1
        0x0001a294:    3f01        .?      SUBS     r7,#1
        0x0001a296:    f8005024    ..$P    STRB     r5,[r0,r4,LSL #2]
        0x0001a29a:    d1f9        ..      BNE      0x1a290 ; am_hal_usb_ep_xfer + 228
        0x0001a29c:    2000        .       MOVS     r0,#0
        0x0001a29e:    e09b        ..      B        0x1a3d8 ; am_hal_usb_ep_xfer + 556
        0x0001a2a0:    f04f6400    O..d    MOV      r4,#0x8000000
        0x0001a2a4:    f8cc4080    ...@    STR      r4,[r12,#0x80]
        0x0001a2a8:    f3bf8f4f    ..O.    DSB      
        0x0001a2ac:    f3bf8f6f    ..o.    ISB      
        0x0001a2b0:    f8de1006    ....    LDR      r1,[lr,#6]
        0x0001a2b4:    f4212170    !.p!    BIC      r1,r1,#0xf0000
        0x0001a2b8:    f8ce1006    ....    STR      r1,[lr,#6]
        0x0001a2bc:    f8de1006    ....    LDR      r1,[lr,#6]
        0x0001a2c0:    f8ce1006    ....    STR      r1,[lr,#6]
        0x0001a2c4:    f8901078    ..x.    LDRB     r1,[r0,#0x78]
        0x0001a2c8:    07cd        ..      LSLS     r5,r1,#31
        0x0001a2ca:    d144        D.      BNE      0x1a356 ; am_hal_usb_ep_xfer + 426
        0x0001a2cc:    f00101fa    ....    AND      r1,r1,#0xfa
        0x0001a2d0:    ea41018b    A...    ORR      r1,r1,r11,LSL #2
        0x0001a2d4:    3101        .1      ADDS     r1,#1
        0x0001a2d6:    f8801078    ..x.    STRB     r1,[r0,#0x78]
        0x0001a2da:    f8901056    ..V.    LDRB     r1,[r0,#0x56]
        0x0001a2de:    f8b04058    ..X@    LDRH     r4,[r0,#0x58]
        0x0001a2e2:    2901        .)      CMP      r1,#1
        0x0001a2e4:    6702        .g      STR      r2,[r0,#0x70]
        0x0001a2e6:    f8a03074    ..t0    STRH     r3,[r0,#0x74]
        0x0001a2ea:    d151        Q.      BNE      0x1a390 ; am_hal_usb_ep_xfer + 484
        0x0001a2ec:    f8de100a    ....    LDR      r1,[lr,#0xa]
        0x0001a2f0:    2b00        .+      CMP      r3,#0
        0x0001a2f2:    f0008097    ....    BEQ.W    0x1a424 ; am_hal_usb_ep_xfer + 632
        0x0001a2f6:    f4410180    A...    ORR      r1,r1,#0x400000
        0x0001a2fa:    f1bb0f00    ....    CMP      r11,#0
        0x0001a2fe:    f8ce100a    ....    STR      r1,[lr,#0xa]
        0x0001a302:    f0008099    ....    BEQ.W    0x1a438 ; am_hal_usb_ep_xfer + 652
        0x0001a306:    429c        .B      CMP      r4,r3
        0x0001a308:    f240809c    @...    BLS.W    0x1a444 ; am_hal_usb_ep_xfer + 664
        0x0001a30c:    2100        .!      MOVS     r1,#0
        0x0001a30e:    2405        .$      MOVS     r4,#5
        0x0001a310:    f8a01076    ..v.    STRH     r1,[r0,#0x76]
        0x0001a314:    f8804056    ..V@    STRB     r4,[r0,#0x56]
        0x0001a318:    ebb10f93    ....    CMP      r1,r3,LSR #2
        0x0001a31c:    f0030003    ....    AND      r0,r3,#3
        0x0001a320:    d007        ..      BEQ      0x1a332 ; am_hal_usb_ep_xfer + 390
        0x0001a322:    0899        ..      LSRS     r1,r3,#2
        0x0001a324:    4614        .F      MOV      r4,r2
        0x0001a326:    f8545b04    T..[    LDR      r5,[r4],#4
        0x0001a32a:    3901        .9      SUBS     r1,#1
        0x0001a32c:    f8ce501a    ...P    STR      r5,[lr,#0x1a]
        0x0001a330:    d1f9        ..      BNE      0x1a326 ; am_hal_usb_ep_xfer + 378
        0x0001a332:    b140        @.      CBZ      r0,0x1a346 ; am_hal_usb_ep_xfer + 410
        0x0001a334:    f0230103    #...    BIC      r1,r3,#3
        0x0001a338:    4411        .D      ADD      r1,r1,r2
        0x0001a33a:    f8112b01    ...+    LDRB     r2,[r1],#1
        0x0001a33e:    3801        .8      SUBS     r0,#1
        0x0001a340:    f88e201a    ...     STRB     r2,[lr,#0x1a]
        0x0001a344:    d1f9        ..      BNE      0x1a33a ; am_hal_usb_ep_xfer + 398
        0x0001a346:    f8de000a    ....    LDR      r0,[lr,#0xa]
        0x0001a34a:    f4402020    @.      ORR      r0,r0,#0xa0000
        0x0001a34e:    e09b        ..      B        0x1a488 ; am_hal_usb_ep_xfer + 732
        0x0001a350:    f8cc5000    ...P    STR      r5,[r12,#0]
        0x0001a354:    e001        ..      B        0x1a35a ; am_hal_usb_ep_xfer + 430
        0x0001a356:    f8cc4000    ...@    STR      r4,[r12,#0]
        0x0001a35a:    2003        .       MOVS     r0,#3
        0x0001a35c:    e73a        :.      B        0x1a1d4 ; am_hal_usb_ep_xfer + 40
        0x0001a35e:    ea4b004b    K.K.    ORR      r0,r11,r11,LSL #1
        0x0001a362:    eb0a0080    ....    ADD      r0,r10,r0,LSL #2
        0x0001a366:    602a        *`      STR      r2,[r5,#0]
        0x0001a368:    f8a03080    ...0    STRH     r3,[r0,#0x80]
        0x0001a36c:    f8a03082    ...0    STRH     r3,[r0,#0x82]
        0x0001a370:    f8de000e    ....    LDR      r0,[lr,#0xe]
        0x0001a374:    f4203080     ..0    BIC      r0,r0,#0x10000
        0x0001a378:    f8ce000e    ....    STR      r0,[lr,#0xe]
        0x0001a37c:    2001        .       MOVS     r0,#1
        0x0001a37e:    40a0        .@      LSLS     r0,r0,r4
        0x0001a380:    f89e1002    ....    LDRB     r1,[lr,#2]
        0x0001a384:    f000003f    ..?.    AND      r0,r0,#0x3f
        0x0001a388:    4308        .C      ORRS     r0,r0,r1
        0x0001a38a:    f88e0002    ....    STRB     r0,[lr,#2]
        0x0001a38e:    e044        D.      B        0x1a41a ; am_hal_usb_ep_xfer + 622
        0x0001a390:    f04f6000    O..`    MOV      r0,#0x8000000
        0x0001a394:    f8cc0000    ....    STR      r0,[r12,#0]
        0x0001a398:    2001        .       MOVS     r0,#1
        0x0001a39a:    e71b        ..      B        0x1a1d4 ; am_hal_usb_ep_xfer + 40
        0x0001a39c:    ebb00f99    ....    CMP      r0,r9,LSR #2
        0x0001a3a0:    f0090703    ....    AND      r7,r9,#3
        0x0001a3a4:    d00a        ..      BEQ      0x1a3bc ; am_hal_usb_ep_xfer + 528
        0x0001a3a6:    ea4f0099    O...    LSR      r0,r9,#2
        0x0001a3aa:    f10e051a    ....    ADD      r5,lr,#0x1a
        0x0001a3ae:    4611        .F      MOV      r1,r2
        0x0001a3b0:    f8516b04    Q..k    LDR      r6,[r1],#4
        0x0001a3b4:    3801        .8      SUBS     r0,#1
        0x0001a3b6:    f8456024    E.$`    STR      r6,[r5,r4,LSL #2]
        0x0001a3ba:    d1f9        ..      BNE      0x1a3b0 ; am_hal_usb_ep_xfer + 516
        0x0001a3bc:    b157        W.      CBZ      r7,0x1a3d4 ; am_hal_usb_ep_xfer + 552
        0x0001a3be:    f0290103    )...    BIC      r1,r9,#3
        0x0001a3c2:    f10e001a    ....    ADD      r0,lr,#0x1a
        0x0001a3c6:    1855        U.      ADDS     r5,r2,r1
        0x0001a3c8:    f8151b01    ....    LDRB     r1,[r5],#1
        0x0001a3cc:    3f01        .?      SUBS     r7,#1
        0x0001a3ce:    f8001024    ..$.    STRB     r1,[r0,r4,LSL #2]
        0x0001a3d2:    d1f9        ..      BNE      0x1a3c8 ; am_hal_usb_ep_xfer + 540
        0x0001a3d4:    eba30009    ....    SUB      r0,r3,r9
        0x0001a3d8:    9d00        ..      LDR      r5,[sp,#0]
        0x0001a3da:    ea4b014b    K.K.    ORR      r1,r11,r11,LSL #1
        0x0001a3de:    eb0a0181    ....    ADD      r1,r10,r1,LSL #2
        0x0001a3e2:    4599        .E      CMP      r9,r3
        0x0001a3e4:    f8a10082    ....    STRH     r0,[r1,#0x82]
        0x0001a3e8:    d105        ..      BNE      0x1a3f6 ; am_hal_usb_ep_xfer + 586
        0x0001a3ea:    f8980000    ....    LDRB     r0,[r8,#0]
        0x0001a3ee:    f0400002    @...    ORR      r0,r0,#2
        0x0001a3f2:    f8880000    ....    STRB     r0,[r8,#0]
        0x0001a3f6:    602a        *`      STR      r2,[r5,#0]
        0x0001a3f8:    f8a13080    ...0    STRH     r3,[r1,#0x80]
        0x0001a3fc:    f8de000a    ....    LDR      r0,[lr,#0xa]
        0x0001a400:    f4403080    @..0    ORR      r0,r0,#0x10000
        0x0001a404:    f8ce000a    ....    STR      r0,[lr,#0xa]
        0x0001a408:    2001        .       MOVS     r0,#1
        0x0001a40a:    40a0        .@      LSLS     r0,r0,r4
        0x0001a40c:    f8be1000    ....    LDRH     r1,[lr,#0]
        0x0001a410:    f000003f    ..?.    AND      r0,r0,#0x3f
        0x0001a414:    4308        .C      ORRS     r0,r0,r1
        0x0001a416:    f8ae0000    ....    STRH     r0,[lr,#0]
        0x0001a41a:    f04f6000    O..`    MOV      r0,#0x8000000
        0x0001a41e:    f8cc0000    ....    STR      r0,[r12,#0]
        0x0001a422:    e037        7.      B        0x1a494 ; am_hal_usb_ep_xfer + 744
        0x0001a424:    f4410190    A...    ORR      r1,r1,#0x480000
        0x0001a428:    f8ce100a    ....    STR      r1,[lr,#0xa]
        0x0001a42c:    2104        .!      MOVS     r1,#4
        0x0001a42e:    f1bb0f00    ....    CMP      r11,#0
        0x0001a432:    bf18        ..      IT       NE
        0x0001a434:    2105        .!      MOVNE    r1,#5
        0x0001a436:    e002        ..      B        0x1a43e ; am_hal_usb_ep_xfer + 658
        0x0001a438:    2102        .!      MOVS     r1,#2
        0x0001a43a:    f8a03076    ..v0    STRH     r3,[r0,#0x76]
        0x0001a43e:    f8801056    ..V.    STRB     r1,[r0,#0x56]
        0x0001a442:    e023        #.      B        0x1a48c ; am_hal_usb_ep_xfer + 736
        0x0001a444:    1b19        ..      SUBS     r1,r3,r4
        0x0001a446:    f8a01076    ..v.    STRH     r1,[r0,#0x76]
        0x0001a44a:    2103        .!      MOVS     r1,#3
        0x0001a44c:    f8801056    ..V.    STRB     r1,[r0,#0x56]
        0x0001a450:    2000        .       MOVS     r0,#0
        0x0001a452:    ebb00f94    ....    CMP      r0,r4,LSR #2
        0x0001a456:    f0040003    ....    AND      r0,r4,#3
        0x0001a45a:    d007        ..      BEQ      0x1a46c ; am_hal_usb_ep_xfer + 704
        0x0001a45c:    08a1        ..      LSRS     r1,r4,#2
        0x0001a45e:    4613        .F      MOV      r3,r2
        0x0001a460:    f8535b04    S..[    LDR      r5,[r3],#4
        0x0001a464:    3901        .9      SUBS     r1,#1
        0x0001a466:    f8ce501a    ...P    STR      r5,[lr,#0x1a]
        0x0001a46a:    d1f9        ..      BNE      0x1a460 ; am_hal_usb_ep_xfer + 692
        0x0001a46c:    b140        @.      CBZ      r0,0x1a480 ; am_hal_usb_ep_xfer + 724
        0x0001a46e:    f0240103    $...    BIC      r1,r4,#3
        0x0001a472:    4411        .D      ADD      r1,r1,r2
        0x0001a474:    f8112b01    ...+    LDRB     r2,[r1],#1
        0x0001a478:    3801        .8      SUBS     r0,#1
        0x0001a47a:    f88e201a    ...     STRB     r2,[lr,#0x1a]
        0x0001a47e:    d1f9        ..      BNE      0x1a474 ; am_hal_usb_ep_xfer + 712
        0x0001a480:    f8de000a    ....    LDR      r0,[lr,#0xa]
        0x0001a484:    f4403000    @..0    ORR      r0,r0,#0x20000
        0x0001a488:    f8ce000a    ....    STR      r0,[lr,#0xa]
        0x0001a48c:    f04f6000    O..`    MOV      r0,#0x8000000
        0x0001a490:    f8cc0000    ....    STR      r0,[r12,#0]
        0x0001a494:    2000        .       MOVS     r0,#0
        0x0001a496:    e69d        ..      B        0x1a1d4 ; am_hal_usb_ep_xfer + 40
    am_hal_usb_hardware_unreset
        0x0001a498:    f2420124    B.$.    MOV      r1,#0x2024
        0x0001a49c:    f2c4010b    ....    MOVT     r1,#0x400b
        0x0001a4a0:    f04f4000    O..@    MOV      r0,#0x80000000
        0x0001a4a4:    6008        .`      STR      r0,[r1,#0]
        0x0001a4a6:    4770        pG      BX       lr
    am_hal_usb_initialize
        0x0001a4a8:    b108        ..      CBZ      r0,0x1a4ae ; am_hal_usb_initialize + 6
        0x0001a4aa:    2005        .       MOVS     r0,#5
        0x0001a4ac:    4770        pG      BX       lr
        0x0001a4ae:    b1a9        ..      CBZ      r1,0x1a4dc ; am_hal_usb_initialize + 52
        0x0001a4b0:    f2405298    @..R    MOVW     r2,#0x598
        0x0001a4b4:    f2c10200    ....    MOVT     r2,#0x1000
        0x0001a4b8:    6810        .h      LDR      r0,[r2,#0]
        0x0001a4ba:    01c3        ..      LSLS     r3,r0,#7
        0x0001a4bc:    bf44        D.      ITT      MI
        0x0001a4be:    2007        .       MOVMI    r0,#7
        0x0001a4c0:    4770        pG      BXMI     lr
        0x0001a4c2:    f6496306    I..c    MOV      r3,#0x9e06
        0x0001a4c6:    f2c013ea    ....    MOVT     r3,#0x1ea
        0x0001a4ca:    f3630018    c...    BFI      r0,r3,#0,#25
        0x0001a4ce:    6010        .`      STR      r0,[r2,#0]
        0x0001a4d0:    2000        .       MOVS     r0,#0
        0x0001a4d2:    f8c200f8    ....    STR      r0,[r2,#0xf8]
        0x0001a4d6:    7110        .q      STRB     r0,[r2,#4]
        0x0001a4d8:    600a        .`      STR      r2,[r1,#0]
        0x0001a4da:    4770        pG      BX       lr
        0x0001a4dc:    2006        .       MOVS     r0,#6
        0x0001a4de:    4770        pG      BX       lr
    am_hal_usb_interrupt_service
        0x0001a4e0:    e92d4ff0    -..O    PUSH     {r4-r11,lr}
        0x0001a4e4:    b085        ..      SUB      sp,sp,#0x14
        0x0001a4e6:    2800        .(      CMP      r0,#0
        0x0001a4e8:    f0008372    ..r.    BEQ.W    0x1abd0 ; am_hal_usb_interrupt_service + 1776
        0x0001a4ec:    4681        .F      MOV      r9,r0
        0x0001a4ee:    6800        .h      LDR      r0,[r0,#0]
        0x0001a4f0:    460c        .F      MOV      r4,r1
        0x0001a4f2:    f6496106    I..a    MOV      r1,#0x9e06
        0x0001a4f6:    f020407e     .~@    BIC      r0,r0,#0xfe000000
        0x0001a4fa:    f2c011ea    ....    MOVT     r1,#0x1ea
        0x0001a4fe:    4288        .B      CMP      r0,r1
        0x0001a500:    f0408366    @.f.    BNE.W    0x1abd0 ; am_hal_usb_interrupt_service + 1776
        0x0001a504:    469a        .F      MOV      r10,r3
        0x0001a506:    4693        .F      MOV      r11,r2
        0x0001a508:    07a0        ..      LSLS     r0,r4,#30
        0x0001a50a:    d50f        ..      BPL      0x1a52c ; am_hal_usb_interrupt_service + 76
        0x0001a50c:    f2440010    D...    MOV      r0,#0x4010
        0x0001a510:    f2c4000b    ....    MOVT     r0,#0x400b
        0x0001a514:    6801        .h      LDR      r1,[r0,#0]
        0x0001a516:    f0410102    A...    ORR      r1,r1,#2
        0x0001a51a:    6001        .`      STR      r1,[r0,#0]
        0x0001a51c:    f8d910fc    ....    LDR      r1,[r9,#0xfc]
        0x0001a520:    2003        .       MOVS     r0,#3
        0x0001a522:    f8890055    ..U.    STRB     r0,[r9,#0x55]
        0x0001a526:    b109        ..      CBZ      r1,0x1a52c ; am_hal_usb_interrupt_service + 76
        0x0001a528:    2002        .       MOVS     r0,#2
        0x0001a52a:    4788        .G      BLX      r1
        0x0001a52c:    0760        `.      LSLS     r0,r4,#29
        0x0001a52e:    9401        ..      STR      r4,[sp,#4]
        0x0001a530:    e9cdba03    ....    STRD     r11,r10,[sp,#0xc]
        0x0001a534:    d572        r.      BPL      0x1a61c ; am_hal_usb_interrupt_service + 316
        0x0001a536:    f8990078    ..x.    LDRB     r0,[r9,#0x78]
        0x0001a53a:    f04f0800    O...    MOV      r8,#0
        0x0001a53e:    07c1        ..      LSLS     r1,r0,#31
        0x0001a540:    f8898055    ..U.    STRB     r8,[r9,#0x55]
        0x0001a544:    d013        ..      BEQ      0x1a56e ; am_hal_usb_interrupt_service + 142
        0x0001a546:    f8b91074    ..t.    LDRH     r1,[r9,#0x74]
        0x0001a54a:    f8b92076    ..v     LDRH     r2,[r9,#0x76]
        0x0001a54e:    f8d97104    ...q    LDR      r7,[r9,#0x104]
        0x0001a552:    1a89        ..      SUBS     r1,r1,r2
        0x0001a554:    2280        ."      MOVS     r2,#0x80
        0x0001a556:    ea021040    ..@.    AND      r0,r2,r0,LSL #5
        0x0001a55a:    b289        ..      UXTH     r1,r1
        0x0001a55c:    2204        ."      MOVS     r2,#4
        0x0001a55e:    2300        .#      MOVS     r3,#0
        0x0001a560:    f8c98070    ..p.    STR      r8,[r9,#0x70]
        0x0001a564:    f8c98078    ..x.    STR      r8,[r9,#0x78]
        0x0001a568:    f8c98074    ..t.    STR      r8,[r9,#0x74]
        0x0001a56c:    47b8        .G      BLX      r7
        0x0001a56e:    f1090b7c    ..|.    ADD      r11,r9,#0x7c
        0x0001a572:    2500        .%      MOVS     r5,#0
        0x0001a574:    f8898056    ..V.    STRB     r8,[r9,#0x56]
        0x0001a578:    f8c98070    ..p.    STR      r8,[r9,#0x70]
        0x0001a57c:    f8c98074    ..t.    STR      r8,[r9,#0x74]
        0x0001a580:    f8c98078    ..x.    STR      r8,[r9,#0x78]
        0x0001a584:    f1050a01    ....    ADD      r10,r5,#1
        0x0001a588:    2000        .       MOVS     r0,#0
        0x0001a58a:    2701        .'      MOVS     r7,#1
        0x0001a58c:    2100        .!      MOVS     r1,#0
        0x0001a58e:    bf00        ..      NOP      
        0x0001a590:    eb050245    ..E.    ADD      r2,r5,r5,LSL #1
        0x0001a594:    eb0b02c2    ....    ADD      r2,r11,r2,LSL #3
        0x0001a598:    eb010341    ..A.    ADD      r3,r1,r1,LSL #1
        0x0001a59c:    eb020183    ....    ADD      r1,r2,r3,LSL #2
        0x0001a5a0:    7a0c        .z      LDRB     r4,[r1,#8]
        0x0001a5a2:    07e4        ..      LSLS     r4,r4,#31
        0x0001a5a4:    d011        ..      BEQ      0x1a5ca ; am_hal_usb_interrupt_service + 234
        0x0001a5a6:    888c        ..      LDRH     r4,[r1,#4]
        0x0001a5a8:    88ce        ..      LDRH     r6,[r1,#6]
        0x0001a5aa:    f8c18008    ....    STR      r8,[r1,#8]
        0x0001a5ae:    f8c18004    ....    STR      r8,[r1,#4]
        0x0001a5b2:    ea40000a    @...    ORR      r0,r0,r10
        0x0001a5b6:    1ba6        ..      SUBS     r6,r4,r6
        0x0001a5b8:    f8d94104    ...A    LDR      r4,[r9,#0x104]
        0x0001a5bc:    f8428023    B.#.    STR      r8,[r2,r3,LSL #2]
        0x0001a5c0:    b2b1        ..      UXTH     r1,r6
        0x0001a5c2:    b2c0        ..      UXTB     r0,r0
        0x0001a5c4:    2204        ."      MOVS     r2,#4
        0x0001a5c6:    2300        .#      MOVS     r3,#0
        0x0001a5c8:    47a0        .G      BLX      r4
        0x0001a5ca:    2101        .!      MOVS     r1,#1
        0x0001a5cc:    2080        .       MOVS     r0,#0x80
        0x0001a5ce:    07fa        ..      LSLS     r2,r7,#31
        0x0001a5d0:    f04f0700    O...    MOV      r7,#0
        0x0001a5d4:    d1dc        ..      BNE      0x1a590 ; am_hal_usb_interrupt_service + 176
        0x0001a5d6:    f1ba0f05    ....    CMP      r10,#5
        0x0001a5da:    4655        UF      MOV      r5,r10
        0x0001a5dc:    d1d2        ..      BNE      0x1a584 ; am_hal_usb_interrupt_service + 164
        0x0001a5de:    4658        XF      MOV      r0,r11
        0x0001a5e0:    2178        x!      MOVS     r1,#0x78
        0x0001a5e2:    f7fdff89    ....    BL       __aeabi_memclr4 ; 0x184f8
        0x0001a5e6:    2008        .       MOVS     r0,#8
        0x0001a5e8:    2206        ."      MOVS     r2,#6
        0x0001a5ea:    f8c90050    ..P.    STR      r0,[r9,#0x50]
        0x0001a5ee:    f2c4020b    ....    MOVT     r2,#0x400b
        0x0001a5f2:    8810        ..      LDRH     r0,[r2,#0]
        0x0001a5f4:    2000        .       MOVS     r0,#0
        0x0001a5f6:    8010        ..      STRH     r0,[r2,#0]
        0x0001a5f8:    7891        .x      LDRB     r1,[r2,#2]
        0x0001a5fa:    7090        .p      STRB     r0,[r2,#2]
        0x0001a5fc:    7950        Py      LDRB     r0,[r2,#5]
        0x0001a5fe:    f00000f7    ....    AND      r0,r0,#0xf7
        0x0001a602:    7150        Pq      STRB     r0,[r2,#5]
        0x0001a604:    7950        Py      LDRB     r0,[r2,#5]
        0x0001a606:    f0400001    @...    ORR      r0,r0,#1
        0x0001a60a:    7150        Pq      STRB     r0,[r2,#5]
        0x0001a60c:    f8d910fc    ....    LDR      r1,[r9,#0xfc]
        0x0001a610:    9c01        ..      LDR      r4,[sp,#4]
        0x0001a612:    e9ddba03    ....    LDRD     r11,r10,[sp,#0xc]
        0x0001a616:    b109        ..      CBZ      r1,0x1a61c ; am_hal_usb_interrupt_service + 316
        0x0001a618:    2000        .       MOVS     r0,#0
        0x0001a61a:    4788        .G      BLX      r1
        0x0001a61c:    0720         .      LSLS     r0,r4,#28
        0x0001a61e:    d504        ..      BPL      0x1a62a ; am_hal_usb_interrupt_service + 330
        0x0001a620:    f8d910fc    ....    LDR      r1,[r9,#0xfc]
        0x0001a624:    b109        ..      CBZ      r1,0x1a62a ; am_hal_usb_interrupt_service + 330
        0x0001a626:    2001        .       MOVS     r0,#1
        0x0001a628:    4788        .G      BLX      r1
        0x0001a62a:    2406        .$      MOVS     r4,#6
        0x0001a62c:    ea5f70cb    _..p    LSLS     r0,r11,#31
        0x0001a630:    f2c4040b    ....    MOVT     r4,#0x400b
        0x0001a634:    f0008153    ..S.    BEQ.W    0x1a8de ; am_hal_usb_interrupt_service + 1022
        0x0001a638:    f8d40006    ....    LDR      r0,[r4,#6]
        0x0001a63c:    f4202070     .p     BIC      r0,r0,#0xf0000
        0x0001a640:    f8c40006    ....    STR      r0,[r4,#6]
        0x0001a644:    f8d40006    ....    LDR      r0,[r4,#6]
        0x0001a648:    f8c40006    ....    STR      r0,[r4,#6]
        0x0001a64c:    f8991056    ..V.    LDRB     r1,[r9,#0x56]
        0x0001a650:    2905        .)      CMP      r1,#5
        0x0001a652:    f2008144    ..D.    BHI.W    0x1a8de ; am_hal_usb_interrupt_service + 1022
        0x0001a656:    f8b90058    ..X.    LDRH     r0,[r9,#0x58]
        0x0001a65a:    e8dff001    ....    TBB      [pc,r1]
    $d.40
        0x0001a65e:    0703        ..      DCW    1795
        0x0001a660:    b4a2651c    .e..    DCD    3030541596
    $t.41
        0x0001a664:    4648        HF      MOV      r0,r9
        0x0001a666:    f7fffc0f    ....    BL       am_hal_usb_ep0_handle_setup_req ; 0x19e88
        0x0001a66a:    e138        8.      B        0x1a8de ; am_hal_usb_interrupt_service + 1022
        0x0001a66c:    f8d4000a    ....    LDR      r0,[r4,#0xa]
        0x0001a670:    0340        @.      LSLS     r0,r0,#13
        0x0001a672:    f1408134    @.4.    BPL.W    0x1a8de ; am_hal_usb_interrupt_service + 1022
        0x0001a676:    f8d4000a    ....    LDR      r0,[r4,#0xa]
        0x0001a67a:    f4202080     ..     BIC      r0,r0,#0x40000
        0x0001a67e:    f8c4000a    ....    STR      r0,[r4,#0xa]
        0x0001a682:    2000        .       MOVS     r0,#0
        0x0001a684:    f8890056    ..V.    STRB     r0,[r9,#0x56]
        0x0001a688:    f8c90070    ..p.    STR      r0,[r9,#0x70]
        0x0001a68c:    f8c90074    ..t.    STR      r0,[r9,#0x74]
        0x0001a690:    f8c90078    ..x.    STR      r0,[r9,#0x78]
        0x0001a694:    e123        #.      B        0x1a8de ; am_hal_usb_interrupt_service + 1022
        0x0001a696:    f8b92076    ..v     LDRH     r2,[r9,#0x76]
        0x0001a69a:    f8b91074    ..t.    LDRH     r1,[r9,#0x74]
        0x0001a69e:    f8d4700a    ...p    LDR      r7,[r4,#0xa]
        0x0001a6a2:    f8d4300a    ...0    LDR      r3,[r4,#0xa]
        0x0001a6a6:    02ff        ..      LSLS     r7,r7,#11
        0x0001a6a8:    f10080a0    ....    BMI.W    0x1a7ec ; am_hal_usb_interrupt_service + 780
        0x0001a6ac:    f8d4700a    ...p    LDR      r7,[r4,#0xa]
        0x0001a6b0:    035b        [.      LSLS     r3,r3,#13
        0x0001a6b2:    f100810d    ....    BMI.W    0x1a8d0 ; am_hal_usb_interrupt_service + 1008
        0x0001a6b6:    03fb        ..      LSLS     r3,r7,#15
        0x0001a6b8:    f1408111    @...    BPL.W    0x1a8de ; am_hal_usb_interrupt_service + 1022
        0x0001a6bc:    f8d48012    ....    LDR      r8,[r4,#0x12]
        0x0001a6c0:    eba10c02    ....    SUB      r12,r1,r2
        0x0001a6c4:    4641        AF      MOV      r1,r8
        0x0001a6c6:    f36f315f    o._1    BFC      r1,#13,#19
        0x0001a6ca:    1a52        R.      SUBS     r2,r2,r1
        0x0001a6cc:    f8a92076    ..v     STRH     r2,[r9,#0x76]
        0x0001a6d0:    f8d9e070    ..p.    LDR      lr,[r9,#0x70]
        0x0001a6d4:    2200        ."      MOVS     r2,#0
        0x0001a6d6:    ebb20f91    ....    CMP      r2,r1,LSR #2
        0x0001a6da:    f0080203    ....    AND      r2,r8,#3
        0x0001a6de:    4626        &F      MOV      r6,r4
        0x0001a6e0:    d008        ..      BEQ      0x1a6f4 ; am_hal_usb_interrupt_service + 532
        0x0001a6e2:    fa1ef38c    ....    UXTAH    r3,lr,r12
        0x0001a6e6:    088c        ..      LSRS     r4,r1,#2
        0x0001a6e8:    f8d6701a    ...p    LDR      r7,[r6,#0x1a]
        0x0001a6ec:    3c01        .<      SUBS     r4,#1
        0x0001a6ee:    f8437b04    C..{    STR      r7,[r3],#4
        0x0001a6f2:    d1f9        ..      BNE      0x1a6e8 ; am_hal_usb_interrupt_service + 520
        0x0001a6f4:    4634        4F      MOV      r4,r6
        0x0001a6f6:    b162        b.      CBZ      r2,0x1a712 ; am_hal_usb_interrupt_service + 562
        0x0001a6f8:    f64173fc    A..s    MOV      r3,#0x1ffc
        0x0001a6fc:    fa1ff78c    ....    UXTH     r7,r12
        0x0001a700:    ea030308    ....    AND      r3,r3,r8
        0x0001a704:    443b        ;D      ADD      r3,r3,r7
        0x0001a706:    4473        sD      ADD      r3,r3,lr
        0x0001a708:    7ea7        .~      LDRB     r7,[r4,#0x1a]
        0x0001a70a:    3a01        .:      SUBS     r2,#1
        0x0001a70c:    f8037b01    ...{    STRB     r7,[r3],#1
        0x0001a710:    d1fa        ..      BNE      0x1a708 ; am_hal_usb_interrupt_service + 552
        0x0001a712:    4281        .B      CMP      r1,r0
        0x0001a714:    f080825f    .._.    BCS.W    0x1abd6 ; am_hal_usb_interrupt_service + 1782
        0x0001a718:    2004        .       MOVS     r0,#4
        0x0001a71a:    f8890056    ..V.    STRB     r0,[r9,#0x56]
        0x0001a71e:    f8d4000a    ....    LDR      r0,[r4,#0xa]
        0x0001a722:    f4400090    @...    ORR      r0,r0,#0x480000
        0x0001a726:    e0d8        ..      B        0x1a8da ; am_hal_usb_interrupt_service + 1018
        0x0001a728:    46a0        .F      MOV      r8,r4
        0x0001a72a:    464c        LF      MOV      r4,r9
        0x0001a72c:    f8541f70    T.p.    LDR      r1,[r4,#0x70]!
        0x0001a730:    88e3        ..      LDRH     r3,[r4,#6]
        0x0001a732:    88a2        ..      LDRH     r2,[r4,#4]
        0x0001a734:    f8d8600a    ...`    LDR      r6,[r8,#0xa]
        0x0001a738:    f8d8700a    ...p    LDR      r7,[r8,#0xa]
        0x0001a73c:    02f6        ..      LSLS     r6,r6,#11
        0x0001a73e:    d475        u.      BMI      0x1a82c ; am_hal_usb_interrupt_service + 844
        0x0001a740:    f8d8600a    ...`    LDR      r6,[r8,#0xa]
        0x0001a744:    037f        ..      LSLS     r7,r7,#13
        0x0001a746:    4644        DF      MOV      r4,r8
        0x0001a748:    f10080c5    ....    BMI.W    0x1a8d6 ; am_hal_usb_interrupt_service + 1014
        0x0001a74c:    03b7        ..      LSLS     r7,r6,#14
        0x0001a74e:    f10080c6    ....    BMI.W    0x1a8de ; am_hal_usb_interrupt_service + 1022
        0x0001a752:    4283        .B      CMP      r3,r0
        0x0001a754:    eba20c03    ....    SUB      r12,r2,r3
        0x0001a758:    f2408242    @.B.    BLS.W    0x1abe0 ; am_hal_usb_interrupt_service + 1792
        0x0001a75c:    1a1b        ..      SUBS     r3,r3,r0
        0x0001a75e:    f8a93076    ..v0    STRH     r3,[r9,#0x76]
        0x0001a762:    2300        .#      MOVS     r3,#0
        0x0001a764:    ebb30f90    ....    CMP      r3,r0,LSR #2
        0x0001a768:    f0000303    ....    AND      r3,r0,#3
        0x0001a76c:    d008        ..      BEQ      0x1a780 ; am_hal_usb_interrupt_service + 672
        0x0001a76e:    fa11f78c    ....    UXTAH    r7,r1,r12
        0x0001a772:    0886        ..      LSRS     r6,r0,#2
        0x0001a774:    f8572b04    W..+    LDR      r2,[r7],#4
        0x0001a778:    3e01        .>      SUBS     r6,#1
        0x0001a77a:    f8c4201a    ...     STR      r2,[r4,#0x1a]
        0x0001a77e:    d1f9        ..      BNE      0x1a774 ; am_hal_usb_interrupt_service + 660
        0x0001a780:    b153        S.      CBZ      r3,0x1a798 ; am_hal_usb_interrupt_service + 696
        0x0001a782:    fa1ff28c    ....    UXTH     r2,r12
        0x0001a786:    f0200003     ...    BIC      r0,r0,#3
        0x0001a78a:    4410        .D      ADD      r0,r0,r2
        0x0001a78c:    4408        .D      ADD      r0,r0,r1
        0x0001a78e:    f8101b01    ....    LDRB     r1,[r0],#1
        0x0001a792:    3b01        .;      SUBS     r3,#1
        0x0001a794:    76a1        .v      STRB     r1,[r4,#0x1a]
        0x0001a796:    d1fa        ..      BNE      0x1a78e ; am_hal_usb_interrupt_service + 686
        0x0001a798:    f8d4000a    ....    LDR      r0,[r4,#0xa]
        0x0001a79c:    f4403000    @..0    ORR      r0,r0,#0x20000
        0x0001a7a0:    e09b        ..      B        0x1a8da ; am_hal_usb_interrupt_service + 1018
        0x0001a7a2:    f8d4000a    ....    LDR      r0,[r4,#0xa]
        0x0001a7a6:    0340        @.      LSLS     r0,r0,#13
        0x0001a7a8:    d45b        [.      BMI      0x1a862 ; am_hal_usb_interrupt_service + 898
        0x0001a7aa:    2000        .       MOVS     r0,#0
        0x0001a7ac:    464c        LF      MOV      r4,r9
        0x0001a7ae:    f8440f70    D.p.    STR      r0,[r4,#0x70]!
        0x0001a7b2:    88a1        ..      LDRH     r1,[r4,#4]
        0x0001a7b4:    88e2        ..      LDRH     r2,[r4,#6]
        0x0001a7b6:    f8d47094    ...p    LDR      r7,[r4,#0x94]
        0x0001a7ba:    1a89        ..      SUBS     r1,r1,r2
        0x0001a7bc:    60a0        .`      STR      r0,[r4,#8]
        0x0001a7be:    6060        ``      STR      r0,[r4,#4]
        0x0001a7c0:    b289        ..      UXTH     r1,r1
        0x0001a7c2:    2000        .       MOVS     r0,#0
        0x0001a7c4:    e010        ..      B        0x1a7e8 ; am_hal_usb_interrupt_service + 776
        0x0001a7c6:    f8d4000a    ....    LDR      r0,[r4,#0xa]
        0x0001a7ca:    0340        @.      LSLS     r0,r0,#13
        0x0001a7cc:    d45d        ].      BMI      0x1a88a ; am_hal_usb_interrupt_service + 938
        0x0001a7ce:    2000        .       MOVS     r0,#0
        0x0001a7d0:    464c        LF      MOV      r4,r9
        0x0001a7d2:    f8440f70    D.p.    STR      r0,[r4,#0x70]!
        0x0001a7d6:    88a1        ..      LDRH     r1,[r4,#4]
        0x0001a7d8:    88e2        ..      LDRH     r2,[r4,#6]
        0x0001a7da:    f8d47094    ...p    LDR      r7,[r4,#0x94]
        0x0001a7de:    1a89        ..      SUBS     r1,r1,r2
        0x0001a7e0:    60a0        .`      STR      r0,[r4,#8]
        0x0001a7e2:    6060        ``      STR      r0,[r4,#4]
        0x0001a7e4:    b289        ..      UXTH     r1,r1
        0x0001a7e6:    2080        .       MOVS     r0,#0x80
        0x0001a7e8:    2200        ."      MOVS     r2,#0
        0x0001a7ea:    e062        b.      B        0x1a8b2 ; am_hal_usb_interrupt_service + 978
        0x0001a7ec:    f4430000    C...    ORR      r0,r3,#0x800000
        0x0001a7f0:    f8c4000a    ....    STR      r0,[r4,#0xa]
        0x0001a7f4:    f8d4000a    ....    LDR      r0,[r4,#0xa]
        0x0001a7f8:    03c0        ..      LSLS     r0,r0,#15
        0x0001a7fa:    d470        p.      BMI      0x1a8de ; am_hal_usb_interrupt_service + 1022
        0x0001a7fc:    f8b90074    ..t.    LDRH     r0,[r9,#0x74]
        0x0001a800:    f8b91076    ..v.    LDRH     r1,[r9,#0x76]
        0x0001a804:    f8d97104    ...q    LDR      r7,[r9,#0x104]
        0x0001a808:    1a40        @.      SUBS     r0,r0,r1
        0x0001a80a:    f1090470    ..p.    ADD      r4,r9,#0x70
        0x0001a80e:    2600        .&      MOVS     r6,#0
        0x0001a810:    b281        ..      UXTH     r1,r0
        0x0001a812:    2000        .       MOVS     r0,#0
        0x0001a814:    2206        ."      MOVS     r2,#6
        0x0001a816:    2300        .#      MOVS     r3,#0
        0x0001a818:    6026        &`      STR      r6,[r4,#0]
        0x0001a81a:    60a6        .`      STR      r6,[r4,#8]
        0x0001a81c:    6066        f`      STR      r6,[r4,#4]
        0x0001a81e:    47b8        .G      BLX      r7
        0x0001a820:    f8896056    ..V`    STRB     r6,[r9,#0x56]
        0x0001a824:    6026        &`      STR      r6,[r4,#0]
        0x0001a826:    6066        f`      STR      r6,[r4,#4]
        0x0001a828:    60a6        .`      STR      r6,[r4,#8]
        0x0001a82a:    e04d        M.      B        0x1a8c8 ; am_hal_usb_interrupt_service + 1000
        0x0001a82c:    f4470000    G...    ORR      r0,r7,#0x800000
        0x0001a830:    f8c8000a    ....    STR      r0,[r8,#0xa]
        0x0001a834:    f8b90074    ..t.    LDRH     r0,[r9,#0x74]
        0x0001a838:    f8b91076    ..v.    LDRH     r1,[r9,#0x76]
        0x0001a83c:    f8d97104    ...q    LDR      r7,[r9,#0x104]
        0x0001a840:    1a40        @.      SUBS     r0,r0,r1
        0x0001a842:    2600        .&      MOVS     r6,#0
        0x0001a844:    b281        ..      UXTH     r1,r0
        0x0001a846:    2080        .       MOVS     r0,#0x80
        0x0001a848:    2206        ."      MOVS     r2,#6
        0x0001a84a:    2300        .#      MOVS     r3,#0
        0x0001a84c:    6026        &`      STR      r6,[r4,#0]
        0x0001a84e:    60a6        .`      STR      r6,[r4,#8]
        0x0001a850:    6066        f`      STR      r6,[r4,#4]
        0x0001a852:    47b8        .G      BLX      r7
        0x0001a854:    f8896056    ..V`    STRB     r6,[r9,#0x56]
        0x0001a858:    6026        &`      STR      r6,[r4,#0]
        0x0001a85a:    6066        f`      STR      r6,[r4,#4]
        0x0001a85c:    60a6        .`      STR      r6,[r4,#8]
        0x0001a85e:    4644        DF      MOV      r4,r8
        0x0001a860:    e03d        =.      B        0x1a8de ; am_hal_usb_interrupt_service + 1022
        0x0001a862:    f8d4000a    ....    LDR      r0,[r4,#0xa]
        0x0001a866:    f4202080     ..     BIC      r0,r0,#0x40000
        0x0001a86a:    f8c4000a    ....    STR      r0,[r4,#0xa]
        0x0001a86e:    2000        .       MOVS     r0,#0
        0x0001a870:    464c        LF      MOV      r4,r9
        0x0001a872:    f8440f70    D.p.    STR      r0,[r4,#0x70]!
        0x0001a876:    88a1        ..      LDRH     r1,[r4,#4]
        0x0001a878:    88e2        ..      LDRH     r2,[r4,#6]
        0x0001a87a:    f8d47094    ...p    LDR      r7,[r4,#0x94]
        0x0001a87e:    1a89        ..      SUBS     r1,r1,r2
        0x0001a880:    60a0        .`      STR      r0,[r4,#8]
        0x0001a882:    6060        ``      STR      r0,[r4,#4]
        0x0001a884:    b289        ..      UXTH     r1,r1
        0x0001a886:    2000        .       MOVS     r0,#0
        0x0001a888:    e012        ..      B        0x1a8b0 ; am_hal_usb_interrupt_service + 976
        0x0001a88a:    f8d4000a    ....    LDR      r0,[r4,#0xa]
        0x0001a88e:    f4202080     ..     BIC      r0,r0,#0x40000
        0x0001a892:    f8c4000a    ....    STR      r0,[r4,#0xa]
        0x0001a896:    2000        .       MOVS     r0,#0
        0x0001a898:    464c        LF      MOV      r4,r9
        0x0001a89a:    f8440f70    D.p.    STR      r0,[r4,#0x70]!
        0x0001a89e:    88a1        ..      LDRH     r1,[r4,#4]
        0x0001a8a0:    88e2        ..      LDRH     r2,[r4,#6]
        0x0001a8a2:    f8d47094    ...p    LDR      r7,[r4,#0x94]
        0x0001a8a6:    1a89        ..      SUBS     r1,r1,r2
        0x0001a8a8:    60a0        .`      STR      r0,[r4,#8]
        0x0001a8aa:    6060        ``      STR      r0,[r4,#4]
        0x0001a8ac:    b289        ..      UXTH     r1,r1
        0x0001a8ae:    2080        .       MOVS     r0,#0x80
        0x0001a8b0:    2202        ."      MOVS     r2,#2
        0x0001a8b2:    2300        .#      MOVS     r3,#0
        0x0001a8b4:    47b8        .G      BLX      r7
        0x0001a8b6:    2000        .       MOVS     r0,#0
        0x0001a8b8:    f8890056    ..V.    STRB     r0,[r9,#0x56]
        0x0001a8bc:    6020         `      STR      r0,[r4,#0]
        0x0001a8be:    6060        ``      STR      r0,[r4,#4]
        0x0001a8c0:    60a0        .`      STR      r0,[r4,#8]
        0x0001a8c2:    4648        HF      MOV      r0,r9
        0x0001a8c4:    f7fffae0    ....    BL       am_hal_usb_ep0_handle_setup_req ; 0x19e88
        0x0001a8c8:    2406        .$      MOVS     r4,#6
        0x0001a8ca:    f2c4040b    ....    MOVT     r4,#0x400b
        0x0001a8ce:    e006        ..      B        0x1a8de ; am_hal_usb_interrupt_service + 1022
        0x0001a8d0:    f4272080    '..     BIC      r0,r7,#0x40000
        0x0001a8d4:    e001        ..      B        0x1a8da ; am_hal_usb_interrupt_service + 1018
        0x0001a8d6:    f4262080    &..     BIC      r0,r6,#0x40000
        0x0001a8da:    f8c4000a    ....    STR      r0,[r4,#0xa]
        0x0001a8de:    2501        .%      MOVS     r5,#1
        0x0001a8e0:    2701        .'      MOVS     r7,#1
        0x0001a8e2:    bf00        ..      NOP      
        0x0001a8e4:    fa05f007    ....    LSL      r0,r5,r7
        0x0001a8e8:    ea100f0b    ....    TST      r0,r11
        0x0001a8ec:    d074        t.      BEQ      0x1a9d8 ; am_hal_usb_interrupt_service + 1272
        0x0001a8ee:    1e79        y.      SUBS     r1,r7,#1
        0x0001a8f0:    eb090241    ..A.    ADD      r2,r9,r1,LSL #1
        0x0001a8f4:    f8b2605a    ..Z`    LDRH     r6,[r2,#0x5a]
        0x0001a8f8:    f8d42006    ...     LDR      r2,[r4,#6]
        0x0001a8fc:    f4222270    ".p"    BIC      r2,r2,#0xf0000
        0x0001a900:    f8c42006    ...     STR      r2,[r4,#6]
        0x0001a904:    f8d42006    ...     LDR      r2,[r4,#6]
        0x0001a908:    ea424207    B..B    ORR      r2,r2,r7,LSL #16
        0x0001a90c:    f8c42006    ...     STR      r2,[r4,#6]
        0x0001a910:    f8d4300a    ...0    LDR      r3,[r4,#0xa]
        0x0001a914:    f8d4200a    ...     LDR      r2,[r4,#0xa]
        0x0001a918:    029b        ..      LSLS     r3,r3,#10
        0x0001a91a:    d459        Y.      BMI      0x1a9d0 ; am_hal_usb_interrupt_service + 1264
        0x0001a91c:    03d2        ..      LSLS     r2,r2,#15
        0x0001a91e:    d45b        [.      BMI      0x1a9d8 ; am_hal_usb_interrupt_service + 1272
        0x0001a920:    eb010141    ..A.    ADD      r1,r1,r1,LSL #1
        0x0001a924:    eb0908c1    ....    ADD      r8,r9,r1,LSL #3
        0x0001a928:    46c3        .F      MOV      r11,r8
        0x0001a92a:    f83b3f8e    ;..?    LDRH     r3,[r11,#0x8e]!
        0x0001a92e:    f1080588    ....    ADD      r5,r8,#0x88
        0x0001a932:    2b00        .+      CMP      r3,#0
        0x0001a934:    d055        U.      BEQ      0x1a9e2 ; am_hal_usb_interrupt_service + 1282
        0x0001a936:    4630        0F      MOV      r0,r6
        0x0001a938:    42b3        .B      CMP      r3,r6
        0x0001a93a:    bf38        8.      IT       CC
        0x0001a93c:    4618        .F      MOVCC    r0,r3
        0x0001a93e:    f8d5c000    ....    LDR      r12,[r5,#0]
        0x0001a942:    f8b8e08c    ....    LDRH     lr,[r8,#0x8c]
        0x0001a946:    2100        .!      MOVS     r1,#0
        0x0001a948:    ebb10f90    ....    CMP      r1,r0,LSR #2
        0x0001a94c:    d00e        ..      BEQ      0x1a96c ; am_hal_usb_interrupt_service + 1164
        0x0001a94e:    eb0c010e    ....    ADD      r1,r12,lr
        0x0001a952:    1acd        ..      SUBS     r5,r1,r3
        0x0001a954:    2106        .!      MOVS     r1,#6
        0x0001a956:    f2c4010b    ....    MOVT     r1,#0x400b
        0x0001a95a:    0884        ..      LSRS     r4,r0,#2
        0x0001a95c:    f1010a1a    ....    ADD      r10,r1,#0x1a
        0x0001a960:    f8551b04    U...    LDR      r1,[r5],#4
        0x0001a964:    3c01        .<      SUBS     r4,#1
        0x0001a966:    f84a1027    J.'.    STR      r1,[r10,r7,LSL #2]
        0x0001a96a:    d1f9        ..      BNE      0x1a960 ; am_hal_usb_interrupt_service + 1152
        0x0001a96c:    f0100503    ....    ANDS     r5,r0,#3
        0x0001a970:    d010        ..      BEQ      0x1a994 ; am_hal_usb_interrupt_service + 1204
        0x0001a972:    f0200103     ...    BIC      r1,r0,#3
        0x0001a976:    2206        ."      MOVS     r2,#6
        0x0001a978:    4471        qD      ADD      r1,r1,lr
        0x0001a97a:    f2c4020b    ....    MOVT     r2,#0x400b
        0x0001a97e:    1ac9        ..      SUBS     r1,r1,r3
        0x0001a980:    f102041a    ....    ADD      r4,r2,#0x1a
        0x0001a984:    4461        aD      ADD      r1,r1,r12
        0x0001a986:    bf00        ..      NOP      
        0x0001a988:    f8112b01    ...+    LDRB     r2,[r1],#1
        0x0001a98c:    3d01        .=      SUBS     r5,#1
        0x0001a98e:    f8042027    ..'     STRB     r2,[r4,r7,LSL #2]
        0x0001a992:    d1f9        ..      BNE      0x1a988 ; am_hal_usb_interrupt_service + 1192
        0x0001a994:    2406        .$      MOVS     r4,#6
        0x0001a996:    f2c4040b    ....    MOVT     r4,#0x400b
        0x0001a99a:    f8d4100a    ....    LDR      r1,[r4,#0xa]
        0x0001a99e:    429e        .B      CMP      r6,r3
        0x0001a9a0:    f4413180    A..1    ORR      r1,r1,#0x10000
        0x0001a9a4:    f8c4100a    ....    STR      r1,[r4,#0xa]
        0x0001a9a8:    f8bb1000    ....    LDRH     r1,[r11,#0]
        0x0001a9ac:    f04f0501    O...    MOV      r5,#1
        0x0001a9b0:    eba10000    ....    SUB      r0,r1,r0
        0x0001a9b4:    f8ab0000    ....    STRH     r0,[r11,#0]
        0x0001a9b8:    e9ddba03    ....    LDRD     r11,r10,[sp,#0xc]
        0x0001a9bc:    d80c        ..      BHI      0x1a9d8 ; am_hal_usb_interrupt_service + 1272
        0x0001a9be:    0400        ..      LSLS     r0,r0,#16
        0x0001a9c0:    d10a        ..      BNE      0x1a9d8 ; am_hal_usb_interrupt_service + 1272
        0x0001a9c2:    f8980090    ....    LDRB     r0,[r8,#0x90]
        0x0001a9c6:    f0400002    @...    ORR      r0,r0,#2
        0x0001a9ca:    f8880090    ....    STRB     r0,[r8,#0x90]
        0x0001a9ce:    e003        ..      B        0x1a9d8 ; am_hal_usb_interrupt_service + 1272
        0x0001a9d0:    f4221000    "...    BIC      r0,r2,#0x200000
        0x0001a9d4:    f8c4000a    ....    STR      r0,[r4,#0xa]
        0x0001a9d8:    3701        .7      ADDS     r7,#1
        0x0001a9da:    2f06        ./      CMP      r7,#6
        0x0001a9dc:    f47faf82    ....    BNE.W    0x1a8e4 ; am_hal_usb_interrupt_service + 1028
        0x0001a9e0:    e016        ..      B        0x1aa10 ; am_hal_usb_interrupt_service + 1328
        0x0001a9e2:    8821        !.      LDRH     r1,[r4,#0]
        0x0001a9e4:    f080003f    ..?.    EOR      r0,r0,#0x3f
        0x0001a9e8:    4008        .@      ANDS     r0,r0,r1
        0x0001a9ea:    8020         .      STRH     r0,[r4,#0]
        0x0001a9ec:    2200        ."      MOVS     r2,#0
        0x0001a9ee:    f8b8108c    ....    LDRH     r1,[r8,#0x8c]
        0x0001a9f2:    60aa        .`      STR      r2,[r5,#8]
        0x0001a9f4:    606a        j`      STR      r2,[r5,#4]
        0x0001a9f6:    f0470080    G...    ORR      r0,r7,#0x80
        0x0001a9fa:    f8d96104    ...a    LDR      r6,[r9,#0x104]
        0x0001a9fe:    602a        *`      STR      r2,[r5,#0]
        0x0001aa00:    b2c0        ..      UXTB     r0,r0
        0x0001aa02:    2200        ."      MOVS     r2,#0
        0x0001aa04:    2300        .#      MOVS     r3,#0
        0x0001aa06:    47b0        .G      BLX      r6
        0x0001aa08:    f8ddb00c    ....    LDR      r11,[sp,#0xc]
        0x0001aa0c:    2501        .%      MOVS     r5,#1
        0x0001aa0e:    e7e3        ..      B        0x1a9d8 ; am_hal_usb_interrupt_service + 1272
        0x0001aa10:    2301        .#      MOVS     r3,#1
        0x0001aa12:    2701        .'      MOVS     r7,#1
        0x0001aa14:    fa03f007    ....    LSL      r0,r3,r7
        0x0001aa18:    ea100f0a    ....    TST      r0,r10
        0x0001aa1c:    f00080be    ....    BEQ.W    0x1ab9c ; am_hal_usb_interrupt_service + 1724
        0x0001aa20:    f8d41006    ....    LDR      r1,[r4,#6]
        0x0001aa24:    f4212170    !.p!    BIC      r1,r1,#0xf0000
        0x0001aa28:    f8c41006    ....    STR      r1,[r4,#6]
        0x0001aa2c:    f8d41006    ....    LDR      r1,[r4,#6]
        0x0001aa30:    ea414107    A..A    ORR      r1,r1,r7,LSL #16
        0x0001aa34:    f8c41006    ....    STR      r1,[r4,#6]
        0x0001aa38:    f8d4200e    ...     LDR      r2,[r4,#0xe]
        0x0001aa3c:    f8d4100e    ....    LDR      r1,[r4,#0xe]
        0x0001aa40:    0252        R.      LSLS     r2,r2,#9
        0x0001aa42:    d461        a.      BMI      0x1ab08 ; am_hal_usb_interrupt_service + 1576
        0x0001aa44:    03c9        ..      LSLS     r1,r1,#15
        0x0001aa46:    f14080a9    @...    BPL.W    0x1ab9c ; am_hal_usb_interrupt_service + 1724
        0x0001aa4a:    1e7a        z.      SUBS     r2,r7,#1
        0x0001aa4c:    eb020142    ..B.    ADD      r1,r2,r2,LSL #1
        0x0001aa50:    eb0903c1    ....    ADD      r3,r9,r1,LSL #3
        0x0001aa54:    469b        .F      MOV      r11,r3
        0x0001aa56:    f8d44012    ...@    LDR      r4,[r4,#0x12]
        0x0001aa5a:    f83b6f82    ;..o    LDRH     r6,[r11,#0x82]!
        0x0001aa5e:    f1030e7c    ..|.    ADD      lr,r3,#0x7c
        0x0001aa62:    f8dec000    ....    LDR      r12,[lr,#0]
        0x0001aa66:    f83b8c02    ;...    LDRH     r8,[r11,#-2]
        0x0001aa6a:    4621        !F      MOV      r1,r4
        0x0001aa6c:    f36f315f    o._1    BFC      r1,#13,#19
        0x0001aa70:    eb0c0508    ....    ADD      r5,r12,r8
        0x0001aa74:    42b1        .B      CMP      r1,r6
        0x0001aa76:    eba50506    ....    SUB      r5,r5,r6
        0x0001aa7a:    d94a        J.      BLS      0x1ab12 ; am_hal_usb_interrupt_service + 1586
        0x0001aa7c:    2100        .!      MOVS     r1,#0
        0x0001aa7e:    ebb10f96    ....    CMP      r1,r6,LSR #2
        0x0001aa82:    d00b        ..      BEQ      0x1aa9c ; am_hal_usb_interrupt_service + 1468
        0x0001aa84:    2206        ."      MOVS     r2,#6
        0x0001aa86:    f2c4020b    ....    MOVT     r2,#0x400b
        0x0001aa8a:    08b1        ..      LSRS     r1,r6,#2
        0x0001aa8c:    321a        .2      ADDS     r2,r2,#0x1a
        0x0001aa8e:    bf00        ..      NOP      
        0x0001aa90:    f8524027    R.'@    LDR      r4,[r2,r7,LSL #2]
        0x0001aa94:    3901        .9      SUBS     r1,#1
        0x0001aa96:    f8454b04    E..K    STR      r4,[r5],#4
        0x0001aa9a:    d1f9        ..      BNE      0x1aa90 ; am_hal_usb_interrupt_service + 1456
        0x0001aa9c:    f0160103    ....    ANDS     r1,r6,#3
        0x0001aaa0:    d012        ..      BEQ      0x1aac8 ; am_hal_usb_interrupt_service + 1512
        0x0001aaa2:    f0260203    &...    BIC      r2,r6,#3
        0x0001aaa6:    461d        .F      MOV      r5,r3
        0x0001aaa8:    2306        .#      MOVS     r3,#6
        0x0001aaaa:    4442        BD      ADD      r2,r2,r8
        0x0001aaac:    f2c4030b    ....    MOVT     r3,#0x400b
        0x0001aab0:    1b92        ..      SUBS     r2,r2,r6
        0x0001aab2:    f103041a    ....    ADD      r4,r3,#0x1a
        0x0001aab6:    462b        +F      MOV      r3,r5
        0x0001aab8:    4462        bD      ADD      r2,r2,r12
        0x0001aaba:    bf00        ..      NOP      
        0x0001aabc:    f8146027    ..'`    LDRB     r6,[r4,r7,LSL #2]
        0x0001aac0:    3901        .9      SUBS     r1,#1
        0x0001aac2:    f8026b01    ...k    STRB     r6,[r2],#1
        0x0001aac6:    d1f9        ..      BNE      0x1aabc ; am_hal_usb_interrupt_service + 1500
        0x0001aac8:    2100        .!      MOVS     r1,#0
        0x0001aaca:    2406        .$      MOVS     r4,#6
        0x0001aacc:    f8ab1000    ....    STRH     r1,[r11,#0]
        0x0001aad0:    f2c4040b    ....    MOVT     r4,#0x400b
        0x0001aad4:    78a1        .x      LDRB     r1,[r4,#2]
        0x0001aad6:    2200        ."      MOVS     r2,#0
        0x0001aad8:    ea210000    !...    BIC      r0,r1,r0
        0x0001aadc:    f000003f    ..?.    AND      r0,r0,#0x3f
        0x0001aae0:    70a0        .p      STRB     r0,[r4,#2]
        0x0001aae2:    f8b30080    ....    LDRH     r0,[r3,#0x80]
        0x0001aae6:    f8bb1000    ....    LDRH     r1,[r11,#0]
        0x0001aaea:    f8d96104    ...a    LDR      r6,[r9,#0x104]
        0x0001aaee:    1a40        @.      SUBS     r0,r0,r1
        0x0001aaf0:    2100        .!      MOVS     r1,#0
        0x0001aaf2:    f8ce1000    ....    STR      r1,[lr,#0]
        0x0001aaf6:    f8ce1008    ....    STR      r1,[lr,#8]
        0x0001aafa:    f8ce1004    ....    STR      r1,[lr,#4]
        0x0001aafe:    b281        ..      UXTH     r1,r0
        0x0001ab00:    b2f8        ..      UXTB     r0,r7
        0x0001ab02:    2300        .#      MOVS     r3,#0
        0x0001ab04:    47b0        .G      BLX      r6
        0x0001ab06:    e047        G.      B        0x1ab98 ; am_hal_usb_interrupt_service + 1720
        0x0001ab08:    f4210080    !...    BIC      r0,r1,#0x400000
        0x0001ab0c:    f8c4000e    ....    STR      r0,[r4,#0xe]
        0x0001ab10:    e044        D.      B        0x1ab9c ; am_hal_usb_interrupt_service + 1724
        0x0001ab12:    eb090242    ..B.    ADD      r2,r9,r2,LSL #1
        0x0001ab16:    f8b22064    ..d     LDRH     r2,[r2,#0x64]
        0x0001ab1a:    9303        ..      STR      r3,[sp,#0xc]
        0x0001ab1c:    9202        ..      STR      r2,[sp,#8]
        0x0001ab1e:    2200        ."      MOVS     r2,#0
        0x0001ab20:    ebb20f91    ....    CMP      r2,r1,LSR #2
        0x0001ab24:    d00d        ..      BEQ      0x1ab42 ; am_hal_usb_interrupt_service + 1634
        0x0001ab26:    2206        ."      MOVS     r2,#6
        0x0001ab28:    f2c4020b    ....    MOVT     r2,#0x400b
        0x0001ab2c:    ea4f0a91    O...    LSR      r10,r1,#2
        0x0001ab30:    321a        .2      ADDS     r2,r2,#0x1a
        0x0001ab32:    bf00        ..      NOP      
        0x0001ab34:    f8523027    R.'0    LDR      r3,[r2,r7,LSL #2]
        0x0001ab38:    f1ba0a01    ....    SUBS     r10,r10,#1
        0x0001ab3c:    f8453b04    E..;    STR      r3,[r5],#4
        0x0001ab40:    d1f8        ..      BNE      0x1ab34 ; am_hal_usb_interrupt_service + 1620
        0x0001ab42:    f0140503    ....    ANDS     r5,r4,#3
        0x0001ab46:    d013        ..      BEQ      0x1ab70 ; am_hal_usb_interrupt_service + 1680
        0x0001ab48:    f64172fc    A..r    MOV      r2,#0x1ffc
        0x0001ab4c:    4022        "@      ANDS     r2,r2,r4
        0x0001ab4e:    2306        .#      MOVS     r3,#6
        0x0001ab50:    4442        BD      ADD      r2,r2,r8
        0x0001ab52:    f2c4030b    ....    MOVT     r3,#0x400b
        0x0001ab56:    1b92        ..      SUBS     r2,r2,r6
        0x0001ab58:    f103041a    ....    ADD      r4,r3,#0x1a
        0x0001ab5c:    4462        bD      ADD      r2,r2,r12
        0x0001ab5e:    bf00        ..      NOP      
        0x0001ab60:    f8143027    ..'0    LDRB     r3,[r4,r7,LSL #2]
        0x0001ab64:    3d01        .=      SUBS     r5,#1
        0x0001ab66:    f8023b01    ...;    STRB     r3,[r2],#1
        0x0001ab6a:    d1f9        ..      BNE      0x1ab60 ; am_hal_usb_interrupt_service + 1664
        0x0001ab6c:    f8bb6000    ...`    LDRH     r6,[r11,#0]
        0x0001ab70:    e9dd5302    ...S    LDRD     r5,r3,[sp,#8]
        0x0001ab74:    f8dda010    ....    LDR      r10,[sp,#0x10]
        0x0001ab78:    2406        .$      MOVS     r4,#6
        0x0001ab7a:    f2c4040b    ....    MOVT     r4,#0x400b
        0x0001ab7e:    1a72        r.      SUBS     r2,r6,r1
        0x0001ab80:    42a9        .B      CMP      r1,r5
        0x0001ab82:    f8ab2000    ...     STRH     r2,[r11,#0]
        0x0001ab86:    d3a5        ..      BCC      0x1aad4 ; am_hal_usb_interrupt_service + 1524
        0x0001ab88:    0411        ..      LSLS     r1,r2,#16
        0x0001ab8a:    d0a3        ..      BEQ      0x1aad4 ; am_hal_usb_interrupt_service + 1524
        0x0001ab8c:    f8d4000e    ....    LDR      r0,[r4,#0xe]
        0x0001ab90:    f4203080     ..0    BIC      r0,r0,#0x10000
        0x0001ab94:    f8c4000e    ....    STR      r0,[r4,#0xe]
        0x0001ab98:    2301        .#      MOVS     r3,#1
        0x0001ab9a:    bf00        ..      NOP      
        0x0001ab9c:    3701        .7      ADDS     r7,#1
        0x0001ab9e:    2f06        ./      CMP      r7,#6
        0x0001aba0:    f47faf38    ..8.    BNE      0x1aa14 ; am_hal_usb_interrupt_service + 1332
        0x0001aba4:    9801        ..      LDR      r0,[sp,#4]
        0x0001aba6:    07c0        ..      LSLS     r0,r0,#31
        0x0001aba8:    d012        ..      BEQ      0x1abd0 ; am_hal_usb_interrupt_service + 1776
        0x0001abaa:    f2440010    D...    MOV      r0,#0x4010
        0x0001abae:    f2c4000b    ....    MOVT     r0,#0x400b
        0x0001abb2:    6801        .h      LDR      r1,[r0,#0]
        0x0001abb4:    f00101fd    ....    AND      r1,r1,#0xfd
        0x0001abb8:    6001        .`      STR      r1,[r0,#0]
        0x0001abba:    f8d910fc    ....    LDR      r1,[r9,#0xfc]
        0x0001abbe:    2005        .       MOVS     r0,#5
        0x0001abc0:    f8890055    ..U.    STRB     r0,[r9,#0x55]
        0x0001abc4:    b121        !.      CBZ      r1,0x1abd0 ; am_hal_usb_interrupt_service + 1776
        0x0001abc6:    2003        .       MOVS     r0,#3
        0x0001abc8:    b005        ..      ADD      sp,sp,#0x14
        0x0001abca:    e8bd4ff0    ...O    POP      {r4-r11,lr}
        0x0001abce:    4708        .G      BX       r1
        0x0001abd0:    b005        ..      ADD      sp,sp,#0x14
        0x0001abd2:    e8bd8ff0    ....    POP      {r4-r11,pc}
        0x0001abd6:    f8d4000a    ....    LDR      r0,[r4,#0xa]
        0x0001abda:    f4400080    @...    ORR      r0,r0,#0x400000
        0x0001abde:    e67c        |.      B        0x1a8da ; am_hal_usb_interrupt_service + 1018
        0x0001abe0:    2000        .       MOVS     r0,#0
        0x0001abe2:    ebb00f93    ....    CMP      r0,r3,LSR #2
        0x0001abe6:    f0030003    ....    AND      r0,r3,#3
        0x0001abea:    d008        ..      BEQ      0x1abfe ; am_hal_usb_interrupt_service + 1822
        0x0001abec:    fa11f78c    ....    UXTAH    r7,r1,r12
        0x0001abf0:    089e        ..      LSRS     r6,r3,#2
        0x0001abf2:    f8572b04    W..+    LDR      r2,[r7],#4
        0x0001abf6:    3e01        .>      SUBS     r6,#1
        0x0001abf8:    f8c4201a    ...     STR      r2,[r4,#0x1a]
        0x0001abfc:    d1f9        ..      BNE      0x1abf2 ; am_hal_usb_interrupt_service + 1810
        0x0001abfe:    b150        P.      CBZ      r0,0x1ac16 ; am_hal_usb_interrupt_service + 1846
        0x0001ac00:    fa1ff28c    ....    UXTH     r2,r12
        0x0001ac04:    f0230303    #...    BIC      r3,r3,#3
        0x0001ac08:    441a        .D      ADD      r2,r2,r3
        0x0001ac0a:    4411        .D      ADD      r1,r1,r2
        0x0001ac0c:    f8112b01    ...+    LDRB     r2,[r1],#1
        0x0001ac10:    3801        .8      SUBS     r0,#1
        0x0001ac12:    76a2        .v      STRB     r2,[r4,#0x1a]
        0x0001ac14:    d1fa        ..      BNE      0x1ac0c ; am_hal_usb_interrupt_service + 1836
        0x0001ac16:    2000        .       MOVS     r0,#0
        0x0001ac18:    f8a90076    ..v.    STRH     r0,[r9,#0x76]
        0x0001ac1c:    2005        .       MOVS     r0,#5
        0x0001ac1e:    f8890056    ..V.    STRB     r0,[r9,#0x56]
        0x0001ac22:    f8d4000a    ....    LDR      r0,[r4,#0xa]
        0x0001ac26:    f4402020    @.      ORR      r0,r0,#0xa0000
        0x0001ac2a:    e656        V.      B        0x1a8da ; am_hal_usb_interrupt_service + 1018
    am_hal_usb_intr_status_get
        0x0001ac2c:    b1e8        ..      CBZ      r0,0x1ac6a ; am_hal_usb_intr_status_get + 62
        0x0001ac2e:    6800        .h      LDR      r0,[r0,#0]
        0x0001ac30:    f0204c7e     .~L    BIC      r12,r0,#0xfe000000
        0x0001ac34:    f6496006    I..`    MOV      r0,#0x9e06
        0x0001ac38:    f2c010ea    ....    MOVT     r0,#0x1ea
        0x0001ac3c:    4584        .E      CMP      r12,r0
        0x0001ac3e:    d114        ..      BNE      0x1ac6a ; am_hal_usb_intr_status_get + 62
        0x0001ac40:    f2400c02    @...    MOVW     r12,#2
        0x0001ac44:    f2c40c0b    ....    MOVT     r12,#0x400b
        0x0001ac48:    f89c0008    ....    LDRB     r0,[r12,#8]
        0x0001ac4c:    f000000f    ....    AND      r0,r0,#0xf
        0x0001ac50:    6008        .`      STR      r0,[r1,#0]
        0x0001ac52:    f8bc0000    ....    LDRH     r0,[r12,#0]
        0x0001ac56:    f000003f    ..?.    AND      r0,r0,#0x3f
        0x0001ac5a:    6010        .`      STR      r0,[r2,#0]
        0x0001ac5c:    f89c0002    ....    LDRB     r0,[r12,#2]
        0x0001ac60:    f000003f    ..?.    AND      r0,r0,#0x3f
        0x0001ac64:    6018        .`      STR      r0,[r3,#0]
        0x0001ac66:    2000        .       MOVS     r0,#0
        0x0001ac68:    4770        pG      BX       lr
        0x0001ac6a:    2002        .       MOVS     r0,#2
        0x0001ac6c:    4770        pG      BX       lr
    am_hal_usb_intr_usb_enable
        0x0001ac6e:    b1a0        ..      CBZ      r0,0x1ac9a ; am_hal_usb_intr_usb_enable + 44
        0x0001ac70:    6800        .h      LDR      r0,[r0,#0]
        0x0001ac72:    f6496206    I..b    MOV      r2,#0x9e06
        0x0001ac76:    f020407e     .~@    BIC      r0,r0,#0xfe000000
        0x0001ac7a:    f2c012ea    ....    MOVT     r2,#0x1ea
        0x0001ac7e:    4290        .B      CMP      r0,r2
        0x0001ac80:    d10b        ..      BNE      0x1ac9a ; am_hal_usb_intr_usb_enable + 44
        0x0001ac82:    290f        .)      CMP      r1,#0xf
        0x0001ac84:    bf84        ..      ITT      HI
        0x0001ac86:    2006        .       MOVHI    r0,#6
        0x0001ac88:    4770        pG      BXHI     lr
        0x0001ac8a:    200b        .       MOVS     r0,#0xb
        0x0001ac8c:    f2c4000b    ....    MOVT     r0,#0x400b
        0x0001ac90:    7802        .x      LDRB     r2,[r0,#0]
        0x0001ac92:    4311        .C      ORRS     r1,r1,r2
        0x0001ac94:    7001        .p      STRB     r1,[r0,#0]
        0x0001ac96:    2000        .       MOVS     r0,#0
        0x0001ac98:    4770        pG      BX       lr
        0x0001ac9a:    2002        .       MOVS     r0,#2
        0x0001ac9c:    4770        pG      BX       lr
        0x0001ac9e:    0000        ..      MOVS     r0,r0
    am_hal_usb_power_control
        0x0001aca0:    b5b0        ..      PUSH     {r4,r5,r7,lr}
        0x0001aca2:    b084        ..      SUB      sp,sp,#0x10
        0x0001aca4:    4604        .F      MOV      r4,r0
        0x0001aca6:    f8d000f8    ....    LDR      r0,[r0,#0xf8]
        0x0001acaa:    b108        ..      CBZ      r0,0x1acb0 ; am_hal_usb_power_control + 16
        0x0001acac:    2005        .       MOVS     r0,#5
        0x0001acae:    e0b5        ..      B        0x1ae1c ; am_hal_usb_power_control + 380
        0x0001acb0:    6823        #h      LDR      r3,[r4,#0]
        0x0001acb2:    4615        .F      MOV      r5,r2
        0x0001acb4:    f6496206    I..b    MOV      r2,#0x9e06
        0x0001acb8:    f2c012ea    ....    MOVT     r2,#0x1ea
        0x0001acbc:    f023407e    #.~@    BIC      r0,r3,#0xfe000000
        0x0001acc0:    4290        .B      CMP      r0,r2
        0x0001acc2:    d150        P.      BNE      0x1ad66 ; am_hal_usb_power_control + 198
        0x0001acc4:    1e48        H.      SUBS     r0,r1,#1
        0x0001acc6:    2802        .(      CMP      r0,#2
        0x0001acc8:    d24f        O.      BCS      0x1ad6a ; am_hal_usb_power_control + 202
        0x0001acca:    2000        .       MOVS     r0,#0
        0x0001accc:    f2c4000b    ....    MOVT     r0,#0x400b
        0x0001acd0:    b38d        ..      CBZ      r5,0x1ad36 ; am_hal_usb_power_control + 150
        0x0001acd2:    f24e1c00    N...    MOVW     r12,#0xe100
        0x0001acd6:    f2ce0c00    ....    MOVT     r12,#0xe000
        0x0001acda:    f04f6300    O..c    MOV      r3,#0x8000000
        0x0001acde:    f8cc3080    ...0    STR      r3,[r12,#0x80]
        0x0001ace2:    f3bf8f4f    ..O.    DSB      
        0x0001ace6:    f3bf8f6f    ..o.    ISB      
        0x0001acea:    6803        .h      LDR      r3,[r0,#0]
        0x0001acec:    f44f3580    O..5    MOV      r5,#0x10000
        0x0001acf0:    60a3        .`      STR      r3,[r4,#8]
        0x0001acf2:    6843        Ch      LDR      r3,[r0,#4]
        0x0001acf4:    60e3        .`      STR      r3,[r4,#0xc]
        0x0001acf6:    6883        .h      LDR      r3,[r0,#8]
        0x0001acf8:    6123        #a      STR      r3,[r4,#0x10]
        0x0001acfa:    f1040314    ....    ADD      r3,r4,#0x14
        0x0001acfe:    bf00        ..      NOP      
        0x0001ad00:    68c1        .h      LDR      r1,[r0,#0xc]
        0x0001ad02:    f4212170    !.p!    BIC      r1,r1,#0xf0000
        0x0001ad06:    60c1        .`      STR      r1,[r0,#0xc]
        0x0001ad08:    68c1        .h      LDR      r1,[r0,#0xc]
        0x0001ad0a:    4329        )C      ORRS     r1,r1,r5
        0x0001ad0c:    60c1        .`      STR      r1,[r0,#0xc]
        0x0001ad0e:    6901        .i      LDR      r1,[r0,#0x10]
        0x0001ad10:    f5053580    ...5    ADD      r5,r5,#0x10000
        0x0001ad14:    6019        .`      STR      r1,[r3,#0]
        0x0001ad16:    6941        Ai      LDR      r1,[r0,#0x14]
        0x0001ad18:    f5b52fc0    .../    CMP      r5,#0x60000
        0x0001ad1c:    6059        Y`      STR      r1,[r3,#4]
        0x0001ad1e:    6981        .i      LDR      r1,[r0,#0x18]
        0x0001ad20:    6099        .`      STR      r1,[r3,#8]
        0x0001ad22:    f103030c    ....    ADD      r3,r3,#0xc
        0x0001ad26:    d1eb        ..      BNE      0x1ad00 ; am_hal_usb_power_control + 96
        0x0001ad28:    2101        .!      MOVS     r1,#1
        0x0001ad2a:    7121        !q      STRB     r1,[r4,#4]
        0x0001ad2c:    f04f6100    O..a    MOV      r1,#0x8000000
        0x0001ad30:    f8cc1000    ....    STR      r1,[r12,#0]
        0x0001ad34:    6823        #h      LDR      r3,[r4,#0]
        0x0001ad36:    f023437e    #.~C    BIC      r3,r3,#0xfe000000
        0x0001ad3a:    2100        .!      MOVS     r1,#0
        0x0001ad3c:    4293        .B      CMP      r3,r2
        0x0001ad3e:    9103        ..      STR      r1,[sp,#0xc]
        0x0001ad40:    d15f        _.      BNE      0x1ae02 ; am_hal_usb_power_control + 354
        0x0001ad42:    7a82        .z      LDRB     r2,[r0,#0xa]
        0x0001ad44:    f002020f    ....    AND      r2,r2,#0xf
        0x0001ad48:    9203        ..      STR      r2,[sp,#0xc]
        0x0001ad4a:    9a03        ..      LDR      r2,[sp,#0xc]
        0x0001ad4c:    9102        ..      STR      r1,[sp,#8]
        0x0001ad4e:    8842        B.      LDRH     r2,[r0,#2]
        0x0001ad50:    f002023f    ..?.    AND      r2,r2,#0x3f
        0x0001ad54:    9202        ..      STR      r2,[sp,#8]
        0x0001ad56:    9a02        ..      LDR      r2,[sp,#8]
        0x0001ad58:    9101        ..      STR      r1,[sp,#4]
        0x0001ad5a:    7900        .y      LDRB     r0,[r0,#4]
        0x0001ad5c:    f000003f    ..?.    AND      r0,r0,#0x3f
        0x0001ad60:    9001        ..      STR      r0,[sp,#4]
        0x0001ad62:    9801        ..      LDR      r0,[sp,#4]
        0x0001ad64:    e04f        O.      B        0x1ae06 ; am_hal_usb_power_control + 358
        0x0001ad66:    2002        .       MOVS     r0,#2
        0x0001ad68:    e058        X.      B        0x1ae1c ; am_hal_usb_power_control + 380
        0x0001ad6a:    2900        .)      CMP      r1,#0
        0x0001ad6c:    d155        U.      BNE      0x1ae1a ; am_hal_usb_power_control + 378
        0x0001ad6e:    b115        ..      CBZ      r5,0x1ad76 ; am_hal_usb_power_control + 214
        0x0001ad70:    7920         y      LDRB     r0,[r4,#4]
        0x0001ad72:    2800        .(      CMP      r0,#0
        0x0001ad74:    d054        T.      BEQ      0x1ae20 ; am_hal_usb_power_control + 384
        0x0001ad76:    2016        .       MOVS     r0,#0x16
        0x0001ad78:    f7fefd6b    ..k.    BL       am_hal_pwrctrl_periph_enable ; 0x19852
        0x0001ad7c:    2800        .(      CMP      r0,#0
        0x0001ad7e:    d14d        M.      BNE      0x1ae1c ; am_hal_usb_power_control + 380
        0x0001ad80:    2017        .       MOVS     r0,#0x17
        0x0001ad82:    f7fefd66    ..f.    BL       am_hal_pwrctrl_periph_enable ; 0x19852
        0x0001ad86:    2800        .(      CMP      r0,#0
        0x0001ad88:    d148        H.      BNE      0x1ae1c ; am_hal_usb_power_control + 380
        0x0001ad8a:    f2420004    B...    MOV      r0,#0x2004
        0x0001ad8e:    f2c4000b    ....    MOVT     r0,#0x400b
        0x0001ad92:    f2427107    B..q    MOV      r1,#0x2707
        0x0001ad96:    2d00        .-      CMP      r5,#0
        0x0001ad98:    6001        .`      STR      r1,[r0,#0]
        0x0001ad9a:    d043        C.      BEQ      0x1ae24 ; am_hal_usb_power_control + 388
        0x0001ad9c:    f24e1100    N...    MOVW     r1,#0xe100
        0x0001ada0:    f2ce0100    ....    MOVT     r1,#0xe000
        0x0001ada4:    f04f6000    O..`    MOV      r0,#0x8000000
        0x0001ada8:    f8c10080    ....    STR      r0,[r1,#0x80]
        0x0001adac:    f3bf8f4f    ..O.    DSB      
        0x0001adb0:    f3bf8f6f    ..o.    ISB      
        0x0001adb4:    68a2        .h      LDR      r2,[r4,#8]
        0x0001adb6:    2000        .       MOVS     r0,#0
        0x0001adb8:    f2c4000b    ....    MOVT     r0,#0x400b
        0x0001adbc:    6002        .`      STR      r2,[r0,#0]
        0x0001adbe:    68e2        .h      LDR      r2,[r4,#0xc]
        0x0001adc0:    f44f3380    O..3    MOV      r3,#0x10000
        0x0001adc4:    6042        B`      STR      r2,[r0,#4]
        0x0001adc6:    6922        "i      LDR      r2,[r4,#0x10]
        0x0001adc8:    6082        .`      STR      r2,[r0,#8]
        0x0001adca:    f1040214    ....    ADD      r2,r4,#0x14
        0x0001adce:    68c5        .h      LDR      r5,[r0,#0xc]
        0x0001add0:    f4252570    %.p%    BIC      r5,r5,#0xf0000
        0x0001add4:    60c5        .`      STR      r5,[r0,#0xc]
        0x0001add6:    68c5        .h      LDR      r5,[r0,#0xc]
        0x0001add8:    431d        .C      ORRS     r5,r5,r3
        0x0001adda:    60c5        .`      STR      r5,[r0,#0xc]
        0x0001addc:    6815        .h      LDR      r5,[r2,#0]
        0x0001adde:    f5033380    ...3    ADD      r3,r3,#0x10000
        0x0001ade2:    6105        .a      STR      r5,[r0,#0x10]
        0x0001ade4:    6855        Uh      LDR      r5,[r2,#4]
        0x0001ade6:    f5b32fc0    .../    CMP      r3,#0x60000
        0x0001adea:    6145        Ea      STR      r5,[r0,#0x14]
        0x0001adec:    6895        .h      LDR      r5,[r2,#8]
        0x0001adee:    f102020c    ....    ADD      r2,r2,#0xc
        0x0001adf2:    6185        .a      STR      r5,[r0,#0x18]
        0x0001adf4:    d1eb        ..      BNE      0x1adce ; am_hal_usb_power_control + 302
        0x0001adf6:    2000        .       MOVS     r0,#0
        0x0001adf8:    7120         q      STRB     r0,[r4,#4]
        0x0001adfa:    f04f6200    O..b    MOV      r2,#0x8000000
        0x0001adfe:    600a        .`      STR      r2,[r1,#0]
        0x0001ae00:    e00c        ..      B        0x1ae1c ; am_hal_usb_power_control + 380
        0x0001ae02:    9102        ..      STR      r1,[sp,#8]
        0x0001ae04:    9101        ..      STR      r1,[sp,#4]
        0x0001ae06:    2016        .       MOVS     r0,#0x16
        0x0001ae08:    f7fefc94    ....    BL       am_hal_pwrctrl_periph_disable ; 0x19734
        0x0001ae0c:    b930        0.      CBNZ     r0,0x1ae1c ; am_hal_usb_power_control + 380
        0x0001ae0e:    2017        .       MOVS     r0,#0x17
        0x0001ae10:    b004        ..      ADD      sp,sp,#0x10
        0x0001ae12:    e8bd40b0    ...@    POP      {r4,r5,r7,lr}
        0x0001ae16:    f7febc8d    ....    B        am_hal_pwrctrl_periph_disable ; 0x19734
        0x0001ae1a:    2006        .       MOVS     r0,#6
        0x0001ae1c:    b004        ..      ADD      sp,sp,#0x10
        0x0001ae1e:    bdb0        ..      POP      {r4,r5,r7,pc}
        0x0001ae20:    2007        .       MOVS     r0,#7
        0x0001ae22:    e7fb        ..      B        0x1ae1c ; am_hal_usb_power_control + 380
        0x0001ae24:    2000        .       MOVS     r0,#0
        0x0001ae26:    e7f9        ..      B        0x1ae1c ; am_hal_usb_power_control + 380
    am_hal_usb_register_dev_evt_callback
        0x0001ae28:    b178        x.      CBZ      r0,0x1ae4a ; am_hal_usb_register_dev_evt_callback + 34
        0x0001ae2a:    6802        .h      LDR      r2,[r0,#0]
        0x0001ae2c:    f6496306    I..c    MOV      r3,#0x9e06
        0x0001ae30:    f022427e    ".~B    BIC      r2,r2,#0xfe000000
        0x0001ae34:    f2c013ea    ....    MOVT     r3,#0x1ea
        0x0001ae38:    429a        .B      CMP      r2,r3
        0x0001ae3a:    d106        ..      BNE      0x1ae4a ; am_hal_usb_register_dev_evt_callback + 34
        0x0001ae3c:    2900        .)      CMP      r1,#0
        0x0001ae3e:    bf0e        ..      ITEE     EQ
        0x0001ae40:    2006        .       MOVEQ    r0,#6
        0x0001ae42:    f8c010fc    ....    STRNE    r1,[r0,#0xfc]
        0x0001ae46:    2000        .       MOVNE    r0,#0
        0x0001ae48:    4770        pG      BX       lr
        0x0001ae4a:    2002        .       MOVS     r0,#2
        0x0001ae4c:    4770        pG      BX       lr
    am_hal_usb_register_ep0_setup_received_callback
        0x0001ae4e:    b178        x.      CBZ      r0,0x1ae70 ; am_hal_usb_register_ep0_setup_received_callback + 34
        0x0001ae50:    6802        .h      LDR      r2,[r0,#0]
        0x0001ae52:    f6496306    I..c    MOV      r3,#0x9e06
        0x0001ae56:    f022427e    ".~B    BIC      r2,r2,#0xfe000000
        0x0001ae5a:    f2c013ea    ....    MOVT     r3,#0x1ea
        0x0001ae5e:    429a        .B      CMP      r2,r3
        0x0001ae60:    d106        ..      BNE      0x1ae70 ; am_hal_usb_register_ep0_setup_received_callback + 34
        0x0001ae62:    2900        .)      CMP      r1,#0
        0x0001ae64:    bf0e        ..      ITEE     EQ
        0x0001ae66:    2006        .       MOVEQ    r0,#6
        0x0001ae68:    f8c01100    ....    STRNE    r1,[r0,#0x100]
        0x0001ae6c:    2000        .       MOVNE    r0,#0
        0x0001ae6e:    4770        pG      BX       lr
        0x0001ae70:    2002        .       MOVS     r0,#2
        0x0001ae72:    4770        pG      BX       lr
    am_hal_usb_register_ep_xfer_complete_callback
        0x0001ae74:    b178        x.      CBZ      r0,0x1ae96 ; am_hal_usb_register_ep_xfer_complete_callback + 34
        0x0001ae76:    6802        .h      LDR      r2,[r0,#0]
        0x0001ae78:    f6496306    I..c    MOV      r3,#0x9e06
        0x0001ae7c:    f022427e    ".~B    BIC      r2,r2,#0xfe000000
        0x0001ae80:    f2c013ea    ....    MOVT     r3,#0x1ea
        0x0001ae84:    429a        .B      CMP      r2,r3
        0x0001ae86:    d106        ..      BNE      0x1ae96 ; am_hal_usb_register_ep_xfer_complete_callback + 34
        0x0001ae88:    2900        .)      CMP      r1,#0
        0x0001ae8a:    bf0e        ..      ITEE     EQ
        0x0001ae8c:    2006        .       MOVEQ    r0,#6
        0x0001ae8e:    f8c01104    ....    STRNE    r1,[r0,#0x104]
        0x0001ae92:    2000        .       MOVNE    r0,#0
        0x0001ae94:    4770        pG      BX       lr
        0x0001ae96:    2002        .       MOVS     r0,#2
        0x0001ae98:    4770        pG      BX       lr
    am_hal_usb_setHFRC2
        0x0001ae9a:    b510        ..      PUSH     {r4,lr}
        0x0001ae9c:    b086        ..      SUB      sp,sp,#0x18
        0x0001ae9e:    4604        .F      MOV      r4,r0
        0x0001aea0:    2802        .(      CMP      r0,#2
        0x0001aea2:    d331        1.      BCC      0x1af08 ; am_hal_usb_setHFRC2 + 110
        0x0001aea4:    1ee0        ..      SUBS     r0,r4,#3
        0x0001aea6:    2802        .(      CMP      r0,#2
        0x0001aea8:    d236        6.      BCS      0x1af18 ; am_hal_usb_setHFRC2 + 126
        0x0001aeaa:    2008        .       MOVS     r0,#8
        0x0001aeac:    2100        .!      MOVS     r1,#0
        0x0001aeae:    f7fdfee3    ....    BL       am_hal_clkgen_control ; 0x18c78
        0x0001aeb2:    bbd8        ..      CBNZ     r0,0x1af2c ; am_hal_usb_setHFRC2 + 146
        0x0001aeb4:    f64f20fc    O..     MOV      r0,#0xfafc
        0x0001aeb8:    f2c00001    ....    MOVT     r0,#1
        0x0001aebc:    6840        @h      LDR      r0,[r0,#4]
        0x0001aebe:    a904        ..      ADD      r1,sp,#0x10
        0x0001aec0:    9005        ..      STR      r0,[sp,#0x14]
        0x0001aec2:    2002        .       MOVS     r0,#2
        0x0001aec4:    9004        ..      STR      r0,[sp,#0x10]
        0x0001aec6:    1f20         .      SUBS     r0,r4,#4
        0x0001aec8:    fab0f080    ....    CLZ      r0,r0
        0x0001aecc:    0940        @.      LSRS     r0,r0,#5
        0x0001aece:    f88d0015    ....    STRB     r0,[sp,#0x15]
        0x0001aed2:    2002        .       MOVS     r0,#2
        0x0001aed4:    f7fefa46    ..F.    BL       am_hal_mcuctrl_control ; 0x19364
        0x0001aed8:    bb40        @.      CBNZ     r0,0x1af2c ; am_hal_usb_setHFRC2 + 146
        0x0001aeda:    f2400144    @.D.    MOVW     r1,#0x44
        0x0001aede:    f2c10100    ....    MOVT     r1,#0x1000
        0x0001aee2:    6809        .h      LDR      r1,[r1,#0]
        0x0001aee4:    2001        .       MOVS     r0,#1
        0x0001aee6:    e9cd0101    ....    STRD     r0,r1,[sp,#4]
        0x0001aeea:    f2436000    C..`    MOVW     r0,#0x3600
        0x0001aeee:    f2c0106e    ..n.    MOVT     r0,#0x16e
        0x0001aef2:    9003        ..      STR      r0,[sp,#0xc]
        0x0001aef4:    a901        ..      ADD      r1,sp,#4
        0x0001aef6:    2006        .       MOVS     r0,#6
        0x0001aef8:    f7fdfebe    ....    BL       am_hal_clkgen_control ; 0x18c78
        0x0001aefc:    b9b0        ..      CBNZ     r0,0x1af2c ; am_hal_usb_setHFRC2 + 146
        0x0001aefe:    2007        .       MOVS     r0,#7
        0x0001af00:    2100        .!      MOVS     r1,#0
        0x0001af02:    f7fdfeb9    ....    BL       am_hal_clkgen_control ; 0x18c78
        0x0001af06:    e011        ..      B        0x1af2c ; am_hal_usb_setHFRC2 + 146
        0x0001af08:    2008        .       MOVS     r0,#8
        0x0001af0a:    2100        .!      MOVS     r1,#0
        0x0001af0c:    f7fdfeb4    ....    BL       am_hal_clkgen_control ; 0x18c78
        0x0001af10:    2c01        .,      CMP      r4,#1
        0x0001af12:    d10b        ..      BNE      0x1af2c ; am_hal_usb_setHFRC2 + 146
        0x0001af14:    2005        .       MOVS     r0,#5
        0x0001af16:    e002        ..      B        0x1af1e ; am_hal_usb_setHFRC2 + 132
        0x0001af18:    2c02        .,      CMP      r4,#2
        0x0001af1a:    d106        ..      BNE      0x1af2a ; am_hal_usb_setHFRC2 + 144
        0x0001af1c:    2007        .       MOVS     r0,#7
        0x0001af1e:    2100        .!      MOVS     r1,#0
        0x0001af20:    b006        ..      ADD      sp,sp,#0x18
        0x0001af22:    e8bd4010    ...@    POP      {r4,lr}
        0x0001af26:    f7fdbea7    ....    B        am_hal_clkgen_control ; 0x18c78
        0x0001af2a:    2006        .       MOVS     r0,#6
        0x0001af2c:    b006        ..      ADD      sp,sp,#0x18
        0x0001af2e:    bd10        ..      POP      {r4,pc}
    am_hal_usb_set_addr
        0x0001af30:    b1a0        ..      CBZ      r0,0x1af5c ; am_hal_usb_set_addr + 44
        0x0001af32:    6800        .h      LDR      r0,[r0,#0]
        0x0001af34:    f6496206    I..b    MOV      r2,#0x9e06
        0x0001af38:    f020407e     .~@    BIC      r0,r0,#0xfe000000
        0x0001af3c:    f2c012ea    ....    MOVT     r2,#0x1ea
        0x0001af40:    4290        .B      CMP      r0,r2
        0x0001af42:    d10b        ..      BNE      0x1af5c ; am_hal_usb_set_addr + 44
        0x0001af44:    2000        .       MOVS     r0,#0
        0x0001af46:    f2c4000b    ....    MOVT     r0,#0x400b
        0x0001af4a:    7802        .x      LDRB     r2,[r0,#0]
        0x0001af4c:    f0020280    ....    AND      r2,r2,#0x80
        0x0001af50:    7002        .p      STRB     r2,[r0,#0]
        0x0001af52:    7802        .x      LDRB     r2,[r0,#0]
        0x0001af54:    4311        .C      ORRS     r1,r1,r2
        0x0001af56:    7001        .p      STRB     r1,[r0,#0]
        0x0001af58:    2000        .       MOVS     r0,#0
        0x0001af5a:    4770        pG      BX       lr
        0x0001af5c:    2002        .       MOVS     r0,#2
        0x0001af5e:    4770        pG      BX       lr
    am_hal_usb_set_dev_speed
        0x0001af60:    b580        ..      PUSH     {r7,lr}
        0x0001af62:    b1c8        ..      CBZ      r0,0x1af98 ; am_hal_usb_set_dev_speed + 56
        0x0001af64:    2903        .)      CMP      r1,#3
        0x0001af66:    f04f0202    O...    MOV      r2,#2
        0x0001af6a:    d030        0.      BEQ      0x1afce ; am_hal_usb_set_dev_speed + 110
        0x0001af6c:    6803        .h      LDR      r3,[r0,#0]
        0x0001af6e:    f0234c7e    #.~L    BIC      r12,r3,#0xfe000000
        0x0001af72:    f6496306    I..c    MOV      r3,#0x9e06
        0x0001af76:    f2c013ea    ....    MOVT     r3,#0x1ea
        0x0001af7a:    459c        .E      CMP      r12,r3
        0x0001af7c:    d127        '.      BNE      0x1afce ; am_hal_usb_set_dev_speed + 110
        0x0001af7e:    f2400c01    @...    MOVW     r12,#1
        0x0001af82:    2902        .)      CMP      r1,#2
        0x0001af84:    f2c40c0b    ....    MOVT     r12,#0x400b
        0x0001af88:    d208        ..      BCS      0x1af9c ; am_hal_usb_set_dev_speed + 60
        0x0001af8a:    f89c2000    ...     LDRB     r2,[r12,#0]
        0x0001af8e:    f04f7e00    O..~    MOV      lr,#0x2000000
        0x0001af92:    f0220220    ". .    BIC      r2,r2,#0x20
        0x0001af96:    e009        ..      B        0x1afac ; am_hal_usb_set_dev_speed + 76
        0x0001af98:    2202        ."      MOVS     r2,#2
        0x0001af9a:    e018        ..      B        0x1afce ; am_hal_usb_set_dev_speed + 110
        0x0001af9c:    2902        .)      CMP      r1,#2
        0x0001af9e:    d115        ..      BNE      0x1afcc ; am_hal_usb_set_dev_speed + 108
        0x0001afa0:    f89c2000    ...     LDRB     r2,[r12,#0]
        0x0001afa4:    f04f7e80    O..~    MOV      lr,#0x1000000
        0x0001afa8:    f0420220    B. .    ORR      r2,r2,#0x20
        0x0001afac:    f88c2000    ...     STRB     r2,[r12,#0]
        0x0001afb0:    f2420200    B...    MOVW     r2,#0x2000
        0x0001afb4:    f2c4020b    ....    MOVT     r2,#0x400b
        0x0001afb8:    6813        .h      LDR      r3,[r2,#0]
        0x0001afba:    f0237340    #.@s    BIC      r3,r3,#0x3000000
        0x0001afbe:    ea43030e    C...    ORR      r3,r3,lr
        0x0001afc2:    6013        .`      STR      r3,[r2,#0]
        0x0001afc4:    2200        ."      MOVS     r2,#0
        0x0001afc6:    f8801054    ..T.    STRB     r1,[r0,#0x54]
        0x0001afca:    e000        ..      B        0x1afce ; am_hal_usb_set_dev_speed + 110
        0x0001afcc:    2206        ."      MOVS     r2,#6
        0x0001afce:    4610        .F      MOV      r0,r2
        0x0001afd0:    bd80        ..      POP      {r7,pc}
    am_hal_usb_set_dev_state
        0x0001afd2:    b5b0        ..      PUSH     {r4,r5,r7,lr}
        0x0001afd4:    b082        ..      SUB      sp,sp,#8
        0x0001afd6:    b1a0        ..      CBZ      r0,0x1b002 ; am_hal_usb_set_dev_state + 48
        0x0001afd8:    4604        .F      MOV      r4,r0
        0x0001afda:    6800        .h      LDR      r0,[r0,#0]
        0x0001afdc:    460d        .F      MOV      r5,r1
        0x0001afde:    f6496106    I..a    MOV      r1,#0x9e06
        0x0001afe2:    f020407e     .~@    BIC      r0,r0,#0xfe000000
        0x0001afe6:    f2c011ea    ....    MOVT     r1,#0x1ea
        0x0001afea:    4288        .B      CMP      r0,r1
        0x0001afec:    d109        ..      BNE      0x1b002 ; am_hal_usb_set_dev_state + 48
        0x0001afee:    f7fef973    ..s.    BL       am_hal_interrupt_master_disable ; 0x192d8
        0x0001aff2:    9001        ..      STR      r0,[sp,#4]
        0x0001aff4:    f8845055    ..UP    STRB     r5,[r4,#0x55]
        0x0001aff8:    9801        ..      LDR      r0,[sp,#4]
        0x0001affa:    f7fef975    ..u.    BL       am_hal_interrupt_master_set ; 0x192e8
        0x0001affe:    2000        .       MOVS     r0,#0
        0x0001b000:    e000        ..      B        0x1b004 ; am_hal_usb_set_dev_state + 50
        0x0001b002:    2002        .       MOVS     r0,#2
        0x0001b004:    b002        ..      ADD      sp,sp,#8
        0x0001b006:    bdb0        ..      POP      {r4,r5,r7,pc}
    am_usb_isr
        0x0001b008:    b580        ..      PUSH     {r7,lr}
        0x0001b00a:    b084        ..      SUB      sp,sp,#0x10
        0x0001b00c:    f64020c0    @..     MOVW     r0,#0xac0
        0x0001b010:    f2c10000    ....    MOVT     r0,#0x1000
        0x0001b014:    9000        ..      STR      r0,[sp,#0]
        0x0001b016:    6800        .h      LDR      r0,[r0,#0]
        0x0001b018:    a901        ..      ADD      r1,sp,#4
        0x0001b01a:    1d0a        ..      ADDS     r2,r1,#4
        0x0001b01c:    f1010308    ....    ADD      r3,r1,#8
        0x0001b020:    f7fffe04    ....    BL       am_hal_usb_intr_status_get ; 0x1ac2c
        0x0001b024:    9800        ..      LDR      r0,[sp,#0]
        0x0001b026:    6800        .h      LDR      r0,[r0,#0]
        0x0001b028:    9901        ..      LDR      r1,[sp,#4]
        0x0001b02a:    9a02        ..      LDR      r2,[sp,#8]
        0x0001b02c:    9b03        ..      LDR      r3,[sp,#0xc]
        0x0001b02e:    f7fffa57    ..W.    BL       am_hal_usb_interrupt_service ; 0x1a4e0
        0x0001b032:    b004        ..      ADD      sp,sp,#0x10
        0x0001b034:    bd80        ..      POP      {r7,pc}
        0x0001b036:    0000        ..      MOVS     r0,r0
    am_util_delay_ms
        0x0001b038:    b580        ..      PUSH     {r7,lr}
        0x0001b03a:    b082        ..      SUB      sp,sp,#8
        0x0001b03c:    9001        ..      STR      r0,[sp,#4]
        0x0001b03e:    9801        ..      LDR      r0,[sp,#4]
        0x0001b040:    f44f717a    O.zq    MOV      r1,#0x3e8
        0x0001b044:    4348        HC      MULS     r0,r1,r0
        0x0001b046:    f7fef82d    ..-.    BL       am_hal_delay_us ; 0x190a4
        0x0001b04a:    b002        ..      ADD      sp,sp,#8
        0x0001b04c:    bd80        ..      POP      {r7,pc}
        0x0001b04e:    0000        ..      MOVS     r0,r0
    am_util_id_device
        0x0001b050:    b580        ..      PUSH     {r7,lr}
        0x0001b052:    b084        ..      SUB      sp,sp,#0x10
        0x0001b054:    9003        ..      STR      r0,[sp,#0xc]
        0x0001b056:    9903        ..      LDR      r1,[sp,#0xc]
        0x0001b058:    2000        .       MOVS     r0,#0
        0x0001b05a:    9000        ..      STR      r0,[sp,#0]
        0x0001b05c:    6448        Hd      STR      r0,[r1,#0x44]
        0x0001b05e:    9903        ..      LDR      r1,[sp,#0xc]
        0x0001b060:    f64f3038    O.80    MOV      r0,#0xfb38
        0x0001b064:    f2c00001    ....    MOVT     r0,#1
        0x0001b068:    64c8        .d      STR      r0,[r1,#0x4c]
        0x0001b06a:    9903        ..      LDR      r1,[sp,#0xc]
        0x0001b06c:    f64f304c    O.L0    MOV      r0,#0xfb4c
        0x0001b070:    f2c00001    ....    MOVT     r0,#1
        0x0001b074:    6488        .d      STR      r0,[r1,#0x48]
        0x0001b076:    9903        ..      LDR      r1,[sp,#0xc]
        0x0001b078:    203f        ?       MOVS     r0,#0x3f
        0x0001b07a:    f8810050    ..P.    STRB     r0,[r1,#0x50]
        0x0001b07e:    9903        ..      LDR      r1,[sp,#0xc]
        0x0001b080:    2020                MOVS     r0,#0x20
        0x0001b082:    f8810051    ..Q.    STRB     r0,[r1,#0x51]
        0x0001b086:    9903        ..      LDR      r1,[sp,#0xc]
        0x0001b088:    2001        .       MOVS     r0,#1
        0x0001b08a:    f7fefac9    ....    BL       am_hal_mcuctrl_info_get ; 0x19620
        0x0001b08e:    9800        ..      LDR      r0,[sp,#0]
        0x0001b090:    9903        ..      LDR      r1,[sp,#0xc]
        0x0001b092:    313c        <1      ADDS     r1,r1,#0x3c
        0x0001b094:    f7fefac4    ....    BL       am_hal_mcuctrl_info_get ; 0x19620
        0x0001b098:    9803        ..      LDR      r0,[sp,#0xc]
        0x0001b09a:    78c0        .x      LDRB     r0,[r0,#3]
        0x0001b09c:    0600        ..      LSLS     r0,r0,#24
        0x0001b09e:    9001        ..      STR      r0,[sp,#4]
        0x0001b0a0:    9803        ..      LDR      r0,[sp,#0xc]
        0x0001b0a2:    68c0        .h      LDR      r0,[r0,#0xc]
        0x0001b0a4:    9002        ..      STR      r0,[sp,#8]
        0x0001b0a6:    9803        ..      LDR      r0,[sp,#0xc]
        0x0001b0a8:    6900        .i      LDR      r0,[r0,#0x10]
        0x0001b0aa:    f2442151    D.Q!    MOV      r1,#0x4251
        0x0001b0ae:    f2c4114d    ..M.    MOVT     r1,#0x414d
        0x0001b0b2:    4288        .B      CMP      r0,r1
        0x0001b0b4:    d107        ..      BNE      0x1b0c6 ; am_util_id_device + 118
        0x0001b0b6:    e7ff        ..      B        0x1b0b8 ; am_util_id_device + 104
        0x0001b0b8:    9903        ..      LDR      r1,[sp,#0xc]
        0x0001b0ba:    f64f3047    O.G0    MOV      r0,#0xfb47
        0x0001b0be:    f2c00001    ....    MOVT     r0,#1
        0x0001b0c2:    6488        .d      STR      r0,[r1,#0x48]
        0x0001b0c4:    e7ff        ..      B        0x1b0c6 ; am_util_id_device + 118
        0x0001b0c6:    9801        ..      LDR      r0,[sp,#4]
        0x0001b0c8:    f1b06f00    ...o    CMP      r0,#0x8000000
        0x0001b0cc:    d12a        *.      BNE      0x1b124 ; am_util_id_device + 212
        0x0001b0ce:    e7ff        ..      B        0x1b0d0 ; am_util_id_device + 128
        0x0001b0d0:    9803        ..      LDR      r0,[sp,#0xc]
        0x0001b0d2:    6ac0        .j      LDR      r0,[r0,#0x2c]
        0x0001b0d4:    f00000f0    ....    AND      r0,r0,#0xf0
        0x0001b0d8:    28b0        .(      CMP      r0,#0xb0
        0x0001b0da:    d123        #.      BNE      0x1b124 ; am_util_id_device + 212
        0x0001b0dc:    e7ff        ..      B        0x1b0de ; am_util_id_device + 142
        0x0001b0de:    9802        ..      LDR      r0,[sp,#8]
        0x0001b0e0:    f002fef0    ....    BL       revmaj_get ; 0x1dec4
        0x0001b0e4:    2843        C(      CMP      r0,#0x43
        0x0001b0e6:    d11d        ..      BNE      0x1b124 ; am_util_id_device + 212
        0x0001b0e8:    e7ff        ..      B        0x1b0ea ; am_util_id_device + 154
        0x0001b0ea:    9903        ..      LDR      r1,[sp,#0xc]
        0x0001b0ec:    f44f7082    O..p    MOV      r0,#0x104
        0x0001b0f0:    6448        Hd      STR      r0,[r1,#0x44]
        0x0001b0f2:    9803        ..      LDR      r0,[sp,#0xc]
        0x0001b0f4:    7800        .x      LDRB     r0,[r0,#0]
        0x0001b0f6:    0980        ..      LSRS     r0,r0,#6
        0x0001b0f8:    2802        .(      CMP      r0,#2
        0x0001b0fa:    d307        ..      BCC      0x1b10c ; am_util_id_device + 188
        0x0001b0fc:    e7ff        ..      B        0x1b0fe ; am_util_id_device + 174
        0x0001b0fe:    9903        ..      LDR      r1,[sp,#0xc]
        0x0001b100:    f64f209e    O..     MOV      r0,#0xfa9e
        0x0001b104:    f2c00001    ....    MOVT     r0,#1
        0x0001b108:    64c8        .d      STR      r0,[r1,#0x4c]
        0x0001b10a:    e006        ..      B        0x1b11a ; am_util_id_device + 202
        0x0001b10c:    9903        ..      LDR      r1,[sp,#0xc]
        0x0001b10e:    f64f20ab    O..     MOV      r0,#0xfaab
        0x0001b112:    f2c00001    ....    MOVT     r0,#1
        0x0001b116:    64c8        .d      STR      r0,[r1,#0x4c]
        0x0001b118:    e7ff        ..      B        0x1b11a ; am_util_id_device + 202
        0x0001b11a:    9803        ..      LDR      r0,[sp,#0xc]
        0x0001b11c:    2101        .!      MOVS     r1,#1
        0x0001b11e:    f000fbeb    ....    BL       chiprev_set ; 0x1b8f8
        0x0001b122:    e7ff        ..      B        0x1b124 ; am_util_id_device + 212
        0x0001b124:    9903        ..      LDR      r1,[sp,#0xc]
        0x0001b126:    6808        .h      LDR      r0,[r1,#0]
        0x0001b128:    f00002c0    ....    AND      r2,r0,#0xc0
        0x0001b12c:    f64f20bd    O..     MOV      r0,#0xfabd
        0x0001b130:    f2c00001    ....    MOVT     r0,#1
        0x0001b134:    eb001012    ....    ADD      r0,r0,r2,LSR #4
        0x0001b138:    6548        He      STR      r0,[r1,#0x54]
        0x0001b13a:    9903        ..      LDR      r1,[sp,#0xc]
        0x0001b13c:    6808        .h      LDR      r0,[r1,#0]
        0x0001b13e:    f3c00041    ..A.    UBFX     r0,r0,#1,#2
        0x0001b142:    f64f23cd    O..#    MOV      r3,#0xfacd
        0x0001b146:    f2c00301    ....    MOVT     r3,#1
        0x0001b14a:    220b        ."      MOVS     r2,#0xb
        0x0001b14c:    fb103002    ...0    SMLABB   r0,r0,r2,r3
        0x0001b150:    6588        .e      STR      r0,[r1,#0x58]
        0x0001b152:    9803        ..      LDR      r0,[sp,#0xc]
        0x0001b154:    6c40        @l      LDR      r0,[r0,#0x44]
        0x0001b156:    b004        ..      ADD      sp,sp,#0x10
        0x0001b158:    bd80        ..      POP      {r7,pc}
        0x0001b15a:    0000        ..      MOVS     r0,r0
    am_util_stdio_printf
        0x0001b15c:    b083        ..      SUB      sp,sp,#0xc
        0x0001b15e:    b580        ..      PUSH     {r7,lr}
        0x0001b160:    b085        ..      SUB      sp,sp,#0x14
        0x0001b162:    9309        ..      STR      r3,[sp,#0x24]
        0x0001b164:    9208        ..      STR      r2,[sp,#0x20]
        0x0001b166:    9107        ..      STR      r1,[sp,#0x1c]
        0x0001b168:    9003        ..      STR      r0,[sp,#0xc]
        0x0001b16a:    f24060ac    @..`    MOV      r0,#0x6ac
        0x0001b16e:    f2c10000    ....    MOVT     r0,#0x1000
        0x0001b172:    6800        .h      LDR      r0,[r0,#0]
        0x0001b174:    b918        ..      CBNZ     r0,0x1b17e ; am_util_stdio_printf + 34
        0x0001b176:    e7ff        ..      B        0x1b178 ; am_util_stdio_printf + 28
        0x0001b178:    2000        .       MOVS     r0,#0
        0x0001b17a:    9004        ..      STR      r0,[sp,#0x10]
        0x0001b17c:    e016        ..      B        0x1b1ac ; am_util_stdio_printf + 80
        0x0001b17e:    a807        ..      ADD      r0,sp,#0x1c
        0x0001b180:    9001        ..      STR      r0,[sp,#4]
        0x0001b182:    9903        ..      LDR      r1,[sp,#0xc]
        0x0001b184:    9a01        ..      LDR      r2,[sp,#4]
        0x0001b186:    f24060b0    @..`    MOVW     r0,#0x6b0
        0x0001b18a:    f2c10000    ....    MOVT     r0,#0x1000
        0x0001b18e:    9000        ..      STR      r0,[sp,#0]
        0x0001b190:    f000f824    ..$.    BL       am_util_stdio_vsprintf ; 0x1b1dc
        0x0001b194:    4601        .F      MOV      r1,r0
        0x0001b196:    9800        ..      LDR      r0,[sp,#0]
        0x0001b198:    9102        ..      STR      r1,[sp,#8]
        0x0001b19a:    f24061ac    @..a    MOV      r1,#0x6ac
        0x0001b19e:    f2c10100    ....    MOVT     r1,#0x1000
        0x0001b1a2:    6809        .h      LDR      r1,[r1,#0]
        0x0001b1a4:    4788        .G      BLX      r1
        0x0001b1a6:    9802        ..      LDR      r0,[sp,#8]
        0x0001b1a8:    9004        ..      STR      r0,[sp,#0x10]
        0x0001b1aa:    e7ff        ..      B        0x1b1ac ; am_util_stdio_printf + 80
        0x0001b1ac:    9804        ..      LDR      r0,[sp,#0x10]
        0x0001b1ae:    b005        ..      ADD      sp,sp,#0x14
        0x0001b1b0:    e8bd4080    ...@    POP      {r7,lr}
        0x0001b1b4:    b003        ..      ADD      sp,sp,#0xc
        0x0001b1b6:    4770        pG      BX       lr
    am_util_stdio_printf_init
        0x0001b1b8:    b081        ..      SUB      sp,sp,#4
        0x0001b1ba:    9000        ..      STR      r0,[sp,#0]
        0x0001b1bc:    9800        ..      LDR      r0,[sp,#0]
        0x0001b1be:    f24061ac    @..a    MOV      r1,#0x6ac
        0x0001b1c2:    f2c10100    ....    MOVT     r1,#0x1000
        0x0001b1c6:    6008        .`      STR      r0,[r1,#0]
        0x0001b1c8:    b001        ..      ADD      sp,sp,#4
        0x0001b1ca:    4770        pG      BX       lr
    am_util_stdio_terminal_clear
        0x0001b1cc:    b580        ..      PUSH     {r7,lr}
        0x0001b1ce:    f24000ef    @...    MOVW     r0,#0xef
        0x0001b1d2:    f2c00002    ....    MOVT     r0,#2
        0x0001b1d6:    f7ffffc1    ....    BL       am_util_stdio_printf ; 0x1b15c
        0x0001b1da:    bd80        ..      POP      {r7,pc}
    am_util_stdio_vsprintf
        0x0001b1dc:    b580        ..      PUSH     {r7,lr}
        0x0001b1de:    b09e        ..      SUB      sp,sp,#0x78
        0x0001b1e0:    921d        ..      STR      r2,[sp,#0x74]
        0x0001b1e2:    901c        ..      STR      r0,[sp,#0x70]
        0x0001b1e4:    911b        ..      STR      r1,[sp,#0x6c]
        0x0001b1e6:    2000        .       MOVS     r0,#0
        0x0001b1e8:    9014        ..      STR      r0,[sp,#0x50]
        0x0001b1ea:    900e        ..      STR      r0,[sp,#0x38]
        0x0001b1ec:    e7ff        ..      B        0x1b1ee ; am_util_stdio_vsprintf + 18
        0x0001b1ee:    981b        ..      LDR      r0,[sp,#0x6c]
        0x0001b1f0:    7800        .x      LDRB     r0,[r0,#0]
        0x0001b1f2:    2800        .(      CMP      r0,#0
        0x0001b1f4:    f0008312    ....    BEQ.W    0x1b81c ; am_util_stdio_vsprintf + 1600
        0x0001b1f8:    e7ff        ..      B        0x1b1fa ; am_util_stdio_vsprintf + 30
        0x0001b1fa:    2006        .       MOVS     r0,#6
        0x0001b1fc:    9011        ..      STR      r0,[sp,#0x44]
        0x0001b1fe:    981b        ..      LDR      r0,[sp,#0x6c]
        0x0001b200:    7800        .x      LDRB     r0,[r0,#0]
        0x0001b202:    2825        %(      CMP      r0,#0x25
        0x0001b204:    d027        '.      BEQ      0x1b256 ; am_util_stdio_vsprintf + 122
        0x0001b206:    e7ff        ..      B        0x1b208 ; am_util_stdio_vsprintf + 44
        0x0001b208:    981c        ..      LDR      r0,[sp,#0x70]
        0x0001b20a:    b1e8        ..      CBZ      r0,0x1b248 ; am_util_stdio_vsprintf + 108
        0x0001b20c:    e7ff        ..      B        0x1b20e ; am_util_stdio_vsprintf + 50
        0x0001b20e:    981b        ..      LDR      r0,[sp,#0x6c]
        0x0001b210:    7800        .x      LDRB     r0,[r0,#0]
        0x0001b212:    280a        .(      CMP      r0,#0xa
        0x0001b214:    d111        ..      BNE      0x1b23a ; am_util_stdio_vsprintf + 94
        0x0001b216:    e7ff        ..      B        0x1b218 ; am_util_stdio_vsprintf + 60
        0x0001b218:    f24060a1    @..`    MOV      r0,#0x6a1
        0x0001b21c:    f2c10000    ....    MOVT     r0,#0x1000
        0x0001b220:    7800        .x      LDRB     r0,[r0,#0]
        0x0001b222:    07c0        ..      LSLS     r0,r0,#31
        0x0001b224:    b148        H.      CBZ      r0,0x1b23a ; am_util_stdio_vsprintf + 94
        0x0001b226:    e7ff        ..      B        0x1b228 ; am_util_stdio_vsprintf + 76
        0x0001b228:    991c        ..      LDR      r1,[sp,#0x70]
        0x0001b22a:    1c48        H.      ADDS     r0,r1,#1
        0x0001b22c:    901c        ..      STR      r0,[sp,#0x70]
        0x0001b22e:    200d        .       MOVS     r0,#0xd
        0x0001b230:    7008        .p      STRB     r0,[r1,#0]
        0x0001b232:    9814        ..      LDR      r0,[sp,#0x50]
        0x0001b234:    3001        .0      ADDS     r0,#1
        0x0001b236:    9014        ..      STR      r0,[sp,#0x50]
        0x0001b238:    e7ff        ..      B        0x1b23a ; am_util_stdio_vsprintf + 94
        0x0001b23a:    981b        ..      LDR      r0,[sp,#0x6c]
        0x0001b23c:    7800        .x      LDRB     r0,[r0,#0]
        0x0001b23e:    991c        ..      LDR      r1,[sp,#0x70]
        0x0001b240:    1c4a        J.      ADDS     r2,r1,#1
        0x0001b242:    921c        ..      STR      r2,[sp,#0x70]
        0x0001b244:    7008        .p      STRB     r0,[r1,#0]
        0x0001b246:    e7ff        ..      B        0x1b248 ; am_util_stdio_vsprintf + 108
        0x0001b248:    981b        ..      LDR      r0,[sp,#0x6c]
        0x0001b24a:    3001        .0      ADDS     r0,#1
        0x0001b24c:    901b        ..      STR      r0,[sp,#0x6c]
        0x0001b24e:    9814        ..      LDR      r0,[sp,#0x50]
        0x0001b250:    3001        .0      ADDS     r0,#1
        0x0001b252:    9014        ..      STR      r0,[sp,#0x50]
        0x0001b254:    e7cb        ..      B        0x1b1ee ; am_util_stdio_vsprintf + 18
        0x0001b256:    981b        ..      LDR      r0,[sp,#0x6c]
        0x0001b258:    3001        .0      ADDS     r0,#1
        0x0001b25a:    901b        ..      STR      r0,[sp,#0x6c]
        0x0001b25c:    2000        .       MOVS     r0,#0
        0x0001b25e:    f88d0040    ..@.    STRB     r0,[sp,#0x40]
        0x0001b262:    f88d0041    ..A.    STRB     r0,[sp,#0x41]
        0x0001b266:    2020                MOVS     r0,#0x20
        0x0001b268:    f88d0042    ..B.    STRB     r0,[sp,#0x42]
        0x0001b26c:    981b        ..      LDR      r0,[sp,#0x6c]
        0x0001b26e:    7800        .x      LDRB     r0,[r0,#0]
        0x0001b270:    2830        0(      CMP      r0,#0x30
        0x0001b272:    d107        ..      BNE      0x1b284 ; am_util_stdio_vsprintf + 168
        0x0001b274:    e7ff        ..      B        0x1b276 ; am_util_stdio_vsprintf + 154
        0x0001b276:    2030        0       MOVS     r0,#0x30
        0x0001b278:    f88d0042    ..B.    STRB     r0,[sp,#0x42]
        0x0001b27c:    981b        ..      LDR      r0,[sp,#0x6c]
        0x0001b27e:    3001        .0      ADDS     r0,#1
        0x0001b280:    901b        ..      STR      r0,[sp,#0x6c]
        0x0001b282:    e7ff        ..      B        0x1b284 ; am_util_stdio_vsprintf + 168
        0x0001b284:    981b        ..      LDR      r0,[sp,#0x6c]
        0x0001b286:    a915        ..      ADD      r1,sp,#0x54
        0x0001b288:    f000fece    ....    BL       decstr_to_int ; 0x1c028
        0x0001b28c:    9013        ..      STR      r0,[sp,#0x4c]
        0x0001b28e:    9915        ..      LDR      r1,[sp,#0x54]
        0x0001b290:    981b        ..      LDR      r0,[sp,#0x6c]
        0x0001b292:    4408        .D      ADD      r0,r0,r1
        0x0001b294:    901b        ..      STR      r0,[sp,#0x6c]
        0x0001b296:    981b        ..      LDR      r0,[sp,#0x6c]
        0x0001b298:    7800        .x      LDRB     r0,[r0,#0]
        0x0001b29a:    2873        s(      CMP      r0,#0x73
        0x0001b29c:    d009        ..      BEQ      0x1b2b2 ; am_util_stdio_vsprintf + 214
        0x0001b29e:    e7ff        ..      B        0x1b2a0 ; am_util_stdio_vsprintf + 196
        0x0001b2a0:    9813        ..      LDR      r0,[sp,#0x4c]
        0x0001b2a2:    f1b03fff    ...?    CMP      r0,#0xffffffff
        0x0001b2a6:    dc04        ..      BGT      0x1b2b2 ; am_util_stdio_vsprintf + 214
        0x0001b2a8:    e7ff        ..      B        0x1b2aa ; am_util_stdio_vsprintf + 206
        0x0001b2aa:    9813        ..      LDR      r0,[sp,#0x4c]
        0x0001b2ac:    4240        @B      RSBS     r0,r0,#0
        0x0001b2ae:    9013        ..      STR      r0,[sp,#0x4c]
        0x0001b2b0:    e7ff        ..      B        0x1b2b2 ; am_util_stdio_vsprintf + 214
        0x0001b2b2:    981b        ..      LDR      r0,[sp,#0x6c]
        0x0001b2b4:    7800        .x      LDRB     r0,[r0,#0]
        0x0001b2b6:    282e        .(      CMP      r0,#0x2e
        0x0001b2b8:    d10d        ..      BNE      0x1b2d6 ; am_util_stdio_vsprintf + 250
        0x0001b2ba:    e7ff        ..      B        0x1b2bc ; am_util_stdio_vsprintf + 224
        0x0001b2bc:    981b        ..      LDR      r0,[sp,#0x6c]
        0x0001b2be:    3001        .0      ADDS     r0,#1
        0x0001b2c0:    901b        ..      STR      r0,[sp,#0x6c]
        0x0001b2c2:    981b        ..      LDR      r0,[sp,#0x6c]
        0x0001b2c4:    a915        ..      ADD      r1,sp,#0x54
        0x0001b2c6:    f000feaf    ....    BL       decstr_to_int ; 0x1c028
        0x0001b2ca:    9011        ..      STR      r0,[sp,#0x44]
        0x0001b2cc:    9915        ..      LDR      r1,[sp,#0x54]
        0x0001b2ce:    981b        ..      LDR      r0,[sp,#0x6c]
        0x0001b2d0:    4408        .D      ADD      r0,r0,r1
        0x0001b2d2:    901b        ..      STR      r0,[sp,#0x6c]
        0x0001b2d4:    e7ff        ..      B        0x1b2d6 ; am_util_stdio_vsprintf + 250
        0x0001b2d6:    981b        ..      LDR      r0,[sp,#0x6c]
        0x0001b2d8:    7800        .x      LDRB     r0,[r0,#0]
        0x0001b2da:    286c        l(      CMP      r0,#0x6c
        0x0001b2dc:    d110        ..      BNE      0x1b300 ; am_util_stdio_vsprintf + 292
        0x0001b2de:    e7ff        ..      B        0x1b2e0 ; am_util_stdio_vsprintf + 260
        0x0001b2e0:    981b        ..      LDR      r0,[sp,#0x6c]
        0x0001b2e2:    3001        .0      ADDS     r0,#1
        0x0001b2e4:    901b        ..      STR      r0,[sp,#0x6c]
        0x0001b2e6:    981b        ..      LDR      r0,[sp,#0x6c]
        0x0001b2e8:    7800        .x      LDRB     r0,[r0,#0]
        0x0001b2ea:    286c        l(      CMP      r0,#0x6c
        0x0001b2ec:    d107        ..      BNE      0x1b2fe ; am_util_stdio_vsprintf + 290
        0x0001b2ee:    e7ff        ..      B        0x1b2f0 ; am_util_stdio_vsprintf + 276
        0x0001b2f0:    981b        ..      LDR      r0,[sp,#0x6c]
        0x0001b2f2:    3001        .0      ADDS     r0,#1
        0x0001b2f4:    901b        ..      STR      r0,[sp,#0x6c]
        0x0001b2f6:    2001        .       MOVS     r0,#1
        0x0001b2f8:    f88d0040    ..@.    STRB     r0,[sp,#0x40]
        0x0001b2fc:    e7ff        ..      B        0x1b2fe ; am_util_stdio_vsprintf + 290
        0x0001b2fe:    e7ff        ..      B        0x1b300 ; am_util_stdio_vsprintf + 292
        0x0001b300:    981b        ..      LDR      r0,[sp,#0x6c]
        0x0001b302:    7800        .x      LDRB     r0,[r0,#0]
        0x0001b304:    3846        F8      SUBS     r0,r0,#0x46
        0x0001b306:    4601        .F      MOV      r1,r0
        0x0001b308:    910b        ..      STR      r1,[sp,#0x2c]
        0x0001b30a:    2832        2(      CMP      r0,#0x32
        0x0001b30c:    f2008273    ..s.    BHI.W    0x1b7f6 ; am_util_stdio_vsprintf + 1562
        0x0001b310:    990b        ..      LDR      r1,[sp,#0x2c]
        0x0001b312:    e8dff011    ....    TBH      [pc,r1,LSL #1]
    $d.4
        0x0001b316:    0224        $.      DCW    548
        0x0001b318:    02700270    p.p.    DCD    40895088
        0x0001b31c:    02700270    p.p.    DCD    40895088
        0x0001b320:    02700270    p.p.    DCD    40895088
        0x0001b324:    02700270    p.p.    DCD    40895088
        0x0001b328:    02700270    p.p.    DCD    40895088
        0x0001b32c:    02700270    p.p.    DCD    40895088
        0x0001b330:    02700270    p.p.    DCD    40895088
        0x0001b334:    02700270    p.p.    DCD    40895088
        0x0001b338:    00bf0270    p...    DCD    12518000
        0x0001b33c:    02700270    p.p.    DCD    40895088
        0x0001b340:    02700270    p.p.    DCD    40895088
        0x0001b344:    02700270    p.p.    DCD    40895088
        0x0001b348:    02700270    p.p.    DCD    40895088
        0x0001b34c:    02700270    p.p.    DCD    40895088
        0x0001b350:    016f0033    3.o.    DCD    24051763
        0x0001b354:    02240270    p.$.    DCD    35914352
        0x0001b358:    02700270    p.p.    DCD    40895088
        0x0001b35c:    0270016f    o.p.    DCD    40894831
        0x0001b360:    02700270    p.p.    DCD    40895088
        0x0001b364:    02700270    p.p.    DCD    40895088
        0x0001b368:    02700270    p.p.    DCD    40895088
        0x0001b36c:    02700270    p.p.    DCD    40895088
        0x0001b370:    02700047    G.p.    DCD    40894535
        0x0001b374:    02700119    ..p.    DCD    40894745
        0x0001b378:    00bb0270    p...    DCD    12255856
    $t.5
        0x0001b37c:    981d        ..      LDR      r0,[sp,#0x74]
        0x0001b37e:    1d01        ..      ADDS     r1,r0,#4
        0x0001b380:    911d        ..      STR      r1,[sp,#0x74]
        0x0001b382:    6800        .h      LDR      r0,[r0,#0]
        0x0001b384:    f88d0043    ..C.    STRB     r0,[sp,#0x43]
        0x0001b388:    981c        ..      LDR      r0,[sp,#0x70]
        0x0001b38a:    b138        8.      CBZ      r0,0x1b39c ; am_util_stdio_vsprintf + 448
        0x0001b38c:    e7ff        ..      B        0x1b38e ; am_util_stdio_vsprintf + 434
        0x0001b38e:    f89d0043    ..C.    LDRB     r0,[sp,#0x43]
        0x0001b392:    991c        ..      LDR      r1,[sp,#0x70]
        0x0001b394:    1c4a        J.      ADDS     r2,r1,#1
        0x0001b396:    921c        ..      STR      r2,[sp,#0x70]
        0x0001b398:    7008        .p      STRB     r0,[r1,#0]
        0x0001b39a:    e7ff        ..      B        0x1b39c ; am_util_stdio_vsprintf + 448
        0x0001b39c:    9814        ..      LDR      r0,[sp,#0x50]
        0x0001b39e:    3001        .0      ADDS     r0,#1
        0x0001b3a0:    9014        ..      STR      r0,[sp,#0x50]
        0x0001b3a2:    e236        6.      B        0x1b812 ; am_util_stdio_vsprintf + 1590
        0x0001b3a4:    981d        ..      LDR      r0,[sp,#0x74]
        0x0001b3a6:    1d01        ..      ADDS     r1,r0,#4
        0x0001b3a8:    911d        ..      STR      r1,[sp,#0x74]
        0x0001b3aa:    6800        .h      LDR      r0,[r0,#0]
        0x0001b3ac:    901a        ..      STR      r0,[sp,#0x68]
        0x0001b3ae:    981a        ..      LDR      r0,[sp,#0x68]
        0x0001b3b0:    f002fd92    ....    BL       simple_strlen ; 0x1ded8
        0x0001b3b4:    900e        ..      STR      r0,[sp,#0x38]
        0x0001b3b6:    9813        ..      LDR      r0,[sp,#0x4c]
        0x0001b3b8:    2801        .(      CMP      r0,#1
        0x0001b3ba:    db25        %.      BLT      0x1b408 ; am_util_stdio_vsprintf + 556
        0x0001b3bc:    e7ff        ..      B        0x1b3be ; am_util_stdio_vsprintf + 482
        0x0001b3be:    980e        ..      LDR      r0,[sp,#0x38]
        0x0001b3c0:    9913        ..      LDR      r1,[sp,#0x4c]
        0x0001b3c2:    4288        .B      CMP      r0,r1
        0x0001b3c4:    d21f        ..      BCS      0x1b406 ; am_util_stdio_vsprintf + 554
        0x0001b3c6:    e7ff        ..      B        0x1b3c8 ; am_util_stdio_vsprintf + 492
        0x0001b3c8:    990e        ..      LDR      r1,[sp,#0x38]
        0x0001b3ca:    9813        ..      LDR      r0,[sp,#0x4c]
        0x0001b3cc:    1a40        @.      SUBS     r0,r0,r1
        0x0001b3ce:    9013        ..      STR      r0,[sp,#0x4c]
        0x0001b3d0:    981c        ..      LDR      r0,[sp,#0x70]
        0x0001b3d2:    f89d1042    ..B.    LDRB     r1,[sp,#0x42]
        0x0001b3d6:    9a13        ..      LDR      r2,[sp,#0x4c]
        0x0001b3d8:    f001ff28    ..(.    BL       padbuffer ; 0x1d22c
        0x0001b3dc:    9013        ..      STR      r0,[sp,#0x4c]
        0x0001b3de:    981c        ..      LDR      r0,[sp,#0x70]
        0x0001b3e0:    b118        ..      CBZ      r0,0x1b3ea ; am_util_stdio_vsprintf + 526
        0x0001b3e2:    e7ff        ..      B        0x1b3e4 ; am_util_stdio_vsprintf + 520
        0x0001b3e4:    9813        ..      LDR      r0,[sp,#0x4c]
        0x0001b3e6:    900a        ..      STR      r0,[sp,#0x28]
        0x0001b3e8:    e002        ..      B        0x1b3f0 ; am_util_stdio_vsprintf + 532
        0x0001b3ea:    2000        .       MOVS     r0,#0
        0x0001b3ec:    900a        ..      STR      r0,[sp,#0x28]
        0x0001b3ee:    e7ff        ..      B        0x1b3f0 ; am_util_stdio_vsprintf + 532
        0x0001b3f0:    990a        ..      LDR      r1,[sp,#0x28]
        0x0001b3f2:    981c        ..      LDR      r0,[sp,#0x70]
        0x0001b3f4:    4408        .D      ADD      r0,r0,r1
        0x0001b3f6:    901c        ..      STR      r0,[sp,#0x70]
        0x0001b3f8:    9913        ..      LDR      r1,[sp,#0x4c]
        0x0001b3fa:    9814        ..      LDR      r0,[sp,#0x50]
        0x0001b3fc:    4408        .D      ADD      r0,r0,r1
        0x0001b3fe:    9014        ..      STR      r0,[sp,#0x50]
        0x0001b400:    2000        .       MOVS     r0,#0
        0x0001b402:    9013        ..      STR      r0,[sp,#0x4c]
        0x0001b404:    e7ff        ..      B        0x1b406 ; am_util_stdio_vsprintf + 554
        0x0001b406:    e7ff        ..      B        0x1b408 ; am_util_stdio_vsprintf + 556
        0x0001b408:    e7ff        ..      B        0x1b40a ; am_util_stdio_vsprintf + 558
        0x0001b40a:    981a        ..      LDR      r0,[sp,#0x68]
        0x0001b40c:    7800        .x      LDRB     r0,[r0,#0]
        0x0001b40e:    b188        ..      CBZ      r0,0x1b434 ; am_util_stdio_vsprintf + 600
        0x0001b410:    e7ff        ..      B        0x1b412 ; am_util_stdio_vsprintf + 566
        0x0001b412:    981c        ..      LDR      r0,[sp,#0x70]
        0x0001b414:    b138        8.      CBZ      r0,0x1b426 ; am_util_stdio_vsprintf + 586
        0x0001b416:    e7ff        ..      B        0x1b418 ; am_util_stdio_vsprintf + 572
        0x0001b418:    981a        ..      LDR      r0,[sp,#0x68]
        0x0001b41a:    7800        .x      LDRB     r0,[r0,#0]
        0x0001b41c:    991c        ..      LDR      r1,[sp,#0x70]
        0x0001b41e:    1c4a        J.      ADDS     r2,r1,#1
        0x0001b420:    921c        ..      STR      r2,[sp,#0x70]
        0x0001b422:    7008        .p      STRB     r0,[r1,#0]
        0x0001b424:    e7ff        ..      B        0x1b426 ; am_util_stdio_vsprintf + 586
        0x0001b426:    981a        ..      LDR      r0,[sp,#0x68]
        0x0001b428:    3001        .0      ADDS     r0,#1
        0x0001b42a:    901a        ..      STR      r0,[sp,#0x68]
        0x0001b42c:    9814        ..      LDR      r0,[sp,#0x50]
        0x0001b42e:    3001        .0      ADDS     r0,#1
        0x0001b430:    9014        ..      STR      r0,[sp,#0x50]
        0x0001b432:    e7ea        ..      B        0x1b40a ; am_util_stdio_vsprintf + 558
        0x0001b434:    9813        ..      LDR      r0,[sp,#0x4c]
        0x0001b436:    b340        @.      CBZ      r0,0x1b48a ; am_util_stdio_vsprintf + 686
        0x0001b438:    e7ff        ..      B        0x1b43a ; am_util_stdio_vsprintf + 606
        0x0001b43a:    9813        ..      LDR      r0,[sp,#0x4c]
        0x0001b43c:    4240        @B      RSBS     r0,r0,#0
        0x0001b43e:    9013        ..      STR      r0,[sp,#0x4c]
        0x0001b440:    980e        ..      LDR      r0,[sp,#0x38]
        0x0001b442:    9913        ..      LDR      r1,[sp,#0x4c]
        0x0001b444:    4288        .B      CMP      r0,r1
        0x0001b446:    d21f        ..      BCS      0x1b488 ; am_util_stdio_vsprintf + 684
        0x0001b448:    e7ff        ..      B        0x1b44a ; am_util_stdio_vsprintf + 622
        0x0001b44a:    990e        ..      LDR      r1,[sp,#0x38]
        0x0001b44c:    9813        ..      LDR      r0,[sp,#0x4c]
        0x0001b44e:    1a40        @.      SUBS     r0,r0,r1
        0x0001b450:    9013        ..      STR      r0,[sp,#0x4c]
        0x0001b452:    981c        ..      LDR      r0,[sp,#0x70]
        0x0001b454:    f89d1042    ..B.    LDRB     r1,[sp,#0x42]
        0x0001b458:    9a13        ..      LDR      r2,[sp,#0x4c]
        0x0001b45a:    f001fee7    ....    BL       padbuffer ; 0x1d22c
        0x0001b45e:    9013        ..      STR      r0,[sp,#0x4c]
        0x0001b460:    981c        ..      LDR      r0,[sp,#0x70]
        0x0001b462:    b118        ..      CBZ      r0,0x1b46c ; am_util_stdio_vsprintf + 656
        0x0001b464:    e7ff        ..      B        0x1b466 ; am_util_stdio_vsprintf + 650
        0x0001b466:    9813        ..      LDR      r0,[sp,#0x4c]
        0x0001b468:    9009        ..      STR      r0,[sp,#0x24]
        0x0001b46a:    e002        ..      B        0x1b472 ; am_util_stdio_vsprintf + 662
        0x0001b46c:    2000        .       MOVS     r0,#0
        0x0001b46e:    9009        ..      STR      r0,[sp,#0x24]
        0x0001b470:    e7ff        ..      B        0x1b472 ; am_util_stdio_vsprintf + 662
        0x0001b472:    9909        ..      LDR      r1,[sp,#0x24]
        0x0001b474:    981c        ..      LDR      r0,[sp,#0x70]
        0x0001b476:    4408        .D      ADD      r0,r0,r1
        0x0001b478:    901c        ..      STR      r0,[sp,#0x70]
        0x0001b47a:    9913        ..      LDR      r1,[sp,#0x4c]
        0x0001b47c:    9814        ..      LDR      r0,[sp,#0x50]
        0x0001b47e:    4408        .D      ADD      r0,r0,r1
        0x0001b480:    9014        ..      STR      r0,[sp,#0x50]
        0x0001b482:    2000        .       MOVS     r0,#0
        0x0001b484:    9013        ..      STR      r0,[sp,#0x4c]
        0x0001b486:    e7ff        ..      B        0x1b488 ; am_util_stdio_vsprintf + 684
        0x0001b488:    e7ff        ..      B        0x1b48a ; am_util_stdio_vsprintf + 686
        0x0001b48a:    e1c2        ..      B        0x1b812 ; am_util_stdio_vsprintf + 1590
        0x0001b48c:    2001        .       MOVS     r0,#1
        0x0001b48e:    f88d0041    ..A.    STRB     r0,[sp,#0x41]
        0x0001b492:    e7ff        ..      B        0x1b494 ; am_util_stdio_vsprintf + 696
        0x0001b494:    f89d0040    ..@.    LDRB     r0,[sp,#0x40]
        0x0001b498:    07c0        ..      LSLS     r0,r0,#31
        0x0001b49a:    b160        `.      CBZ      r0,0x1b4b6 ; am_util_stdio_vsprintf + 730
        0x0001b49c:    e7ff        ..      B        0x1b49e ; am_util_stdio_vsprintf + 706
        0x0001b49e:    981d        ..      LDR      r0,[sp,#0x74]
        0x0001b4a0:    3007        .0      ADDS     r0,#7
        0x0001b4a2:    f0200007     ...    BIC      r0,r0,#7
        0x0001b4a6:    f1000108    ....    ADD      r1,r0,#8
        0x0001b4aa:    911d        ..      STR      r1,[sp,#0x74]
        0x0001b4ac:    6801        .h      LDR      r1,[r0,#0]
        0x0001b4ae:    6840        @h      LDR      r0,[r0,#4]
        0x0001b4b0:    9107        ..      STR      r1,[sp,#0x1c]
        0x0001b4b2:    9008        ..      STR      r0,[sp,#0x20]
        0x0001b4b4:    e007        ..      B        0x1b4c6 ; am_util_stdio_vsprintf + 746
        0x0001b4b6:    981d        ..      LDR      r0,[sp,#0x74]
        0x0001b4b8:    1d01        ..      ADDS     r1,r0,#4
        0x0001b4ba:    911d        ..      STR      r1,[sp,#0x74]
        0x0001b4bc:    6801        .h      LDR      r1,[r0,#0]
        0x0001b4be:    2000        .       MOVS     r0,#0
        0x0001b4c0:    9107        ..      STR      r1,[sp,#0x1c]
        0x0001b4c2:    9008        ..      STR      r0,[sp,#0x20]
        0x0001b4c4:    e7ff        ..      B        0x1b4c6 ; am_util_stdio_vsprintf + 746
        0x0001b4c6:    9907        ..      LDR      r1,[sp,#0x1c]
        0x0001b4c8:    9808        ..      LDR      r0,[sp,#0x20]
        0x0001b4ca:    9118        ..      STR      r1,[sp,#0x60]
        0x0001b4cc:    9019        ..      STR      r0,[sp,#0x64]
        0x0001b4ce:    9813        ..      LDR      r0,[sp,#0x4c]
        0x0001b4d0:    b318        ..      CBZ      r0,0x1b51a ; am_util_stdio_vsprintf + 830
        0x0001b4d2:    e7ff        ..      B        0x1b4d4 ; am_util_stdio_vsprintf + 760
        0x0001b4d4:    9818        ..      LDR      r0,[sp,#0x60]
        0x0001b4d6:    9919        ..      LDR      r1,[sp,#0x64]
        0x0001b4d8:    f001fcac    ....    BL       ndigits_in_hex ; 0x1ce34
        0x0001b4dc:    4601        .F      MOV      r1,r0
        0x0001b4de:    9813        ..      LDR      r0,[sp,#0x4c]
        0x0001b4e0:    1a40        @.      SUBS     r0,r0,r1
        0x0001b4e2:    9013        ..      STR      r0,[sp,#0x4c]
        0x0001b4e4:    981c        ..      LDR      r0,[sp,#0x70]
        0x0001b4e6:    f89d1042    ..B.    LDRB     r1,[sp,#0x42]
        0x0001b4ea:    9a13        ..      LDR      r2,[sp,#0x4c]
        0x0001b4ec:    f001fe9e    ....    BL       padbuffer ; 0x1d22c
        0x0001b4f0:    9013        ..      STR      r0,[sp,#0x4c]
        0x0001b4f2:    981c        ..      LDR      r0,[sp,#0x70]
        0x0001b4f4:    b118        ..      CBZ      r0,0x1b4fe ; am_util_stdio_vsprintf + 802
        0x0001b4f6:    e7ff        ..      B        0x1b4f8 ; am_util_stdio_vsprintf + 796
        0x0001b4f8:    9813        ..      LDR      r0,[sp,#0x4c]
        0x0001b4fa:    9006        ..      STR      r0,[sp,#0x18]
        0x0001b4fc:    e002        ..      B        0x1b504 ; am_util_stdio_vsprintf + 808
        0x0001b4fe:    2000        .       MOVS     r0,#0
        0x0001b500:    9006        ..      STR      r0,[sp,#0x18]
        0x0001b502:    e7ff        ..      B        0x1b504 ; am_util_stdio_vsprintf + 808
        0x0001b504:    9906        ..      LDR      r1,[sp,#0x18]
        0x0001b506:    981c        ..      LDR      r0,[sp,#0x70]
        0x0001b508:    4408        .D      ADD      r0,r0,r1
        0x0001b50a:    901c        ..      STR      r0,[sp,#0x70]
        0x0001b50c:    9913        ..      LDR      r1,[sp,#0x4c]
        0x0001b50e:    9814        ..      LDR      r0,[sp,#0x50]
        0x0001b510:    4408        .D      ADD      r0,r0,r1
        0x0001b512:    9014        ..      STR      r0,[sp,#0x50]
        0x0001b514:    2000        .       MOVS     r0,#0
        0x0001b516:    9013        ..      STR      r0,[sp,#0x4c]
        0x0001b518:    e7ff        ..      B        0x1b51a ; am_util_stdio_vsprintf + 830
        0x0001b51a:    9818        ..      LDR      r0,[sp,#0x60]
        0x0001b51c:    9919        ..      LDR      r1,[sp,#0x64]
        0x0001b51e:    9a1c        ..      LDR      r2,[sp,#0x70]
        0x0001b520:    f89d3041    ..A0    LDRB     r3,[sp,#0x41]
        0x0001b524:    f0030301    ....    AND      r3,r3,#1
        0x0001b528:    f003fc10    ....    BL       uint64_to_hexstr ; 0x1ed4c
        0x0001b52c:    9012        ..      STR      r0,[sp,#0x48]
        0x0001b52e:    981c        ..      LDR      r0,[sp,#0x70]
        0x0001b530:    b128        (.      CBZ      r0,0x1b53e ; am_util_stdio_vsprintf + 866
        0x0001b532:    e7ff        ..      B        0x1b534 ; am_util_stdio_vsprintf + 856
        0x0001b534:    9912        ..      LDR      r1,[sp,#0x48]
        0x0001b536:    981c        ..      LDR      r0,[sp,#0x70]
        0x0001b538:    4408        .D      ADD      r0,r0,r1
        0x0001b53a:    901c        ..      STR      r0,[sp,#0x70]
        0x0001b53c:    e7ff        ..      B        0x1b53e ; am_util_stdio_vsprintf + 866
        0x0001b53e:    9912        ..      LDR      r1,[sp,#0x48]
        0x0001b540:    9814        ..      LDR      r0,[sp,#0x50]
        0x0001b542:    4408        .D      ADD      r0,r0,r1
        0x0001b544:    9014        ..      STR      r0,[sp,#0x50]
        0x0001b546:    e164        d.      B        0x1b812 ; am_util_stdio_vsprintf + 1590
        0x0001b548:    f89d0040    ..@.    LDRB     r0,[sp,#0x40]
        0x0001b54c:    07c0        ..      LSLS     r0,r0,#31
        0x0001b54e:    b160        `.      CBZ      r0,0x1b56a ; am_util_stdio_vsprintf + 910
        0x0001b550:    e7ff        ..      B        0x1b552 ; am_util_stdio_vsprintf + 886
        0x0001b552:    981d        ..      LDR      r0,[sp,#0x74]
        0x0001b554:    3007        .0      ADDS     r0,#7
        0x0001b556:    f0200007     ...    BIC      r0,r0,#7
        0x0001b55a:    f1000108    ....    ADD      r1,r0,#8
        0x0001b55e:    911d        ..      STR      r1,[sp,#0x74]
        0x0001b560:    6801        .h      LDR      r1,[r0,#0]
        0x0001b562:    6840        @h      LDR      r0,[r0,#4]
        0x0001b564:    9104        ..      STR      r1,[sp,#0x10]
        0x0001b566:    9005        ..      STR      r0,[sp,#0x14]
        0x0001b568:    e007        ..      B        0x1b57a ; am_util_stdio_vsprintf + 926
        0x0001b56a:    981d        ..      LDR      r0,[sp,#0x74]
        0x0001b56c:    1d01        ..      ADDS     r1,r0,#4
        0x0001b56e:    911d        ..      STR      r1,[sp,#0x74]
        0x0001b570:    6801        .h      LDR      r1,[r0,#0]
        0x0001b572:    2000        .       MOVS     r0,#0
        0x0001b574:    9104        ..      STR      r1,[sp,#0x10]
        0x0001b576:    9005        ..      STR      r0,[sp,#0x14]
        0x0001b578:    e7ff        ..      B        0x1b57a ; am_util_stdio_vsprintf + 926
        0x0001b57a:    9904        ..      LDR      r1,[sp,#0x10]
        0x0001b57c:    9805        ..      LDR      r0,[sp,#0x14]
        0x0001b57e:    9118        ..      STR      r1,[sp,#0x60]
        0x0001b580:    9019        ..      STR      r0,[sp,#0x64]
        0x0001b582:    9813        ..      LDR      r0,[sp,#0x4c]
        0x0001b584:    b318        ..      CBZ      r0,0x1b5ce ; am_util_stdio_vsprintf + 1010
        0x0001b586:    e7ff        ..      B        0x1b588 ; am_util_stdio_vsprintf + 940
        0x0001b588:    9818        ..      LDR      r0,[sp,#0x60]
        0x0001b58a:    9919        ..      LDR      r1,[sp,#0x64]
        0x0001b58c:    f001fc8a    ....    BL       ndigits_in_u64 ; 0x1cea4
        0x0001b590:    4601        .F      MOV      r1,r0
        0x0001b592:    9813        ..      LDR      r0,[sp,#0x4c]
        0x0001b594:    1a40        @.      SUBS     r0,r0,r1
        0x0001b596:    9013        ..      STR      r0,[sp,#0x4c]
        0x0001b598:    981c        ..      LDR      r0,[sp,#0x70]
        0x0001b59a:    f89d1042    ..B.    LDRB     r1,[sp,#0x42]
        0x0001b59e:    9a13        ..      LDR      r2,[sp,#0x4c]
        0x0001b5a0:    f001fe44    ..D.    BL       padbuffer ; 0x1d22c
        0x0001b5a4:    9013        ..      STR      r0,[sp,#0x4c]
        0x0001b5a6:    981c        ..      LDR      r0,[sp,#0x70]
        0x0001b5a8:    b118        ..      CBZ      r0,0x1b5b2 ; am_util_stdio_vsprintf + 982
        0x0001b5aa:    e7ff        ..      B        0x1b5ac ; am_util_stdio_vsprintf + 976
        0x0001b5ac:    9813        ..      LDR      r0,[sp,#0x4c]
        0x0001b5ae:    9003        ..      STR      r0,[sp,#0xc]
        0x0001b5b0:    e002        ..      B        0x1b5b8 ; am_util_stdio_vsprintf + 988
        0x0001b5b2:    2000        .       MOVS     r0,#0
        0x0001b5b4:    9003        ..      STR      r0,[sp,#0xc]
        0x0001b5b6:    e7ff        ..      B        0x1b5b8 ; am_util_stdio_vsprintf + 988
        0x0001b5b8:    9903        ..      LDR      r1,[sp,#0xc]
        0x0001b5ba:    981c        ..      LDR      r0,[sp,#0x70]
        0x0001b5bc:    4408        .D      ADD      r0,r0,r1
        0x0001b5be:    901c        ..      STR      r0,[sp,#0x70]
        0x0001b5c0:    9913        ..      LDR      r1,[sp,#0x4c]
        0x0001b5c2:    9814        ..      LDR      r0,[sp,#0x50]
        0x0001b5c4:    4408        .D      ADD      r0,r0,r1
        0x0001b5c6:    9014        ..      STR      r0,[sp,#0x50]
        0x0001b5c8:    2000        .       MOVS     r0,#0
        0x0001b5ca:    9013        ..      STR      r0,[sp,#0x4c]
        0x0001b5cc:    e7ff        ..      B        0x1b5ce ; am_util_stdio_vsprintf + 1010
        0x0001b5ce:    9818        ..      LDR      r0,[sp,#0x60]
        0x0001b5d0:    9919        ..      LDR      r1,[sp,#0x64]
        0x0001b5d2:    9a1c        ..      LDR      r2,[sp,#0x70]
        0x0001b5d4:    f003fc1a    ....    BL       uint64_to_str ; 0x1ee0c
        0x0001b5d8:    9012        ..      STR      r0,[sp,#0x48]
        0x0001b5da:    981c        ..      LDR      r0,[sp,#0x70]
        0x0001b5dc:    b128        (.      CBZ      r0,0x1b5ea ; am_util_stdio_vsprintf + 1038
        0x0001b5de:    e7ff        ..      B        0x1b5e0 ; am_util_stdio_vsprintf + 1028
        0x0001b5e0:    9912        ..      LDR      r1,[sp,#0x48]
        0x0001b5e2:    981c        ..      LDR      r0,[sp,#0x70]
        0x0001b5e4:    4408        .D      ADD      r0,r0,r1
        0x0001b5e6:    901c        ..      STR      r0,[sp,#0x70]
        0x0001b5e8:    e7ff        ..      B        0x1b5ea ; am_util_stdio_vsprintf + 1038
        0x0001b5ea:    9912        ..      LDR      r1,[sp,#0x48]
        0x0001b5ec:    9814        ..      LDR      r0,[sp,#0x50]
        0x0001b5ee:    4408        .D      ADD      r0,r0,r1
        0x0001b5f0:    9014        ..      STR      r0,[sp,#0x50]
        0x0001b5f2:    e10e        ..      B        0x1b812 ; am_util_stdio_vsprintf + 1590
        0x0001b5f4:    f89d0040    ..@.    LDRB     r0,[sp,#0x40]
        0x0001b5f8:    07c0        ..      LSLS     r0,r0,#31
        0x0001b5fa:    b160        `.      CBZ      r0,0x1b616 ; am_util_stdio_vsprintf + 1082
        0x0001b5fc:    e7ff        ..      B        0x1b5fe ; am_util_stdio_vsprintf + 1058
        0x0001b5fe:    981d        ..      LDR      r0,[sp,#0x74]
        0x0001b600:    3007        .0      ADDS     r0,#7
        0x0001b602:    f0200007     ...    BIC      r0,r0,#7
        0x0001b606:    f1000108    ....    ADD      r1,r0,#8
        0x0001b60a:    911d        ..      STR      r1,[sp,#0x74]
        0x0001b60c:    6801        .h      LDR      r1,[r0,#0]
        0x0001b60e:    6840        @h      LDR      r0,[r0,#4]
        0x0001b610:    9101        ..      STR      r1,[sp,#4]
        0x0001b612:    9002        ..      STR      r0,[sp,#8]
        0x0001b614:    e007        ..      B        0x1b626 ; am_util_stdio_vsprintf + 1098
        0x0001b616:    981d        ..      LDR      r0,[sp,#0x74]
        0x0001b618:    1d01        ..      ADDS     r1,r0,#4
        0x0001b61a:    911d        ..      STR      r1,[sp,#0x74]
        0x0001b61c:    6801        .h      LDR      r1,[r0,#0]
        0x0001b61e:    17c8        ..      ASRS     r0,r1,#31
        0x0001b620:    9101        ..      STR      r1,[sp,#4]
        0x0001b622:    9002        ..      STR      r0,[sp,#8]
        0x0001b624:    e7ff        ..      B        0x1b626 ; am_util_stdio_vsprintf + 1098
        0x0001b626:    9901        ..      LDR      r1,[sp,#4]
        0x0001b628:    9802        ..      LDR      r0,[sp,#8]
        0x0001b62a:    9116        ..      STR      r1,[sp,#0x58]
        0x0001b62c:    9017        ..      STR      r0,[sp,#0x5c]
        0x0001b62e:    9817        ..      LDR      r0,[sp,#0x5c]
        0x0001b630:    f1b03fff    ...?    CMP      r0,#0xffffffff
        0x0001b634:    dc0c        ..      BGT      0x1b650 ; am_util_stdio_vsprintf + 1140
        0x0001b636:    e7ff        ..      B        0x1b638 ; am_util_stdio_vsprintf + 1116
        0x0001b638:    9816        ..      LDR      r0,[sp,#0x58]
        0x0001b63a:    9a17        ..      LDR      r2,[sp,#0x5c]
        0x0001b63c:    4241        AB      RSBS     r1,r0,#0
        0x0001b63e:    f04f0000    O...    MOV      r0,#0
        0x0001b642:    4190        .A      SBCS     r0,r0,r2
        0x0001b644:    9118        ..      STR      r1,[sp,#0x60]
        0x0001b646:    9019        ..      STR      r0,[sp,#0x64]
        0x0001b648:    2001        .       MOVS     r0,#1
        0x0001b64a:    f88d003f    ..?.    STRB     r0,[sp,#0x3f]
        0x0001b64e:    e007        ..      B        0x1b660 ; am_util_stdio_vsprintf + 1156
        0x0001b650:    9816        ..      LDR      r0,[sp,#0x58]
        0x0001b652:    9917        ..      LDR      r1,[sp,#0x5c]
        0x0001b654:    9119        ..      STR      r1,[sp,#0x64]
        0x0001b656:    9018        ..      STR      r0,[sp,#0x60]
        0x0001b658:    2000        .       MOVS     r0,#0
        0x0001b65a:    f88d003f    ..?.    STRB     r0,[sp,#0x3f]
        0x0001b65e:    e7ff        ..      B        0x1b660 ; am_util_stdio_vsprintf + 1156
        0x0001b660:    9813        ..      LDR      r0,[sp,#0x4c]
        0x0001b662:    2800        .(      CMP      r0,#0
        0x0001b664:    d055        U.      BEQ      0x1b712 ; am_util_stdio_vsprintf + 1334
        0x0001b666:    e7ff        ..      B        0x1b668 ; am_util_stdio_vsprintf + 1164
        0x0001b668:    9818        ..      LDR      r0,[sp,#0x60]
        0x0001b66a:    9919        ..      LDR      r1,[sp,#0x64]
        0x0001b66c:    f001fc02    ....    BL       ndigits_in_i64 ; 0x1ce74
        0x0001b670:    4601        .F      MOV      r1,r0
        0x0001b672:    9813        ..      LDR      r0,[sp,#0x4c]
        0x0001b674:    1a40        @.      SUBS     r0,r0,r1
        0x0001b676:    9013        ..      STR      r0,[sp,#0x4c]
        0x0001b678:    f89d003f    ..?.    LDRB     r0,[sp,#0x3f]
        0x0001b67c:    07c0        ..      LSLS     r0,r0,#31
        0x0001b67e:    b1b0        ..      CBZ      r0,0x1b6ae ; am_util_stdio_vsprintf + 1234
        0x0001b680:    e7ff        ..      B        0x1b682 ; am_util_stdio_vsprintf + 1190
        0x0001b682:    9813        ..      LDR      r0,[sp,#0x4c]
        0x0001b684:    3801        .8      SUBS     r0,#1
        0x0001b686:    9013        ..      STR      r0,[sp,#0x4c]
        0x0001b688:    f89d0042    ..B.    LDRB     r0,[sp,#0x42]
        0x0001b68c:    2830        0(      CMP      r0,#0x30
        0x0001b68e:    d10d        ..      BNE      0x1b6ac ; am_util_stdio_vsprintf + 1232
        0x0001b690:    e7ff        ..      B        0x1b692 ; am_util_stdio_vsprintf + 1206
        0x0001b692:    981c        ..      LDR      r0,[sp,#0x70]
        0x0001b694:    b130        0.      CBZ      r0,0x1b6a4 ; am_util_stdio_vsprintf + 1224
        0x0001b696:    e7ff        ..      B        0x1b698 ; am_util_stdio_vsprintf + 1212
        0x0001b698:    991c        ..      LDR      r1,[sp,#0x70]
        0x0001b69a:    1c48        H.      ADDS     r0,r1,#1
        0x0001b69c:    901c        ..      STR      r0,[sp,#0x70]
        0x0001b69e:    202d        -       MOVS     r0,#0x2d
        0x0001b6a0:    7008        .p      STRB     r0,[r1,#0]
        0x0001b6a2:    e7ff        ..      B        0x1b6a4 ; am_util_stdio_vsprintf + 1224
        0x0001b6a4:    9814        ..      LDR      r0,[sp,#0x50]
        0x0001b6a6:    3001        .0      ADDS     r0,#1
        0x0001b6a8:    9014        ..      STR      r0,[sp,#0x50]
        0x0001b6aa:    e7ff        ..      B        0x1b6ac ; am_util_stdio_vsprintf + 1232
        0x0001b6ac:    e7ff        ..      B        0x1b6ae ; am_util_stdio_vsprintf + 1234
        0x0001b6ae:    981c        ..      LDR      r0,[sp,#0x70]
        0x0001b6b0:    f89d1042    ..B.    LDRB     r1,[sp,#0x42]
        0x0001b6b4:    9a13        ..      LDR      r2,[sp,#0x4c]
        0x0001b6b6:    f001fdb9    ....    BL       padbuffer ; 0x1d22c
        0x0001b6ba:    9013        ..      STR      r0,[sp,#0x4c]
        0x0001b6bc:    981c        ..      LDR      r0,[sp,#0x70]
        0x0001b6be:    b118        ..      CBZ      r0,0x1b6c8 ; am_util_stdio_vsprintf + 1260
        0x0001b6c0:    e7ff        ..      B        0x1b6c2 ; am_util_stdio_vsprintf + 1254
        0x0001b6c2:    9813        ..      LDR      r0,[sp,#0x4c]
        0x0001b6c4:    9000        ..      STR      r0,[sp,#0]
        0x0001b6c6:    e002        ..      B        0x1b6ce ; am_util_stdio_vsprintf + 1266
        0x0001b6c8:    2000        .       MOVS     r0,#0
        0x0001b6ca:    9000        ..      STR      r0,[sp,#0]
        0x0001b6cc:    e7ff        ..      B        0x1b6ce ; am_util_stdio_vsprintf + 1266
        0x0001b6ce:    9900        ..      LDR      r1,[sp,#0]
        0x0001b6d0:    981c        ..      LDR      r0,[sp,#0x70]
        0x0001b6d2:    4408        .D      ADD      r0,r0,r1
        0x0001b6d4:    901c        ..      STR      r0,[sp,#0x70]
        0x0001b6d6:    9913        ..      LDR      r1,[sp,#0x4c]
        0x0001b6d8:    9814        ..      LDR      r0,[sp,#0x50]
        0x0001b6da:    4408        .D      ADD      r0,r0,r1
        0x0001b6dc:    9014        ..      STR      r0,[sp,#0x50]
        0x0001b6de:    2000        .       MOVS     r0,#0
        0x0001b6e0:    9013        ..      STR      r0,[sp,#0x4c]
        0x0001b6e2:    f89d003f    ..?.    LDRB     r0,[sp,#0x3f]
        0x0001b6e6:    07c0        ..      LSLS     r0,r0,#31
        0x0001b6e8:    b190        ..      CBZ      r0,0x1b710 ; am_util_stdio_vsprintf + 1332
        0x0001b6ea:    e7ff        ..      B        0x1b6ec ; am_util_stdio_vsprintf + 1296
        0x0001b6ec:    f89d0042    ..B.    LDRB     r0,[sp,#0x42]
        0x0001b6f0:    2820         (      CMP      r0,#0x20
        0x0001b6f2:    d10d        ..      BNE      0x1b710 ; am_util_stdio_vsprintf + 1332
        0x0001b6f4:    e7ff        ..      B        0x1b6f6 ; am_util_stdio_vsprintf + 1306
        0x0001b6f6:    981c        ..      LDR      r0,[sp,#0x70]
        0x0001b6f8:    b130        0.      CBZ      r0,0x1b708 ; am_util_stdio_vsprintf + 1324
        0x0001b6fa:    e7ff        ..      B        0x1b6fc ; am_util_stdio_vsprintf + 1312
        0x0001b6fc:    991c        ..      LDR      r1,[sp,#0x70]
        0x0001b6fe:    1c48        H.      ADDS     r0,r1,#1
        0x0001b700:    901c        ..      STR      r0,[sp,#0x70]
        0x0001b702:    202d        -       MOVS     r0,#0x2d
        0x0001b704:    7008        .p      STRB     r0,[r1,#0]
        0x0001b706:    e7ff        ..      B        0x1b708 ; am_util_stdio_vsprintf + 1324
        0x0001b708:    9814        ..      LDR      r0,[sp,#0x50]
        0x0001b70a:    3001        .0      ADDS     r0,#1
        0x0001b70c:    9014        ..      STR      r0,[sp,#0x50]
        0x0001b70e:    e7ff        ..      B        0x1b710 ; am_util_stdio_vsprintf + 1332
        0x0001b710:    e012        ..      B        0x1b738 ; am_util_stdio_vsprintf + 1372
        0x0001b712:    f89d003f    ..?.    LDRB     r0,[sp,#0x3f]
        0x0001b716:    07c0        ..      LSLS     r0,r0,#31
        0x0001b718:    b168        h.      CBZ      r0,0x1b736 ; am_util_stdio_vsprintf + 1370
        0x0001b71a:    e7ff        ..      B        0x1b71c ; am_util_stdio_vsprintf + 1344
        0x0001b71c:    981c        ..      LDR      r0,[sp,#0x70]
        0x0001b71e:    b130        0.      CBZ      r0,0x1b72e ; am_util_stdio_vsprintf + 1362
        0x0001b720:    e7ff        ..      B        0x1b722 ; am_util_stdio_vsprintf + 1350
        0x0001b722:    991c        ..      LDR      r1,[sp,#0x70]
        0x0001b724:    1c48        H.      ADDS     r0,r1,#1
        0x0001b726:    901c        ..      STR      r0,[sp,#0x70]
        0x0001b728:    202d        -       MOVS     r0,#0x2d
        0x0001b72a:    7008        .p      STRB     r0,[r1,#0]
        0x0001b72c:    e7ff        ..      B        0x1b72e ; am_util_stdio_vsprintf + 1362
        0x0001b72e:    9814        ..      LDR      r0,[sp,#0x50]
        0x0001b730:    3001        .0      ADDS     r0,#1
        0x0001b732:    9014        ..      STR      r0,[sp,#0x50]
        0x0001b734:    e7ff        ..      B        0x1b736 ; am_util_stdio_vsprintf + 1370
        0x0001b736:    e7ff        ..      B        0x1b738 ; am_util_stdio_vsprintf + 1372
        0x0001b738:    9818        ..      LDR      r0,[sp,#0x60]
        0x0001b73a:    9919        ..      LDR      r1,[sp,#0x64]
        0x0001b73c:    9a1c        ..      LDR      r2,[sp,#0x70]
        0x0001b73e:    f003fb65    ..e.    BL       uint64_to_str ; 0x1ee0c
        0x0001b742:    9012        ..      STR      r0,[sp,#0x48]
        0x0001b744:    981c        ..      LDR      r0,[sp,#0x70]
        0x0001b746:    b128        (.      CBZ      r0,0x1b754 ; am_util_stdio_vsprintf + 1400
        0x0001b748:    e7ff        ..      B        0x1b74a ; am_util_stdio_vsprintf + 1390
        0x0001b74a:    9912        ..      LDR      r1,[sp,#0x48]
        0x0001b74c:    981c        ..      LDR      r0,[sp,#0x70]
        0x0001b74e:    4408        .D      ADD      r0,r0,r1
        0x0001b750:    901c        ..      STR      r0,[sp,#0x70]
        0x0001b752:    e7ff        ..      B        0x1b754 ; am_util_stdio_vsprintf + 1400
        0x0001b754:    9912        ..      LDR      r1,[sp,#0x48]
        0x0001b756:    9814        ..      LDR      r0,[sp,#0x50]
        0x0001b758:    4408        .D      ADD      r0,r0,r1
        0x0001b75a:    9014        ..      STR      r0,[sp,#0x50]
        0x0001b75c:    e059        Y.      B        0x1b812 ; am_util_stdio_vsprintf + 1590
        0x0001b75e:    981c        ..      LDR      r0,[sp,#0x70]
        0x0001b760:    2800        .(      CMP      r0,#0
        0x0001b762:    d047        G.      BEQ      0x1b7f4 ; am_util_stdio_vsprintf + 1560
        0x0001b764:    e7ff        ..      B        0x1b766 ; am_util_stdio_vsprintf + 1418
        0x0001b766:    981d        ..      LDR      r0,[sp,#0x74]
        0x0001b768:    3007        .0      ADDS     r0,#7
        0x0001b76a:    f0200007     ...    BIC      r0,r0,#7
        0x0001b76e:    f1000108    ....    ADD      r1,r0,#8
        0x0001b772:    911d        ..      STR      r1,[sp,#0x74]
        0x0001b774:    ed900b00    ....    VLDR     d0,[r0,#0]
        0x0001b778:    ec510b10    Q...    VMOV     r0,r1,d0
        0x0001b77c:    f003ff74    ..t.    BL       __aeabi_d2f ; 0x1f668
        0x0001b780:    900d        ..      STR      r0,[sp,#0x34]
        0x0001b782:    991c        ..      LDR      r1,[sp,#0x70]
        0x0001b784:    2014        .       MOVS     r0,#0x14
        0x0001b786:    6008        .`      STR      r0,[r1,#0]
        0x0001b788:    ed9d0a0d    ....    VLDR     s0,[sp,#0x34]
        0x0001b78c:    981c        ..      LDR      r0,[sp,#0x70]
        0x0001b78e:    9911        ..      LDR      r1,[sp,#0x44]
        0x0001b790:    f000fd2a    ..*.    BL       ftoa ; 0x1c1e8
        0x0001b794:    9012        ..      STR      r0,[sp,#0x48]
        0x0001b796:    9812        ..      LDR      r0,[sp,#0x48]
        0x0001b798:    f1b03fff    ...?    CMP      r0,#0xffffffff
        0x0001b79c:    dc21        !.      BGT      0x1b7e2 ; am_util_stdio_vsprintf + 1542
        0x0001b79e:    e7ff        ..      B        0x1b7a0 ; am_util_stdio_vsprintf + 1476
        0x0001b7a0:    9812        ..      LDR      r0,[sp,#0x48]
        0x0001b7a2:    3001        .0      ADDS     r0,#1
        0x0001b7a4:    b930        0.      CBNZ     r0,0x1b7b4 ; am_util_stdio_vsprintf + 1496
        0x0001b7a6:    e7ff        ..      B        0x1b7a8 ; am_util_stdio_vsprintf + 1484
        0x0001b7a8:    f6426030    B.0`    MOV      r0,#0x2e30
        0x0001b7ac:    f2c00030    ..0.    MOVT     r0,#0x30
        0x0001b7b0:    900c        ..      STR      r0,[sp,#0x30]
        0x0001b7b2:    e010        ..      B        0x1b7d6 ; am_util_stdio_vsprintf + 1530
        0x0001b7b4:    9812        ..      LDR      r0,[sp,#0x48]
        0x0001b7b6:    3002        .0      ADDS     r0,#2
        0x0001b7b8:    b930        0.      CBNZ     r0,0x1b7c8 ; am_util_stdio_vsprintf + 1516
        0x0001b7ba:    e7ff        ..      B        0x1b7bc ; am_util_stdio_vsprintf + 1504
        0x0001b7bc:    f6426023    B.#`    MOV      r0,#0x2e23
        0x0001b7c0:    f2c00023    ..#.    MOVT     r0,#0x23
        0x0001b7c4:    900c        ..      STR      r0,[sp,#0x30]
        0x0001b7c6:    e005        ..      B        0x1b7d4 ; am_util_stdio_vsprintf + 1528
        0x0001b7c8:    f642603f    B.?`    MOV      r0,#0x2e3f
        0x0001b7cc:    f2c0003f    ..?.    MOVT     r0,#0x3f
        0x0001b7d0:    900c        ..      STR      r0,[sp,#0x30]
        0x0001b7d2:    e7ff        ..      B        0x1b7d4 ; am_util_stdio_vsprintf + 1528
        0x0001b7d4:    e7ff        ..      B        0x1b7d6 ; am_util_stdio_vsprintf + 1530
        0x0001b7d6:    980c        ..      LDR      r0,[sp,#0x30]
        0x0001b7d8:    991c        ..      LDR      r1,[sp,#0x70]
        0x0001b7da:    6008        .`      STR      r0,[r1,#0]
        0x0001b7dc:    2003        .       MOVS     r0,#3
        0x0001b7de:    9012        ..      STR      r0,[sp,#0x48]
        0x0001b7e0:    e7ff        ..      B        0x1b7e2 ; am_util_stdio_vsprintf + 1542
        0x0001b7e2:    9912        ..      LDR      r1,[sp,#0x48]
        0x0001b7e4:    9814        ..      LDR      r0,[sp,#0x50]
        0x0001b7e6:    4408        .D      ADD      r0,r0,r1
        0x0001b7e8:    9014        ..      STR      r0,[sp,#0x50]
        0x0001b7ea:    9912        ..      LDR      r1,[sp,#0x48]
        0x0001b7ec:    981c        ..      LDR      r0,[sp,#0x70]
        0x0001b7ee:    4408        .D      ADD      r0,r0,r1
        0x0001b7f0:    901c        ..      STR      r0,[sp,#0x70]
        0x0001b7f2:    e7ff        ..      B        0x1b7f4 ; am_util_stdio_vsprintf + 1560
        0x0001b7f4:    e00d        ..      B        0x1b812 ; am_util_stdio_vsprintf + 1590
        0x0001b7f6:    981c        ..      LDR      r0,[sp,#0x70]
        0x0001b7f8:    b138        8.      CBZ      r0,0x1b80a ; am_util_stdio_vsprintf + 1582
        0x0001b7fa:    e7ff        ..      B        0x1b7fc ; am_util_stdio_vsprintf + 1568
        0x0001b7fc:    981b        ..      LDR      r0,[sp,#0x6c]
        0x0001b7fe:    7800        .x      LDRB     r0,[r0,#0]
        0x0001b800:    991c        ..      LDR      r1,[sp,#0x70]
        0x0001b802:    1c4a        J.      ADDS     r2,r1,#1
        0x0001b804:    921c        ..      STR      r2,[sp,#0x70]
        0x0001b806:    7008        .p      STRB     r0,[r1,#0]
        0x0001b808:    e7ff        ..      B        0x1b80a ; am_util_stdio_vsprintf + 1582
        0x0001b80a:    9814        ..      LDR      r0,[sp,#0x50]
        0x0001b80c:    3001        .0      ADDS     r0,#1
        0x0001b80e:    9014        ..      STR      r0,[sp,#0x50]
        0x0001b810:    e7ff        ..      B        0x1b812 ; am_util_stdio_vsprintf + 1590
        0x0001b812:    981b        ..      LDR      r0,[sp,#0x6c]
        0x0001b814:    3001        .0      ADDS     r0,#1
        0x0001b816:    901b        ..      STR      r0,[sp,#0x6c]
        0x0001b818:    f7ffbce9    ....    B.W      0x1b1ee ; am_util_stdio_vsprintf + 18
        0x0001b81c:    981c        ..      LDR      r0,[sp,#0x70]
        0x0001b81e:    b120         .      CBZ      r0,0x1b82a ; am_util_stdio_vsprintf + 1614
        0x0001b820:    e7ff        ..      B        0x1b822 ; am_util_stdio_vsprintf + 1606
        0x0001b822:    991c        ..      LDR      r1,[sp,#0x70]
        0x0001b824:    2000        .       MOVS     r0,#0
        0x0001b826:    7008        .p      STRB     r0,[r1,#0]
        0x0001b828:    e7ff        ..      B        0x1b82a ; am_util_stdio_vsprintf + 1614
        0x0001b82a:    9814        ..      LDR      r0,[sp,#0x50]
        0x0001b82c:    b01e        ..      ADD      sp,sp,#0x78
        0x0001b82e:    bd80        ..      POP      {r7,pc}
    backward_pointer
        0x0001b830:    b082        ..      SUB      sp,sp,#8
        0x0001b832:    9001        ..      STR      r0,[sp,#4]
        0x0001b834:    f8ad1002    ....    STRH     r1,[sp,#2]
        0x0001b838:    f8ad2000    ...     STRH     r2,[sp,#0]
        0x0001b83c:    f8bd0002    ....    LDRH     r0,[sp,#2]
        0x0001b840:    f8bd1000    ....    LDRH     r1,[sp,#0]
        0x0001b844:    1a41        A.      SUBS     r1,r0,r1
        0x0001b846:    b289        ..      UXTH     r1,r1
        0x0001b848:    4288        .B      CMP      r0,r1
        0x0001b84a:    db0b        ..      BLT      0x1b864 ; backward_pointer + 52
        0x0001b84c:    e7ff        ..      B        0x1b84e ; backward_pointer + 30
        0x0001b84e:    f8bd0002    ....    LDRH     r0,[sp,#2]
        0x0001b852:    f8bd1000    ....    LDRH     r1,[sp,#0]
        0x0001b856:    1a40        @.      SUBS     r0,r0,r1
        0x0001b858:    b280        ..      UXTH     r0,r0
        0x0001b85a:    9901        ..      LDR      r1,[sp,#4]
        0x0001b85c:    8989        ..      LDRH     r1,[r1,#0xc]
        0x0001b85e:    4288        .B      CMP      r0,r1
        0x0001b860:    dd0b        ..      BLE      0x1b87a ; backward_pointer + 74
        0x0001b862:    e7ff        ..      B        0x1b864 ; backward_pointer + 52
        0x0001b864:    f8bd0002    ....    LDRH     r0,[sp,#2]
        0x0001b868:    f8bd1000    ....    LDRH     r1,[sp,#0]
        0x0001b86c:    1a40        @.      SUBS     r0,r0,r1
        0x0001b86e:    9901        ..      LDR      r1,[sp,#4]
        0x0001b870:    8949        I.      LDRH     r1,[r1,#0xa]
        0x0001b872:    1a40        @.      SUBS     r0,r0,r1
        0x0001b874:    f8ad0002    ....    STRH     r0,[sp,#2]
        0x0001b878:    e007        ..      B        0x1b88a ; backward_pointer + 90
        0x0001b87a:    f8bd1000    ....    LDRH     r1,[sp,#0]
        0x0001b87e:    f8bd0002    ....    LDRH     r0,[sp,#2]
        0x0001b882:    1a40        @.      SUBS     r0,r0,r1
        0x0001b884:    f8ad0002    ....    STRH     r0,[sp,#2]
        0x0001b888:    e7ff        ..      B        0x1b88a ; backward_pointer + 90
        0x0001b88a:    f8bd0002    ....    LDRH     r0,[sp,#2]
        0x0001b88e:    b002        ..      ADD      sp,sp,#8
        0x0001b890:    4770        pG      BX       lr
        0x0001b892:    0000        ..      MOVS     r0,r0
    board_init
        0x0001b894:    b580        ..      PUSH     {r7,lr}
        0x0001b896:    b098        ..      SUB      sp,sp,#0x60
        0x0001b898:    f7fdfd22    ..".    BL       am_hal_interrupt_master_enable ; 0x192e0
        0x0001b89c:    f64f000c    O...    MOV      r0,#0xf80c
        0x0001b8a0:    f2c00001    ....    MOVT     r0,#1
        0x0001b8a4:    f7fdf9b7    ....    BL       am_hal_cachectrl_config ; 0x18c16
        0x0001b8a8:    f7fdf9d7    ....    BL       am_hal_cachectrl_enable ; 0x18c5a
        0x0001b8ac:    f7fdf8e2    ....    BL       am_bsp_debug_printf_enable ; 0x18a74
        0x0001b8b0:    f7fffc8c    ....    BL       am_util_stdio_terminal_clear ; 0x1b1cc
        0x0001b8b4:    f64f30e3    O..0    MOV      r0,#0xfbe3
        0x0001b8b8:    f2c00001    ....    MOVT     r0,#1
        0x0001b8bc:    f7fffc4e    ..N.    BL       am_util_stdio_printf ; 0x1b15c
        0x0001b8c0:    a801        ..      ADD      r0,sp,#4
        0x0001b8c2:    f7fffbc5    ....    BL       am_util_id_device ; 0x1b050
        0x0001b8c6:    9913        ..      LDR      r1,[sp,#0x4c]
        0x0001b8c8:    f64f4007    O..@    MOV      r0,#0xfc07
        0x0001b8cc:    f2c00001    ....    MOVT     r0,#1
        0x0001b8d0:    f7fffc44    ..D.    BL       am_util_stdio_printf ; 0x1b15c
        0x0001b8d4:    9914        ..      LDR      r1,[sp,#0x50]
        0x0001b8d6:    f64f30f5    O..0    MOV      r0,#0xfbf5
        0x0001b8da:    f2c00001    ....    MOVT     r0,#1
        0x0001b8de:    f7fffc3d    ..=.    BL       am_util_stdio_printf ; 0x1b15c
        0x0001b8e2:    b018        ..      ADD      sp,sp,#0x60
        0x0001b8e4:    bd80        ..      POP      {r7,pc}
        0x0001b8e6:    0000        ..      MOVS     r0,r0
    board_led_write
        0x0001b8e8:    b081        ..      SUB      sp,sp,#4
        0x0001b8ea:    f88d0003    ....    STRB     r0,[sp,#3]
        0x0001b8ee:    b001        ..      ADD      sp,sp,#4
        0x0001b8f0:    4770        pG      BX       lr
        0x0001b8f2:    0000        ..      MOVS     r0,r0
    board_millis
        0x0001b8f4:    2000        .       MOVS     r0,#0
        0x0001b8f6:    4770        pG      BX       lr
    chiprev_set
        0x0001b8f8:    b084        ..      SUB      sp,sp,#0x10
        0x0001b8fa:    9003        ..      STR      r0,[sp,#0xc]
        0x0001b8fc:    9102        ..      STR      r1,[sp,#8]
        0x0001b8fe:    9803        ..      LDR      r0,[sp,#0xc]
        0x0001b900:    7b00        .{      LDRB     r0,[r0,#0xc]
        0x0001b902:    0900        ..      LSRS     r0,r0,#4
        0x0001b904:    9001        ..      STR      r0,[sp,#4]
        0x0001b906:    9801        ..      LDR      r0,[sp,#4]
        0x0001b908:    3040        @0      ADDS     r0,r0,#0x40
        0x0001b90a:    9903        ..      LDR      r1,[sp,#0xc]
        0x0001b90c:    f8810050    ..P.    STRB     r0,[r1,#0x50]
        0x0001b910:    9803        ..      LDR      r0,[sp,#0xc]
        0x0001b912:    68c0        .h      LDR      r0,[r0,#0xc]
        0x0001b914:    f000000f    ....    AND      r0,r0,#0xf
        0x0001b918:    9000        ..      STR      r0,[sp,#0]
        0x0001b91a:    9800        ..      LDR      r0,[sp,#0]
        0x0001b91c:    9902        ..      LDR      r1,[sp,#8]
        0x0001b91e:    1a40        @.      SUBS     r0,r0,r1
        0x0001b920:    3030        00      ADDS     r0,r0,#0x30
        0x0001b922:    9903        ..      LDR      r1,[sp,#0xc]
        0x0001b924:    f8810051    ..Q.    STRB     r0,[r1,#0x51]
        0x0001b928:    b004        ..      ADD      sp,sp,#0x10
        0x0001b92a:    4770        pG      BX       lr
    configuration_reset
        0x0001b92c:    b580        ..      PUSH     {r7,lr}
        0x0001b92e:    b082        ..      SUB      sp,sp,#8
        0x0001b930:    f88d0007    ....    STRB     r0,[sp,#7]
        0x0001b934:    2000        .       MOVS     r0,#0
        0x0001b936:    f88d0006    ....    STRB     r0,[sp,#6]
        0x0001b93a:    e7ff        ..      B        0x1b93c ; configuration_reset + 16
        0x0001b93c:    f89d0006    ....    LDRB     r0,[sp,#6]
        0x0001b940:    f24001cc    @...    MOVW     r1,#0xcc
        0x0001b944:    f2c10100    ....    MOVT     r1,#0x1000
        0x0001b948:    7809        .x      LDRB     r1,[r1,#0]
        0x0001b94a:    3101        .1      ADDS     r1,#1
        0x0001b94c:    4288        .B      CMP      r0,r1
        0x0001b94e:    da0f        ..      BGE      0x1b970 ; configuration_reset + 68
        0x0001b950:    e7ff        ..      B        0x1b952 ; configuration_reset + 38
        0x0001b952:    f89d0006    ....    LDRB     r0,[sp,#6]
        0x0001b956:    f000fd5f    .._.    BL       get_driver ; 0x1c418
        0x0001b95a:    6881        .h      LDR      r1,[r0,#8]
        0x0001b95c:    f89d0007    ....    LDRB     r0,[sp,#7]
        0x0001b960:    4788        .G      BLX      r1
        0x0001b962:    e7ff        ..      B        0x1b964 ; configuration_reset + 56
        0x0001b964:    f89d0006    ....    LDRB     r0,[sp,#6]
        0x0001b968:    3001        .0      ADDS     r0,#1
        0x0001b96a:    f88d0006    ....    STRB     r0,[sp,#6]
        0x0001b96e:    e7e5        ..      B        0x1b93c ; configuration_reset + 16
        0x0001b970:    f24010b0    @...    MOVW     r0,#0x1b0
        0x0001b974:    f2c10000    ....    MOVT     r0,#0x1000
        0x0001b978:    9000        ..      STR      r0,[sp,#0]
        0x0001b97a:    2133        3!      MOVS     r1,#0x33
        0x0001b97c:    f7fcfd9a    ....    BL       __aeabi_memclr ; 0x184b4
        0x0001b980:    9900        ..      LDR      r1,[sp,#0]
        0x0001b982:    f04f30ff    O..0    MOV      r0,#0xffffffff
        0x0001b986:    f8c1000f    ....    STR      r0,[r1,#0xf]
        0x0001b98a:    f8c1000b    ....    STR      r0,[r1,#0xb]
        0x0001b98e:    f8c10007    ....    STR      r0,[r1,#7]
        0x0001b992:    f8c10003    ....    STR      r0,[r1,#3]
        0x0001b996:    f8c1001f    ....    STR      r0,[r1,#0x1f]
        0x0001b99a:    f8c1001b    ....    STR      r0,[r1,#0x1b]
        0x0001b99e:    f8c10017    ....    STR      r0,[r1,#0x17]
        0x0001b9a2:    f8c10013    ....    STR      r0,[r1,#0x13]
        0x0001b9a6:    b002        ..      ADD      sp,sp,#8
        0x0001b9a8:    bd80        ..      POP      {r7,pc}
    crypto_boost_trims
        0x0001b9aa:    e92d41f0    -..A    PUSH     {r4-r8,lr}
        0x0001b9ae:    b082        ..      SUB      sp,sp,#8
        0x0001b9b0:    f24066a0    @..f    MOVW     r6,#0x6a0
        0x0001b9b4:    f2c10600    ....    MOVT     r6,#0x1000
        0x0001b9b8:    7832        2x      LDRB     r2,[r6,#0]
        0x0001b9ba:    4604        .F      MOV      r4,r0
        0x0001b9bc:    fab2f082    ....    CLZ      r0,r2
        0x0001b9c0:    0940        @.      LSRS     r0,r0,#5
        0x0001b9c2:    4060        `@      EORS     r0,r0,r4
        0x0001b9c4:    bf1c        ..      ITT      NE
        0x0001b9c6:    b002        ..      ADDNE    sp,sp,#8
        0x0001b9c8:    e8bd81f0    ....    POPNE    {r4-r8,pc}
        0x0001b9cc:    f2400888    @...    MOVW     r8,#0x88
        0x0001b9d0:    460d        .F      MOV      r5,r1
        0x0001b9d2:    f2c40802    ....    MOVT     r8,#0x4002
        0x0001b9d6:    f7fdfc7f    ....    BL       am_hal_interrupt_master_disable ; 0x192d8
        0x0001b9da:    9001        ..      STR      r0,[sp,#4]
        0x0001b9dc:    f24060a8    @..`    MOVW     r0,#0x6a8
        0x0001b9e0:    f2c10000    ....    MOVT     r0,#0x1000
        0x0001b9e4:    6801        .h      LDR      r1,[r0,#0]
        0x0001b9e6:    7034        4p      STRB     r4,[r6,#0]
        0x0001b9e8:    2c00        .,      CMP      r4,#0
        0x0001b9ea:    bf08        ..      IT       EQ
        0x0001b9ec:    426d        mB      RSBEQ    r5,r5,#0
        0x0001b9ee:    4429        )D      ADD      r1,r1,r5
        0x0001b9f0:    6001        .`      STR      r1,[r0,#0]
        0x0001b9f2:    f24060a4    @..`    MOV      r0,#0x6a4
        0x0001b9f6:    293f        ?)      CMP      r1,#0x3f
        0x0001b9f8:    f04f063f    O.?.    MOV      r6,#0x3f
        0x0001b9fc:    f2c10000    ....    MOVT     r0,#0x1000
        0x0001ba00:    bf38        8.      IT       CC
        0x0001ba02:    460e        .F      MOVCC    r6,r1
        0x0001ba04:    2900        .)      CMP      r1,#0
        0x0001ba06:    6801        .h      LDR      r1,[r0,#0]
        0x0001ba08:    f04f073f    O.?.    MOV      r7,#0x3f
        0x0001ba0c:    4429        )D      ADD      r1,r1,r5
        0x0001ba0e:    bf48        H.      IT       MI
        0x0001ba10:    2600        .&      MOVMI    r6,#0
        0x0001ba12:    293f        ?)      CMP      r1,#0x3f
        0x0001ba14:    bf38        8.      IT       CC
        0x0001ba16:    460f        .F      MOVCC    r7,r1
        0x0001ba18:    2900        .)      CMP      r1,#0
        0x0001ba1a:    bf48        H.      IT       MI
        0x0001ba1c:    2700        .'      MOVMI    r7,#0
        0x0001ba1e:    6001        .`      STR      r1,[r0,#0]
        0x0001ba20:    b194        ..      CBZ      r4,0x1ba48 ; crypto_boost_trims + 158
        0x0001ba22:    f8d802e4    ....    LDR      r0,[r8,#0x2e4]
        0x0001ba26:    f020707c     .|p    BIC      r0,r0,#0x3f00000
        0x0001ba2a:    ea405006    @..P    ORR      r0,r0,r6,LSL #20
        0x0001ba2e:    f8c802e4    ....    STR      r0,[r8,#0x2e4]
        0x0001ba32:    2014        .       MOVS     r0,#0x14
        0x0001ba34:    f7fdfb36    ..6.    BL       am_hal_delay_us ; 0x190a4
        0x0001ba38:    f8d80000    ....    LDR      r0,[r8,#0]
        0x0001ba3c:    f020003f     .?.    BIC      r0,r0,#0x3f
        0x0001ba40:    4338        8C      ORRS     r0,r0,r7
        0x0001ba42:    f8c80000    ....    STR      r0,[r8,#0]
        0x0001ba46:    e011        ..      B        0x1ba6c ; crypto_boost_trims + 194
        0x0001ba48:    f8d80000    ....    LDR      r0,[r8,#0]
        0x0001ba4c:    f020003f     .?.    BIC      r0,r0,#0x3f
        0x0001ba50:    4338        8C      ORRS     r0,r0,r7
        0x0001ba52:    f8c80000    ....    STR      r0,[r8,#0]
        0x0001ba56:    2014        .       MOVS     r0,#0x14
        0x0001ba58:    f7fdfb24    ..$.    BL       am_hal_delay_us ; 0x190a4
        0x0001ba5c:    f8d802e4    ....    LDR      r0,[r8,#0x2e4]
        0x0001ba60:    f020707c     .|p    BIC      r0,r0,#0x3f00000
        0x0001ba64:    ea405006    @..P    ORR      r0,r0,r6,LSL #20
        0x0001ba68:    f8c802e4    ....    STR      r0,[r8,#0x2e4]
        0x0001ba6c:    9801        ..      LDR      r0,[sp,#4]
        0x0001ba6e:    f7fdfc3b    ..;.    BL       am_hal_interrupt_master_set ; 0x192e8
        0x0001ba72:    2014        .       MOVS     r0,#0x14
        0x0001ba74:    b002        ..      ADD      sp,sp,#8
        0x0001ba76:    e8bd41f0    ...A    POP      {r4-r8,lr}
        0x0001ba7a:    f7fdbb13    ....    B        am_hal_delay_us ; 0x190a4
        0x0001ba7e:    0000        ..      MOVS     r0,r0
    dcd_edpt_clear_stall
        0x0001ba80:    b580        ..      PUSH     {r7,lr}
        0x0001ba82:    b082        ..      SUB      sp,sp,#8
        0x0001ba84:    f88d0007    ....    STRB     r0,[sp,#7]
        0x0001ba88:    f88d1006    ....    STRB     r1,[sp,#6]
        0x0001ba8c:    f64020c0    @..     MOVW     r0,#0xac0
        0x0001ba90:    f2c10000    ....    MOVT     r0,#0x1000
        0x0001ba94:    6800        .h      LDR      r0,[r0,#0]
        0x0001ba96:    f89d1006    ....    LDRB     r1,[sp,#6]
        0x0001ba9a:    f7fefa1c    ....    BL       am_hal_usb_ep_clear_stall ; 0x19ed6
        0x0001ba9e:    b002        ..      ADD      sp,sp,#8
        0x0001baa0:    bd80        ..      POP      {r7,pc}
        0x0001baa2:    0000        ..      MOVS     r0,r0
    dcd_edpt_close_all
        0x0001baa4:    b081        ..      SUB      sp,sp,#4
        0x0001baa6:    f88d0003    ....    STRB     r0,[sp,#3]
        0x0001baaa:    b001        ..      ADD      sp,sp,#4
        0x0001baac:    4770        pG      BX       lr
        0x0001baae:    0000        ..      MOVS     r0,r0
    dcd_edpt_open
        0x0001bab0:    b580        ..      PUSH     {r7,lr}
        0x0001bab2:    b082        ..      SUB      sp,sp,#8
        0x0001bab4:    f88d0007    ....    STRB     r0,[sp,#7]
        0x0001bab8:    9100        ..      STR      r1,[sp,#0]
        0x0001baba:    f64020c0    @..     MOVW     r0,#0xac0
        0x0001babe:    f2c10000    ....    MOVT     r0,#0x1000
        0x0001bac2:    6800        .h      LDR      r0,[r0,#0]
        0x0001bac4:    9b00        ..      LDR      r3,[sp,#0]
        0x0001bac6:    7899        .x      LDRB     r1,[r3,#2]
        0x0001bac8:    78da        .x      LDRB     r2,[r3,#3]
        0x0001baca:    889b        ..      LDRH     r3,[r3,#4]
        0x0001bacc:    f0020203    ....    AND      r2,r2,#3
        0x0001bad0:    f7fefa48    ..H.    BL       am_hal_usb_ep_init ; 0x19f64
        0x0001bad4:    fab0f080    ....    CLZ      r0,r0
        0x0001bad8:    0940        @.      LSRS     r0,r0,#5
        0x0001bada:    b002        ..      ADD      sp,sp,#8
        0x0001badc:    bd80        ..      POP      {r7,pc}
        0x0001bade:    0000        ..      MOVS     r0,r0
    dcd_edpt_stall
        0x0001bae0:    b580        ..      PUSH     {r7,lr}
        0x0001bae2:    b082        ..      SUB      sp,sp,#8
        0x0001bae4:    f88d0007    ....    STRB     r0,[sp,#7]
        0x0001bae8:    f88d1006    ....    STRB     r1,[sp,#6]
        0x0001baec:    f64020c0    @..     MOVW     r0,#0xac0
        0x0001baf0:    f2c10000    ....    MOVT     r0,#0x1000
        0x0001baf4:    6800        .h      LDR      r0,[r0,#0]
        0x0001baf6:    f89d1006    ....    LDRB     r1,[sp,#6]
        0x0001bafa:    f7fefb13    ....    BL       am_hal_usb_ep_stall ; 0x1a124
        0x0001bafe:    b002        ..      ADD      sp,sp,#8
        0x0001bb00:    bd80        ..      POP      {r7,pc}
        0x0001bb02:    0000        ..      MOVS     r0,r0
    dcd_edpt_xfer
        0x0001bb04:    b580        ..      PUSH     {r7,lr}
        0x0001bb06:    b084        ..      SUB      sp,sp,#0x10
        0x0001bb08:    f88d000f    ....    STRB     r0,[sp,#0xf]
        0x0001bb0c:    f88d100e    ....    STRB     r1,[sp,#0xe]
        0x0001bb10:    9202        ..      STR      r2,[sp,#8]
        0x0001bb12:    f8ad3006    ...0    STRH     r3,[sp,#6]
        0x0001bb16:    f64020c0    @..     MOVW     r0,#0xac0
        0x0001bb1a:    f2c10000    ....    MOVT     r0,#0x1000
        0x0001bb1e:    6800        .h      LDR      r0,[r0,#0]
        0x0001bb20:    f89d100e    ....    LDRB     r1,[sp,#0xe]
        0x0001bb24:    9a02        ..      LDR      r2,[sp,#8]
        0x0001bb26:    f8bd3006    ...0    LDRH     r3,[sp,#6]
        0x0001bb2a:    f7fefb3f    ..?.    BL       am_hal_usb_ep_xfer ; 0x1a1ac
        0x0001bb2e:    fab0f080    ....    CLZ      r0,r0
        0x0001bb32:    0940        @.      LSRS     r0,r0,#5
        0x0001bb34:    b004        ..      ADD      sp,sp,#0x10
        0x0001bb36:    bd80        ..      POP      {r7,pc}
    dcd_event_bus_reset
        0x0001bb38:    b580        ..      PUSH     {r7,lr}
        0x0001bb3a:    b084        ..      SUB      sp,sp,#0x10
        0x0001bb3c:    f88d000f    ....    STRB     r0,[sp,#0xf]
        0x0001bb40:    f88d100e    ....    STRB     r1,[sp,#0xe]
        0x0001bb44:    f88d200d    ...     STRB     r2,[sp,#0xd]
        0x0001bb48:    f89d000f    ....    LDRB     r0,[sp,#0xf]
        0x0001bb4c:    f88d0000    ....    STRB     r0,[sp,#0]
        0x0001bb50:    2001        .       MOVS     r0,#1
        0x0001bb52:    f88d0001    ....    STRB     r0,[sp,#1]
        0x0001bb56:    2000        .       MOVS     r0,#0
        0x0001bb58:    9002        ..      STR      r0,[sp,#8]
        0x0001bb5a:    9001        ..      STR      r0,[sp,#4]
        0x0001bb5c:    f89d000e    ....    LDRB     r0,[sp,#0xe]
        0x0001bb60:    f88d0004    ....    STRB     r0,[sp,#4]
        0x0001bb64:    f89d000d    ....    LDRB     r0,[sp,#0xd]
        0x0001bb68:    f0000101    ....    AND      r1,r0,#1
        0x0001bb6c:    4668        hF      MOV      r0,sp
        0x0001bb6e:    f000f81f    ....    BL       dcd_event_handler ; 0x1bbb0
        0x0001bb72:    b004        ..      ADD      sp,sp,#0x10
        0x0001bb74:    bd80        ..      POP      {r7,pc}
        0x0001bb76:    0000        ..      MOVS     r0,r0
    dcd_event_bus_signal
        0x0001bb78:    b580        ..      PUSH     {r7,lr}
        0x0001bb7a:    b084        ..      SUB      sp,sp,#0x10
        0x0001bb7c:    f88d000f    ....    STRB     r0,[sp,#0xf]
        0x0001bb80:    f88d100e    ....    STRB     r1,[sp,#0xe]
        0x0001bb84:    f88d200d    ...     STRB     r2,[sp,#0xd]
        0x0001bb88:    f89d000f    ....    LDRB     r0,[sp,#0xf]
        0x0001bb8c:    f88d0000    ....    STRB     r0,[sp,#0]
        0x0001bb90:    f89d000e    ....    LDRB     r0,[sp,#0xe]
        0x0001bb94:    f88d0001    ....    STRB     r0,[sp,#1]
        0x0001bb98:    2000        .       MOVS     r0,#0
        0x0001bb9a:    9002        ..      STR      r0,[sp,#8]
        0x0001bb9c:    9001        ..      STR      r0,[sp,#4]
        0x0001bb9e:    f89d000d    ....    LDRB     r0,[sp,#0xd]
        0x0001bba2:    f0000101    ....    AND      r1,r0,#1
        0x0001bba6:    4668        hF      MOV      r0,sp
        0x0001bba8:    f000f802    ....    BL       dcd_event_handler ; 0x1bbb0
        0x0001bbac:    b004        ..      ADD      sp,sp,#0x10
        0x0001bbae:    bd80        ..      POP      {r7,pc}
    dcd_event_handler
        0x0001bbb0:    b580        ..      PUSH     {r7,lr}
        0x0001bbb2:    b086        ..      SUB      sp,sp,#0x18
        0x0001bbb4:    9005        ..      STR      r0,[sp,#0x14]
        0x0001bbb6:    f88d1013    ....    STRB     r1,[sp,#0x13]
        0x0001bbba:    9805        ..      LDR      r0,[sp,#0x14]
        0x0001bbbc:    7840        @x      LDRB     r0,[r0,#1]
        0x0001bbbe:    3802        .8      SUBS     r0,#2
        0x0001bbc0:    4601        .F      MOV      r1,r0
        0x0001bbc2:    9100        ..      STR      r1,[sp,#0]
        0x0001bbc4:    2803        .(      CMP      r0,#3
        0x0001bbc6:    f2008089    ....    BHI.W    0x1bcdc ; dcd_event_handler + 300
        0x0001bbca:    9900        ..      LDR      r1,[sp,#0]
        0x0001bbcc:    e8dff001    ....    TBB      [pc,r1]
    $d.26
        0x0001bbd0:    3f215d02    .]!?    DCD    1059151106
    $t.27
        0x0001bbd4:    f24011b0    @...    MOVW     r1,#0x1b0
        0x0001bbd8:    f2c10100    ....    MOVT     r1,#0x1000
        0x0001bbdc:    7808        .x      LDRB     r0,[r1,#0]
        0x0001bbde:    f00000fe    ....    AND      r0,r0,#0xfe
        0x0001bbe2:    7008        .p      STRB     r0,[r1,#0]
        0x0001bbe4:    7808        .x      LDRB     r0,[r1,#0]
        0x0001bbe6:    f00000fd    ....    AND      r0,r0,#0xfd
        0x0001bbea:    7008        .p      STRB     r0,[r1,#0]
        0x0001bbec:    2000        .       MOVS     r0,#0
        0x0001bbee:    7048        Hp      STRB     r0,[r1,#1]
        0x0001bbf0:    7808        .x      LDRB     r0,[r1,#0]
        0x0001bbf2:    f00000fb    ....    AND      r0,r0,#0xfb
        0x0001bbf6:    7008        .p      STRB     r0,[r1,#0]
        0x0001bbf8:    f24010e4    @...    MOVW     r0,#0x1e4
        0x0001bbfc:    f2c10000    ....    MOVT     r0,#0x1000
        0x0001bc00:    6800        .h      LDR      r0,[r0,#0]
        0x0001bc02:    9905        ..      LDR      r1,[sp,#0x14]
        0x0001bc04:    f89d2013    ...     LDRB     r2,[sp,#0x13]
        0x0001bc08:    f0020201    ....    AND      r2,r2,#1
        0x0001bc0c:    f001fac0    ....    BL       osal_queue_send ; 0x1d190
        0x0001bc10:    e071        q.      B        0x1bcf6 ; dcd_event_handler + 326
        0x0001bc12:    f24010b0    @...    MOVW     r0,#0x1b0
        0x0001bc16:    f2c10000    ....    MOVT     r0,#0x1000
        0x0001bc1a:    7800        .x      LDRB     r0,[r0,#0]
        0x0001bc1c:    07c0        ..      LSLS     r0,r0,#31
        0x0001bc1e:    b1a8        ..      CBZ      r0,0x1bc4c ; dcd_event_handler + 156
        0x0001bc20:    e7ff        ..      B        0x1bc22 ; dcd_event_handler + 114
        0x0001bc22:    f24011b0    @...    MOVW     r1,#0x1b0
        0x0001bc26:    f2c10100    ....    MOVT     r1,#0x1000
        0x0001bc2a:    7808        .x      LDRB     r0,[r1,#0]
        0x0001bc2c:    f0400004    @...    ORR      r0,r0,#4
        0x0001bc30:    7008        .p      STRB     r0,[r1,#0]
        0x0001bc32:    f24010e4    @...    MOVW     r0,#0x1e4
        0x0001bc36:    f2c10000    ....    MOVT     r0,#0x1000
        0x0001bc3a:    6800        .h      LDR      r0,[r0,#0]
        0x0001bc3c:    9905        ..      LDR      r1,[sp,#0x14]
        0x0001bc3e:    f89d2013    ...     LDRB     r2,[sp,#0x13]
        0x0001bc42:    f0020201    ....    AND      r2,r2,#1
        0x0001bc46:    f001faa3    ....    BL       osal_queue_send ; 0x1d190
        0x0001bc4a:    e7ff        ..      B        0x1bc4c ; dcd_event_handler + 156
        0x0001bc4c:    e053        S.      B        0x1bcf6 ; dcd_event_handler + 326
        0x0001bc4e:    f24010b0    @...    MOVW     r0,#0x1b0
        0x0001bc52:    f2c10000    ....    MOVT     r0,#0x1000
        0x0001bc56:    7800        .x      LDRB     r0,[r0,#0]
        0x0001bc58:    07c0        ..      LSLS     r0,r0,#31
        0x0001bc5a:    b1a8        ..      CBZ      r0,0x1bc88 ; dcd_event_handler + 216
        0x0001bc5c:    e7ff        ..      B        0x1bc5e ; dcd_event_handler + 174
        0x0001bc5e:    f24011b0    @...    MOVW     r1,#0x1b0
        0x0001bc62:    f2c10100    ....    MOVT     r1,#0x1000
        0x0001bc66:    7808        .x      LDRB     r0,[r1,#0]
        0x0001bc68:    f00000fb    ....    AND      r0,r0,#0xfb
        0x0001bc6c:    7008        .p      STRB     r0,[r1,#0]
        0x0001bc6e:    f24010e4    @...    MOVW     r0,#0x1e4
        0x0001bc72:    f2c10000    ....    MOVT     r0,#0x1000
        0x0001bc76:    6800        .h      LDR      r0,[r0,#0]
        0x0001bc78:    9905        ..      LDR      r1,[sp,#0x14]
        0x0001bc7a:    f89d2013    ...     LDRB     r2,[sp,#0x13]
        0x0001bc7e:    f0020201    ....    AND      r2,r2,#1
        0x0001bc82:    f001fa85    ....    BL       osal_queue_send ; 0x1d190
        0x0001bc86:    e7ff        ..      B        0x1bc88 ; dcd_event_handler + 216
        0x0001bc88:    e035        5.      B        0x1bcf6 ; dcd_event_handler + 326
        0x0001bc8a:    f24010b0    @...    MOVW     r0,#0x1b0
        0x0001bc8e:    f2c10000    ....    MOVT     r0,#0x1000
        0x0001bc92:    7800        .x      LDRB     r0,[r0,#0]
        0x0001bc94:    0880        ..      LSRS     r0,r0,#2
        0x0001bc96:    07c0        ..      LSLS     r0,r0,#31
        0x0001bc98:    b1f8        ..      CBZ      r0,0x1bcda ; dcd_event_handler + 298
        0x0001bc9a:    e7ff        ..      B        0x1bc9c ; dcd_event_handler + 236
        0x0001bc9c:    f24011b0    @...    MOVW     r1,#0x1b0
        0x0001bca0:    f2c10100    ....    MOVT     r1,#0x1000
        0x0001bca4:    7808        .x      LDRB     r0,[r1,#0]
        0x0001bca6:    f00000fb    ....    AND      r0,r0,#0xfb
        0x0001bcaa:    7008        .p      STRB     r0,[r1,#0]
        0x0001bcac:    9805        ..      LDR      r0,[sp,#0x14]
        0x0001bcae:    7800        .x      LDRB     r0,[r0,#0]
        0x0001bcb0:    f88d0004    ....    STRB     r0,[sp,#4]
        0x0001bcb4:    2005        .       MOVS     r0,#5
        0x0001bcb6:    f88d0005    ....    STRB     r0,[sp,#5]
        0x0001bcba:    2000        .       MOVS     r0,#0
        0x0001bcbc:    9003        ..      STR      r0,[sp,#0xc]
        0x0001bcbe:    9002        ..      STR      r0,[sp,#8]
        0x0001bcc0:    f24010e4    @...    MOVW     r0,#0x1e4
        0x0001bcc4:    f2c10000    ....    MOVT     r0,#0x1000
        0x0001bcc8:    6800        .h      LDR      r0,[r0,#0]
        0x0001bcca:    f89d1013    ....    LDRB     r1,[sp,#0x13]
        0x0001bcce:    f0010201    ....    AND      r2,r1,#1
        0x0001bcd2:    a901        ..      ADD      r1,sp,#4
        0x0001bcd4:    f001fa5c    ..\.    BL       osal_queue_send ; 0x1d190
        0x0001bcd8:    e7ff        ..      B        0x1bcda ; dcd_event_handler + 298
        0x0001bcda:    e00c        ..      B        0x1bcf6 ; dcd_event_handler + 326
        0x0001bcdc:    f24010e4    @...    MOVW     r0,#0x1e4
        0x0001bce0:    f2c10000    ....    MOVT     r0,#0x1000
        0x0001bce4:    6800        .h      LDR      r0,[r0,#0]
        0x0001bce6:    9905        ..      LDR      r1,[sp,#0x14]
        0x0001bce8:    f89d2013    ...     LDRB     r2,[sp,#0x13]
        0x0001bcec:    f0020201    ....    AND      r2,r2,#1
        0x0001bcf0:    f001fa4e    ..N.    BL       osal_queue_send ; 0x1d190
        0x0001bcf4:    e7ff        ..      B        0x1bcf6 ; dcd_event_handler + 326
        0x0001bcf6:    b006        ..      ADD      sp,sp,#0x18
        0x0001bcf8:    bd80        ..      POP      {r7,pc}
        0x0001bcfa:    0000        ..      MOVS     r0,r0
    dcd_event_setup_received
        0x0001bcfc:    b580        ..      PUSH     {r7,lr}
        0x0001bcfe:    b086        ..      SUB      sp,sp,#0x18
        0x0001bd00:    f88d0017    ....    STRB     r0,[sp,#0x17]
        0x0001bd04:    9104        ..      STR      r1,[sp,#0x10]
        0x0001bd06:    f88d200f    ...     STRB     r2,[sp,#0xf]
        0x0001bd0a:    f89d0017    ....    LDRB     r0,[sp,#0x17]
        0x0001bd0e:    f88d0000    ....    STRB     r0,[sp,#0]
        0x0001bd12:    2006        .       MOVS     r0,#6
        0x0001bd14:    f88d0001    ....    STRB     r0,[sp,#1]
        0x0001bd18:    2000        .       MOVS     r0,#0
        0x0001bd1a:    9002        ..      STR      r0,[sp,#8]
        0x0001bd1c:    9001        ..      STR      r0,[sp,#4]
        0x0001bd1e:    9904        ..      LDR      r1,[sp,#0x10]
        0x0001bd20:    6808        .h      LDR      r0,[r1,#0]
        0x0001bd22:    6849        Ih      LDR      r1,[r1,#4]
        0x0001bd24:    9102        ..      STR      r1,[sp,#8]
        0x0001bd26:    9001        ..      STR      r0,[sp,#4]
        0x0001bd28:    f89d000f    ....    LDRB     r0,[sp,#0xf]
        0x0001bd2c:    f0000101    ....    AND      r1,r0,#1
        0x0001bd30:    4668        hF      MOV      r0,sp
        0x0001bd32:    f7ffff3d    ..=.    BL       dcd_event_handler ; 0x1bbb0
        0x0001bd36:    b006        ..      ADD      sp,sp,#0x18
        0x0001bd38:    bd80        ..      POP      {r7,pc}
        0x0001bd3a:    0000        ..      MOVS     r0,r0
    dcd_event_xfer_complete
        0x0001bd3c:    b580        ..      PUSH     {r7,lr}
        0x0001bd3e:    b086        ..      SUB      sp,sp,#0x18
        0x0001bd40:    4684        .F      MOV      r12,r0
        0x0001bd42:    9808        ..      LDR      r0,[sp,#0x20]
        0x0001bd44:    f88dc017    ....    STRB     r12,[sp,#0x17]
        0x0001bd48:    f88d1016    ....    STRB     r1,[sp,#0x16]
        0x0001bd4c:    9204        ..      STR      r2,[sp,#0x10]
        0x0001bd4e:    f88d300f    ...0    STRB     r3,[sp,#0xf]
        0x0001bd52:    f88d000e    ....    STRB     r0,[sp,#0xe]
        0x0001bd56:    f89d0017    ....    LDRB     r0,[sp,#0x17]
        0x0001bd5a:    f88d0000    ....    STRB     r0,[sp,#0]
        0x0001bd5e:    2007        .       MOVS     r0,#7
        0x0001bd60:    f88d0001    ....    STRB     r0,[sp,#1]
        0x0001bd64:    2000        .       MOVS     r0,#0
        0x0001bd66:    9002        ..      STR      r0,[sp,#8]
        0x0001bd68:    9001        ..      STR      r0,[sp,#4]
        0x0001bd6a:    f89d0016    ....    LDRB     r0,[sp,#0x16]
        0x0001bd6e:    f88d0004    ....    STRB     r0,[sp,#4]
        0x0001bd72:    9804        ..      LDR      r0,[sp,#0x10]
        0x0001bd74:    9002        ..      STR      r0,[sp,#8]
        0x0001bd76:    f89d000f    ....    LDRB     r0,[sp,#0xf]
        0x0001bd7a:    f88d0005    ....    STRB     r0,[sp,#5]
        0x0001bd7e:    f89d000e    ....    LDRB     r0,[sp,#0xe]
        0x0001bd82:    f0000101    ....    AND      r1,r0,#1
        0x0001bd86:    4668        hF      MOV      r0,sp
        0x0001bd88:    f7ffff12    ....    BL       dcd_event_handler ; 0x1bbb0
        0x0001bd8c:    b006        ..      ADD      sp,sp,#0x18
        0x0001bd8e:    bd80        ..      POP      {r7,pc}
    dcd_init
        0x0001bd90:    b580        ..      PUSH     {r7,lr}
        0x0001bd92:    b088        ..      SUB      sp,sp,#0x20
        0x0001bd94:    f88d001f    ....    STRB     r0,[sp,#0x1f]
        0x0001bd98:    f64021c0    @..!    MOVW     r1,#0xac0
        0x0001bd9c:    f2c10100    ....    MOVT     r1,#0x1000
        0x0001bda0:    2000        .       MOVS     r0,#0
        0x0001bda2:    f7fefb81    ....    BL       am_hal_usb_initialize ; 0x1a4a8
        0x0001bda6:    9006        ..      STR      r0,[sp,#0x18]
        0x0001bda8:    9806        ..      LDR      r0,[sp,#0x18]
        0x0001bdaa:    b108        ..      CBZ      r0,0x1bdb0 ; dcd_init + 32
        0x0001bdac:    e7ff        ..      B        0x1bdae ; dcd_init + 30
        0x0001bdae:    e052        R.      B        0x1be56 ; dcd_init + 198
        0x0001bdb0:    f64020c0    @..     MOVW     r0,#0xac0
        0x0001bdb4:    f2c10000    ....    MOVT     r0,#0x1000
        0x0001bdb8:    9002        ..      STR      r0,[sp,#8]
        0x0001bdba:    6800        .h      LDR      r0,[r0,#0]
        0x0001bdbc:    f64b61d9    K..a    MOV      r1,#0xbed9
        0x0001bdc0:    f2c00101    ....    MOVT     r1,#1
        0x0001bdc4:    f7fff830    ..0.    BL       am_hal_usb_register_dev_evt_callback ; 0x1ae28
        0x0001bdc8:    9802        ..      LDR      r0,[sp,#8]
        0x0001bdca:    6800        .h      LDR      r0,[r0,#0]
        0x0001bdcc:    f64b717d    K.}q    MOV      r1,#0xbf7d
        0x0001bdd0:    f2c00101    ....    MOVT     r1,#1
        0x0001bdd4:    f7fff83b    ..;.    BL       am_hal_usb_register_ep0_setup_received_callback ; 0x1ae4e
        0x0001bdd8:    9802        ..      LDR      r0,[sp,#8]
        0x0001bdda:    6800        .h      LDR      r0,[r0,#0]
        0x0001bddc:    f64b7191    K..q    MOV      r1,#0xbf91
        0x0001bde0:    f2c00101    ....    MOVT     r1,#1
        0x0001bde4:    f7fff846    ..F.    BL       am_hal_usb_register_ep_xfer_complete_callback ; 0x1ae74
        0x0001bde8:    9802        ..      LDR      r0,[sp,#8]
        0x0001bdea:    6800        .h      LDR      r0,[r0,#0]
        0x0001bdec:    2200        ."      MOVS     r2,#0
        0x0001bdee:    4611        .F      MOV      r1,r2
        0x0001bdf0:    f7feff56    ..V.    BL       am_hal_usb_power_control ; 0x1aca0
        0x0001bdf4:    f7fef83e    ..>.    BL       am_hal_usb_enable_phy_reset_override ; 0x19e74
        0x0001bdf8:    2001        .       MOVS     r0,#1
        0x0001bdfa:    9003        ..      STR      r0,[sp,#0xc]
        0x0001bdfc:    f7fcfe5d    ..].    BL       am_bsp_external_vddusb33_switch ; 0x18aba
        0x0001be00:    9803        ..      LDR      r0,[sp,#0xc]
        0x0001be02:    f7fcfe4a    ..J.    BL       am_bsp_external_vddusb0p9_switch ; 0x18a9a
        0x0001be06:    2032        2       MOVS     r0,#0x32
        0x0001be08:    f7fff916    ....    BL       am_util_delay_ms ; 0x1b038
        0x0001be0c:    f7fefb44    ..D.    BL       am_hal_usb_hardware_unreset ; 0x1a498
        0x0001be10:    f000f900    ....    BL       dcd_usb_setHFCR2 ; 0x1c014
        0x0001be14:    9005        ..      STR      r0,[sp,#0x14]
        0x0001be16:    f7fef823    ..#.    BL       am_hal_usb_disable_phy_reset_override ; 0x19e60
        0x0001be1a:    9803        ..      LDR      r0,[sp,#0xc]
        0x0001be1c:    f88d0013    ....    STRB     r0,[sp,#0x13]
        0x0001be20:    9805        ..      LDR      r0,[sp,#0x14]
        0x0001be22:    b950        P.      CBNZ     r0,0x1be3a ; dcd_init + 170
        0x0001be24:    e7ff        ..      B        0x1be26 ; dcd_init + 150
        0x0001be26:    f64020c0    @..     MOVW     r0,#0xac0
        0x0001be2a:    f2c10000    ....    MOVT     r0,#0x1000
        0x0001be2e:    6800        .h      LDR      r0,[r0,#0]
        0x0001be30:    f89d1013    ....    LDRB     r1,[sp,#0x13]
        0x0001be34:    f7fff894    ....    BL       am_hal_usb_set_dev_speed ; 0x1af60
        0x0001be38:    e7ff        ..      B        0x1be3a ; dcd_init + 170
        0x0001be3a:    f64020c0    @..     MOVW     r0,#0xac0
        0x0001be3e:    f2c10000    ....    MOVT     r0,#0x1000
        0x0001be42:    9001        ..      STR      r0,[sp,#4]
        0x0001be44:    6800        .h      LDR      r0,[r0,#0]
        0x0001be46:    2104        .!      MOVS     r1,#4
        0x0001be48:    f7feff11    ....    BL       am_hal_usb_intr_usb_enable ; 0x1ac6e
        0x0001be4c:    9801        ..      LDR      r0,[sp,#4]
        0x0001be4e:    6800        .h      LDR      r0,[r0,#0]
        0x0001be50:    f7fdffe0    ....    BL       am_hal_usb_attach ; 0x19e14
        0x0001be54:    e7ff        ..      B        0x1be56 ; dcd_init + 198
        0x0001be56:    b008        ..      ADD      sp,sp,#0x20
        0x0001be58:    bd80        ..      POP      {r7,pc}
        0x0001be5a:    0000        ..      MOVS     r0,r0
    dcd_int_disable
        0x0001be5c:    b580        ..      PUSH     {r7,lr}
        0x0001be5e:    b082        ..      SUB      sp,sp,#8
        0x0001be60:    f88d0007    ....    STRB     r0,[sp,#7]
        0x0001be64:    201b        .       MOVS     r0,#0x1b
        0x0001be66:    f7fcfbdd    ....    BL       __NVIC_DisableIRQ ; 0x18624
        0x0001be6a:    b002        ..      ADD      sp,sp,#8
        0x0001be6c:    bd80        ..      POP      {r7,pc}
        0x0001be6e:    0000        ..      MOVS     r0,r0
    dcd_int_enable
        0x0001be70:    b580        ..      PUSH     {r7,lr}
        0x0001be72:    b082        ..      SUB      sp,sp,#8
        0x0001be74:    f88d0007    ....    STRB     r0,[sp,#7]
        0x0001be78:    201b        .       MOVS     r0,#0x1b
        0x0001be7a:    9000        ..      STR      r0,[sp,#0]
        0x0001be7c:    2104        .!      MOVS     r1,#4
        0x0001be7e:    f7fcfc05    ....    BL       __NVIC_SetPriority ; 0x1868c
        0x0001be82:    9800        ..      LDR      r0,[sp,#0]
        0x0001be84:    f7fcfbea    ....    BL       __NVIC_EnableIRQ ; 0x1865c
        0x0001be88:    b002        ..      ADD      sp,sp,#8
        0x0001be8a:    bd80        ..      POP      {r7,pc}
    dcd_set_address
        0x0001be8c:    b580        ..      PUSH     {r7,lr}
        0x0001be8e:    b086        ..      SUB      sp,sp,#0x18
        0x0001be90:    f88d0017    ....    STRB     r0,[sp,#0x17]
        0x0001be94:    f88d1016    ....    STRB     r1,[sp,#0x16]
        0x0001be98:    f89d0017    ....    LDRB     r0,[sp,#0x17]
        0x0001be9c:    9002        ..      STR      r0,[sp,#8]
        0x0001be9e:    2000        .       MOVS     r0,#0
        0x0001bea0:    9001        ..      STR      r0,[sp,#4]
        0x0001bea2:    2101        .!      MOVS     r1,#1
        0x0001bea4:    9103        ..      STR      r1,[sp,#0xc]
        0x0001bea6:    f002f869    ..i.    BL       tu_edpt_addr ; 0x1df7c
        0x0001beaa:    9b01        ..      LDR      r3,[sp,#4]
        0x0001beac:    4601        .F      MOV      r1,r0
        0x0001beae:    9802        ..      LDR      r0,[sp,#8]
        0x0001beb0:    461a        .F      MOV      r2,r3
        0x0001beb2:    f7fffe27    ..'.    BL       dcd_edpt_xfer ; 0x1bb04
        0x0001beb6:    f64020c0    @..     MOVW     r0,#0xac0
        0x0001beba:    f2c10000    ....    MOVT     r0,#0x1000
        0x0001bebe:    9004        ..      STR      r0,[sp,#0x10]
        0x0001bec0:    6800        .h      LDR      r0,[r0,#0]
        0x0001bec2:    f89d1016    ....    LDRB     r1,[sp,#0x16]
        0x0001bec6:    f7fff833    ..3.    BL       am_hal_usb_set_addr ; 0x1af30
        0x0001beca:    9903        ..      LDR      r1,[sp,#0xc]
        0x0001becc:    9804        ..      LDR      r0,[sp,#0x10]
        0x0001bece:    6800        .h      LDR      r0,[r0,#0]
        0x0001bed0:    f7fff87f    ....    BL       am_hal_usb_set_dev_state ; 0x1afd2
        0x0001bed4:    b006        ..      ADD      sp,sp,#0x18
        0x0001bed6:    bd80        ..      POP      {r7,pc}
    dcd_usb_dev_evt_callback
        0x0001bed8:    b580        ..      PUSH     {r7,lr}
        0x0001beda:    b086        ..      SUB      sp,sp,#0x18
        0x0001bedc:    f88d0017    ....    STRB     r0,[sp,#0x17]
        0x0001bee0:    f89d0017    ....    LDRB     r0,[sp,#0x17]
        0x0001bee4:    4601        .F      MOV      r1,r0
        0x0001bee6:    9104        ..      STR      r1,[sp,#0x10]
        0x0001bee8:    2803        .(      CMP      r0,#3
        0x0001beea:    d844        D.      BHI      0x1bf76 ; dcd_usb_dev_evt_callback + 158
        0x0001beec:    9904        ..      LDR      r1,[sp,#0x10]
        0x0001beee:    e8dff001    ....    TBB      [pc,r1]
    $d.2
        0x0001bef2:    2e02        ..      DCW    11778
        0x0001bef4:    3420         4      DCW    13344
    $t.3
        0x0001bef6:    f64020c0    @..     MOVW     r0,#0xac0
        0x0001befa:    f2c10000    ....    MOVT     r0,#0x1000
        0x0001befe:    9001        ..      STR      r0,[sp,#4]
        0x0001bf00:    6800        .h      LDR      r0,[r0,#0]
        0x0001bf02:    f04f6170    O.pa    MOV      r1,#0xf000000
        0x0001bf06:    f7fefeb2    ....    BL       am_hal_usb_intr_usb_enable ; 0x1ac6e
        0x0001bf0a:    9801        ..      LDR      r0,[sp,#4]
        0x0001bf0c:    6800        .h      LDR      r0,[r0,#0]
        0x0001bf0e:    2200        ."      MOVS     r2,#0
        0x0001bf10:    9202        ..      STR      r2,[sp,#8]
        0x0001bf12:    2340        @#      MOVS     r3,#0x40
        0x0001bf14:    4611        .F      MOV      r1,r2
        0x0001bf16:    f7fef825    ..%.    BL       am_hal_usb_ep_init ; 0x19f64
        0x0001bf1a:    9801        ..      LDR      r0,[sp,#4]
        0x0001bf1c:    6800        .h      LDR      r0,[r0,#0]
        0x0001bf1e:    2101        .!      MOVS     r1,#1
        0x0001bf20:    9103        ..      STR      r1,[sp,#0xc]
        0x0001bf22:    f7fff81d    ....    BL       am_hal_usb_set_dev_speed ; 0x1af60
        0x0001bf26:    9902        ..      LDR      r1,[sp,#8]
        0x0001bf28:    9a03        ..      LDR      r2,[sp,#0xc]
        0x0001bf2a:    4608        .F      MOV      r0,r1
        0x0001bf2c:    f7fffe04    ....    BL       dcd_event_bus_reset ; 0x1bb38
        0x0001bf30:    e022        ".      B        0x1bf78 ; dcd_usb_dev_evt_callback + 160
        0x0001bf32:    2000        .       MOVS     r0,#0
        0x0001bf34:    2105        .!      MOVS     r1,#5
        0x0001bf36:    2201        ."      MOVS     r2,#1
        0x0001bf38:    f7fffe1e    ....    BL       dcd_event_bus_signal ; 0x1bb78
        0x0001bf3c:    f64020c0    @..     MOVW     r0,#0xac0
        0x0001bf40:    f2c10000    ....    MOVT     r0,#0x1000
        0x0001bf44:    6800        .h      LDR      r0,[r0,#0]
        0x0001bf46:    2104        .!      MOVS     r1,#4
        0x0001bf48:    f7fff843    ..C.    BL       am_hal_usb_set_dev_state ; 0x1afd2
        0x0001bf4c:    e014        ..      B        0x1bf78 ; dcd_usb_dev_evt_callback + 160
        0x0001bf4e:    2000        .       MOVS     r0,#0
        0x0001bf50:    2103        .!      MOVS     r1,#3
        0x0001bf52:    2201        ."      MOVS     r2,#1
        0x0001bf54:    f7fffe10    ....    BL       dcd_event_bus_signal ; 0x1bb78
        0x0001bf58:    e00e        ..      B        0x1bf78 ; dcd_usb_dev_evt_callback + 160
        0x0001bf5a:    2000        .       MOVS     r0,#0
        0x0001bf5c:    2104        .!      MOVS     r1,#4
        0x0001bf5e:    2201        ."      MOVS     r2,#1
        0x0001bf60:    f7fffe0a    ....    BL       dcd_event_bus_signal ; 0x1bb78
        0x0001bf64:    f64020c0    @..     MOVW     r0,#0xac0
        0x0001bf68:    f2c10000    ....    MOVT     r0,#0x1000
        0x0001bf6c:    6800        .h      LDR      r0,[r0,#0]
        0x0001bf6e:    2106        .!      MOVS     r1,#6
        0x0001bf70:    f7fff82f    ../.    BL       am_hal_usb_set_dev_state ; 0x1afd2
        0x0001bf74:    e000        ..      B        0x1bf78 ; dcd_usb_dev_evt_callback + 160
        0x0001bf76:    e7ff        ..      B        0x1bf78 ; dcd_usb_dev_evt_callback + 160
        0x0001bf78:    b006        ..      ADD      sp,sp,#0x18
        0x0001bf7a:    bd80        ..      POP      {r7,pc}
    dcd_usb_ep0_setup_callback
        0x0001bf7c:    b580        ..      PUSH     {r7,lr}
        0x0001bf7e:    b082        ..      SUB      sp,sp,#8
        0x0001bf80:    9001        ..      STR      r0,[sp,#4]
        0x0001bf82:    9901        ..      LDR      r1,[sp,#4]
        0x0001bf84:    2000        .       MOVS     r0,#0
        0x0001bf86:    2201        ."      MOVS     r2,#1
        0x0001bf88:    f7fffeb8    ....    BL       dcd_event_setup_received ; 0x1bcfc
        0x0001bf8c:    b002        ..      ADD      sp,sp,#8
        0x0001bf8e:    bd80        ..      POP      {r7,pc}
    dcd_usb_ep_xfer_complete_callback
        0x0001bf90:    b580        ..      PUSH     {r7,lr}
        0x0001bf92:    b086        ..      SUB      sp,sp,#0x18
        0x0001bf94:    f88d0017    ....    STRB     r0,[sp,#0x17]
        0x0001bf98:    f8ad1014    ....    STRH     r1,[sp,#0x14]
        0x0001bf9c:    f88d2013    ...     STRB     r2,[sp,#0x13]
        0x0001bfa0:    9303        ..      STR      r3,[sp,#0xc]
        0x0001bfa2:    f89d0013    ....    LDRB     r0,[sp,#0x13]
        0x0001bfa6:    4601        .F      MOV      r1,r0
        0x0001bfa8:    9102        ..      STR      r1,[sp,#8]
        0x0001bfaa:    2806        .(      CMP      r0,#6
        0x0001bfac:    d820         .      BHI      0x1bff0 ; dcd_usb_ep_xfer_complete_callback + 96
        0x0001bfae:    9902        ..      LDR      r1,[sp,#8]
        0x0001bfb0:    e8dff001    ....    TBB      [pc,r1]
    $d.6
        0x0001bfb4:    1d101d04    ....    DCD    487595268
        0x0001bfb8:    001d1d1c    ....    DCD    1907996
    $t.7
        0x0001bfbc:    f89d1017    ....    LDRB     r1,[sp,#0x17]
        0x0001bfc0:    f8bd2014    ...     LDRH     r2,[sp,#0x14]
        0x0001bfc4:    466b        kF      MOV      r3,sp
        0x0001bfc6:    2001        .       MOVS     r0,#1
        0x0001bfc8:    6018        .`      STR      r0,[r3,#0]
        0x0001bfca:    2300        .#      MOVS     r3,#0
        0x0001bfcc:    4618        .F      MOV      r0,r3
        0x0001bfce:    f7fffeb5    ....    BL       dcd_event_xfer_complete ; 0x1bd3c
        0x0001bfd2:    e01d        ..      B        0x1c010 ; dcd_usb_ep_xfer_complete_callback + 128
        0x0001bfd4:    f89d1017    ....    LDRB     r1,[sp,#0x17]
        0x0001bfd8:    f8bd2014    ...     LDRH     r2,[sp,#0x14]
        0x0001bfdc:    466b        kF      MOV      r3,sp
        0x0001bfde:    2001        .       MOVS     r0,#1
        0x0001bfe0:    6018        .`      STR      r0,[r3,#0]
        0x0001bfe2:    2000        .       MOVS     r0,#0
        0x0001bfe4:    2302        .#      MOVS     r3,#2
        0x0001bfe6:    f7fffea9    ....    BL       dcd_event_xfer_complete ; 0x1bd3c
        0x0001bfea:    e011        ..      B        0x1c010 ; dcd_usb_ep_xfer_complete_callback + 128
        0x0001bfec:    e010        ..      B        0x1c010 ; dcd_usb_ep_xfer_complete_callback + 128
        0x0001bfee:    e7ff        ..      B        0x1bff0 ; dcd_usb_ep_xfer_complete_callback + 96
        0x0001bff0:    f8bd0014    ....    LDRH     r0,[sp,#0x14]
        0x0001bff4:    b158        X.      CBZ      r0,0x1c00e ; dcd_usb_ep_xfer_complete_callback + 126
        0x0001bff6:    e7ff        ..      B        0x1bff8 ; dcd_usb_ep_xfer_complete_callback + 104
        0x0001bff8:    f89d1017    ....    LDRB     r1,[sp,#0x17]
        0x0001bffc:    f8bd2014    ...     LDRH     r2,[sp,#0x14]
        0x0001c000:    4668        hF      MOV      r0,sp
        0x0001c002:    2301        .#      MOVS     r3,#1
        0x0001c004:    6003        .`      STR      r3,[r0,#0]
        0x0001c006:    2000        .       MOVS     r0,#0
        0x0001c008:    f7fffe98    ....    BL       dcd_event_xfer_complete ; 0x1bd3c
        0x0001c00c:    e7ff        ..      B        0x1c00e ; dcd_usb_ep_xfer_complete_callback + 126
        0x0001c00e:    e7ff        ..      B        0x1c010 ; dcd_usb_ep_xfer_complete_callback + 128
        0x0001c010:    b006        ..      ADD      sp,sp,#0x18
        0x0001c012:    bd80        ..      POP      {r7,pc}
    dcd_usb_setHFCR2
        0x0001c014:    b580        ..      PUSH     {r7,lr}
        0x0001c016:    b082        ..      SUB      sp,sp,#8
        0x0001c018:    2000        .       MOVS     r0,#0
        0x0001c01a:    9001        ..      STR      r0,[sp,#4]
        0x0001c01c:    2001        .       MOVS     r0,#1
        0x0001c01e:    a901        ..      ADD      r1,sp,#4
        0x0001c020:    f7fdff0d    ....    BL       am_hal_usb_control ; 0x19e3e
        0x0001c024:    b002        ..      ADD      sp,sp,#8
        0x0001c026:    bd80        ..      POP      {r7,pc}
    decstr_to_int
        0x0001c028:    b087        ..      SUB      sp,sp,#0x1c
        0x0001c02a:    9006        ..      STR      r0,[sp,#0x18]
        0x0001c02c:    9105        ..      STR      r1,[sp,#0x14]
        0x0001c02e:    2000        .       MOVS     r0,#0
        0x0001c030:    f88d0013    ....    STRB     r0,[sp,#0x13]
        0x0001c034:    9003        ..      STR      r0,[sp,#0xc]
        0x0001c036:    9002        ..      STR      r0,[sp,#8]
        0x0001c038:    9806        ..      LDR      r0,[sp,#0x18]
        0x0001c03a:    7800        .x      LDRB     r0,[r0,#0]
        0x0001c03c:    282d        -(      CMP      r0,#0x2d
        0x0001c03e:    d10a        ..      BNE      0x1c056 ; decstr_to_int + 46
        0x0001c040:    e7ff        ..      B        0x1c042 ; decstr_to_int + 26
        0x0001c042:    2001        .       MOVS     r0,#1
        0x0001c044:    f88d0013    ....    STRB     r0,[sp,#0x13]
        0x0001c048:    9806        ..      LDR      r0,[sp,#0x18]
        0x0001c04a:    3001        .0      ADDS     r0,#1
        0x0001c04c:    9006        ..      STR      r0,[sp,#0x18]
        0x0001c04e:    9802        ..      LDR      r0,[sp,#8]
        0x0001c050:    3001        .0      ADDS     r0,#1
        0x0001c052:    9002        ..      STR      r0,[sp,#8]
        0x0001c054:    e7ff        ..      B        0x1c056 ; decstr_to_int + 46
        0x0001c056:    e7ff        ..      B        0x1c058 ; decstr_to_int + 48
        0x0001c058:    9806        ..      LDR      r0,[sp,#0x18]
        0x0001c05a:    7801        .x      LDRB     r1,[r0,#0]
        0x0001c05c:    2000        .       MOVS     r0,#0
        0x0001c05e:    2930        0)      CMP      r1,#0x30
        0x0001c060:    9001        ..      STR      r0,[sp,#4]
        0x0001c062:    db08        ..      BLT      0x1c076 ; decstr_to_int + 78
        0x0001c064:    e7ff        ..      B        0x1c066 ; decstr_to_int + 62
        0x0001c066:    9806        ..      LDR      r0,[sp,#0x18]
        0x0001c068:    7801        .x      LDRB     r1,[r0,#0]
        0x0001c06a:    2000        .       MOVS     r0,#0
        0x0001c06c:    293a        :)      CMP      r1,#0x3a
        0x0001c06e:    bfb8        ..      IT       LT
        0x0001c070:    2001        .       MOVLT    r0,#1
        0x0001c072:    9001        ..      STR      r0,[sp,#4]
        0x0001c074:    e7ff        ..      B        0x1c076 ; decstr_to_int + 78
        0x0001c076:    9801        ..      LDR      r0,[sp,#4]
        0x0001c078:    07c0        ..      LSLS     r0,r0,#31
        0x0001c07a:    b190        ..      CBZ      r0,0x1c0a2 ; decstr_to_int + 122
        0x0001c07c:    e7ff        ..      B        0x1c07e ; decstr_to_int + 86
        0x0001c07e:    9802        ..      LDR      r0,[sp,#8]
        0x0001c080:    3001        .0      ADDS     r0,#1
        0x0001c082:    9002        ..      STR      r0,[sp,#8]
        0x0001c084:    9803        ..      LDR      r0,[sp,#0xc]
        0x0001c086:    eb000080    ....    ADD      r0,r0,r0,LSL #2
        0x0001c08a:    0040        @.      LSLS     r0,r0,#1
        0x0001c08c:    9003        ..      STR      r0,[sp,#0xc]
        0x0001c08e:    9806        ..      LDR      r0,[sp,#0x18]
        0x0001c090:    7800        .x      LDRB     r0,[r0,#0]
        0x0001c092:    9903        ..      LDR      r1,[sp,#0xc]
        0x0001c094:    4408        .D      ADD      r0,r0,r1
        0x0001c096:    3830        08      SUBS     r0,r0,#0x30
        0x0001c098:    9003        ..      STR      r0,[sp,#0xc]
        0x0001c09a:    9806        ..      LDR      r0,[sp,#0x18]
        0x0001c09c:    3001        .0      ADDS     r0,#1
        0x0001c09e:    9006        ..      STR      r0,[sp,#0x18]
        0x0001c0a0:    e7da        ..      B        0x1c058 ; decstr_to_int + 48
        0x0001c0a2:    9805        ..      LDR      r0,[sp,#0x14]
        0x0001c0a4:    b120         .      CBZ      r0,0x1c0b0 ; decstr_to_int + 136
        0x0001c0a6:    e7ff        ..      B        0x1c0a8 ; decstr_to_int + 128
        0x0001c0a8:    9802        ..      LDR      r0,[sp,#8]
        0x0001c0aa:    9905        ..      LDR      r1,[sp,#0x14]
        0x0001c0ac:    6008        .`      STR      r0,[r1,#0]
        0x0001c0ae:    e7ff        ..      B        0x1c0b0 ; decstr_to_int + 136
        0x0001c0b0:    f89d0013    ....    LDRB     r0,[sp,#0x13]
        0x0001c0b4:    07c0        ..      LSLS     r0,r0,#31
        0x0001c0b6:    b120         .      CBZ      r0,0x1c0c2 ; decstr_to_int + 154
        0x0001c0b8:    e7ff        ..      B        0x1c0ba ; decstr_to_int + 146
        0x0001c0ba:    9803        ..      LDR      r0,[sp,#0xc]
        0x0001c0bc:    4240        @B      RSBS     r0,r0,#0
        0x0001c0be:    9000        ..      STR      r0,[sp,#0]
        0x0001c0c0:    e002        ..      B        0x1c0c8 ; decstr_to_int + 160
        0x0001c0c2:    9803        ..      LDR      r0,[sp,#0xc]
        0x0001c0c4:    9000        ..      STR      r0,[sp,#0]
        0x0001c0c6:    e7ff        ..      B        0x1c0c8 ; decstr_to_int + 160
        0x0001c0c8:    9800        ..      LDR      r0,[sp,#0]
        0x0001c0ca:    b007        ..      ADD      sp,sp,#0x1c
        0x0001c0cc:    4770        pG      BX       lr
        0x0001c0ce:    0000        ..      MOVS     r0,r0
    divu64_10
        0x0001c0d0:    b08c        ..      SUB      sp,sp,#0x30
        0x0001c0d2:    9109        ..      STR      r1,[sp,#0x24]
        0x0001c0d4:    9008        ..      STR      r0,[sp,#0x20]
        0x0001c0d6:    9809        ..      LDR      r0,[sp,#0x24]
        0x0001c0d8:    2800        .(      CMP      r0,#0
        0x0001c0da:    d05b        [.      BEQ      0x1c194 ; divu64_10 + 196
        0x0001c0dc:    e7ff        ..      B        0x1c0de ; divu64_10 + 14
        0x0001c0de:    9b08        ..      LDR      r3,[sp,#0x20]
        0x0001c0e0:    9a09        ..      LDR      r2,[sp,#0x24]
        0x0001c0e2:    ea5f0052    _.R.    LSRS.W   r0,r2,#1
        0x0001c0e6:    ea4f0133    O.3.    RRX      r1,r3
        0x0001c0ea:    089b        ..      LSRS     r3,r3,#2
        0x0001c0ec:    ea437382    C..s    ORR      r3,r3,r2,LSL #30
        0x0001c0f0:    18c9        ..      ADDS     r1,r1,r3
        0x0001c0f2:    eb400092    @...    ADC      r0,r0,r2,LSR #2
        0x0001c0f6:    9106        ..      STR      r1,[sp,#0x18]
        0x0001c0f8:    9007        ..      STR      r0,[sp,#0x1c]
        0x0001c0fa:    9906        ..      LDR      r1,[sp,#0x18]
        0x0001c0fc:    9807        ..      LDR      r0,[sp,#0x1c]
        0x0001c0fe:    090a        ..      LSRS     r2,r1,#4
        0x0001c100:    ea427200    B..r    ORR      r2,r2,r0,LSL #28
        0x0001c104:    1889        ..      ADDS     r1,r1,r2
        0x0001c106:    eb401010    @...    ADC      r0,r0,r0,LSR #4
        0x0001c10a:    9106        ..      STR      r1,[sp,#0x18]
        0x0001c10c:    9007        ..      STR      r0,[sp,#0x1c]
        0x0001c10e:    9906        ..      LDR      r1,[sp,#0x18]
        0x0001c110:    9807        ..      LDR      r0,[sp,#0x1c]
        0x0001c112:    0a0a        ..      LSRS     r2,r1,#8
        0x0001c114:    ea426200    B..b    ORR      r2,r2,r0,LSL #24
        0x0001c118:    1889        ..      ADDS     r1,r1,r2
        0x0001c11a:    eb402010    @..     ADC      r0,r0,r0,LSR #8
        0x0001c11e:    9106        ..      STR      r1,[sp,#0x18]
        0x0001c120:    9007        ..      STR      r0,[sp,#0x1c]
        0x0001c122:    9906        ..      LDR      r1,[sp,#0x18]
        0x0001c124:    9807        ..      LDR      r0,[sp,#0x1c]
        0x0001c126:    0c0a        ..      LSRS     r2,r1,#16
        0x0001c128:    ea424200    B..B    ORR      r2,r2,r0,LSL #16
        0x0001c12c:    1889        ..      ADDS     r1,r1,r2
        0x0001c12e:    eb404010    @..@    ADC      r0,r0,r0,LSR #16
        0x0001c132:    9106        ..      STR      r1,[sp,#0x18]
        0x0001c134:    9007        ..      STR      r0,[sp,#0x1c]
        0x0001c136:    9906        ..      LDR      r1,[sp,#0x18]
        0x0001c138:    9807        ..      LDR      r0,[sp,#0x1c]
        0x0001c13a:    1809        ..      ADDS     r1,r1,r0
        0x0001c13c:    f1400000    @...    ADC      r0,r0,#0
        0x0001c140:    9106        ..      STR      r1,[sp,#0x18]
        0x0001c142:    9007        ..      STR      r0,[sp,#0x1c]
        0x0001c144:    9806        ..      LDR      r0,[sp,#0x18]
        0x0001c146:    9907        ..      LDR      r1,[sp,#0x1c]
        0x0001c148:    08c0        ..      LSRS     r0,r0,#3
        0x0001c14a:    ea407041    @.Ap    ORR      r0,r0,r1,LSL #29
        0x0001c14e:    08c9        ..      LSRS     r1,r1,#3
        0x0001c150:    9107        ..      STR      r1,[sp,#0x1c]
        0x0001c152:    9006        ..      STR      r0,[sp,#0x18]
        0x0001c154:    9908        ..      LDR      r1,[sp,#0x20]
        0x0001c156:    9809        ..      LDR      r0,[sp,#0x24]
        0x0001c158:    9a06        ..      LDR      r2,[sp,#0x18]
        0x0001c15a:    f8ddc01c    ....    LDR      r12,[sp,#0x1c]
        0x0001c15e:    230a        .#      MOVS     r3,#0xa
        0x0001c160:    fba23203    ...2    UMULL    r3,r2,r2,r3
        0x0001c164:    eb0c0c8c    ....    ADD      r12,r12,r12,LSL #2
        0x0001c168:    eb02024c    ..L.    ADD      r2,r2,r12,LSL #1
        0x0001c16c:    1ac9        ..      SUBS     r1,r1,r3
        0x0001c16e:    4190        .A      SBCS     r0,r0,r2
        0x0001c170:    9104        ..      STR      r1,[sp,#0x10]
        0x0001c172:    9005        ..      STR      r0,[sp,#0x14]
        0x0001c174:    9906        ..      LDR      r1,[sp,#0x18]
        0x0001c176:    9807        ..      LDR      r0,[sp,#0x1c]
        0x0001c178:    9b04        ..      LDR      r3,[sp,#0x10]
        0x0001c17a:    9a05        ..      LDR      r2,[sp,#0x14]
        0x0001c17c:    3306        .3      ADDS     r3,#6
        0x0001c17e:    f1420200    B...    ADC      r2,r2,#0
        0x0001c182:    091b        ..      LSRS     r3,r3,#4
        0x0001c184:    ea437302    C..s    ORR      r3,r3,r2,LSL #28
        0x0001c188:    18c9        ..      ADDS     r1,r1,r3
        0x0001c18a:    eb401012    @...    ADC      r0,r0,r2,LSR #4
        0x0001c18e:    910a        ..      STR      r1,[sp,#0x28]
        0x0001c190:    900b        ..      STR      r0,[sp,#0x2c]
        0x0001c192:    e025        %.      B        0x1c1e0 ; divu64_10 + 272
        0x0001c194:    9808        ..      LDR      r0,[sp,#0x20]
        0x0001c196:    9001        ..      STR      r0,[sp,#4]
        0x0001c198:    9901        ..      LDR      r1,[sp,#4]
        0x0001c19a:    0848        H.      LSRS     r0,r1,#1
        0x0001c19c:    eb000091    ....    ADD      r0,r0,r1,LSR #2
        0x0001c1a0:    9003        ..      STR      r0,[sp,#0xc]
        0x0001c1a2:    9803        ..      LDR      r0,[sp,#0xc]
        0x0001c1a4:    eb001010    ....    ADD      r0,r0,r0,LSR #4
        0x0001c1a8:    9003        ..      STR      r0,[sp,#0xc]
        0x0001c1aa:    9803        ..      LDR      r0,[sp,#0xc]
        0x0001c1ac:    eb002010    ...     ADD      r0,r0,r0,LSR #8
        0x0001c1b0:    9003        ..      STR      r0,[sp,#0xc]
        0x0001c1b2:    9803        ..      LDR      r0,[sp,#0xc]
        0x0001c1b4:    eb004010    ...@    ADD      r0,r0,r0,LSR #16
        0x0001c1b8:    9003        ..      STR      r0,[sp,#0xc]
        0x0001c1ba:    9803        ..      LDR      r0,[sp,#0xc]
        0x0001c1bc:    08c0        ..      LSRS     r0,r0,#3
        0x0001c1be:    9003        ..      STR      r0,[sp,#0xc]
        0x0001c1c0:    9801        ..      LDR      r0,[sp,#4]
        0x0001c1c2:    9903        ..      LDR      r1,[sp,#0xc]
        0x0001c1c4:    eb010181    ....    ADD      r1,r1,r1,LSL #2
        0x0001c1c8:    eba00041    ..A.    SUB      r0,r0,r1,LSL #1
        0x0001c1cc:    9002        ..      STR      r0,[sp,#8]
        0x0001c1ce:    9803        ..      LDR      r0,[sp,#0xc]
        0x0001c1d0:    9902        ..      LDR      r1,[sp,#8]
        0x0001c1d2:    3106        .1      ADDS     r1,#6
        0x0001c1d4:    eb001011    ....    ADD      r0,r0,r1,LSR #4
        0x0001c1d8:    2100        .!      MOVS     r1,#0
        0x0001c1da:    910b        ..      STR      r1,[sp,#0x2c]
        0x0001c1dc:    900a        ..      STR      r0,[sp,#0x28]
        0x0001c1de:    e7ff        ..      B        0x1c1e0 ; divu64_10 + 272
        0x0001c1e0:    980a        ..      LDR      r0,[sp,#0x28]
        0x0001c1e2:    990b        ..      LDR      r1,[sp,#0x2c]
        0x0001c1e4:    b00c        ..      ADD      sp,sp,#0x30
        0x0001c1e6:    4770        pG      BX       lr
    ftoa
        0x0001c1e8:    b580        ..      PUSH     {r7,lr}
        0x0001c1ea:    b090        ..      SUB      sp,sp,#0x40
        0x0001c1ec:    ed8d0a0e    ....    VSTR     s0,[sp,#0x38]
        0x0001c1f0:    900d        ..      STR      r0,[sp,#0x34]
        0x0001c1f2:    910c        ..      STR      r1,[sp,#0x30]
        0x0001c1f4:    980d        ..      LDR      r0,[sp,#0x34]
        0x0001c1f6:    6800        .h      LDR      r0,[r0,#0]
        0x0001c1f8:    9009        ..      STR      r0,[sp,#0x24]
        0x0001c1fa:    9809        ..      LDR      r0,[sp,#0x24]
        0x0001c1fc:    2803        .(      CMP      r0,#3
        0x0001c1fe:    dc04        ..      BGT      0x1c20a ; ftoa + 34
        0x0001c200:    e7ff        ..      B        0x1c202 ; ftoa + 26
        0x0001c202:    f06f0002    o...    MVN      r0,#2
        0x0001c206:    900f        ..      STR      r0,[sp,#0x3c]
        0x0001c208:    e103        ..      B        0x1c412 ; ftoa + 554
        0x0001c20a:    ed9d0a0e    ....    VLDR     s0,[sp,#0x38]
        0x0001c20e:    eeb50a40    ..@.    VCMP.F32 s0,#0.0
        0x0001c212:    eef1fa10    ....    VMRS     APSR_nzcv,FPSCR
        0x0001c216:    d109        ..      BNE      0x1c22c ; ftoa + 68
        0x0001c218:    e7ff        ..      B        0x1c21a ; ftoa + 50
        0x0001c21a:    990d        ..      LDR      r1,[sp,#0x34]
        0x0001c21c:    f6426030    B.0`    MOV      r0,#0x2e30
        0x0001c220:    f2c00030    ..0.    MOVT     r0,#0x30
        0x0001c224:    6008        .`      STR      r0,[r1,#0]
        0x0001c226:    2003        .       MOVS     r0,#3
        0x0001c228:    900f        ..      STR      r0,[sp,#0x3c]
        0x0001c22a:    e0f2        ..      B        0x1c412 ; ftoa + 554
        0x0001c22c:    980d        ..      LDR      r0,[sp,#0x34]
        0x0001c22e:    9005        ..      STR      r0,[sp,#0x14]
        0x0001c230:    980e        ..      LDR      r0,[sp,#0x38]
        0x0001c232:    900b        ..      STR      r0,[sp,#0x2c]
        0x0001c234:    980b        ..      LDR      r0,[sp,#0x2c]
        0x0001c236:    0dc1        ..      LSRS     r1,r0,#23
        0x0001c238:    f06f007e    o.~.    MVN      r0,#0x7e
        0x0001c23c:    fa50f081    P...    UXTAB    r0,r0,r1
        0x0001c240:    900a        ..      STR      r0,[sp,#0x28]
        0x0001c242:    980b        ..      LDR      r0,[sp,#0x2c]
        0x0001c244:    f4400000    @...    ORR      r0,r0,#0x800000
        0x0001c248:    f020407f     ..@    BIC      r0,r0,#0xff000000
        0x0001c24c:    9008        ..      STR      r0,[sp,#0x20]
        0x0001c24e:    2000        .       MOVS     r0,#0
        0x0001c250:    9006        ..      STR      r0,[sp,#0x18]
        0x0001c252:    9007        ..      STR      r0,[sp,#0x1c]
        0x0001c254:    980a        ..      LDR      r0,[sp,#0x28]
        0x0001c256:    281f        .(      CMP      r0,#0x1f
        0x0001c258:    db04        ..      BLT      0x1c264 ; ftoa + 124
        0x0001c25a:    e7ff        ..      B        0x1c25c ; ftoa + 116
        0x0001c25c:    f06f0001    o...    MVN      r0,#1
        0x0001c260:    900f        ..      STR      r0,[sp,#0x3c]
        0x0001c262:    e0d6        ..      B        0x1c412 ; ftoa + 554
        0x0001c264:    980a        ..      LDR      r0,[sp,#0x28]
        0x0001c266:    f1100f18    ....    CMN      r0,#0x18
        0x0001c26a:    dc04        ..      BGT      0x1c276 ; ftoa + 142
        0x0001c26c:    e7ff        ..      B        0x1c26e ; ftoa + 134
        0x0001c26e:    f04f30ff    O..0    MOV      r0,#0xffffffff
        0x0001c272:    900f        ..      STR      r0,[sp,#0x3c]
        0x0001c274:    e0cd        ..      B        0x1c412 ; ftoa + 554
        0x0001c276:    980a        ..      LDR      r0,[sp,#0x28]
        0x0001c278:    2817        .(      CMP      r0,#0x17
        0x0001c27a:    db06        ..      BLT      0x1c28a ; ftoa + 162
        0x0001c27c:    e7ff        ..      B        0x1c27e ; ftoa + 150
        0x0001c27e:    9808        ..      LDR      r0,[sp,#0x20]
        0x0001c280:    990a        ..      LDR      r1,[sp,#0x28]
        0x0001c282:    3917        .9      SUBS     r1,r1,#0x17
        0x0001c284:    4088        .@      LSLS     r0,r0,r1
        0x0001c286:    9007        ..      STR      r0,[sp,#0x1c]
        0x0001c288:    e01a        ..      B        0x1c2c0 ; ftoa + 216
        0x0001c28a:    980a        ..      LDR      r0,[sp,#0x28]
        0x0001c28c:    2800        .(      CMP      r0,#0
        0x0001c28e:    d40e        ..      BMI      0x1c2ae ; ftoa + 198
        0x0001c290:    e7ff        ..      B        0x1c292 ; ftoa + 170
        0x0001c292:    9808        ..      LDR      r0,[sp,#0x20]
        0x0001c294:    990a        ..      LDR      r1,[sp,#0x28]
        0x0001c296:    f1c10117    ....    RSB      r1,r1,#0x17
        0x0001c29a:    4108        .A      ASRS     r0,r0,r1
        0x0001c29c:    9007        ..      STR      r0,[sp,#0x1c]
        0x0001c29e:    9808        ..      LDR      r0,[sp,#0x20]
        0x0001c2a0:    990a        ..      LDR      r1,[sp,#0x28]
        0x0001c2a2:    3101        .1      ADDS     r1,#1
        0x0001c2a4:    4088        .@      LSLS     r0,r0,r1
        0x0001c2a6:    f020407f     ..@    BIC      r0,r0,#0xff000000
        0x0001c2aa:    9006        ..      STR      r0,[sp,#0x18]
        0x0001c2ac:    e007        ..      B        0x1c2be ; ftoa + 214
        0x0001c2ae:    9808        ..      LDR      r0,[sp,#0x20]
        0x0001c2b0:    f020407f     ..@    BIC      r0,r0,#0xff000000
        0x0001c2b4:    990a        ..      LDR      r1,[sp,#0x28]
        0x0001c2b6:    43c9        .C      MVNS     r1,r1
        0x0001c2b8:    40c8        .@      LSRS     r0,r0,r1
        0x0001c2ba:    9006        ..      STR      r0,[sp,#0x18]
        0x0001c2bc:    e7ff        ..      B        0x1c2be ; ftoa + 214
        0x0001c2be:    e7ff        ..      B        0x1c2c0 ; ftoa + 216
        0x0001c2c0:    e7ff        ..      B        0x1c2c2 ; ftoa + 218
        0x0001c2c2:    e7ff        ..      B        0x1c2c4 ; ftoa + 220
        0x0001c2c4:    980b        ..      LDR      r0,[sp,#0x2c]
        0x0001c2c6:    f1b03fff    ...?    CMP      r0,#0xffffffff
        0x0001c2ca:    dc06        ..      BGT      0x1c2da ; ftoa + 242
        0x0001c2cc:    e7ff        ..      B        0x1c2ce ; ftoa + 230
        0x0001c2ce:    990d        ..      LDR      r1,[sp,#0x34]
        0x0001c2d0:    1c48        H.      ADDS     r0,r1,#1
        0x0001c2d2:    900d        ..      STR      r0,[sp,#0x34]
        0x0001c2d4:    202d        -       MOVS     r0,#0x2d
        0x0001c2d6:    7008        .p      STRB     r0,[r1,#0]
        0x0001c2d8:    e7ff        ..      B        0x1c2da ; ftoa + 242
        0x0001c2da:    9807        ..      LDR      r0,[sp,#0x1c]
        0x0001c2dc:    b930        0.      CBNZ     r0,0x1c2ec ; ftoa + 260
        0x0001c2de:    e7ff        ..      B        0x1c2e0 ; ftoa + 248
        0x0001c2e0:    990d        ..      LDR      r1,[sp,#0x34]
        0x0001c2e2:    1c48        H.      ADDS     r0,r1,#1
        0x0001c2e4:    900d        ..      STR      r0,[sp,#0x34]
        0x0001c2e6:    2030        0       MOVS     r0,#0x30
        0x0001c2e8:    7008        .p      STRB     r0,[r1,#0]
        0x0001c2ea:    e01f        ..      B        0x1c32c ; ftoa + 324
        0x0001c2ec:    9807        ..      LDR      r0,[sp,#0x1c]
        0x0001c2ee:    2801        .(      CMP      r0,#1
        0x0001c2f0:    db06        ..      BLT      0x1c300 ; ftoa + 280
        0x0001c2f2:    e7ff        ..      B        0x1c2f4 ; ftoa + 268
        0x0001c2f4:    9807        ..      LDR      r0,[sp,#0x1c]
        0x0001c2f6:    17c1        ..      ASRS     r1,r0,#31
        0x0001c2f8:    9a0d        ..      LDR      r2,[sp,#0x34]
        0x0001c2fa:    f002fd87    ....    BL       uint64_to_str ; 0x1ee0c
        0x0001c2fe:    e00b        ..      B        0x1c318 ; ftoa + 304
        0x0001c300:    990d        ..      LDR      r1,[sp,#0x34]
        0x0001c302:    1c48        H.      ADDS     r0,r1,#1
        0x0001c304:    900d        ..      STR      r0,[sp,#0x34]
        0x0001c306:    202d        -       MOVS     r0,#0x2d
        0x0001c308:    7008        .p      STRB     r0,[r1,#0]
        0x0001c30a:    9807        ..      LDR      r0,[sp,#0x1c]
        0x0001c30c:    4240        @B      RSBS     r0,r0,#0
        0x0001c30e:    17c1        ..      ASRS     r1,r0,#31
        0x0001c310:    9a0d        ..      LDR      r2,[sp,#0x34]
        0x0001c312:    f002fd7b    ..{.    BL       uint64_to_str ; 0x1ee0c
        0x0001c316:    e7ff        ..      B        0x1c318 ; ftoa + 304
        0x0001c318:    e7ff        ..      B        0x1c31a ; ftoa + 306
        0x0001c31a:    980d        ..      LDR      r0,[sp,#0x34]
        0x0001c31c:    7800        .x      LDRB     r0,[r0,#0]
        0x0001c31e:    b120         .      CBZ      r0,0x1c32a ; ftoa + 322
        0x0001c320:    e7ff        ..      B        0x1c322 ; ftoa + 314
        0x0001c322:    980d        ..      LDR      r0,[sp,#0x34]
        0x0001c324:    3001        .0      ADDS     r0,#1
        0x0001c326:    900d        ..      STR      r0,[sp,#0x34]
        0x0001c328:    e7f7        ..      B        0x1c31a ; ftoa + 306
        0x0001c32a:    e7ff        ..      B        0x1c32c ; ftoa + 324
        0x0001c32c:    990d        ..      LDR      r1,[sp,#0x34]
        0x0001c32e:    1c48        H.      ADDS     r0,r1,#1
        0x0001c330:    900d        ..      STR      r0,[sp,#0x34]
        0x0001c332:    202e        .       MOVS     r0,#0x2e
        0x0001c334:    7008        .p      STRB     r0,[r1,#0]
        0x0001c336:    9806        ..      LDR      r0,[sp,#0x18]
        0x0001c338:    b930        0.      CBNZ     r0,0x1c348 ; ftoa + 352
        0x0001c33a:    e7ff        ..      B        0x1c33c ; ftoa + 340
        0x0001c33c:    990d        ..      LDR      r1,[sp,#0x34]
        0x0001c33e:    1c48        H.      ADDS     r0,r1,#1
        0x0001c340:    900d        ..      STR      r0,[sp,#0x34]
        0x0001c342:    2030        0       MOVS     r0,#0x30
        0x0001c344:    7008        .p      STRB     r0,[r1,#0]
        0x0001c346:    e05c        \.      B        0x1c402 ; ftoa + 538
        0x0001c348:    9909        ..      LDR      r1,[sp,#0x24]
        0x0001c34a:    980d        ..      LDR      r0,[sp,#0x34]
        0x0001c34c:    9a05        ..      LDR      r2,[sp,#0x14]
        0x0001c34e:    1a80        ..      SUBS     r0,r0,r2
        0x0001c350:    43c0        .C      MVNS     r0,r0
        0x0001c352:    4408        .D      ADD      r0,r0,r1
        0x0001c354:    9002        ..      STR      r0,[sp,#8]
        0x0001c356:    9802        ..      LDR      r0,[sp,#8]
        0x0001c358:    990c        ..      LDR      r1,[sp,#0x30]
        0x0001c35a:    4288        .B      CMP      r0,r1
        0x0001c35c:    dd03        ..      BLE      0x1c366 ; ftoa + 382
        0x0001c35e:    e7ff        ..      B        0x1c360 ; ftoa + 376
        0x0001c360:    980c        ..      LDR      r0,[sp,#0x30]
        0x0001c362:    9001        ..      STR      r0,[sp,#4]
        0x0001c364:    e002        ..      B        0x1c36c ; ftoa + 388
        0x0001c366:    9802        ..      LDR      r0,[sp,#8]
        0x0001c368:    9001        ..      STR      r0,[sp,#4]
        0x0001c36a:    e7ff        ..      B        0x1c36c ; ftoa + 388
        0x0001c36c:    9801        ..      LDR      r0,[sp,#4]
        0x0001c36e:    9002        ..      STR      r0,[sp,#8]
        0x0001c370:    2000        .       MOVS     r0,#0
        0x0001c372:    9003        ..      STR      r0,[sp,#0xc]
        0x0001c374:    e7ff        ..      B        0x1c376 ; ftoa + 398
        0x0001c376:    9803        ..      LDR      r0,[sp,#0xc]
        0x0001c378:    9902        ..      LDR      r1,[sp,#8]
        0x0001c37a:    4288        .B      CMP      r0,r1
        0x0001c37c:    da15        ..      BGE      0x1c3aa ; ftoa + 450
        0x0001c37e:    e7ff        ..      B        0x1c380 ; ftoa + 408
        0x0001c380:    9806        ..      LDR      r0,[sp,#0x18]
        0x0001c382:    eb000080    ....    ADD      r0,r0,r0,LSL #2
        0x0001c386:    0040        @.      LSLS     r0,r0,#1
        0x0001c388:    9006        ..      STR      r0,[sp,#0x18]
        0x0001c38a:    f89d001b    ....    LDRB     r0,[sp,#0x1b]
        0x0001c38e:    3030        00      ADDS     r0,r0,#0x30
        0x0001c390:    990d        ..      LDR      r1,[sp,#0x34]
        0x0001c392:    1c4a        J.      ADDS     r2,r1,#1
        0x0001c394:    920d        ..      STR      r2,[sp,#0x34]
        0x0001c396:    7008        .p      STRB     r0,[r1,#0]
        0x0001c398:    9806        ..      LDR      r0,[sp,#0x18]
        0x0001c39a:    f020407f     ..@    BIC      r0,r0,#0xff000000
        0x0001c39e:    9006        ..      STR      r0,[sp,#0x18]
        0x0001c3a0:    e7ff        ..      B        0x1c3a2 ; ftoa + 442
        0x0001c3a2:    9803        ..      LDR      r0,[sp,#0xc]
        0x0001c3a4:    3001        .0      ADDS     r0,#1
        0x0001c3a6:    9003        ..      STR      r0,[sp,#0xc]
        0x0001c3a8:    e7e5        ..      B        0x1c376 ; ftoa + 398
        0x0001c3aa:    9806        ..      LDR      r0,[sp,#0x18]
        0x0001c3ac:    eb000080    ....    ADD      r0,r0,r0,LSL #2
        0x0001c3b0:    f34050c7    @..P    SBFX     r0,r0,#23,#8
        0x0001c3b4:    2805        .(      CMP      r0,#5
        0x0001c3b6:    db23        #.      BLT      0x1c400 ; ftoa + 536
        0x0001c3b8:    e7ff        ..      B        0x1c3ba ; ftoa + 466
        0x0001c3ba:    980d        ..      LDR      r0,[sp,#0x34]
        0x0001c3bc:    3801        .8      SUBS     r0,#1
        0x0001c3be:    9004        ..      STR      r0,[sp,#0x10]
        0x0001c3c0:    e7ff        ..      B        0x1c3c2 ; ftoa + 474
        0x0001c3c2:    9804        ..      LDR      r0,[sp,#0x10]
        0x0001c3c4:    9905        ..      LDR      r1,[sp,#0x14]
        0x0001c3c6:    4288        .B      CMP      r0,r1
        0x0001c3c8:    d319        ..      BCC      0x1c3fe ; ftoa + 534
        0x0001c3ca:    e7ff        ..      B        0x1c3cc ; ftoa + 484
        0x0001c3cc:    9804        ..      LDR      r0,[sp,#0x10]
        0x0001c3ce:    7800        .x      LDRB     r0,[r0,#0]
        0x0001c3d0:    282e        .(      CMP      r0,#0x2e
        0x0001c3d2:    d101        ..      BNE      0x1c3d8 ; ftoa + 496
        0x0001c3d4:    e7ff        ..      B        0x1c3d6 ; ftoa + 494
        0x0001c3d6:    e00e        ..      B        0x1c3f6 ; ftoa + 526
        0x0001c3d8:    9804        ..      LDR      r0,[sp,#0x10]
        0x0001c3da:    7800        .x      LDRB     r0,[r0,#0]
        0x0001c3dc:    2839        9(      CMP      r0,#0x39
        0x0001c3de:    d104        ..      BNE      0x1c3ea ; ftoa + 514
        0x0001c3e0:    e7ff        ..      B        0x1c3e2 ; ftoa + 506
        0x0001c3e2:    9904        ..      LDR      r1,[sp,#0x10]
        0x0001c3e4:    2030        0       MOVS     r0,#0x30
        0x0001c3e6:    7008        .p      STRB     r0,[r1,#0]
        0x0001c3e8:    e004        ..      B        0x1c3f4 ; ftoa + 524
        0x0001c3ea:    9904        ..      LDR      r1,[sp,#0x10]
        0x0001c3ec:    7808        .x      LDRB     r0,[r1,#0]
        0x0001c3ee:    3001        .0      ADDS     r0,#1
        0x0001c3f0:    7008        .p      STRB     r0,[r1,#0]
        0x0001c3f2:    e004        ..      B        0x1c3fe ; ftoa + 534
        0x0001c3f4:    e7ff        ..      B        0x1c3f6 ; ftoa + 526
        0x0001c3f6:    9804        ..      LDR      r0,[sp,#0x10]
        0x0001c3f8:    3801        .8      SUBS     r0,#1
        0x0001c3fa:    9004        ..      STR      r0,[sp,#0x10]
        0x0001c3fc:    e7e1        ..      B        0x1c3c2 ; ftoa + 474
        0x0001c3fe:    e7ff        ..      B        0x1c400 ; ftoa + 536
        0x0001c400:    e7ff        ..      B        0x1c402 ; ftoa + 538
        0x0001c402:    990d        ..      LDR      r1,[sp,#0x34]
        0x0001c404:    2000        .       MOVS     r0,#0
        0x0001c406:    7008        .p      STRB     r0,[r1,#0]
        0x0001c408:    980d        ..      LDR      r0,[sp,#0x34]
        0x0001c40a:    9905        ..      LDR      r1,[sp,#0x14]
        0x0001c40c:    1a40        @.      SUBS     r0,r0,r1
        0x0001c40e:    900f        ..      STR      r0,[sp,#0x3c]
        0x0001c410:    e7ff        ..      B        0x1c412 ; ftoa + 554
        0x0001c412:    980f        ..      LDR      r0,[sp,#0x3c]
        0x0001c414:    b010        ..      ADD      sp,sp,#0x40
        0x0001c416:    bd80        ..      POP      {r7,pc}
    get_driver
        0x0001c418:    b082        ..      SUB      sp,sp,#8
        0x0001c41a:    f88d0003    ....    STRB     r0,[sp,#3]
        0x0001c41e:    f2400000    @...    MOVW     r0,#0
        0x0001c422:    f2c00000    ....    MOVT     r0,#0
        0x0001c426:    b310        ..      CBZ      r0,0x1c46e ; get_driver + 86
        0x0001c428:    e7ff        ..      B        0x1c42a ; get_driver + 18
        0x0001c42a:    f89d0003    ....    LDRB     r0,[sp,#3]
        0x0001c42e:    f24001cc    @...    MOVW     r1,#0xcc
        0x0001c432:    f2c10100    ....    MOVT     r1,#0x1000
        0x0001c436:    7809        .x      LDRB     r1,[r1,#0]
        0x0001c438:    4288        .B      CMP      r0,r1
        0x0001c43a:    da0d        ..      BGE      0x1c458 ; get_driver + 64
        0x0001c43c:    e7ff        ..      B        0x1c43e ; get_driver + 38
        0x0001c43e:    f24000c8    @...    MOVW     r0,#0xc8
        0x0001c442:    f2c10000    ....    MOVT     r0,#0x1000
        0x0001c446:    6800        .h      LDR      r0,[r0,#0]
        0x0001c448:    f89d1003    ....    LDRB     r1,[sp,#3]
        0x0001c44c:    ebc101c1    ....    RSB      r1,r1,r1,LSL #3
        0x0001c450:    eb000081    ....    ADD      r0,r0,r1,LSL #2
        0x0001c454:    9001        ..      STR      r0,[sp,#4]
        0x0001c456:    e01e        ..      B        0x1c496 ; get_driver + 126
        0x0001c458:    f24000cc    @...    MOVW     r0,#0xcc
        0x0001c45c:    f2c10000    ....    MOVT     r0,#0x1000
        0x0001c460:    7801        .x      LDRB     r1,[r0,#0]
        0x0001c462:    f89d0003    ....    LDRB     r0,[sp,#3]
        0x0001c466:    1a40        @.      SUBS     r0,r0,r1
        0x0001c468:    f88d0003    ....    STRB     r0,[sp,#3]
        0x0001c46c:    e7ff        ..      B        0x1c46e ; get_driver + 86
        0x0001c46e:    f89d0003    ....    LDRB     r0,[sp,#3]
        0x0001c472:    2800        .(      CMP      r0,#0
        0x0001c474:    dc0c        ..      BGT      0x1c490 ; get_driver + 120
        0x0001c476:    e7ff        ..      B        0x1c478 ; get_driver + 96
        0x0001c478:    f89d0003    ....    LDRB     r0,[sp,#3]
        0x0001c47c:    ebc001c0    ....    RSB      r1,r0,r0,LSL #3
        0x0001c480:    f24f70cc    O..p    MOV      r0,#0xf7cc
        0x0001c484:    f2c00001    ....    MOVT     r0,#1
        0x0001c488:    eb000081    ....    ADD      r0,r0,r1,LSL #2
        0x0001c48c:    9001        ..      STR      r0,[sp,#4]
        0x0001c48e:    e002        ..      B        0x1c496 ; get_driver + 126
        0x0001c490:    2000        .       MOVS     r0,#0
        0x0001c492:    9001        ..      STR      r0,[sp,#4]
        0x0001c494:    e7ff        ..      B        0x1c496 ; get_driver + 126
        0x0001c496:    9801        ..      LDR      r0,[sp,#4]
        0x0001c498:    b002        ..      ADD      sp,sp,#8
        0x0001c49a:    4770        pG      BX       lr
    get_index_by_itfnum
        0x0001c49c:    b081        ..      SUB      sp,sp,#4
        0x0001c49e:    f88d0002    ....    STRB     r0,[sp,#2]
        0x0001c4a2:    2000        .       MOVS     r0,#0
        0x0001c4a4:    f88d0001    ....    STRB     r0,[sp,#1]
        0x0001c4a8:    e7ff        ..      B        0x1c4aa ; get_index_by_itfnum + 14
        0x0001c4aa:    f89d0001    ....    LDRB     r0,[sp,#1]
        0x0001c4ae:    2800        .(      CMP      r0,#0
        0x0001c4b0:    dc1a        ..      BGT      0x1c4e8 ; get_index_by_itfnum + 76
        0x0001c4b2:    e7ff        ..      B        0x1c4b4 ; get_index_by_itfnum + 24
        0x0001c4b4:    f89d0002    ....    LDRB     r0,[sp,#2]
        0x0001c4b8:    f89d1001    ....    LDRB     r1,[sp,#1]
        0x0001c4bc:    228c        ."      MOVS     r2,#0x8c
        0x0001c4be:    434a        JC      MULS     r2,r1,r2
        0x0001c4c0:    f2401124    @.$.    MOVW     r1,#0x124
        0x0001c4c4:    f2c10100    ....    MOVT     r1,#0x1000
        0x0001c4c8:    5c89        .\      LDRB     r1,[r1,r2]
        0x0001c4ca:    4288        .B      CMP      r0,r1
        0x0001c4cc:    d105        ..      BNE      0x1c4da ; get_index_by_itfnum + 62
        0x0001c4ce:    e7ff        ..      B        0x1c4d0 ; get_index_by_itfnum + 52
        0x0001c4d0:    f89d0001    ....    LDRB     r0,[sp,#1]
        0x0001c4d4:    f88d0003    ....    STRB     r0,[sp,#3]
        0x0001c4d8:    e00a        ..      B        0x1c4f0 ; get_index_by_itfnum + 84
        0x0001c4da:    e7ff        ..      B        0x1c4dc ; get_index_by_itfnum + 64
        0x0001c4dc:    f89d0001    ....    LDRB     r0,[sp,#1]
        0x0001c4e0:    3001        .0      ADDS     r0,#1
        0x0001c4e2:    f88d0001    ....    STRB     r0,[sp,#1]
        0x0001c4e6:    e7e0        ..      B        0x1c4aa ; get_index_by_itfnum + 14
        0x0001c4e8:    20ff        .       MOVS     r0,#0xff
        0x0001c4ea:    f88d0003    ....    STRB     r0,[sp,#3]
        0x0001c4ee:    e7ff        ..      B        0x1c4f0 ; get_index_by_itfnum + 84
        0x0001c4f0:    f89d0003    ....    LDRB     r0,[sp,#3]
        0x0001c4f4:    b001        ..      ADD      sp,sp,#4
        0x0001c4f6:    4770        pG      BX       lr
    get_relative_pointer
        0x0001c4f8:    b580        ..      PUSH     {r7,lr}
        0x0001c4fa:    b082        ..      SUB      sp,sp,#8
        0x0001c4fc:    9001        ..      STR      r0,[sp,#4]
        0x0001c4fe:    f8ad1002    ....    STRH     r1,[sp,#2]
        0x0001c502:    f8bd0002    ....    LDRH     r0,[sp,#2]
        0x0001c506:    9901        ..      LDR      r1,[sp,#4]
        0x0001c508:    8889        ..      LDRH     r1,[r1,#4]
        0x0001c50a:    f7fcf927    ..'.    BL       _ff_mod ; 0x1875c
        0x0001c50e:    b002        ..      ADD      sp,sp,#8
        0x0001c510:    bd80        ..      POP      {r7,pc}
        0x0001c512:    0000        ..      MOVS     r0,r0
    hidd_control_xfer_cb
        0x0001c514:    b580        ..      PUSH     {r7,lr}
        0x0001c516:    b096        ..      SUB      sp,sp,#0x58
        0x0001c518:    f88d0042    ..B.    STRB     r0,[sp,#0x42]
        0x0001c51c:    f88d1041    ..A.    STRB     r1,[sp,#0x41]
        0x0001c520:    920f        ..      STR      r2,[sp,#0x3c]
        0x0001c522:    e7ff        ..      B        0x1c524 ; hidd_control_xfer_cb + 16
        0x0001c524:    980f        ..      LDR      r0,[sp,#0x3c]
        0x0001c526:    7800        .x      LDRB     r0,[r0,#0]
        0x0001c528:    f000001f    ....    AND      r0,r0,#0x1f
        0x0001c52c:    2801        .(      CMP      r0,#1
        0x0001c52e:    d004        ..      BEQ      0x1c53a ; hidd_control_xfer_cb + 38
        0x0001c530:    e7ff        ..      B        0x1c532 ; hidd_control_xfer_cb + 30
        0x0001c532:    2000        .       MOVS     r0,#0
        0x0001c534:    f88d0043    ..C.    STRB     r0,[sp,#0x43]
        0x0001c538:    e20e        ..      B        0x1c958 ; hidd_control_xfer_cb + 1092
        0x0001c53a:    e7ff        ..      B        0x1c53c ; hidd_control_xfer_cb + 40
        0x0001c53c:    980f        ..      LDR      r0,[sp,#0x3c]
        0x0001c53e:    7900        .y      LDRB     r0,[r0,#4]
        0x0001c540:    f7ffffac    ....    BL       get_index_by_itfnum ; 0x1c49c
        0x0001c544:    f88d003b    ..;.    STRB     r0,[sp,#0x3b]
        0x0001c548:    e7ff        ..      B        0x1c54a ; hidd_control_xfer_cb + 54
        0x0001c54a:    f89d003b    ..;.    LDRB     r0,[sp,#0x3b]
        0x0001c54e:    2801        .(      CMP      r0,#1
        0x0001c550:    db04        ..      BLT      0x1c55c ; hidd_control_xfer_cb + 72
        0x0001c552:    e7ff        ..      B        0x1c554 ; hidd_control_xfer_cb + 64
        0x0001c554:    2000        .       MOVS     r0,#0
        0x0001c556:    f88d0043    ..C.    STRB     r0,[sp,#0x43]
        0x0001c55a:    e1fd        ..      B        0x1c958 ; hidd_control_xfer_cb + 1092
        0x0001c55c:    e7ff        ..      B        0x1c55e ; hidd_control_xfer_cb + 74
        0x0001c55e:    f89d003b    ..;.    LDRB     r0,[sp,#0x3b]
        0x0001c562:    f2401224    @.$.    MOVW     r2,#0x124
        0x0001c566:    f2c10200    ....    MOVT     r2,#0x1000
        0x0001c56a:    218c        .!      MOVS     r1,#0x8c
        0x0001c56c:    fb102001    ...     SMLABB   r0,r0,r1,r2
        0x0001c570:    900d        ..      STR      r0,[sp,#0x34]
        0x0001c572:    980f        ..      LDR      r0,[sp,#0x3c]
        0x0001c574:    7800        .x      LDRB     r0,[r0,#0]
        0x0001c576:    0940        @.      LSRS     r0,r0,#5
        0x0001c578:    0780        ..      LSLS     r0,r0,#30
        0x0001c57a:    2800        .(      CMP      r0,#0
        0x0001c57c:    d153        S.      BNE      0x1c626 ; hidd_control_xfer_cb + 274
        0x0001c57e:    e7ff        ..      B        0x1c580 ; hidd_control_xfer_cb + 108
        0x0001c580:    f89d0041    ..A.    LDRB     r0,[sp,#0x41]
        0x0001c584:    2800        .(      CMP      r0,#0
        0x0001c586:    d14d        M.      BNE      0x1c624 ; hidd_control_xfer_cb + 272
        0x0001c588:    e7ff        ..      B        0x1c58a ; hidd_control_xfer_cb + 118
        0x0001c58a:    980f        ..      LDR      r0,[sp,#0x3c]
        0x0001c58c:    8840        @.      LDRH     r0,[r0,#2]
        0x0001c58e:    f8ad0044    ..D.    STRH     r0,[sp,#0x44]
        0x0001c592:    f89d0045    ..E.    LDRB     r0,[sp,#0x45]
        0x0001c596:    f88d0033    ..3.    STRB     r0,[sp,#0x33]
        0x0001c59a:    980f        ..      LDR      r0,[sp,#0x3c]
        0x0001c59c:    7840        @x      LDRB     r0,[r0,#1]
        0x0001c59e:    2806        .(      CMP      r0,#6
        0x0001c5a0:    d122        ".      BNE      0x1c5e8 ; hidd_control_xfer_cb + 212
        0x0001c5a2:    e7ff        ..      B        0x1c5a4 ; hidd_control_xfer_cb + 144
        0x0001c5a4:    f89d0033    ..3.    LDRB     r0,[sp,#0x33]
        0x0001c5a8:    2821        !(      CMP      r0,#0x21
        0x0001c5aa:    d11d        ..      BNE      0x1c5e8 ; hidd_control_xfer_cb + 212
        0x0001c5ac:    e7ff        ..      B        0x1c5ae ; hidd_control_xfer_cb + 154
        0x0001c5ae:    e7ff        ..      B        0x1c5b0 ; hidd_control_xfer_cb + 156
        0x0001c5b0:    980d        ..      LDR      r0,[sp,#0x34]
        0x0001c5b2:    f8d00088    ....    LDR      r0,[r0,#0x88]
        0x0001c5b6:    b920         .      CBNZ     r0,0x1c5c2 ; hidd_control_xfer_cb + 174
        0x0001c5b8:    e7ff        ..      B        0x1c5ba ; hidd_control_xfer_cb + 166
        0x0001c5ba:    2000        .       MOVS     r0,#0
        0x0001c5bc:    f88d0043    ..C.    STRB     r0,[sp,#0x43]
        0x0001c5c0:    e1ca        ..      B        0x1c958 ; hidd_control_xfer_cb + 1092
        0x0001c5c2:    e7ff        ..      B        0x1c5c4 ; hidd_control_xfer_cb + 176
        0x0001c5c4:    e7ff        ..      B        0x1c5c6 ; hidd_control_xfer_cb + 178
        0x0001c5c6:    f89d0042    ..B.    LDRB     r0,[sp,#0x42]
        0x0001c5ca:    990f        ..      LDR      r1,[sp,#0x3c]
        0x0001c5cc:    9a0d        ..      LDR      r2,[sp,#0x34]
        0x0001c5ce:    f8d22088    ...     LDR      r2,[r2,#0x88]
        0x0001c5d2:    7813        .x      LDRB     r3,[r2,#0]
        0x0001c5d4:    f001fee6    ....    BL       tud_control_xfer ; 0x1e3a4
        0x0001c5d8:    b920         .      CBNZ     r0,0x1c5e4 ; hidd_control_xfer_cb + 208
        0x0001c5da:    e7ff        ..      B        0x1c5dc ; hidd_control_xfer_cb + 200
        0x0001c5dc:    2000        .       MOVS     r0,#0
        0x0001c5de:    f88d0043    ..C.    STRB     r0,[sp,#0x43]
        0x0001c5e2:    e1b9        ..      B        0x1c958 ; hidd_control_xfer_cb + 1092
        0x0001c5e4:    e7ff        ..      B        0x1c5e6 ; hidd_control_xfer_cb + 210
        0x0001c5e6:    e01c        ..      B        0x1c622 ; hidd_control_xfer_cb + 270
        0x0001c5e8:    980f        ..      LDR      r0,[sp,#0x3c]
        0x0001c5ea:    7840        @x      LDRB     r0,[r0,#1]
        0x0001c5ec:    2806        .(      CMP      r0,#6
        0x0001c5ee:    d113        ..      BNE      0x1c618 ; hidd_control_xfer_cb + 260
        0x0001c5f0:    e7ff        ..      B        0x1c5f2 ; hidd_control_xfer_cb + 222
        0x0001c5f2:    f89d0033    ..3.    LDRB     r0,[sp,#0x33]
        0x0001c5f6:    2822        "(      CMP      r0,#0x22
        0x0001c5f8:    d10e        ..      BNE      0x1c618 ; hidd_control_xfer_cb + 260
        0x0001c5fa:    e7ff        ..      B        0x1c5fc ; hidd_control_xfer_cb + 232
        0x0001c5fc:    f89d003b    ..;.    LDRB     r0,[sp,#0x3b]
        0x0001c600:    f002f80c    ....    BL       tud_hid_descriptor_report_cb ; 0x1e61c
        0x0001c604:    900b        ..      STR      r0,[sp,#0x2c]
        0x0001c606:    f89d0042    ..B.    LDRB     r0,[sp,#0x42]
        0x0001c60a:    990f        ..      LDR      r1,[sp,#0x3c]
        0x0001c60c:    9a0b        ..      LDR      r2,[sp,#0x2c]
        0x0001c60e:    9b0d        ..      LDR      r3,[sp,#0x34]
        0x0001c610:    88db        ..      LDRH     r3,[r3,#6]
        0x0001c612:    f001fec7    ....    BL       tud_control_xfer ; 0x1e3a4
        0x0001c616:    e003        ..      B        0x1c620 ; hidd_control_xfer_cb + 268
        0x0001c618:    2000        .       MOVS     r0,#0
        0x0001c61a:    f88d0043    ..C.    STRB     r0,[sp,#0x43]
        0x0001c61e:    e19b        ..      B        0x1c958 ; hidd_control_xfer_cb + 1092
        0x0001c620:    e7ff        ..      B        0x1c622 ; hidd_control_xfer_cb + 270
        0x0001c622:    e7ff        ..      B        0x1c624 ; hidd_control_xfer_cb + 272
        0x0001c624:    e194        ..      B        0x1c950 ; hidd_control_xfer_cb + 1084
        0x0001c626:    980f        ..      LDR      r0,[sp,#0x3c]
        0x0001c628:    7800        .x      LDRB     r0,[r0,#0]
        0x0001c62a:    f3c01041    ..A.    UBFX     r0,r0,#5,#2
        0x0001c62e:    2801        .(      CMP      r0,#1
        0x0001c630:    f0408189    @...    BNE.W    0x1c946 ; hidd_control_xfer_cb + 1074
        0x0001c634:    e7ff        ..      B        0x1c636 ; hidd_control_xfer_cb + 290
        0x0001c636:    980f        ..      LDR      r0,[sp,#0x3c]
        0x0001c638:    7840        @x      LDRB     r0,[r0,#1]
        0x0001c63a:    3801        .8      SUBS     r0,#1
        0x0001c63c:    4601        .F      MOV      r1,r0
        0x0001c63e:    9103        ..      STR      r1,[sp,#0xc]
        0x0001c640:    280a        .(      CMP      r0,#0xa
        0x0001c642:    f200817b    ..{.    BHI.W    0x1c93c ; hidd_control_xfer_cb + 1064
        0x0001c646:    9903        ..      LDR      r1,[sp,#0xc]
        0x0001c648:    e8dff011    ....    TBH      [pc,r1,LSL #1]
    $d.13
        0x0001c64c:    0139000b    ..9.    DCD    20512779
        0x0001c650:    01780147    G.x.    DCD    24641863
        0x0001c654:    01780178    x.x.    DCD    24641912
        0x0001c658:    01780178    x.x.    DCD    24641912
        0x0001c65c:    0111009e    ....    DCD    17891486
        0x0001c660:    0155        U.      DCW    341
    $t.14
        0x0001c662:    f89d0041    ..A.    LDRB     r0,[sp,#0x41]
        0x0001c666:    2800        .(      CMP      r0,#0
        0x0001c668:    f040808d    @...    BNE.W    0x1c786 ; hidd_control_xfer_cb + 626
        0x0001c66c:    e7ff        ..      B        0x1c66e ; hidd_control_xfer_cb + 346
        0x0001c66e:    980f        ..      LDR      r0,[sp,#0x3c]
        0x0001c670:    8840        @.      LDRH     r0,[r0,#2]
        0x0001c672:    f8ad0050    ..P.    STRH     r0,[sp,#0x50]
        0x0001c676:    f89d0051    ..Q.    LDRB     r0,[sp,#0x51]
        0x0001c67a:    f88d002b    ..+.    STRB     r0,[sp,#0x2b]
        0x0001c67e:    980f        ..      LDR      r0,[sp,#0x3c]
        0x0001c680:    8840        @.      LDRH     r0,[r0,#2]
        0x0001c682:    f8ad0056    ..V.    STRH     r0,[sp,#0x56]
        0x0001c686:    f8bd0056    ..V.    LDRH     r0,[sp,#0x56]
        0x0001c68a:    f88d002a    ..*.    STRB     r0,[sp,#0x2a]
        0x0001c68e:    980d        ..      LDR      r0,[sp,#0x34]
        0x0001c690:    3008        .0      ADDS     r0,r0,#8
        0x0001c692:    9009        ..      STR      r0,[sp,#0x24]
        0x0001c694:    980f        ..      LDR      r0,[sp,#0x3c]
        0x0001c696:    88c0        ..      LDRH     r0,[r0,#6]
        0x0001c698:    f8ad0054    ..T.    STRH     r0,[sp,#0x54]
        0x0001c69c:    2040        @       MOVS     r0,#0x40
        0x0001c69e:    f8ad0052    ..R.    STRH     r0,[sp,#0x52]
        0x0001c6a2:    f8bd0054    ..T.    LDRH     r0,[sp,#0x54]
        0x0001c6a6:    f8bd1052    ..R.    LDRH     r1,[sp,#0x52]
        0x0001c6aa:    4288        .B      CMP      r0,r1
        0x0001c6ac:    da04        ..      BGE      0x1c6b8 ; hidd_control_xfer_cb + 420
        0x0001c6ae:    e7ff        ..      B        0x1c6b0 ; hidd_control_xfer_cb + 412
        0x0001c6b0:    f8bd0054    ..T.    LDRH     r0,[sp,#0x54]
        0x0001c6b4:    9002        ..      STR      r0,[sp,#8]
        0x0001c6b6:    e003        ..      B        0x1c6c0 ; hidd_control_xfer_cb + 428
        0x0001c6b8:    f8bd0052    ..R.    LDRH     r0,[sp,#0x52]
        0x0001c6bc:    9002        ..      STR      r0,[sp,#8]
        0x0001c6be:    e7ff        ..      B        0x1c6c0 ; hidd_control_xfer_cb + 428
        0x0001c6c0:    9802        ..      LDR      r0,[sp,#8]
        0x0001c6c2:    f8ad0022    ..".    STRH     r0,[sp,#0x22]
        0x0001c6c6:    2000        .       MOVS     r0,#0
        0x0001c6c8:    f8ad0020    .. .    STRH     r0,[sp,#0x20]
        0x0001c6cc:    f89d002a    ..*.    LDRB     r0,[sp,#0x2a]
        0x0001c6d0:    b1b0        ..      CBZ      r0,0x1c700 ; hidd_control_xfer_cb + 492
        0x0001c6d2:    e7ff        ..      B        0x1c6d4 ; hidd_control_xfer_cb + 448
        0x0001c6d4:    f8bd0022    ..".    LDRH     r0,[sp,#0x22]
        0x0001c6d8:    2802        .(      CMP      r0,#2
        0x0001c6da:    db11        ..      BLT      0x1c700 ; hidd_control_xfer_cb + 492
        0x0001c6dc:    e7ff        ..      B        0x1c6de ; hidd_control_xfer_cb + 458
        0x0001c6de:    f89d002a    ..*.    LDRB     r0,[sp,#0x2a]
        0x0001c6e2:    9909        ..      LDR      r1,[sp,#0x24]
        0x0001c6e4:    1c4a        J.      ADDS     r2,r1,#1
        0x0001c6e6:    9209        ..      STR      r2,[sp,#0x24]
        0x0001c6e8:    7008        .p      STRB     r0,[r1,#0]
        0x0001c6ea:    f8bd0022    ..".    LDRH     r0,[sp,#0x22]
        0x0001c6ee:    3801        .8      SUBS     r0,#1
        0x0001c6f0:    f8ad0022    ..".    STRH     r0,[sp,#0x22]
        0x0001c6f4:    f8bd0020    .. .    LDRH     r0,[sp,#0x20]
        0x0001c6f8:    3001        .0      ADDS     r0,#1
        0x0001c6fa:    f8ad0020    .. .    STRH     r0,[sp,#0x20]
        0x0001c6fe:    e7ff        ..      B        0x1c700 ; hidd_control_xfer_cb + 492
        0x0001c700:    f89d003b    ..;.    LDRB     r0,[sp,#0x3b]
        0x0001c704:    f89d102a    ..*.    LDRB     r1,[sp,#0x2a]
        0x0001c708:    f89d202b    ..+     LDRB     r2,[sp,#0x2b]
        0x0001c70c:    9b09        ..      LDR      r3,[sp,#0x24]
        0x0001c70e:    f8bdc022    ..".    LDRH     r12,[sp,#0x22]
        0x0001c712:    46ee        .F      MOV      lr,sp
        0x0001c714:    f8cec000    ....    STR      r12,[lr,#0]
        0x0001c718:    f001ff8a    ....    BL       tud_hid_get_report_cb ; 0x1e630
        0x0001c71c:    4601        .F      MOV      r1,r0
        0x0001c71e:    f8bd0020    .. .    LDRH     r0,[sp,#0x20]
        0x0001c722:    4408        .D      ADD      r0,r0,r1
        0x0001c724:    f8ad0020    .. .    STRH     r0,[sp,#0x20]
        0x0001c728:    e7ff        ..      B        0x1c72a ; hidd_control_xfer_cb + 534
        0x0001c72a:    f8bd0020    .. .    LDRH     r0,[sp,#0x20]
        0x0001c72e:    2800        .(      CMP      r0,#0
        0x0001c730:    dc1e        ..      BGT      0x1c770 ; hidd_control_xfer_cb + 604
        0x0001c732:    e7ff        ..      B        0x1c734 ; hidd_control_xfer_cb + 544
        0x0001c734:    f64f3070    O.p0    MOV      r0,#0xfb70
        0x0001c738:    f2c00001    ....    MOVT     r0,#1
        0x0001c73c:    f24001d0    @...    MOVW     r1,#0xd0
        0x0001c740:    f2c00102    ....    MOVT     r1,#2
        0x0001c744:    f240122b    @.+.    MOV      r2,#0x12b
        0x0001c748:    f7fefd08    ....    BL       am_util_stdio_printf ; 0x1b15c
        0x0001c74c:    e7ff        ..      B        0x1c74e ; hidd_control_xfer_cb + 570
        0x0001c74e:    f64e50f0    N..P    MOV      r0,#0xedf0
        0x0001c752:    f2ce0000    ....    MOVT     r0,#0xe000
        0x0001c756:    9007        ..      STR      r0,[sp,#0x1c]
        0x0001c758:    9807        ..      LDR      r0,[sp,#0x1c]
        0x0001c75a:    6800        .h      LDR      r0,[r0,#0]
        0x0001c75c:    07c0        ..      LSLS     r0,r0,#31
        0x0001c75e:    b110        ..      CBZ      r0,0x1c766 ; hidd_control_xfer_cb + 594
        0x0001c760:    e7ff        ..      B        0x1c762 ; hidd_control_xfer_cb + 590
        0x0001c762:    be00        ..      BKPT     #0
        0x0001c764:    e7ff        ..      B        0x1c766 ; hidd_control_xfer_cb + 594
        0x0001c766:    e7ff        ..      B        0x1c768 ; hidd_control_xfer_cb + 596
        0x0001c768:    2000        .       MOVS     r0,#0
        0x0001c76a:    f88d0043    ..C.    STRB     r0,[sp,#0x43]
        0x0001c76e:    e0f3        ..      B        0x1c958 ; hidd_control_xfer_cb + 1092
        0x0001c770:    e7ff        ..      B        0x1c772 ; hidd_control_xfer_cb + 606
        0x0001c772:    f89d0042    ..B.    LDRB     r0,[sp,#0x42]
        0x0001c776:    990f        ..      LDR      r1,[sp,#0x3c]
        0x0001c778:    9a0d        ..      LDR      r2,[sp,#0x34]
        0x0001c77a:    3208        .2      ADDS     r2,r2,#8
        0x0001c77c:    f8bd3020    .. 0    LDRH     r3,[sp,#0x20]
        0x0001c780:    f001fe10    ....    BL       tud_control_xfer ; 0x1e3a4
        0x0001c784:    e7ff        ..      B        0x1c786 ; hidd_control_xfer_cb + 626
        0x0001c786:    e0dd        ..      B        0x1c944 ; hidd_control_xfer_cb + 1072
        0x0001c788:    f89d0041    ..A.    LDRB     r0,[sp,#0x41]
        0x0001c78c:    b9a0        ..      CBNZ     r0,0x1c7b8 ; hidd_control_xfer_cb + 676
        0x0001c78e:    e7ff        ..      B        0x1c790 ; hidd_control_xfer_cb + 636
        0x0001c790:    e7ff        ..      B        0x1c792 ; hidd_control_xfer_cb + 638
        0x0001c792:    980f        ..      LDR      r0,[sp,#0x3c]
        0x0001c794:    88c0        ..      LDRH     r0,[r0,#6]
        0x0001c796:    2841        A(      CMP      r0,#0x41
        0x0001c798:    d304        ..      BCC      0x1c7a4 ; hidd_control_xfer_cb + 656
        0x0001c79a:    e7ff        ..      B        0x1c79c ; hidd_control_xfer_cb + 648
        0x0001c79c:    2000        .       MOVS     r0,#0
        0x0001c79e:    f88d0043    ..C.    STRB     r0,[sp,#0x43]
        0x0001c7a2:    e0d9        ..      B        0x1c958 ; hidd_control_xfer_cb + 1092
        0x0001c7a4:    e7ff        ..      B        0x1c7a6 ; hidd_control_xfer_cb + 658
        0x0001c7a6:    f89d0042    ..B.    LDRB     r0,[sp,#0x42]
        0x0001c7aa:    990f        ..      LDR      r1,[sp,#0x3c]
        0x0001c7ac:    9a0d        ..      LDR      r2,[sp,#0x34]
        0x0001c7ae:    3248        H2      ADDS     r2,r2,#0x48
        0x0001c7b0:    88cb        ..      LDRH     r3,[r1,#6]
        0x0001c7b2:    f001fdf7    ....    BL       tud_control_xfer ; 0x1e3a4
        0x0001c7b6:    e059        Y.      B        0x1c86c ; hidd_control_xfer_cb + 856
        0x0001c7b8:    f89d0041    ..A.    LDRB     r0,[sp,#0x41]
        0x0001c7bc:    2802        .(      CMP      r0,#2
        0x0001c7be:    d154        T.      BNE      0x1c86a ; hidd_control_xfer_cb + 854
        0x0001c7c0:    e7ff        ..      B        0x1c7c2 ; hidd_control_xfer_cb + 686
        0x0001c7c2:    980f        ..      LDR      r0,[sp,#0x3c]
        0x0001c7c4:    8840        @.      LDRH     r0,[r0,#2]
        0x0001c7c6:    f8ad004e    ..N.    STRH     r0,[sp,#0x4e]
        0x0001c7ca:    f89d004f    ..O.    LDRB     r0,[sp,#0x4f]
        0x0001c7ce:    f88d001b    ....    STRB     r0,[sp,#0x1b]
        0x0001c7d2:    980f        ..      LDR      r0,[sp,#0x3c]
        0x0001c7d4:    8840        @.      LDRH     r0,[r0,#2]
        0x0001c7d6:    f8ad004c    ..L.    STRH     r0,[sp,#0x4c]
        0x0001c7da:    f8bd004c    ..L.    LDRH     r0,[sp,#0x4c]
        0x0001c7de:    f88d001a    ....    STRB     r0,[sp,#0x1a]
        0x0001c7e2:    980d        ..      LDR      r0,[sp,#0x34]
        0x0001c7e4:    3048        H0      ADDS     r0,r0,#0x48
        0x0001c7e6:    9005        ..      STR      r0,[sp,#0x14]
        0x0001c7e8:    980f        ..      LDR      r0,[sp,#0x3c]
        0x0001c7ea:    88c0        ..      LDRH     r0,[r0,#6]
        0x0001c7ec:    f8ad004a    ..J.    STRH     r0,[sp,#0x4a]
        0x0001c7f0:    2040        @       MOVS     r0,#0x40
        0x0001c7f2:    f8ad0048    ..H.    STRH     r0,[sp,#0x48]
        0x0001c7f6:    f8bd004a    ..J.    LDRH     r0,[sp,#0x4a]
        0x0001c7fa:    f8bd1048    ..H.    LDRH     r1,[sp,#0x48]
        0x0001c7fe:    4288        .B      CMP      r0,r1
        0x0001c800:    da04        ..      BGE      0x1c80c ; hidd_control_xfer_cb + 760
        0x0001c802:    e7ff        ..      B        0x1c804 ; hidd_control_xfer_cb + 752
        0x0001c804:    f8bd004a    ..J.    LDRH     r0,[sp,#0x4a]
        0x0001c808:    9001        ..      STR      r0,[sp,#4]
        0x0001c80a:    e003        ..      B        0x1c814 ; hidd_control_xfer_cb + 768
        0x0001c80c:    f8bd0048    ..H.    LDRH     r0,[sp,#0x48]
        0x0001c810:    9001        ..      STR      r0,[sp,#4]
        0x0001c812:    e7ff        ..      B        0x1c814 ; hidd_control_xfer_cb + 768
        0x0001c814:    9801        ..      LDR      r0,[sp,#4]
        0x0001c816:    f8ad0012    ....    STRH     r0,[sp,#0x12]
        0x0001c81a:    f89d001a    ....    LDRB     r0,[sp,#0x1a]
        0x0001c81e:    b1a8        ..      CBZ      r0,0x1c84c ; hidd_control_xfer_cb + 824
        0x0001c820:    e7ff        ..      B        0x1c822 ; hidd_control_xfer_cb + 782
        0x0001c822:    f8bd0012    ....    LDRH     r0,[sp,#0x12]
        0x0001c826:    2802        .(      CMP      r0,#2
        0x0001c828:    db10        ..      BLT      0x1c84c ; hidd_control_xfer_cb + 824
        0x0001c82a:    e7ff        ..      B        0x1c82c ; hidd_control_xfer_cb + 792
        0x0001c82c:    f89d001a    ....    LDRB     r0,[sp,#0x1a]
        0x0001c830:    9905        ..      LDR      r1,[sp,#0x14]
        0x0001c832:    7809        .x      LDRB     r1,[r1,#0]
        0x0001c834:    4288        .B      CMP      r0,r1
        0x0001c836:    d109        ..      BNE      0x1c84c ; hidd_control_xfer_cb + 824
        0x0001c838:    e7ff        ..      B        0x1c83a ; hidd_control_xfer_cb + 806
        0x0001c83a:    9805        ..      LDR      r0,[sp,#0x14]
        0x0001c83c:    3001        .0      ADDS     r0,#1
        0x0001c83e:    9005        ..      STR      r0,[sp,#0x14]
        0x0001c840:    f8bd0012    ....    LDRH     r0,[sp,#0x12]
        0x0001c844:    3801        .8      SUBS     r0,#1
        0x0001c846:    f8ad0012    ....    STRH     r0,[sp,#0x12]
        0x0001c84a:    e7ff        ..      B        0x1c84c ; hidd_control_xfer_cb + 824
        0x0001c84c:    f89d003b    ..;.    LDRB     r0,[sp,#0x3b]
        0x0001c850:    f89d101a    ....    LDRB     r1,[sp,#0x1a]
        0x0001c854:    f89d201b    ...     LDRB     r2,[sp,#0x1b]
        0x0001c858:    9b05        ..      LDR      r3,[sp,#0x14]
        0x0001c85a:    f8bdc012    ....    LDRH     r12,[sp,#0x12]
        0x0001c85e:    46ee        .F      MOV      lr,sp
        0x0001c860:    f8cec000    ....    STR      r12,[lr,#0]
        0x0001c864:    f001ff88    ....    BL       tud_hid_set_report_cb ; 0x1e778
        0x0001c868:    e7ff        ..      B        0x1c86a ; hidd_control_xfer_cb + 854
        0x0001c86a:    e7ff        ..      B        0x1c86c ; hidd_control_xfer_cb + 856
        0x0001c86c:    e06a        j.      B        0x1c944 ; hidd_control_xfer_cb + 1072
        0x0001c86e:    f89d0041    ..A.    LDRB     r0,[sp,#0x41]
        0x0001c872:    bb18        ..      CBNZ     r0,0x1c8bc ; hidd_control_xfer_cb + 936
        0x0001c874:    e7ff        ..      B        0x1c876 ; hidd_control_xfer_cb + 866
        0x0001c876:    980f        ..      LDR      r0,[sp,#0x3c]
        0x0001c878:    8840        @.      LDRH     r0,[r0,#2]
        0x0001c87a:    f8ad0046    ..F.    STRH     r0,[sp,#0x46]
        0x0001c87e:    f89d0047    ..G.    LDRB     r0,[sp,#0x47]
        0x0001c882:    990d        ..      LDR      r1,[sp,#0x34]
        0x0001c884:    7148        Hq      STRB     r0,[r1,#5]
        0x0001c886:    f2400000    @...    MOVW     r0,#0
        0x0001c88a:    f2c00000    ....    MOVT     r0,#0
        0x0001c88e:    b178        x.      CBZ      r0,0x1c8b0 ; hidd_control_xfer_cb + 924
        0x0001c890:    e7ff        ..      B        0x1c892 ; hidd_control_xfer_cb + 894
        0x0001c892:    e7ff        ..      B        0x1c894 ; hidd_control_xfer_cb + 896
        0x0001c894:    f89d003b    ..;.    LDRB     r0,[sp,#0x3b]
        0x0001c898:    990d        ..      LDR      r1,[sp,#0x34]
        0x0001c89a:    7949        Iy      LDRB     r1,[r1,#5]
        0x0001c89c:    f3af8000    ....    NOP.W    
        0x0001c8a0:    b920         .      CBNZ     r0,0x1c8ac ; hidd_control_xfer_cb + 920
        0x0001c8a2:    e7ff        ..      B        0x1c8a4 ; hidd_control_xfer_cb + 912
        0x0001c8a4:    2000        .       MOVS     r0,#0
        0x0001c8a6:    f88d0043    ..C.    STRB     r0,[sp,#0x43]
        0x0001c8aa:    e055        U.      B        0x1c958 ; hidd_control_xfer_cb + 1092
        0x0001c8ac:    e7ff        ..      B        0x1c8ae ; hidd_control_xfer_cb + 922
        0x0001c8ae:    e7ff        ..      B        0x1c8b0 ; hidd_control_xfer_cb + 924
        0x0001c8b0:    f89d0042    ..B.    LDRB     r0,[sp,#0x42]
        0x0001c8b4:    990f        ..      LDR      r1,[sp,#0x3c]
        0x0001c8b6:    f001fd5b    ..[.    BL       tud_control_status ; 0x1e370
        0x0001c8ba:    e7ff        ..      B        0x1c8bc ; hidd_control_xfer_cb + 936
        0x0001c8bc:    e042        B.      B        0x1c944 ; hidd_control_xfer_cb + 1072
        0x0001c8be:    f89d0041    ..A.    LDRB     r0,[sp,#0x41]
        0x0001c8c2:    b948        H.      CBNZ     r0,0x1c8d8 ; hidd_control_xfer_cb + 964
        0x0001c8c4:    e7ff        ..      B        0x1c8c6 ; hidd_control_xfer_cb + 946
        0x0001c8c6:    f89d0042    ..B.    LDRB     r0,[sp,#0x42]
        0x0001c8ca:    990f        ..      LDR      r1,[sp,#0x3c]
        0x0001c8cc:    9a0d        ..      LDR      r2,[sp,#0x34]
        0x0001c8ce:    3205        .2      ADDS     r2,#5
        0x0001c8d0:    2301        .#      MOVS     r3,#1
        0x0001c8d2:    f001fd67    ..g.    BL       tud_control_xfer ; 0x1e3a4
        0x0001c8d6:    e7ff        ..      B        0x1c8d8 ; hidd_control_xfer_cb + 964
        0x0001c8d8:    e034        4.      B        0x1c944 ; hidd_control_xfer_cb + 1072
        0x0001c8da:    f89d0041    ..A.    LDRB     r0,[sp,#0x41]
        0x0001c8de:    b948        H.      CBNZ     r0,0x1c8f4 ; hidd_control_xfer_cb + 992
        0x0001c8e0:    e7ff        ..      B        0x1c8e2 ; hidd_control_xfer_cb + 974
        0x0001c8e2:    f89d0042    ..B.    LDRB     r0,[sp,#0x42]
        0x0001c8e6:    990f        ..      LDR      r1,[sp,#0x3c]
        0x0001c8e8:    9a0d        ..      LDR      r2,[sp,#0x34]
        0x0001c8ea:    3204        .2      ADDS     r2,#4
        0x0001c8ec:    2301        .#      MOVS     r3,#1
        0x0001c8ee:    f001fd59    ..Y.    BL       tud_control_xfer ; 0x1e3a4
        0x0001c8f2:    e7ff        ..      B        0x1c8f4 ; hidd_control_xfer_cb + 992
        0x0001c8f4:    e026        &.      B        0x1c944 ; hidd_control_xfer_cb + 1072
        0x0001c8f6:    f89d0041    ..A.    LDRB     r0,[sp,#0x41]
        0x0001c8fa:    b930        0.      CBNZ     r0,0x1c90a ; hidd_control_xfer_cb + 1014
        0x0001c8fc:    e7ff        ..      B        0x1c8fe ; hidd_control_xfer_cb + 1002
        0x0001c8fe:    f89d0042    ..B.    LDRB     r0,[sp,#0x42]
        0x0001c902:    990f        ..      LDR      r1,[sp,#0x3c]
        0x0001c904:    f001fd34    ..4.    BL       tud_control_status ; 0x1e370
        0x0001c908:    e017        ..      B        0x1c93a ; hidd_control_xfer_cb + 1062
        0x0001c90a:    f89d0041    ..A.    LDRB     r0,[sp,#0x41]
        0x0001c90e:    2802        .(      CMP      r0,#2
        0x0001c910:    d112        ..      BNE      0x1c938 ; hidd_control_xfer_cb + 1060
        0x0001c912:    e7ff        ..      B        0x1c914 ; hidd_control_xfer_cb + 1024
        0x0001c914:    980f        ..      LDR      r0,[sp,#0x3c]
        0x0001c916:    7880        .x      LDRB     r0,[r0,#2]
        0x0001c918:    990d        ..      LDR      r1,[sp,#0x34]
        0x0001c91a:    7108        .q      STRB     r0,[r1,#4]
        0x0001c91c:    f2400000    @...    MOVW     r0,#0
        0x0001c920:    f2c00000    ....    MOVT     r0,#0
        0x0001c924:    b138        8.      CBZ      r0,0x1c936 ; hidd_control_xfer_cb + 1058
        0x0001c926:    e7ff        ..      B        0x1c928 ; hidd_control_xfer_cb + 1044
        0x0001c928:    f89d003b    ..;.    LDRB     r0,[sp,#0x3b]
        0x0001c92c:    990d        ..      LDR      r1,[sp,#0x34]
        0x0001c92e:    7909        .y      LDRB     r1,[r1,#4]
        0x0001c930:    f3af8000    ....    NOP.W    
        0x0001c934:    e7ff        ..      B        0x1c936 ; hidd_control_xfer_cb + 1058
        0x0001c936:    e7ff        ..      B        0x1c938 ; hidd_control_xfer_cb + 1060
        0x0001c938:    e7ff        ..      B        0x1c93a ; hidd_control_xfer_cb + 1062
        0x0001c93a:    e003        ..      B        0x1c944 ; hidd_control_xfer_cb + 1072
        0x0001c93c:    2000        .       MOVS     r0,#0
        0x0001c93e:    f88d0043    ..C.    STRB     r0,[sp,#0x43]
        0x0001c942:    e009        ..      B        0x1c958 ; hidd_control_xfer_cb + 1092
        0x0001c944:    e003        ..      B        0x1c94e ; hidd_control_xfer_cb + 1082
        0x0001c946:    2000        .       MOVS     r0,#0
        0x0001c948:    f88d0043    ..C.    STRB     r0,[sp,#0x43]
        0x0001c94c:    e004        ..      B        0x1c958 ; hidd_control_xfer_cb + 1092
        0x0001c94e:    e7ff        ..      B        0x1c950 ; hidd_control_xfer_cb + 1084
        0x0001c950:    2001        .       MOVS     r0,#1
        0x0001c952:    f88d0043    ..C.    STRB     r0,[sp,#0x43]
        0x0001c956:    e7ff        ..      B        0x1c958 ; hidd_control_xfer_cb + 1092
        0x0001c958:    f89d0043    ..C.    LDRB     r0,[sp,#0x43]
        0x0001c95c:    b016        ..      ADD      sp,sp,#0x58
        0x0001c95e:    bd80        ..      POP      {r7,pc}
    hidd_init
        0x0001c960:    b580        ..      PUSH     {r7,lr}
        0x0001c962:    2000        .       MOVS     r0,#0
        0x0001c964:    f000f93e    ..>.    BL       hidd_reset ; 0x1cbe4
        0x0001c968:    bd80        ..      POP      {r7,pc}
        0x0001c96a:    0000        ..      MOVS     r0,r0
    hidd_open
        0x0001c96c:    b580        ..      PUSH     {r7,lr}
        0x0001c96e:    b08e        ..      SUB      sp,sp,#0x38
        0x0001c970:    f88d0031    ..1.    STRB     r0,[sp,#0x31]
        0x0001c974:    910b        ..      STR      r1,[sp,#0x2c]
        0x0001c976:    f8ad202a    ..*     STRH     r2,[sp,#0x2a]
        0x0001c97a:    e7ff        ..      B        0x1c97c ; hidd_open + 16
        0x0001c97c:    980b        ..      LDR      r0,[sp,#0x2c]
        0x0001c97e:    7940        @y      LDRB     r0,[r0,#5]
        0x0001c980:    2803        .(      CMP      r0,#3
        0x0001c982:    d004        ..      BEQ      0x1c98e ; hidd_open + 34
        0x0001c984:    e7ff        ..      B        0x1c986 ; hidd_open + 26
        0x0001c986:    2000        .       MOVS     r0,#0
        0x0001c988:    f8ad0032    ..2.    STRH     r0,[sp,#0x32]
        0x0001c98c:    e126        &.      B        0x1cbdc ; hidd_open + 624
        0x0001c98e:    e7ff        ..      B        0x1c990 ; hidd_open + 36
        0x0001c990:    980b        ..      LDR      r0,[sp,#0x2c]
        0x0001c992:    7900        .y      LDRB     r0,[r0,#4]
        0x0001c994:    ebc000c0    ....    RSB      r0,r0,r0,LSL #3
        0x0001c998:    3012        .0      ADDS     r0,r0,#0x12
        0x0001c99a:    f8ad0028    ..(.    STRH     r0,[sp,#0x28]
        0x0001c99e:    e7ff        ..      B        0x1c9a0 ; hidd_open + 52
        0x0001c9a0:    f8bd002a    ..*.    LDRH     r0,[sp,#0x2a]
        0x0001c9a4:    f8bd1028    ..(.    LDRH     r1,[sp,#0x28]
        0x0001c9a8:    4288        .B      CMP      r0,r1
        0x0001c9aa:    da1d        ..      BGE      0x1c9e8 ; hidd_open + 124
        0x0001c9ac:    e7ff        ..      B        0x1c9ae ; hidd_open + 66
        0x0001c9ae:    f64f3070    O.p0    MOV      r0,#0xfb70
        0x0001c9b2:    f2c00001    ....    MOVT     r0,#1
        0x0001c9b6:    f24001e5    @...    MOVW     r1,#0xe5
        0x0001c9ba:    f2c00102    ....    MOVT     r1,#2
        0x0001c9be:    22be        ."      MOVS     r2,#0xbe
        0x0001c9c0:    f7fefbcc    ....    BL       am_util_stdio_printf ; 0x1b15c
        0x0001c9c4:    e7ff        ..      B        0x1c9c6 ; hidd_open + 90
        0x0001c9c6:    f64e50f0    N..P    MOV      r0,#0xedf0
        0x0001c9ca:    f2ce0000    ....    MOVT     r0,#0xe000
        0x0001c9ce:    9009        ..      STR      r0,[sp,#0x24]
        0x0001c9d0:    9809        ..      LDR      r0,[sp,#0x24]
        0x0001c9d2:    6800        .h      LDR      r0,[r0,#0]
        0x0001c9d4:    07c0        ..      LSLS     r0,r0,#31
        0x0001c9d6:    b110        ..      CBZ      r0,0x1c9de ; hidd_open + 114
        0x0001c9d8:    e7ff        ..      B        0x1c9da ; hidd_open + 110
        0x0001c9da:    be00        ..      BKPT     #0
        0x0001c9dc:    e7ff        ..      B        0x1c9de ; hidd_open + 114
        0x0001c9de:    e7ff        ..      B        0x1c9e0 ; hidd_open + 116
        0x0001c9e0:    2000        .       MOVS     r0,#0
        0x0001c9e2:    f8ad0032    ..2.    STRH     r0,[sp,#0x32]
        0x0001c9e6:    e0f9        ..      B        0x1cbdc ; hidd_open + 624
        0x0001c9e8:    e7ff        ..      B        0x1c9ea ; hidd_open + 126
        0x0001c9ea:    2000        .       MOVS     r0,#0
        0x0001c9ec:    9008        ..      STR      r0,[sp,#0x20]
        0x0001c9ee:    f88d001f    ....    STRB     r0,[sp,#0x1f]
        0x0001c9f2:    e7ff        ..      B        0x1c9f4 ; hidd_open + 136
        0x0001c9f4:    f89d001f    ....    LDRB     r0,[sp,#0x1f]
        0x0001c9f8:    2800        .(      CMP      r0,#0
        0x0001c9fa:    dc1e        ..      BGT      0x1ca3a ; hidd_open + 206
        0x0001c9fc:    e7ff        ..      B        0x1c9fe ; hidd_open + 146
        0x0001c9fe:    f89d001f    ....    LDRB     r0,[sp,#0x1f]
        0x0001ca02:    f2401224    @.$.    MOVW     r2,#0x124
        0x0001ca06:    f2c10200    ....    MOVT     r2,#0x1000
        0x0001ca0a:    218c        .!      MOVS     r1,#0x8c
        0x0001ca0c:    fb102001    ...     SMLABB   r0,r0,r1,r2
        0x0001ca10:    7840        @x      LDRB     r0,[r0,#1]
        0x0001ca12:    b958        X.      CBNZ     r0,0x1ca2c ; hidd_open + 192
        0x0001ca14:    e7ff        ..      B        0x1ca16 ; hidd_open + 170
        0x0001ca16:    f89d001f    ....    LDRB     r0,[sp,#0x1f]
        0x0001ca1a:    f2401224    @.$.    MOVW     r2,#0x124
        0x0001ca1e:    f2c10200    ....    MOVT     r2,#0x1000
        0x0001ca22:    218c        .!      MOVS     r1,#0x8c
        0x0001ca24:    fb102001    ...     SMLABB   r0,r0,r1,r2
        0x0001ca28:    9008        ..      STR      r0,[sp,#0x20]
        0x0001ca2a:    e006        ..      B        0x1ca3a ; hidd_open + 206
        0x0001ca2c:    e7ff        ..      B        0x1ca2e ; hidd_open + 194
        0x0001ca2e:    f89d001f    ....    LDRB     r0,[sp,#0x1f]
        0x0001ca32:    3001        .0      ADDS     r0,#1
        0x0001ca34:    f88d001f    ....    STRB     r0,[sp,#0x1f]
        0x0001ca38:    e7dc        ..      B        0x1c9f4 ; hidd_open + 136
        0x0001ca3a:    e7ff        ..      B        0x1ca3c ; hidd_open + 208
        0x0001ca3c:    9808        ..      LDR      r0,[sp,#0x20]
        0x0001ca3e:    b9e8        ..      CBNZ     r0,0x1ca7c ; hidd_open + 272
        0x0001ca40:    e7ff        ..      B        0x1ca42 ; hidd_open + 214
        0x0001ca42:    f64f3070    O.p0    MOV      r0,#0xfb70
        0x0001ca46:    f2c00001    ....    MOVT     r0,#1
        0x0001ca4a:    f24001e5    @...    MOVW     r1,#0xe5
        0x0001ca4e:    f2c00102    ....    MOVT     r1,#2
        0x0001ca52:    22cb        ."      MOVS     r2,#0xcb
        0x0001ca54:    f7fefb82    ....    BL       am_util_stdio_printf ; 0x1b15c
        0x0001ca58:    e7ff        ..      B        0x1ca5a ; hidd_open + 238
        0x0001ca5a:    f64e50f0    N..P    MOV      r0,#0xedf0
        0x0001ca5e:    f2ce0000    ....    MOVT     r0,#0xe000
        0x0001ca62:    9006        ..      STR      r0,[sp,#0x18]
        0x0001ca64:    9806        ..      LDR      r0,[sp,#0x18]
        0x0001ca66:    6800        .h      LDR      r0,[r0,#0]
        0x0001ca68:    07c0        ..      LSLS     r0,r0,#31
        0x0001ca6a:    b110        ..      CBZ      r0,0x1ca72 ; hidd_open + 262
        0x0001ca6c:    e7ff        ..      B        0x1ca6e ; hidd_open + 258
        0x0001ca6e:    be00        ..      BKPT     #0
        0x0001ca70:    e7ff        ..      B        0x1ca72 ; hidd_open + 262
        0x0001ca72:    e7ff        ..      B        0x1ca74 ; hidd_open + 264
        0x0001ca74:    2000        .       MOVS     r0,#0
        0x0001ca76:    f8ad0032    ..2.    STRH     r0,[sp,#0x32]
        0x0001ca7a:    e0af        ..      B        0x1cbdc ; hidd_open + 624
        0x0001ca7c:    e7ff        ..      B        0x1ca7e ; hidd_open + 274
        0x0001ca7e:    980b        ..      LDR      r0,[sp,#0x2c]
        0x0001ca80:    9005        ..      STR      r0,[sp,#0x14]
        0x0001ca82:    9805        ..      LDR      r0,[sp,#0x14]
        0x0001ca84:    f001fa5e    ..^.    BL       tu_desc_next ; 0x1df44
        0x0001ca88:    9005        ..      STR      r0,[sp,#0x14]
        0x0001ca8a:    e7ff        ..      B        0x1ca8c ; hidd_open + 288
        0x0001ca8c:    9805        ..      LDR      r0,[sp,#0x14]
        0x0001ca8e:    f001fa6f    ..o.    BL       tu_desc_type ; 0x1df70
        0x0001ca92:    2821        !(      CMP      r0,#0x21
        0x0001ca94:    d01d        ..      BEQ      0x1cad2 ; hidd_open + 358
        0x0001ca96:    e7ff        ..      B        0x1ca98 ; hidd_open + 300
        0x0001ca98:    f64f3070    O.p0    MOV      r0,#0xfb70
        0x0001ca9c:    f2c00001    ....    MOVT     r0,#1
        0x0001caa0:    f24001e5    @...    MOVW     r1,#0xe5
        0x0001caa4:    f2c00102    ....    MOVT     r1,#2
        0x0001caa8:    22d1        ."      MOVS     r2,#0xd1
        0x0001caaa:    f7fefb57    ..W.    BL       am_util_stdio_printf ; 0x1b15c
        0x0001caae:    e7ff        ..      B        0x1cab0 ; hidd_open + 324
        0x0001cab0:    f64e50f0    N..P    MOV      r0,#0xedf0
        0x0001cab4:    f2ce0000    ....    MOVT     r0,#0xe000
        0x0001cab8:    9004        ..      STR      r0,[sp,#0x10]
        0x0001caba:    9804        ..      LDR      r0,[sp,#0x10]
        0x0001cabc:    6800        .h      LDR      r0,[r0,#0]
        0x0001cabe:    07c0        ..      LSLS     r0,r0,#31
        0x0001cac0:    b110        ..      CBZ      r0,0x1cac8 ; hidd_open + 348
        0x0001cac2:    e7ff        ..      B        0x1cac4 ; hidd_open + 344
        0x0001cac4:    be00        ..      BKPT     #0
        0x0001cac6:    e7ff        ..      B        0x1cac8 ; hidd_open + 348
        0x0001cac8:    e7ff        ..      B        0x1caca ; hidd_open + 350
        0x0001caca:    2000        .       MOVS     r0,#0
        0x0001cacc:    f8ad0032    ..2.    STRH     r0,[sp,#0x32]
        0x0001cad0:    e084        ..      B        0x1cbdc ; hidd_open + 624
        0x0001cad2:    e7ff        ..      B        0x1cad4 ; hidd_open + 360
        0x0001cad4:    9805        ..      LDR      r0,[sp,#0x14]
        0x0001cad6:    9908        ..      LDR      r1,[sp,#0x20]
        0x0001cad8:    f8c10088    ....    STR      r0,[r1,#0x88]
        0x0001cadc:    9805        ..      LDR      r0,[sp,#0x14]
        0x0001cade:    f001fa31    ..1.    BL       tu_desc_next ; 0x1df44
        0x0001cae2:    9005        ..      STR      r0,[sp,#0x14]
        0x0001cae4:    e7ff        ..      B        0x1cae6 ; hidd_open + 378
        0x0001cae6:    f89d0031    ..1.    LDRB     r0,[sp,#0x31]
        0x0001caea:    9905        ..      LDR      r1,[sp,#0x14]
        0x0001caec:    9a0b        ..      LDR      r2,[sp,#0x2c]
        0x0001caee:    7912        .y      LDRB     r2,[r2,#4]
        0x0001caf0:    f8ddc020    .. .    LDR      r12,[sp,#0x20]
        0x0001caf4:    f10c0302    ....    ADD      r3,r12,#2
        0x0001caf8:    f10c0e01    ....    ADD      lr,r12,#1
        0x0001cafc:    46ec        .F      MOV      r12,sp
        0x0001cafe:    f8cce004    ....    STR      lr,[r12,#4]
        0x0001cb02:    f8cc3000    ...0    STR      r3,[r12,#0]
        0x0001cb06:    2303        .#      MOVS     r3,#3
        0x0001cb08:    f002fce6    ....    BL       usbd_open_edpt_pair ; 0x1f4d8
        0x0001cb0c:    b9e8        ..      CBNZ     r0,0x1cb4a ; hidd_open + 478
        0x0001cb0e:    e7ff        ..      B        0x1cb10 ; hidd_open + 420
        0x0001cb10:    f64f3070    O.p0    MOV      r0,#0xfb70
        0x0001cb14:    f2c00001    ....    MOVT     r0,#1
        0x0001cb18:    f24001e5    @...    MOVW     r1,#0xe5
        0x0001cb1c:    f2c00102    ....    MOVT     r1,#2
        0x0001cb20:    22d6        ."      MOVS     r2,#0xd6
        0x0001cb22:    f7fefb1b    ....    BL       am_util_stdio_printf ; 0x1b15c
        0x0001cb26:    e7ff        ..      B        0x1cb28 ; hidd_open + 444
        0x0001cb28:    f64e50f0    N..P    MOV      r0,#0xedf0
        0x0001cb2c:    f2ce0000    ....    MOVT     r0,#0xe000
        0x0001cb30:    9003        ..      STR      r0,[sp,#0xc]
        0x0001cb32:    9803        ..      LDR      r0,[sp,#0xc]
        0x0001cb34:    6800        .h      LDR      r0,[r0,#0]
        0x0001cb36:    07c0        ..      LSLS     r0,r0,#31
        0x0001cb38:    b110        ..      CBZ      r0,0x1cb40 ; hidd_open + 468
        0x0001cb3a:    e7ff        ..      B        0x1cb3c ; hidd_open + 464
        0x0001cb3c:    be00        ..      BKPT     #0
        0x0001cb3e:    e7ff        ..      B        0x1cb40 ; hidd_open + 468
        0x0001cb40:    e7ff        ..      B        0x1cb42 ; hidd_open + 470
        0x0001cb42:    2000        .       MOVS     r0,#0
        0x0001cb44:    f8ad0032    ..2.    STRH     r0,[sp,#0x32]
        0x0001cb48:    e048        H.      B        0x1cbdc ; hidd_open + 624
        0x0001cb4a:    e7ff        ..      B        0x1cb4c ; hidd_open + 480
        0x0001cb4c:    980b        ..      LDR      r0,[sp,#0x2c]
        0x0001cb4e:    7980        .y      LDRB     r0,[r0,#6]
        0x0001cb50:    2801        .(      CMP      r0,#1
        0x0001cb52:    d105        ..      BNE      0x1cb60 ; hidd_open + 500
        0x0001cb54:    e7ff        ..      B        0x1cb56 ; hidd_open + 490
        0x0001cb56:    980b        ..      LDR      r0,[sp,#0x2c]
        0x0001cb58:    79c0        .y      LDRB     r0,[r0,#7]
        0x0001cb5a:    9908        ..      LDR      r1,[sp,#0x20]
        0x0001cb5c:    70c8        .p      STRB     r0,[r1,#3]
        0x0001cb5e:    e7ff        ..      B        0x1cb60 ; hidd_open + 500
        0x0001cb60:    9908        ..      LDR      r1,[sp,#0x20]
        0x0001cb62:    2001        .       MOVS     r0,#1
        0x0001cb64:    7108        .q      STRB     r0,[r1,#4]
        0x0001cb66:    980b        ..      LDR      r0,[sp,#0x2c]
        0x0001cb68:    7880        .x      LDRB     r0,[r0,#2]
        0x0001cb6a:    9908        ..      LDR      r1,[sp,#0x20]
        0x0001cb6c:    7008        .p      STRB     r0,[r1,#0]
        0x0001cb6e:    9808        ..      LDR      r0,[sp,#0x20]
        0x0001cb70:    f8d00088    ....    LDR      r0,[r0,#0x88]
        0x0001cb74:    3007        .0      ADDS     r0,#7
        0x0001cb76:    900d        ..      STR      r0,[sp,#0x34]
        0x0001cb78:    980d        ..      LDR      r0,[sp,#0x34]
        0x0001cb7a:    8800        ..      LDRH     r0,[r0,#0]
        0x0001cb7c:    9908        ..      LDR      r1,[sp,#0x20]
        0x0001cb7e:    80c8        ..      STRH     r0,[r1,#6]
        0x0001cb80:    9808        ..      LDR      r0,[sp,#0x20]
        0x0001cb82:    7880        .x      LDRB     r0,[r0,#2]
        0x0001cb84:    b328        (.      CBZ      r0,0x1cbd2 ; hidd_open + 614
        0x0001cb86:    e7ff        ..      B        0x1cb88 ; hidd_open + 540
        0x0001cb88:    f89d0031    ..1.    LDRB     r0,[sp,#0x31]
        0x0001cb8c:    9a08        ..      LDR      r2,[sp,#0x20]
        0x0001cb8e:    7891        .x      LDRB     r1,[r2,#2]
        0x0001cb90:    3248        H2      ADDS     r2,r2,#0x48
        0x0001cb92:    2340        @#      MOVS     r3,#0x40
        0x0001cb94:    f002fbfc    ....    BL       usbd_edpt_xfer ; 0x1f390
        0x0001cb98:    b9d0        ..      CBNZ     r0,0x1cbd0 ; hidd_open + 612
        0x0001cb9a:    e7ff        ..      B        0x1cb9c ; hidd_open + 560
        0x0001cb9c:    f240006d    @.m.    MOVW     r0,#0x6d
        0x0001cba0:    f2c00002    ....    MOVT     r0,#2
        0x0001cba4:    f240017e    @.~.    MOVW     r1,#0x7e
        0x0001cba8:    f2c00102    ....    MOVT     r1,#2
        0x0001cbac:    22e5        ."      MOVS     r2,#0xe5
        0x0001cbae:    f7fefad5    ....    BL       am_util_stdio_printf ; 0x1b15c
        0x0001cbb2:    e7ff        ..      B        0x1cbb4 ; hidd_open + 584
        0x0001cbb4:    f64e50f0    N..P    MOV      r0,#0xedf0
        0x0001cbb8:    f2ce0000    ....    MOVT     r0,#0xe000
        0x0001cbbc:    9002        ..      STR      r0,[sp,#8]
        0x0001cbbe:    9802        ..      LDR      r0,[sp,#8]
        0x0001cbc0:    6800        .h      LDR      r0,[r0,#0]
        0x0001cbc2:    07c0        ..      LSLS     r0,r0,#31
        0x0001cbc4:    b110        ..      CBZ      r0,0x1cbcc ; hidd_open + 608
        0x0001cbc6:    e7ff        ..      B        0x1cbc8 ; hidd_open + 604
        0x0001cbc8:    be00        ..      BKPT     #0
        0x0001cbca:    e7ff        ..      B        0x1cbcc ; hidd_open + 608
        0x0001cbcc:    e7ff        ..      B        0x1cbce ; hidd_open + 610
        0x0001cbce:    e7ff        ..      B        0x1cbd0 ; hidd_open + 612
        0x0001cbd0:    e7ff        ..      B        0x1cbd2 ; hidd_open + 614
        0x0001cbd2:    f8bd0028    ..(.    LDRH     r0,[sp,#0x28]
        0x0001cbd6:    f8ad0032    ..2.    STRH     r0,[sp,#0x32]
        0x0001cbda:    e7ff        ..      B        0x1cbdc ; hidd_open + 624
        0x0001cbdc:    f8bd0032    ..2.    LDRH     r0,[sp,#0x32]
        0x0001cbe0:    b00e        ..      ADD      sp,sp,#0x38
        0x0001cbe2:    bd80        ..      POP      {r7,pc}
    hidd_reset
        0x0001cbe4:    b580        ..      PUSH     {r7,lr}
        0x0001cbe6:    b082        ..      SUB      sp,sp,#8
        0x0001cbe8:    f88d0007    ....    STRB     r0,[sp,#7]
        0x0001cbec:    f2401024    @.$.    MOVW     r0,#0x124
        0x0001cbf0:    f2c10000    ....    MOVT     r0,#0x1000
        0x0001cbf4:    218c        .!      MOVS     r1,#0x8c
        0x0001cbf6:    f7fbfc7f    ....    BL       __aeabi_memclr4 ; 0x184f8
        0x0001cbfa:    b002        ..      ADD      sp,sp,#8
        0x0001cbfc:    bd80        ..      POP      {r7,pc}
        0x0001cbfe:    0000        ..      MOVS     r0,r0
    hidd_xfer_cb
        0x0001cc00:    b580        ..      PUSH     {r7,lr}
        0x0001cc02:    b088        ..      SUB      sp,sp,#0x20
        0x0001cc04:    f88d001e    ....    STRB     r0,[sp,#0x1e]
        0x0001cc08:    f88d101d    ....    STRB     r1,[sp,#0x1d]
        0x0001cc0c:    f88d201c    ...     STRB     r2,[sp,#0x1c]
        0x0001cc10:    9306        ..      STR      r3,[sp,#0x18]
        0x0001cc12:    2000        .       MOVS     r0,#0
        0x0001cc14:    f88d0017    ....    STRB     r0,[sp,#0x17]
        0x0001cc18:    f2401124    @.$.    MOVW     r1,#0x124
        0x0001cc1c:    f2c10100    ....    MOVT     r1,#0x1000
        0x0001cc20:    9104        ..      STR      r1,[sp,#0x10]
        0x0001cc22:    f88d0017    ....    STRB     r0,[sp,#0x17]
        0x0001cc26:    e7ff        ..      B        0x1cc28 ; hidd_xfer_cb + 40
        0x0001cc28:    f89d0017    ....    LDRB     r0,[sp,#0x17]
        0x0001cc2c:    2800        .(      CMP      r0,#0
        0x0001cc2e:    dc20         .      BGT      0x1cc72 ; hidd_xfer_cb + 114
        0x0001cc30:    e7ff        ..      B        0x1cc32 ; hidd_xfer_cb + 50
        0x0001cc32:    f89d0017    ....    LDRB     r0,[sp,#0x17]
        0x0001cc36:    f2401224    @.$.    MOVW     r2,#0x124
        0x0001cc3a:    f2c10200    ....    MOVT     r2,#0x1000
        0x0001cc3e:    218c        .!      MOVS     r1,#0x8c
        0x0001cc40:    fb102001    ...     SMLABB   r0,r0,r1,r2
        0x0001cc44:    9004        ..      STR      r0,[sp,#0x10]
        0x0001cc46:    f89d001d    ....    LDRB     r0,[sp,#0x1d]
        0x0001cc4a:    9904        ..      LDR      r1,[sp,#0x10]
        0x0001cc4c:    7889        .x      LDRB     r1,[r1,#2]
        0x0001cc4e:    4288        .B      CMP      r0,r1
        0x0001cc50:    d007        ..      BEQ      0x1cc62 ; hidd_xfer_cb + 98
        0x0001cc52:    e7ff        ..      B        0x1cc54 ; hidd_xfer_cb + 84
        0x0001cc54:    f89d001d    ....    LDRB     r0,[sp,#0x1d]
        0x0001cc58:    9904        ..      LDR      r1,[sp,#0x10]
        0x0001cc5a:    7849        Ix      LDRB     r1,[r1,#1]
        0x0001cc5c:    4288        .B      CMP      r0,r1
        0x0001cc5e:    d101        ..      BNE      0x1cc64 ; hidd_xfer_cb + 100
        0x0001cc60:    e7ff        ..      B        0x1cc62 ; hidd_xfer_cb + 98
        0x0001cc62:    e006        ..      B        0x1cc72 ; hidd_xfer_cb + 114
        0x0001cc64:    e7ff        ..      B        0x1cc66 ; hidd_xfer_cb + 102
        0x0001cc66:    f89d0017    ....    LDRB     r0,[sp,#0x17]
        0x0001cc6a:    3001        .0      ADDS     r0,#1
        0x0001cc6c:    f88d0017    ....    STRB     r0,[sp,#0x17]
        0x0001cc70:    e7da        ..      B        0x1cc28 ; hidd_xfer_cb + 40
        0x0001cc72:    e7ff        ..      B        0x1cc74 ; hidd_xfer_cb + 116
        0x0001cc74:    f89d0017    ....    LDRB     r0,[sp,#0x17]
        0x0001cc78:    2801        .(      CMP      r0,#1
        0x0001cc7a:    db1e        ..      BLT      0x1ccba ; hidd_xfer_cb + 186
        0x0001cc7c:    e7ff        ..      B        0x1cc7e ; hidd_xfer_cb + 126
        0x0001cc7e:    f64f3070    O.p0    MOV      r0,#0xfb70
        0x0001cc82:    f2c00001    ....    MOVT     r0,#1
        0x0001cc86:    f24001c3    @...    MOVW     r1,#0xc3
        0x0001cc8a:    f2c00102    ....    MOVT     r1,#2
        0x0001cc8e:    f240128d    @...    MOV      r2,#0x18d
        0x0001cc92:    f7fefa63    ..c.    BL       am_util_stdio_printf ; 0x1b15c
        0x0001cc96:    e7ff        ..      B        0x1cc98 ; hidd_xfer_cb + 152
        0x0001cc98:    f64e50f0    N..P    MOV      r0,#0xedf0
        0x0001cc9c:    f2ce0000    ....    MOVT     r0,#0xe000
        0x0001cca0:    9003        ..      STR      r0,[sp,#0xc]
        0x0001cca2:    9803        ..      LDR      r0,[sp,#0xc]
        0x0001cca4:    6800        .h      LDR      r0,[r0,#0]
        0x0001cca6:    07c0        ..      LSLS     r0,r0,#31
        0x0001cca8:    b110        ..      CBZ      r0,0x1ccb0 ; hidd_xfer_cb + 176
        0x0001ccaa:    e7ff        ..      B        0x1ccac ; hidd_xfer_cb + 172
        0x0001ccac:    be00        ..      BKPT     #0
        0x0001ccae:    e7ff        ..      B        0x1ccb0 ; hidd_xfer_cb + 176
        0x0001ccb0:    e7ff        ..      B        0x1ccb2 ; hidd_xfer_cb + 178
        0x0001ccb2:    2000        .       MOVS     r0,#0
        0x0001ccb4:    f88d001f    ....    STRB     r0,[sp,#0x1f]
        0x0001ccb8:    e05b        [.      B        0x1cd72 ; hidd_xfer_cb + 370
        0x0001ccba:    e7ff        ..      B        0x1ccbc ; hidd_xfer_cb + 188
        0x0001ccbc:    f89d001d    ....    LDRB     r0,[sp,#0x1d]
        0x0001ccc0:    9904        ..      LDR      r1,[sp,#0x10]
        0x0001ccc2:    7849        Ix      LDRB     r1,[r1,#1]
        0x0001ccc4:    4288        .B      CMP      r0,r1
        0x0001ccc6:    d110        ..      BNE      0x1ccea ; hidd_xfer_cb + 234
        0x0001ccc8:    e7ff        ..      B        0x1ccca ; hidd_xfer_cb + 202
        0x0001ccca:    f2400000    @...    MOVW     r0,#0
        0x0001ccce:    f2c00000    ....    MOVT     r0,#0
        0x0001ccd2:    b148        H.      CBZ      r0,0x1cce8 ; hidd_xfer_cb + 232
        0x0001ccd4:    e7ff        ..      B        0x1ccd6 ; hidd_xfer_cb + 214
        0x0001ccd6:    f89d0017    ....    LDRB     r0,[sp,#0x17]
        0x0001ccda:    9904        ..      LDR      r1,[sp,#0x10]
        0x0001ccdc:    3108        .1      ADDS     r1,r1,#8
        0x0001ccde:    f89d2018    ...     LDRB     r2,[sp,#0x18]
        0x0001cce2:    f3af8000    ....    NOP.W    
        0x0001cce6:    e7ff        ..      B        0x1cce8 ; hidd_xfer_cb + 232
        0x0001cce8:    e03f        ?.      B        0x1cd6a ; hidd_xfer_cb + 362
        0x0001ccea:    f89d001d    ....    LDRB     r0,[sp,#0x1d]
        0x0001ccee:    9904        ..      LDR      r1,[sp,#0x10]
        0x0001ccf0:    7889        .x      LDRB     r1,[r1,#2]
        0x0001ccf2:    4288        .B      CMP      r0,r1
        0x0001ccf4:    d138        8.      BNE      0x1cd68 ; hidd_xfer_cb + 360
        0x0001ccf6:    e7ff        ..      B        0x1ccf8 ; hidd_xfer_cb + 248
        0x0001ccf8:    f89d0017    ....    LDRB     r0,[sp,#0x17]
        0x0001ccfc:    9904        ..      LDR      r1,[sp,#0x10]
        0x0001ccfe:    f1010348    ..H.    ADD      r3,r1,#0x48
        0x0001cd02:    f8bd1018    ....    LDRH     r1,[sp,#0x18]
        0x0001cd06:    466a        jF      MOV      r2,sp
        0x0001cd08:    6011        .`      STR      r1,[r2,#0]
        0x0001cd0a:    2200        ."      MOVS     r2,#0
        0x0001cd0c:    4611        .F      MOV      r1,r2
        0x0001cd0e:    f001fd33    ..3.    BL       tud_hid_set_report_cb ; 0x1e778
        0x0001cd12:    e7ff        ..      B        0x1cd14 ; hidd_xfer_cb + 276
        0x0001cd14:    f89d001e    ....    LDRB     r0,[sp,#0x1e]
        0x0001cd18:    9a04        ..      LDR      r2,[sp,#0x10]
        0x0001cd1a:    7891        .x      LDRB     r1,[r2,#2]
        0x0001cd1c:    3248        H2      ADDS     r2,r2,#0x48
        0x0001cd1e:    2340        @#      MOVS     r3,#0x40
        0x0001cd20:    f002fb36    ..6.    BL       usbd_edpt_xfer ; 0x1f390
        0x0001cd24:    b9f0        ..      CBNZ     r0,0x1cd64 ; hidd_xfer_cb + 356
        0x0001cd26:    e7ff        ..      B        0x1cd28 ; hidd_xfer_cb + 296
        0x0001cd28:    f64f3070    O.p0    MOV      r0,#0xfb70
        0x0001cd2c:    f2c00001    ....    MOVT     r0,#1
        0x0001cd30:    f24001c3    @...    MOVW     r1,#0xc3
        0x0001cd34:    f2c00102    ....    MOVT     r1,#2
        0x0001cd38:    f240129b    @...    MOV      r2,#0x19b
        0x0001cd3c:    f7fefa0e    ....    BL       am_util_stdio_printf ; 0x1b15c
        0x0001cd40:    e7ff        ..      B        0x1cd42 ; hidd_xfer_cb + 322
        0x0001cd42:    f64e50f0    N..P    MOV      r0,#0xedf0
        0x0001cd46:    f2ce0000    ....    MOVT     r0,#0xe000
        0x0001cd4a:    9002        ..      STR      r0,[sp,#8]
        0x0001cd4c:    9802        ..      LDR      r0,[sp,#8]
        0x0001cd4e:    6800        .h      LDR      r0,[r0,#0]
        0x0001cd50:    07c0        ..      LSLS     r0,r0,#31
        0x0001cd52:    b110        ..      CBZ      r0,0x1cd5a ; hidd_xfer_cb + 346
        0x0001cd54:    e7ff        ..      B        0x1cd56 ; hidd_xfer_cb + 342
        0x0001cd56:    be00        ..      BKPT     #0
        0x0001cd58:    e7ff        ..      B        0x1cd5a ; hidd_xfer_cb + 346
        0x0001cd5a:    e7ff        ..      B        0x1cd5c ; hidd_xfer_cb + 348
        0x0001cd5c:    2000        .       MOVS     r0,#0
        0x0001cd5e:    f88d001f    ....    STRB     r0,[sp,#0x1f]
        0x0001cd62:    e006        ..      B        0x1cd72 ; hidd_xfer_cb + 370
        0x0001cd64:    e7ff        ..      B        0x1cd66 ; hidd_xfer_cb + 358
        0x0001cd66:    e7ff        ..      B        0x1cd68 ; hidd_xfer_cb + 360
        0x0001cd68:    e7ff        ..      B        0x1cd6a ; hidd_xfer_cb + 362
        0x0001cd6a:    2001        .       MOVS     r0,#1
        0x0001cd6c:    f88d001f    ....    STRB     r0,[sp,#0x1f]
        0x0001cd70:    e7ff        ..      B        0x1cd72 ; hidd_xfer_cb + 370
        0x0001cd72:    f89d001f    ....    LDRB     r0,[sp,#0x1f]
        0x0001cd76:    b008        ..      ADD      sp,sp,#0x20
        0x0001cd78:    bd80        ..      POP      {r7,pc}
        0x0001cd7a:    0000        ..      MOVS     r0,r0
    invoke_class_control
        0x0001cd7c:    b580        ..      PUSH     {r7,lr}
        0x0001cd7e:    b084        ..      SUB      sp,sp,#0x10
        0x0001cd80:    f88d000f    ....    STRB     r0,[sp,#0xf]
        0x0001cd84:    9102        ..      STR      r1,[sp,#8]
        0x0001cd86:    9201        ..      STR      r2,[sp,#4]
        0x0001cd88:    9802        ..      LDR      r0,[sp,#8]
        0x0001cd8a:    6900        .i      LDR      r0,[r0,#0x10]
        0x0001cd8c:    f002f88e    ....    BL       usbd_control_set_complete_callback ; 0x1eeac
        0x0001cd90:    9802        ..      LDR      r0,[sp,#8]
        0x0001cd92:    6801        .h      LDR      r1,[r0,#0]
        0x0001cd94:    f64f50ed    O..P    MOV      r0,#0xfded
        0x0001cd98:    f2c00001    ....    MOVT     r0,#1
        0x0001cd9c:    f7fef9de    ....    BL       am_util_stdio_printf ; 0x1b15c
        0x0001cda0:    9802        ..      LDR      r0,[sp,#8]
        0x0001cda2:    6903        .i      LDR      r3,[r0,#0x10]
        0x0001cda4:    f89d000f    ....    LDRB     r0,[sp,#0xf]
        0x0001cda8:    9a01        ..      LDR      r2,[sp,#4]
        0x0001cdaa:    2100        .!      MOVS     r1,#0
        0x0001cdac:    4798        .G      BLX      r3
        0x0001cdae:    b004        ..      ADD      sp,sp,#0x10
        0x0001cdb0:    bd80        ..      POP      {r7,pc}
        0x0001cdb2:    0000        ..      MOVS     r0,r0
    led_blinking_task
        0x0001cdb4:    b580        ..      PUSH     {r7,lr}
        0x0001cdb6:    b082        ..      SUB      sp,sp,#8
        0x0001cdb8:    f7fefd9c    ....    BL       board_millis ; 0x1b8f4
        0x0001cdbc:    f64021bc    @..!    MOV      r1,#0xabc
        0x0001cdc0:    f2c10100    ....    MOVT     r1,#0x1000
        0x0001cdc4:    6809        .h      LDR      r1,[r1,#0]
        0x0001cdc6:    1a40        @.      SUBS     r0,r0,r1
        0x0001cdc8:    f2400118    @...    MOVW     r1,#0x18
        0x0001cdcc:    f2c10100    ....    MOVT     r1,#0x1000
        0x0001cdd0:    6809        .h      LDR      r1,[r1,#0]
        0x0001cdd2:    4288        .B      CMP      r0,r1
        0x0001cdd4:    d201        ..      BCS      0x1cdda ; led_blinking_task + 38
        0x0001cdd6:    e7ff        ..      B        0x1cdd8 ; led_blinking_task + 36
        0x0001cdd8:    e01b        ..      B        0x1ce12 ; led_blinking_task + 94
        0x0001cdda:    f2400018    @...    MOVW     r0,#0x18
        0x0001cdde:    f2c10000    ....    MOVT     r0,#0x1000
        0x0001cde2:    6802        .h      LDR      r2,[r0,#0]
        0x0001cde4:    f64021bc    @..!    MOV      r1,#0xabc
        0x0001cde8:    f2c10100    ....    MOVT     r1,#0x1000
        0x0001cdec:    6808        .h      LDR      r0,[r1,#0]
        0x0001cdee:    4410        .D      ADD      r0,r0,r2
        0x0001cdf0:    6008        .`      STR      r0,[r1,#0]
        0x0001cdf2:    f64020b8    @..     MOV      r0,#0xab8
        0x0001cdf6:    f2c10000    ....    MOVT     r0,#0x1000
        0x0001cdfa:    9001        ..      STR      r0,[sp,#4]
        0x0001cdfc:    7800        .x      LDRB     r0,[r0,#0]
        0x0001cdfe:    f0000001    ....    AND      r0,r0,#1
        0x0001ce02:    f7fefd71    ..q.    BL       board_led_write ; 0x1b8e8
        0x0001ce06:    9901        ..      LDR      r1,[sp,#4]
        0x0001ce08:    780a        .x      LDRB     r2,[r1,#0]
        0x0001ce0a:    2001        .       MOVS     r0,#1
        0x0001ce0c:    4390        .C      BICS     r0,r0,r2
        0x0001ce0e:    7008        .p      STRB     r0,[r1,#0]
        0x0001ce10:    e7ff        ..      B        0x1ce12 ; led_blinking_task + 94
        0x0001ce12:    b002        ..      ADD      sp,sp,#8
        0x0001ce14:    bd80        ..      POP      {r7,pc}
        0x0001ce16:    0000        ..      MOVS     r0,r0
    main
        0x0001ce18:    b580        ..      PUSH     {r7,lr}
        0x0001ce1a:    b082        ..      SUB      sp,sp,#8
        0x0001ce1c:    2000        .       MOVS     r0,#0
        0x0001ce1e:    9001        ..      STR      r0,[sp,#4]
        0x0001ce20:    f7fefd38    ..8.    BL       board_init ; 0x1b894
        0x0001ce24:    f001ff48    ..H.    BL       tusb_init ; 0x1ecb8
        0x0001ce28:    e7ff        ..      B        0x1ce2a ; main + 18
        0x0001ce2a:    f001fd65    ..e.    BL       tud_task ; 0x1e8f8
        0x0001ce2e:    f7ffffc1    ....    BL       led_blinking_task ; 0x1cdb4
        0x0001ce32:    e7fa        ..      B        0x1ce2a ; main + 18
    ndigits_in_hex
        0x0001ce34:    b084        ..      SUB      sp,sp,#0x10
        0x0001ce36:    9103        ..      STR      r1,[sp,#0xc]
        0x0001ce38:    9002        ..      STR      r0,[sp,#8]
        0x0001ce3a:    9802        ..      LDR      r0,[sp,#8]
        0x0001ce3c:    9903        ..      LDR      r1,[sp,#0xc]
        0x0001ce3e:    4308        .C      ORRS     r0,r0,r1
        0x0001ce40:    fab0f080    ....    CLZ      r0,r0
        0x0001ce44:    0940        @.      LSRS     r0,r0,#5
        0x0001ce46:    9001        ..      STR      r0,[sp,#4]
        0x0001ce48:    e7ff        ..      B        0x1ce4a ; ndigits_in_hex + 22
        0x0001ce4a:    9802        ..      LDR      r0,[sp,#8]
        0x0001ce4c:    9903        ..      LDR      r1,[sp,#0xc]
        0x0001ce4e:    4308        .C      ORRS     r0,r0,r1
        0x0001ce50:    b160        `.      CBZ      r0,0x1ce6c ; ndigits_in_hex + 56
        0x0001ce52:    e7ff        ..      B        0x1ce54 ; ndigits_in_hex + 32
        0x0001ce54:    9802        ..      LDR      r0,[sp,#8]
        0x0001ce56:    9903        ..      LDR      r1,[sp,#0xc]
        0x0001ce58:    0900        ..      LSRS     r0,r0,#4
        0x0001ce5a:    ea407001    @..p    ORR      r0,r0,r1,LSL #28
        0x0001ce5e:    0909        ..      LSRS     r1,r1,#4
        0x0001ce60:    9103        ..      STR      r1,[sp,#0xc]
        0x0001ce62:    9002        ..      STR      r0,[sp,#8]
        0x0001ce64:    9801        ..      LDR      r0,[sp,#4]
        0x0001ce66:    3001        .0      ADDS     r0,#1
        0x0001ce68:    9001        ..      STR      r0,[sp,#4]
        0x0001ce6a:    e7ee        ..      B        0x1ce4a ; ndigits_in_hex + 22
        0x0001ce6c:    9801        ..      LDR      r0,[sp,#4]
        0x0001ce6e:    b004        ..      ADD      sp,sp,#0x10
        0x0001ce70:    4770        pG      BX       lr
        0x0001ce72:    0000        ..      MOVS     r0,r0
    ndigits_in_i64
        0x0001ce74:    b580        ..      PUSH     {r7,lr}
        0x0001ce76:    b082        ..      SUB      sp,sp,#8
        0x0001ce78:    9101        ..      STR      r1,[sp,#4]
        0x0001ce7a:    9000        ..      STR      r0,[sp,#0]
        0x0001ce7c:    9801        ..      LDR      r0,[sp,#4]
        0x0001ce7e:    f1b03fff    ...?    CMP      r0,#0xffffffff
        0x0001ce82:    dc09        ..      BGT      0x1ce98 ; ndigits_in_i64 + 36
        0x0001ce84:    e7ff        ..      B        0x1ce86 ; ndigits_in_i64 + 18
        0x0001ce86:    9800        ..      LDR      r0,[sp,#0]
        0x0001ce88:    9a01        ..      LDR      r2,[sp,#4]
        0x0001ce8a:    4241        AB      RSBS     r1,r0,#0
        0x0001ce8c:    f04f0000    O...    MOV      r0,#0
        0x0001ce90:    4190        .A      SBCS     r0,r0,r2
        0x0001ce92:    9100        ..      STR      r1,[sp,#0]
        0x0001ce94:    9001        ..      STR      r0,[sp,#4]
        0x0001ce96:    e7ff        ..      B        0x1ce98 ; ndigits_in_i64 + 36
        0x0001ce98:    9800        ..      LDR      r0,[sp,#0]
        0x0001ce9a:    9901        ..      LDR      r1,[sp,#4]
        0x0001ce9c:    f000f802    ....    BL       ndigits_in_u64 ; 0x1cea4
        0x0001cea0:    b002        ..      ADD      sp,sp,#8
        0x0001cea2:    bd80        ..      POP      {r7,pc}
    ndigits_in_u64
        0x0001cea4:    b580        ..      PUSH     {r7,lr}
        0x0001cea6:    b084        ..      SUB      sp,sp,#0x10
        0x0001cea8:    9103        ..      STR      r1,[sp,#0xc]
        0x0001ceaa:    9002        ..      STR      r0,[sp,#8]
        0x0001ceac:    9802        ..      LDR      r0,[sp,#8]
        0x0001ceae:    9903        ..      LDR      r1,[sp,#0xc]
        0x0001ceb0:    4308        .C      ORRS     r0,r0,r1
        0x0001ceb2:    fab0f080    ....    CLZ      r0,r0
        0x0001ceb6:    0940        @.      LSRS     r0,r0,#5
        0x0001ceb8:    9001        ..      STR      r0,[sp,#4]
        0x0001ceba:    e7ff        ..      B        0x1cebc ; ndigits_in_u64 + 24
        0x0001cebc:    9802        ..      LDR      r0,[sp,#8]
        0x0001cebe:    9903        ..      LDR      r1,[sp,#0xc]
        0x0001cec0:    4308        .C      ORRS     r0,r0,r1
        0x0001cec2:    b150        P.      CBZ      r0,0x1ceda ; ndigits_in_u64 + 54
        0x0001cec4:    e7ff        ..      B        0x1cec6 ; ndigits_in_u64 + 34
        0x0001cec6:    9802        ..      LDR      r0,[sp,#8]
        0x0001cec8:    9903        ..      LDR      r1,[sp,#0xc]
        0x0001ceca:    f7fff901    ....    BL       divu64_10 ; 0x1c0d0
        0x0001cece:    9103        ..      STR      r1,[sp,#0xc]
        0x0001ced0:    9002        ..      STR      r0,[sp,#8]
        0x0001ced2:    9801        ..      LDR      r0,[sp,#4]
        0x0001ced4:    3001        .0      ADDS     r0,#1
        0x0001ced6:    9001        ..      STR      r0,[sp,#4]
        0x0001ced8:    e7f0        ..      B        0x1cebc ; ndigits_in_u64 + 24
        0x0001ceda:    9801        ..      LDR      r0,[sp,#4]
        0x0001cedc:    b004        ..      ADD      sp,sp,#0x10
        0x0001cede:    bd80        ..      POP      {r7,pc}
    nonblocking_read
        0x0001cee0:    b510        ..      PUSH     {r4,lr}
        0x0001cee2:    b190        ..      CBZ      r0,0x1cf0a ; nonblocking_read + 42
        0x0001cee4:    4604        .F      MOV      r4,r0
        0x0001cee6:    6800        .h      LDR      r0,[r0,#0]
        0x0001cee8:    f6496206    I..b    MOV      r2,#0x9e06
        0x0001ceec:    f020407e     .~@    BIC      r0,r0,#0xfe000000
        0x0001cef0:    f2c012ea    ....    MOVT     r2,#0x1ea
        0x0001cef4:    4290        .B      CMP      r0,r2
        0x0001cef6:    d108        ..      BNE      0x1cf0a ; nonblocking_read + 42
        0x0001cef8:    68c8        .h      LDR      r0,[r1,#0xc]
        0x0001cefa:    b108        ..      CBZ      r0,0x1cf00 ; nonblocking_read + 32
        0x0001cefc:    2200        ."      MOVS     r2,#0
        0x0001cefe:    6002        .`      STR      r2,[r0,#0]
        0x0001cf00:    4620         F      MOV      r0,r4
        0x0001cf02:    f000ffb4    ....    BL       read_transaction_save ; 0x1de6e
        0x0001cf06:    b110        ..      CBZ      r0,0x1cf0e ; nonblocking_read + 46
        0x0001cf08:    bd10        ..      POP      {r4,pc}
        0x0001cf0a:    2002        .       MOVS     r0,#2
        0x0001cf0c:    bd10        ..      POP      {r4,pc}
        0x0001cf0e:    4620         F      MOV      r0,r4
        0x0001cf10:    f000f802    ....    BL       nonblocking_read_sm ; 0x1cf18
        0x0001cf14:    2000        .       MOVS     r0,#0
        0x0001cf16:    bd10        ..      POP      {r4,pc}
    nonblocking_read_sm
        0x0001cf18:    b5b0        ..      PUSH     {r4,r5,r7,lr}
        0x0001cf1a:    b08a        ..      SUB      sp,sp,#0x28
        0x0001cf1c:    4604        .F      MOV      r4,r0
        0x0001cf1e:    f8900098    ....    LDRB     r0,[r0,#0x98]
        0x0001cf22:    b1f8        ..      CBZ      r0,0x1cf64 ; nonblocking_read_sm + 76
        0x0001cf24:    f7fcf9d8    ....    BL       am_hal_interrupt_master_disable ; 0x192d8
        0x0001cf28:    9001        ..      STR      r0,[sp,#4]
        0x0001cf2a:    6a60        `j      LDR      r0,[r4,#0x24]
        0x0001cf2c:    f24c0100    L...    MOVW     r1,#0xc000
        0x0001cf30:    f2c40101    ....    MOVT     r1,#0x4001
        0x0001cf34:    eb013000    ...0    ADD      r0,r1,r0,LSL #12
        0x0001cf38:    2200        ."      MOVS     r2,#0
        0x0001cf3a:    a902        ..      ADD      r1,sp,#8
        0x0001cf3c:    6983        .i      LDR      r3,[r0,#0x18]
        0x0001cf3e:    06db        ..      LSLS     r3,r3,#27
        0x0001cf40:    d408        ..      BMI      0x1cf54 ; nonblocking_read_sm + 60
        0x0001cf42:    6803        .h      LDR      r3,[r0,#0]
        0x0001cf44:    f4136f70    ..po    TST      r3,#0xf00
        0x0001cf48:    d109        ..      BNE      0x1cf5e ; nonblocking_read_sm + 70
        0x0001cf4a:    548b        .T      STRB     r3,[r1,r2]
        0x0001cf4c:    3201        .2      ADDS     r2,#1
        0x0001cf4e:    2a20         *      CMP      r2,#0x20
        0x0001cf50:    d1f4        ..      BNE      0x1cf3c ; nonblocking_read_sm + 36
        0x0001cf52:    2220         "      MOVS     r2,#0x20
        0x0001cf54:    f104009c    ....    ADD      r0,r4,#0x9c
        0x0001cf58:    a902        ..      ADD      r1,sp,#8
        0x0001cf5a:    f7fcfcdf    ....    BL       am_hal_queue_item_add ; 0x1991c
        0x0001cf5e:    9801        ..      LDR      r0,[sp,#4]
        0x0001cf60:    f7fcf9c2    ....    BL       am_hal_interrupt_master_set ; 0x192e8
        0x0001cf64:    f894002c    ..,.    LDRB     r0,[r4,#0x2c]
        0x0001cf68:    2800        .(      CMP      r0,#0
        0x0001cf6a:    d04c        L.      BEQ      0x1d006 ; nonblocking_read_sm + 238
        0x0001cf6c:    f7fcf9b4    ....    BL       am_hal_interrupt_master_disable ; 0x192d8
        0x0001cf70:    9002        ..      STR      r0,[sp,#8]
        0x0001cf72:    6d20         m      LDR      r0,[r4,#0x50]
        0x0001cf74:    f8941098    ....    LDRB     r1,[r4,#0x98]
        0x0001cf78:    6ba2        .k      LDR      r2,[r4,#0x38]
        0x0001cf7a:    2900        .)      CMP      r1,#0
        0x0001cf7c:    6b61        ak      LDR      r1,[r4,#0x34]
        0x0001cf7e:    eba20200    ....    SUB      r2,r2,r0
        0x0001cf82:    4401        .D      ADD      r1,r1,r0
        0x0001cf84:    d012        ..      BEQ      0x1cfac ; nonblocking_read_sm + 148
        0x0001cf86:    f8d450a4    ...P    LDR      r5,[r4,#0xa4]
        0x0001cf8a:    f104009c    ....    ADD      r0,r4,#0x9c
        0x0001cf8e:    42aa        .B      CMP      r2,r5
        0x0001cf90:    bf38        8.      IT       CC
        0x0001cf92:    4615        .F      MOVCC    r5,r2
        0x0001cf94:    462a        *F      MOV      r2,r5
        0x0001cf96:    f7fcfcf5    ....    BL       am_hal_queue_item_get ; 0x19984
        0x0001cf9a:    b9f8        ..      CBNZ     r0,0x1cfdc ; nonblocking_read_sm + 196
        0x0001cf9c:    6c62        bl      LDR      r2,[r4,#0x44]
        0x0001cf9e:    2000        .       MOVS     r0,#0
        0x0001cfa0:    f884002c    ..,.    STRB     r0,[r4,#0x2c]
        0x0001cfa4:    b1d2        ..      CBZ      r2,0x1cfdc ; nonblocking_read_sm + 196
        0x0001cfa6:    6ca1        .l      LDR      r1,[r4,#0x48]
        0x0001cfa8:    2001        .       MOVS     r0,#1
        0x0001cfaa:    e02b        +.      B        0x1d004 ; nonblocking_read_sm + 236
        0x0001cfac:    b1aa        ..      CBZ      r2,0x1cfda ; nonblocking_read_sm + 194
        0x0001cfae:    6a60        `j      LDR      r0,[r4,#0x24]
        0x0001cfb0:    f24c0300    L...    MOVW     r3,#0xc000
        0x0001cfb4:    f2c40301    ....    MOVT     r3,#0x4001
        0x0001cfb8:    eb033000    ...0    ADD      r0,r3,r0,LSL #12
        0x0001cfbc:    2500        .%      MOVS     r5,#0
        0x0001cfbe:    bf00        ..      NOP      
        0x0001cfc0:    6983        .i      LDR      r3,[r0,#0x18]
        0x0001cfc2:    06db        ..      LSLS     r3,r3,#27
        0x0001cfc4:    d40a        ..      BMI      0x1cfdc ; nonblocking_read_sm + 196
        0x0001cfc6:    6803        .h      LDR      r3,[r0,#0]
        0x0001cfc8:    f4136f70    ..po    TST      r3,#0xf00
        0x0001cfcc:    d106        ..      BNE      0x1cfdc ; nonblocking_read_sm + 196
        0x0001cfce:    554b        KU      STRB     r3,[r1,r5]
        0x0001cfd0:    3501        .5      ADDS     r5,#1
        0x0001cfd2:    42aa        .B      CMP      r2,r5
        0x0001cfd4:    d1f4        ..      BNE      0x1cfc0 ; nonblocking_read_sm + 168
        0x0001cfd6:    4615        .F      MOV      r5,r2
        0x0001cfd8:    e000        ..      B        0x1cfdc ; nonblocking_read_sm + 196
        0x0001cfda:    2500        .%      MOVS     r5,#0
        0x0001cfdc:    6d20         m      LDR      r0,[r4,#0x50]
        0x0001cfde:    4428        (D      ADD      r0,r0,r5
        0x0001cfe0:    6520         e      STR      r0,[r4,#0x50]
        0x0001cfe2:    9802        ..      LDR      r0,[sp,#8]
        0x0001cfe4:    f7fcf980    ....    BL       am_hal_interrupt_master_set ; 0x192e8
        0x0001cfe8:    6be0        .k      LDR      r0,[r4,#0x3c]
        0x0001cfea:    6d21        !m      LDR      r1,[r4,#0x50]
        0x0001cfec:    6001        .`      STR      r1,[r0,#0]
        0x0001cfee:    6ba0        .k      LDR      r0,[r4,#0x38]
        0x0001cff0:    6d21        !m      LDR      r1,[r4,#0x50]
        0x0001cff2:    4281        .B      CMP      r1,r0
        0x0001cff4:    d107        ..      BNE      0x1d006 ; nonblocking_read_sm + 238
        0x0001cff6:    6c62        bl      LDR      r2,[r4,#0x44]
        0x0001cff8:    2000        .       MOVS     r0,#0
        0x0001cffa:    f884002c    ..,.    STRB     r0,[r4,#0x2c]
        0x0001cffe:    b112        ..      CBZ      r2,0x1d006 ; nonblocking_read_sm + 238
        0x0001d000:    6ca1        .l      LDR      r1,[r4,#0x48]
        0x0001d002:    2000        .       MOVS     r0,#0
        0x0001d004:    4790        .G      BLX      r2
        0x0001d006:    b00a        ..      ADD      sp,sp,#0x28
        0x0001d008:    bdb0        ..      POP      {r4,r5,r7,pc}
    nonblocking_write
        0x0001d00a:    b510        ..      PUSH     {r4,lr}
        0x0001d00c:    b190        ..      CBZ      r0,0x1d034 ; nonblocking_write + 42
        0x0001d00e:    4604        .F      MOV      r4,r0
        0x0001d010:    6800        .h      LDR      r0,[r0,#0]
        0x0001d012:    f6496206    I..b    MOV      r2,#0x9e06
        0x0001d016:    f020407e     .~@    BIC      r0,r0,#0xfe000000
        0x0001d01a:    f2c012ea    ....    MOVT     r2,#0x1ea
        0x0001d01e:    4290        .B      CMP      r0,r2
        0x0001d020:    d108        ..      BNE      0x1d034 ; nonblocking_write + 42
        0x0001d022:    68c8        .h      LDR      r0,[r1,#0xc]
        0x0001d024:    b108        ..      CBZ      r0,0x1d02a ; nonblocking_write + 32
        0x0001d026:    2200        ."      MOVS     r2,#0
        0x0001d028:    6002        .`      STR      r2,[r0,#0]
        0x0001d02a:    4620         F      MOV      r0,r4
        0x0001d02c:    f002faf0    ....    BL       write_transaction_save ; 0x1f610
        0x0001d030:    b110        ..      CBZ      r0,0x1d038 ; nonblocking_write + 46
        0x0001d032:    bd10        ..      POP      {r4,pc}
        0x0001d034:    2002        .       MOVS     r0,#2
        0x0001d036:    bd10        ..      POP      {r4,pc}
        0x0001d038:    4620         F      MOV      r0,r4
        0x0001d03a:    f000f803    ....    BL       nonblocking_write_sm ; 0x1d044
        0x0001d03e:    2000        .       MOVS     r0,#0
        0x0001d040:    bd10        ..      POP      {r4,pc}
        0x0001d042:    0000        ..      MOVS     r0,r0
    nonblocking_write_sm
        0x0001d044:    e92d41f0    -..A    PUSH     {r4-r8,lr}
        0x0001d048:    b084        ..      SUB      sp,sp,#0x10
        0x0001d04a:    4604        .F      MOV      r4,r0
        0x0001d04c:    f8900054    ..T.    LDRB     r0,[r0,#0x54]
        0x0001d050:    b3e8        ..      CBZ      r0,0x1d0ce ; nonblocking_write_sm + 138
        0x0001d052:    f7fcf941    ..A.    BL       am_hal_interrupt_master_disable ; 0x192d8
        0x0001d056:    9001        ..      STR      r0,[sp,#4]
        0x0001d058:    6fa0        .o      LDR      r0,[r4,#0x78]
        0x0001d05a:    f894107c    ..|.    LDRB     r1,[r4,#0x7c]
        0x0001d05e:    6e22        "n      LDR      r2,[r4,#0x60]
        0x0001d060:    2900        .)      CMP      r1,#0
        0x0001d062:    6de1        .m      LDR      r1,[r4,#0x5c]
        0x0001d064:    eba20200    ....    SUB      r2,r2,r0
        0x0001d068:    4401        .D      ADD      r1,r1,r0
        0x0001d06a:    d015        ..      BEQ      0x1d098 ; nonblocking_write_sm + 84
        0x0001d06c:    f8d43088    ...0    LDR      r3,[r4,#0x88]
        0x0001d070:    f8d4708c    ...p    LDR      r7,[r4,#0x8c]
        0x0001d074:    f1040080    ....    ADD      r0,r4,#0x80
        0x0001d078:    1afd        ..      SUBS     r5,r7,r3
        0x0001d07a:    42aa        .B      CMP      r2,r5
        0x0001d07c:    bf38        8.      IT       CC
        0x0001d07e:    4615        .F      MOVCC    r5,r2
        0x0001d080:    462a        *F      MOV      r2,r5
        0x0001d082:    f7fcfc4b    ..K.    BL       am_hal_queue_item_add ; 0x1991c
        0x0001d086:    b9e0        ..      CBNZ     r0,0x1d0c2 ; nonblocking_write_sm + 126
        0x0001d088:    6ee2        .n      LDR      r2,[r4,#0x6c]
        0x0001d08a:    2000        .       MOVS     r0,#0
        0x0001d08c:    f8840054    ..T.    STRB     r0,[r4,#0x54]
        0x0001d090:    b1ba        ..      CBZ      r2,0x1d0c2 ; nonblocking_write_sm + 126
        0x0001d092:    6f21        !o      LDR      r1,[r4,#0x70]
        0x0001d094:    2001        .       MOVS     r0,#1
        0x0001d096:    e055        U.      B        0x1d144 ; nonblocking_write_sm + 256
        0x0001d098:    b192        ..      CBZ      r2,0x1d0c0 ; nonblocking_write_sm + 124
        0x0001d09a:    6a60        `j      LDR      r0,[r4,#0x24]
        0x0001d09c:    f24c0300    L...    MOVW     r3,#0xc000
        0x0001d0a0:    f2c40301    ....    MOVT     r3,#0x4001
        0x0001d0a4:    eb033000    ...0    ADD      r0,r3,r0,LSL #12
        0x0001d0a8:    2500        .%      MOVS     r5,#0
        0x0001d0aa:    bf00        ..      NOP      
        0x0001d0ac:    6983        .i      LDR      r3,[r0,#0x18]
        0x0001d0ae:    069b        ..      LSLS     r3,r3,#26
        0x0001d0b0:    d407        ..      BMI      0x1d0c2 ; nonblocking_write_sm + 126
        0x0001d0b2:    5d4b        K]      LDRB     r3,[r1,r5]
        0x0001d0b4:    3501        .5      ADDS     r5,#1
        0x0001d0b6:    42aa        .B      CMP      r2,r5
        0x0001d0b8:    6003        .`      STR      r3,[r0,#0]
        0x0001d0ba:    d1f7        ..      BNE      0x1d0ac ; nonblocking_write_sm + 104
        0x0001d0bc:    4615        .F      MOV      r5,r2
        0x0001d0be:    e000        ..      B        0x1d0c2 ; nonblocking_write_sm + 126
        0x0001d0c0:    2500        .%      MOVS     r5,#0
        0x0001d0c2:    6fa0        .o      LDR      r0,[r4,#0x78]
        0x0001d0c4:    4428        (D      ADD      r0,r0,r5
        0x0001d0c6:    67a0        .g      STR      r0,[r4,#0x78]
        0x0001d0c8:    9801        ..      LDR      r0,[sp,#4]
        0x0001d0ca:    f7fcf90d    ....    BL       am_hal_interrupt_master_set ; 0x192e8
        0x0001d0ce:    f894007c    ..|.    LDRB     r0,[r4,#0x7c]
        0x0001d0d2:    b330        0.      CBZ      r0,0x1d122 ; nonblocking_write_sm + 222
        0x0001d0d4:    6a65        ej      LDR      r5,[r4,#0x24]
        0x0001d0d6:    f24c0800    L...    MOVW     r8,#0xc000
        0x0001d0da:    f2c40801    ....    MOVT     r8,#0x4001
        0x0001d0de:    f7fcf8fb    ....    BL       am_hal_interrupt_master_disable ; 0x192d8
        0x0001d0e2:    9002        ..      STR      r0,[sp,#8]
        0x0001d0e4:    eb083705    ...7    ADD      r7,r8,r5,LSL #12
        0x0001d0e8:    69b8        .i      LDR      r0,[r7,#0x18]
        0x0001d0ea:    0680        ..      LSLS     r0,r0,#26
        0x0001d0ec:    d416        ..      BMI      0x1d11c ; nonblocking_write_sm + 216
        0x0001d0ee:    f1040580    ....    ADD      r5,r4,#0x80
        0x0001d0f2:    f10d060f    ....    ADD      r6,sp,#0xf
        0x0001d0f6:    bf00        ..      NOP      
        0x0001d0f8:    4628        (F      MOV      r0,r5
        0x0001d0fa:    4631        1F      MOV      r1,r6
        0x0001d0fc:    2201        ."      MOVS     r2,#1
        0x0001d0fe:    f7fcfc41    ..A.    BL       am_hal_queue_item_get ; 0x19984
        0x0001d102:    b158        X.      CBZ      r0,0x1d11c ; nonblocking_write_sm + 216
        0x0001d104:    6a60        `j      LDR      r0,[r4,#0x24]
        0x0001d106:    f89d100f    ....    LDRB     r1,[sp,#0xf]
        0x0001d10a:    eb083000    ...0    ADD      r0,r8,r0,LSL #12
        0x0001d10e:    6982        .i      LDR      r2,[r0,#0x18]
        0x0001d110:    0692        ..      LSLS     r2,r2,#26
        0x0001d112:    bf58        X.      IT       PL
        0x0001d114:    6001        .`      STRPL    r1,[r0,#0]
        0x0001d116:    69b8        .i      LDR      r0,[r7,#0x18]
        0x0001d118:    0680        ..      LSLS     r0,r0,#26
        0x0001d11a:    d5ed        ..      BPL      0x1d0f8 ; nonblocking_write_sm + 180
        0x0001d11c:    9802        ..      LDR      r0,[sp,#8]
        0x0001d11e:    f7fcf8e3    ....    BL       am_hal_interrupt_master_set ; 0x192e8
        0x0001d122:    6e60        `n      LDR      r0,[r4,#0x64]
        0x0001d124:    6fa1        .o      LDR      r1,[r4,#0x78]
        0x0001d126:    6001        .`      STR      r1,[r0,#0]
        0x0001d128:    6e20         n      LDR      r0,[r4,#0x60]
        0x0001d12a:    6fa1        .o      LDR      r1,[r4,#0x78]
        0x0001d12c:    4281        .B      CMP      r1,r0
        0x0001d12e:    d10a        ..      BNE      0x1d146 ; nonblocking_write_sm + 258
        0x0001d130:    f8940054    ..T.    LDRB     r0,[r4,#0x54]
        0x0001d134:    b138        8.      CBZ      r0,0x1d146 ; nonblocking_write_sm + 258
        0x0001d136:    6ee2        .n      LDR      r2,[r4,#0x6c]
        0x0001d138:    2000        .       MOVS     r0,#0
        0x0001d13a:    f8840054    ..T.    STRB     r0,[r4,#0x54]
        0x0001d13e:    b112        ..      CBZ      r2,0x1d146 ; nonblocking_write_sm + 258
        0x0001d140:    6f21        !o      LDR      r1,[r4,#0x70]
        0x0001d142:    2000        .       MOVS     r0,#0
        0x0001d144:    4790        .G      BLX      r2
        0x0001d146:    b004        ..      ADD      sp,sp,#0x10
        0x0001d148:    e8bd81f0    ....    POP      {r4-r8,pc}
    osal_queue_create
        0x0001d14c:    b580        ..      PUSH     {r7,lr}
        0x0001d14e:    b082        ..      SUB      sp,sp,#8
        0x0001d150:    9001        ..      STR      r0,[sp,#4]
        0x0001d152:    9801        ..      LDR      r0,[sp,#4]
        0x0001d154:    3004        .0      ADDS     r0,#4
        0x0001d156:    f001f881    ....    BL       tu_fifo_clear ; 0x1e25c
        0x0001d15a:    9801        ..      LDR      r0,[sp,#4]
        0x0001d15c:    b002        ..      ADD      sp,sp,#8
        0x0001d15e:    bd80        ..      POP      {r7,pc}
    osal_queue_receive
        0x0001d160:    b580        ..      PUSH     {r7,lr}
        0x0001d162:    b084        ..      SUB      sp,sp,#0x10
        0x0001d164:    9003        ..      STR      r0,[sp,#0xc]
        0x0001d166:    9102        ..      STR      r1,[sp,#8]
        0x0001d168:    9803        ..      LDR      r0,[sp,#0xc]
        0x0001d16a:    f7fbfb35    ..5.    BL       _osal_q_lock ; 0x187d8
        0x0001d16e:    9803        ..      LDR      r0,[sp,#0xc]
        0x0001d170:    3004        .0      ADDS     r0,#4
        0x0001d172:    9902        ..      LDR      r1,[sp,#8]
        0x0001d174:    f001f88a    ....    BL       tu_fifo_read ; 0x1e28c
        0x0001d178:    f88d0007    ....    STRB     r0,[sp,#7]
        0x0001d17c:    9803        ..      LDR      r0,[sp,#0xc]
        0x0001d17e:    f7fbfb39    ..9.    BL       _osal_q_unlock ; 0x187f4
        0x0001d182:    f89d0007    ....    LDRB     r0,[sp,#7]
        0x0001d186:    f0000001    ....    AND      r0,r0,#1
        0x0001d18a:    b004        ..      ADD      sp,sp,#0x10
        0x0001d18c:    bd80        ..      POP      {r7,pc}
        0x0001d18e:    0000        ..      MOVS     r0,r0
    osal_queue_send
        0x0001d190:    b580        ..      PUSH     {r7,lr}
        0x0001d192:    b086        ..      SUB      sp,sp,#0x18
        0x0001d194:    9004        ..      STR      r0,[sp,#0x10]
        0x0001d196:    9103        ..      STR      r1,[sp,#0xc]
        0x0001d198:    f88d200b    ...     STRB     r2,[sp,#0xb]
        0x0001d19c:    f89d000b    ....    LDRB     r0,[sp,#0xb]
        0x0001d1a0:    07c0        ..      LSLS     r0,r0,#31
        0x0001d1a2:    b920         .      CBNZ     r0,0x1d1ae ; osal_queue_send + 30
        0x0001d1a4:    e7ff        ..      B        0x1d1a6 ; osal_queue_send + 22
        0x0001d1a6:    9804        ..      LDR      r0,[sp,#0x10]
        0x0001d1a8:    f7fbfb16    ....    BL       _osal_q_lock ; 0x187d8
        0x0001d1ac:    e7ff        ..      B        0x1d1ae ; osal_queue_send + 30
        0x0001d1ae:    9804        ..      LDR      r0,[sp,#0x10]
        0x0001d1b0:    3004        .0      ADDS     r0,#4
        0x0001d1b2:    9903        ..      LDR      r1,[sp,#0xc]
        0x0001d1b4:    f001f888    ....    BL       tu_fifo_write ; 0x1e2c8
        0x0001d1b8:    f88d000a    ....    STRB     r0,[sp,#0xa]
        0x0001d1bc:    f89d000b    ....    LDRB     r0,[sp,#0xb]
        0x0001d1c0:    07c0        ..      LSLS     r0,r0,#31
        0x0001d1c2:    b920         .      CBNZ     r0,0x1d1ce ; osal_queue_send + 62
        0x0001d1c4:    e7ff        ..      B        0x1d1c6 ; osal_queue_send + 54
        0x0001d1c6:    9804        ..      LDR      r0,[sp,#0x10]
        0x0001d1c8:    f7fbfb14    ....    BL       _osal_q_unlock ; 0x187f4
        0x0001d1cc:    e7ff        ..      B        0x1d1ce ; osal_queue_send + 62
        0x0001d1ce:    e7ff        ..      B        0x1d1d0 ; osal_queue_send + 64
        0x0001d1d0:    f89d000a    ....    LDRB     r0,[sp,#0xa]
        0x0001d1d4:    07c0        ..      LSLS     r0,r0,#31
        0x0001d1d6:    b9e8        ..      CBNZ     r0,0x1d214 ; osal_queue_send + 132
        0x0001d1d8:    e7ff        ..      B        0x1d1da ; osal_queue_send + 74
        0x0001d1da:    f64f3070    O.p0    MOV      r0,#0xfb70
        0x0001d1de:    f2c00001    ....    MOVT     r0,#1
        0x0001d1e2:    f64f616e    O.na    MOV      r1,#0xfe6e
        0x0001d1e6:    f2c00101    ....    MOVT     r1,#1
        0x0001d1ea:    22bc        ."      MOVS     r2,#0xbc
        0x0001d1ec:    f7fdffb6    ....    BL       am_util_stdio_printf ; 0x1b15c
        0x0001d1f0:    e7ff        ..      B        0x1d1f2 ; osal_queue_send + 98
        0x0001d1f2:    f64e50f0    N..P    MOV      r0,#0xedf0
        0x0001d1f6:    f2ce0000    ....    MOVT     r0,#0xe000
        0x0001d1fa:    9001        ..      STR      r0,[sp,#4]
        0x0001d1fc:    9801        ..      LDR      r0,[sp,#4]
        0x0001d1fe:    6800        .h      LDR      r0,[r0,#0]
        0x0001d200:    07c0        ..      LSLS     r0,r0,#31
        0x0001d202:    b110        ..      CBZ      r0,0x1d20a ; osal_queue_send + 122
        0x0001d204:    e7ff        ..      B        0x1d206 ; osal_queue_send + 118
        0x0001d206:    be00        ..      BKPT     #0
        0x0001d208:    e7ff        ..      B        0x1d20a ; osal_queue_send + 122
        0x0001d20a:    e7ff        ..      B        0x1d20c ; osal_queue_send + 124
        0x0001d20c:    2000        .       MOVS     r0,#0
        0x0001d20e:    f88d0017    ....    STRB     r0,[sp,#0x17]
        0x0001d212:    e007        ..      B        0x1d224 ; osal_queue_send + 148
        0x0001d214:    e7ff        ..      B        0x1d216 ; osal_queue_send + 134
        0x0001d216:    f89d000a    ....    LDRB     r0,[sp,#0xa]
        0x0001d21a:    f0000001    ....    AND      r0,r0,#1
        0x0001d21e:    f88d0017    ....    STRB     r0,[sp,#0x17]
        0x0001d222:    e7ff        ..      B        0x1d224 ; osal_queue_send + 148
        0x0001d224:    f89d0017    ....    LDRB     r0,[sp,#0x17]
        0x0001d228:    b006        ..      ADD      sp,sp,#0x18
        0x0001d22a:    bd80        ..      POP      {r7,pc}
    padbuffer
        0x0001d22c:    b085        ..      SUB      sp,sp,#0x14
        0x0001d22e:    9003        ..      STR      r0,[sp,#0xc]
        0x0001d230:    f88d100b    ....    STRB     r1,[sp,#0xb]
        0x0001d234:    9201        ..      STR      r2,[sp,#4]
        0x0001d236:    2000        .       MOVS     r0,#0
        0x0001d238:    9000        ..      STR      r0,[sp,#0]
        0x0001d23a:    9801        ..      LDR      r0,[sp,#4]
        0x0001d23c:    2800        .(      CMP      r0,#0
        0x0001d23e:    dc03        ..      BGT      0x1d248 ; padbuffer + 28
        0x0001d240:    e7ff        ..      B        0x1d242 ; padbuffer + 22
        0x0001d242:    9800        ..      LDR      r0,[sp,#0]
        0x0001d244:    9004        ..      STR      r0,[sp,#0x10]
        0x0001d246:    e016        ..      B        0x1d276 ; padbuffer + 74
        0x0001d248:    e7ff        ..      B        0x1d24a ; padbuffer + 30
        0x0001d24a:    9801        ..      LDR      r0,[sp,#4]
        0x0001d24c:    1e41        A.      SUBS     r1,r0,#1
        0x0001d24e:    9101        ..      STR      r1,[sp,#4]
        0x0001d250:    b170        p.      CBZ      r0,0x1d270 ; padbuffer + 68
        0x0001d252:    e7ff        ..      B        0x1d254 ; padbuffer + 40
        0x0001d254:    9803        ..      LDR      r0,[sp,#0xc]
        0x0001d256:    b138        8.      CBZ      r0,0x1d268 ; padbuffer + 60
        0x0001d258:    e7ff        ..      B        0x1d25a ; padbuffer + 46
        0x0001d25a:    f89d000b    ....    LDRB     r0,[sp,#0xb]
        0x0001d25e:    9903        ..      LDR      r1,[sp,#0xc]
        0x0001d260:    1c4a        J.      ADDS     r2,r1,#1
        0x0001d262:    9203        ..      STR      r2,[sp,#0xc]
        0x0001d264:    7008        .p      STRB     r0,[r1,#0]
        0x0001d266:    e7ff        ..      B        0x1d268 ; padbuffer + 60
        0x0001d268:    9800        ..      LDR      r0,[sp,#0]
        0x0001d26a:    3001        .0      ADDS     r0,#1
        0x0001d26c:    9000        ..      STR      r0,[sp,#0]
        0x0001d26e:    e7ec        ..      B        0x1d24a ; padbuffer + 30
        0x0001d270:    9800        ..      LDR      r0,[sp,#0]
        0x0001d272:    9004        ..      STR      r0,[sp,#0x10]
        0x0001d274:    e7ff        ..      B        0x1d276 ; padbuffer + 74
        0x0001d276:    9804        ..      LDR      r0,[sp,#0x10]
        0x0001d278:    b005        ..      ADD      sp,sp,#0x14
        0x0001d27a:    4770        pG      BX       lr
    process_control_request
        0x0001d27c:    b580        ..      PUSH     {r7,lr}
        0x0001d27e:    b098        ..      SUB      sp,sp,#0x60
        0x0001d280:    f88d0058    ..X.    STRB     r0,[sp,#0x58]
        0x0001d284:    9115        ..      STR      r1,[sp,#0x54]
        0x0001d286:    2000        .       MOVS     r0,#0
        0x0001d288:    f001fe10    ....    BL       usbd_control_set_complete_callback ; 0x1eeac
        0x0001d28c:    e7ff        ..      B        0x1d28e ; process_control_request + 18
        0x0001d28e:    9815        ..      LDR      r0,[sp,#0x54]
        0x0001d290:    7800        .x      LDRB     r0,[r0,#0]
        0x0001d292:    f3c01041    ..A.    UBFX     r0,r0,#5,#2
        0x0001d296:    2803        .(      CMP      r0,#3
        0x0001d298:    db1e        ..      BLT      0x1d2d8 ; process_control_request + 92
        0x0001d29a:    e7ff        ..      B        0x1d29c ; process_control_request + 32
        0x0001d29c:    f64f3070    O.p0    MOV      r0,#0xfb70
        0x0001d2a0:    f2c00001    ....    MOVT     r0,#1
        0x0001d2a4:    f64f71bf    O..q    MOV      r1,#0xffbf
        0x0001d2a8:    f2c00101    ....    MOVT     r1,#1
        0x0001d2ac:    f240227f    @.."    MOV      r2,#0x27f
        0x0001d2b0:    f7fdff54    ..T.    BL       am_util_stdio_printf ; 0x1b15c
        0x0001d2b4:    e7ff        ..      B        0x1d2b6 ; process_control_request + 58
        0x0001d2b6:    f64e50f0    N..P    MOV      r0,#0xedf0
        0x0001d2ba:    f2ce0000    ....    MOVT     r0,#0xe000
        0x0001d2be:    9014        ..      STR      r0,[sp,#0x50]
        0x0001d2c0:    9814        ..      LDR      r0,[sp,#0x50]
        0x0001d2c2:    6800        .h      LDR      r0,[r0,#0]
        0x0001d2c4:    07c0        ..      LSLS     r0,r0,#31
        0x0001d2c6:    b110        ..      CBZ      r0,0x1d2ce ; process_control_request + 82
        0x0001d2c8:    e7ff        ..      B        0x1d2ca ; process_control_request + 78
        0x0001d2ca:    be00        ..      BKPT     #0
        0x0001d2cc:    e7ff        ..      B        0x1d2ce ; process_control_request + 82
        0x0001d2ce:    e7ff        ..      B        0x1d2d0 ; process_control_request + 84
        0x0001d2d0:    2000        .       MOVS     r0,#0
        0x0001d2d2:    f88d0059    ..Y.    STRB     r0,[sp,#0x59]
        0x0001d2d6:    e301        ..      B        0x1d8dc ; process_control_request + 1632
        0x0001d2d8:    e7ff        ..      B        0x1d2da ; process_control_request + 94
        0x0001d2da:    9815        ..      LDR      r0,[sp,#0x54]
        0x0001d2dc:    7800        .x      LDRB     r0,[r0,#0]
        0x0001d2de:    f3c01041    ..A.    UBFX     r0,r0,#5,#2
        0x0001d2e2:    2802        .(      CMP      r0,#2
        0x0001d2e4:    d11b        ..      BNE      0x1d31e ; process_control_request + 162
        0x0001d2e6:    e7ff        ..      B        0x1d2e8 ; process_control_request + 108
        0x0001d2e8:    e7ff        ..      B        0x1d2ea ; process_control_request + 110
        0x0001d2ea:    f2400000    @...    MOVW     r0,#0
        0x0001d2ee:    f2c00000    ....    MOVT     r0,#0
        0x0001d2f2:    b920         .      CBNZ     r0,0x1d2fe ; process_control_request + 130
        0x0001d2f4:    e7ff        ..      B        0x1d2f6 ; process_control_request + 122
        0x0001d2f6:    2000        .       MOVS     r0,#0
        0x0001d2f8:    f88d0059    ..Y.    STRB     r0,[sp,#0x59]
        0x0001d2fc:    e2ee        ..      B        0x1d8dc ; process_control_request + 1632
        0x0001d2fe:    e7ff        ..      B        0x1d300 ; process_control_request + 132
        0x0001d300:    f2400000    @...    MOVW     r0,#0
        0x0001d304:    f2c00000    ....    MOVT     r0,#0
        0x0001d308:    f001fdd0    ....    BL       usbd_control_set_complete_callback ; 0x1eeac
        0x0001d30c:    f89d0058    ..X.    LDRB     r0,[sp,#0x58]
        0x0001d310:    9a15        ..      LDR      r2,[sp,#0x54]
        0x0001d312:    2100        .!      MOVS     r1,#0
        0x0001d314:    f3af8000    ....    NOP.W    
        0x0001d318:    f88d0059    ..Y.    STRB     r0,[sp,#0x59]
        0x0001d31c:    e2de        ..      B        0x1d8dc ; process_control_request + 1632
        0x0001d31e:    9815        ..      LDR      r0,[sp,#0x54]
        0x0001d320:    7800        .x      LDRB     r0,[r0,#0]
        0x0001d322:    0940        @.      LSRS     r0,r0,#5
        0x0001d324:    0780        ..      LSLS     r0,r0,#30
        0x0001d326:    bb00        ..      CBNZ     r0,0x1d36a ; process_control_request + 238
        0x0001d328:    e7ff        ..      B        0x1d32a ; process_control_request + 174
        0x0001d32a:    9815        ..      LDR      r0,[sp,#0x54]
        0x0001d32c:    7840        @x      LDRB     r0,[r0,#1]
        0x0001d32e:    280c        .(      CMP      r0,#0xc
        0x0001d330:    dc1b        ..      BGT      0x1d36a ; process_control_request + 238
        0x0001d332:    e7ff        ..      B        0x1d334 ; process_control_request + 184
        0x0001d334:    9815        ..      LDR      r0,[sp,#0x54]
        0x0001d336:    7841        Ax      LDRB     r1,[r0,#1]
        0x0001d338:    f24f7098    O..p    MOV      r0,#0xf798
        0x0001d33c:    f2c00001    ....    MOVT     r0,#1
        0x0001d340:    f8501021    P.!.    LDR      r1,[r0,r1,LSL #2]
        0x0001d344:    f64f7090    O..p    MOV      r0,#0xff90
        0x0001d348:    f2c00001    ....    MOVT     r0,#1
        0x0001d34c:    f7fdff06    ....    BL       am_util_stdio_printf ; 0x1b15c
        0x0001d350:    9815        ..      LDR      r0,[sp,#0x54]
        0x0001d352:    7840        @x      LDRB     r0,[r0,#1]
        0x0001d354:    2806        .(      CMP      r0,#6
        0x0001d356:    d007        ..      BEQ      0x1d368 ; process_control_request + 236
        0x0001d358:    e7ff        ..      B        0x1d35a ; process_control_request + 222
        0x0001d35a:    f64f30c5    O..0    MOV      r0,#0xfbc5
        0x0001d35e:    f2c00001    ....    MOVT     r0,#1
        0x0001d362:    f7fdfefb    ....    BL       am_util_stdio_printf ; 0x1b15c
        0x0001d366:    e7ff        ..      B        0x1d368 ; process_control_request + 236
        0x0001d368:    e7ff        ..      B        0x1d36a ; process_control_request + 238
        0x0001d36a:    9815        ..      LDR      r0,[sp,#0x54]
        0x0001d36c:    7800        .x      LDRB     r0,[r0,#0]
        0x0001d36e:    f000001f    ....    AND      r0,r0,#0x1f
        0x0001d372:    4601        .F      MOV      r1,r0
        0x0001d374:    9104        ..      STR      r1,[sp,#0x10]
        0x0001d376:    b150        P.      CBZ      r0,0x1d38e ; process_control_request + 274
        0x0001d378:    e7ff        ..      B        0x1d37a ; process_control_request + 254
        0x0001d37a:    9804        ..      LDR      r0,[sp,#0x10]
        0x0001d37c:    2801        .(      CMP      r0,#1
        0x0001d37e:    f000816d    ..m.    BEQ.W    0x1d65c ; process_control_request + 992
        0x0001d382:    e7ff        ..      B        0x1d384 ; process_control_request + 264
        0x0001d384:    9804        ..      LDR      r0,[sp,#0x10]
        0x0001d386:    2802        .(      CMP      r0,#2
        0x0001d388:    f00081ca    ....    BEQ.W    0x1d720 ; process_control_request + 1188
        0x0001d38c:    e290        ..      B        0x1d8b0 ; process_control_request + 1588
        0x0001d38e:    9815        ..      LDR      r0,[sp,#0x54]
        0x0001d390:    7800        .x      LDRB     r0,[r0,#0]
        0x0001d392:    f3c01041    ..A.    UBFX     r0,r0,#5,#2
        0x0001d396:    2801        .(      CMP      r0,#1
        0x0001d398:    d130        0.      BNE      0x1d3fc ; process_control_request + 384
        0x0001d39a:    e7ff        ..      B        0x1d39c ; process_control_request + 288
        0x0001d39c:    9815        ..      LDR      r0,[sp,#0x54]
        0x0001d39e:    8880        ..      LDRH     r0,[r0,#4]
        0x0001d3a0:    f8ad005a    ..Z.    STRH     r0,[sp,#0x5a]
        0x0001d3a4:    f8bd005a    ..Z.    LDRH     r0,[sp,#0x5a]
        0x0001d3a8:    f88d004f    ..O.    STRB     r0,[sp,#0x4f]
        0x0001d3ac:    e7ff        ..      B        0x1d3ae ; process_control_request + 306
        0x0001d3ae:    f89d004f    ..O.    LDRB     r0,[sp,#0x4f]
        0x0001d3b2:    2810        .(      CMP      r0,#0x10
        0x0001d3b4:    d304        ..      BCC      0x1d3c0 ; process_control_request + 324
        0x0001d3b6:    e7ff        ..      B        0x1d3b8 ; process_control_request + 316
        0x0001d3b8:    2000        .       MOVS     r0,#0
        0x0001d3ba:    f88d0059    ..Y.    STRB     r0,[sp,#0x59]
        0x0001d3be:    e28d        ..      B        0x1d8dc ; process_control_request + 1632
        0x0001d3c0:    e7ff        ..      B        0x1d3c2 ; process_control_request + 326
        0x0001d3c2:    f89d104f    ..O.    LDRB     r1,[sp,#0x4f]
        0x0001d3c6:    f24010b0    @...    MOVW     r0,#0x1b0
        0x0001d3ca:    f2c10000    ....    MOVT     r0,#0x1000
        0x0001d3ce:    4408        .D      ADD      r0,r0,r1
        0x0001d3d0:    78c0        .x      LDRB     r0,[r0,#3]
        0x0001d3d2:    f7fff821    ..!.    BL       get_driver ; 0x1c418
        0x0001d3d6:    9012        ..      STR      r0,[sp,#0x48]
        0x0001d3d8:    e7ff        ..      B        0x1d3da ; process_control_request + 350
        0x0001d3da:    9812        ..      LDR      r0,[sp,#0x48]
        0x0001d3dc:    b920         .      CBNZ     r0,0x1d3e8 ; process_control_request + 364
        0x0001d3de:    e7ff        ..      B        0x1d3e0 ; process_control_request + 356
        0x0001d3e0:    2000        .       MOVS     r0,#0
        0x0001d3e2:    f88d0059    ..Y.    STRB     r0,[sp,#0x59]
        0x0001d3e6:    e279        y.      B        0x1d8dc ; process_control_request + 1632
        0x0001d3e8:    e7ff        ..      B        0x1d3ea ; process_control_request + 366
        0x0001d3ea:    f89d0058    ..X.    LDRB     r0,[sp,#0x58]
        0x0001d3ee:    9912        ..      LDR      r1,[sp,#0x48]
        0x0001d3f0:    9a15        ..      LDR      r2,[sp,#0x54]
        0x0001d3f2:    f7fffcc3    ....    BL       invoke_class_control ; 0x1cd7c
        0x0001d3f6:    f88d0059    ..Y.    STRB     r0,[sp,#0x59]
        0x0001d3fa:    e26f        o.      B        0x1d8dc ; process_control_request + 1632
        0x0001d3fc:    9815        ..      LDR      r0,[sp,#0x54]
        0x0001d3fe:    7800        .x      LDRB     r0,[r0,#0]
        0x0001d400:    0940        @.      LSRS     r0,r0,#5
        0x0001d402:    0780        ..      LSLS     r0,r0,#30
        0x0001d404:    b190        ..      CBZ      r0,0x1d42c ; process_control_request + 432
        0x0001d406:    e7ff        ..      B        0x1d408 ; process_control_request + 396
        0x0001d408:    e7ff        ..      B        0x1d40a ; process_control_request + 398
        0x0001d40a:    f64e50f0    N..P    MOV      r0,#0xedf0
        0x0001d40e:    f2ce0000    ....    MOVT     r0,#0xe000
        0x0001d412:    9011        ..      STR      r0,[sp,#0x44]
        0x0001d414:    9811        ..      LDR      r0,[sp,#0x44]
        0x0001d416:    6800        .h      LDR      r0,[r0,#0]
        0x0001d418:    07c0        ..      LSLS     r0,r0,#31
        0x0001d41a:    b110        ..      CBZ      r0,0x1d422 ; process_control_request + 422
        0x0001d41c:    e7ff        ..      B        0x1d41e ; process_control_request + 418
        0x0001d41e:    be00        ..      BKPT     #0
        0x0001d420:    e7ff        ..      B        0x1d422 ; process_control_request + 422
        0x0001d422:    e7ff        ..      B        0x1d424 ; process_control_request + 424
        0x0001d424:    2000        .       MOVS     r0,#0
        0x0001d426:    f88d0059    ..Y.    STRB     r0,[sp,#0x59]
        0x0001d42a:    e257        W.      B        0x1d8dc ; process_control_request + 1632
        0x0001d42c:    9815        ..      LDR      r0,[sp,#0x54]
        0x0001d42e:    7840        @x      LDRB     r0,[r0,#1]
        0x0001d430:    4601        .F      MOV      r1,r0
        0x0001d432:    9103        ..      STR      r1,[sp,#0xc]
        0x0001d434:    2809        .(      CMP      r0,#9
        0x0001d436:    f20080fe    ....    BHI.W    0x1d636 ; process_control_request + 954
        0x0001d43a:    9903        ..      LDR      r1,[sp,#0xc]
        0x0001d43c:    e8dff011    ....    TBH      [pc,r1,LSL #1]
    $d.21
        0x0001d440:    00c600e5    ....    DCD    12976357
        0x0001d444:    00a700fb    ....    DCD    10944763
        0x0001d448:    000a00fb    ....    DCD    655611
        0x0001d44c:    00fb0099    ....    DCD    16449689
        0x0001d450:    002c001c    ..,.    DCD    2883612
    $t.22
        0x0001d454:    9815        ..      LDR      r0,[sp,#0x54]
        0x0001d456:    f001fd33    ..3.    BL       usbd_control_set_request ; 0x1eec0
        0x0001d45a:    f89d0058    ..X.    LDRB     r0,[sp,#0x58]
        0x0001d45e:    9915        ..      LDR      r1,[sp,#0x54]
        0x0001d460:    7889        .x      LDRB     r1,[r1,#2]
        0x0001d462:    f7fefd13    ....    BL       dcd_set_address ; 0x1be8c
        0x0001d466:    f24011b0    @...    MOVW     r1,#0x1b0
        0x0001d46a:    f2c10100    ....    MOVT     r1,#0x1000
        0x0001d46e:    7808        .x      LDRB     r0,[r1,#0]
        0x0001d470:    f0400002    @...    ORR      r0,r0,#2
        0x0001d474:    7008        .p      STRB     r0,[r1,#0]
        0x0001d476:    e0f0        ..      B        0x1d65a ; process_control_request + 990
        0x0001d478:    f24010b0    @...    MOVW     r0,#0x1b0
        0x0001d47c:    f2c10000    ....    MOVT     r0,#0x1000
        0x0001d480:    7840        @x      LDRB     r0,[r0,#1]
        0x0001d482:    f88d0043    ..C.    STRB     r0,[sp,#0x43]
        0x0001d486:    f89d0058    ..X.    LDRB     r0,[sp,#0x58]
        0x0001d48a:    9915        ..      LDR      r1,[sp,#0x54]
        0x0001d48c:    f10d0243    ..C.    ADD      r2,sp,#0x43
        0x0001d490:    2301        .#      MOVS     r3,#1
        0x0001d492:    f000ff87    ....    BL       tud_control_xfer ; 0x1e3a4
        0x0001d496:    e0e0        ..      B        0x1d65a ; process_control_request + 990
        0x0001d498:    9815        ..      LDR      r0,[sp,#0x54]
        0x0001d49a:    7880        .x      LDRB     r0,[r0,#2]
        0x0001d49c:    f88d0042    ..B.    STRB     r0,[sp,#0x42]
        0x0001d4a0:    f24010b0    @...    MOVW     r0,#0x1b0
        0x0001d4a4:    f2c10000    ....    MOVT     r0,#0x1000
        0x0001d4a8:    7840        @x      LDRB     r0,[r0,#1]
        0x0001d4aa:    f89d1042    ..B.    LDRB     r1,[sp,#0x42]
        0x0001d4ae:    4288        .B      CMP      r0,r1
        0x0001d4b0:    d052        R.      BEQ      0x1d558 ; process_control_request + 732
        0x0001d4b2:    e7ff        ..      B        0x1d4b4 ; process_control_request + 568
        0x0001d4b4:    f24010b0    @...    MOVW     r0,#0x1b0
        0x0001d4b8:    f2c10000    ....    MOVT     r0,#0x1000
        0x0001d4bc:    7840        @x      LDRB     r0,[r0,#1]
        0x0001d4be:    b1e8        ..      CBZ      r0,0x1d4fc ; process_control_request + 640
        0x0001d4c0:    e7ff        ..      B        0x1d4c2 ; process_control_request + 582
        0x0001d4c2:    f24010b0    @...    MOVW     r0,#0x1b0
        0x0001d4c6:    f2c10000    ....    MOVT     r0,#0x1000
        0x0001d4ca:    9002        ..      STR      r0,[sp,#8]
        0x0001d4cc:    7841        Ax      LDRB     r1,[r0,#1]
        0x0001d4ce:    f64f501e    O..P    MOV      r0,#0xfd1e
        0x0001d4d2:    f2c00001    ....    MOVT     r0,#1
        0x0001d4d6:    f7fdfe41    ..A.    BL       am_util_stdio_printf ; 0x1b15c
        0x0001d4da:    f89d0058    ..X.    LDRB     r0,[sp,#0x58]
        0x0001d4de:    f7fefae1    ....    BL       dcd_edpt_close_all ; 0x1baa4
        0x0001d4e2:    9802        ..      LDR      r0,[sp,#8]
        0x0001d4e4:    7880        .x      LDRB     r0,[r0,#2]
        0x0001d4e6:    f88d0041    ..A.    STRB     r0,[sp,#0x41]
        0x0001d4ea:    f89d0058    ..X.    LDRB     r0,[sp,#0x58]
        0x0001d4ee:    f7fefa1d    ....    BL       configuration_reset ; 0x1b92c
        0x0001d4f2:    9902        ..      LDR      r1,[sp,#8]
        0x0001d4f4:    f89d0041    ..A.    LDRB     r0,[sp,#0x41]
        0x0001d4f8:    7088        .p      STRB     r0,[r1,#2]
        0x0001d4fa:    e7ff        ..      B        0x1d4fc ; process_control_request + 640
        0x0001d4fc:    f89d0042    ..B.    LDRB     r0,[sp,#0x42]
        0x0001d500:    b348        H.      CBZ      r0,0x1d556 ; process_control_request + 730
        0x0001d502:    e7ff        ..      B        0x1d504 ; process_control_request + 648
        0x0001d504:    e7ff        ..      B        0x1d506 ; process_control_request + 650
        0x0001d506:    f89d0058    ..X.    LDRB     r0,[sp,#0x58]
        0x0001d50a:    f89d1042    ..B.    LDRB     r1,[sp,#0x42]
        0x0001d50e:    f000fb35    ..5.    BL       process_set_config ; 0x1db7c
        0x0001d512:    b9f0        ..      CBNZ     r0,0x1d552 ; process_control_request + 726
        0x0001d514:    e7ff        ..      B        0x1d516 ; process_control_request + 666
        0x0001d516:    f64f3070    O.p0    MOV      r0,#0xfb70
        0x0001d51a:    f2c00001    ....    MOVT     r0,#1
        0x0001d51e:    f64f71bf    O..q    MOV      r1,#0xffbf
        0x0001d522:    f2c00101    ....    MOVT     r1,#1
        0x0001d526:    f24022d3    @.."    MOV      r2,#0x2d3
        0x0001d52a:    f7fdfe17    ....    BL       am_util_stdio_printf ; 0x1b15c
        0x0001d52e:    e7ff        ..      B        0x1d530 ; process_control_request + 692
        0x0001d530:    f64e50f0    N..P    MOV      r0,#0xedf0
        0x0001d534:    f2ce0000    ....    MOVT     r0,#0xe000
        0x0001d538:    900f        ..      STR      r0,[sp,#0x3c]
        0x0001d53a:    980f        ..      LDR      r0,[sp,#0x3c]
        0x0001d53c:    6800        .h      LDR      r0,[r0,#0]
        0x0001d53e:    07c0        ..      LSLS     r0,r0,#31
        0x0001d540:    b110        ..      CBZ      r0,0x1d548 ; process_control_request + 716
        0x0001d542:    e7ff        ..      B        0x1d544 ; process_control_request + 712
        0x0001d544:    be00        ..      BKPT     #0
        0x0001d546:    e7ff        ..      B        0x1d548 ; process_control_request + 716
        0x0001d548:    e7ff        ..      B        0x1d54a ; process_control_request + 718
        0x0001d54a:    2000        .       MOVS     r0,#0
        0x0001d54c:    f88d0059    ..Y.    STRB     r0,[sp,#0x59]
        0x0001d550:    e1c4        ..      B        0x1d8dc ; process_control_request + 1632
        0x0001d552:    e7ff        ..      B        0x1d554 ; process_control_request + 728
        0x0001d554:    e7ff        ..      B        0x1d556 ; process_control_request + 730
        0x0001d556:    e7ff        ..      B        0x1d558 ; process_control_request + 732
        0x0001d558:    f89d0042    ..B.    LDRB     r0,[sp,#0x42]
        0x0001d55c:    f24011b0    @...    MOVW     r1,#0x1b0
        0x0001d560:    f2c10100    ....    MOVT     r1,#0x1000
        0x0001d564:    7048        Hp      STRB     r0,[r1,#1]
        0x0001d566:    f89d0058    ..X.    LDRB     r0,[sp,#0x58]
        0x0001d56a:    9915        ..      LDR      r1,[sp,#0x54]
        0x0001d56c:    f000ff00    ....    BL       tud_control_status ; 0x1e370
        0x0001d570:    e073        s.      B        0x1d65a ; process_control_request + 990
        0x0001d572:    e7ff        ..      B        0x1d574 ; process_control_request + 760
        0x0001d574:    f89d0058    ..X.    LDRB     r0,[sp,#0x58]
        0x0001d578:    9915        ..      LDR      r1,[sp,#0x54]
        0x0001d57a:    f000f9b3    ....    BL       process_get_descriptor ; 0x1d8e4
        0x0001d57e:    b920         .      CBNZ     r0,0x1d58a ; process_control_request + 782
        0x0001d580:    e7ff        ..      B        0x1d582 ; process_control_request + 774
        0x0001d582:    2000        .       MOVS     r0,#0
        0x0001d584:    f88d0059    ..Y.    STRB     r0,[sp,#0x59]
        0x0001d588:    e1a8        ..      B        0x1d8dc ; process_control_request + 1632
        0x0001d58a:    e7ff        ..      B        0x1d58c ; process_control_request + 784
        0x0001d58c:    e065        e.      B        0x1d65a ; process_control_request + 990
        0x0001d58e:    e7ff        ..      B        0x1d590 ; process_control_request + 788
        0x0001d590:    9815        ..      LDR      r0,[sp,#0x54]
        0x0001d592:    8840        @.      LDRH     r0,[r0,#2]
        0x0001d594:    2801        .(      CMP      r0,#1
        0x0001d596:    d004        ..      BEQ      0x1d5a2 ; process_control_request + 806
        0x0001d598:    e7ff        ..      B        0x1d59a ; process_control_request + 798
        0x0001d59a:    2000        .       MOVS     r0,#0
        0x0001d59c:    f88d0059    ..Y.    STRB     r0,[sp,#0x59]
        0x0001d5a0:    e19c        ..      B        0x1d8dc ; process_control_request + 1632
        0x0001d5a2:    e7ff        ..      B        0x1d5a4 ; process_control_request + 808
        0x0001d5a4:    f64f5071    O.qP    MOV      r0,#0xfd71
        0x0001d5a8:    f2c00001    ....    MOVT     r0,#1
        0x0001d5ac:    f7fdfdd6    ....    BL       am_util_stdio_printf ; 0x1b15c
        0x0001d5b0:    f24011b0    @...    MOVW     r1,#0x1b0
        0x0001d5b4:    f2c10100    ....    MOVT     r1,#0x1000
        0x0001d5b8:    7808        .x      LDRB     r0,[r1,#0]
        0x0001d5ba:    f0400008    @...    ORR      r0,r0,#8
        0x0001d5be:    7008        .p      STRB     r0,[r1,#0]
        0x0001d5c0:    f89d0058    ..X.    LDRB     r0,[sp,#0x58]
        0x0001d5c4:    9915        ..      LDR      r1,[sp,#0x54]
        0x0001d5c6:    f000fed3    ....    BL       tud_control_status ; 0x1e370
        0x0001d5ca:    e046        F.      B        0x1d65a ; process_control_request + 990
        0x0001d5cc:    e7ff        ..      B        0x1d5ce ; process_control_request + 850
        0x0001d5ce:    9815        ..      LDR      r0,[sp,#0x54]
        0x0001d5d0:    8840        @.      LDRH     r0,[r0,#2]
        0x0001d5d2:    2801        .(      CMP      r0,#1
        0x0001d5d4:    d004        ..      BEQ      0x1d5e0 ; process_control_request + 868
        0x0001d5d6:    e7ff        ..      B        0x1d5d8 ; process_control_request + 860
        0x0001d5d8:    2000        .       MOVS     r0,#0
        0x0001d5da:    f88d0059    ..Y.    STRB     r0,[sp,#0x59]
        0x0001d5de:    e17d        }.      B        0x1d8dc ; process_control_request + 1632
        0x0001d5e0:    e7ff        ..      B        0x1d5e2 ; process_control_request + 870
        0x0001d5e2:    f64f508c    O..P    MOV      r0,#0xfd8c
        0x0001d5e6:    f2c00001    ....    MOVT     r0,#1
        0x0001d5ea:    f7fdfdb7    ....    BL       am_util_stdio_printf ; 0x1b15c
        0x0001d5ee:    f24011b0    @...    MOVW     r1,#0x1b0
        0x0001d5f2:    f2c10100    ....    MOVT     r1,#0x1000
        0x0001d5f6:    7808        .x      LDRB     r0,[r1,#0]
        0x0001d5f8:    f00000f7    ....    AND      r0,r0,#0xf7
        0x0001d5fc:    7008        .p      STRB     r0,[r1,#0]
        0x0001d5fe:    f89d0058    ..X.    LDRB     r0,[sp,#0x58]
        0x0001d602:    9915        ..      LDR      r1,[sp,#0x54]
        0x0001d604:    f000feb4    ....    BL       tud_control_status ; 0x1e370
        0x0001d608:    e027        '.      B        0x1d65a ; process_control_request + 990
        0x0001d60a:    f24010b0    @...    MOVW     r0,#0x1b0
        0x0001d60e:    f2c10000    ....    MOVT     r0,#0x1000
        0x0001d612:    7800        .x      LDRB     r0,[r0,#0]
        0x0001d614:    0941        A.      LSRS     r1,r0,#5
        0x0001d616:    f3c000c0    ....    UBFX     r0,r0,#3,#1
        0x0001d61a:    0040        @.      LSLS     r0,r0,#1
        0x0001d61c:    f3610000    a...    BFI      r0,r1,#0,#1
        0x0001d620:    f8ad003a    ..:.    STRH     r0,[sp,#0x3a]
        0x0001d624:    f89d0058    ..X.    LDRB     r0,[sp,#0x58]
        0x0001d628:    9915        ..      LDR      r1,[sp,#0x54]
        0x0001d62a:    f10d023a    ..:.    ADD      r2,sp,#0x3a
        0x0001d62e:    2302        .#      MOVS     r3,#2
        0x0001d630:    f000feb8    ....    BL       tud_control_xfer ; 0x1e3a4
        0x0001d634:    e011        ..      B        0x1d65a ; process_control_request + 990
        0x0001d636:    e7ff        ..      B        0x1d638 ; process_control_request + 956
        0x0001d638:    f64e50f0    N..P    MOV      r0,#0xedf0
        0x0001d63c:    f2ce0000    ....    MOVT     r0,#0xe000
        0x0001d640:    900d        ..      STR      r0,[sp,#0x34]
        0x0001d642:    980d        ..      LDR      r0,[sp,#0x34]
        0x0001d644:    6800        .h      LDR      r0,[r0,#0]
        0x0001d646:    07c0        ..      LSLS     r0,r0,#31
        0x0001d648:    b110        ..      CBZ      r0,0x1d650 ; process_control_request + 980
        0x0001d64a:    e7ff        ..      B        0x1d64c ; process_control_request + 976
        0x0001d64c:    be00        ..      BKPT     #0
        0x0001d64e:    e7ff        ..      B        0x1d650 ; process_control_request + 980
        0x0001d650:    e7ff        ..      B        0x1d652 ; process_control_request + 982
        0x0001d652:    2000        .       MOVS     r0,#0
        0x0001d654:    f88d0059    ..Y.    STRB     r0,[sp,#0x59]
        0x0001d658:    e140        @.      B        0x1d8dc ; process_control_request + 1632
        0x0001d65a:    e13b        ;.      B        0x1d8d4 ; process_control_request + 1624
        0x0001d65c:    9815        ..      LDR      r0,[sp,#0x54]
        0x0001d65e:    8880        ..      LDRH     r0,[r0,#4]
        0x0001d660:    f8ad005c    ..\.    STRH     r0,[sp,#0x5c]
        0x0001d664:    f8bd005c    ..\.    LDRH     r0,[sp,#0x5c]
        0x0001d668:    f88d0033    ..3.    STRB     r0,[sp,#0x33]
        0x0001d66c:    e7ff        ..      B        0x1d66e ; process_control_request + 1010
        0x0001d66e:    f89d0033    ..3.    LDRB     r0,[sp,#0x33]
        0x0001d672:    2810        .(      CMP      r0,#0x10
        0x0001d674:    d304        ..      BCC      0x1d680 ; process_control_request + 1028
        0x0001d676:    e7ff        ..      B        0x1d678 ; process_control_request + 1020
        0x0001d678:    2000        .       MOVS     r0,#0
        0x0001d67a:    f88d0059    ..Y.    STRB     r0,[sp,#0x59]
        0x0001d67e:    e12d        -.      B        0x1d8dc ; process_control_request + 1632
        0x0001d680:    e7ff        ..      B        0x1d682 ; process_control_request + 1030
        0x0001d682:    f89d1033    ..3.    LDRB     r1,[sp,#0x33]
        0x0001d686:    f24010b0    @...    MOVW     r0,#0x1b0
        0x0001d68a:    f2c10000    ....    MOVT     r0,#0x1000
        0x0001d68e:    4408        .D      ADD      r0,r0,r1
        0x0001d690:    78c0        .x      LDRB     r0,[r0,#3]
        0x0001d692:    f7fefec1    ....    BL       get_driver ; 0x1c418
        0x0001d696:    900b        ..      STR      r0,[sp,#0x2c]
        0x0001d698:    e7ff        ..      B        0x1d69a ; process_control_request + 1054
        0x0001d69a:    980b        ..      LDR      r0,[sp,#0x2c]
        0x0001d69c:    b920         .      CBNZ     r0,0x1d6a8 ; process_control_request + 1068
        0x0001d69e:    e7ff        ..      B        0x1d6a0 ; process_control_request + 1060
        0x0001d6a0:    2000        .       MOVS     r0,#0
        0x0001d6a2:    f88d0059    ..Y.    STRB     r0,[sp,#0x59]
        0x0001d6a6:    e119        ..      B        0x1d8dc ; process_control_request + 1632
        0x0001d6a8:    e7ff        ..      B        0x1d6aa ; process_control_request + 1070
        0x0001d6aa:    f89d0058    ..X.    LDRB     r0,[sp,#0x58]
        0x0001d6ae:    990b        ..      LDR      r1,[sp,#0x2c]
        0x0001d6b0:    9a15        ..      LDR      r2,[sp,#0x54]
        0x0001d6b2:    f7fffb63    ..c.    BL       invoke_class_control ; 0x1cd7c
        0x0001d6b6:    bb90        ..      CBNZ     r0,0x1d71e ; process_control_request + 1186
        0x0001d6b8:    e7ff        ..      B        0x1d6ba ; process_control_request + 1086
        0x0001d6ba:    e7ff        ..      B        0x1d6bc ; process_control_request + 1088
        0x0001d6bc:    9815        ..      LDR      r0,[sp,#0x54]
        0x0001d6be:    7800        .x      LDRB     r0,[r0,#0]
        0x0001d6c0:    0940        @.      LSRS     r0,r0,#5
        0x0001d6c2:    0780        ..      LSLS     r0,r0,#30
        0x0001d6c4:    b120         .      CBZ      r0,0x1d6d0 ; process_control_request + 1108
        0x0001d6c6:    e7ff        ..      B        0x1d6c8 ; process_control_request + 1100
        0x0001d6c8:    2000        .       MOVS     r0,#0
        0x0001d6ca:    f88d0059    ..Y.    STRB     r0,[sp,#0x59]
        0x0001d6ce:    e105        ..      B        0x1d8dc ; process_control_request + 1632
        0x0001d6d0:    e7ff        ..      B        0x1d6d2 ; process_control_request + 1110
        0x0001d6d2:    9815        ..      LDR      r0,[sp,#0x54]
        0x0001d6d4:    7840        @x      LDRB     r0,[r0,#1]
        0x0001d6d6:    380a        .8      SUBS     r0,r0,#0xa
        0x0001d6d8:    2801        .(      CMP      r0,#1
        0x0001d6da:    d81b        ..      BHI      0x1d714 ; process_control_request + 1176
        0x0001d6dc:    e7ff        ..      B        0x1d6de ; process_control_request + 1122
        0x0001d6de:    2000        .       MOVS     r0,#0
        0x0001d6e0:    f001fbe4    ....    BL       usbd_control_set_complete_callback ; 0x1eeac
        0x0001d6e4:    9815        ..      LDR      r0,[sp,#0x54]
        0x0001d6e6:    7840        @x      LDRB     r0,[r0,#1]
        0x0001d6e8:    280a        .(      CMP      r0,#0xa
        0x0001d6ea:    d10c        ..      BNE      0x1d706 ; process_control_request + 1162
        0x0001d6ec:    e7ff        ..      B        0x1d6ee ; process_control_request + 1138
        0x0001d6ee:    2000        .       MOVS     r0,#0
        0x0001d6f0:    f88d002b    ..+.    STRB     r0,[sp,#0x2b]
        0x0001d6f4:    f89d0058    ..X.    LDRB     r0,[sp,#0x58]
        0x0001d6f8:    9915        ..      LDR      r1,[sp,#0x54]
        0x0001d6fa:    f10d022b    ..+.    ADD      r2,sp,#0x2b
        0x0001d6fe:    2301        .#      MOVS     r3,#1
        0x0001d700:    f000fe50    ..P.    BL       tud_control_xfer ; 0x1e3a4
        0x0001d704:    e005        ..      B        0x1d712 ; process_control_request + 1174
        0x0001d706:    f89d0058    ..X.    LDRB     r0,[sp,#0x58]
        0x0001d70a:    9915        ..      LDR      r1,[sp,#0x54]
        0x0001d70c:    f000fe30    ..0.    BL       tud_control_status ; 0x1e370
        0x0001d710:    e7ff        ..      B        0x1d712 ; process_control_request + 1174
        0x0001d712:    e003        ..      B        0x1d71c ; process_control_request + 1184
        0x0001d714:    2000        .       MOVS     r0,#0
        0x0001d716:    f88d0059    ..Y.    STRB     r0,[sp,#0x59]
        0x0001d71a:    e0df        ..      B        0x1d8dc ; process_control_request + 1632
        0x0001d71c:    e7ff        ..      B        0x1d71e ; process_control_request + 1186
        0x0001d71e:    e0d9        ..      B        0x1d8d4 ; process_control_request + 1624
        0x0001d720:    9815        ..      LDR      r0,[sp,#0x54]
        0x0001d722:    8880        ..      LDRH     r0,[r0,#4]
        0x0001d724:    f8ad005e    ..^.    STRH     r0,[sp,#0x5e]
        0x0001d728:    f8bd005e    ..^.    LDRH     r0,[sp,#0x5e]
        0x0001d72c:    f88d002a    ..*.    STRB     r0,[sp,#0x2a]
        0x0001d730:    f89d002a    ..*.    LDRB     r0,[sp,#0x2a]
        0x0001d734:    f000fc9c    ....    BL       tu_edpt_number ; 0x1e070
        0x0001d738:    f88d0029    ..).    STRB     r0,[sp,#0x29]
        0x0001d73c:    f89d002a    ..*.    LDRB     r0,[sp,#0x2a]
        0x0001d740:    f000fc7c    ..|.    BL       tu_edpt_dir ; 0x1e03c
        0x0001d744:    f88d0028    ..(.    STRB     r0,[sp,#0x28]
        0x0001d748:    e7ff        ..      B        0x1d74a ; process_control_request + 1230
        0x0001d74a:    f89d0029    ..).    LDRB     r0,[sp,#0x29]
        0x0001d74e:    2808        .(      CMP      r0,#8
        0x0001d750:    d31e        ..      BCC      0x1d790 ; process_control_request + 1300
        0x0001d752:    e7ff        ..      B        0x1d754 ; process_control_request + 1240
        0x0001d754:    f64f3070    O.p0    MOV      r0,#0xfb70
        0x0001d758:    f2c00001    ....    MOVT     r0,#1
        0x0001d75c:    f64f71bf    O..q    MOV      r1,#0xffbf
        0x0001d760:    f2c00101    ....    MOVT     r1,#1
        0x0001d764:    f2403233    @.32    MOV      r2,#0x333
        0x0001d768:    f7fdfcf8    ....    BL       am_util_stdio_printf ; 0x1b15c
        0x0001d76c:    e7ff        ..      B        0x1d76e ; process_control_request + 1266
        0x0001d76e:    f64e50f0    N..P    MOV      r0,#0xedf0
        0x0001d772:    f2ce0000    ....    MOVT     r0,#0xe000
        0x0001d776:    9009        ..      STR      r0,[sp,#0x24]
        0x0001d778:    9809        ..      LDR      r0,[sp,#0x24]
        0x0001d77a:    6800        .h      LDR      r0,[r0,#0]
        0x0001d77c:    07c0        ..      LSLS     r0,r0,#31
        0x0001d77e:    b110        ..      CBZ      r0,0x1d786 ; process_control_request + 1290
        0x0001d780:    e7ff        ..      B        0x1d782 ; process_control_request + 1286
        0x0001d782:    be00        ..      BKPT     #0
        0x0001d784:    e7ff        ..      B        0x1d786 ; process_control_request + 1290
        0x0001d786:    e7ff        ..      B        0x1d788 ; process_control_request + 1292
        0x0001d788:    2000        .       MOVS     r0,#0
        0x0001d78a:    f88d0059    ..Y.    STRB     r0,[sp,#0x59]
        0x0001d78e:    e0a5        ..      B        0x1d8dc ; process_control_request + 1632
        0x0001d790:    e7ff        ..      B        0x1d792 ; process_control_request + 1302
        0x0001d792:    f89d1029    ..).    LDRB     r1,[sp,#0x29]
        0x0001d796:    f24010b0    @...    MOVW     r0,#0x1b0
        0x0001d79a:    f2c10000    ....    MOVT     r0,#0x1000
        0x0001d79e:    eb000041    ..A.    ADD      r0,r0,r1,LSL #1
        0x0001d7a2:    f89d1028    ..(.    LDRB     r1,[sp,#0x28]
        0x0001d7a6:    4408        .D      ADD      r0,r0,r1
        0x0001d7a8:    7cc0        .|      LDRB     r0,[r0,#0x13]
        0x0001d7aa:    f7fefe35    ..5.    BL       get_driver ; 0x1c418
        0x0001d7ae:    9008        ..      STR      r0,[sp,#0x20]
        0x0001d7b0:    9815        ..      LDR      r0,[sp,#0x54]
        0x0001d7b2:    7800        .x      LDRB     r0,[r0,#0]
        0x0001d7b4:    0940        @.      LSRS     r0,r0,#5
        0x0001d7b6:    0780        ..      LSLS     r0,r0,#30
        0x0001d7b8:    b190        ..      CBZ      r0,0x1d7e0 ; process_control_request + 1380
        0x0001d7ba:    e7ff        ..      B        0x1d7bc ; process_control_request + 1344
        0x0001d7bc:    e7ff        ..      B        0x1d7be ; process_control_request + 1346
        0x0001d7be:    9808        ..      LDR      r0,[sp,#0x20]
        0x0001d7c0:    b920         .      CBNZ     r0,0x1d7cc ; process_control_request + 1360
        0x0001d7c2:    e7ff        ..      B        0x1d7c4 ; process_control_request + 1352
        0x0001d7c4:    2000        .       MOVS     r0,#0
        0x0001d7c6:    f88d0059    ..Y.    STRB     r0,[sp,#0x59]
        0x0001d7ca:    e087        ..      B        0x1d8dc ; process_control_request + 1632
        0x0001d7cc:    e7ff        ..      B        0x1d7ce ; process_control_request + 1362
        0x0001d7ce:    f89d0058    ..X.    LDRB     r0,[sp,#0x58]
        0x0001d7d2:    9908        ..      LDR      r1,[sp,#0x20]
        0x0001d7d4:    9a15        ..      LDR      r2,[sp,#0x54]
        0x0001d7d6:    f7fffad1    ....    BL       invoke_class_control ; 0x1cd7c
        0x0001d7da:    f88d0059    ..Y.    STRB     r0,[sp,#0x59]
        0x0001d7de:    e07d        }.      B        0x1d8dc ; process_control_request + 1632
        0x0001d7e0:    9815        ..      LDR      r0,[sp,#0x54]
        0x0001d7e2:    7840        @x      LDRB     r0,[r0,#1]
        0x0001d7e4:    4601        .F      MOV      r1,r0
        0x0001d7e6:    9101        ..      STR      r1,[sp,#4]
        0x0001d7e8:    b140        @.      CBZ      r0,0x1d7fc ; process_control_request + 1408
        0x0001d7ea:    e7ff        ..      B        0x1d7ec ; process_control_request + 1392
        0x0001d7ec:    9801        ..      LDR      r0,[sp,#4]
        0x0001d7ee:    2801        .(      CMP      r0,#1
        0x0001d7f0:    d015        ..      BEQ      0x1d81e ; process_control_request + 1442
        0x0001d7f2:    e7ff        ..      B        0x1d7f4 ; process_control_request + 1400
        0x0001d7f4:    9801        ..      LDR      r0,[sp,#4]
        0x0001d7f6:    2803        .(      CMP      r0,#3
        0x0001d7f8:    d011        ..      BEQ      0x1d81e ; process_control_request + 1442
        0x0001d7fa:    e045        E.      B        0x1d888 ; process_control_request + 1548
        0x0001d7fc:    f89d0058    ..X.    LDRB     r0,[sp,#0x58]
        0x0001d800:    f89d102a    ..*.    LDRB     r1,[sp,#0x2a]
        0x0001d804:    f001fda0    ....    BL       usbd_edpt_stalled ; 0x1f348
        0x0001d808:    f8ad001e    ....    STRH     r0,[sp,#0x1e]
        0x0001d80c:    f89d0058    ..X.    LDRB     r0,[sp,#0x58]
        0x0001d810:    9915        ..      LDR      r1,[sp,#0x54]
        0x0001d812:    f10d021e    ....    ADD      r2,sp,#0x1e
        0x0001d816:    2302        .#      MOVS     r3,#2
        0x0001d818:    f000fdc4    ....    BL       tud_control_xfer ; 0x1e3a4
        0x0001d81c:    e046        F.      B        0x1d8ac ; process_control_request + 1584
        0x0001d81e:    9815        ..      LDR      r0,[sp,#0x54]
        0x0001d820:    8840        @.      LDRH     r0,[r0,#2]
        0x0001d822:    b9a0        ..      CBNZ     r0,0x1d84e ; process_control_request + 1490
        0x0001d824:    e7ff        ..      B        0x1d826 ; process_control_request + 1450
        0x0001d826:    9815        ..      LDR      r0,[sp,#0x54]
        0x0001d828:    7840        @x      LDRB     r0,[r0,#1]
        0x0001d82a:    2801        .(      CMP      r0,#1
        0x0001d82c:    d107        ..      BNE      0x1d83e ; process_control_request + 1474
        0x0001d82e:    e7ff        ..      B        0x1d830 ; process_control_request + 1460
        0x0001d830:    f89d0058    ..X.    LDRB     r0,[sp,#0x58]
        0x0001d834:    f89d102a    ..*.    LDRB     r1,[sp,#0x2a]
        0x0001d838:    f001fc88    ....    BL       usbd_edpt_clear_stall ; 0x1f14c
        0x0001d83c:    e006        ..      B        0x1d84c ; process_control_request + 1488
        0x0001d83e:    f89d0058    ..X.    LDRB     r0,[sp,#0x58]
        0x0001d842:    f89d102a    ..*.    LDRB     r1,[sp,#0x2a]
        0x0001d846:    f001fd31    ..1.    BL       usbd_edpt_stall ; 0x1f2ac
        0x0001d84a:    e7ff        ..      B        0x1d84c ; process_control_request + 1488
        0x0001d84c:    e7ff        ..      B        0x1d84e ; process_control_request + 1490
        0x0001d84e:    9808        ..      LDR      r0,[sp,#0x20]
        0x0001d850:    b1c8        ..      CBZ      r0,0x1d886 ; process_control_request + 1546
        0x0001d852:    e7ff        ..      B        0x1d854 ; process_control_request + 1496
        0x0001d854:    f89d0058    ..X.    LDRB     r0,[sp,#0x58]
        0x0001d858:    9908        ..      LDR      r1,[sp,#0x20]
        0x0001d85a:    9a15        ..      LDR      r2,[sp,#0x54]
        0x0001d85c:    f7fffa8e    ....    BL       invoke_class_control ; 0x1cd7c
        0x0001d860:    2000        .       MOVS     r0,#0
        0x0001d862:    f001fb23    ..#.    BL       usbd_control_set_complete_callback ; 0x1eeac
        0x0001d866:    f24010b0    @...    MOVW     r0,#0x1b0
        0x0001d86a:    f2c10000    ....    MOVT     r0,#0x1000
        0x0001d86e:    f8900024    ..$.    LDRB     r0,[r0,#0x24]
        0x0001d872:    07c0        ..      LSLS     r0,r0,#31
        0x0001d874:    b930        0.      CBNZ     r0,0x1d884 ; process_control_request + 1544
        0x0001d876:    e7ff        ..      B        0x1d878 ; process_control_request + 1532
        0x0001d878:    f89d0058    ..X.    LDRB     r0,[sp,#0x58]
        0x0001d87c:    9915        ..      LDR      r1,[sp,#0x54]
        0x0001d87e:    f000fd77    ..w.    BL       tud_control_status ; 0x1e370
        0x0001d882:    e7ff        ..      B        0x1d884 ; process_control_request + 1544
        0x0001d884:    e7ff        ..      B        0x1d886 ; process_control_request + 1546
        0x0001d886:    e011        ..      B        0x1d8ac ; process_control_request + 1584
        0x0001d888:    e7ff        ..      B        0x1d88a ; process_control_request + 1550
        0x0001d88a:    f64e50f0    N..P    MOV      r0,#0xedf0
        0x0001d88e:    f2ce0000    ....    MOVT     r0,#0xe000
        0x0001d892:    9006        ..      STR      r0,[sp,#0x18]
        0x0001d894:    9806        ..      LDR      r0,[sp,#0x18]
        0x0001d896:    6800        .h      LDR      r0,[r0,#0]
        0x0001d898:    07c0        ..      LSLS     r0,r0,#31
        0x0001d89a:    b110        ..      CBZ      r0,0x1d8a2 ; process_control_request + 1574
        0x0001d89c:    e7ff        ..      B        0x1d89e ; process_control_request + 1570
        0x0001d89e:    be00        ..      BKPT     #0
        0x0001d8a0:    e7ff        ..      B        0x1d8a2 ; process_control_request + 1574
        0x0001d8a2:    e7ff        ..      B        0x1d8a4 ; process_control_request + 1576
        0x0001d8a4:    2000        .       MOVS     r0,#0
        0x0001d8a6:    f88d0059    ..Y.    STRB     r0,[sp,#0x59]
        0x0001d8aa:    e017        ..      B        0x1d8dc ; process_control_request + 1632
        0x0001d8ac:    e7ff        ..      B        0x1d8ae ; process_control_request + 1586
        0x0001d8ae:    e011        ..      B        0x1d8d4 ; process_control_request + 1624
        0x0001d8b0:    e7ff        ..      B        0x1d8b2 ; process_control_request + 1590
        0x0001d8b2:    f64e50f0    N..P    MOV      r0,#0xedf0
        0x0001d8b6:    f2ce0000    ....    MOVT     r0,#0xe000
        0x0001d8ba:    9005        ..      STR      r0,[sp,#0x14]
        0x0001d8bc:    9805        ..      LDR      r0,[sp,#0x14]
        0x0001d8be:    6800        .h      LDR      r0,[r0,#0]
        0x0001d8c0:    07c0        ..      LSLS     r0,r0,#31
        0x0001d8c2:    b110        ..      CBZ      r0,0x1d8ca ; process_control_request + 1614
        0x0001d8c4:    e7ff        ..      B        0x1d8c6 ; process_control_request + 1610
        0x0001d8c6:    be00        ..      BKPT     #0
        0x0001d8c8:    e7ff        ..      B        0x1d8ca ; process_control_request + 1614
        0x0001d8ca:    e7ff        ..      B        0x1d8cc ; process_control_request + 1616
        0x0001d8cc:    2000        .       MOVS     r0,#0
        0x0001d8ce:    f88d0059    ..Y.    STRB     r0,[sp,#0x59]
        0x0001d8d2:    e003        ..      B        0x1d8dc ; process_control_request + 1632
        0x0001d8d4:    2001        .       MOVS     r0,#1
        0x0001d8d6:    f88d0059    ..Y.    STRB     r0,[sp,#0x59]
        0x0001d8da:    e7ff        ..      B        0x1d8dc ; process_control_request + 1632
        0x0001d8dc:    f89d0059    ..Y.    LDRB     r0,[sp,#0x59]
        0x0001d8e0:    b018        ..      ADD      sp,sp,#0x60
        0x0001d8e2:    bd80        ..      POP      {r7,pc}
    process_get_descriptor
        0x0001d8e4:    b580        ..      PUSH     {r7,lr}
        0x0001d8e6:    b096        ..      SUB      sp,sp,#0x58
        0x0001d8e8:    f88d004a    ..J.    STRB     r0,[sp,#0x4a]
        0x0001d8ec:    9111        ..      STR      r1,[sp,#0x44]
        0x0001d8ee:    9811        ..      LDR      r0,[sp,#0x44]
        0x0001d8f0:    8840        @.      LDRH     r0,[r0,#2]
        0x0001d8f2:    f8ad004c    ..L.    STRH     r0,[sp,#0x4c]
        0x0001d8f6:    f89d004d    ..M.    LDRB     r0,[sp,#0x4d]
        0x0001d8fa:    f88d0043    ..C.    STRB     r0,[sp,#0x43]
        0x0001d8fe:    9811        ..      LDR      r0,[sp,#0x44]
        0x0001d900:    8840        @.      LDRH     r0,[r0,#2]
        0x0001d902:    f8ad004e    ..N.    STRH     r0,[sp,#0x4e]
        0x0001d906:    f8bd004e    ..N.    LDRH     r0,[sp,#0x4e]
        0x0001d90a:    f88d0042    ..B.    STRB     r0,[sp,#0x42]
        0x0001d90e:    f89d0043    ..C.    LDRB     r0,[sp,#0x43]
        0x0001d912:    3801        .8      SUBS     r0,#1
        0x0001d914:    4601        .F      MOV      r1,r0
        0x0001d916:    9106        ..      STR      r1,[sp,#0x18]
        0x0001d918:    280e        .(      CMP      r0,#0xe
        0x0001d91a:    f2008127    ..'.    BHI.W    0x1db6c ; process_get_descriptor + 648
        0x0001d91e:    9906        ..      LDR      r1,[sp,#0x18]
        0x0001d920:    e8dff011    ....    TBH      [pc,r1,LSL #1]
    $d.52
        0x0001d924:    006a000f    ..j.    DCD    6946831
        0x0001d928:    012400ca    ..$.    DCD    19136714
        0x0001d92c:    00f40124    $...    DCD    15991076
        0x0001d930:    0124006a    j.$.    DCD    19136618
        0x0001d934:    01240124    $.$.    DCD    19136804
        0x0001d938:    01240124    $.$.    DCD    19136804
        0x0001d93c:    01240124    $.$.    DCD    19136804
        0x0001d940:    0022        ".      DCW    34
    $t.53
        0x0001d942:    f64f40fc    O..@    MOV      r0,#0xfcfc
        0x0001d946:    f2c00001    ....    MOVT     r0,#1
        0x0001d94a:    f7fdfc07    ....    BL       am_util_stdio_printf ; 0x1b15c
        0x0001d94e:    f000fdf7    ....    BL       tud_descriptor_device_cb ; 0x1e540
        0x0001d952:    900f        ..      STR      r0,[sp,#0x3c]
        0x0001d954:    f89d004a    ..J.    LDRB     r0,[sp,#0x4a]
        0x0001d958:    9911        ..      LDR      r1,[sp,#0x44]
        0x0001d95a:    9a0f        ..      LDR      r2,[sp,#0x3c]
        0x0001d95c:    2312        .#      MOVS     r3,#0x12
        0x0001d95e:    f000fd21    ..!.    BL       tud_control_xfer ; 0x1e3a4
        0x0001d962:    f88d004b    ..K.    STRB     r0,[sp,#0x4b]
        0x0001d966:    e105        ..      B        0x1db74 ; process_get_descriptor + 656
        0x0001d968:    f64f407e    O.~@    MOV      r0,#0xfc7e
        0x0001d96c:    f2c00001    ....    MOVT     r0,#1
        0x0001d970:    f7fdfbf4    ....    BL       am_util_stdio_printf ; 0x1b15c
        0x0001d974:    f2400000    @...    MOVW     r0,#0
        0x0001d978:    f2c00000    ....    MOVT     r0,#0
        0x0001d97c:    b920         .      CBNZ     r0,0x1d988 ; process_get_descriptor + 164
        0x0001d97e:    e7ff        ..      B        0x1d980 ; process_get_descriptor + 156
        0x0001d980:    2000        .       MOVS     r0,#0
        0x0001d982:    f88d004b    ..K.    STRB     r0,[sp,#0x4b]
        0x0001d986:    e0f5        ..      B        0x1db74 ; process_get_descriptor + 656
        0x0001d988:    f3af8000    ....    NOP.W    
        0x0001d98c:    900e        ..      STR      r0,[sp,#0x38]
        0x0001d98e:    e7ff        ..      B        0x1d990 ; process_get_descriptor + 172
        0x0001d990:    980e        ..      LDR      r0,[sp,#0x38]
        0x0001d992:    b9f0        ..      CBNZ     r0,0x1d9d2 ; process_get_descriptor + 238
        0x0001d994:    e7ff        ..      B        0x1d996 ; process_get_descriptor + 178
        0x0001d996:    f64f3070    O.p0    MOV      r0,#0xfb70
        0x0001d99a:    f2c00001    ....    MOVT     r0,#1
        0x0001d99e:    f64f7179    O.yq    MOV      r1,#0xff79
        0x0001d9a2:    f2c00101    ....    MOVT     r1,#1
        0x0001d9a6:    f24032fd    @..2    MOV      r2,#0x3fd
        0x0001d9aa:    f7fdfbd7    ....    BL       am_util_stdio_printf ; 0x1b15c
        0x0001d9ae:    e7ff        ..      B        0x1d9b0 ; process_get_descriptor + 204
        0x0001d9b0:    f64e50f0    N..P    MOV      r0,#0xedf0
        0x0001d9b4:    f2ce0000    ....    MOVT     r0,#0xe000
        0x0001d9b8:    900d        ..      STR      r0,[sp,#0x34]
        0x0001d9ba:    980d        ..      LDR      r0,[sp,#0x34]
        0x0001d9bc:    6800        .h      LDR      r0,[r0,#0]
        0x0001d9be:    07c0        ..      LSLS     r0,r0,#31
        0x0001d9c0:    b110        ..      CBZ      r0,0x1d9c8 ; process_get_descriptor + 228
        0x0001d9c2:    e7ff        ..      B        0x1d9c4 ; process_get_descriptor + 224
        0x0001d9c4:    be00        ..      BKPT     #0
        0x0001d9c6:    e7ff        ..      B        0x1d9c8 ; process_get_descriptor + 228
        0x0001d9c8:    e7ff        ..      B        0x1d9ca ; process_get_descriptor + 230
        0x0001d9ca:    2000        .       MOVS     r0,#0
        0x0001d9cc:    f88d004b    ..K.    STRB     r0,[sp,#0x4b]
        0x0001d9d0:    e0d0        ..      B        0x1db74 ; process_get_descriptor + 656
        0x0001d9d2:    e7ff        ..      B        0x1d9d4 ; process_get_descriptor + 240
        0x0001d9d4:    980e        ..      LDR      r0,[sp,#0x38]
        0x0001d9d6:    3002        .0      ADDS     r0,#2
        0x0001d9d8:    9014        ..      STR      r0,[sp,#0x50]
        0x0001d9da:    9814        ..      LDR      r0,[sp,#0x50]
        0x0001d9dc:    8800        ..      LDRH     r0,[r0,#0]
        0x0001d9de:    f8ad0032    ..2.    STRH     r0,[sp,#0x32]
        0x0001d9e2:    f89d004a    ..J.    LDRB     r0,[sp,#0x4a]
        0x0001d9e6:    9911        ..      LDR      r1,[sp,#0x44]
        0x0001d9e8:    9a0e        ..      LDR      r2,[sp,#0x38]
        0x0001d9ea:    f8bd3032    ..20    LDRH     r3,[sp,#0x32]
        0x0001d9ee:    f000fcd9    ....    BL       tud_control_xfer ; 0x1e3a4
        0x0001d9f2:    f88d004b    ..K.    STRB     r0,[sp,#0x4b]
        0x0001d9f6:    e0bd        ..      B        0x1db74 ; process_get_descriptor + 656
        0x0001d9f8:    f89d0043    ..C.    LDRB     r0,[sp,#0x43]
        0x0001d9fc:    2802        .(      CMP      r0,#2
        0x0001d9fe:    d10e        ..      BNE      0x1da1e ; process_get_descriptor + 314
        0x0001da00:    e7ff        ..      B        0x1da02 ; process_get_descriptor + 286
        0x0001da02:    f89d1042    ..B.    LDRB     r1,[sp,#0x42]
        0x0001da06:    f64f40c1    O..@    MOV      r0,#0xfcc1
        0x0001da0a:    f2c00001    ....    MOVT     r0,#1
        0x0001da0e:    f7fdfba5    ....    BL       am_util_stdio_printf ; 0x1b15c
        0x0001da12:    f89d0042    ..B.    LDRB     r0,[sp,#0x42]
        0x0001da16:    f000fd89    ....    BL       tud_descriptor_configuration_cb ; 0x1e52c
        0x0001da1a:    900b        ..      STR      r0,[sp,#0x2c]
        0x0001da1c:    e017        ..      B        0x1da4e ; process_get_descriptor + 362
        0x0001da1e:    f64f5054    O.TP    MOV      r0,#0xfd54
        0x0001da22:    f2c00001    ....    MOVT     r0,#1
        0x0001da26:    f7fdfb99    ....    BL       am_util_stdio_printf ; 0x1b15c
        0x0001da2a:    e7ff        ..      B        0x1da2c ; process_get_descriptor + 328
        0x0001da2c:    f2400000    @...    MOVW     r0,#0
        0x0001da30:    f2c00000    ....    MOVT     r0,#0
        0x0001da34:    b920         .      CBNZ     r0,0x1da40 ; process_get_descriptor + 348
        0x0001da36:    e7ff        ..      B        0x1da38 ; process_get_descriptor + 340
        0x0001da38:    2000        .       MOVS     r0,#0
        0x0001da3a:    f88d004b    ..K.    STRB     r0,[sp,#0x4b]
        0x0001da3e:    e099        ..      B        0x1db74 ; process_get_descriptor + 656
        0x0001da40:    e7ff        ..      B        0x1da42 ; process_get_descriptor + 350
        0x0001da42:    f89d0042    ..B.    LDRB     r0,[sp,#0x42]
        0x0001da46:    f3af8000    ....    NOP.W    
        0x0001da4a:    900b        ..      STR      r0,[sp,#0x2c]
        0x0001da4c:    e7ff        ..      B        0x1da4e ; process_get_descriptor + 362
        0x0001da4e:    e7ff        ..      B        0x1da50 ; process_get_descriptor + 364
        0x0001da50:    980b        ..      LDR      r0,[sp,#0x2c]
        0x0001da52:    b9f0        ..      CBNZ     r0,0x1da92 ; process_get_descriptor + 430
        0x0001da54:    e7ff        ..      B        0x1da56 ; process_get_descriptor + 370
        0x0001da56:    f64f3070    O.p0    MOV      r0,#0xfb70
        0x0001da5a:    f2c00001    ....    MOVT     r0,#1
        0x0001da5e:    f64f7179    O.yq    MOV      r1,#0xff79
        0x0001da62:    f2c00101    ....    MOVT     r1,#1
        0x0001da66:    f2404217    @..B    MOV      r2,#0x417
        0x0001da6a:    f7fdfb77    ..w.    BL       am_util_stdio_printf ; 0x1b15c
        0x0001da6e:    e7ff        ..      B        0x1da70 ; process_get_descriptor + 396
        0x0001da70:    f64e50f0    N..P    MOV      r0,#0xedf0
        0x0001da74:    f2ce0000    ....    MOVT     r0,#0xe000
        0x0001da78:    900a        ..      STR      r0,[sp,#0x28]
        0x0001da7a:    980a        ..      LDR      r0,[sp,#0x28]
        0x0001da7c:    6800        .h      LDR      r0,[r0,#0]
        0x0001da7e:    07c0        ..      LSLS     r0,r0,#31
        0x0001da80:    b110        ..      CBZ      r0,0x1da88 ; process_get_descriptor + 420
        0x0001da82:    e7ff        ..      B        0x1da84 ; process_get_descriptor + 416
        0x0001da84:    be00        ..      BKPT     #0
        0x0001da86:    e7ff        ..      B        0x1da88 ; process_get_descriptor + 420
        0x0001da88:    e7ff        ..      B        0x1da8a ; process_get_descriptor + 422
        0x0001da8a:    2000        .       MOVS     r0,#0
        0x0001da8c:    f88d004b    ..K.    STRB     r0,[sp,#0x4b]
        0x0001da90:    e070        p.      B        0x1db74 ; process_get_descriptor + 656
        0x0001da92:    e7ff        ..      B        0x1da94 ; process_get_descriptor + 432
        0x0001da94:    980b        ..      LDR      r0,[sp,#0x2c]
        0x0001da96:    3002        .0      ADDS     r0,#2
        0x0001da98:    9015        ..      STR      r0,[sp,#0x54]
        0x0001da9a:    9815        ..      LDR      r0,[sp,#0x54]
        0x0001da9c:    8800        ..      LDRH     r0,[r0,#0]
        0x0001da9e:    f8ad0026    ..&.    STRH     r0,[sp,#0x26]
        0x0001daa2:    f89d004a    ..J.    LDRB     r0,[sp,#0x4a]
        0x0001daa6:    9911        ..      LDR      r1,[sp,#0x44]
        0x0001daa8:    9a0b        ..      LDR      r2,[sp,#0x2c]
        0x0001daaa:    f8bd3026    ..&0    LDRH     r3,[sp,#0x26]
        0x0001daae:    f000fc79    ..y.    BL       tud_control_xfer ; 0x1e3a4
        0x0001dab2:    f88d004b    ..K.    STRB     r0,[sp,#0x4b]
        0x0001dab6:    e05d        ].      B        0x1db74 ; process_get_descriptor + 656
        0x0001dab8:    f89d1042    ..B.    LDRB     r1,[sp,#0x42]
        0x0001dabc:    f64f40b3    O..@    MOV      r0,#0xfcb3
        0x0001dac0:    f2c00001    ....    MOVT     r0,#1
        0x0001dac4:    f7fdfb4a    ..J.    BL       am_util_stdio_printf ; 0x1b15c
        0x0001dac8:    f89d0042    ..B.    LDRB     r0,[sp,#0x42]
        0x0001dacc:    9911        ..      LDR      r1,[sp,#0x44]
        0x0001dace:    8889        ..      LDRH     r1,[r1,#4]
        0x0001dad0:    f000fd3c    ..<.    BL       tud_descriptor_string_cb ; 0x1e54c
        0x0001dad4:    9008        ..      STR      r0,[sp,#0x20]
        0x0001dad6:    e7ff        ..      B        0x1dad8 ; process_get_descriptor + 500
        0x0001dad8:    9808        ..      LDR      r0,[sp,#0x20]
        0x0001dada:    b920         .      CBNZ     r0,0x1dae6 ; process_get_descriptor + 514
        0x0001dadc:    e7ff        ..      B        0x1dade ; process_get_descriptor + 506
        0x0001dade:    2000        .       MOVS     r0,#0
        0x0001dae0:    f88d004b    ..K.    STRB     r0,[sp,#0x4b]
        0x0001dae4:    e046        F.      B        0x1db74 ; process_get_descriptor + 656
        0x0001dae6:    e7ff        ..      B        0x1dae8 ; process_get_descriptor + 516
        0x0001dae8:    f89d004a    ..J.    LDRB     r0,[sp,#0x4a]
        0x0001daec:    9005        ..      STR      r0,[sp,#0x14]
        0x0001daee:    9811        ..      LDR      r0,[sp,#0x44]
        0x0001daf0:    9003        ..      STR      r0,[sp,#0xc]
        0x0001daf2:    9808        ..      LDR      r0,[sp,#0x20]
        0x0001daf4:    9004        ..      STR      r0,[sp,#0x10]
        0x0001daf6:    f000fa0b    ....    BL       tu_desc_len ; 0x1df10
        0x0001dafa:    9903        ..      LDR      r1,[sp,#0xc]
        0x0001dafc:    9a04        ..      LDR      r2,[sp,#0x10]
        0x0001dafe:    4603        .F      MOV      r3,r0
        0x0001db00:    9805        ..      LDR      r0,[sp,#0x14]
        0x0001db02:    f000fc4f    ..O.    BL       tud_control_xfer ; 0x1e3a4
        0x0001db06:    f88d004b    ..K.    STRB     r0,[sp,#0x4b]
        0x0001db0a:    e033        3.      B        0x1db74 ; process_get_descriptor + 656
        0x0001db0c:    f64f50a8    O..P    MOV      r0,#0xfda8
        0x0001db10:    f2c00001    ....    MOVT     r0,#1
        0x0001db14:    f7fdfb22    ..".    BL       am_util_stdio_printf ; 0x1b15c
        0x0001db18:    e7ff        ..      B        0x1db1a ; process_get_descriptor + 566
        0x0001db1a:    f2400000    @...    MOVW     r0,#0
        0x0001db1e:    f2c00000    ....    MOVT     r0,#0
        0x0001db22:    b920         .      CBNZ     r0,0x1db2e ; process_get_descriptor + 586
        0x0001db24:    e7ff        ..      B        0x1db26 ; process_get_descriptor + 578
        0x0001db26:    2000        .       MOVS     r0,#0
        0x0001db28:    f88d004b    ..K.    STRB     r0,[sp,#0x4b]
        0x0001db2c:    e022        ".      B        0x1db74 ; process_get_descriptor + 656
        0x0001db2e:    e7ff        ..      B        0x1db30 ; process_get_descriptor + 588
        0x0001db30:    f3af8000    ....    NOP.W    
        0x0001db34:    9007        ..      STR      r0,[sp,#0x1c]
        0x0001db36:    e7ff        ..      B        0x1db38 ; process_get_descriptor + 596
        0x0001db38:    9807        ..      LDR      r0,[sp,#0x1c]
        0x0001db3a:    b920         .      CBNZ     r0,0x1db46 ; process_get_descriptor + 610
        0x0001db3c:    e7ff        ..      B        0x1db3e ; process_get_descriptor + 602
        0x0001db3e:    2000        .       MOVS     r0,#0
        0x0001db40:    f88d004b    ..K.    STRB     r0,[sp,#0x4b]
        0x0001db44:    e016        ..      B        0x1db74 ; process_get_descriptor + 656
        0x0001db46:    e7ff        ..      B        0x1db48 ; process_get_descriptor + 612
        0x0001db48:    f89d004a    ..J.    LDRB     r0,[sp,#0x4a]
        0x0001db4c:    9002        ..      STR      r0,[sp,#8]
        0x0001db4e:    9811        ..      LDR      r0,[sp,#0x44]
        0x0001db50:    9000        ..      STR      r0,[sp,#0]
        0x0001db52:    9807        ..      LDR      r0,[sp,#0x1c]
        0x0001db54:    9001        ..      STR      r0,[sp,#4]
        0x0001db56:    f000f9db    ....    BL       tu_desc_len ; 0x1df10
        0x0001db5a:    9900        ..      LDR      r1,[sp,#0]
        0x0001db5c:    9a01        ..      LDR      r2,[sp,#4]
        0x0001db5e:    4603        .F      MOV      r3,r0
        0x0001db60:    9802        ..      LDR      r0,[sp,#8]
        0x0001db62:    f000fc1f    ....    BL       tud_control_xfer ; 0x1e3a4
        0x0001db66:    f88d004b    ..K.    STRB     r0,[sp,#0x4b]
        0x0001db6a:    e003        ..      B        0x1db74 ; process_get_descriptor + 656
        0x0001db6c:    2000        .       MOVS     r0,#0
        0x0001db6e:    f88d004b    ..K.    STRB     r0,[sp,#0x4b]
        0x0001db72:    e7ff        ..      B        0x1db74 ; process_get_descriptor + 656
        0x0001db74:    f89d004b    ..K.    LDRB     r0,[sp,#0x4b]
        0x0001db78:    b016        ..      ADD      sp,sp,#0x58
        0x0001db7a:    bd80        ..      POP      {r7,pc}
    process_set_config
        0x0001db7c:    b580        ..      PUSH     {r7,lr}
        0x0001db7e:    b08e        ..      SUB      sp,sp,#0x38
        0x0001db80:    f88d0036    ..6.    STRB     r0,[sp,#0x36]
        0x0001db84:    f88d1035    ..5.    STRB     r1,[sp,#0x35]
        0x0001db88:    f89d0035    ..5.    LDRB     r0,[sp,#0x35]
        0x0001db8c:    3801        .8      SUBS     r0,#1
        0x0001db8e:    b2c0        ..      UXTB     r0,r0
        0x0001db90:    f000fccc    ....    BL       tud_descriptor_configuration_cb ; 0x1e52c
        0x0001db94:    900c        ..      STR      r0,[sp,#0x30]
        0x0001db96:    e7ff        ..      B        0x1db98 ; process_set_config + 28
        0x0001db98:    980c        ..      LDR      r0,[sp,#0x30]
        0x0001db9a:    b128        (.      CBZ      r0,0x1dba8 ; process_set_config + 44
        0x0001db9c:    e7ff        ..      B        0x1db9e ; process_set_config + 34
        0x0001db9e:    980c        ..      LDR      r0,[sp,#0x30]
        0x0001dba0:    7840        @x      LDRB     r0,[r0,#1]
        0x0001dba2:    2802        .(      CMP      r0,#2
        0x0001dba4:    d01e        ..      BEQ      0x1dbe4 ; process_set_config + 104
        0x0001dba6:    e7ff        ..      B        0x1dba8 ; process_set_config + 44
        0x0001dba8:    f64f3070    O.p0    MOV      r0,#0xfb70
        0x0001dbac:    f2c00001    ....    MOVT     r0,#1
        0x0001dbb0:    f64f61d5    O..a    MOV      r1,#0xfed5
        0x0001dbb4:    f2c00101    ....    MOVT     r1,#1
        0x0001dbb8:    f240327b    @.{2    MOV      r2,#0x37b
        0x0001dbbc:    f7fdface    ....    BL       am_util_stdio_printf ; 0x1b15c
        0x0001dbc0:    e7ff        ..      B        0x1dbc2 ; process_set_config + 70
        0x0001dbc2:    f64e50f0    N..P    MOV      r0,#0xedf0
        0x0001dbc6:    f2ce0000    ....    MOVT     r0,#0xe000
        0x0001dbca:    900b        ..      STR      r0,[sp,#0x2c]
        0x0001dbcc:    980b        ..      LDR      r0,[sp,#0x2c]
        0x0001dbce:    6800        .h      LDR      r0,[r0,#0]
        0x0001dbd0:    07c0        ..      LSLS     r0,r0,#31
        0x0001dbd2:    b110        ..      CBZ      r0,0x1dbda ; process_set_config + 94
        0x0001dbd4:    e7ff        ..      B        0x1dbd6 ; process_set_config + 90
        0x0001dbd6:    be00        ..      BKPT     #0
        0x0001dbd8:    e7ff        ..      B        0x1dbda ; process_set_config + 94
        0x0001dbda:    e7ff        ..      B        0x1dbdc ; process_set_config + 96
        0x0001dbdc:    2000        .       MOVS     r0,#0
        0x0001dbde:    f88d0037    ..7.    STRB     r0,[sp,#0x37]
        0x0001dbe2:    e140        @.      B        0x1de66 ; process_set_config + 746
        0x0001dbe4:    e7ff        ..      B        0x1dbe6 ; process_set_config + 106
        0x0001dbe6:    980c        ..      LDR      r0,[sp,#0x30]
        0x0001dbe8:    79c0        .y      LDRB     r0,[r0,#7]
        0x0001dbea:    f0000220    .. .    AND      r2,r0,#0x20
        0x0001dbee:    f24011b0    @...    MOVW     r1,#0x1b0
        0x0001dbf2:    f2c10100    ....    MOVT     r1,#0x1000
        0x0001dbf6:    7808        .x      LDRB     r0,[r1,#0]
        0x0001dbf8:    f00000ef    ....    AND      r0,r0,#0xef
        0x0001dbfc:    ea400052    @.R.    ORR      r0,r0,r2,LSR #1
        0x0001dc00:    7008        .p      STRB     r0,[r1,#0]
        0x0001dc02:    980c        ..      LDR      r0,[sp,#0x30]
        0x0001dc04:    79c0        .y      LDRB     r0,[r0,#7]
        0x0001dc06:    f0000240    ..@.    AND      r2,r0,#0x40
        0x0001dc0a:    7808        .x      LDRB     r0,[r1,#0]
        0x0001dc0c:    f00000df    ....    AND      r0,r0,#0xdf
        0x0001dc10:    ea400052    @.R.    ORR      r0,r0,r2,LSR #1
        0x0001dc14:    7008        .p      STRB     r0,[r1,#0]
        0x0001dc16:    980c        ..      LDR      r0,[sp,#0x30]
        0x0001dc18:    3009        .0      ADDS     r0,r0,#9
        0x0001dc1a:    900a        ..      STR      r0,[sp,#0x28]
        0x0001dc1c:    980c        ..      LDR      r0,[sp,#0x30]
        0x0001dc1e:    8841        A.      LDRH     r1,[r0,#2]
        0x0001dc20:    4408        .D      ADD      r0,r0,r1
        0x0001dc22:    9009        ..      STR      r0,[sp,#0x24]
        0x0001dc24:    e7ff        ..      B        0x1dc26 ; process_set_config + 170
        0x0001dc26:    980a        ..      LDR      r0,[sp,#0x28]
        0x0001dc28:    9909        ..      LDR      r1,[sp,#0x24]
        0x0001dc2a:    4288        .B      CMP      r0,r1
        0x0001dc2c:    f080810e    ....    BCS.W    0x1de4c ; process_set_config + 720
        0x0001dc30:    e7ff        ..      B        0x1dc32 ; process_set_config + 182
        0x0001dc32:    2001        .       MOVS     r0,#1
        0x0001dc34:    f88d0023    ..#.    STRB     r0,[sp,#0x23]
        0x0001dc38:    980a        ..      LDR      r0,[sp,#0x28]
        0x0001dc3a:    f000f993    ....    BL       tu_desc_type ; 0x1df64
        0x0001dc3e:    280b        .(      CMP      r0,#0xb
        0x0001dc40:    d10b        ..      BNE      0x1dc5a ; process_set_config + 222
        0x0001dc42:    e7ff        ..      B        0x1dc44 ; process_set_config + 200
        0x0001dc44:    980a        ..      LDR      r0,[sp,#0x28]
        0x0001dc46:    9007        ..      STR      r0,[sp,#0x1c]
        0x0001dc48:    9807        ..      LDR      r0,[sp,#0x1c]
        0x0001dc4a:    78c0        .x      LDRB     r0,[r0,#3]
        0x0001dc4c:    f88d0023    ..#.    STRB     r0,[sp,#0x23]
        0x0001dc50:    980a        ..      LDR      r0,[sp,#0x28]
        0x0001dc52:    f000f96d    ..m.    BL       tu_desc_next ; 0x1df30
        0x0001dc56:    900a        ..      STR      r0,[sp,#0x28]
        0x0001dc58:    e7ff        ..      B        0x1dc5a ; process_set_config + 222
        0x0001dc5a:    e7ff        ..      B        0x1dc5c ; process_set_config + 224
        0x0001dc5c:    980a        ..      LDR      r0,[sp,#0x28]
        0x0001dc5e:    f000f981    ....    BL       tu_desc_type ; 0x1df64
        0x0001dc62:    2804        .(      CMP      r0,#4
        0x0001dc64:    d01e        ..      BEQ      0x1dca4 ; process_set_config + 296
        0x0001dc66:    e7ff        ..      B        0x1dc68 ; process_set_config + 236
        0x0001dc68:    f64f3070    O.p0    MOV      r0,#0xfb70
        0x0001dc6c:    f2c00001    ....    MOVT     r0,#1
        0x0001dc70:    f64f61d5    O..a    MOV      r1,#0xfed5
        0x0001dc74:    f2c00101    ....    MOVT     r1,#1
        0x0001dc78:    f2403296    @..2    MOV      r2,#0x396
        0x0001dc7c:    f7fdfa6e    ..n.    BL       am_util_stdio_printf ; 0x1b15c
        0x0001dc80:    e7ff        ..      B        0x1dc82 ; process_set_config + 262
        0x0001dc82:    f64e50f0    N..P    MOV      r0,#0xedf0
        0x0001dc86:    f2ce0000    ....    MOVT     r0,#0xe000
        0x0001dc8a:    9006        ..      STR      r0,[sp,#0x18]
        0x0001dc8c:    9806        ..      LDR      r0,[sp,#0x18]
        0x0001dc8e:    6800        .h      LDR      r0,[r0,#0]
        0x0001dc90:    07c0        ..      LSLS     r0,r0,#31
        0x0001dc92:    b110        ..      CBZ      r0,0x1dc9a ; process_set_config + 286
        0x0001dc94:    e7ff        ..      B        0x1dc96 ; process_set_config + 282
        0x0001dc96:    be00        ..      BKPT     #0
        0x0001dc98:    e7ff        ..      B        0x1dc9a ; process_set_config + 286
        0x0001dc9a:    e7ff        ..      B        0x1dc9c ; process_set_config + 288
        0x0001dc9c:    2000        .       MOVS     r0,#0
        0x0001dc9e:    f88d0037    ..7.    STRB     r0,[sp,#0x37]
        0x0001dca2:    e0e0        ..      B        0x1de66 ; process_set_config + 746
        0x0001dca4:    e7ff        ..      B        0x1dca6 ; process_set_config + 298
        0x0001dca6:    980a        ..      LDR      r0,[sp,#0x28]
        0x0001dca8:    9005        ..      STR      r0,[sp,#0x14]
        0x0001dcaa:    9809        ..      LDR      r0,[sp,#0x24]
        0x0001dcac:    990a        ..      LDR      r1,[sp,#0x28]
        0x0001dcae:    1a40        @.      SUBS     r0,r0,r1
        0x0001dcb0:    f8ad0012    ....    STRH     r0,[sp,#0x12]
        0x0001dcb4:    2000        .       MOVS     r0,#0
        0x0001dcb6:    f88d0011    ....    STRB     r0,[sp,#0x11]
        0x0001dcba:    e7ff        ..      B        0x1dcbc ; process_set_config + 320
        0x0001dcbc:    f89d0011    ....    LDRB     r0,[sp,#0x11]
        0x0001dcc0:    f24001cc    @...    MOVW     r1,#0xcc
        0x0001dcc4:    f2c10100    ....    MOVT     r1,#0x1000
        0x0001dcc8:    7809        .x      LDRB     r1,[r1,#0]
        0x0001dcca:    3101        .1      ADDS     r1,#1
        0x0001dccc:    4288        .B      CMP      r0,r1
        0x0001dcce:    f2808091    ....    BGE.W    0x1ddf4 ; process_set_config + 632
        0x0001dcd2:    e7ff        ..      B        0x1dcd4 ; process_set_config + 344
        0x0001dcd4:    f89d0011    ....    LDRB     r0,[sp,#0x11]
        0x0001dcd8:    f7fefb9e    ....    BL       get_driver ; 0x1c418
        0x0001dcdc:    9003        ..      STR      r0,[sp,#0xc]
        0x0001dcde:    9803        ..      LDR      r0,[sp,#0xc]
        0x0001dce0:    68c3        .h      LDR      r3,[r0,#0xc]
        0x0001dce2:    f89d0036    ..6.    LDRB     r0,[sp,#0x36]
        0x0001dce6:    9905        ..      LDR      r1,[sp,#0x14]
        0x0001dce8:    f8bd2012    ...     LDRH     r2,[sp,#0x12]
        0x0001dcec:    4798        .G      BLX      r3
        0x0001dcee:    f8ad000a    ....    STRH     r0,[sp,#0xa]
        0x0001dcf2:    f8bd000a    ....    LDRH     r0,[sp,#0xa]
        0x0001dcf6:    2809        .(      CMP      r0,#9
        0x0001dcf8:    d375        u.      BCC      0x1dde6 ; process_set_config + 618
        0x0001dcfa:    e7ff        ..      B        0x1dcfc ; process_set_config + 384
        0x0001dcfc:    f8bd000a    ....    LDRH     r0,[sp,#0xa]
        0x0001dd00:    f8bd1012    ....    LDRH     r1,[sp,#0x12]
        0x0001dd04:    4288        .B      CMP      r0,r1
        0x0001dd06:    dc6e        n.      BGT      0x1dde6 ; process_set_config + 618
        0x0001dd08:    e7ff        ..      B        0x1dd0a ; process_set_config + 398
        0x0001dd0a:    9803        ..      LDR      r0,[sp,#0xc]
        0x0001dd0c:    6801        .h      LDR      r1,[r0,#0]
        0x0001dd0e:    f64f40e3    O..@    MOV      r0,#0xfce3
        0x0001dd12:    f2c00001    ....    MOVT     r0,#1
        0x0001dd16:    f7fdfa21    ..!.    BL       am_util_stdio_printf ; 0x1b15c
        0x0001dd1a:    f89d0023    ..#.    LDRB     r0,[sp,#0x23]
        0x0001dd1e:    2801        .(      CMP      r0,#1
        0x0001dd20:    d101        ..      BNE      0x1dd26 ; process_set_config + 426
        0x0001dd22:    e7ff        ..      B        0x1dd24 ; process_set_config + 424
        0x0001dd24:    e7ff        ..      B        0x1dd26 ; process_set_config + 426
        0x0001dd26:    2000        .       MOVS     r0,#0
        0x0001dd28:    f88d0009    ....    STRB     r0,[sp,#9]
        0x0001dd2c:    e7ff        ..      B        0x1dd2e ; process_set_config + 434
        0x0001dd2e:    f89d0009    ....    LDRB     r0,[sp,#9]
        0x0001dd32:    f89d1023    ..#.    LDRB     r1,[sp,#0x23]
        0x0001dd36:    4288        .B      CMP      r0,r1
        0x0001dd38:    da43        C.      BGE      0x1ddc2 ; process_set_config + 582
        0x0001dd3a:    e7ff        ..      B        0x1dd3c ; process_set_config + 448
        0x0001dd3c:    9805        ..      LDR      r0,[sp,#0x14]
        0x0001dd3e:    7880        .x      LDRB     r0,[r0,#2]
        0x0001dd40:    f89d1009    ....    LDRB     r1,[sp,#9]
        0x0001dd44:    4408        .D      ADD      r0,r0,r1
        0x0001dd46:    f88d0008    ....    STRB     r0,[sp,#8]
        0x0001dd4a:    e7ff        ..      B        0x1dd4c ; process_set_config + 464
        0x0001dd4c:    f89d1008    ....    LDRB     r1,[sp,#8]
        0x0001dd50:    f24010b0    @...    MOVW     r0,#0x1b0
        0x0001dd54:    f2c10000    ....    MOVT     r0,#0x1000
        0x0001dd58:    4408        .D      ADD      r0,r0,r1
        0x0001dd5a:    78c0        .x      LDRB     r0,[r0,#3]
        0x0001dd5c:    28ff        .(      CMP      r0,#0xff
        0x0001dd5e:    d01e        ..      BEQ      0x1dd9e ; process_set_config + 546
        0x0001dd60:    e7ff        ..      B        0x1dd62 ; process_set_config + 486
        0x0001dd62:    f64f3070    O.p0    MOV      r0,#0xfb70
        0x0001dd66:    f2c00001    ....    MOVT     r0,#1
        0x0001dd6a:    f64f61d5    O..a    MOV      r1,#0xfed5
        0x0001dd6e:    f2c00101    ....    MOVT     r1,#1
        0x0001dd72:    f24032bd    @..2    MOV      r2,#0x3bd
        0x0001dd76:    f7fdf9f1    ....    BL       am_util_stdio_printf ; 0x1b15c
        0x0001dd7a:    e7ff        ..      B        0x1dd7c ; process_set_config + 512
        0x0001dd7c:    f64e50f0    N..P    MOV      r0,#0xedf0
        0x0001dd80:    f2ce0000    ....    MOVT     r0,#0xe000
        0x0001dd84:    9001        ..      STR      r0,[sp,#4]
        0x0001dd86:    9801        ..      LDR      r0,[sp,#4]
        0x0001dd88:    6800        .h      LDR      r0,[r0,#0]
        0x0001dd8a:    07c0        ..      LSLS     r0,r0,#31
        0x0001dd8c:    b110        ..      CBZ      r0,0x1dd94 ; process_set_config + 536
        0x0001dd8e:    e7ff        ..      B        0x1dd90 ; process_set_config + 532
        0x0001dd90:    be00        ..      BKPT     #0
        0x0001dd92:    e7ff        ..      B        0x1dd94 ; process_set_config + 536
        0x0001dd94:    e7ff        ..      B        0x1dd96 ; process_set_config + 538
        0x0001dd96:    2000        .       MOVS     r0,#0
        0x0001dd98:    f88d0037    ..7.    STRB     r0,[sp,#0x37]
        0x0001dd9c:    e063        c.      B        0x1de66 ; process_set_config + 746
        0x0001dd9e:    e7ff        ..      B        0x1dda0 ; process_set_config + 548
        0x0001dda0:    f89d0011    ....    LDRB     r0,[sp,#0x11]
        0x0001dda4:    f89d2008    ...     LDRB     r2,[sp,#8]
        0x0001dda8:    f24011b0    @...    MOVW     r1,#0x1b0
        0x0001ddac:    f2c10100    ....    MOVT     r1,#0x1000
        0x0001ddb0:    4411        .D      ADD      r1,r1,r2
        0x0001ddb2:    70c8        .p      STRB     r0,[r1,#3]
        0x0001ddb4:    e7ff        ..      B        0x1ddb6 ; process_set_config + 570
        0x0001ddb6:    f89d0009    ....    LDRB     r0,[sp,#9]
        0x0001ddba:    3001        .0      ADDS     r0,#1
        0x0001ddbc:    f88d0009    ....    STRB     r0,[sp,#9]
        0x0001ddc0:    e7b5        ..      B        0x1dd2e ; process_set_config + 434
        0x0001ddc2:    9905        ..      LDR      r1,[sp,#0x14]
        0x0001ddc4:    f8bd200a    ...     LDRH     r2,[sp,#0xa]
        0x0001ddc8:    f89d3011    ...0    LDRB     r3,[sp,#0x11]
        0x0001ddcc:    f24010b0    @...    MOVW     r0,#0x1b0
        0x0001ddd0:    f2c10000    ....    MOVT     r0,#0x1000
        0x0001ddd4:    3013        .0      ADDS     r0,r0,#0x13
        0x0001ddd6:    f000f8e1    ....    BL       tu_edpt_bind_driver ; 0x1df9c
        0x0001ddda:    f8bd100a    ....    LDRH     r1,[sp,#0xa]
        0x0001ddde:    980a        ..      LDR      r0,[sp,#0x28]
        0x0001dde0:    4408        .D      ADD      r0,r0,r1
        0x0001dde2:    900a        ..      STR      r0,[sp,#0x28]
        0x0001dde4:    e006        ..      B        0x1ddf4 ; process_set_config + 632
        0x0001dde6:    e7ff        ..      B        0x1dde8 ; process_set_config + 620
        0x0001dde8:    f89d0011    ....    LDRB     r0,[sp,#0x11]
        0x0001ddec:    3001        .0      ADDS     r0,#1
        0x0001ddee:    f88d0011    ....    STRB     r0,[sp,#0x11]
        0x0001ddf2:    e763        c.      B        0x1dcbc ; process_set_config + 320
        0x0001ddf4:    e7ff        ..      B        0x1ddf6 ; process_set_config + 634
        0x0001ddf6:    f89d0011    ....    LDRB     r0,[sp,#0x11]
        0x0001ddfa:    f24001cc    @...    MOVW     r1,#0xcc
        0x0001ddfe:    f2c10100    ....    MOVT     r1,#0x1000
        0x0001de02:    7809        .x      LDRB     r1,[r1,#0]
        0x0001de04:    3101        .1      ADDS     r1,#1
        0x0001de06:    4288        .B      CMP      r0,r1
        0x0001de08:    db1e        ..      BLT      0x1de48 ; process_set_config + 716
        0x0001de0a:    e7ff        ..      B        0x1de0c ; process_set_config + 656
        0x0001de0c:    f64f3070    O.p0    MOV      r0,#0xfb70
        0x0001de10:    f2c00001    ....    MOVT     r0,#1
        0x0001de14:    f64f61d5    O..a    MOV      r1,#0xfed5
        0x0001de18:    f2c00101    ....    MOVT     r1,#1
        0x0001de1c:    f44f7273    O.sr    MOV      r2,#0x3cc
        0x0001de20:    f7fdf99c    ....    BL       am_util_stdio_printf ; 0x1b15c
        0x0001de24:    e7ff        ..      B        0x1de26 ; process_set_config + 682
        0x0001de26:    f64e50f0    N..P    MOV      r0,#0xedf0
        0x0001de2a:    f2ce0000    ....    MOVT     r0,#0xe000
        0x0001de2e:    9000        ..      STR      r0,[sp,#0]
        0x0001de30:    9800        ..      LDR      r0,[sp,#0]
        0x0001de32:    6800        .h      LDR      r0,[r0,#0]
        0x0001de34:    07c0        ..      LSLS     r0,r0,#31
        0x0001de36:    b110        ..      CBZ      r0,0x1de3e ; process_set_config + 706
        0x0001de38:    e7ff        ..      B        0x1de3a ; process_set_config + 702
        0x0001de3a:    be00        ..      BKPT     #0
        0x0001de3c:    e7ff        ..      B        0x1de3e ; process_set_config + 706
        0x0001de3e:    e7ff        ..      B        0x1de40 ; process_set_config + 708
        0x0001de40:    2000        .       MOVS     r0,#0
        0x0001de42:    f88d0037    ..7.    STRB     r0,[sp,#0x37]
        0x0001de46:    e00e        ..      B        0x1de66 ; process_set_config + 746
        0x0001de48:    e7ff        ..      B        0x1de4a ; process_set_config + 718
        0x0001de4a:    e6ec        ..      B        0x1dc26 ; process_set_config + 170
        0x0001de4c:    f2400000    @...    MOVW     r0,#0
        0x0001de50:    f2c00000    ....    MOVT     r0,#0
        0x0001de54:    b118        ..      CBZ      r0,0x1de5e ; process_set_config + 738
        0x0001de56:    e7ff        ..      B        0x1de58 ; process_set_config + 732
        0x0001de58:    f3af8000    ....    NOP.W    
        0x0001de5c:    e7ff        ..      B        0x1de5e ; process_set_config + 738
        0x0001de5e:    2001        .       MOVS     r0,#1
        0x0001de60:    f88d0037    ..7.    STRB     r0,[sp,#0x37]
        0x0001de64:    e7ff        ..      B        0x1de66 ; process_set_config + 746
        0x0001de66:    f89d0037    ..7.    LDRB     r0,[sp,#0x37]
        0x0001de6a:    b00e        ..      ADD      sp,sp,#0x38
        0x0001de6c:    bd80        ..      POP      {r7,pc}
    read_transaction_save
        0x0001de6e:    b5b0        ..      PUSH     {r4,r5,r7,lr}
        0x0001de70:    b082        ..      SUB      sp,sp,#8
        0x0001de72:    460d        .F      MOV      r5,r1
        0x0001de74:    4604        .F      MOV      r4,r0
        0x0001de76:    f7fbfa2f    ../.    BL       am_hal_interrupt_master_disable ; 0x192d8
        0x0001de7a:    9001        ..      STR      r0,[sp,#4]
        0x0001de7c:    f894002c    ..,.    LDRB     r0,[r4,#0x2c]
        0x0001de80:    b118        ..      CBZ      r0,0x1de8a ; read_transaction_save + 28
        0x0001de82:    2505        .%      MOVS     r5,#5
        0x0001de84:    f6c00500    ....    MOVT     r5,#0x800
        0x0001de88:    e015        ..      B        0x1deb6 ; read_transaction_save + 72
        0x0001de8a:    2001        .       MOVS     r0,#1
        0x0001de8c:    f884002c    ..,.    STRB     r0,[r4,#0x2c]
        0x0001de90:    7828        (x      LDRB     r0,[r5,#0]
        0x0001de92:    6869        ih      LDR      r1,[r5,#4]
        0x0001de94:    f8840030    ..0.    STRB     r0,[r4,#0x30]
        0x0001de98:    6361        ac      STR      r1,[r4,#0x34]
        0x0001de9a:    e9d50102    ....    LDRD     r0,r1,[r5,#8]
        0x0001de9e:    e9c4010e    ....    STRD     r0,r1,[r4,#0x38]
        0x0001dea2:    e9d50104    ....    LDRD     r0,r1,[r5,#0x10]
        0x0001dea6:    e9c40110    ....    STRD     r0,r1,[r4,#0x40]
        0x0001deaa:    e9d50106    ....    LDRD     r0,r1,[r5,#0x18]
        0x0001deae:    2500        .%      MOVS     r5,#0
        0x0001deb0:    e9c40112    ....    STRD     r0,r1,[r4,#0x48]
        0x0001deb4:    6525        %e      STR      r5,[r4,#0x50]
        0x0001deb6:    9801        ..      LDR      r0,[sp,#4]
        0x0001deb8:    f7fbfa16    ....    BL       am_hal_interrupt_master_set ; 0x192e8
        0x0001debc:    4628        (F      MOV      r0,r5
        0x0001debe:    b002        ..      ADD      sp,sp,#8
        0x0001dec0:    bdb0        ..      POP      {r4,r5,r7,pc}
        0x0001dec2:    0000        ..      MOVS     r0,r0
    revmaj_get
        0x0001dec4:    b082        ..      SUB      sp,sp,#8
        0x0001dec6:    9001        ..      STR      r0,[sp,#4]
        0x0001dec8:    f89d0004    ....    LDRB     r0,[sp,#4]
        0x0001decc:    0900        ..      LSRS     r0,r0,#4
        0x0001dece:    9000        ..      STR      r0,[sp,#0]
        0x0001ded0:    9800        ..      LDR      r0,[sp,#0]
        0x0001ded2:    3040        @0      ADDS     r0,r0,#0x40
        0x0001ded4:    b002        ..      ADD      sp,sp,#8
        0x0001ded6:    4770        pG      BX       lr
    simple_strlen
        0x0001ded8:    b083        ..      SUB      sp,sp,#0xc
        0x0001deda:    9001        ..      STR      r0,[sp,#4]
        0x0001dedc:    2000        .       MOVS     r0,#0
        0x0001dede:    9000        ..      STR      r0,[sp,#0]
        0x0001dee0:    9801        ..      LDR      r0,[sp,#4]
        0x0001dee2:    b918        ..      CBNZ     r0,0x1deec ; simple_strlen + 20
        0x0001dee4:    e7ff        ..      B        0x1dee6 ; simple_strlen + 14
        0x0001dee6:    9800        ..      LDR      r0,[sp,#0]
        0x0001dee8:    9002        ..      STR      r0,[sp,#8]
        0x0001deea:    e00d        ..      B        0x1df08 ; simple_strlen + 48
        0x0001deec:    e7ff        ..      B        0x1deee ; simple_strlen + 22
        0x0001deee:    9801        ..      LDR      r0,[sp,#4]
        0x0001def0:    1c41        A.      ADDS     r1,r0,#1
        0x0001def2:    9101        ..      STR      r1,[sp,#4]
        0x0001def4:    7800        .x      LDRB     r0,[r0,#0]
        0x0001def6:    b120         .      CBZ      r0,0x1df02 ; simple_strlen + 42
        0x0001def8:    e7ff        ..      B        0x1defa ; simple_strlen + 34
        0x0001defa:    9800        ..      LDR      r0,[sp,#0]
        0x0001defc:    3001        .0      ADDS     r0,#1
        0x0001defe:    9000        ..      STR      r0,[sp,#0]
        0x0001df00:    e7f5        ..      B        0x1deee ; simple_strlen + 22
        0x0001df02:    9800        ..      LDR      r0,[sp,#0]
        0x0001df04:    9002        ..      STR      r0,[sp,#8]
        0x0001df06:    e7ff        ..      B        0x1df08 ; simple_strlen + 48
        0x0001df08:    9802        ..      LDR      r0,[sp,#8]
        0x0001df0a:    b003        ..      ADD      sp,sp,#0xc
        0x0001df0c:    4770        pG      BX       lr
        0x0001df0e:    0000        ..      MOVS     r0,r0
    tu_desc_len
        0x0001df10:    b081        ..      SUB      sp,sp,#4
        0x0001df12:    9000        ..      STR      r0,[sp,#0]
        0x0001df14:    9800        ..      LDR      r0,[sp,#0]
        0x0001df16:    7800        .x      LDRB     r0,[r0,#0]
        0x0001df18:    b001        ..      ADD      sp,sp,#4
        0x0001df1a:    4770        pG      BX       lr
    tu_desc_next
        0x0001df1c:    b082        ..      SUB      sp,sp,#8
        0x0001df1e:    9001        ..      STR      r0,[sp,#4]
        0x0001df20:    9801        ..      LDR      r0,[sp,#4]
        0x0001df22:    9000        ..      STR      r0,[sp,#0]
        0x0001df24:    9800        ..      LDR      r0,[sp,#0]
        0x0001df26:    7801        .x      LDRB     r1,[r0,#0]
        0x0001df28:    4408        .D      ADD      r0,r0,r1
        0x0001df2a:    b002        ..      ADD      sp,sp,#8
        0x0001df2c:    4770        pG      BX       lr
        0x0001df2e:    0000        ..      MOVS     r0,r0
    tu_desc_next
        0x0001df30:    b082        ..      SUB      sp,sp,#8
        0x0001df32:    9001        ..      STR      r0,[sp,#4]
        0x0001df34:    9801        ..      LDR      r0,[sp,#4]
        0x0001df36:    9000        ..      STR      r0,[sp,#0]
        0x0001df38:    9800        ..      LDR      r0,[sp,#0]
        0x0001df3a:    7801        .x      LDRB     r1,[r0,#0]
        0x0001df3c:    4408        .D      ADD      r0,r0,r1
        0x0001df3e:    b002        ..      ADD      sp,sp,#8
        0x0001df40:    4770        pG      BX       lr
        0x0001df42:    0000        ..      MOVS     r0,r0
    tu_desc_next
        0x0001df44:    b082        ..      SUB      sp,sp,#8
        0x0001df46:    9001        ..      STR      r0,[sp,#4]
        0x0001df48:    9801        ..      LDR      r0,[sp,#4]
        0x0001df4a:    9000        ..      STR      r0,[sp,#0]
        0x0001df4c:    9800        ..      LDR      r0,[sp,#0]
        0x0001df4e:    7801        .x      LDRB     r1,[r0,#0]
        0x0001df50:    4408        .D      ADD      r0,r0,r1
        0x0001df52:    b002        ..      ADD      sp,sp,#8
        0x0001df54:    4770        pG      BX       lr
        0x0001df56:    0000        ..      MOVS     r0,r0
    tu_desc_type
        0x0001df58:    b081        ..      SUB      sp,sp,#4
        0x0001df5a:    9000        ..      STR      r0,[sp,#0]
        0x0001df5c:    9800        ..      LDR      r0,[sp,#0]
        0x0001df5e:    7840        @x      LDRB     r0,[r0,#1]
        0x0001df60:    b001        ..      ADD      sp,sp,#4
        0x0001df62:    4770        pG      BX       lr
    tu_desc_type
        0x0001df64:    b081        ..      SUB      sp,sp,#4
        0x0001df66:    9000        ..      STR      r0,[sp,#0]
        0x0001df68:    9800        ..      LDR      r0,[sp,#0]
        0x0001df6a:    7840        @x      LDRB     r0,[r0,#1]
        0x0001df6c:    b001        ..      ADD      sp,sp,#4
        0x0001df6e:    4770        pG      BX       lr
    tu_desc_type
        0x0001df70:    b081        ..      SUB      sp,sp,#4
        0x0001df72:    9000        ..      STR      r0,[sp,#0]
        0x0001df74:    9800        ..      LDR      r0,[sp,#0]
        0x0001df76:    7840        @x      LDRB     r0,[r0,#1]
        0x0001df78:    b001        ..      ADD      sp,sp,#4
        0x0001df7a:    4770        pG      BX       lr
    tu_edpt_addr
        0x0001df7c:    b081        ..      SUB      sp,sp,#4
        0x0001df7e:    f88d0003    ....    STRB     r0,[sp,#3]
        0x0001df82:    f88d1002    ....    STRB     r1,[sp,#2]
        0x0001df86:    f89d0003    ....    LDRB     r0,[sp,#3]
        0x0001df8a:    f89d2002    ...     LDRB     r2,[sp,#2]
        0x0001df8e:    f0400180    @...    ORR      r1,r0,#0x80
        0x0001df92:    2a00        .*      CMP      r2,#0
        0x0001df94:    bf18        ..      IT       NE
        0x0001df96:    4608        .F      MOVNE    r0,r1
        0x0001df98:    b001        ..      ADD      sp,sp,#4
        0x0001df9a:    4770        pG      BX       lr
    tu_edpt_bind_driver
        0x0001df9c:    b580        ..      PUSH     {r7,lr}
        0x0001df9e:    b08a        ..      SUB      sp,sp,#0x28
        0x0001dfa0:    9009        ..      STR      r0,[sp,#0x24]
        0x0001dfa2:    9108        ..      STR      r1,[sp,#0x20]
        0x0001dfa4:    f8ad201e    ...     STRH     r2,[sp,#0x1e]
        0x0001dfa8:    f88d301d    ...0    STRB     r3,[sp,#0x1d]
        0x0001dfac:    9808        ..      LDR      r0,[sp,#0x20]
        0x0001dfae:    9006        ..      STR      r0,[sp,#0x18]
        0x0001dfb0:    9806        ..      LDR      r0,[sp,#0x18]
        0x0001dfb2:    f8bd101e    ....    LDRH     r1,[sp,#0x1e]
        0x0001dfb6:    4408        .D      ADD      r0,r0,r1
        0x0001dfb8:    9005        ..      STR      r0,[sp,#0x14]
        0x0001dfba:    e7ff        ..      B        0x1dfbc ; tu_edpt_bind_driver + 32
        0x0001dfbc:    9806        ..      LDR      r0,[sp,#0x18]
        0x0001dfbe:    9905        ..      LDR      r1,[sp,#0x14]
        0x0001dfc0:    4288        .B      CMP      r0,r1
        0x0001dfc2:    d230        0.      BCS      0x1e026 ; tu_edpt_bind_driver + 138
        0x0001dfc4:    e7ff        ..      B        0x1dfc6 ; tu_edpt_bind_driver + 42
        0x0001dfc6:    9806        ..      LDR      r0,[sp,#0x18]
        0x0001dfc8:    f7ffffc6    ....    BL       tu_desc_type ; 0x1df58
        0x0001dfcc:    2805        .(      CMP      r0,#5
        0x0001dfce:    d125        %.      BNE      0x1e01c ; tu_edpt_bind_driver + 128
        0x0001dfd0:    e7ff        ..      B        0x1dfd2 ; tu_edpt_bind_driver + 54
        0x0001dfd2:    9806        ..      LDR      r0,[sp,#0x18]
        0x0001dfd4:    7880        .x      LDRB     r0,[r0,#2]
        0x0001dfd6:    f88d0013    ....    STRB     r0,[sp,#0x13]
        0x0001dfda:    f89d1013    ....    LDRB     r1,[sp,#0x13]
        0x0001dfde:    f89d201d    ...     LDRB     r2,[sp,#0x1d]
        0x0001dfe2:    f64f30a7    O..0    MOV      r0,#0xfba7
        0x0001dfe6:    f2c00001    ....    MOVT     r0,#1
        0x0001dfea:    f7fdf8b7    ....    BL       am_util_stdio_printf ; 0x1b15c
        0x0001dfee:    f89d001d    ....    LDRB     r0,[sp,#0x1d]
        0x0001dff2:    9003        ..      STR      r0,[sp,#0xc]
        0x0001dff4:    9809        ..      LDR      r0,[sp,#0x24]
        0x0001dff6:    9001        ..      STR      r0,[sp,#4]
        0x0001dff8:    f89d0013    ....    LDRB     r0,[sp,#0x13]
        0x0001dffc:    f000f82e    ....    BL       tu_edpt_number ; 0x1e05c
        0x0001e000:    4601        .F      MOV      r1,r0
        0x0001e002:    9801        ..      LDR      r0,[sp,#4]
        0x0001e004:    eb000041    ..A.    ADD      r0,r0,r1,LSL #1
        0x0001e008:    9002        ..      STR      r0,[sp,#8]
        0x0001e00a:    f89d0013    ....    LDRB     r0,[sp,#0x13]
        0x0001e00e:    f000f80d    ....    BL       tu_edpt_dir ; 0x1e02c
        0x0001e012:    9902        ..      LDR      r1,[sp,#8]
        0x0001e014:    4602        .F      MOV      r2,r0
        0x0001e016:    9803        ..      LDR      r0,[sp,#0xc]
        0x0001e018:    5488        .T      STRB     r0,[r1,r2]
        0x0001e01a:    e7ff        ..      B        0x1e01c ; tu_edpt_bind_driver + 128
        0x0001e01c:    9806        ..      LDR      r0,[sp,#0x18]
        0x0001e01e:    f7ffff7d    ..}.    BL       tu_desc_next ; 0x1df1c
        0x0001e022:    9006        ..      STR      r0,[sp,#0x18]
        0x0001e024:    e7ca        ..      B        0x1dfbc ; tu_edpt_bind_driver + 32
        0x0001e026:    b00a        ..      ADD      sp,sp,#0x28
        0x0001e028:    bd80        ..      POP      {r7,pc}
        0x0001e02a:    0000        ..      MOVS     r0,r0
    tu_edpt_dir
        0x0001e02c:    b081        ..      SUB      sp,sp,#4
        0x0001e02e:    f88d0003    ....    STRB     r0,[sp,#3]
        0x0001e032:    f89d0003    ....    LDRB     r0,[sp,#3]
        0x0001e036:    09c0        ..      LSRS     r0,r0,#7
        0x0001e038:    b001        ..      ADD      sp,sp,#4
        0x0001e03a:    4770        pG      BX       lr
    tu_edpt_dir
        0x0001e03c:    b081        ..      SUB      sp,sp,#4
        0x0001e03e:    f88d0003    ....    STRB     r0,[sp,#3]
        0x0001e042:    f89d0003    ....    LDRB     r0,[sp,#3]
        0x0001e046:    09c0        ..      LSRS     r0,r0,#7
        0x0001e048:    b001        ..      ADD      sp,sp,#4
        0x0001e04a:    4770        pG      BX       lr
    tu_edpt_dir
        0x0001e04c:    b081        ..      SUB      sp,sp,#4
        0x0001e04e:    f88d0003    ....    STRB     r0,[sp,#3]
        0x0001e052:    f89d0003    ....    LDRB     r0,[sp,#3]
        0x0001e056:    09c0        ..      LSRS     r0,r0,#7
        0x0001e058:    b001        ..      ADD      sp,sp,#4
        0x0001e05a:    4770        pG      BX       lr
    tu_edpt_number
        0x0001e05c:    b081        ..      SUB      sp,sp,#4
        0x0001e05e:    f88d0003    ....    STRB     r0,[sp,#3]
        0x0001e062:    f89d0003    ....    LDRB     r0,[sp,#3]
        0x0001e066:    f000007f    ....    AND      r0,r0,#0x7f
        0x0001e06a:    b001        ..      ADD      sp,sp,#4
        0x0001e06c:    4770        pG      BX       lr
        0x0001e06e:    0000        ..      MOVS     r0,r0
    tu_edpt_number
        0x0001e070:    b081        ..      SUB      sp,sp,#4
        0x0001e072:    f88d0003    ....    STRB     r0,[sp,#3]
        0x0001e076:    f89d0003    ....    LDRB     r0,[sp,#3]
        0x0001e07a:    f000007f    ....    AND      r0,r0,#0x7f
        0x0001e07e:    b001        ..      ADD      sp,sp,#4
        0x0001e080:    4770        pG      BX       lr
        0x0001e082:    0000        ..      MOVS     r0,r0
    tu_edpt_packet_size
        0x0001e084:    b081        ..      SUB      sp,sp,#4
        0x0001e086:    9000        ..      STR      r0,[sp,#0]
        0x0001e088:    9800        ..      LDR      r0,[sp,#0]
        0x0001e08a:    8880        ..      LDRH     r0,[r0,#4]
        0x0001e08c:    f36f20df    o..     BFC      r0,#11,#21
        0x0001e090:    b001        ..      ADD      sp,sp,#4
        0x0001e092:    4770        pG      BX       lr
    tu_edpt_validate
        0x0001e094:    b580        ..      PUSH     {r7,lr}
        0x0001e096:    b08a        ..      SUB      sp,sp,#0x28
        0x0001e098:    9008        ..      STR      r0,[sp,#0x20]
        0x0001e09a:    f88d101f    ....    STRB     r1,[sp,#0x1f]
        0x0001e09e:    9808        ..      LDR      r0,[sp,#0x20]
        0x0001e0a0:    f7fffff0    ....    BL       tu_edpt_packet_size ; 0x1e084
        0x0001e0a4:    f8ad001c    ....    STRH     r0,[sp,#0x1c]
        0x0001e0a8:    9808        ..      LDR      r0,[sp,#0x20]
        0x0001e0aa:    7881        .x      LDRB     r1,[r0,#2]
        0x0001e0ac:    f8bd201c    ...     LDRH     r2,[sp,#0x1c]
        0x0001e0b0:    f64f3087    O..0    MOV      r0,#0xfb87
        0x0001e0b4:    f2c00001    ....    MOVT     r0,#1
        0x0001e0b8:    f7fdf850    ..P.    BL       am_util_stdio_printf ; 0x1b15c
        0x0001e0bc:    9808        ..      LDR      r0,[sp,#0x20]
        0x0001e0be:    78c0        .x      LDRB     r0,[r0,#3]
        0x0001e0c0:    f0000003    ....    AND      r0,r0,#3
        0x0001e0c4:    4601        .F      MOV      r1,r0
        0x0001e0c6:    9100        ..      STR      r1,[sp,#0]
        0x0001e0c8:    2801        .(      CMP      r0,#1
        0x0001e0ca:    d009        ..      BEQ      0x1e0e0 ; tu_edpt_validate + 76
        0x0001e0cc:    e7ff        ..      B        0x1e0ce ; tu_edpt_validate + 58
        0x0001e0ce:    9800        ..      LDR      r0,[sp,#0]
        0x0001e0d0:    2802        .(      CMP      r0,#2
        0x0001e0d2:    d036        6.      BEQ      0x1e142 ; tu_edpt_validate + 174
        0x0001e0d4:    e7ff        ..      B        0x1e0d6 ; tu_edpt_validate + 66
        0x0001e0d6:    9800        ..      LDR      r0,[sp,#0]
        0x0001e0d8:    2803        .(      CMP      r0,#3
        0x0001e0da:    f0008083    ....    BEQ.W    0x1e1e4 ; tu_edpt_validate + 336
        0x0001e0de:    e0b1        ..      B        0x1e244 ; tu_edpt_validate + 432
        0x0001e0e0:    f89d101f    ....    LDRB     r1,[sp,#0x1f]
        0x0001e0e4:    f24030ff    @..0    MOV      r0,#0x3ff
        0x0001e0e8:    2902        .)      CMP      r1,#2
        0x0001e0ea:    bf08        ..      IT       EQ
        0x0001e0ec:    f44f6080    O..`    MOVEQ    r0,#0x400
        0x0001e0f0:    f8ad001a    ....    STRH     r0,[sp,#0x1a]
        0x0001e0f4:    e7ff        ..      B        0x1e0f6 ; tu_edpt_validate + 98
        0x0001e0f6:    f8bd001c    ....    LDRH     r0,[sp,#0x1c]
        0x0001e0fa:    f8bd101a    ....    LDRH     r1,[sp,#0x1a]
        0x0001e0fe:    4288        .B      CMP      r0,r1
        0x0001e100:    dd1d        ..      BLE      0x1e13e ; tu_edpt_validate + 170
        0x0001e102:    e7ff        ..      B        0x1e104 ; tu_edpt_validate + 112
        0x0001e104:    f64f3070    O.p0    MOV      r0,#0xfb70
        0x0001e108:    f2c00001    ....    MOVT     r0,#1
        0x0001e10c:    f64f31c8    O..1    MOV      r1,#0xfbc8
        0x0001e110:    f2c00101    ....    MOVT     r1,#1
        0x0001e114:    2251        Q"      MOVS     r2,#0x51
        0x0001e116:    f7fdf821    ..!.    BL       am_util_stdio_printf ; 0x1b15c
        0x0001e11a:    e7ff        ..      B        0x1e11c ; tu_edpt_validate + 136
        0x0001e11c:    f64e50f0    N..P    MOV      r0,#0xedf0
        0x0001e120:    f2ce0000    ....    MOVT     r0,#0xe000
        0x0001e124:    9005        ..      STR      r0,[sp,#0x14]
        0x0001e126:    9805        ..      LDR      r0,[sp,#0x14]
        0x0001e128:    6800        .h      LDR      r0,[r0,#0]
        0x0001e12a:    07c0        ..      LSLS     r0,r0,#31
        0x0001e12c:    b110        ..      CBZ      r0,0x1e134 ; tu_edpt_validate + 160
        0x0001e12e:    e7ff        ..      B        0x1e130 ; tu_edpt_validate + 156
        0x0001e130:    be00        ..      BKPT     #0
        0x0001e132:    e7ff        ..      B        0x1e134 ; tu_edpt_validate + 160
        0x0001e134:    e7ff        ..      B        0x1e136 ; tu_edpt_validate + 162
        0x0001e136:    2000        .       MOVS     r0,#0
        0x0001e138:    f88d0027    ..'.    STRB     r0,[sp,#0x27]
        0x0001e13c:    e08a        ..      B        0x1e254 ; tu_edpt_validate + 448
        0x0001e13e:    e7ff        ..      B        0x1e140 ; tu_edpt_validate + 172
        0x0001e140:    e084        ..      B        0x1e24c ; tu_edpt_validate + 440
        0x0001e142:    f89d001f    ....    LDRB     r0,[sp,#0x1f]
        0x0001e146:    2802        .(      CMP      r0,#2
        0x0001e148:    d126        &.      BNE      0x1e198 ; tu_edpt_validate + 260
        0x0001e14a:    e7ff        ..      B        0x1e14c ; tu_edpt_validate + 184
        0x0001e14c:    e7ff        ..      B        0x1e14e ; tu_edpt_validate + 186
        0x0001e14e:    f8bd001c    ....    LDRH     r0,[sp,#0x1c]
        0x0001e152:    f5b07f00    ....    CMP      r0,#0x200
        0x0001e156:    d01d        ..      BEQ      0x1e194 ; tu_edpt_validate + 256
        0x0001e158:    e7ff        ..      B        0x1e15a ; tu_edpt_validate + 198
        0x0001e15a:    f64f3070    O.p0    MOV      r0,#0xfb70
        0x0001e15e:    f2c00001    ....    MOVT     r0,#1
        0x0001e162:    f64f31c8    O..1    MOV      r1,#0xfbc8
        0x0001e166:    f2c00101    ....    MOVT     r1,#1
        0x0001e16a:    2259        Y"      MOVS     r2,#0x59
        0x0001e16c:    f7fcfff6    ....    BL       am_util_stdio_printf ; 0x1b15c
        0x0001e170:    e7ff        ..      B        0x1e172 ; tu_edpt_validate + 222
        0x0001e172:    f64e50f0    N..P    MOV      r0,#0xedf0
        0x0001e176:    f2ce0000    ....    MOVT     r0,#0xe000
        0x0001e17a:    9004        ..      STR      r0,[sp,#0x10]
        0x0001e17c:    9804        ..      LDR      r0,[sp,#0x10]
        0x0001e17e:    6800        .h      LDR      r0,[r0,#0]
        0x0001e180:    07c0        ..      LSLS     r0,r0,#31
        0x0001e182:    b110        ..      CBZ      r0,0x1e18a ; tu_edpt_validate + 246
        0x0001e184:    e7ff        ..      B        0x1e186 ; tu_edpt_validate + 242
        0x0001e186:    be00        ..      BKPT     #0
        0x0001e188:    e7ff        ..      B        0x1e18a ; tu_edpt_validate + 246
        0x0001e18a:    e7ff        ..      B        0x1e18c ; tu_edpt_validate + 248
        0x0001e18c:    2000        .       MOVS     r0,#0
        0x0001e18e:    f88d0027    ..'.    STRB     r0,[sp,#0x27]
        0x0001e192:    e05f        _.      B        0x1e254 ; tu_edpt_validate + 448
        0x0001e194:    e7ff        ..      B        0x1e196 ; tu_edpt_validate + 258
        0x0001e196:    e024        $.      B        0x1e1e2 ; tu_edpt_validate + 334
        0x0001e198:    e7ff        ..      B        0x1e19a ; tu_edpt_validate + 262
        0x0001e19a:    f8bd001c    ....    LDRH     r0,[sp,#0x1c]
        0x0001e19e:    2841        A(      CMP      r0,#0x41
        0x0001e1a0:    db1d        ..      BLT      0x1e1de ; tu_edpt_validate + 330
        0x0001e1a2:    e7ff        ..      B        0x1e1a4 ; tu_edpt_validate + 272
        0x0001e1a4:    f64f3070    O.p0    MOV      r0,#0xfb70
        0x0001e1a8:    f2c00001    ....    MOVT     r0,#1
        0x0001e1ac:    f64f31c8    O..1    MOV      r1,#0xfbc8
        0x0001e1b0:    f2c00101    ....    MOVT     r1,#1
        0x0001e1b4:    225d        ]"      MOVS     r2,#0x5d
        0x0001e1b6:    f7fcffd1    ....    BL       am_util_stdio_printf ; 0x1b15c
        0x0001e1ba:    e7ff        ..      B        0x1e1bc ; tu_edpt_validate + 296
        0x0001e1bc:    f64e50f0    N..P    MOV      r0,#0xedf0
        0x0001e1c0:    f2ce0000    ....    MOVT     r0,#0xe000
        0x0001e1c4:    9003        ..      STR      r0,[sp,#0xc]
        0x0001e1c6:    9803        ..      LDR      r0,[sp,#0xc]
        0x0001e1c8:    6800        .h      LDR      r0,[r0,#0]
        0x0001e1ca:    07c0        ..      LSLS     r0,r0,#31
        0x0001e1cc:    b110        ..      CBZ      r0,0x1e1d4 ; tu_edpt_validate + 320
        0x0001e1ce:    e7ff        ..      B        0x1e1d0 ; tu_edpt_validate + 316
        0x0001e1d0:    be00        ..      BKPT     #0
        0x0001e1d2:    e7ff        ..      B        0x1e1d4 ; tu_edpt_validate + 320
        0x0001e1d4:    e7ff        ..      B        0x1e1d6 ; tu_edpt_validate + 322
        0x0001e1d6:    2000        .       MOVS     r0,#0
        0x0001e1d8:    f88d0027    ..'.    STRB     r0,[sp,#0x27]
        0x0001e1dc:    e03a        :.      B        0x1e254 ; tu_edpt_validate + 448
        0x0001e1de:    e7ff        ..      B        0x1e1e0 ; tu_edpt_validate + 332
        0x0001e1e0:    e7ff        ..      B        0x1e1e2 ; tu_edpt_validate + 334
        0x0001e1e2:    e033        3.      B        0x1e24c ; tu_edpt_validate + 440
        0x0001e1e4:    f89d101f    ....    LDRB     r1,[sp,#0x1f]
        0x0001e1e8:    2040        @       MOVS     r0,#0x40
        0x0001e1ea:    2902        .)      CMP      r1,#2
        0x0001e1ec:    bf08        ..      IT       EQ
        0x0001e1ee:    f44f6080    O..`    MOVEQ    r0,#0x400
        0x0001e1f2:    f8ad000a    ....    STRH     r0,[sp,#0xa]
        0x0001e1f6:    e7ff        ..      B        0x1e1f8 ; tu_edpt_validate + 356
        0x0001e1f8:    f8bd001c    ....    LDRH     r0,[sp,#0x1c]
        0x0001e1fc:    f8bd100a    ....    LDRH     r1,[sp,#0xa]
        0x0001e200:    4288        .B      CMP      r0,r1
        0x0001e202:    dd1d        ..      BLE      0x1e240 ; tu_edpt_validate + 428
        0x0001e204:    e7ff        ..      B        0x1e206 ; tu_edpt_validate + 370
        0x0001e206:    f64f3070    O.p0    MOV      r0,#0xfb70
        0x0001e20a:    f2c00001    ....    MOVT     r0,#1
        0x0001e20e:    f64f31c8    O..1    MOV      r1,#0xfbc8
        0x0001e212:    f2c00101    ....    MOVT     r1,#1
        0x0001e216:    2264        d"      MOVS     r2,#0x64
        0x0001e218:    f7fcffa0    ....    BL       am_util_stdio_printf ; 0x1b15c
        0x0001e21c:    e7ff        ..      B        0x1e21e ; tu_edpt_validate + 394
        0x0001e21e:    f64e50f0    N..P    MOV      r0,#0xedf0
        0x0001e222:    f2ce0000    ....    MOVT     r0,#0xe000
        0x0001e226:    9001        ..      STR      r0,[sp,#4]
        0x0001e228:    9801        ..      LDR      r0,[sp,#4]
        0x0001e22a:    6800        .h      LDR      r0,[r0,#0]
        0x0001e22c:    07c0        ..      LSLS     r0,r0,#31
        0x0001e22e:    b110        ..      CBZ      r0,0x1e236 ; tu_edpt_validate + 418
        0x0001e230:    e7ff        ..      B        0x1e232 ; tu_edpt_validate + 414
        0x0001e232:    be00        ..      BKPT     #0
        0x0001e234:    e7ff        ..      B        0x1e236 ; tu_edpt_validate + 418
        0x0001e236:    e7ff        ..      B        0x1e238 ; tu_edpt_validate + 420
        0x0001e238:    2000        .       MOVS     r0,#0
        0x0001e23a:    f88d0027    ..'.    STRB     r0,[sp,#0x27]
        0x0001e23e:    e009        ..      B        0x1e254 ; tu_edpt_validate + 448
        0x0001e240:    e7ff        ..      B        0x1e242 ; tu_edpt_validate + 430
        0x0001e242:    e003        ..      B        0x1e24c ; tu_edpt_validate + 440
        0x0001e244:    2000        .       MOVS     r0,#0
        0x0001e246:    f88d0027    ..'.    STRB     r0,[sp,#0x27]
        0x0001e24a:    e003        ..      B        0x1e254 ; tu_edpt_validate + 448
        0x0001e24c:    2001        .       MOVS     r0,#1
        0x0001e24e:    f88d0027    ..'.    STRB     r0,[sp,#0x27]
        0x0001e252:    e7ff        ..      B        0x1e254 ; tu_edpt_validate + 448
        0x0001e254:    f89d0027    ..'.    LDRB     r0,[sp,#0x27]
        0x0001e258:    b00a        ..      ADD      sp,sp,#0x28
        0x0001e25a:    bd80        ..      POP      {r7,pc}
    tu_fifo_clear
        0x0001e25c:    b081        ..      SUB      sp,sp,#4
        0x0001e25e:    9000        ..      STR      r0,[sp,#0]
        0x0001e260:    9900        ..      LDR      r1,[sp,#0]
        0x0001e262:    2000        .       MOVS     r0,#0
        0x0001e264:    81c8        ..      STRH     r0,[r1,#0xe]
        0x0001e266:    9900        ..      LDR      r1,[sp,#0]
        0x0001e268:    8208        ..      STRH     r0,[r1,#0x10]
        0x0001e26a:    9900        ..      LDR      r1,[sp,#0]
        0x0001e26c:    888a        ..      LDRH     r2,[r1,#4]
        0x0001e26e:    f04f30ff    O..0    MOV      r0,#0xffffffff
        0x0001e272:    eb000042    ..B.    ADD      r0,r0,r2,LSL #1
        0x0001e276:    8188        ..      STRH     r0,[r1,#0xc]
        0x0001e278:    9900        ..      LDR      r1,[sp,#0]
        0x0001e27a:    898a        ..      LDRH     r2,[r1,#0xc]
        0x0001e27c:    f64f70ff    O..p    MOV      r0,#0xffff
        0x0001e280:    1a80        ..      SUBS     r0,r0,r2
        0x0001e282:    8148        H.      STRH     r0,[r1,#0xa]
        0x0001e284:    2001        .       MOVS     r0,#1
        0x0001e286:    b001        ..      ADD      sp,sp,#4
        0x0001e288:    4770        pG      BX       lr
        0x0001e28a:    0000        ..      MOVS     r0,r0
    tu_fifo_read
        0x0001e28c:    b580        ..      PUSH     {r7,lr}
        0x0001e28e:    b084        ..      SUB      sp,sp,#0x10
        0x0001e290:    9003        ..      STR      r0,[sp,#0xc]
        0x0001e292:    9102        ..      STR      r1,[sp,#8]
        0x0001e294:    9803        ..      LDR      r0,[sp,#0xc]
        0x0001e296:    9902        ..      LDR      r1,[sp,#8]
        0x0001e298:    89c2        ..      LDRH     r2,[r0,#0xe]
        0x0001e29a:    9b03        ..      LDR      r3,[sp,#0xc]
        0x0001e29c:    8a1b        ..      LDRH     r3,[r3,#0x10]
        0x0001e29e:    f7fafb1d    ....    BL       _tu_fifo_peek ; 0x188dc
        0x0001e2a2:    f88d0007    ....    STRB     r0,[sp,#7]
        0x0001e2a6:    9803        ..      LDR      r0,[sp,#0xc]
        0x0001e2a8:    8a01        ..      LDRH     r1,[r0,#0x10]
        0x0001e2aa:    f89d2007    ...     LDRB     r2,[sp,#7]
        0x0001e2ae:    f0020201    ....    AND      r2,r2,#1
        0x0001e2b2:    f7fafb53    ..S.    BL       advance_pointer ; 0x1895c
        0x0001e2b6:    9903        ..      LDR      r1,[sp,#0xc]
        0x0001e2b8:    8208        ..      STRH     r0,[r1,#0x10]
        0x0001e2ba:    f89d0007    ....    LDRB     r0,[sp,#7]
        0x0001e2be:    f0000001    ....    AND      r0,r0,#1
        0x0001e2c2:    b004        ..      ADD      sp,sp,#0x10
        0x0001e2c4:    bd80        ..      POP      {r7,pc}
        0x0001e2c6:    0000        ..      MOVS     r0,r0
    tu_fifo_write
        0x0001e2c8:    b580        ..      PUSH     {r7,lr}
        0x0001e2ca:    b086        ..      SUB      sp,sp,#0x18
        0x0001e2cc:    9004        ..      STR      r0,[sp,#0x10]
        0x0001e2ce:    9103        ..      STR      r1,[sp,#0xc]
        0x0001e2d0:    9804        ..      LDR      r0,[sp,#0x10]
        0x0001e2d2:    89c0        ..      LDRH     r0,[r0,#0xe]
        0x0001e2d4:    f8ad000a    ....    STRH     r0,[sp,#0xa]
        0x0001e2d8:    9804        ..      LDR      r0,[sp,#0x10]
        0x0001e2da:    f8bd100a    ....    LDRH     r1,[sp,#0xa]
        0x0001e2de:    8a02        ..      LDRH     r2,[r0,#0x10]
        0x0001e2e0:    f7fafae6    ....    BL       _tu_fifo_full ; 0x188b0
        0x0001e2e4:    b148        H.      CBZ      r0,0x1e2fa ; tu_fifo_write + 50
        0x0001e2e6:    e7ff        ..      B        0x1e2e8 ; tu_fifo_write + 32
        0x0001e2e8:    9804        ..      LDR      r0,[sp,#0x10]
        0x0001e2ea:    7a00        .z      LDRB     r0,[r0,#8]
        0x0001e2ec:    07c0        ..      LSLS     r0,r0,#31
        0x0001e2ee:    b920         .      CBNZ     r0,0x1e2fa ; tu_fifo_write + 50
        0x0001e2f0:    e7ff        ..      B        0x1e2f2 ; tu_fifo_write + 42
        0x0001e2f2:    2000        .       MOVS     r0,#0
        0x0001e2f4:    f88d0017    ....    STRB     r0,[sp,#0x17]
        0x0001e2f8:    e01a        ..      B        0x1e330 ; tu_fifo_write + 104
        0x0001e2fa:    9804        ..      LDR      r0,[sp,#0x10]
        0x0001e2fc:    f8bd100a    ....    LDRH     r1,[sp,#0xa]
        0x0001e300:    f7fef8fa    ....    BL       get_relative_pointer ; 0x1c4f8
        0x0001e304:    f8ad0008    ....    STRH     r0,[sp,#8]
        0x0001e308:    9804        ..      LDR      r0,[sp,#0x10]
        0x0001e30a:    9903        ..      LDR      r1,[sp,#0xc]
        0x0001e30c:    f8bd2008    ...     LDRH     r2,[sp,#8]
        0x0001e310:    f7fafa50    ..P.    BL       _ff_push ; 0x187b4
        0x0001e314:    9804        ..      LDR      r0,[sp,#0x10]
        0x0001e316:    f8bd100a    ....    LDRH     r1,[sp,#0xa]
        0x0001e31a:    2201        ."      MOVS     r2,#1
        0x0001e31c:    9201        ..      STR      r2,[sp,#4]
        0x0001e31e:    f7fafb1d    ....    BL       advance_pointer ; 0x1895c
        0x0001e322:    4601        .F      MOV      r1,r0
        0x0001e324:    9801        ..      LDR      r0,[sp,#4]
        0x0001e326:    9a04        ..      LDR      r2,[sp,#0x10]
        0x0001e328:    81d1        ..      STRH     r1,[r2,#0xe]
        0x0001e32a:    f88d0017    ....    STRB     r0,[sp,#0x17]
        0x0001e32e:    e7ff        ..      B        0x1e330 ; tu_fifo_write + 104
        0x0001e330:    f89d0017    ....    LDRB     r0,[sp,#0x17]
        0x0001e334:    b006        ..      ADD      sp,sp,#0x18
        0x0001e336:    bd80        ..      POP      {r7,pc}
    tu_print_var
        0x0001e338:    b580        ..      PUSH     {r7,lr}
        0x0001e33a:    b084        ..      SUB      sp,sp,#0x10
        0x0001e33c:    9003        ..      STR      r0,[sp,#0xc]
        0x0001e33e:    9102        ..      STR      r1,[sp,#8]
        0x0001e340:    2000        .       MOVS     r0,#0
        0x0001e342:    9001        ..      STR      r0,[sp,#4]
        0x0001e344:    e7ff        ..      B        0x1e346 ; tu_print_var + 14
        0x0001e346:    9801        ..      LDR      r0,[sp,#4]
        0x0001e348:    9902        ..      LDR      r1,[sp,#8]
        0x0001e34a:    4288        .B      CMP      r0,r1
        0x0001e34c:    d20e        ..      BCS      0x1e36c ; tu_print_var + 52
        0x0001e34e:    e7ff        ..      B        0x1e350 ; tu_print_var + 24
        0x0001e350:    9803        ..      LDR      r0,[sp,#0xc]
        0x0001e352:    9901        ..      LDR      r1,[sp,#4]
        0x0001e354:    5c41        A\      LDRB     r1,[r0,r1]
        0x0001e356:    f64f601b    O..`    MOV      r0,#0xfe1b
        0x0001e35a:    f2c00001    ....    MOVT     r0,#1
        0x0001e35e:    f7fcfefd    ....    BL       am_util_stdio_printf ; 0x1b15c
        0x0001e362:    e7ff        ..      B        0x1e364 ; tu_print_var + 44
        0x0001e364:    9801        ..      LDR      r0,[sp,#4]
        0x0001e366:    3001        .0      ADDS     r0,#1
        0x0001e368:    9001        ..      STR      r0,[sp,#4]
        0x0001e36a:    e7ec        ..      B        0x1e346 ; tu_print_var + 14
        0x0001e36c:    b004        ..      ADD      sp,sp,#0x10
        0x0001e36e:    bd80        ..      POP      {r7,pc}
    tud_control_status
        0x0001e370:    b580        ..      PUSH     {r7,lr}
        0x0001e372:    b082        ..      SUB      sp,sp,#8
        0x0001e374:    f88d0007    ....    STRB     r0,[sp,#7]
        0x0001e378:    9100        ..      STR      r1,[sp,#0]
        0x0001e37a:    9900        ..      LDR      r1,[sp,#0]
        0x0001e37c:    6808        .h      LDR      r0,[r1,#0]
        0x0001e37e:    684a        Jh      LDR      r2,[r1,#4]
        0x0001e380:    f24001d0    @...    MOVW     r1,#0xd0
        0x0001e384:    f2c10100    ....    MOVT     r1,#0x1000
        0x0001e388:    604a        J`      STR      r2,[r1,#4]
        0x0001e38a:    6008        .`      STR      r0,[r1,#0]
        0x0001e38c:    2000        .       MOVS     r0,#0
        0x0001e38e:    6088        .`      STR      r0,[r1,#8]
        0x0001e390:    81c8        ..      STRH     r0,[r1,#0xe]
        0x0001e392:    8188        ..      STRH     r0,[r1,#0xc]
        0x0001e394:    f89d0007    ....    LDRB     r0,[sp,#7]
        0x0001e398:    9900        ..      LDR      r1,[sp,#0]
        0x0001e39a:    f7fafa39    ..9.    BL       _status_stage_xact ; 0x18810
        0x0001e39e:    b002        ..      ADD      sp,sp,#8
        0x0001e3a0:    bd80        ..      POP      {r7,pc}
        0x0001e3a2:    0000        ..      MOVS     r0,r0
    tud_control_xfer
        0x0001e3a4:    b580        ..      PUSH     {r7,lr}
        0x0001e3a6:    b08a        ..      SUB      sp,sp,#0x28
        0x0001e3a8:    f88d0022    ..".    STRB     r0,[sp,#0x22]
        0x0001e3ac:    9107        ..      STR      r1,[sp,#0x1c]
        0x0001e3ae:    9206        ..      STR      r2,[sp,#0x18]
        0x0001e3b0:    f8ad3016    ...0    STRH     r3,[sp,#0x16]
        0x0001e3b4:    9907        ..      LDR      r1,[sp,#0x1c]
        0x0001e3b6:    6808        .h      LDR      r0,[r1,#0]
        0x0001e3b8:    684a        Jh      LDR      r2,[r1,#4]
        0x0001e3ba:    f24001d0    @...    MOVW     r1,#0xd0
        0x0001e3be:    f2c10100    ....    MOVT     r1,#0x1000
        0x0001e3c2:    604a        J`      STR      r2,[r1,#4]
        0x0001e3c4:    6008        .`      STR      r0,[r1,#0]
        0x0001e3c6:    9806        ..      LDR      r0,[sp,#0x18]
        0x0001e3c8:    6088        .`      STR      r0,[r1,#8]
        0x0001e3ca:    2000        .       MOVS     r0,#0
        0x0001e3cc:    81c8        ..      STRH     r0,[r1,#0xe]
        0x0001e3ce:    f8bd1016    ....    LDRH     r1,[sp,#0x16]
        0x0001e3d2:    9807        ..      LDR      r0,[sp,#0x1c]
        0x0001e3d4:    88c0        ..      LDRH     r0,[r0,#6]
        0x0001e3d6:    f8ad1026    ..&.    STRH     r1,[sp,#0x26]
        0x0001e3da:    f8ad0024    ..$.    STRH     r0,[sp,#0x24]
        0x0001e3de:    f8bd0026    ..&.    LDRH     r0,[sp,#0x26]
        0x0001e3e2:    f8bd1024    ..$.    LDRH     r1,[sp,#0x24]
        0x0001e3e6:    4288        .B      CMP      r0,r1
        0x0001e3e8:    da04        ..      BGE      0x1e3f4 ; tud_control_xfer + 80
        0x0001e3ea:    e7ff        ..      B        0x1e3ec ; tud_control_xfer + 72
        0x0001e3ec:    f8bd0026    ..&.    LDRH     r0,[sp,#0x26]
        0x0001e3f0:    9001        ..      STR      r0,[sp,#4]
        0x0001e3f2:    e003        ..      B        0x1e3fc ; tud_control_xfer + 88
        0x0001e3f4:    f8bd0024    ..$.    LDRH     r0,[sp,#0x24]
        0x0001e3f8:    9001        ..      STR      r0,[sp,#4]
        0x0001e3fa:    e7ff        ..      B        0x1e3fc ; tud_control_xfer + 88
        0x0001e3fc:    9801        ..      LDR      r0,[sp,#4]
        0x0001e3fe:    f24001d0    @...    MOVW     r1,#0xd0
        0x0001e402:    f2c10100    ....    MOVT     r1,#0x1000
        0x0001e406:    8188        ..      STRH     r0,[r1,#0xc]
        0x0001e408:    8988        ..      LDRH     r0,[r1,#0xc]
        0x0001e40a:    80c8        ..      STRH     r0,[r1,#6]
        0x0001e40c:    9807        ..      LDR      r0,[sp,#0x1c]
        0x0001e40e:    88c0        ..      LDRH     r0,[r0,#6]
        0x0001e410:    2800        .(      CMP      r0,#0
        0x0001e412:    d05b        [.      BEQ      0x1e4cc ; tud_control_xfer + 296
        0x0001e414:    e7ff        ..      B        0x1e416 ; tud_control_xfer + 114
        0x0001e416:    f24000d0    @...    MOVW     r0,#0xd0
        0x0001e41a:    f2c10000    ....    MOVT     r0,#0x1000
        0x0001e41e:    8980        ..      LDRH     r0,[r0,#0xc]
        0x0001e420:    b318        ..      CBZ      r0,0x1e46a ; tud_control_xfer + 198
        0x0001e422:    e7ff        ..      B        0x1e424 ; tud_control_xfer + 128
        0x0001e424:    e7ff        ..      B        0x1e426 ; tud_control_xfer + 130
        0x0001e426:    9806        ..      LDR      r0,[sp,#0x18]
        0x0001e428:    b9e8        ..      CBNZ     r0,0x1e466 ; tud_control_xfer + 194
        0x0001e42a:    e7ff        ..      B        0x1e42c ; tud_control_xfer + 136
        0x0001e42c:    f64f3070    O.p0    MOV      r0,#0xfb70
        0x0001e430:    f2c00001    ....    MOVT     r0,#1
        0x0001e434:    f240015c    @.\.    MOVW     r1,#0x5c
        0x0001e438:    f2c00102    ....    MOVT     r1,#2
        0x0001e43c:    2276        v"      MOVS     r2,#0x76
        0x0001e43e:    f7fcfe8d    ....    BL       am_util_stdio_printf ; 0x1b15c
        0x0001e442:    e7ff        ..      B        0x1e444 ; tud_control_xfer + 160
        0x0001e444:    f64e50f0    N..P    MOV      r0,#0xedf0
        0x0001e448:    f2ce0000    ....    MOVT     r0,#0xe000
        0x0001e44c:    9004        ..      STR      r0,[sp,#0x10]
        0x0001e44e:    9804        ..      LDR      r0,[sp,#0x10]
        0x0001e450:    6800        .h      LDR      r0,[r0,#0]
        0x0001e452:    07c0        ..      LSLS     r0,r0,#31
        0x0001e454:    b110        ..      CBZ      r0,0x1e45c ; tud_control_xfer + 184
        0x0001e456:    e7ff        ..      B        0x1e458 ; tud_control_xfer + 180
        0x0001e458:    be00        ..      BKPT     #0
        0x0001e45a:    e7ff        ..      B        0x1e45c ; tud_control_xfer + 184
        0x0001e45c:    e7ff        ..      B        0x1e45e ; tud_control_xfer + 186
        0x0001e45e:    2000        .       MOVS     r0,#0
        0x0001e460:    f88d0023    ..#.    STRB     r0,[sp,#0x23]
        0x0001e464:    e05d        ].      B        0x1e522 ; tud_control_xfer + 382
        0x0001e466:    e7ff        ..      B        0x1e468 ; tud_control_xfer + 196
        0x0001e468:    e7ff        ..      B        0x1e46a ; tud_control_xfer + 198
        0x0001e46a:    f24000d0    @...    MOVW     r0,#0xd0
        0x0001e46e:    f2c10000    ....    MOVT     r0,#0x1000
        0x0001e472:    8981        ..      LDRH     r1,[r0,#0xc]
        0x0001e474:    f64f70fb    O..p    MOV      r0,#0xfffb
        0x0001e478:    f2c00001    ....    MOVT     r0,#1
        0x0001e47c:    f7fcfe6e    ..n.    BL       am_util_stdio_printf ; 0x1b15c
        0x0001e480:    e7ff        ..      B        0x1e482 ; tud_control_xfer + 222
        0x0001e482:    f89d0022    ..".    LDRB     r0,[sp,#0x22]
        0x0001e486:    f7faf923    ..#.    BL       _data_stage_xact ; 0x186d0
        0x0001e48a:    b9e8        ..      CBNZ     r0,0x1e4c8 ; tud_control_xfer + 292
        0x0001e48c:    e7ff        ..      B        0x1e48e ; tud_control_xfer + 234
        0x0001e48e:    f64f3070    O.p0    MOV      r0,#0xfb70
        0x0001e492:    f2c00001    ....    MOVT     r0,#1
        0x0001e496:    f240015c    @.\.    MOVW     r1,#0x5c
        0x0001e49a:    f2c00102    ....    MOVT     r1,#2
        0x0001e49e:    227c        |"      MOVS     r2,#0x7c
        0x0001e4a0:    f7fcfe5c    ..\.    BL       am_util_stdio_printf ; 0x1b15c
        0x0001e4a4:    e7ff        ..      B        0x1e4a6 ; tud_control_xfer + 258
        0x0001e4a6:    f64e50f0    N..P    MOV      r0,#0xedf0
        0x0001e4aa:    f2ce0000    ....    MOVT     r0,#0xe000
        0x0001e4ae:    9003        ..      STR      r0,[sp,#0xc]
        0x0001e4b0:    9803        ..      LDR      r0,[sp,#0xc]
        0x0001e4b2:    6800        .h      LDR      r0,[r0,#0]
        0x0001e4b4:    07c0        ..      LSLS     r0,r0,#31
        0x0001e4b6:    b110        ..      CBZ      r0,0x1e4be ; tud_control_xfer + 282
        0x0001e4b8:    e7ff        ..      B        0x1e4ba ; tud_control_xfer + 278
        0x0001e4ba:    be00        ..      BKPT     #0
        0x0001e4bc:    e7ff        ..      B        0x1e4be ; tud_control_xfer + 282
        0x0001e4be:    e7ff        ..      B        0x1e4c0 ; tud_control_xfer + 284
        0x0001e4c0:    2000        .       MOVS     r0,#0
        0x0001e4c2:    f88d0023    ..#.    STRB     r0,[sp,#0x23]
        0x0001e4c6:    e02c        ,.      B        0x1e522 ; tud_control_xfer + 382
        0x0001e4c8:    e7ff        ..      B        0x1e4ca ; tud_control_xfer + 294
        0x0001e4ca:    e026        &.      B        0x1e51a ; tud_control_xfer + 374
        0x0001e4cc:    e7ff        ..      B        0x1e4ce ; tud_control_xfer + 298
        0x0001e4ce:    f89d0022    ..".    LDRB     r0,[sp,#0x22]
        0x0001e4d2:    9907        ..      LDR      r1,[sp,#0x1c]
        0x0001e4d4:    f7faf99c    ....    BL       _status_stage_xact ; 0x18810
        0x0001e4d8:    b9e8        ..      CBNZ     r0,0x1e516 ; tud_control_xfer + 370
        0x0001e4da:    e7ff        ..      B        0x1e4dc ; tud_control_xfer + 312
        0x0001e4dc:    f64f3070    O.p0    MOV      r0,#0xfb70
        0x0001e4e0:    f2c00001    ....    MOVT     r0,#1
        0x0001e4e4:    f240015c    @.\.    MOVW     r1,#0x5c
        0x0001e4e8:    f2c00102    ....    MOVT     r1,#2
        0x0001e4ec:    2281        ."      MOVS     r2,#0x81
        0x0001e4ee:    f7fcfe35    ..5.    BL       am_util_stdio_printf ; 0x1b15c
        0x0001e4f2:    e7ff        ..      B        0x1e4f4 ; tud_control_xfer + 336
        0x0001e4f4:    f64e50f0    N..P    MOV      r0,#0xedf0
        0x0001e4f8:    f2ce0000    ....    MOVT     r0,#0xe000
        0x0001e4fc:    9002        ..      STR      r0,[sp,#8]
        0x0001e4fe:    9802        ..      LDR      r0,[sp,#8]
        0x0001e500:    6800        .h      LDR      r0,[r0,#0]
        0x0001e502:    07c0        ..      LSLS     r0,r0,#31
        0x0001e504:    b110        ..      CBZ      r0,0x1e50c ; tud_control_xfer + 360
        0x0001e506:    e7ff        ..      B        0x1e508 ; tud_control_xfer + 356
        0x0001e508:    be00        ..      BKPT     #0
        0x0001e50a:    e7ff        ..      B        0x1e50c ; tud_control_xfer + 360
        0x0001e50c:    e7ff        ..      B        0x1e50e ; tud_control_xfer + 362
        0x0001e50e:    2000        .       MOVS     r0,#0
        0x0001e510:    f88d0023    ..#.    STRB     r0,[sp,#0x23]
        0x0001e514:    e005        ..      B        0x1e522 ; tud_control_xfer + 382
        0x0001e516:    e7ff        ..      B        0x1e518 ; tud_control_xfer + 372
        0x0001e518:    e7ff        ..      B        0x1e51a ; tud_control_xfer + 374
        0x0001e51a:    2001        .       MOVS     r0,#1
        0x0001e51c:    f88d0023    ..#.    STRB     r0,[sp,#0x23]
        0x0001e520:    e7ff        ..      B        0x1e522 ; tud_control_xfer + 382
        0x0001e522:    f89d0023    ..#.    LDRB     r0,[sp,#0x23]
        0x0001e526:    b00a        ..      ADD      sp,sp,#0x28
        0x0001e528:    bd80        ..      POP      {r7,pc}
        0x0001e52a:    0000        ..      MOVS     r0,r0
    tud_descriptor_configuration_cb
        0x0001e52c:    b081        ..      SUB      sp,sp,#4
        0x0001e52e:    f88d0003    ....    STRB     r0,[sp,#3]
        0x0001e532:    f64f2040    O.@     MOV      r0,#0xfa40
        0x0001e536:    f2c00001    ....    MOVT     r0,#1
        0x0001e53a:    b001        ..      ADD      sp,sp,#4
        0x0001e53c:    4770        pG      BX       lr
        0x0001e53e:    0000        ..      MOVS     r0,r0
    tud_descriptor_device_cb
        0x0001e540:    f64f206a    O.j     MOV      r0,#0xfa6a
        0x0001e544:    f2c00001    ....    MOVT     r0,#1
        0x0001e548:    4770        pG      BX       lr
        0x0001e54a:    0000        ..      MOVS     r0,r0
    tud_descriptor_string_cb
        0x0001e54c:    b580        ..      PUSH     {r7,lr}
        0x0001e54e:    b086        ..      SUB      sp,sp,#0x18
        0x0001e550:    f88d0013    ....    STRB     r0,[sp,#0x13]
        0x0001e554:    f8ad1010    ....    STRH     r1,[sp,#0x10]
        0x0001e558:    f89d0013    ....    LDRB     r0,[sp,#0x13]
        0x0001e55c:    b978        x.      CBNZ     r0,0x1e57e ; tud_descriptor_string_cb + 50
        0x0001e55e:    e7ff        ..      B        0x1e560 ; tud_descriptor_string_cb + 20
        0x0001e560:    f2400058    @.X.    MOVW     r0,#0x58
        0x0001e564:    f2c10000    ....    MOVT     r0,#0x1000
        0x0001e568:    6800        .h      LDR      r0,[r0,#0]
        0x0001e56a:    8800        ..      LDRH     r0,[r0,#0]
        0x0001e56c:    f24001e4    @...    MOVW     r1,#0xe4
        0x0001e570:    f2c10100    ....    MOVT     r1,#0x1000
        0x0001e574:    8048        H.      STRH     r0,[r1,#2]
        0x0001e576:    2001        .       MOVS     r0,#1
        0x0001e578:    f88d000f    ....    STRB     r0,[sp,#0xf]
        0x0001e57c:    e03c        <.      B        0x1e5f8 ; tud_descriptor_string_cb + 172
        0x0001e57e:    f89d0013    ....    LDRB     r0,[sp,#0x13]
        0x0001e582:    2804        .(      CMP      r0,#4
        0x0001e584:    d303        ..      BCC      0x1e58e ; tud_descriptor_string_cb + 66
        0x0001e586:    e7ff        ..      B        0x1e588 ; tud_descriptor_string_cb + 60
        0x0001e588:    2000        .       MOVS     r0,#0
        0x0001e58a:    9005        ..      STR      r0,[sp,#0x14]
        0x0001e58c:    e042        B.      B        0x1e614 ; tud_descriptor_string_cb + 200
        0x0001e58e:    f89d1013    ....    LDRB     r1,[sp,#0x13]
        0x0001e592:    f2400058    @.X.    MOVW     r0,#0x58
        0x0001e596:    f2c10000    ....    MOVT     r0,#0x1000
        0x0001e59a:    f8500021    P.!.    LDR      r0,[r0,r1,LSL #2]
        0x0001e59e:    9002        ..      STR      r0,[sp,#8]
        0x0001e5a0:    9802        ..      LDR      r0,[sp,#8]
        0x0001e5a2:    f7f9ff1b    ....    BL       strlen ; 0x183dc
        0x0001e5a6:    f88d000f    ....    STRB     r0,[sp,#0xf]
        0x0001e5aa:    f89d000f    ....    LDRB     r0,[sp,#0xf]
        0x0001e5ae:    2820         (      CMP      r0,#0x20
        0x0001e5b0:    db04        ..      BLT      0x1e5bc ; tud_descriptor_string_cb + 112
        0x0001e5b2:    e7ff        ..      B        0x1e5b4 ; tud_descriptor_string_cb + 104
        0x0001e5b4:    201f        .       MOVS     r0,#0x1f
        0x0001e5b6:    f88d000f    ....    STRB     r0,[sp,#0xf]
        0x0001e5ba:    e7ff        ..      B        0x1e5bc ; tud_descriptor_string_cb + 112
        0x0001e5bc:    2000        .       MOVS     r0,#0
        0x0001e5be:    f88d0007    ....    STRB     r0,[sp,#7]
        0x0001e5c2:    e7ff        ..      B        0x1e5c4 ; tud_descriptor_string_cb + 120
        0x0001e5c4:    f89d0007    ....    LDRB     r0,[sp,#7]
        0x0001e5c8:    f89d100f    ....    LDRB     r1,[sp,#0xf]
        0x0001e5cc:    4288        .B      CMP      r0,r1
        0x0001e5ce:    da12        ..      BGE      0x1e5f6 ; tud_descriptor_string_cb + 170
        0x0001e5d0:    e7ff        ..      B        0x1e5d2 ; tud_descriptor_string_cb + 134
        0x0001e5d2:    9802        ..      LDR      r0,[sp,#8]
        0x0001e5d4:    f89d2007    ...     LDRB     r2,[sp,#7]
        0x0001e5d8:    5c80        .\      LDRB     r0,[r0,r2]
        0x0001e5da:    f24001e4    @...    MOVW     r1,#0xe4
        0x0001e5de:    f2c10100    ....    MOVT     r1,#0x1000
        0x0001e5e2:    eb010142    ..B.    ADD      r1,r1,r2,LSL #1
        0x0001e5e6:    8048        H.      STRH     r0,[r1,#2]
        0x0001e5e8:    e7ff        ..      B        0x1e5ea ; tud_descriptor_string_cb + 158
        0x0001e5ea:    f89d0007    ....    LDRB     r0,[sp,#7]
        0x0001e5ee:    3001        .0      ADDS     r0,#1
        0x0001e5f0:    f88d0007    ....    STRB     r0,[sp,#7]
        0x0001e5f4:    e7e6        ..      B        0x1e5c4 ; tud_descriptor_string_cb + 120
        0x0001e5f6:    e7ff        ..      B        0x1e5f8 ; tud_descriptor_string_cb + 172
        0x0001e5f8:    f89d100f    ....    LDRB     r1,[sp,#0xf]
        0x0001e5fc:    2002        .       MOVS     r0,#2
        0x0001e5fe:    eb000041    ..A.    ADD      r0,r0,r1,LSL #1
        0x0001e602:    f4407140    @.@q    ORR      r1,r0,#0x300
        0x0001e606:    f24000e4    @...    MOVW     r0,#0xe4
        0x0001e60a:    f2c10000    ....    MOVT     r0,#0x1000
        0x0001e60e:    8001        ..      STRH     r1,[r0,#0]
        0x0001e610:    9005        ..      STR      r0,[sp,#0x14]
        0x0001e612:    e7ff        ..      B        0x1e614 ; tud_descriptor_string_cb + 200
        0x0001e614:    9805        ..      LDR      r0,[sp,#0x14]
        0x0001e616:    b006        ..      ADD      sp,sp,#0x18
        0x0001e618:    bd80        ..      POP      {r7,pc}
        0x0001e61a:    0000        ..      MOVS     r0,r0
    tud_hid_descriptor_report_cb
        0x0001e61c:    b081        ..      SUB      sp,sp,#4
        0x0001e61e:    f88d0003    ....    STRB     r0,[sp,#3]
        0x0001e622:    f64f207c    O.|     MOV      r0,#0xfa7c
        0x0001e626:    f2c00001    ....    MOVT     r0,#1
        0x0001e62a:    b001        ..      ADD      sp,sp,#4
        0x0001e62c:    4770        pG      BX       lr
        0x0001e62e:    0000        ..      MOVS     r0,r0
    tud_hid_get_report_cb
        0x0001e630:    b580        ..      PUSH     {r7,lr}
        0x0001e632:    b083        ..      SUB      sp,sp,#0xc
        0x0001e634:    4684        .F      MOV      r12,r0
        0x0001e636:    9805        ..      LDR      r0,[sp,#0x14]
        0x0001e638:    f88dc00b    ....    STRB     r12,[sp,#0xb]
        0x0001e63c:    f88d100a    ....    STRB     r1,[sp,#0xa]
        0x0001e640:    f88d2009    ...     STRB     r2,[sp,#9]
        0x0001e644:    9301        ..      STR      r3,[sp,#4]
        0x0001e646:    f8ad0002    ....    STRH     r0,[sp,#2]
        0x0001e64a:    2000        .       MOVS     r0,#0
        0x0001e64c:    b003        ..      ADD      sp,sp,#0xc
        0x0001e64e:    bd80        ..      POP      {r7,pc}
    tud_hid_n_report
        0x0001e650:    b580        ..      PUSH     {r7,lr}
        0x0001e652:    b088        ..      SUB      sp,sp,#0x20
        0x0001e654:    f88d001a    ....    STRB     r0,[sp,#0x1a]
        0x0001e658:    f88d1019    ....    STRB     r1,[sp,#0x19]
        0x0001e65c:    9205        ..      STR      r2,[sp,#0x14]
        0x0001e65e:    f88d3013    ...0    STRB     r3,[sp,#0x13]
        0x0001e662:    2000        .       MOVS     r0,#0
        0x0001e664:    f88d0012    ....    STRB     r0,[sp,#0x12]
        0x0001e668:    f89d001a    ....    LDRB     r0,[sp,#0x1a]
        0x0001e66c:    f2401224    @.$.    MOVW     r2,#0x124
        0x0001e670:    f2c10200    ....    MOVT     r2,#0x1000
        0x0001e674:    218c        .!      MOVS     r1,#0x8c
        0x0001e676:    fb102001    ...     SMLABB   r0,r0,r1,r2
        0x0001e67a:    9003        ..      STR      r0,[sp,#0xc]
        0x0001e67c:    e7ff        ..      B        0x1e67e ; tud_hid_n_report + 46
        0x0001e67e:    9803        ..      LDR      r0,[sp,#0xc]
        0x0001e680:    7841        Ax      LDRB     r1,[r0,#1]
        0x0001e682:    2000        .       MOVS     r0,#0
        0x0001e684:    f000fd0a    ....    BL       usbd_edpt_claim ; 0x1f09c
        0x0001e688:    b920         .      CBNZ     r0,0x1e694 ; tud_hid_n_report + 68
        0x0001e68a:    e7ff        ..      B        0x1e68c ; tud_hid_n_report + 60
        0x0001e68c:    2000        .       MOVS     r0,#0
        0x0001e68e:    f88d001b    ....    STRB     r0,[sp,#0x1b]
        0x0001e692:    e05b        [.      B        0x1e74c ; tud_hid_n_report + 252
        0x0001e694:    e7ff        ..      B        0x1e696 ; tud_hid_n_report + 70
        0x0001e696:    f89d0019    ....    LDRB     r0,[sp,#0x19]
        0x0001e69a:    b350        P.      CBZ      r0,0x1e6f2 ; tud_hid_n_report + 162
        0x0001e69c:    e7ff        ..      B        0x1e69e ; tud_hid_n_report + 78
        0x0001e69e:    f89d0013    ....    LDRB     r0,[sp,#0x13]
        0x0001e6a2:    f88d001d    ....    STRB     r0,[sp,#0x1d]
        0x0001e6a6:    203f        ?       MOVS     r0,#0x3f
        0x0001e6a8:    f88d001c    ....    STRB     r0,[sp,#0x1c]
        0x0001e6ac:    f89d001d    ....    LDRB     r0,[sp,#0x1d]
        0x0001e6b0:    f89d101c    ....    LDRB     r1,[sp,#0x1c]
        0x0001e6b4:    4288        .B      CMP      r0,r1
        0x0001e6b6:    da04        ..      BGE      0x1e6c2 ; tud_hid_n_report + 114
        0x0001e6b8:    e7ff        ..      B        0x1e6ba ; tud_hid_n_report + 106
        0x0001e6ba:    f89d001d    ....    LDRB     r0,[sp,#0x1d]
        0x0001e6be:    9002        ..      STR      r0,[sp,#8]
        0x0001e6c0:    e003        ..      B        0x1e6ca ; tud_hid_n_report + 122
        0x0001e6c2:    f89d001c    ....    LDRB     r0,[sp,#0x1c]
        0x0001e6c6:    9002        ..      STR      r0,[sp,#8]
        0x0001e6c8:    e7ff        ..      B        0x1e6ca ; tud_hid_n_report + 122
        0x0001e6ca:    9802        ..      LDR      r0,[sp,#8]
        0x0001e6cc:    f88d0013    ....    STRB     r0,[sp,#0x13]
        0x0001e6d0:    f89d0019    ....    LDRB     r0,[sp,#0x19]
        0x0001e6d4:    9903        ..      LDR      r1,[sp,#0xc]
        0x0001e6d6:    7208        .r      STRB     r0,[r1,#8]
        0x0001e6d8:    9803        ..      LDR      r0,[sp,#0xc]
        0x0001e6da:    3009        .0      ADDS     r0,r0,#9
        0x0001e6dc:    9905        ..      LDR      r1,[sp,#0x14]
        0x0001e6de:    f89d2013    ...     LDRB     r2,[sp,#0x13]
        0x0001e6e2:    f7f9fe9a    ....    BL       __aeabi_memcpy ; 0x1841a
        0x0001e6e6:    f89d0013    ....    LDRB     r0,[sp,#0x13]
        0x0001e6ea:    3001        .0      ADDS     r0,#1
        0x0001e6ec:    f88d0013    ....    STRB     r0,[sp,#0x13]
        0x0001e6f0:    e020         .      B        0x1e734 ; tud_hid_n_report + 228
        0x0001e6f2:    f89d0013    ....    LDRB     r0,[sp,#0x13]
        0x0001e6f6:    f88d001f    ....    STRB     r0,[sp,#0x1f]
        0x0001e6fa:    2040        @       MOVS     r0,#0x40
        0x0001e6fc:    f88d001e    ....    STRB     r0,[sp,#0x1e]
        0x0001e700:    f89d001f    ....    LDRB     r0,[sp,#0x1f]
        0x0001e704:    f89d101e    ....    LDRB     r1,[sp,#0x1e]
        0x0001e708:    4288        .B      CMP      r0,r1
        0x0001e70a:    da04        ..      BGE      0x1e716 ; tud_hid_n_report + 198
        0x0001e70c:    e7ff        ..      B        0x1e70e ; tud_hid_n_report + 190
        0x0001e70e:    f89d001f    ....    LDRB     r0,[sp,#0x1f]
        0x0001e712:    9001        ..      STR      r0,[sp,#4]
        0x0001e714:    e003        ..      B        0x1e71e ; tud_hid_n_report + 206
        0x0001e716:    f89d001e    ....    LDRB     r0,[sp,#0x1e]
        0x0001e71a:    9001        ..      STR      r0,[sp,#4]
        0x0001e71c:    e7ff        ..      B        0x1e71e ; tud_hid_n_report + 206
        0x0001e71e:    9801        ..      LDR      r0,[sp,#4]
        0x0001e720:    f88d0013    ....    STRB     r0,[sp,#0x13]
        0x0001e724:    9803        ..      LDR      r0,[sp,#0xc]
        0x0001e726:    3008        .0      ADDS     r0,r0,#8
        0x0001e728:    9905        ..      LDR      r1,[sp,#0x14]
        0x0001e72a:    f89d2013    ...     LDRB     r2,[sp,#0x13]
        0x0001e72e:    f7f9fe74    ..t.    BL       __aeabi_memcpy ; 0x1841a
        0x0001e732:    e7ff        ..      B        0x1e734 ; tud_hid_n_report + 228
        0x0001e734:    9803        ..      LDR      r0,[sp,#0xc]
        0x0001e736:    7841        Ax      LDRB     r1,[r0,#1]
        0x0001e738:    f1000208    ....    ADD      r2,r0,#8
        0x0001e73c:    f89d3013    ...0    LDRB     r3,[sp,#0x13]
        0x0001e740:    2000        .       MOVS     r0,#0
        0x0001e742:    f000fe25    ..%.    BL       usbd_edpt_xfer ; 0x1f390
        0x0001e746:    f88d001b    ....    STRB     r0,[sp,#0x1b]
        0x0001e74a:    e7ff        ..      B        0x1e74c ; tud_hid_n_report + 252
        0x0001e74c:    f89d001b    ....    LDRB     r0,[sp,#0x1b]
        0x0001e750:    b008        ..      ADD      sp,sp,#0x20
        0x0001e752:    bd80        ..      POP      {r7,pc}
    tud_hid_report
        0x0001e754:    b580        ..      PUSH     {r7,lr}
        0x0001e756:    b084        ..      SUB      sp,sp,#0x10
        0x0001e758:    f88d000f    ....    STRB     r0,[sp,#0xf]
        0x0001e75c:    9102        ..      STR      r1,[sp,#8]
        0x0001e75e:    f88d2007    ...     STRB     r2,[sp,#7]
        0x0001e762:    f89d100f    ....    LDRB     r1,[sp,#0xf]
        0x0001e766:    9a02        ..      LDR      r2,[sp,#8]
        0x0001e768:    f89d3007    ...0    LDRB     r3,[sp,#7]
        0x0001e76c:    2000        .       MOVS     r0,#0
        0x0001e76e:    f7ffff6f    ..o.    BL       tud_hid_n_report ; 0x1e650
        0x0001e772:    b004        ..      ADD      sp,sp,#0x10
        0x0001e774:    bd80        ..      POP      {r7,pc}
        0x0001e776:    0000        ..      MOVS     r0,r0
    tud_hid_set_report_cb
        0x0001e778:    b580        ..      PUSH     {r7,lr}
        0x0001e77a:    b084        ..      SUB      sp,sp,#0x10
        0x0001e77c:    4684        .F      MOV      r12,r0
        0x0001e77e:    9806        ..      LDR      r0,[sp,#0x18]
        0x0001e780:    f88dc00f    ....    STRB     r12,[sp,#0xf]
        0x0001e784:    f88d100e    ....    STRB     r1,[sp,#0xe]
        0x0001e788:    f88d200d    ...     STRB     r2,[sp,#0xd]
        0x0001e78c:    9302        ..      STR      r3,[sp,#8]
        0x0001e78e:    f8ad0006    ....    STRH     r0,[sp,#6]
        0x0001e792:    9902        ..      LDR      r1,[sp,#8]
        0x0001e794:    f89d2006    ...     LDRB     r2,[sp,#6]
        0x0001e798:    2000        .       MOVS     r0,#0
        0x0001e79a:    f7ffffdb    ....    BL       tud_hid_report ; 0x1e754
        0x0001e79e:    b004        ..      ADD      sp,sp,#0x10
        0x0001e7a0:    bd80        ..      POP      {r7,pc}
        0x0001e7a2:    0000        ..      MOVS     r0,r0
    tud_init
        0x0001e7a4:    b580        ..      PUSH     {r7,lr}
        0x0001e7a6:    b084        ..      SUB      sp,sp,#0x10
        0x0001e7a8:    f88d000e    ....    STRB     r0,[sp,#0xe]
        0x0001e7ac:    f24010e3    @...    MOV      r0,#0x1e3
        0x0001e7b0:    f2c10000    ....    MOVT     r0,#0x1000
        0x0001e7b4:    7800        .x      LDRB     r0,[r0,#0]
        0x0001e7b6:    07c0        ..      LSLS     r0,r0,#31
        0x0001e7b8:    b150        P.      CBZ      r0,0x1e7d0 ; tud_init + 44
        0x0001e7ba:    e7ff        ..      B        0x1e7bc ; tud_init + 24
        0x0001e7bc:    f24010e3    @...    MOV      r0,#0x1e3
        0x0001e7c0:    f2c10000    ....    MOVT     r0,#0x1000
        0x0001e7c4:    7800        .x      LDRB     r0,[r0,#0]
        0x0001e7c6:    f0000001    ....    AND      r0,r0,#1
        0x0001e7ca:    f88d000f    ....    STRB     r0,[sp,#0xf]
        0x0001e7ce:    e087        ..      B        0x1e8e0 ; tud_init + 316
        0x0001e7d0:    f64f50d7    O..P    MOV      r0,#0xfdd7
        0x0001e7d4:    f2c00001    ....    MOVT     r0,#1
        0x0001e7d8:    f7fcfcc0    ....    BL       am_util_stdio_printf ; 0x1b15c
        0x0001e7dc:    f24010b0    @...    MOVW     r0,#0x1b0
        0x0001e7e0:    f2c10000    ....    MOVT     r0,#0x1000
        0x0001e7e4:    2133        3!      MOVS     r1,#0x33
        0x0001e7e6:    f7f9fe65    ..e.    BL       __aeabi_memclr ; 0x184b4
        0x0001e7ea:    f2400000    @...    MOVW     r0,#0
        0x0001e7ee:    f2c10000    ....    MOVT     r0,#0x1000
        0x0001e7f2:    f7fefcab    ....    BL       osal_queue_create ; 0x1d14c
        0x0001e7f6:    f24011e4    @...    MOVW     r1,#0x1e4
        0x0001e7fa:    f2c10100    ....    MOVT     r1,#0x1000
        0x0001e7fe:    6008        .`      STR      r0,[r1,#0]
        0x0001e800:    e7ff        ..      B        0x1e802 ; tud_init + 94
        0x0001e802:    f24010e4    @...    MOVW     r0,#0x1e4
        0x0001e806:    f2c10000    ....    MOVT     r0,#0x1000
        0x0001e80a:    6800        .h      LDR      r0,[r0,#0]
        0x0001e80c:    b9f0        ..      CBNZ     r0,0x1e84c ; tud_init + 168
        0x0001e80e:    e7ff        ..      B        0x1e810 ; tud_init + 108
        0x0001e810:    f64f3070    O.p0    MOV      r0,#0xfb70
        0x0001e814:    f2c00001    ....    MOVT     r0,#1
        0x0001e818:    f64f71b6    O..q    MOV      r1,#0xffb6
        0x0001e81c:    f2c00101    ....    MOVT     r1,#1
        0x0001e820:    f44f72d3    O..r    MOV      r2,#0x1a6
        0x0001e824:    f7fcfc9a    ....    BL       am_util_stdio_printf ; 0x1b15c
        0x0001e828:    e7ff        ..      B        0x1e82a ; tud_init + 134
        0x0001e82a:    f64e50f0    N..P    MOV      r0,#0xedf0
        0x0001e82e:    f2ce0000    ....    MOVT     r0,#0xe000
        0x0001e832:    9002        ..      STR      r0,[sp,#8]
        0x0001e834:    9802        ..      LDR      r0,[sp,#8]
        0x0001e836:    6800        .h      LDR      r0,[r0,#0]
        0x0001e838:    07c0        ..      LSLS     r0,r0,#31
        0x0001e83a:    b110        ..      CBZ      r0,0x1e842 ; tud_init + 158
        0x0001e83c:    e7ff        ..      B        0x1e83e ; tud_init + 154
        0x0001e83e:    be00        ..      BKPT     #0
        0x0001e840:    e7ff        ..      B        0x1e842 ; tud_init + 158
        0x0001e842:    e7ff        ..      B        0x1e844 ; tud_init + 160
        0x0001e844:    2000        .       MOVS     r0,#0
        0x0001e846:    f88d000f    ....    STRB     r0,[sp,#0xf]
        0x0001e84a:    e049        I.      B        0x1e8e0 ; tud_init + 316
        0x0001e84c:    e7ff        ..      B        0x1e84e ; tud_init + 170
        0x0001e84e:    f2400000    @...    MOVW     r0,#0
        0x0001e852:    f2c00000    ....    MOVT     r0,#0
        0x0001e856:    b160        `.      CBZ      r0,0x1e872 ; tud_init + 206
        0x0001e858:    e7ff        ..      B        0x1e85a ; tud_init + 182
        0x0001e85a:    f24000cc    @...    MOVW     r0,#0xcc
        0x0001e85e:    f2c10000    ....    MOVT     r0,#0x1000
        0x0001e862:    f3af8000    ....    NOP.W    
        0x0001e866:    f24001c8    @...    MOVW     r1,#0xc8
        0x0001e86a:    f2c10100    ....    MOVT     r1,#0x1000
        0x0001e86e:    6008        .`      STR      r0,[r1,#0]
        0x0001e870:    e7ff        ..      B        0x1e872 ; tud_init + 206
        0x0001e872:    2000        .       MOVS     r0,#0
        0x0001e874:    f88d0007    ....    STRB     r0,[sp,#7]
        0x0001e878:    e7ff        ..      B        0x1e87a ; tud_init + 214
        0x0001e87a:    f89d0007    ....    LDRB     r0,[sp,#7]
        0x0001e87e:    f24001cc    @...    MOVW     r1,#0xcc
        0x0001e882:    f2c10100    ....    MOVT     r1,#0x1000
        0x0001e886:    7809        .x      LDRB     r1,[r1,#0]
        0x0001e888:    3101        .1      ADDS     r1,#1
        0x0001e88a:    4288        .B      CMP      r0,r1
        0x0001e88c:    da17        ..      BGE      0x1e8be ; tud_init + 282
        0x0001e88e:    e7ff        ..      B        0x1e890 ; tud_init + 236
        0x0001e890:    f89d0007    ....    LDRB     r0,[sp,#7]
        0x0001e894:    f7fdfdc0    ....    BL       get_driver ; 0x1c418
        0x0001e898:    9000        ..      STR      r0,[sp,#0]
        0x0001e89a:    9800        ..      LDR      r0,[sp,#0]
        0x0001e89c:    6801        .h      LDR      r1,[r0,#0]
        0x0001e89e:    f64f50e3    O..P    MOV      r0,#0xfde3
        0x0001e8a2:    f2c00001    ....    MOVT     r0,#1
        0x0001e8a6:    f7fcfc59    ..Y.    BL       am_util_stdio_printf ; 0x1b15c
        0x0001e8aa:    9800        ..      LDR      r0,[sp,#0]
        0x0001e8ac:    6840        @h      LDR      r0,[r0,#4]
        0x0001e8ae:    4780        .G      BLX      r0
        0x0001e8b0:    e7ff        ..      B        0x1e8b2 ; tud_init + 270
        0x0001e8b2:    f89d0007    ....    LDRB     r0,[sp,#7]
        0x0001e8b6:    3001        .0      ADDS     r0,#1
        0x0001e8b8:    f88d0007    ....    STRB     r0,[sp,#7]
        0x0001e8bc:    e7dd        ..      B        0x1e87a ; tud_init + 214
        0x0001e8be:    f89d000e    ....    LDRB     r0,[sp,#0xe]
        0x0001e8c2:    f7fdfa65    ..e.    BL       dcd_init ; 0x1bd90
        0x0001e8c6:    f89d000e    ....    LDRB     r0,[sp,#0xe]
        0x0001e8ca:    f7fdfad1    ....    BL       dcd_int_enable ; 0x1be70
        0x0001e8ce:    f24011e3    @...    MOV      r1,#0x1e3
        0x0001e8d2:    f2c10100    ....    MOVT     r1,#0x1000
        0x0001e8d6:    2001        .       MOVS     r0,#1
        0x0001e8d8:    7008        .p      STRB     r0,[r1,#0]
        0x0001e8da:    f88d000f    ....    STRB     r0,[sp,#0xf]
        0x0001e8de:    e7ff        ..      B        0x1e8e0 ; tud_init + 316
        0x0001e8e0:    f89d000f    ....    LDRB     r0,[sp,#0xf]
        0x0001e8e4:    b004        ..      ADD      sp,sp,#0x10
        0x0001e8e6:    bd80        ..      POP      {r7,pc}
    tud_inited
        0x0001e8e8:    f24010e3    @...    MOV      r0,#0x1e3
        0x0001e8ec:    f2c10000    ....    MOVT     r0,#0x1000
        0x0001e8f0:    7800        .x      LDRB     r0,[r0,#0]
        0x0001e8f2:    f0000001    ....    AND      r0,r0,#1
        0x0001e8f6:    4770        pG      BX       lr
    tud_task
        0x0001e8f8:    b580        ..      PUSH     {r7,lr}
        0x0001e8fa:    b08e        ..      SUB      sp,sp,#0x38
        0x0001e8fc:    f000fa0a    ....    BL       tusb_inited ; 0x1ed14
        0x0001e900:    b908        ..      CBNZ     r0,0x1e906 ; tud_task + 14
        0x0001e902:    e7ff        ..      B        0x1e904 ; tud_task + 12
        0x0001e904:    e1d6        ..      B        0x1ecb4 ; tud_task + 956
        0x0001e906:    e7ff        ..      B        0x1e908 ; tud_task + 16
        0x0001e908:    f24010e4    @...    MOVW     r0,#0x1e4
        0x0001e90c:    f2c10000    ....    MOVT     r0,#0x1000
        0x0001e910:    6800        .h      LDR      r0,[r0,#0]
        0x0001e912:    a90b        ..      ADD      r1,sp,#0x2c
        0x0001e914:    f7fefc24    ..$.    BL       osal_queue_receive ; 0x1d160
        0x0001e918:    b908        ..      CBNZ     r0,0x1e91e ; tud_task + 38
        0x0001e91a:    e7ff        ..      B        0x1e91c ; tud_task + 36
        0x0001e91c:    e1ca        ..      B        0x1ecb4 ; tud_task + 956
        0x0001e91e:    f89d002d    ..-.    LDRB     r0,[sp,#0x2d]
        0x0001e922:    2806        .(      CMP      r0,#6
        0x0001e924:    d107        ..      BNE      0x1e936 ; tud_task + 62
        0x0001e926:    e7ff        ..      B        0x1e928 ; tud_task + 48
        0x0001e928:    f64f30c5    O..0    MOV      r0,#0xfbc5
        0x0001e92c:    f2c00001    ....    MOVT     r0,#1
        0x0001e930:    f7fcfc14    ....    BL       am_util_stdio_printf ; 0x1b15c
        0x0001e934:    e7ff        ..      B        0x1e936 ; tud_task + 62
        0x0001e936:    f89d002d    ..-.    LDRB     r0,[sp,#0x2d]
        0x0001e93a:    2808        .(      CMP      r0,#8
        0x0001e93c:    dc0a        ..      BGT      0x1e954 ; tud_task + 92
        0x0001e93e:    e7ff        ..      B        0x1e940 ; tud_task + 72
        0x0001e940:    f89d102d    ..-.    LDRB     r1,[sp,#0x2d]
        0x0001e944:    f24f70e8    O..p    MOV      r0,#0xf7e8
        0x0001e948:    f2c00001    ....    MOVT     r0,#1
        0x0001e94c:    f8500021    P.!.    LDR      r0,[r0,r1,LSL #2]
        0x0001e950:    9004        ..      STR      r0,[sp,#0x10]
        0x0001e952:    e005        ..      B        0x1e960 ; tud_task + 104
        0x0001e954:    f64f602a    O.*`    MOV      r0,#0xfe2a
        0x0001e958:    f2c00001    ....    MOVT     r0,#1
        0x0001e95c:    9004        ..      STR      r0,[sp,#0x10]
        0x0001e95e:    e7ff        ..      B        0x1e960 ; tud_task + 104
        0x0001e960:    9904        ..      LDR      r1,[sp,#0x10]
        0x0001e962:    f64f6021    O.!`    MOV      r0,#0xfe21
        0x0001e966:    f2c00001    ....    MOVT     r0,#1
        0x0001e96a:    f7fcfbf7    ....    BL       am_util_stdio_printf ; 0x1b15c
        0x0001e96e:    f89d002d    ..-.    LDRB     r0,[sp,#0x2d]
        0x0001e972:    3801        .8      SUBS     r0,#1
        0x0001e974:    4601        .F      MOV      r1,r0
        0x0001e976:    9103        ..      STR      r1,[sp,#0xc]
        0x0001e978:    2807        .(      CMP      r0,#7
        0x0001e97a:    f200818b    ....    BHI.W    0x1ec94 ; tud_task + 924
        0x0001e97e:    9903        ..      LDR      r1,[sp,#0xc]
        0x0001e980:    e8dff011    ....    TBH      [pc,r1,LSL #1]
    $d.15
        0x0001e984:    00220008    ..".    DCD    2228232
        0x0001e988:    0100014e    N...    DCD    16777550
        0x0001e98c:    0036012e    ..6.    DCD    3539246
        0x0001e990:    017a007c    |.z.    DCD    24772732
    $t.16
        0x0001e994:    f89d1030    ..0.    LDRB     r1,[sp,#0x30]
        0x0001e998:    f24f708c    O..p    MOV      r0,#0xf78c
        0x0001e99c:    f2c00001    ....    MOVT     r0,#1
        0x0001e9a0:    f8501021    P.!.    LDR      r1,[r0,r1,LSL #2]
        0x0001e9a4:    f64f40d6    O..@    MOV      r0,#0xfcd6
        0x0001e9a8:    f2c00001    ....    MOVT     r0,#1
        0x0001e9ac:    f7fcfbd6    ....    BL       am_util_stdio_printf ; 0x1b15c
        0x0001e9b0:    f89d002c    ..,.    LDRB     r0,[sp,#0x2c]
        0x0001e9b4:    f000fe20    .. .    BL       usbd_reset ; 0x1f5f8
        0x0001e9b8:    f89d0030    ..0.    LDRB     r0,[sp,#0x30]
        0x0001e9bc:    f24011b0    @...    MOVW     r1,#0x1b0
        0x0001e9c0:    f2c10100    ....    MOVT     r1,#0x1000
        0x0001e9c4:    7088        .p      STRB     r0,[r1,#2]
        0x0001e9c6:    e174        t.      B        0x1ecb2 ; tud_task + 954
        0x0001e9c8:    f64f30c5    O..0    MOV      r0,#0xfbc5
        0x0001e9cc:    f2c00001    ....    MOVT     r0,#1
        0x0001e9d0:    f7fcfbc4    ....    BL       am_util_stdio_printf ; 0x1b15c
        0x0001e9d4:    f89d002c    ..,.    LDRB     r0,[sp,#0x2c]
        0x0001e9d8:    f000fe0e    ....    BL       usbd_reset ; 0x1f5f8
        0x0001e9dc:    f2400000    @...    MOVW     r0,#0
        0x0001e9e0:    f2c00000    ....    MOVT     r0,#0
        0x0001e9e4:    b118        ..      CBZ      r0,0x1e9ee ; tud_task + 246
        0x0001e9e6:    e7ff        ..      B        0x1e9e8 ; tud_task + 240
        0x0001e9e8:    f3af8000    ....    NOP.W    
        0x0001e9ec:    e7ff        ..      B        0x1e9ee ; tud_task + 246
        0x0001e9ee:    e160        `.      B        0x1ecb2 ; tud_task + 954
        0x0001e9f0:    a80b        ..      ADD      r0,sp,#0x2c
        0x0001e9f2:    3004        .0      ADDS     r0,#4
        0x0001e9f4:    9001        ..      STR      r0,[sp,#4]
        0x0001e9f6:    2108        .!      MOVS     r1,#8
        0x0001e9f8:    f7fffc9e    ....    BL       tu_print_var ; 0x1e338
        0x0001e9fc:    f64f30c5    O..0    MOV      r0,#0xfbc5
        0x0001ea00:    f2c00001    ....    MOVT     r0,#1
        0x0001ea04:    f7fcfbaa    ....    BL       am_util_stdio_printf ; 0x1b15c
        0x0001ea08:    9901        ..      LDR      r1,[sp,#4]
        0x0001ea0a:    f24012b0    @...    MOVW     r2,#0x1b0
        0x0001ea0e:    f2c10200    ....    MOVT     r2,#0x1000
        0x0001ea12:    9202        ..      STR      r2,[sp,#8]
        0x0001ea14:    7810        .x      LDRB     r0,[r2,#0]
        0x0001ea16:    f0400001    @...    ORR      r0,r0,#1
        0x0001ea1a:    7010        .p      STRB     r0,[r2,#0]
        0x0001ea1c:    f8920023    ..#.    LDRB     r0,[r2,#0x23]
        0x0001ea20:    f00000fe    ....    AND      r0,r0,#0xfe
        0x0001ea24:    f8820023    ..#.    STRB     r0,[r2,#0x23]
        0x0001ea28:    f8920023    ..#.    LDRB     r0,[r2,#0x23]
        0x0001ea2c:    f00000fb    ....    AND      r0,r0,#0xfb
        0x0001ea30:    f8820023    ..#.    STRB     r0,[r2,#0x23]
        0x0001ea34:    f8920024    ..$.    LDRB     r0,[r2,#0x24]
        0x0001ea38:    f00000fe    ....    AND      r0,r0,#0xfe
        0x0001ea3c:    f8820024    ..$.    STRB     r0,[r2,#0x24]
        0x0001ea40:    f8920024    ..$.    LDRB     r0,[r2,#0x24]
        0x0001ea44:    f00000fb    ....    AND      r0,r0,#0xfb
        0x0001ea48:    f8820024    ..$.    STRB     r0,[r2,#0x24]
        0x0001ea4c:    f89d002c    ..,.    LDRB     r0,[sp,#0x2c]
        0x0001ea50:    f7fefc14    ....    BL       process_control_request ; 0x1d27c
        0x0001ea54:    b988        ..      CBNZ     r0,0x1ea7a ; tud_task + 386
        0x0001ea56:    e7ff        ..      B        0x1ea58 ; tud_task + 352
        0x0001ea58:    f64f405a    O.Z@    MOV      r0,#0xfc5a
        0x0001ea5c:    f2c00001    ....    MOVT     r0,#1
        0x0001ea60:    f7fcfb7c    ..|.    BL       am_util_stdio_printf ; 0x1b15c
        0x0001ea64:    f89d002c    ..,.    LDRB     r0,[sp,#0x2c]
        0x0001ea68:    2100        .!      MOVS     r1,#0
        0x0001ea6a:    f7fdf839    ..9.    BL       dcd_edpt_stall ; 0x1bae0
        0x0001ea6e:    f89d002c    ..,.    LDRB     r0,[sp,#0x2c]
        0x0001ea72:    2180        .!      MOVS     r1,#0x80
        0x0001ea74:    f7fdf834    ..4.    BL       dcd_edpt_stall ; 0x1bae0
        0x0001ea78:    e7ff        ..      B        0x1ea7a ; tud_task + 386
        0x0001ea7a:    e11a        ..      B        0x1ecb2 ; tud_task + 954
        0x0001ea7c:    f89d0030    ..0.    LDRB     r0,[sp,#0x30]
        0x0001ea80:    f88d002b    ..+.    STRB     r0,[sp,#0x2b]
        0x0001ea84:    f89d002b    ..+.    LDRB     r0,[sp,#0x2b]
        0x0001ea88:    f7fffaf2    ....    BL       tu_edpt_number ; 0x1e070
        0x0001ea8c:    f88d002a    ..*.    STRB     r0,[sp,#0x2a]
        0x0001ea90:    f89d002b    ..+.    LDRB     r0,[sp,#0x2b]
        0x0001ea94:    f7fffad2    ....    BL       tu_edpt_dir ; 0x1e03c
        0x0001ea98:    f88d0029    ..).    STRB     r0,[sp,#0x29]
        0x0001ea9c:    f89d102b    ..+.    LDRB     r1,[sp,#0x2b]
        0x0001eaa0:    9a0d        ..      LDR      r2,[sp,#0x34]
        0x0001eaa2:    f64f50bc    O..P    MOV      r0,#0xfdbc
        0x0001eaa6:    f2c00001    ....    MOVT     r0,#1
        0x0001eaaa:    f7fcfb57    ..W.    BL       am_util_stdio_printf ; 0x1b15c
        0x0001eaae:    f89d102a    ..*.    LDRB     r1,[sp,#0x2a]
        0x0001eab2:    f24010b0    @...    MOVW     r0,#0x1b0
        0x0001eab6:    f2c10000    ....    MOVT     r0,#0x1000
        0x0001eaba:    3023        #0      ADDS     r0,r0,#0x23
        0x0001eabc:    eb000241    ..A.    ADD      r2,r0,r1,LSL #1
        0x0001eac0:    f89d3029    ..)0    LDRB     r3,[sp,#0x29]
        0x0001eac4:    5cd1        .\      LDRB     r1,[r2,r3]
        0x0001eac6:    f00101fe    ....    AND      r1,r1,#0xfe
        0x0001eaca:    54d1        .T      STRB     r1,[r2,r3]
        0x0001eacc:    f89d102a    ..*.    LDRB     r1,[sp,#0x2a]
        0x0001ead0:    eb000141    ..A.    ADD      r1,r0,r1,LSL #1
        0x0001ead4:    f89d2029    ..)     LDRB     r2,[sp,#0x29]
        0x0001ead8:    5c88        .\      LDRB     r0,[r1,r2]
        0x0001eada:    f00000fb    ....    AND      r0,r0,#0xfb
        0x0001eade:    5488        .T      STRB     r0,[r1,r2]
        0x0001eae0:    f89d002a    ..*.    LDRB     r0,[sp,#0x2a]
        0x0001eae4:    b950        P.      CBNZ     r0,0x1eafc ; tud_task + 516
        0x0001eae6:    e7ff        ..      B        0x1eae8 ; tud_task + 496
        0x0001eae8:    f89d102b    ..+.    LDRB     r1,[sp,#0x2b]
        0x0001eaec:    f89d002c    ..,.    LDRB     r0,[sp,#0x2c]
        0x0001eaf0:    f89d2031    ..1     LDRB     r2,[sp,#0x31]
        0x0001eaf4:    9b0d        ..      LDR      r3,[sp,#0x34]
        0x0001eaf6:    f000f9f5    ....    BL       usbd_control_xfer_cb ; 0x1eee4
        0x0001eafa:    e042        B.      B        0x1eb82 ; tud_task + 650
        0x0001eafc:    f89d102a    ..*.    LDRB     r1,[sp,#0x2a]
        0x0001eb00:    f24010b0    @...    MOVW     r0,#0x1b0
        0x0001eb04:    f2c10000    ....    MOVT     r0,#0x1000
        0x0001eb08:    eb000041    ..A.    ADD      r0,r0,r1,LSL #1
        0x0001eb0c:    f89d1029    ..).    LDRB     r1,[sp,#0x29]
        0x0001eb10:    4408        .D      ADD      r0,r0,r1
        0x0001eb12:    7cc0        .|      LDRB     r0,[r0,#0x13]
        0x0001eb14:    f7fdfc80    ....    BL       get_driver ; 0x1c418
        0x0001eb18:    9009        ..      STR      r0,[sp,#0x24]
        0x0001eb1a:    e7ff        ..      B        0x1eb1c ; tud_task + 548
        0x0001eb1c:    9809        ..      LDR      r0,[sp,#0x24]
        0x0001eb1e:    b9d8        ..      CBNZ     r0,0x1eb58 ; tud_task + 608
        0x0001eb20:    e7ff        ..      B        0x1eb22 ; tud_task + 554
        0x0001eb22:    f64f3070    O.p0    MOV      r0,#0xfb70
        0x0001eb26:    f2c00001    ....    MOVT     r0,#1
        0x0001eb2a:    f64f61ed    O..a    MOV      r1,#0xfeed
        0x0001eb2e:    f2c00101    ....    MOVT     r1,#1
        0x0001eb32:    f2402237    @.7"    MOV      r2,#0x237
        0x0001eb36:    f7fcfb11    ....    BL       am_util_stdio_printf ; 0x1b15c
        0x0001eb3a:    e7ff        ..      B        0x1eb3c ; tud_task + 580
        0x0001eb3c:    f64e50f0    N..P    MOV      r0,#0xedf0
        0x0001eb40:    f2ce0000    ....    MOVT     r0,#0xe000
        0x0001eb44:    9008        ..      STR      r0,[sp,#0x20]
        0x0001eb46:    9808        ..      LDR      r0,[sp,#0x20]
        0x0001eb48:    6800        .h      LDR      r0,[r0,#0]
        0x0001eb4a:    07c0        ..      LSLS     r0,r0,#31
        0x0001eb4c:    b110        ..      CBZ      r0,0x1eb54 ; tud_task + 604
        0x0001eb4e:    e7ff        ..      B        0x1eb50 ; tud_task + 600
        0x0001eb50:    be00        ..      BKPT     #0
        0x0001eb52:    e7ff        ..      B        0x1eb54 ; tud_task + 604
        0x0001eb54:    e7ff        ..      B        0x1eb56 ; tud_task + 606
        0x0001eb56:    e0ad        ..      B        0x1ecb4 ; tud_task + 956
        0x0001eb58:    e7ff        ..      B        0x1eb5a ; tud_task + 610
        0x0001eb5a:    9809        ..      LDR      r0,[sp,#0x24]
        0x0001eb5c:    6801        .h      LDR      r1,[r0,#0]
        0x0001eb5e:    f64f4068    O.h@    MOV      r0,#0xfc68
        0x0001eb62:    f2c00001    ....    MOVT     r0,#1
        0x0001eb66:    f7fcfaf9    ....    BL       am_util_stdio_printf ; 0x1b15c
        0x0001eb6a:    9809        ..      LDR      r0,[sp,#0x24]
        0x0001eb6c:    f8d0c014    ....    LDR      r12,[r0,#0x14]
        0x0001eb70:    f89d102b    ..+.    LDRB     r1,[sp,#0x2b]
        0x0001eb74:    f89d002c    ..,.    LDRB     r0,[sp,#0x2c]
        0x0001eb78:    f89d2031    ..1     LDRB     r2,[sp,#0x31]
        0x0001eb7c:    9b0d        ..      LDR      r3,[sp,#0x34]
        0x0001eb7e:    47e0        .G      BLX      r12
        0x0001eb80:    e7ff        ..      B        0x1eb82 ; tud_task + 650
        0x0001eb82:    e096        ..      B        0x1ecb2 ; tud_task + 954
        0x0001eb84:    f24010b0    @...    MOVW     r0,#0x1b0
        0x0001eb88:    f2c10000    ....    MOVT     r0,#0x1000
        0x0001eb8c:    7800        .x      LDRB     r0,[r0,#0]
        0x0001eb8e:    07c0        ..      LSLS     r0,r0,#31
        0x0001eb90:    b1f0        ..      CBZ      r0,0x1ebd0 ; tud_task + 728
        0x0001eb92:    e7ff        ..      B        0x1eb94 ; tud_task + 668
        0x0001eb94:    f24010b0    @...    MOVW     r0,#0x1b0
        0x0001eb98:    f2c10000    ....    MOVT     r0,#0x1000
        0x0001eb9c:    7800        .x      LDRB     r0,[r0,#0]
        0x0001eb9e:    f3c001c0    ....    UBFX     r1,r0,#3,#1
        0x0001eba2:    f64f6004    O..`    MOV      r0,#0xfe04
        0x0001eba6:    f2c00001    ....    MOVT     r0,#1
        0x0001ebaa:    f7fcfad7    ....    BL       am_util_stdio_printf ; 0x1b15c
        0x0001ebae:    f2400000    @...    MOVW     r0,#0
        0x0001ebb2:    f2c00000    ....    MOVT     r0,#0
        0x0001ebb6:    b150        P.      CBZ      r0,0x1ebce ; tud_task + 726
        0x0001ebb8:    e7ff        ..      B        0x1ebba ; tud_task + 706
        0x0001ebba:    f24010b0    @...    MOVW     r0,#0x1b0
        0x0001ebbe:    f2c10000    ....    MOVT     r0,#0x1000
        0x0001ebc2:    7800        .x      LDRB     r0,[r0,#0]
        0x0001ebc4:    f3c000c0    ....    UBFX     r0,r0,#3,#1
        0x0001ebc8:    f3af8000    ....    NOP.W    
        0x0001ebcc:    e7ff        ..      B        0x1ebce ; tud_task + 726
        0x0001ebce:    e006        ..      B        0x1ebde ; tud_task + 742
        0x0001ebd0:    f64f40f1    O..@    MOV      r0,#0xfcf1
        0x0001ebd4:    f2c00001    ....    MOVT     r0,#1
        0x0001ebd8:    f7fcfac0    ....    BL       am_util_stdio_printf ; 0x1b15c
        0x0001ebdc:    e7ff        ..      B        0x1ebde ; tud_task + 742
        0x0001ebde:    e068        h.      B        0x1ecb2 ; tud_task + 954
        0x0001ebe0:    f24010b0    @...    MOVW     r0,#0x1b0
        0x0001ebe4:    f2c10000    ....    MOVT     r0,#0x1000
        0x0001ebe8:    7800        .x      LDRB     r0,[r0,#0]
        0x0001ebea:    07c0        ..      LSLS     r0,r0,#31
        0x0001ebec:    b180        ..      CBZ      r0,0x1ec10 ; tud_task + 792
        0x0001ebee:    e7ff        ..      B        0x1ebf0 ; tud_task + 760
        0x0001ebf0:    f64f30c5    O..0    MOV      r0,#0xfbc5
        0x0001ebf4:    f2c00001    ....    MOVT     r0,#1
        0x0001ebf8:    f7fcfab0    ....    BL       am_util_stdio_printf ; 0x1b15c
        0x0001ebfc:    f2400000    @...    MOVW     r0,#0
        0x0001ec00:    f2c00000    ....    MOVT     r0,#0
        0x0001ec04:    b118        ..      CBZ      r0,0x1ec0e ; tud_task + 790
        0x0001ec06:    e7ff        ..      B        0x1ec08 ; tud_task + 784
        0x0001ec08:    f3af8000    ....    NOP.W    
        0x0001ec0c:    e7ff        ..      B        0x1ec0e ; tud_task + 790
        0x0001ec0e:    e006        ..      B        0x1ec1e ; tud_task + 806
        0x0001ec10:    f64f40f1    O..@    MOV      r0,#0xfcf1
        0x0001ec14:    f2c00001    ....    MOVT     r0,#1
        0x0001ec18:    f7fcfaa0    ....    BL       am_util_stdio_printf ; 0x1b15c
        0x0001ec1c:    e7ff        ..      B        0x1ec1e ; tud_task + 806
        0x0001ec1e:    e048        H.      B        0x1ecb2 ; tud_task + 954
        0x0001ec20:    f64f30c5    O..0    MOV      r0,#0xfbc5
        0x0001ec24:    f2c00001    ....    MOVT     r0,#1
        0x0001ec28:    f7fcfa98    ....    BL       am_util_stdio_printf ; 0x1b15c
        0x0001ec2c:    2000        .       MOVS     r0,#0
        0x0001ec2e:    f88d001f    ....    STRB     r0,[sp,#0x1f]
        0x0001ec32:    e7ff        ..      B        0x1ec34 ; tud_task + 828
        0x0001ec34:    f89d001f    ....    LDRB     r0,[sp,#0x1f]
        0x0001ec38:    f24001cc    @...    MOVW     r1,#0xcc
        0x0001ec3c:    f2c10100    ....    MOVT     r1,#0x1000
        0x0001ec40:    7809        .x      LDRB     r1,[r1,#0]
        0x0001ec42:    3101        .1      ADDS     r1,#1
        0x0001ec44:    4288        .B      CMP      r0,r1
        0x0001ec46:    da16        ..      BGE      0x1ec76 ; tud_task + 894
        0x0001ec48:    e7ff        ..      B        0x1ec4a ; tud_task + 850
        0x0001ec4a:    f89d001f    ....    LDRB     r0,[sp,#0x1f]
        0x0001ec4e:    f7fdfbe3    ....    BL       get_driver ; 0x1c418
        0x0001ec52:    9006        ..      STR      r0,[sp,#0x18]
        0x0001ec54:    9806        ..      LDR      r0,[sp,#0x18]
        0x0001ec56:    6980        .i      LDR      r0,[r0,#0x18]
        0x0001ec58:    b130        0.      CBZ      r0,0x1ec68 ; tud_task + 880
        0x0001ec5a:    e7ff        ..      B        0x1ec5c ; tud_task + 868
        0x0001ec5c:    9806        ..      LDR      r0,[sp,#0x18]
        0x0001ec5e:    6981        .i      LDR      r1,[r0,#0x18]
        0x0001ec60:    f89d002c    ..,.    LDRB     r0,[sp,#0x2c]
        0x0001ec64:    4788        .G      BLX      r1
        0x0001ec66:    e7ff        ..      B        0x1ec68 ; tud_task + 880
        0x0001ec68:    e7ff        ..      B        0x1ec6a ; tud_task + 882
        0x0001ec6a:    f89d001f    ....    LDRB     r0,[sp,#0x1f]
        0x0001ec6e:    3001        .0      ADDS     r0,#1
        0x0001ec70:    f88d001f    ....    STRB     r0,[sp,#0x1f]
        0x0001ec74:    e7de        ..      B        0x1ec34 ; tud_task + 828
        0x0001ec76:    e01c        ..      B        0x1ecb2 ; tud_task + 954
        0x0001ec78:    f64f30c5    O..0    MOV      r0,#0xfbc5
        0x0001ec7c:    f2c00001    ....    MOVT     r0,#1
        0x0001ec80:    f7fcfa6c    ..l.    BL       am_util_stdio_printf ; 0x1b15c
        0x0001ec84:    980c        ..      LDR      r0,[sp,#0x30]
        0x0001ec86:    b120         .      CBZ      r0,0x1ec92 ; tud_task + 922
        0x0001ec88:    e7ff        ..      B        0x1ec8a ; tud_task + 914
        0x0001ec8a:    990c        ..      LDR      r1,[sp,#0x30]
        0x0001ec8c:    980d        ..      LDR      r0,[sp,#0x34]
        0x0001ec8e:    4788        .G      BLX      r1
        0x0001ec90:    e7ff        ..      B        0x1ec92 ; tud_task + 922
        0x0001ec92:    e00e        ..      B        0x1ecb2 ; tud_task + 954
        0x0001ec94:    e7ff        ..      B        0x1ec96 ; tud_task + 926
        0x0001ec96:    f64e50f0    N..P    MOV      r0,#0xedf0
        0x0001ec9a:    f2ce0000    ....    MOVT     r0,#0xe000
        0x0001ec9e:    9005        ..      STR      r0,[sp,#0x14]
        0x0001eca0:    9805        ..      LDR      r0,[sp,#0x14]
        0x0001eca2:    6800        .h      LDR      r0,[r0,#0]
        0x0001eca4:    07c0        ..      LSLS     r0,r0,#31
        0x0001eca6:    b110        ..      CBZ      r0,0x1ecae ; tud_task + 950
        0x0001eca8:    e7ff        ..      B        0x1ecaa ; tud_task + 946
        0x0001ecaa:    be00        ..      BKPT     #0
        0x0001ecac:    e7ff        ..      B        0x1ecae ; tud_task + 950
        0x0001ecae:    e7ff        ..      B        0x1ecb0 ; tud_task + 952
        0x0001ecb0:    e7ff        ..      B        0x1ecb2 ; tud_task + 954
        0x0001ecb2:    e629        ).      B        0x1e908 ; tud_task + 16
        0x0001ecb4:    b00e        ..      ADD      sp,sp,#0x38
        0x0001ecb6:    bd80        ..      POP      {r7,pc}
    tusb_init
        0x0001ecb8:    b580        ..      PUSH     {r7,lr}
        0x0001ecba:    b082        ..      SUB      sp,sp,#8
        0x0001ecbc:    e7ff        ..      B        0x1ecbe ; tusb_init + 6
        0x0001ecbe:    2000        .       MOVS     r0,#0
        0x0001ecc0:    f7fffd70    ..p.    BL       tud_init ; 0x1e7a4
        0x0001ecc4:    b9e8        ..      CBNZ     r0,0x1ed02 ; tusb_init + 74
        0x0001ecc6:    e7ff        ..      B        0x1ecc8 ; tusb_init + 16
        0x0001ecc8:    f64f3070    O.p0    MOV      r0,#0xfb70
        0x0001eccc:    f2c00001    ....    MOVT     r0,#1
        0x0001ecd0:    f64f31d9    O..1    MOV      r1,#0xfbd9
        0x0001ecd4:    f2c00101    ....    MOVT     r1,#1
        0x0001ecd8:    222a        *"      MOVS     r2,#0x2a
        0x0001ecda:    f7fcfa3f    ..?.    BL       am_util_stdio_printf ; 0x1b15c
        0x0001ecde:    e7ff        ..      B        0x1ece0 ; tusb_init + 40
        0x0001ece0:    f64e50f0    N..P    MOV      r0,#0xedf0
        0x0001ece4:    f2ce0000    ....    MOVT     r0,#0xe000
        0x0001ece8:    9000        ..      STR      r0,[sp,#0]
        0x0001ecea:    9800        ..      LDR      r0,[sp,#0]
        0x0001ecec:    6800        .h      LDR      r0,[r0,#0]
        0x0001ecee:    07c0        ..      LSLS     r0,r0,#31
        0x0001ecf0:    b110        ..      CBZ      r0,0x1ecf8 ; tusb_init + 64
        0x0001ecf2:    e7ff        ..      B        0x1ecf4 ; tusb_init + 60
        0x0001ecf4:    be00        ..      BKPT     #0
        0x0001ecf6:    e7ff        ..      B        0x1ecf8 ; tusb_init + 64
        0x0001ecf8:    e7ff        ..      B        0x1ecfa ; tusb_init + 66
        0x0001ecfa:    2000        .       MOVS     r0,#0
        0x0001ecfc:    f88d0007    ....    STRB     r0,[sp,#7]
        0x0001ed00:    e004        ..      B        0x1ed0c ; tusb_init + 84
        0x0001ed02:    e7ff        ..      B        0x1ed04 ; tusb_init + 76
        0x0001ed04:    2001        .       MOVS     r0,#1
        0x0001ed06:    f88d0007    ....    STRB     r0,[sp,#7]
        0x0001ed0a:    e7ff        ..      B        0x1ed0c ; tusb_init + 84
        0x0001ed0c:    f89d0007    ....    LDRB     r0,[sp,#7]
        0x0001ed10:    b002        ..      ADD      sp,sp,#8
        0x0001ed12:    bd80        ..      POP      {r7,pc}
    tusb_inited
        0x0001ed14:    b580        ..      PUSH     {r7,lr}
        0x0001ed16:    b082        ..      SUB      sp,sp,#8
        0x0001ed18:    2000        .       MOVS     r0,#0
        0x0001ed1a:    f88d0007    ....    STRB     r0,[sp,#7]
        0x0001ed1e:    f89d1007    ....    LDRB     r1,[sp,#7]
        0x0001ed22:    2001        .       MOVS     r0,#1
        0x0001ed24:    07c9        ..      LSLS     r1,r1,#31
        0x0001ed26:    9000        ..      STR      r0,[sp,#0]
        0x0001ed28:    b921        !.      CBNZ     r1,0x1ed34 ; tusb_inited + 32
        0x0001ed2a:    e7ff        ..      B        0x1ed2c ; tusb_inited + 24
        0x0001ed2c:    f7fffddc    ....    BL       tud_inited ; 0x1e8e8
        0x0001ed30:    9000        ..      STR      r0,[sp,#0]
        0x0001ed32:    e7ff        ..      B        0x1ed34 ; tusb_inited + 32
        0x0001ed34:    9800        ..      LDR      r0,[sp,#0]
        0x0001ed36:    f0000001    ....    AND      r0,r0,#1
        0x0001ed3a:    f88d0007    ....    STRB     r0,[sp,#7]
        0x0001ed3e:    f89d0007    ....    LDRB     r0,[sp,#7]
        0x0001ed42:    f0000001    ....    AND      r0,r0,#1
        0x0001ed46:    b002        ..      ADD      sp,sp,#8
        0x0001ed48:    bd80        ..      POP      {r7,pc}
        0x0001ed4a:    0000        ..      MOVS     r0,r0
    uint64_to_hexstr
        0x0001ed4c:    b08c        ..      SUB      sp,sp,#0x30
        0x0001ed4e:    910b        ..      STR      r1,[sp,#0x2c]
        0x0001ed50:    900a        ..      STR      r0,[sp,#0x28]
        0x0001ed52:    9209        ..      STR      r2,[sp,#0x24]
        0x0001ed54:    f88d3023    ..#0    STRB     r3,[sp,#0x23]
        0x0001ed58:    2000        .       MOVS     r0,#0
        0x0001ed5a:    9006        ..      STR      r0,[sp,#0x18]
        0x0001ed5c:    980a        ..      LDR      r0,[sp,#0x28]
        0x0001ed5e:    990b        ..      LDR      r1,[sp,#0x2c]
        0x0001ed60:    4308        .C      ORRS     r0,r0,r1
        0x0001ed62:    b940        @.      CBNZ     r0,0x1ed76 ; uint64_to_hexstr + 42
        0x0001ed64:    e7ff        ..      B        0x1ed66 ; uint64_to_hexstr + 26
        0x0001ed66:    9a06        ..      LDR      r2,[sp,#0x18]
        0x0001ed68:    1c50        P.      ADDS     r0,r2,#1
        0x0001ed6a:    9006        ..      STR      r0,[sp,#0x18]
        0x0001ed6c:    f10d0103    ....    ADD      r1,sp,#3
        0x0001ed70:    2030        0       MOVS     r0,#0x30
        0x0001ed72:    5488        .T      STRB     r0,[r1,r2]
        0x0001ed74:    e7ff        ..      B        0x1ed76 ; uint64_to_hexstr + 42
        0x0001ed76:    e7ff        ..      B        0x1ed78 ; uint64_to_hexstr + 44
        0x0001ed78:    980a        ..      LDR      r0,[sp,#0x28]
        0x0001ed7a:    990b        ..      LDR      r1,[sp,#0x2c]
        0x0001ed7c:    4308        .C      ORRS     r0,r0,r1
        0x0001ed7e:    b350        P.      CBZ      r0,0x1edd6 ; uint64_to_hexstr + 138
        0x0001ed80:    e7ff        ..      B        0x1ed82 ; uint64_to_hexstr + 54
        0x0001ed82:    f89d0028    ..(.    LDRB     r0,[sp,#0x28]
        0x0001ed86:    f000000f    ....    AND      r0,r0,#0xf
        0x0001ed8a:    f88d0017    ....    STRB     r0,[sp,#0x17]
        0x0001ed8e:    f89d0017    ....    LDRB     r0,[sp,#0x17]
        0x0001ed92:    280a        .(      CMP      r0,#0xa
        0x0001ed94:    db0d        ..      BLT      0x1edb2 ; uint64_to_hexstr + 102
        0x0001ed96:    e7ff        ..      B        0x1ed98 ; uint64_to_hexstr + 76
        0x0001ed98:    f89d0023    ..#.    LDRB     r0,[sp,#0x23]
        0x0001ed9c:    07c0        ..      LSLS     r0,r0,#31
        0x0001ed9e:    2107        .!      MOVS     r1,#7
        0x0001eda0:    2800        .(      CMP      r0,#0
        0x0001eda2:    bf18        ..      IT       NE
        0x0001eda4:    2127        '!      MOVNE    r1,#0x27
        0x0001eda6:    f89d0017    ....    LDRB     r0,[sp,#0x17]
        0x0001edaa:    4408        .D      ADD      r0,r0,r1
        0x0001edac:    f88d0017    ....    STRB     r0,[sp,#0x17]
        0x0001edb0:    e7ff        ..      B        0x1edb2 ; uint64_to_hexstr + 102
        0x0001edb2:    f89d0017    ....    LDRB     r0,[sp,#0x17]
        0x0001edb6:    3030        00      ADDS     r0,r0,#0x30
        0x0001edb8:    9a06        ..      LDR      r2,[sp,#0x18]
        0x0001edba:    1c51        Q.      ADDS     r1,r2,#1
        0x0001edbc:    9106        ..      STR      r1,[sp,#0x18]
        0x0001edbe:    f10d0103    ....    ADD      r1,sp,#3
        0x0001edc2:    5488        .T      STRB     r0,[r1,r2]
        0x0001edc4:    980a        ..      LDR      r0,[sp,#0x28]
        0x0001edc6:    990b        ..      LDR      r1,[sp,#0x2c]
        0x0001edc8:    0900        ..      LSRS     r0,r0,#4
        0x0001edca:    ea407001    @..p    ORR      r0,r0,r1,LSL #28
        0x0001edce:    0909        ..      LSRS     r1,r1,#4
        0x0001edd0:    910b        ..      STR      r1,[sp,#0x2c]
        0x0001edd2:    900a        ..      STR      r0,[sp,#0x28]
        0x0001edd4:    e7d0        ..      B        0x1ed78 ; uint64_to_hexstr + 44
        0x0001edd6:    9806        ..      LDR      r0,[sp,#0x18]
        0x0001edd8:    9007        ..      STR      r0,[sp,#0x1c]
        0x0001edda:    9809        ..      LDR      r0,[sp,#0x24]
        0x0001eddc:    b198        ..      CBZ      r0,0x1ee06 ; uint64_to_hexstr + 186
        0x0001edde:    e7ff        ..      B        0x1ede0 ; uint64_to_hexstr + 148
        0x0001ede0:    e7ff        ..      B        0x1ede2 ; uint64_to_hexstr + 150
        0x0001ede2:    9806        ..      LDR      r0,[sp,#0x18]
        0x0001ede4:    1e41        A.      SUBS     r1,r0,#1
        0x0001ede6:    9106        ..      STR      r1,[sp,#0x18]
        0x0001ede8:    b148        H.      CBZ      r0,0x1edfe ; uint64_to_hexstr + 178
        0x0001edea:    e7ff        ..      B        0x1edec ; uint64_to_hexstr + 160
        0x0001edec:    9906        ..      LDR      r1,[sp,#0x18]
        0x0001edee:    f10d0003    ....    ADD      r0,sp,#3
        0x0001edf2:    5c40        @\      LDRB     r0,[r0,r1]
        0x0001edf4:    9909        ..      LDR      r1,[sp,#0x24]
        0x0001edf6:    1c4a        J.      ADDS     r2,r1,#1
        0x0001edf8:    9209        ..      STR      r2,[sp,#0x24]
        0x0001edfa:    7008        .p      STRB     r0,[r1,#0]
        0x0001edfc:    e7f1        ..      B        0x1ede2 ; uint64_to_hexstr + 150
        0x0001edfe:    9909        ..      LDR      r1,[sp,#0x24]
        0x0001ee00:    2000        .       MOVS     r0,#0
        0x0001ee02:    7008        .p      STRB     r0,[r1,#0]
        0x0001ee04:    e7ff        ..      B        0x1ee06 ; uint64_to_hexstr + 186
        0x0001ee06:    9807        ..      LDR      r0,[sp,#0x1c]
        0x0001ee08:    b00c        ..      ADD      sp,sp,#0x30
        0x0001ee0a:    4770        pG      BX       lr
    uint64_to_str
        0x0001ee0c:    b580        ..      PUSH     {r7,lr}
        0x0001ee0e:    b090        ..      SUB      sp,sp,#0x40
        0x0001ee10:    910f        ..      STR      r1,[sp,#0x3c]
        0x0001ee12:    900e        ..      STR      r0,[sp,#0x38]
        0x0001ee14:    920d        ..      STR      r2,[sp,#0x34]
        0x0001ee16:    2000        .       MOVS     r0,#0
        0x0001ee18:    9005        ..      STR      r0,[sp,#0x14]
        0x0001ee1a:    9004        ..      STR      r0,[sp,#0x10]
        0x0001ee1c:    e7ff        ..      B        0x1ee1e ; uint64_to_str + 18
        0x0001ee1e:    980e        ..      LDR      r0,[sp,#0x38]
        0x0001ee20:    990f        ..      LDR      r1,[sp,#0x3c]
        0x0001ee22:    f7fdf955    ..U.    BL       divu64_10 ; 0x1c0d0
        0x0001ee26:    9101        ..      STR      r1,[sp,#4]
        0x0001ee28:    9000        ..      STR      r0,[sp,#0]
        0x0001ee2a:    980e        ..      LDR      r0,[sp,#0x38]
        0x0001ee2c:    9900        ..      LDR      r1,[sp,#0]
        0x0001ee2e:    eb010181    ....    ADD      r1,r1,r1,LSL #2
        0x0001ee32:    eba00041    ..A.    SUB      r0,r0,r1,LSL #1
        0x0001ee36:    9003        ..      STR      r0,[sp,#0xc]
        0x0001ee38:    9803        ..      LDR      r0,[sp,#0xc]
        0x0001ee3a:    3030        00      ADDS     r0,r0,#0x30
        0x0001ee3c:    9a05        ..      LDR      r2,[sp,#0x14]
        0x0001ee3e:    1c51        Q.      ADDS     r1,r2,#1
        0x0001ee40:    9105        ..      STR      r1,[sp,#0x14]
        0x0001ee42:    f10d011b    ....    ADD      r1,sp,#0x1b
        0x0001ee46:    5488        .T      STRB     r0,[r1,r2]
        0x0001ee48:    9800        ..      LDR      r0,[sp,#0]
        0x0001ee4a:    9901        ..      LDR      r1,[sp,#4]
        0x0001ee4c:    910f        ..      STR      r1,[sp,#0x3c]
        0x0001ee4e:    900e        ..      STR      r0,[sp,#0x38]
        0x0001ee50:    e7ff        ..      B        0x1ee52 ; uint64_to_str + 70
        0x0001ee52:    980e        ..      LDR      r0,[sp,#0x38]
        0x0001ee54:    990f        ..      LDR      r1,[sp,#0x3c]
        0x0001ee56:    4308        .C      ORRS     r0,r0,r1
        0x0001ee58:    2800        .(      CMP      r0,#0
        0x0001ee5a:    d1e0        ..      BNE      0x1ee1e ; uint64_to_str + 18
        0x0001ee5c:    e7ff        ..      B        0x1ee5e ; uint64_to_str + 82
        0x0001ee5e:    9805        ..      LDR      r0,[sp,#0x14]
        0x0001ee60:    9004        ..      STR      r0,[sp,#0x10]
        0x0001ee62:    980d        ..      LDR      r0,[sp,#0x34]
        0x0001ee64:    b198        ..      CBZ      r0,0x1ee8e ; uint64_to_str + 130
        0x0001ee66:    e7ff        ..      B        0x1ee68 ; uint64_to_str + 92
        0x0001ee68:    e7ff        ..      B        0x1ee6a ; uint64_to_str + 94
        0x0001ee6a:    9805        ..      LDR      r0,[sp,#0x14]
        0x0001ee6c:    1e41        A.      SUBS     r1,r0,#1
        0x0001ee6e:    9105        ..      STR      r1,[sp,#0x14]
        0x0001ee70:    b148        H.      CBZ      r0,0x1ee86 ; uint64_to_str + 122
        0x0001ee72:    e7ff        ..      B        0x1ee74 ; uint64_to_str + 104
        0x0001ee74:    9905        ..      LDR      r1,[sp,#0x14]
        0x0001ee76:    f10d001b    ....    ADD      r0,sp,#0x1b
        0x0001ee7a:    5c40        @\      LDRB     r0,[r0,r1]
        0x0001ee7c:    990d        ..      LDR      r1,[sp,#0x34]
        0x0001ee7e:    1c4a        J.      ADDS     r2,r1,#1
        0x0001ee80:    920d        ..      STR      r2,[sp,#0x34]
        0x0001ee82:    7008        .p      STRB     r0,[r1,#0]
        0x0001ee84:    e7f1        ..      B        0x1ee6a ; uint64_to_str + 94
        0x0001ee86:    990d        ..      LDR      r1,[sp,#0x34]
        0x0001ee88:    2000        .       MOVS     r0,#0
        0x0001ee8a:    7008        .p      STRB     r0,[r1,#0]
        0x0001ee8c:    e7ff        ..      B        0x1ee8e ; uint64_to_str + 130
        0x0001ee8e:    9804        ..      LDR      r0,[sp,#0x10]
        0x0001ee90:    b010        ..      ADD      sp,sp,#0x40
        0x0001ee92:    bd80        ..      POP      {r7,pc}
    usbd_control_reset
        0x0001ee94:    f24001d0    @...    MOVW     r1,#0xd0
        0x0001ee98:    f2c10100    ....    MOVT     r1,#0x1000
        0x0001ee9c:    2000        .       MOVS     r0,#0
        0x0001ee9e:    6108        .a      STR      r0,[r1,#0x10]
        0x0001eea0:    60c8        .`      STR      r0,[r1,#0xc]
        0x0001eea2:    6088        .`      STR      r0,[r1,#8]
        0x0001eea4:    6048        H`      STR      r0,[r1,#4]
        0x0001eea6:    6008        .`      STR      r0,[r1,#0]
        0x0001eea8:    4770        pG      BX       lr
        0x0001eeaa:    0000        ..      MOVS     r0,r0
    usbd_control_set_complete_callback
        0x0001eeac:    b081        ..      SUB      sp,sp,#4
        0x0001eeae:    9000        ..      STR      r0,[sp,#0]
        0x0001eeb0:    9800        ..      LDR      r0,[sp,#0]
        0x0001eeb2:    f24001d0    @...    MOVW     r1,#0xd0
        0x0001eeb6:    f2c10100    ....    MOVT     r1,#0x1000
        0x0001eeba:    6108        .a      STR      r0,[r1,#0x10]
        0x0001eebc:    b001        ..      ADD      sp,sp,#4
        0x0001eebe:    4770        pG      BX       lr
    usbd_control_set_request
        0x0001eec0:    b081        ..      SUB      sp,sp,#4
        0x0001eec2:    9000        ..      STR      r0,[sp,#0]
        0x0001eec4:    9900        ..      LDR      r1,[sp,#0]
        0x0001eec6:    6808        .h      LDR      r0,[r1,#0]
        0x0001eec8:    684a        Jh      LDR      r2,[r1,#4]
        0x0001eeca:    f24001d0    @...    MOVW     r1,#0xd0
        0x0001eece:    f2c10100    ....    MOVT     r1,#0x1000
        0x0001eed2:    604a        J`      STR      r2,[r1,#4]
        0x0001eed4:    6008        .`      STR      r0,[r1,#0]
        0x0001eed6:    2000        .       MOVS     r0,#0
        0x0001eed8:    6088        .`      STR      r0,[r1,#8]
        0x0001eeda:    81c8        ..      STRH     r0,[r1,#0xe]
        0x0001eedc:    8188        ..      STRH     r0,[r1,#0xc]
        0x0001eede:    b001        ..      ADD      sp,sp,#4
        0x0001eee0:    4770        pG      BX       lr
        0x0001eee2:    0000        ..      MOVS     r0,r0
    usbd_control_xfer_cb
        0x0001eee4:    b580        ..      PUSH     {r7,lr}
        0x0001eee6:    b086        ..      SUB      sp,sp,#0x18
        0x0001eee8:    f88d0016    ....    STRB     r0,[sp,#0x16]
        0x0001eeec:    f88d1015    ....    STRB     r1,[sp,#0x15]
        0x0001eef0:    f88d2014    ...     STRB     r2,[sp,#0x14]
        0x0001eef4:    9304        ..      STR      r3,[sp,#0x10]
        0x0001eef6:    f89d0015    ....    LDRB     r0,[sp,#0x15]
        0x0001eefa:    f7fff8a7    ....    BL       tu_edpt_dir ; 0x1e04c
        0x0001eefe:    f24001d0    @...    MOVW     r1,#0xd0
        0x0001ef02:    f2c10100    ....    MOVT     r1,#0x1000
        0x0001ef06:    7809        .x      LDRB     r1,[r1,#0]
        0x0001ef08:    ebb01fd1    ....    CMP      r0,r1,LSR #7
        0x0001ef0c:    d046        F.      BEQ      0x1ef9c ; usbd_control_xfer_cb + 184
        0x0001ef0e:    e7ff        ..      B        0x1ef10 ; usbd_control_xfer_cb + 44
        0x0001ef10:    e7ff        ..      B        0x1ef12 ; usbd_control_xfer_cb + 46
        0x0001ef12:    9804        ..      LDR      r0,[sp,#0x10]
        0x0001ef14:    b1e8        ..      CBZ      r0,0x1ef52 ; usbd_control_xfer_cb + 110
        0x0001ef16:    e7ff        ..      B        0x1ef18 ; usbd_control_xfer_cb + 52
        0x0001ef18:    f64f3070    O.p0    MOV      r0,#0xfb70
        0x0001ef1c:    f2c00001    ....    MOVT     r0,#1
        0x0001ef20:    f2400147    @.G.    MOVW     r1,#0x47
        0x0001ef24:    f2c00102    ....    MOVT     r1,#2
        0x0001ef28:    22b1        ."      MOVS     r2,#0xb1
        0x0001ef2a:    f7fcf917    ....    BL       am_util_stdio_printf ; 0x1b15c
        0x0001ef2e:    e7ff        ..      B        0x1ef30 ; usbd_control_xfer_cb + 76
        0x0001ef30:    f64e50f0    N..P    MOV      r0,#0xedf0
        0x0001ef34:    f2ce0000    ....    MOVT     r0,#0xe000
        0x0001ef38:    9003        ..      STR      r0,[sp,#0xc]
        0x0001ef3a:    9803        ..      LDR      r0,[sp,#0xc]
        0x0001ef3c:    6800        .h      LDR      r0,[r0,#0]
        0x0001ef3e:    07c0        ..      LSLS     r0,r0,#31
        0x0001ef40:    b110        ..      CBZ      r0,0x1ef48 ; usbd_control_xfer_cb + 100
        0x0001ef42:    e7ff        ..      B        0x1ef44 ; usbd_control_xfer_cb + 96
        0x0001ef44:    be00        ..      BKPT     #0
        0x0001ef46:    e7ff        ..      B        0x1ef48 ; usbd_control_xfer_cb + 100
        0x0001ef48:    e7ff        ..      B        0x1ef4a ; usbd_control_xfer_cb + 102
        0x0001ef4a:    2000        .       MOVS     r0,#0
        0x0001ef4c:    f88d0017    ....    STRB     r0,[sp,#0x17]
        0x0001ef50:    e070        p.      B        0x1f034 ; usbd_control_xfer_cb + 336
        0x0001ef52:    e7ff        ..      B        0x1ef54 ; usbd_control_xfer_cb + 112
        0x0001ef54:    f2400000    @...    MOVW     r0,#0
        0x0001ef58:    f2c00000    ....    MOVT     r0,#0
        0x0001ef5c:    b148        H.      CBZ      r0,0x1ef72 ; usbd_control_xfer_cb + 142
        0x0001ef5e:    e7ff        ..      B        0x1ef60 ; usbd_control_xfer_cb + 124
        0x0001ef60:    f89d0016    ....    LDRB     r0,[sp,#0x16]
        0x0001ef64:    f24001d0    @...    MOVW     r1,#0xd0
        0x0001ef68:    f2c10100    ....    MOVT     r1,#0x1000
        0x0001ef6c:    f3af8000    ....    NOP.W    
        0x0001ef70:    e7ff        ..      B        0x1ef72 ; usbd_control_xfer_cb + 142
        0x0001ef72:    f24000d0    @...    MOVW     r0,#0xd0
        0x0001ef76:    f2c10000    ....    MOVT     r0,#0x1000
        0x0001ef7a:    6900        .i      LDR      r0,[r0,#0x10]
        0x0001ef7c:    b150        P.      CBZ      r0,0x1ef94 ; usbd_control_xfer_cb + 176
        0x0001ef7e:    e7ff        ..      B        0x1ef80 ; usbd_control_xfer_cb + 156
        0x0001ef80:    f24002d0    @...    MOVW     r2,#0xd0
        0x0001ef84:    f2c10200    ....    MOVT     r2,#0x1000
        0x0001ef88:    6913        .i      LDR      r3,[r2,#0x10]
        0x0001ef8a:    f89d0016    ....    LDRB     r0,[sp,#0x16]
        0x0001ef8e:    2102        .!      MOVS     r1,#2
        0x0001ef90:    4798        .G      BLX      r3
        0x0001ef92:    e7ff        ..      B        0x1ef94 ; usbd_control_xfer_cb + 176
        0x0001ef94:    2001        .       MOVS     r0,#1
        0x0001ef96:    f88d0017    ....    STRB     r0,[sp,#0x17]
        0x0001ef9a:    e04b        K.      B        0x1f034 ; usbd_control_xfer_cb + 336
        0x0001ef9c:    9a04        ..      LDR      r2,[sp,#0x10]
        0x0001ef9e:    f24001d0    @...    MOVW     r1,#0xd0
        0x0001efa2:    f2c10100    ....    MOVT     r1,#0x1000
        0x0001efa6:    89c8        ..      LDRH     r0,[r1,#0xe]
        0x0001efa8:    4410        .D      ADD      r0,r0,r2
        0x0001efaa:    81c8        ..      STRH     r0,[r1,#0xe]
        0x0001efac:    9a04        ..      LDR      r2,[sp,#0x10]
        0x0001efae:    6888        .h      LDR      r0,[r1,#8]
        0x0001efb0:    4410        .D      ADD      r0,r0,r2
        0x0001efb2:    6088        .`      STR      r0,[r1,#8]
        0x0001efb4:    88c8        ..      LDRH     r0,[r1,#6]
        0x0001efb6:    89c9        ..      LDRH     r1,[r1,#0xe]
        0x0001efb8:    4288        .B      CMP      r0,r1
        0x0001efba:    d12c        ,.      BNE      0x1f016 ; usbd_control_xfer_cb + 306
        0x0001efbc:    e7ff        ..      B        0x1efbe ; usbd_control_xfer_cb + 218
        0x0001efbe:    2001        .       MOVS     r0,#1
        0x0001efc0:    f88d000b    ....    STRB     r0,[sp,#0xb]
        0x0001efc4:    f24000d0    @...    MOVW     r0,#0xd0
        0x0001efc8:    f2c10000    ....    MOVT     r0,#0x1000
        0x0001efcc:    6900        .i      LDR      r0,[r0,#0x10]
        0x0001efce:    b188        ..      CBZ      r0,0x1eff4 ; usbd_control_xfer_cb + 272
        0x0001efd0:    e7ff        ..      B        0x1efd2 ; usbd_control_xfer_cb + 238
        0x0001efd2:    f24000d0    @...    MOVW     r0,#0xd0
        0x0001efd6:    f2c10000    ....    MOVT     r0,#0x1000
        0x0001efda:    9001        ..      STR      r0,[sp,#4]
        0x0001efdc:    6900        .i      LDR      r0,[r0,#0x10]
        0x0001efde:    f000f82d    ..-.    BL       usbd_driver_print_control_complete_name ; 0x1f03c
        0x0001efe2:    9a01        ..      LDR      r2,[sp,#4]
        0x0001efe4:    6913        .i      LDR      r3,[r2,#0x10]
        0x0001efe6:    f89d0016    ....    LDRB     r0,[sp,#0x16]
        0x0001efea:    2101        .!      MOVS     r1,#1
        0x0001efec:    4798        .G      BLX      r3
        0x0001efee:    f88d000b    ....    STRB     r0,[sp,#0xb]
        0x0001eff2:    e7ff        ..      B        0x1eff4 ; usbd_control_xfer_cb + 272
        0x0001eff4:    f89d000b    ....    LDRB     r0,[sp,#0xb]
        0x0001eff8:    07c0        ..      LSLS     r0,r0,#31
        0x0001effa:    b958        X.      CBNZ     r0,0x1f014 ; usbd_control_xfer_cb + 304
        0x0001effc:    e7ff        ..      B        0x1effe ; usbd_control_xfer_cb + 282
        0x0001effe:    f89d0016    ....    LDRB     r0,[sp,#0x16]
        0x0001f002:    2100        .!      MOVS     r1,#0
        0x0001f004:    f7fcfd6c    ..l.    BL       dcd_edpt_stall ; 0x1bae0
        0x0001f008:    f89d0016    ....    LDRB     r0,[sp,#0x16]
        0x0001f00c:    2180        .!      MOVS     r1,#0x80
        0x0001f00e:    f7fcfd67    ..g.    BL       dcd_edpt_stall ; 0x1bae0
        0x0001f012:    e7ff        ..      B        0x1f014 ; usbd_control_xfer_cb + 304
        0x0001f014:    e00a        ..      B        0x1f02c ; usbd_control_xfer_cb + 328
        0x0001f016:    f89d0016    ....    LDRB     r0,[sp,#0x16]
        0x0001f01a:    2100        .!      MOVS     r1,#0
        0x0001f01c:    f7fcfd60    ..`.    BL       dcd_edpt_stall ; 0x1bae0
        0x0001f020:    f89d0016    ....    LDRB     r0,[sp,#0x16]
        0x0001f024:    2180        .!      MOVS     r1,#0x80
        0x0001f026:    f7fcfd5b    ..[.    BL       dcd_edpt_stall ; 0x1bae0
        0x0001f02a:    e7ff        ..      B        0x1f02c ; usbd_control_xfer_cb + 328
        0x0001f02c:    2001        .       MOVS     r0,#1
        0x0001f02e:    f88d0017    ....    STRB     r0,[sp,#0x17]
        0x0001f032:    e7ff        ..      B        0x1f034 ; usbd_control_xfer_cb + 336
        0x0001f034:    f89d0017    ....    LDRB     r0,[sp,#0x17]
        0x0001f038:    b006        ..      ADD      sp,sp,#0x18
        0x0001f03a:    bd80        ..      POP      {r7,pc}
    usbd_driver_print_control_complete_name
        0x0001f03c:    b580        ..      PUSH     {r7,lr}
        0x0001f03e:    b084        ..      SUB      sp,sp,#0x10
        0x0001f040:    9003        ..      STR      r0,[sp,#0xc]
        0x0001f042:    2000        .       MOVS     r0,#0
        0x0001f044:    f88d000b    ....    STRB     r0,[sp,#0xb]
        0x0001f048:    e7ff        ..      B        0x1f04a ; usbd_driver_print_control_complete_name + 14
        0x0001f04a:    f89d000b    ....    LDRB     r0,[sp,#0xb]
        0x0001f04e:    f24001cc    @...    MOVW     r1,#0xcc
        0x0001f052:    f2c10100    ....    MOVT     r1,#0x1000
        0x0001f056:    7809        .x      LDRB     r1,[r1,#0]
        0x0001f058:    3101        .1      ADDS     r1,#1
        0x0001f05a:    4288        .B      CMP      r0,r1
        0x0001f05c:    da1b        ..      BGE      0x1f096 ; usbd_driver_print_control_complete_name + 90
        0x0001f05e:    e7ff        ..      B        0x1f060 ; usbd_driver_print_control_complete_name + 36
        0x0001f060:    f89d000b    ....    LDRB     r0,[sp,#0xb]
        0x0001f064:    f7fdf9d8    ....    BL       get_driver ; 0x1c418
        0x0001f068:    9001        ..      STR      r0,[sp,#4]
        0x0001f06a:    9801        ..      LDR      r0,[sp,#4]
        0x0001f06c:    6900        .i      LDR      r0,[r0,#0x10]
        0x0001f06e:    9903        ..      LDR      r1,[sp,#0xc]
        0x0001f070:    4288        .B      CMP      r0,r1
        0x0001f072:    d109        ..      BNE      0x1f088 ; usbd_driver_print_control_complete_name + 76
        0x0001f074:    e7ff        ..      B        0x1f076 ; usbd_driver_print_control_complete_name + 58
        0x0001f076:    9801        ..      LDR      r0,[sp,#4]
        0x0001f078:    6801        .h      LDR      r1,[r0,#0]
        0x0001f07a:    f64f5006    O..P    MOV      r0,#0xfd06
        0x0001f07e:    f2c00001    ....    MOVT     r0,#1
        0x0001f082:    f7fcf86b    ..k.    BL       am_util_stdio_printf ; 0x1b15c
        0x0001f086:    e006        ..      B        0x1f096 ; usbd_driver_print_control_complete_name + 90
        0x0001f088:    e7ff        ..      B        0x1f08a ; usbd_driver_print_control_complete_name + 78
        0x0001f08a:    f89d000b    ....    LDRB     r0,[sp,#0xb]
        0x0001f08e:    3001        .0      ADDS     r0,#1
        0x0001f090:    f88d000b    ....    STRB     r0,[sp,#0xb]
        0x0001f094:    e7d9        ..      B        0x1f04a ; usbd_driver_print_control_complete_name + 14
        0x0001f096:    b004        ..      ADD      sp,sp,#0x10
        0x0001f098:    bd80        ..      POP      {r7,pc}
        0x0001f09a:    0000        ..      MOVS     r0,r0
    usbd_edpt_claim
        0x0001f09c:    b580        ..      PUSH     {r7,lr}
        0x0001f09e:    b084        ..      SUB      sp,sp,#0x10
        0x0001f0a0:    f88d000f    ....    STRB     r0,[sp,#0xf]
        0x0001f0a4:    f88d100e    ....    STRB     r1,[sp,#0xe]
        0x0001f0a8:    f89d000e    ....    LDRB     r0,[sp,#0xe]
        0x0001f0ac:    f7feffe0    ....    BL       tu_edpt_number ; 0x1e070
        0x0001f0b0:    f88d000d    ....    STRB     r0,[sp,#0xd]
        0x0001f0b4:    f89d000e    ....    LDRB     r0,[sp,#0xe]
        0x0001f0b8:    f7feffc0    ....    BL       tu_edpt_dir ; 0x1e03c
        0x0001f0bc:    f88d000c    ....    STRB     r0,[sp,#0xc]
        0x0001f0c0:    f89d100d    ....    LDRB     r1,[sp,#0xd]
        0x0001f0c4:    f24010b0    @...    MOVW     r0,#0x1b0
        0x0001f0c8:    f2c10000    ....    MOVT     r0,#0x1000
        0x0001f0cc:    eb000041    ..A.    ADD      r0,r0,r1,LSL #1
        0x0001f0d0:    f89d100c    ....    LDRB     r1,[sp,#0xc]
        0x0001f0d4:    4408        .D      ADD      r0,r0,r1
        0x0001f0d6:    f8901023    ..#.    LDRB     r1,[r0,#0x23]
        0x0001f0da:    2000        .       MOVS     r0,#0
        0x0001f0dc:    07c9        ..      LSLS     r1,r1,#31
        0x0001f0de:    9001        ..      STR      r0,[sp,#4]
        0x0001f0e0:    b991        ..      CBNZ     r1,0x1f108 ; usbd_edpt_claim + 108
        0x0001f0e2:    e7ff        ..      B        0x1f0e4 ; usbd_edpt_claim + 72
        0x0001f0e4:    f89d100d    ....    LDRB     r1,[sp,#0xd]
        0x0001f0e8:    f24010b0    @...    MOVW     r0,#0x1b0
        0x0001f0ec:    f2c10000    ....    MOVT     r0,#0x1000
        0x0001f0f0:    eb000041    ..A.    ADD      r0,r0,r1,LSL #1
        0x0001f0f4:    f89d100c    ....    LDRB     r1,[sp,#0xc]
        0x0001f0f8:    4408        .D      ADD      r0,r0,r1
        0x0001f0fa:    f8901023    ..#.    LDRB     r1,[r0,#0x23]
        0x0001f0fe:    2001        .       MOVS     r0,#1
        0x0001f100:    ea200091     ...    BIC      r0,r0,r1,LSR #2
        0x0001f104:    9001        ..      STR      r0,[sp,#4]
        0x0001f106:    e7ff        ..      B        0x1f108 ; usbd_edpt_claim + 108
        0x0001f108:    9801        ..      LDR      r0,[sp,#4]
        0x0001f10a:    f0000001    ....    AND      r0,r0,#1
        0x0001f10e:    f88d000b    ....    STRB     r0,[sp,#0xb]
        0x0001f112:    f89d000b    ....    LDRB     r0,[sp,#0xb]
        0x0001f116:    07c0        ..      LSLS     r0,r0,#31
        0x0001f118:    b190        ..      CBZ      r0,0x1f140 ; usbd_edpt_claim + 164
        0x0001f11a:    e7ff        ..      B        0x1f11c ; usbd_edpt_claim + 128
        0x0001f11c:    f89d100d    ....    LDRB     r1,[sp,#0xd]
        0x0001f120:    f24010b0    @...    MOVW     r0,#0x1b0
        0x0001f124:    f2c10000    ....    MOVT     r0,#0x1000
        0x0001f128:    eb000041    ..A.    ADD      r0,r0,r1,LSL #1
        0x0001f12c:    f89d100c    ....    LDRB     r1,[sp,#0xc]
        0x0001f130:    4401        .D      ADD      r1,r1,r0
        0x0001f132:    f8910023    ..#.    LDRB     r0,[r1,#0x23]
        0x0001f136:    f0400004    @...    ORR      r0,r0,#4
        0x0001f13a:    f8810023    ..#.    STRB     r0,[r1,#0x23]
        0x0001f13e:    e7ff        ..      B        0x1f140 ; usbd_edpt_claim + 164
        0x0001f140:    f89d000b    ....    LDRB     r0,[sp,#0xb]
        0x0001f144:    f0000001    ....    AND      r0,r0,#1
        0x0001f148:    b004        ..      ADD      sp,sp,#0x10
        0x0001f14a:    bd80        ..      POP      {r7,pc}
    usbd_edpt_clear_stall
        0x0001f14c:    b580        ..      PUSH     {r7,lr}
        0x0001f14e:    b082        ..      SUB      sp,sp,#8
        0x0001f150:    f88d0007    ....    STRB     r0,[sp,#7]
        0x0001f154:    f88d1006    ....    STRB     r1,[sp,#6]
        0x0001f158:    f89d0006    ....    LDRB     r0,[sp,#6]
        0x0001f15c:    f7feff88    ....    BL       tu_edpt_number ; 0x1e070
        0x0001f160:    f88d0005    ....    STRB     r0,[sp,#5]
        0x0001f164:    f89d0006    ....    LDRB     r0,[sp,#6]
        0x0001f168:    f7feff68    ..h.    BL       tu_edpt_dir ; 0x1e03c
        0x0001f16c:    f88d0004    ....    STRB     r0,[sp,#4]
        0x0001f170:    f89d1005    ....    LDRB     r1,[sp,#5]
        0x0001f174:    f24010b0    @...    MOVW     r0,#0x1b0
        0x0001f178:    f2c10000    ....    MOVT     r0,#0x1000
        0x0001f17c:    eb000041    ..A.    ADD      r0,r0,r1,LSL #1
        0x0001f180:    f89d1004    ....    LDRB     r1,[sp,#4]
        0x0001f184:    4408        .D      ADD      r0,r0,r1
        0x0001f186:    f8900023    ..#.    LDRB     r0,[r0,#0x23]
        0x0001f18a:    0840        @.      LSRS     r0,r0,#1
        0x0001f18c:    07c0        ..      LSLS     r0,r0,#31
        0x0001f18e:    b340        @.      CBZ      r0,0x1f1e2 ; usbd_edpt_clear_stall + 150
        0x0001f190:    e7ff        ..      B        0x1f192 ; usbd_edpt_clear_stall + 70
        0x0001f192:    f89d1006    ....    LDRB     r1,[sp,#6]
        0x0001f196:    f64f4099    O..@    MOV      r0,#0xfc99
        0x0001f19a:    f2c00001    ....    MOVT     r0,#1
        0x0001f19e:    f7fbffdd    ....    BL       am_util_stdio_printf ; 0x1b15c
        0x0001f1a2:    f89d0007    ....    LDRB     r0,[sp,#7]
        0x0001f1a6:    f89d1006    ....    LDRB     r1,[sp,#6]
        0x0001f1aa:    f7fcfc69    ..i.    BL       dcd_edpt_clear_stall ; 0x1ba80
        0x0001f1ae:    f89d1005    ....    LDRB     r1,[sp,#5]
        0x0001f1b2:    f24010b0    @...    MOVW     r0,#0x1b0
        0x0001f1b6:    f2c10000    ....    MOVT     r0,#0x1000
        0x0001f1ba:    3023        #0      ADDS     r0,r0,#0x23
        0x0001f1bc:    eb000241    ..A.    ADD      r2,r0,r1,LSL #1
        0x0001f1c0:    f89d3004    ...0    LDRB     r3,[sp,#4]
        0x0001f1c4:    5cd1        .\      LDRB     r1,[r2,r3]
        0x0001f1c6:    f00101fd    ....    AND      r1,r1,#0xfd
        0x0001f1ca:    54d1        .T      STRB     r1,[r2,r3]
        0x0001f1cc:    f89d1005    ....    LDRB     r1,[sp,#5]
        0x0001f1d0:    eb000141    ..A.    ADD      r1,r0,r1,LSL #1
        0x0001f1d4:    f89d2004    ...     LDRB     r2,[sp,#4]
        0x0001f1d8:    5c88        .\      LDRB     r0,[r1,r2]
        0x0001f1da:    f00000fe    ....    AND      r0,r0,#0xfe
        0x0001f1de:    5488        .T      STRB     r0,[r1,r2]
        0x0001f1e0:    e7ff        ..      B        0x1f1e2 ; usbd_edpt_clear_stall + 150
        0x0001f1e2:    b002        ..      ADD      sp,sp,#8
        0x0001f1e4:    bd80        ..      POP      {r7,pc}
        0x0001f1e6:    0000        ..      MOVS     r0,r0
    usbd_edpt_open
        0x0001f1e8:    b580        ..      PUSH     {r7,lr}
        0x0001f1ea:    b084        ..      SUB      sp,sp,#0x10
        0x0001f1ec:    f88d000e    ....    STRB     r0,[sp,#0xe]
        0x0001f1f0:    9102        ..      STR      r1,[sp,#8]
        0x0001f1f2:    e7ff        ..      B        0x1f1f4 ; usbd_edpt_open + 12
        0x0001f1f4:    9802        ..      LDR      r0,[sp,#8]
        0x0001f1f6:    7880        .x      LDRB     r0,[r0,#2]
        0x0001f1f8:    f7feff3a    ..:.    BL       tu_edpt_number ; 0x1e070
        0x0001f1fc:    2808        .(      CMP      r0,#8
        0x0001f1fe:    db1e        ..      BLT      0x1f23e ; usbd_edpt_open + 86
        0x0001f200:    e7ff        ..      B        0x1f202 ; usbd_edpt_open + 26
        0x0001f202:    f64f3070    O.p0    MOV      r0,#0xfb70
        0x0001f206:    f2c00001    ....    MOVT     r0,#1
        0x0001f20a:    f64f7105    O..q    MOV      r1,#0xff05
        0x0001f20e:    f2c00101    ....    MOVT     r1,#1
        0x0001f212:    f24042c5    @..B    MOV      r2,#0x4c5
        0x0001f216:    f7fbffa1    ....    BL       am_util_stdio_printf ; 0x1b15c
        0x0001f21a:    e7ff        ..      B        0x1f21c ; usbd_edpt_open + 52
        0x0001f21c:    f64e50f0    N..P    MOV      r0,#0xedf0
        0x0001f220:    f2ce0000    ....    MOVT     r0,#0xe000
        0x0001f224:    9001        ..      STR      r0,[sp,#4]
        0x0001f226:    9801        ..      LDR      r0,[sp,#4]
        0x0001f228:    6800        .h      LDR      r0,[r0,#0]
        0x0001f22a:    07c0        ..      LSLS     r0,r0,#31
        0x0001f22c:    b110        ..      CBZ      r0,0x1f234 ; usbd_edpt_open + 76
        0x0001f22e:    e7ff        ..      B        0x1f230 ; usbd_edpt_open + 72
        0x0001f230:    be00        ..      BKPT     #0
        0x0001f232:    e7ff        ..      B        0x1f234 ; usbd_edpt_open + 76
        0x0001f234:    e7ff        ..      B        0x1f236 ; usbd_edpt_open + 78
        0x0001f236:    2000        .       MOVS     r0,#0
        0x0001f238:    f88d000f    ....    STRB     r0,[sp,#0xf]
        0x0001f23c:    e032        2.      B        0x1f2a4 ; usbd_edpt_open + 188
        0x0001f23e:    e7ff        ..      B        0x1f240 ; usbd_edpt_open + 88
        0x0001f240:    e7ff        ..      B        0x1f242 ; usbd_edpt_open + 90
        0x0001f242:    9802        ..      LDR      r0,[sp,#8]
        0x0001f244:    f24011b0    @...    MOVW     r1,#0x1b0
        0x0001f248:    f2c10100    ....    MOVT     r1,#0x1000
        0x0001f24c:    7889        .x      LDRB     r1,[r1,#2]
        0x0001f24e:    f7feff21    ..!.    BL       tu_edpt_validate ; 0x1e094
        0x0001f252:    b9f0        ..      CBNZ     r0,0x1f292 ; usbd_edpt_open + 170
        0x0001f254:    e7ff        ..      B        0x1f256 ; usbd_edpt_open + 110
        0x0001f256:    f64f3070    O.p0    MOV      r0,#0xfb70
        0x0001f25a:    f2c00001    ....    MOVT     r0,#1
        0x0001f25e:    f64f7105    O..q    MOV      r1,#0xff05
        0x0001f262:    f2c00101    ....    MOVT     r1,#1
        0x0001f266:    f24042c6    @..B    MOV      r2,#0x4c6
        0x0001f26a:    f7fbff77    ..w.    BL       am_util_stdio_printf ; 0x1b15c
        0x0001f26e:    e7ff        ..      B        0x1f270 ; usbd_edpt_open + 136
        0x0001f270:    f64e50f0    N..P    MOV      r0,#0xedf0
        0x0001f274:    f2ce0000    ....    MOVT     r0,#0xe000
        0x0001f278:    9000        ..      STR      r0,[sp,#0]
        0x0001f27a:    9800        ..      LDR      r0,[sp,#0]
        0x0001f27c:    6800        .h      LDR      r0,[r0,#0]
        0x0001f27e:    07c0        ..      LSLS     r0,r0,#31
        0x0001f280:    b110        ..      CBZ      r0,0x1f288 ; usbd_edpt_open + 160
        0x0001f282:    e7ff        ..      B        0x1f284 ; usbd_edpt_open + 156
        0x0001f284:    be00        ..      BKPT     #0
        0x0001f286:    e7ff        ..      B        0x1f288 ; usbd_edpt_open + 160
        0x0001f288:    e7ff        ..      B        0x1f28a ; usbd_edpt_open + 162
        0x0001f28a:    2000        .       MOVS     r0,#0
        0x0001f28c:    f88d000f    ....    STRB     r0,[sp,#0xf]
        0x0001f290:    e008        ..      B        0x1f2a4 ; usbd_edpt_open + 188
        0x0001f292:    e7ff        ..      B        0x1f294 ; usbd_edpt_open + 172
        0x0001f294:    f89d000e    ....    LDRB     r0,[sp,#0xe]
        0x0001f298:    9902        ..      LDR      r1,[sp,#8]
        0x0001f29a:    f7fcfc09    ....    BL       dcd_edpt_open ; 0x1bab0
        0x0001f29e:    f88d000f    ....    STRB     r0,[sp,#0xf]
        0x0001f2a2:    e7ff        ..      B        0x1f2a4 ; usbd_edpt_open + 188
        0x0001f2a4:    f89d000f    ....    LDRB     r0,[sp,#0xf]
        0x0001f2a8:    b004        ..      ADD      sp,sp,#0x10
        0x0001f2aa:    bd80        ..      POP      {r7,pc}
    usbd_edpt_stall
        0x0001f2ac:    b580        ..      PUSH     {r7,lr}
        0x0001f2ae:    b082        ..      SUB      sp,sp,#8
        0x0001f2b0:    f88d0007    ....    STRB     r0,[sp,#7]
        0x0001f2b4:    f88d1006    ....    STRB     r1,[sp,#6]
        0x0001f2b8:    f89d0006    ....    LDRB     r0,[sp,#6]
        0x0001f2bc:    f7fefed8    ....    BL       tu_edpt_number ; 0x1e070
        0x0001f2c0:    f88d0005    ....    STRB     r0,[sp,#5]
        0x0001f2c4:    f89d0006    ....    LDRB     r0,[sp,#6]
        0x0001f2c8:    f7fefeb8    ....    BL       tu_edpt_dir ; 0x1e03c
        0x0001f2cc:    f88d0004    ....    STRB     r0,[sp,#4]
        0x0001f2d0:    f89d1005    ....    LDRB     r1,[sp,#5]
        0x0001f2d4:    f24010b0    @...    MOVW     r0,#0x1b0
        0x0001f2d8:    f2c10000    ....    MOVT     r0,#0x1000
        0x0001f2dc:    eb000041    ..A.    ADD      r0,r0,r1,LSL #1
        0x0001f2e0:    f89d1004    ....    LDRB     r1,[sp,#4]
        0x0001f2e4:    4408        .D      ADD      r0,r0,r1
        0x0001f2e6:    f8900023    ..#.    LDRB     r0,[r0,#0x23]
        0x0001f2ea:    0840        @.      LSRS     r0,r0,#1
        0x0001f2ec:    07c0        ..      LSLS     r0,r0,#31
        0x0001f2ee:    bb40        @.      CBNZ     r0,0x1f342 ; usbd_edpt_stall + 150
        0x0001f2f0:    e7ff        ..      B        0x1f2f2 ; usbd_edpt_stall + 70
        0x0001f2f2:    f89d1006    ....    LDRB     r1,[sp,#6]
        0x0001f2f6:    f64f4085    O..@    MOV      r0,#0xfc85
        0x0001f2fa:    f2c00001    ....    MOVT     r0,#1
        0x0001f2fe:    f7fbff2d    ..-.    BL       am_util_stdio_printf ; 0x1b15c
        0x0001f302:    f89d0007    ....    LDRB     r0,[sp,#7]
        0x0001f306:    f89d1006    ....    LDRB     r1,[sp,#6]
        0x0001f30a:    f7fcfbe9    ....    BL       dcd_edpt_stall ; 0x1bae0
        0x0001f30e:    f89d1005    ....    LDRB     r1,[sp,#5]
        0x0001f312:    f24010b0    @...    MOVW     r0,#0x1b0
        0x0001f316:    f2c10000    ....    MOVT     r0,#0x1000
        0x0001f31a:    3023        #0      ADDS     r0,r0,#0x23
        0x0001f31c:    eb000241    ..A.    ADD      r2,r0,r1,LSL #1
        0x0001f320:    f89d3004    ...0    LDRB     r3,[sp,#4]
        0x0001f324:    5cd1        .\      LDRB     r1,[r2,r3]
        0x0001f326:    f0410102    A...    ORR      r1,r1,#2
        0x0001f32a:    54d1        .T      STRB     r1,[r2,r3]
        0x0001f32c:    f89d1005    ....    LDRB     r1,[sp,#5]
        0x0001f330:    eb000141    ..A.    ADD      r1,r0,r1,LSL #1
        0x0001f334:    f89d2004    ...     LDRB     r2,[sp,#4]
        0x0001f338:    5c88        .\      LDRB     r0,[r1,r2]
        0x0001f33a:    f0400001    @...    ORR      r0,r0,#1
        0x0001f33e:    5488        .T      STRB     r0,[r1,r2]
        0x0001f340:    e7ff        ..      B        0x1f342 ; usbd_edpt_stall + 150
        0x0001f342:    b002        ..      ADD      sp,sp,#8
        0x0001f344:    bd80        ..      POP      {r7,pc}
        0x0001f346:    0000        ..      MOVS     r0,r0
    usbd_edpt_stalled
        0x0001f348:    b580        ..      PUSH     {r7,lr}
        0x0001f34a:    b082        ..      SUB      sp,sp,#8
        0x0001f34c:    f88d0007    ....    STRB     r0,[sp,#7]
        0x0001f350:    f88d1006    ....    STRB     r1,[sp,#6]
        0x0001f354:    f89d0006    ....    LDRB     r0,[sp,#6]
        0x0001f358:    f7fefe8a    ....    BL       tu_edpt_number ; 0x1e070
        0x0001f35c:    f88d0005    ....    STRB     r0,[sp,#5]
        0x0001f360:    f89d0006    ....    LDRB     r0,[sp,#6]
        0x0001f364:    f7fefe6a    ..j.    BL       tu_edpt_dir ; 0x1e03c
        0x0001f368:    f88d0004    ....    STRB     r0,[sp,#4]
        0x0001f36c:    f89d1005    ....    LDRB     r1,[sp,#5]
        0x0001f370:    f24010b0    @...    MOVW     r0,#0x1b0
        0x0001f374:    f2c10000    ....    MOVT     r0,#0x1000
        0x0001f378:    eb000041    ..A.    ADD      r0,r0,r1,LSL #1
        0x0001f37c:    f89d1004    ....    LDRB     r1,[sp,#4]
        0x0001f380:    4408        .D      ADD      r0,r0,r1
        0x0001f382:    f8900023    ..#.    LDRB     r0,[r0,#0x23]
        0x0001f386:    f3c00040    ..@.    UBFX     r0,r0,#1,#1
        0x0001f38a:    b002        ..      ADD      sp,sp,#8
        0x0001f38c:    bd80        ..      POP      {r7,pc}
        0x0001f38e:    0000        ..      MOVS     r0,r0
    usbd_edpt_xfer
        0x0001f390:    b580        ..      PUSH     {r7,lr}
        0x0001f392:    b086        ..      SUB      sp,sp,#0x18
        0x0001f394:    f88d0016    ....    STRB     r0,[sp,#0x16]
        0x0001f398:    f88d1015    ....    STRB     r1,[sp,#0x15]
        0x0001f39c:    9204        ..      STR      r2,[sp,#0x10]
        0x0001f39e:    f8ad300e    ...0    STRH     r3,[sp,#0xe]
        0x0001f3a2:    f89d0015    ....    LDRB     r0,[sp,#0x15]
        0x0001f3a6:    f7fefe63    ..c.    BL       tu_edpt_number ; 0x1e070
        0x0001f3aa:    f88d000d    ....    STRB     r0,[sp,#0xd]
        0x0001f3ae:    f89d0015    ....    LDRB     r0,[sp,#0x15]
        0x0001f3b2:    f7fefe43    ..C.    BL       tu_edpt_dir ; 0x1e03c
        0x0001f3b6:    f88d000c    ....    STRB     r0,[sp,#0xc]
        0x0001f3ba:    f89d1015    ....    LDRB     r1,[sp,#0x15]
        0x0001f3be:    f8bd200e    ...     LDRH     r2,[sp,#0xe]
        0x0001f3c2:    f64f4036    O.6@    MOV      r0,#0xfc36
        0x0001f3c6:    f2c00001    ....    MOVT     r0,#1
        0x0001f3ca:    f7fbfec7    ....    BL       am_util_stdio_printf ; 0x1b15c
        0x0001f3ce:    e7ff        ..      B        0x1f3d0 ; usbd_edpt_xfer + 64
        0x0001f3d0:    f89d100d    ....    LDRB     r1,[sp,#0xd]
        0x0001f3d4:    f24010b0    @...    MOVW     r0,#0x1b0
        0x0001f3d8:    f2c10000    ....    MOVT     r0,#0x1000
        0x0001f3dc:    eb000041    ..A.    ADD      r0,r0,r1,LSL #1
        0x0001f3e0:    f89d100c    ....    LDRB     r1,[sp,#0xc]
        0x0001f3e4:    4408        .D      ADD      r0,r0,r1
        0x0001f3e6:    f8900023    ..#.    LDRB     r0,[r0,#0x23]
        0x0001f3ea:    07c0        ..      LSLS     r0,r0,#31
        0x0001f3ec:    b1f0        ..      CBZ      r0,0x1f42c ; usbd_edpt_xfer + 156
        0x0001f3ee:    e7ff        ..      B        0x1f3f0 ; usbd_edpt_xfer + 96
        0x0001f3f0:    f64f3070    O.p0    MOV      r0,#0xfb70
        0x0001f3f4:    f2c00001    ....    MOVT     r0,#1
        0x0001f3f8:    f64f7138    O.8q    MOV      r1,#0xff38
        0x0001f3fc:    f2c00101    ....    MOVT     r1,#1
        0x0001f400:    f240520d    @..R    MOV      r2,#0x50d
        0x0001f404:    f7fbfeaa    ....    BL       am_util_stdio_printf ; 0x1b15c
        0x0001f408:    e7ff        ..      B        0x1f40a ; usbd_edpt_xfer + 122
        0x0001f40a:    f64e50f0    N..P    MOV      r0,#0xedf0
        0x0001f40e:    f2ce0000    ....    MOVT     r0,#0xe000
        0x0001f412:    9002        ..      STR      r0,[sp,#8]
        0x0001f414:    9802        ..      LDR      r0,[sp,#8]
        0x0001f416:    6800        .h      LDR      r0,[r0,#0]
        0x0001f418:    07c0        ..      LSLS     r0,r0,#31
        0x0001f41a:    b110        ..      CBZ      r0,0x1f422 ; usbd_edpt_xfer + 146
        0x0001f41c:    e7ff        ..      B        0x1f41e ; usbd_edpt_xfer + 142
        0x0001f41e:    be00        ..      BKPT     #0
        0x0001f420:    e7ff        ..      B        0x1f422 ; usbd_edpt_xfer + 146
        0x0001f422:    e7ff        ..      B        0x1f424 ; usbd_edpt_xfer + 148
        0x0001f424:    2000        .       MOVS     r0,#0
        0x0001f426:    f88d0017    ....    STRB     r0,[sp,#0x17]
        0x0001f42a:    e051        Q.      B        0x1f4d0 ; usbd_edpt_xfer + 320
        0x0001f42c:    e7ff        ..      B        0x1f42e ; usbd_edpt_xfer + 158
        0x0001f42e:    f89d100d    ....    LDRB     r1,[sp,#0xd]
        0x0001f432:    f24010b0    @...    MOVW     r0,#0x1b0
        0x0001f436:    f2c10000    ....    MOVT     r0,#0x1000
        0x0001f43a:    eb000041    ..A.    ADD      r0,r0,r1,LSL #1
        0x0001f43e:    f89d100c    ....    LDRB     r1,[sp,#0xc]
        0x0001f442:    4401        .D      ADD      r1,r1,r0
        0x0001f444:    f8910023    ..#.    LDRB     r0,[r1,#0x23]
        0x0001f448:    f0400001    @...    ORR      r0,r0,#1
        0x0001f44c:    f8810023    ..#.    STRB     r0,[r1,#0x23]
        0x0001f450:    f89d0016    ....    LDRB     r0,[sp,#0x16]
        0x0001f454:    f89d1015    ....    LDRB     r1,[sp,#0x15]
        0x0001f458:    9a04        ..      LDR      r2,[sp,#0x10]
        0x0001f45a:    f8bd300e    ...0    LDRH     r3,[sp,#0xe]
        0x0001f45e:    f7fcfb51    ..Q.    BL       dcd_edpt_xfer ; 0x1bb04
        0x0001f462:    b120         .      CBZ      r0,0x1f46e ; usbd_edpt_xfer + 222
        0x0001f464:    e7ff        ..      B        0x1f466 ; usbd_edpt_xfer + 214
        0x0001f466:    2001        .       MOVS     r0,#1
        0x0001f468:    f88d0017    ....    STRB     r0,[sp,#0x17]
        0x0001f46c:    e030        0.      B        0x1f4d0 ; usbd_edpt_xfer + 320
        0x0001f46e:    f89d100d    ....    LDRB     r1,[sp,#0xd]
        0x0001f472:    f24010b0    @...    MOVW     r0,#0x1b0
        0x0001f476:    f2c10000    ....    MOVT     r0,#0x1000
        0x0001f47a:    3023        #0      ADDS     r0,r0,#0x23
        0x0001f47c:    eb000241    ..A.    ADD      r2,r0,r1,LSL #1
        0x0001f480:    f89d300c    ...0    LDRB     r3,[sp,#0xc]
        0x0001f484:    5cd1        .\      LDRB     r1,[r2,r3]
        0x0001f486:    f00101fe    ....    AND      r1,r1,#0xfe
        0x0001f48a:    54d1        .T      STRB     r1,[r2,r3]
        0x0001f48c:    f89d100d    ....    LDRB     r1,[sp,#0xd]
        0x0001f490:    eb000141    ..A.    ADD      r1,r0,r1,LSL #1
        0x0001f494:    f89d200c    ...     LDRB     r2,[sp,#0xc]
        0x0001f498:    5c88        .\      LDRB     r0,[r1,r2]
        0x0001f49a:    f00000fb    ....    AND      r0,r0,#0xfb
        0x0001f49e:    5488        .T      STRB     r0,[r1,r2]
        0x0001f4a0:    f64f307e    O.~0    MOV      r0,#0xfb7e
        0x0001f4a4:    f2c00001    ....    MOVT     r0,#1
        0x0001f4a8:    f7fbfe58    ..X.    BL       am_util_stdio_printf ; 0x1b15c
        0x0001f4ac:    e7ff        ..      B        0x1f4ae ; usbd_edpt_xfer + 286
        0x0001f4ae:    f64e50f0    N..P    MOV      r0,#0xedf0
        0x0001f4b2:    f2ce0000    ....    MOVT     r0,#0xe000
        0x0001f4b6:    9001        ..      STR      r0,[sp,#4]
        0x0001f4b8:    9801        ..      LDR      r0,[sp,#4]
        0x0001f4ba:    6800        .h      LDR      r0,[r0,#0]
        0x0001f4bc:    07c0        ..      LSLS     r0,r0,#31
        0x0001f4be:    b110        ..      CBZ      r0,0x1f4c6 ; usbd_edpt_xfer + 310
        0x0001f4c0:    e7ff        ..      B        0x1f4c2 ; usbd_edpt_xfer + 306
        0x0001f4c2:    be00        ..      BKPT     #0
        0x0001f4c4:    e7ff        ..      B        0x1f4c6 ; usbd_edpt_xfer + 310
        0x0001f4c6:    e7ff        ..      B        0x1f4c8 ; usbd_edpt_xfer + 312
        0x0001f4c8:    2000        .       MOVS     r0,#0
        0x0001f4ca:    f88d0017    ....    STRB     r0,[sp,#0x17]
        0x0001f4ce:    e7ff        ..      B        0x1f4d0 ; usbd_edpt_xfer + 320
        0x0001f4d0:    f89d0017    ....    LDRB     r0,[sp,#0x17]
        0x0001f4d4:    b006        ..      ADD      sp,sp,#0x18
        0x0001f4d6:    bd80        ..      POP      {r7,pc}
    usbd_open_edpt_pair
        0x0001f4d8:    b580        ..      PUSH     {r7,lr}
        0x0001f4da:    b088        ..      SUB      sp,sp,#0x20
        0x0001f4dc:    f8ddc02c    ..,.    LDR      r12,[sp,#0x2c]
        0x0001f4e0:    f8ddc028    ..(.    LDR      r12,[sp,#0x28]
        0x0001f4e4:    f88d001e    ....    STRB     r0,[sp,#0x1e]
        0x0001f4e8:    9106        ..      STR      r1,[sp,#0x18]
        0x0001f4ea:    f88d2017    ...     STRB     r2,[sp,#0x17]
        0x0001f4ee:    f88d3016    ...0    STRB     r3,[sp,#0x16]
        0x0001f4f2:    2000        .       MOVS     r0,#0
        0x0001f4f4:    9004        ..      STR      r0,[sp,#0x10]
        0x0001f4f6:    e7ff        ..      B        0x1f4f8 ; usbd_open_edpt_pair + 32
        0x0001f4f8:    9804        ..      LDR      r0,[sp,#0x10]
        0x0001f4fa:    f89d1017    ....    LDRB     r1,[sp,#0x17]
        0x0001f4fe:    4288        .B      CMP      r0,r1
        0x0001f500:    da71        q.      BGE      0x1f5e6 ; usbd_open_edpt_pair + 270
        0x0001f502:    e7ff        ..      B        0x1f504 ; usbd_open_edpt_pair + 44
        0x0001f504:    9806        ..      LDR      r0,[sp,#0x18]
        0x0001f506:    9003        ..      STR      r0,[sp,#0xc]
        0x0001f508:    e7ff        ..      B        0x1f50a ; usbd_open_edpt_pair + 50
        0x0001f50a:    9803        ..      LDR      r0,[sp,#0xc]
        0x0001f50c:    7840        @x      LDRB     r0,[r0,#1]
        0x0001f50e:    2805        .(      CMP      r0,#5
        0x0001f510:    d109        ..      BNE      0x1f526 ; usbd_open_edpt_pair + 78
        0x0001f512:    e7ff        ..      B        0x1f514 ; usbd_open_edpt_pair + 60
        0x0001f514:    f89d0016    ....    LDRB     r0,[sp,#0x16]
        0x0001f518:    9903        ..      LDR      r1,[sp,#0xc]
        0x0001f51a:    78c9        .x      LDRB     r1,[r1,#3]
        0x0001f51c:    f0010103    ....    AND      r1,r1,#3
        0x0001f520:    4288        .B      CMP      r0,r1
        0x0001f522:    d01e        ..      BEQ      0x1f562 ; usbd_open_edpt_pair + 138
        0x0001f524:    e7ff        ..      B        0x1f526 ; usbd_open_edpt_pair + 78
        0x0001f526:    f64f3070    O.p0    MOV      r0,#0xfb70
        0x0001f52a:    f2c00001    ....    MOVT     r0,#1
        0x0001f52e:    f64f7147    O.Gq    MOV      r1,#0xff47
        0x0001f532:    f2c00101    ....    MOVT     r1,#1
        0x0001f536:    f240429f    @..B    MOV      r2,#0x49f
        0x0001f53a:    f7fbfe0f    ....    BL       am_util_stdio_printf ; 0x1b15c
        0x0001f53e:    e7ff        ..      B        0x1f540 ; usbd_open_edpt_pair + 104
        0x0001f540:    f64e50f0    N..P    MOV      r0,#0xedf0
        0x0001f544:    f2ce0000    ....    MOVT     r0,#0xe000
        0x0001f548:    9002        ..      STR      r0,[sp,#8]
        0x0001f54a:    9802        ..      LDR      r0,[sp,#8]
        0x0001f54c:    6800        .h      LDR      r0,[r0,#0]
        0x0001f54e:    07c0        ..      LSLS     r0,r0,#31
        0x0001f550:    b110        ..      CBZ      r0,0x1f558 ; usbd_open_edpt_pair + 128
        0x0001f552:    e7ff        ..      B        0x1f554 ; usbd_open_edpt_pair + 124
        0x0001f554:    be00        ..      BKPT     #0
        0x0001f556:    e7ff        ..      B        0x1f558 ; usbd_open_edpt_pair + 128
        0x0001f558:    e7ff        ..      B        0x1f55a ; usbd_open_edpt_pair + 130
        0x0001f55a:    2000        .       MOVS     r0,#0
        0x0001f55c:    f88d001f    ....    STRB     r0,[sp,#0x1f]
        0x0001f560:    e045        E.      B        0x1f5ee ; usbd_open_edpt_pair + 278
        0x0001f562:    e7ff        ..      B        0x1f564 ; usbd_open_edpt_pair + 140
        0x0001f564:    e7ff        ..      B        0x1f566 ; usbd_open_edpt_pair + 142
        0x0001f566:    f89d001e    ....    LDRB     r0,[sp,#0x1e]
        0x0001f56a:    9903        ..      LDR      r1,[sp,#0xc]
        0x0001f56c:    f7fffe3c    ..<.    BL       usbd_edpt_open ; 0x1f1e8
        0x0001f570:    b9f0        ..      CBNZ     r0,0x1f5b0 ; usbd_open_edpt_pair + 216
        0x0001f572:    e7ff        ..      B        0x1f574 ; usbd_open_edpt_pair + 156
        0x0001f574:    f64f3070    O.p0    MOV      r0,#0xfb70
        0x0001f578:    f2c00001    ....    MOVT     r0,#1
        0x0001f57c:    f64f7147    O.Gq    MOV      r1,#0xff47
        0x0001f580:    f2c00101    ....    MOVT     r1,#1
        0x0001f584:    f44f6294    O..b    MOV      r2,#0x4a0
        0x0001f588:    f7fbfde8    ....    BL       am_util_stdio_printf ; 0x1b15c
        0x0001f58c:    e7ff        ..      B        0x1f58e ; usbd_open_edpt_pair + 182
        0x0001f58e:    f64e50f0    N..P    MOV      r0,#0xedf0
        0x0001f592:    f2ce0000    ....    MOVT     r0,#0xe000
        0x0001f596:    9001        ..      STR      r0,[sp,#4]
        0x0001f598:    9801        ..      LDR      r0,[sp,#4]
        0x0001f59a:    6800        .h      LDR      r0,[r0,#0]
        0x0001f59c:    07c0        ..      LSLS     r0,r0,#31
        0x0001f59e:    b110        ..      CBZ      r0,0x1f5a6 ; usbd_open_edpt_pair + 206
        0x0001f5a0:    e7ff        ..      B        0x1f5a2 ; usbd_open_edpt_pair + 202
        0x0001f5a2:    be00        ..      BKPT     #0
        0x0001f5a4:    e7ff        ..      B        0x1f5a6 ; usbd_open_edpt_pair + 206
        0x0001f5a6:    e7ff        ..      B        0x1f5a8 ; usbd_open_edpt_pair + 208
        0x0001f5a8:    2000        .       MOVS     r0,#0
        0x0001f5aa:    f88d001f    ....    STRB     r0,[sp,#0x1f]
        0x0001f5ae:    e01e        ..      B        0x1f5ee ; usbd_open_edpt_pair + 278
        0x0001f5b0:    e7ff        ..      B        0x1f5b2 ; usbd_open_edpt_pair + 218
        0x0001f5b2:    9803        ..      LDR      r0,[sp,#0xc]
        0x0001f5b4:    7880        .x      LDRB     r0,[r0,#2]
        0x0001f5b6:    f7fefd41    ..A.    BL       tu_edpt_dir ; 0x1e03c
        0x0001f5ba:    2801        .(      CMP      r0,#1
        0x0001f5bc:    d105        ..      BNE      0x1f5ca ; usbd_open_edpt_pair + 242
        0x0001f5be:    e7ff        ..      B        0x1f5c0 ; usbd_open_edpt_pair + 232
        0x0001f5c0:    9803        ..      LDR      r0,[sp,#0xc]
        0x0001f5c2:    7880        .x      LDRB     r0,[r0,#2]
        0x0001f5c4:    990b        ..      LDR      r1,[sp,#0x2c]
        0x0001f5c6:    7008        .p      STRB     r0,[r1,#0]
        0x0001f5c8:    e004        ..      B        0x1f5d4 ; usbd_open_edpt_pair + 252
        0x0001f5ca:    9803        ..      LDR      r0,[sp,#0xc]
        0x0001f5cc:    7880        .x      LDRB     r0,[r0,#2]
        0x0001f5ce:    990a        ..      LDR      r1,[sp,#0x28]
        0x0001f5d0:    7008        .p      STRB     r0,[r1,#0]
        0x0001f5d2:    e7ff        ..      B        0x1f5d4 ; usbd_open_edpt_pair + 252
        0x0001f5d4:    9806        ..      LDR      r0,[sp,#0x18]
        0x0001f5d6:    f7fefcab    ....    BL       tu_desc_next ; 0x1df30
        0x0001f5da:    9006        ..      STR      r0,[sp,#0x18]
        0x0001f5dc:    e7ff        ..      B        0x1f5de ; usbd_open_edpt_pair + 262
        0x0001f5de:    9804        ..      LDR      r0,[sp,#0x10]
        0x0001f5e0:    3001        .0      ADDS     r0,#1
        0x0001f5e2:    9004        ..      STR      r0,[sp,#0x10]
        0x0001f5e4:    e788        ..      B        0x1f4f8 ; usbd_open_edpt_pair + 32
        0x0001f5e6:    2001        .       MOVS     r0,#1
        0x0001f5e8:    f88d001f    ....    STRB     r0,[sp,#0x1f]
        0x0001f5ec:    e7ff        ..      B        0x1f5ee ; usbd_open_edpt_pair + 278
        0x0001f5ee:    f89d001f    ....    LDRB     r0,[sp,#0x1f]
        0x0001f5f2:    b008        ..      ADD      sp,sp,#0x20
        0x0001f5f4:    bd80        ..      POP      {r7,pc}
        0x0001f5f6:    0000        ..      MOVS     r0,r0
    usbd_reset
        0x0001f5f8:    b580        ..      PUSH     {r7,lr}
        0x0001f5fa:    b082        ..      SUB      sp,sp,#8
        0x0001f5fc:    f88d0007    ....    STRB     r0,[sp,#7]
        0x0001f600:    f89d0007    ....    LDRB     r0,[sp,#7]
        0x0001f604:    f7fcf992    ....    BL       configuration_reset ; 0x1b92c
        0x0001f608:    f7fffc44    ..D.    BL       usbd_control_reset ; 0x1ee94
        0x0001f60c:    b002        ..      ADD      sp,sp,#8
        0x0001f60e:    bd80        ..      POP      {r7,pc}
    write_transaction_save
        0x0001f610:    b5b0        ..      PUSH     {r4,r5,r7,lr}
        0x0001f612:    b082        ..      SUB      sp,sp,#8
        0x0001f614:    460d        .F      MOV      r5,r1
        0x0001f616:    4604        .F      MOV      r4,r0
        0x0001f618:    f7f9fe5e    ..^.    BL       am_hal_interrupt_master_disable ; 0x192d8
        0x0001f61c:    9001        ..      STR      r0,[sp,#4]
        0x0001f61e:    f8940054    ..T.    LDRB     r0,[r4,#0x54]
        0x0001f622:    b118        ..      CBZ      r0,0x1f62c ; write_transaction_save + 28
        0x0001f624:    2504        .%      MOVS     r5,#4
        0x0001f626:    f6c00500    ....    MOVT     r5,#0x800
        0x0001f62a:    e017        ..      B        0x1f65c ; write_transaction_save + 76
        0x0001f62c:    2001        .       MOVS     r0,#1
        0x0001f62e:    f8840054    ..T.    STRB     r0,[r4,#0x54]
        0x0001f632:    7828        (x      LDRB     r0,[r5,#0]
        0x0001f634:    6869        ih      LDR      r1,[r5,#4]
        0x0001f636:    f8840058    ..X.    STRB     r0,[r4,#0x58]
        0x0001f63a:    65e1        .e      STR      r1,[r4,#0x5c]
        0x0001f63c:    e9d50102    ....    LDRD     r0,r1,[r5,#8]
        0x0001f640:    e9c40118    ....    STRD     r0,r1,[r4,#0x60]
        0x0001f644:    e9d50104    ....    LDRD     r0,r1,[r5,#0x10]
        0x0001f648:    e9c4011a    ....    STRD     r0,r1,[r4,#0x68]
        0x0001f64c:    e9d50106    ....    LDRD     r0,r1,[r5,#0x18]
        0x0001f650:    2500        .%      MOVS     r5,#0
        0x0001f652:    e9c4011c    ....    STRD     r0,r1,[r4,#0x70]
        0x0001f656:    67a5        .g      STR      r5,[r4,#0x78]
        0x0001f658:    f88450b4    ...P    STRB     r5,[r4,#0xb4]
        0x0001f65c:    9801        ..      LDR      r0,[sp,#4]
        0x0001f65e:    f7f9fe43    ..C.    BL       am_hal_interrupt_master_set ; 0x192e8
        0x0001f662:    4628        (F      MOV      r0,r5
        0x0001f664:    b002        ..      ADD      sp,sp,#8
        0x0001f666:    bdb0        ..      POP      {r4,r5,r7,pc}
    $t
    x$fpl$d2f
    $v0
    __aeabi_d2f
    _d2f
        0x0001f668:    f0214200    !..B    BIC      r2,r1,#0x80000000
        0x0001f66c:    f0014300    ...C    AND      r3,r1,#0x80000000
        0x0001f670:    f1a25260    ..`R    SUB      r2,r2,#0x38000000
        0x0001f674:    f5b21f80    ....    CMP      r2,#0x100000
        0x0001f678:    bf28        (.      IT       CS
        0x0001f67a:    f1d26c7f    ...l    RSBSCS   r12,r2,#0xff00000
        0x0001f67e:    d90b        ..      BLS      0x1f698 ; __aeabi_d2f + 48
        0x0001f680:    ea5f1c00    _...    LSLS     r12,r0,#4
        0x0001f684:    ea4302c2    C...    ORR      r2,r3,r2,LSL #3
        0x0001f688:    eb427050    B.Pp    ADC      r0,r2,r0,LSR #29
        0x0001f68c:    bf18        ..      IT       NE
        0x0001f68e:    4770        pG      BXNE     lr
        0x0001f690:    bf28        (.      IT       CS
        0x0001f692:    f0200001     ...    BICCS    r0,r0,#1
        0x0001f696:    4770        pG      BX       lr
        0x0001f698:    f5b21f80    ....    CMP      r2,#0x100000
        0x0001f69c:    bfbc        ..      ITT      LT
        0x0001f69e:    4618        .F      MOVLT    r0,r3
        0x0001f6a0:    4770        pG      BXLT     lr
        0x0001f6a2:    ea4f0c41    O.A.    LSL      r12,r1,#1
        0x0001f6a6:    f51c1f00    ....    CMN      r12,#0x200000
        0x0001f6aa:    d202        ..      BCS      0x1f6b2 ; __aeabi_d2f + 74
        0x0001f6ac:    4608        .F      MOV      r0,r1
        0x0001f6ae:    f000b867    ..g.    B.W      __fpl_fretinf ; 0x1f780
        0x0001f6b2:    b570        p.      PUSH     {r4-r6,lr}
        0x0001f6b4:    f000f809    ....    BL       __fpl_dnaninf ; 0x1f6ca
    $d
        0x0001f6b8:    89000000    ....    DCD    2298478592
    $t
        0x0001f6bc:    f7ffbff6    ....    B.W      0x1f6ac ; __aeabi_d2f + 68
        0x0001f6c0:    f04f4000    O..@    MOV      r0,#0x80000000
        0x0001f6c4:    f5a00080    ....    SUB      r0,r0,#0x400000
        0x0001f6c8:    4770        pG      BX       lr
    x$fpl$dnaninf
    $v0
    __fpl_dnaninf
        0x0001f6ca:    f10e0e02    ....    ADD      lr,lr,#2
        0x0001f6ce:    f02e0e03    ....    BIC      lr,lr,#3
        0x0001f6d2:    f85e6b04    ^..k    LDR      r6,[lr],#4
        0x0001f6d6:    4236        6B      TST      r6,r6
        0x0001f6d8:    d405        ..      BMI      0x1f6e6 ; __fpl_dnaninf + 28
        0x0001f6da:    2a01        .*      CMP      r2,#1
        0x0001f6dc:    eb430503    C...    ADC      r5,r3,r3
        0x0001f6e0:    f5151f00    ....    CMN      r5,#0x200000
        0x0001f6e4:    d812        ..      BHI      0x1f70c ; __fpl_dnaninf + 66
        0x0001f6e6:    2801        .(      CMP      r0,#1
        0x0001f6e8:    eb410c01    A...    ADC      r12,r1,r1
        0x0001f6ec:    f51c1f00    ....    CMN      r12,#0x200000
        0x0001f6f0:    d80c        ..      BHI      0x1f70c ; __fpl_dnaninf + 66
        0x0001f6f2:    d10e        ..      BNE      0x1f712 ; __fpl_dnaninf + 72
        0x0001f6f4:    ea4f7cd1    O..|    LSR      r12,r1,#31
        0x0001f6f8:    eb0c0c4c    ..L.    ADD      r12,r12,r12,LSL #1
        0x0001f6fc:    f10c0c02    ....    ADD      r12,r12,#2
        0x0001f700:    f5151f00    ....    CMN      r5,#0x200000
        0x0001f704:    bf08        ..      IT       EQ
        0x0001f706:    eb4c7cd3    L..|    ADCEQ    r12,r12,r3,LSR #31
        0x0001f70a:    e004        ..      B        0x1f716 ; __fpl_dnaninf + 76
        0x0001f70c:    f04f0c08    O...    MOV      r12,#8
        0x0001f710:    e001        ..      B        0x1f716 ; __fpl_dnaninf + 76
        0x0001f712:    ea4f7cd3    O..|    LSR      r12,r3,#31
        0x0001f716:    eb0c054c    ..L.    ADD      r5,r12,r12,LSL #1
        0x0001f71a:    fa26f605    &...    LSR      r6,r6,r5
        0x0001f71e:    f0060607    ....    AND      r6,r6,#7
        0x0001f722:    f1b60c04    ....    SUBS     r12,r6,#4
        0x0001f726:    d206        ..      BCS      0x1f736 ; __fpl_dnaninf + 108
        0x0001f728:    eb0e0c86    ....    ADD      r12,lr,r6,LSL #2
        0x0001f72c:    e8bd4070    ..p@    POP      {r4-r6,lr}
        0x0001f730:    f04c0c01    L...    ORR      r12,r12,#1
        0x0001f734:    4760        `G      BX       r12
        0x0001f736:    e8dff00c    ....    TBB      [pc,r12]
    $d
        0x0001f73a:    0b09        ..      DCW    2825
        0x0001f73c:    0202        ..      DCW    514
    $t
        0x0001f73e:    f04f4100    O..A    MOV      r1,#0x80000000
        0x0001f742:    f5a12100    ...!    SUB      r1,r1,#0x80000
        0x0001f746:    f04f0000    O...    MOV      r0,#0
        0x0001f74a:    bd70        p.      POP      {r4-r6,pc}
        0x0001f74c:    4619        .F      MOV      r1,r3
        0x0001f74e:    4610        .F      MOV      r0,r2
        0x0001f750:    2801        .(      CMP      r0,#1
        0x0001f752:    eb510401    Q...    ADCS     r4,r1,r1
        0x0001f756:    bf18        ..      IT       NE
        0x0001f758:    f5d41400    ....    RSBSNE   r4,r4,#0x200000
        0x0001f75c:    bf84        ..      ITT      HI
        0x0001f75e:    2000        .       MOVHI    r0,#0
        0x0001f760:    f0014100    ...A    ANDHI    r1,r1,#0x80000000
        0x0001f764:    bd70        p.      POP      {r4-r6,pc}
    x$fpl$fpinit
    $v0
    _fp_init
        0x0001f766:    eef10a10    ....    VMRS     r0,FPSCR
        0x0001f76a:    f64f71ff    O..q    MOV      r1,#0xffff
        0x0001f76e:    f2c031c0    ...1    MOVT     r1,#0x3c0
        0x0001f772:    ea200001     ...    BIC      r0,r0,r1
        0x0001f776:    f0407040    @.@p    ORR      r0,r0,#0x3000000
        0x0001f77a:    eee10a10    ....    VMSR     FPSCR,r0
    __fplib_config_fpu_vfp
    __fplib_config_pureend_doubles
        0x0001f77e:    4770        pG      BX       lr
    x$fpl$fretinf
    $v0
    __fpl_fretinf
        0x0001f780:    21ff        .!      MOVS     r1,#0xff
        0x0001f782:    ea4150d0    A..P    ORR      r0,r1,r0,LSR #23
        0x0001f786:    05c0        ..      LSLS     r0,r0,#23
        0x0001f788:    4770        pG      BX       lr
    $d.realdata
    .compoundliteral
    x$fpl$usenofp
    __I$use$fp
        0x0001f78a:    0409        ..      DCW    1033
    _tusb_speed_str
        0x0001f78c:    0001ff00    ....    DCD    130816
        0x0001f790:    0001ffd7    ....    DCD    131031
        0x0001f794:    0001fee8    ....    DCD    130792
    _tusb_std_request_str
        0x0001f798:    0001ffa1    ....    DCD    130977
        0x0001f79c:    0001fead    ....    DCD    130733
        0x0001f7a0:    0001fe55    U...    DCD    130645
        0x0001f7a4:    0001febb    ....    DCD    130747
        0x0001f7a8:    0001fe55    U...    DCD    130645
        0x0001f7ac:    0001ff95    ....    DCD    130965
        0x0001f7b0:    0001ff5b    [...    DCD    130907
        0x0001f7b4:    0001ff6a    j...    DCD    130922
        0x0001f7b8:    0001ff14    ....    DCD    130836
        0x0001f7bc:    0001ff26    &...    DCD    130854
        0x0001f7c0:    0001fe7e    ~...    DCD    130686
        0x0001f7c4:    0001fe8c    ....    DCD    130700
        0x0001f7c8:    0001fe9a    ....    DCD    130714
    _usbd_driver
        0x0001f7cc:    0001fe34    4...    DCD    130612
        0x0001f7d0:    0001c961    a...    DCD    117089
        0x0001f7d4:    0001cbe5    ....    DCD    117733
        0x0001f7d8:    0001c96d    m...    DCD    117101
        0x0001f7dc:    0001c515    ....    DCD    115989
        0x0001f7e0:    0001cc01    ....    DCD    117761
        0x0001f7e4:    00000000    ....    DCD    0
    _usbd_event_str
        0x0001f7e8:    0001fe5e    ^...    DCD    130654
        0x0001f7ec:    0001ffac    ....    DCD    130988
        0x0001f7f0:    0001fe3c    <...    DCD    130620
        0x0001f7f4:    0001fe38    8...    DCD    130616
        0x0001f7f8:    0001fe66    f...    DCD    130662
        0x0001f7fc:    0001fea6    ....    DCD    130726
        0x0001f800:    0001fe46    F...    DCD    130630
        0x0001f804:    0001fec7    ....    DCD    130759
        0x0001f808:    0001fef6    ....    DCD    130806
    am_hal_cachectrl_defaults
        0x0001f80c:    0000030e    ....    DCD    782
    am_hal_pwrctrl_peripheral_control
        0x0001f810:    40021004    ...@    DCD    1073876996
        0x0001f814:    00000001    ....    DCD    1
        0x0001f818:    40021008    ...@    DCD    1073877000
        0x0001f81c:    00000001    ....    DCD    1
        0x0001f820:    40021004    ...@    DCD    1073876996
        0x0001f824:    00000002    ....    DCD    2
        0x0001f828:    40021008    ...@    DCD    1073877000
        0x0001f82c:    0000001e    ....    DCD    30
        0x0001f830:    40021004    ...@    DCD    1073876996
        0x0001f834:    00000004    ....    DCD    4
        0x0001f838:    40021008    ...@    DCD    1073877000
        0x0001f83c:    0000001e    ....    DCD    30
        0x0001f840:    40021004    ...@    DCD    1073876996
        0x0001f844:    00000008    ....    DCD    8
        0x0001f848:    40021008    ...@    DCD    1073877000
        0x0001f84c:    0000001e    ....    DCD    30
        0x0001f850:    40021004    ...@    DCD    1073876996
        0x0001f854:    00000010    ....    DCD    16
        0x0001f858:    40021008    ...@    DCD    1073877000
        0x0001f85c:    0000001e    ....    DCD    30
        0x0001f860:    40021004    ...@    DCD    1073876996
        0x0001f864:    00000020     ...    DCD    32
        0x0001f868:    40021008    ...@    DCD    1073877000
        0x0001f86c:    000001e0    ....    DCD    480
        0x0001f870:    40021004    ...@    DCD    1073876996
        0x0001f874:    00000040    @...    DCD    64
        0x0001f878:    40021008    ...@    DCD    1073877000
        0x0001f87c:    000001e0    ....    DCD    480
        0x0001f880:    40021004    ...@    DCD    1073876996
        0x0001f884:    00000080    ....    DCD    128
        0x0001f888:    40021008    ...@    DCD    1073877000
        0x0001f88c:    000001e0    ....    DCD    480
        0x0001f890:    40021004    ...@    DCD    1073876996
        0x0001f894:    00000100    ....    DCD    256
        0x0001f898:    40021008    ...@    DCD    1073877000
        0x0001f89c:    000001e0    ....    DCD    480
        0x0001f8a0:    40021004    ...@    DCD    1073876996
        0x0001f8a4:    00000200    ....    DCD    512
        0x0001f8a8:    40021008    ...@    DCD    1073877000
        0x0001f8ac:    00001e00    ....    DCD    7680
        0x0001f8b0:    40021004    ...@    DCD    1073876996
        0x0001f8b4:    00000400    ....    DCD    1024
        0x0001f8b8:    40021008    ...@    DCD    1073877000
        0x0001f8bc:    00001e00    ....    DCD    7680
        0x0001f8c0:    40021004    ...@    DCD    1073876996
        0x0001f8c4:    00000800    ....    DCD    2048
        0x0001f8c8:    40021008    ...@    DCD    1073877000
        0x0001f8cc:    00001e00    ....    DCD    7680
        0x0001f8d0:    40021004    ...@    DCD    1073876996
        0x0001f8d4:    00001000    ....    DCD    4096
        0x0001f8d8:    40021008    ...@    DCD    1073877000
        0x0001f8dc:    00001e00    ....    DCD    7680
        0x0001f8e0:    40021004    ...@    DCD    1073876996
        0x0001f8e4:    00002000    . ..    DCD    8192
        0x0001f8e8:    40021008    ...@    DCD    1073877000
        0x0001f8ec:    00002000    . ..    DCD    8192
        0x0001f8f0:    40021004    ...@    DCD    1073876996
        0x0001f8f4:    00004000    .@..    DCD    16384
        0x0001f8f8:    40021008    ...@    DCD    1073877000
        0x0001f8fc:    0001c000    ....    DCD    114688
        0x0001f900:    40021004    ...@    DCD    1073876996
        0x0001f904:    00008000    ....    DCD    32768
        0x0001f908:    40021008    ...@    DCD    1073877000
        0x0001f90c:    0001c000    ....    DCD    114688
        0x0001f910:    40021004    ...@    DCD    1073876996
        0x0001f914:    00010000    ....    DCD    65536
        0x0001f918:    40021008    ...@    DCD    1073877000
        0x0001f91c:    0001c000    ....    DCD    114688
        0x0001f920:    40021004    ...@    DCD    1073876996
        0x0001f924:    00020000    ....    DCD    131072
        0x0001f928:    40021008    ...@    DCD    1073877000
        0x0001f92c:    00020000    ....    DCD    131072
        0x0001f930:    40021004    ...@    DCD    1073876996
        0x0001f934:    00040000    ....    DCD    262144
        0x0001f938:    40021008    ...@    DCD    1073877000
        0x0001f93c:    00040000    ....    DCD    262144
        0x0001f940:    40021004    ...@    DCD    1073876996
        0x0001f944:    00080000    ....    DCD    524288
        0x0001f948:    40021008    ...@    DCD    1073877000
        0x0001f94c:    00080000    ....    DCD    524288
        0x0001f950:    40021004    ...@    DCD    1073876996
        0x0001f954:    00100000    ....    DCD    1048576
        0x0001f958:    40021008    ...@    DCD    1073877000
        0x0001f95c:    00100000    ....    DCD    1048576
        0x0001f960:    40021004    ...@    DCD    1073876996
        0x0001f964:    00200000    .. .    DCD    2097152
        0x0001f968:    40021008    ...@    DCD    1073877000
        0x0001f96c:    00200000    .. .    DCD    2097152
        0x0001f970:    40021004    ...@    DCD    1073876996
        0x0001f974:    00400000    ..@.    DCD    4194304
        0x0001f978:    40021008    ...@    DCD    1073877000
        0x0001f97c:    00400000    ..@.    DCD    4194304
        0x0001f980:    40021004    ...@    DCD    1073876996
        0x0001f984:    00800000    ....    DCD    8388608
        0x0001f988:    40021008    ...@    DCD    1073877000
        0x0001f98c:    00800000    ....    DCD    8388608
        0x0001f990:    40021004    ...@    DCD    1073876996
        0x0001f994:    01000000    ....    DCD    16777216
        0x0001f998:    40021008    ...@    DCD    1073877000
        0x0001f99c:    01000000    ....    DCD    16777216
        0x0001f9a0:    4002100c    ...@    DCD    1073877004
        0x0001f9a4:    00000001    ....    DCD    1
        0x0001f9a8:    40021010    ...@    DCD    1073877008
        0x0001f9ac:    000000ff    ....    DCD    255
        0x0001f9b0:    4002100c    ...@    DCD    1073877004
        0x0001f9b4:    00000002    ....    DCD    2
        0x0001f9b8:    40021010    ...@    DCD    1073877008
        0x0001f9bc:    000000ff    ....    DCD    255
        0x0001f9c0:    4002100c    ...@    DCD    1073877004
        0x0001f9c4:    00000004    ....    DCD    4
        0x0001f9c8:    40021010    ...@    DCD    1073877008
        0x0001f9cc:    000000ff    ....    DCD    255
        0x0001f9d0:    4002100c    ...@    DCD    1073877004
        0x0001f9d4:    00000008    ....    DCD    8
        0x0001f9d8:    40021010    ...@    DCD    1073877008
        0x0001f9dc:    000000ff    ....    DCD    255
        0x0001f9e0:    4002100c    ...@    DCD    1073877004
        0x0001f9e4:    00000010    ....    DCD    16
        0x0001f9e8:    40021010    ...@    DCD    1073877008
        0x0001f9ec:    000000ff    ....    DCD    255
        0x0001f9f0:    4002100c    ...@    DCD    1073877004
        0x0001f9f4:    00000020     ...    DCD    32
        0x0001f9f8:    40021010    ...@    DCD    1073877008
        0x0001f9fc:    000000ff    ....    DCD    255
        0x0001fa00:    4002100c    ...@    DCD    1073877004
        0x0001fa04:    00000040    @...    DCD    64
        0x0001fa08:    40021010    ...@    DCD    1073877008
        0x0001fa0c:    000000ff    ....    DCD    255
        0x0001fa10:    4002100c    ...@    DCD    1073877004
        0x0001fa14:    00000080    ....    DCD    128
        0x0001fa18:    40021010    ...@    DCD    1073877008
        0x0001fa1c:    000000ff    ....    DCD    255
        0x0001fa20:    4002100c    ...@    DCD    1073877004
        0x0001fa24:    00000400    ....    DCD    1024
        0x0001fa28:    40021010    ...@    DCD    1073877008
        0x0001fa2c:    00000400    ....    DCD    1024
    g_am_hal_mcuctrl_sku_ssram_size
        0x0001fa30:    01800400    ....    DCD    25166848
        0x0001fa34:    01800800    ....    DCD    25167872
        0x0001fa38:    01800400    ....    DCD    25166848
        0x0001fa3c:    01800800    ....    DCD    25167872
    desc_configuration
        0x0001fa40:    00290209    ..).    DCD    2687497
        0x0001fa44:    80000101    ....    DCD    2147483905
        0x0001fa48:    00040932    2...    DCD    264498
        0x0001fa4c:    00030200    ....    DCD    197120
        0x0001fa50:    21090000    ...!    DCD    554237952
        0x0001fa54:    01000111    ....    DCD    16777489
        0x0001fa58:    07002222    ""..    DCD    117449250
        0x0001fa5c:    40030105    ...@    DCD    1073938693
        0x0001fa60:    05070a00    ....    DCD    84347392
        0x0001fa64:    00400381    ..@.    DCD    4195201
        0x0001fa68:    000a        ..      DCW    10
    desc_device
        0x0001fa6a:    0112        ..      DCW    274
        0x0001fa6c:    00000200    ....    DCD    512
        0x0001fa70:    cafe4000    .@..    DCD    3405660160
        0x0001fa74:    01004004    .@..    DCD    16793604
        0x0001fa78:    01030201    ....    DCD    16974337
    desc_hid_report
        0x0001fa7c:    09ff0006    ....    DCD    167706630
        0x0001fa80:    0901a101    ....    DCD    151101697
        0x0001fa84:    26001502    ...&    DCD    637539586
        0x0001fa88:    087500ff    ..u.    DCD    141885695
        0x0001fa8c:    02814095    .@..    DCD    42025109
        0x0001fa90:    00150309    ....    DCD    1377033
        0x0001fa94:    7500ff26    &..u    DCD    1962999590
        0x0001fa98:    91409508    ..@.    DCD    2436928776
        0x0001fa9c:    c002        ..      DCW    49154
    g_DeviceNameApollo4p
        0x0001fa9e:    7041        Ap      DCW    28737
        0x0001faa0:    6f6c6c6f    ollo    DCD    1869376623
        0x0001faa4:    6c502034    4 Pl    DCD    1817190452
        0x0001faa8:    7375        us      DCW    29557
        0x0001faaa:    00          .       DCB    0
    g_DeviceNameApollo4p_blue
        0x0001faab:    41          A       DCB    65
        0x0001faac:    6c6c6f70    poll    DCD    1819045744
        0x0001fab0:    4220346f    o4 B    DCD    1109406831
        0x0001fab4:    2065756c    lue     DCD    543520108
        0x0001fab8:    73756c50    Plus    DCD    1937075280
        0x0001fabc:    00          .       DCB    0
    g_PackageType
        0x0001fabd:    534950      SIP     DCB    83,73,80
        0x0001fac0:    50495300    .SIP    DCD    1346982656
        0x0001fac4:    41474232    2BGA    DCD    1095189042
        0x0001fac8:    50534300    .CSP    DCD    1347633920
        0x0001facc:    00          .       DCB    0
    g_TempRange
        0x0001facd:    436f6d      Com     DCB    67,111,109
        0x0001fad0:    6372656d    merc    DCD    1668441453
        0x0001fad4:    006c6169    ial.    DCD    7102825
        0x0001fad8:    696c694d    Mili    DCD    1768712525
        0x0001fadc:    79726174    tary    DCD    2037539188
        0x0001fae0:    41000000    ...A    DCD    1090519040
        0x0001fae4:    6d6f7475    utom    DCD    1836020853
        0x0001fae8:    7669746f    otiv    DCD    1986622575
        0x0001faec:    6e490065    e.In    DCD    1850277989
        0x0001faf0:    74737564    dust    DCD    1953723748
        0x0001faf4:    6c616972    rial    DCD    1818323314
        0x0001faf8:    00000000    ....    DCD    0
    g_amHalMcuctrlArgDefault
        0x0001fafc:    00200000    .. .    DCD    2097152
        0x0001fb00:    00000001    ....    DCD    1
    g_am_hal_bootrom_helper
        0x0001fb04:    0800004d    M...    DCD    134217805
        0x0001fb08:    08000051    Q...    DCD    134217809
        0x0001fb0c:    08000055    U...    DCD    134217813
        0x0001fb10:    08000059    Y...    DCD    134217817
        0x0001fb14:    0800006d    m...    DCD    134217837
        0x0001fb18:    08000075    u...    DCD    134217845
        0x0001fb1c:    08000079    y...    DCD    134217849
        0x0001fb20:    08000081    ....    DCD    134217857
        0x0001fb24:    08000099    ....    DCD    134217881
        0x0001fb28:    0800009d    ....    DCD    134217885
    g_sBspUartConfig
        0x0001fb2c:    0001c200    ....    DCD    115200
        0x0001fb30:    00000203    ....    DCD    515
        0x0001fb34:    02020000    ....    DCD    33685504
    g_ui8DeviceNameUnknown
        0x0001fb38:    6e6b6e55    Unkn    DCD    1852534357
        0x0001fb3c:    206e776f    own     DCD    544110447
        0x0001fb40:    69766564    devi    DCD    1769366884
        0x0001fb44:    6563        ce      DCW    25955
        0x0001fb46:    00          .       DCB    0
    g_ui8VendorNameAmbq
        0x0001fb47:    41          A       DCB    65
        0x0001fb48:    0051424d    MBQ.    DCD    5325389
    g_ui8VendorNameUnknown
        0x0001fb4c:    3f3f3f3f    ????    DCD    1061109567
        0x0001fb50:    00000000    ....    DCD    0
    __tagsym$$used.7
    sGlobalAccess
        0x0001fb54:    00020140    @...    DCD    131392
        0x0001fb58:    0002012c    ,...    DCD    131372
        0x0001fb5c:    00020104    ....    DCD    131332
        0x0001fb60:    00020118    ....    DCD    131352
        0x0001fb64:    10060004    ....    DCD    268828676
        0x0001fb68:    10060018    ....    DCD    268828696
        0x0001fb6c:    1006002c    ,...    DCD    268828716
    .L.str
    .L.str.2
    .L.str
    .L.str
        0x0001fb70:    25207325    %s %    DCD    622883621
        0x0001fb74:    41203a64    d: A    DCD    1092631140
        0x0001fb78:    52455353    SSER    DCD    1380275027
        0x0001fb7c:    2054        T       DCW    8276
    .L.str.14
        0x0001fb7e:    4146        FA      DCW    16710
        0x0001fb80:    44454c49    ILED    DCD    1145392201
        0x0001fb84:    0a0d        ..      DCW    2573
        0x0001fb86:    00          .       DCB    0
    .L.str.1
        0x0001fb87:    20                  DCB    32
        0x0001fb88:    65704f20     Ope    DCD    1701859104
        0x0001fb8c:    5045206e    n EP    DCD    1346707566
        0x0001fb90:    32302520     %02    DCD    842016032
        0x0001fb94:    69772058    X wi    DCD    1769414744
        0x0001fb98:    53206874    th S    DCD    1394632820
        0x0001fb9c:    20657a69    ize     DCD    543521385
        0x0001fba0:    7525203d    = %u    DCD    1965367357
        0x0001fba4:    0a0d        ..      DCW    2573
        0x0001fba6:    00          .       DCB    0
    .L.str.2
        0x0001fba7:    20                  DCB    32
        0x0001fba8:    6e694220     Bin    DCD    1852391968
        0x0001fbac:    50452064    d EP    DCD    1346707556
        0x0001fbb0:    32302520     %02    DCD    842016032
        0x0001fbb4:    6f742078    x to    DCD    1869881464
        0x0001fbb8:    69726420     dri    DCD    1769104416
        0x0001fbbc:    20726576    ver     DCD    544367990
        0x0001fbc0:    25206469    id %    DCD    622879849
        0x0001fbc4:    75          u       DCB    117
    .L.str.4
        0x0001fbc5:    0d0a00      ...     DCB    13,10,0
    .L__func__.tu_edpt_validate
        0x0001fbc8:    655f7574    tu_e    DCD    1700754804
        0x0001fbcc:    5f747064    dpt_    DCD    1601466468
        0x0001fbd0:    696c6176    vali    DCD    1768710518
        0x0001fbd4:    65746164    date    DCD    1702125924
        0x0001fbd8:    00          .       DCB    0
    .L__func__.tusb_init
        0x0001fbd9:    747573      tus     DCB    116,117,115
        0x0001fbdc:    6e695f62    b_in    DCD    1852399458
        0x0001fbe0:    7469        it      DCW    29801
        0x0001fbe2:    00          .       DCB    0
    .L.str
        0x0001fbe3:    55          U       DCB    85
        0x0001fbe4:    43204253    SB C    DCD    1126187603
        0x0001fbe8:    45204344    DC E    DCD    1159742276
        0x0001fbec:    706d6178    xamp    DCD    1886216568
        0x0001fbf0:    0a0a656c    le..    DCD    168453484
        0x0001fbf4:    00          .       DCB    0
    .L.str.2
        0x0001fbf5:    446576      Dev     DCB    68,101,118
        0x0001fbf8:    20656369    ice     DCD    543515497
        0x0001fbfc:    65707974    type    DCD    1701869940
        0x0001fc00:    7325203a    : %s    DCD    1931812922
        0x0001fc04:    0a0a        ..      DCW    2570
        0x0001fc06:    00          .       DCB    0
    .L.str.1
        0x0001fc07:    56          V       DCB    86
        0x0001fc08:    6f646e65    endo    DCD    1868852837
        0x0001fc0c:    614e2072    r Na    DCD    1632510066
        0x0001fc10:    203a656d    me:     DCD    540697965
        0x0001fc14:    000a7325    %s..    DCD    684837
        0x0001fc18:    34333231    1234    DCD    875770417
        0x0001fc1c:    54003635    56.T    DCD    1409300021
        0x0001fc20:    55796e69    inyU    DCD    1434021481
        0x0001fc24:    54004253    SB.T    DCD    1409303123
        0x0001fc28:    55796e69    inyU    DCD    1434021481
        0x0001fc2c:    44204253    SB D    DCD    1142964819
        0x0001fc30:    63697665    evic    DCD    1667855973
        0x0001fc34:    0065        e.      DCW    101
    .L.str.13
        0x0001fc36:    2020                DCW    8224
        0x0001fc38:    75657551    Queu    DCD    1969583441
        0x0001fc3c:    50452065    e EP    DCD    1346707557
        0x0001fc40:    32302520     %02    DCD    842016032
        0x0001fc44:    69772058    X wi    DCD    1769414744
        0x0001fc48:    25206874    th %    DCD    622880884
        0x0001fc4c:    79622075    u by    DCD    2036473973
        0x0001fc50:    20736574    tes     DCD    544433524
        0x0001fc54:    0d2e2e2e    ....    DCD    221130286
        0x0001fc58:    000a        ..      DCW    10
    .L.str.8
        0x0001fc5a:    2020                DCW    8224
        0x0001fc5c:    6c617453    Stal    DCD    1818326099
        0x0001fc60:    5045206c    l EP    DCD    1346707564
        0x0001fc64:    000a0d30    0...    DCD    658736
    .L.str.10
        0x0001fc68:    73252020      %s    DCD    1931812896
        0x0001fc6c:    65667820     xfe    DCD    1701214240
        0x0001fc70:    61632072    r ca    DCD    1633886322
        0x0001fc74:    61626c6c    llba    DCD    1633840236
        0x0001fc78:    0d326b63    ck2.    DCD    221408099
        0x0001fc7c:    000a        ..      DCW    10
    .L.str.54
        0x0001fc7e:    4220         B      DCW    16928
        0x0001fc80:    0a0d534f    OS..    DCD    168645455
        0x0001fc84:    00          .       DCB    0
    .L.str.18
        0x0001fc85:    202020              DCB    32,32,32
        0x0001fc88:    61745320     Sta    DCD    1635013408
        0x0001fc8c:    45206c6c    ll E    DCD    1159752812
        0x0001fc90:    30252050    P %0    DCD    807739472
        0x0001fc94:    0a0d5832    2X..    DCD    168646706
        0x0001fc98:    00          .       DCB    0
    .L.str.19
        0x0001fc99:    202020              DCB    32,32,32
        0x0001fc9c:    656c4320     Cle    DCD    1701593888
        0x0001fca0:    53207261    ar S    DCD    1394635361
        0x0001fca4:    6c6c6174    tall    DCD    1819042164
        0x0001fca8:    20504520     EP     DCD    542131488
        0x0001fcac:    58323025    %02X    DCD    1479684133
        0x0001fcb0:    0a0d        ..      DCW    2573
        0x0001fcb2:    00          .       DCB    0
    .L.str.57
        0x0001fcb3:    20                  DCB    32
        0x0001fcb4:    69727453    Stri    DCD    1769108563
        0x0001fcb8:    255b676e    ng[%    DCD    626747246
        0x0001fcbc:    0a0d5d75    u]..    DCD    168648053
        0x0001fcc0:    00          .       DCB    0
    .L.str.55
        0x0001fcc1:    20436f       Co     DCB    32,67,111
        0x0001fcc4:    6769666e    nfig    DCD    1734960750
        0x0001fcc8:    74617275    urat    DCD    1952543349
        0x0001fccc:    5b6e6f69    ion[    DCD    1533964137
        0x0001fcd0:    0d5d7525    %u].    DCD    224228645
        0x0001fcd4:    000a        ..      DCW    10
    .L.str.7
        0x0001fcd6:    203a        :       DCW    8250
        0x0001fcd8:    53207325    %s S    DCD    1394635557
        0x0001fcdc:    64656570    peed    DCD    1684366704
        0x0001fce0:    0a0d        ..      DCW    2573
        0x0001fce2:    00          .       DCB    0
    .L.str.52
        0x0001fce3:    20                  DCB    32
        0x0001fce4:    20732520     %s     DCD    544417056
        0x0001fce8:    6e65706f    open    DCD    1852141679
        0x0001fcec:    0a0d6465    ed..    DCD    168649829
        0x0001fcf0:    00          .       DCB    0
    .L.str.12
        0x0001fcf1:    20536b       Sk     DCB    32,83,107
        0x0001fcf4:    65707069    ippe    DCD    1701867625
        0x0001fcf8:    000a0d64    d...    DCD    658788
    .L.str.53
        0x0001fcfc:    76654420     Dev    DCD    1986348064
        0x0001fd00:    0d656369    ice.    DCD    224748393
        0x0001fd04:    000a        ..      DCW    10
    .L.str
        0x0001fd06:    2020                DCW    8224
        0x0001fd08:    7325        %s      DCW    29477
    .L.str.14
        0x0001fd0a:    6320         c      DCW    25376
        0x0001fd0c:    72746e6f    ontr    DCD    1920233071
        0x0001fd10:    63206c6f    ol c    DCD    1663069295
        0x0001fd14:    6d6f        om      DCW    28015
    .L.str.15
        0x0001fd16:    6c70        pl      DCW    27760
    .L.str.16
        0x0001fd18:    0d657465    ete.    DCD    224752741
        0x0001fd1c:    000a        ..      DCW    10
    .L.str.36
        0x0001fd1e:    20                  DCB    32
    .L.str.17
        0x0001fd1f:    20                  DCB    32
        0x0001fd20:    6c43        Cl      DCW    27715
        0x0001fd22:    65          e       DCB    101
    .L.str.18
        0x0001fd23:    61          a       DCB    97
        0x0001fd24:    2072        r       DCW    8306
    .L.str.19
        0x0001fd26:    7563        cu      DCW    30051
        0x0001fd28:    6e657272    rren    DCD    1852142194
        0x0001fd2c:    6f432074    t Co    DCD    1866670196
        0x0001fd30:    6769666e    nfig    DCD    1734960750
        0x0001fd34:    74617275    urat    DCD    1952543349
        0x0001fd38:    206e6f69    ion     DCD    544108393
        0x0001fd3c:    29752528    (%u)    DCD    695543080
        0x0001fd40:    66656220     bef    DCD    1717920288
        0x0001fd44:    2065726f    ore     DCD    543519343
        0x0001fd48:    74697773    swit    DCD    1953068915
        0x0001fd4c:    6e696863    chin    DCD    1852401763
        0x0001fd50:    000a0d67    g...    DCD    658791
    .L.str.56
        0x0001fd54:    68744f20     Oth    DCD    1752452896
        0x0001fd58:    53207265    er S    DCD    1394635365
        0x0001fd5c:    64656570    peed    DCD    1684366704
        0x0001fd60:    6e6f4320     Con    DCD    1852785440
        0x0001fd64:    75676966    figu    DCD    1969711462
        0x0001fd68:    69746172    rati    DCD    1769234802
        0x0001fd6c:    0a0d6e6f    on..    DCD    168652399
    .L.str.15
        0x0001fd70:    00          .       DCB    0
    .L.str.37
        0x0001fd71:    202020              DCB    32,32,32
        0x0001fd74:    616e4520     Ena    DCD    1634616608
        0x0001fd78:    20656c62    ble     DCD    543517794
        0x0001fd7c:    6f6d6552    Remo    DCD    1869440338
        0x0001fd80:    57206574    te W    DCD    1461740916
        0x0001fd84:    75656b61    akeu    DCD    1969580897
        0x0001fd88:    000a0d70    p...    DCD    658800
    .L.str.38
        0x0001fd8c:    20202020            DCD    538976288
        0x0001fd90:    61736944    Disa    DCD    1634953540
        0x0001fd94:    6c62        bl      DCW    27746
        0x0001fd96:    65          e       DCB    101
    .L__func__.usbd_edpt_xfer_fifo
        0x0001fd97:    20                  DCB    32
        0x0001fd98:    6f6d6552    Remo    DCD    1869440338
        0x0001fd9c:    57206574    te W    DCD    1461740916
        0x0001fda0:    75656b61    akeu    DCD    1969580897
        0x0001fda4:    000a0d70    p...    DCD    658800
    .L.str.58
        0x0001fda8:    4420         D      DCW    17440
        0x0001fdaa:    65          e       DCB    101
    .L.str.16
        0x0001fdab:    76          v       DCB    118
        0x0001fdac:    20656369    ice     DCD    543515497
    .L.str.17
        0x0001fdb0:    6c617551    Qual    DCD    1818326353
        0x0001fdb4:    65696669    ifie    DCD    1701406313
        0x0001fdb8:    000a0d72    r...    DCD    658802
    .L.str.9
        0x0001fdbc:    45206e6f    on E    DCD    1159753327
        0x0001fdc0:    30252050    P %0    DCD    807739472
        0x0001fdc4:    77205832    2X w    DCD    1998608434
        0x0001fdc8:    20687469    ith     DCD    543716457
        0x0001fdcc:    62207525    %u b    DCD    1646294309
        0x0001fdd0:    73657479    ytes    DCD    1936028793
        0x0001fdd4:    0a0d        ..      DCW    2573
        0x0001fdd6:    00          .       DCB    0
    .L.str.1
        0x0001fdd7:    55          U       DCB    85
        0x0001fdd8:    20444253    SBD     DCD    541344339
        0x0001fddc:    74696e69    init    DCD    1953066601
        0x0001fde0:    0a0d        ..      DCW    2573
        0x0001fde2:    00          .       DCB    0
    .L.str.3
        0x0001fde3:    25          %       DCB    37
        0x0001fde4:    2073        s       DCW    8307
        0x0001fde6:    69          i       DCB    105
    .L__func__.usbd_edpt_close
        0x0001fde7:    6e          n       DCB    110
        0x0001fde8:    0a0d7469    it..    DCD    168653929
        0x0001fdec:    00          .       DCB    0
    .L.str.51
        0x0001fded:    202025        %     DCB    32,32,37
        0x0001fdf0:    6f632073    s co    DCD    1868767347
        0x0001fdf4:    746e        nt      DCW    29806
        0x0001fdf6:    72          r       DCB    114
    .L.str.20
        0x0001fdf7:    6f          o       DCB    111
        0x0001fdf8:    6572206c    l re    DCD    1701978220
        0x0001fdfc:    73657571    ques    DCD    1936029041
        0x0001fe00:    000a0d74    t...    DCD    658804
    .L.str.11
        0x0001fe04:    6552203a    : Re    DCD    1699881018
        0x0001fe08:    65746f6d    mote    DCD    1702129517
        0x0001fe0c:    6b615720     Wak    DCD    1801541408
        0x0001fe10:    20707565    eup     DCD    544240997
        0x0001fe14:    7525203d    = %u    DCD    1965367357
        0x0001fe18:    0a0d        ..      DCW    2573
        0x0001fe1a:    00          .       DCB    0
    .L.str.34
        0x0001fe1b:    25          %       DCB    37
        0x0001fe1c:    20583230    02X     DCD    542650928
        0x0001fe20:    00          .       DCB    0
    .L.str.5
        0x0001fe21:    555342      USB     DCB    85,83,66
        0x0001fe24:    73252044    D %s    DCD    1931812932
        0x0001fe28:    0020         .      DCW    32
    .L.str.6
        0x0001fe2a:    4f43        CO      DCW    20291
        0x0001fe2c:    50555252    RRUP    DCD    1347768914
        0x0001fe30:    00444554    TED.    DCD    4474196
        0x0001fe34:    00444948    HID.    DCD    4475208
        0x0001fe38:    00464f53    SOF.    DCD    4607827
        0x0001fe3c:    6c706e55    Unpl    DCD    1819307605
        0x0001fe40:    65676775    ugge    DCD    1701275509
        0x0001fe44:    65530064    d.Se    DCD    1699938404
        0x0001fe48:    20707574    tup     DCD    544241012
        0x0001fe4c:    65636552    Rece    DCD    1701012818
        0x0001fe50:    64657669    ived    DCD    1684371049
        0x0001fe54:    73655200    .Res    DCD    1936019968
        0x0001fe58:    65767265    erve    DCD    1702261349
        0x0001fe5c:    6e490064    d.In    DCD    1850277988
        0x0001fe60:    696c6176    vali    DCD    1768710518
        0x0001fe64:    75530064    d.Su    DCD    1968373860
        0x0001fe68:    6e657073    spen    DCD    1852141683
        0x0001fe6c:    0064        d.      DCW    100
    .L__func__.osal_queue_send
        0x0001fe6e:    736f        os      DCW    29551
        0x0001fe70:    715f6c61    al_q    DCD    1902079073
        0x0001fe74:    65756575    ueue    DCD    1702192501
        0x0001fe78:    6e65735f    _sen    DCD    1852142431
        0x0001fe7c:    65470064    d.Ge    DCD    1699151972
        0x0001fe80:    6e492074    t In    DCD    1850286196
        0x0001fe84:    66726574    terf    DCD    1718773108
        0x0001fe88:    00656361    ace.    DCD    6644577
        0x0001fe8c:    20746553    Set     DCD    544499027
        0x0001fe90:    65746e49    Inte    DCD    1702129225
        0x0001fe94:    63616672    rfac    DCD    1667327602
        0x0001fe98:    79530065    e.Sy    DCD    2035482725
        0x0001fe9c:    2068636e    nch     DCD    543712110
        0x0001fea0:    6d617246    Fram    DCD    1835102790
        0x0001fea4:    65520065    e.Re    DCD    1699872869
        0x0001fea8:    656d7573    sume    DCD    1701672307
        0x0001feac:    656c4300    .Cle    DCD    1701593856
        0x0001feb0:    46207261    ar F    DCD    1176531553
        0x0001feb4:    75746165    eatu    DCD    1970561381
        0x0001feb8:    53006572    re.S    DCD    1392534898
        0x0001febc:    46207465    et F    DCD    1176532069
        0x0001fec0:    75746165    eatu    DCD    1970561381
        0x0001fec4:    58006572    re.X    DCD    1476420978
        0x0001fec8:    20726566    fer     DCD    544367974
        0x0001fecc:    706d6f43    Comp    DCD    1886220099
        0x0001fed0:    6574656c    lete    DCD    1702126956
        0x0001fed4:    00          .       DCB    0
    .L__func__.process_set_config
        0x0001fed5:    70726f      pro     DCB    112,114,111
        0x0001fed8:    73736563    cess    DCD    1936942435
        0x0001fedc:    7465735f    _set    DCD    1952805727
        0x0001fee0:    6e6f635f    _con    DCD    1852793695
        0x0001fee4:    00676966    fig.    DCD    6777190
        0x0001fee8:    68676948    High    DCD    1751607624
        0x0001feec:    00          .       DCB    0
    .L__func__.tud_task
        0x0001feed:    747564      tud     DCB    116,117,100
        0x0001fef0:    7361745f    _tas    DCD    1935766623
        0x0001fef4:    7546006b    k.Fu    DCD    1967521899
        0x0001fef8:    4320636e    nc C    DCD    1126196078
        0x0001fefc:    006c6c61    all.    DCD    7105633
        0x0001ff00:    6c6c7546    Full    DCD    1819047238
        0x0001ff04:    00          .       DCB    0
    .L__func__.usbd_edpt_open
        0x0001ff05:    757362      usb     DCB    117,115,98
        0x0001ff08:    64655f64    d_ed    DCD    1684365156
        0x0001ff0c:    6f5f7470    pt_o    DCD    1868526704
        0x0001ff10:    006e6570    pen.    DCD    7234928
        0x0001ff14:    20746547    Get     DCD    544499015
        0x0001ff18:    666e6f43    Conf    DCD    1718513475
        0x0001ff1c:    72756769    igur    DCD    1920296809
        0x0001ff20:    6f697461    atio    DCD    1869182049
        0x0001ff24:    6553006e    n.Se    DCD    1699938414
        0x0001ff28:    6f432074    t Co    DCD    1866670196
        0x0001ff2c:    6769666e    nfig    DCD    1734960750
        0x0001ff30:    74617275    urat    DCD    1952543349
        0x0001ff34:    006e6f69    ion.    DCD    7237481
    .L__func__.usbd_edpt_xfer
        0x0001ff38:    64627375    usbd    DCD    1684173685
        0x0001ff3c:    7064655f    _edp    DCD    1885627743
        0x0001ff40:    66785f74    t_xf    DCD    1719164788
        0x0001ff44:    7265        er      DCW    29285
        0x0001ff46:    00          .       DCB    0
    .L__func__.usbd_open_edpt_pair
        0x0001ff47:    75          u       DCB    117
        0x0001ff48:    5f646273    sbd_    DCD    1600414323
        0x0001ff4c:    6e65706f    open    DCD    1852141679
        0x0001ff50:    7064655f    _edp    DCD    1885627743
        0x0001ff54:    61705f74    t_pa    DCD    1634754420
        0x0001ff58:    47007269    ir.G    DCD    1191211625
        0x0001ff5c:    44207465    et D    DCD    1142977637
        0x0001ff60:    72637365    escr    DCD    1919120229
        0x0001ff64:    6f747069    ipto    DCD    1869901929
        0x0001ff68:    65530072    r.Se    DCD    1699938418
        0x0001ff6c:    65442074    t De    DCD    1698963572
        0x0001ff70:    69726373    scri    DCD    1769104243
        0x0001ff74:    726f7470    ptor    DCD    1919906928
        0x0001ff78:    00          .       DCB    0
    .L__func__.process_get_descriptor
        0x0001ff79:    70726f      pro     DCB    112,114,111
        0x0001ff7c:    73736563    cess    DCD    1936942435
        0x0001ff80:    7465675f    _get    DCD    1952802655
        0x0001ff84:    7365645f    _des    DCD    1936024671
        0x0001ff88:    70697263    crip    DCD    1885958755
        0x0001ff8c:    00726f74    tor.    DCD    7499636
    .L.str.35
        0x0001ff90:    73252020      %s    DCD    1931812896
        0x0001ff94:    74655300    .Set    DCD    1952797440
        0x0001ff98:    64644120     Add    DCD    1684291872
        0x0001ff9c:    73736572    ress    DCD    1936942450
        0x0001ffa0:    74654700    .Get    DCD    1952794368
        0x0001ffa4:    61745320     Sta    DCD    1635013408
        0x0001ffa8:    00737574    tus.    DCD    7566708
        0x0001ffac:    20737542    Bus     DCD    544437570
        0x0001ffb0:    65736552    Rese    DCD    1702061394
        0x0001ffb4:    0074        t.      DCW    116
    .L__func__.tud_init
        0x0001ffb6:    7574        tu      DCW    30068
        0x0001ffb8:    6e695f64    d_in    DCD    1852399460
        0x0001ffbc:    7469        it      DCW    29801
        0x0001ffbe:    00          .       DCB    0
    .L__func__.process_control_request
        0x0001ffbf:    70          p       DCB    112
        0x0001ffc0:    65636f72    roce    DCD    1701015410
        0x0001ffc4:    635f7373    ss_c    DCD    1667199859
        0x0001ffc8:    72746e6f    ontr    DCD    1920233071
        0x0001ffcc:    725f6c6f    ol_r    DCD    1918856303
        0x0001ffd0:    65757165    eque    DCD    1702195557
        0x0001ffd4:    4c007473    st.L    DCD    1275098227
        0x0001ffd8:    776f        ow      DCW    30575
        0x0001ffda:    00          .       DCB    0
    .L.str.3
        0x0001ffdb:    20                  DCB    32
        0x0001ffdc:    65755120     Que    DCD    1702187296
        0x0001ffe0:    45206575    ue E    DCD    1159751029
        0x0001ffe4:    30252050    P %0    DCD    807739472
        0x0001ffe8:    77205832    2X w    DCD    1998608434
        0x0001ffec:    20687469    ith     DCD    543716457
        0x0001fff0:    62207525    %u b    DCD    1646294309
        0x0001fff4:    73657479    ytes    DCD    1936028793
        0x0001fff8:    0a0d        ..      DCW    2573
        0x0001fffa:    00          .       DCB    0
    .L.str.1
        0x0001fffb:    20                  DCB    32
        0x0001fffc:    6e6f4320     Con    DCD    1852785440
        0x00020000:    6c6f7274    trol    DCD    1819243124
        0x00020004:    746f7420     tot    DCD    1953461280
        0x00020008:    64206c61    al d    DCD    1679846497
        0x0002000c:    20617461    ata     DCD    543257697
        0x00020010:    676e656c    leng    DCD    1735288172
        0x00020014:    69206874    th i    DCD    1763731572
        0x00020018:    75252073    s %u    DCD    1965367411
        0x0002001c:    74796220     byt    DCD    1954112032
        0x00020020:    0a0d7365    es..    DCD    168653669
        0x00020024:    00          .       DCB    0
    .L.str.2
        0x00020025:    202051        Q     DCB    32,32,81
        0x00020028:    65756575    ueue    DCD    1702192501
        0x0002002c:    20504520     EP     DCD    542131488
        0x00020030:    58323025    %02X    DCD    1479684133
        0x00020034:    74697720     wit    DCD    1953068832
        0x00020038:    6c7a2068    h zl    DCD    1819943016
        0x0002003c:    74532070    p St    DCD    1951604848
        0x00020040:    73757461    atus    DCD    1937077345
        0x00020044:    0a0d        ..      DCW    2573
        0x00020046:    00          .       DCB    0
    .L__func__.usbd_control_xfer_cb
        0x00020047:    75          u       DCB    117
        0x00020048:    5f646273    sbd_    DCD    1600414323
        0x0002004c:    746e6f63    cont    DCD    1953394531
        0x00020050:    5f6c6f72    rol_    DCD    1600941938
        0x00020054:    72656678    xfer    DCD    1919247992
        0x00020058:    0062635f    _cb.    DCD    6447967
    .L__func__.tud_control_xfer
        0x0002005c:    5f647574    tud_    DCD    1600419188
        0x00020060:    746e6f63    cont    DCD    1953394531
        0x00020064:    5f6c6f72    rol_    DCD    1600941938
        0x00020068:    72656678    xfer    DCD    1919247992
        0x0002006c:    00          .       DCB    0
    .L.str.1
        0x0002006d:    25733a      %s:     DCB    37,115,58
        0x00020070:    3a642520     %d:    DCD    979641632
        0x00020074:    69614620     Fai    DCD    1767982624
        0x00020078:    0d64656c    led.    DCD    224683372
        0x0002007c:    000a        ..      DCW    10
    .L__PRETTY_FUNCTION__.hidd_open
        0x0002007e:    6975        ui      DCW    26997
        0x00020080:    3631746e    nt16    DCD    909210734
        0x00020084:    6820745f    _t h    DCD    1746957407
        0x00020088:    5f646469    idd_    DCD    1600414825
        0x0002008c:    6e65706f    open    DCD    1852141679
        0x00020090:    6e697528    (uin    DCD    1852405032
        0x00020094:    745f3874    t8_t    DCD    1952397428
        0x00020098:    6f63202c    , co    DCD    1868767276
        0x0002009c:    2074736e    nst     DCD    544502638
        0x000200a0:    62737574    tusb    DCD    1651733876
        0x000200a4:    7365645f    _des    DCD    1936024671
        0x000200a8:    6e695f63    c_in    DCD    1852399459
        0x000200ac:    66726574    terf    DCD    1718773108
        0x000200b0:    5f656361    ace_    DCD    1600480097
        0x000200b4:    2c2a2074    t *,    DCD    740958324
        0x000200b8:    6e697520     uin    DCD    1852405024
        0x000200bc:    5f363174    t16_    DCD    1597387124
        0x000200c0:    2974        t)      DCW    10612
        0x000200c2:    00          .       DCB    0
    .L__func__.hidd_xfer_cb
        0x000200c3:    68          h       DCB    104
        0x000200c4:    5f646469    idd_    DCD    1600414825
        0x000200c8:    72656678    xfer    DCD    1919247992
        0x000200cc:    0062635f    _cb.    DCD    6447967
    .L__func__.hidd_control_xfer_cb
        0x000200d0:    64646968    hidd    DCD    1684302184
        0x000200d4:    6e6f635f    _con    DCD    1852793695
        0x000200d8:    6c6f7274    trol    DCD    1819243124
        0x000200dc:    6566785f    _xfe    DCD    1701214303
        0x000200e0:    62635f72    r_cb    DCD    1650679666
        0x000200e4:    00          .       DCB    0
    .L__func__.hidd_open
        0x000200e5:    686964      hid     DCB    104,105,100
        0x000200e8:    706f5f64    d_op    DCD    1886347108
        0x000200ec:    6e65        en      DCW    28261
        0x000200ee:    00          .       DCB    0
    .L.str
        0x000200ef:    0a          .       DCB    10
        0x000200f0:    0a0a0a0a    ....    DCD    168430090
        0x000200f4:    0a0a0a0a    ....    DCD    168430090
        0x000200f8:    0a0a0a0a    ....    DCD    168430090
        0x000200fc:    0a0a0a0a    ....    DCD    168430090
        0x00020100:    0000000a    ....    DCD    10
    __tagsym$$used.1
    ui32DSP0Allowed
        0x00020104:    00000000    ....    DCD    0
        0x00020108:    00000000    ....    DCD    0
        0x0002010c:    00000000    ....    DCD    0
        0x00020110:    00000000    ....    DCD    0
        0x00020114:    00000000    ....    DCD    0
    __tagsym$$used.2
    ui32DSP1Allowed
        0x00020118:    00000000    ....    DCD    0
        0x0002011c:    00000000    ....    DCD    0
        0x00020120:    00000000    ....    DCD    0
        0x00020124:    00000000    ....    DCD    0
        0x00020128:    00000000    ....    DCD    0
    __tagsym$$used.0
    ui32MCUAllowed
        0x0002012c:    00000000    ....    DCD    0
        0x00020130:    00000000    ....    DCD    0
        0x00020134:    00000000    ....    DCD    0
        0x00020138:    00000000    ....    DCD    0
        0x0002013c:    00000000    ....    DCD    0
    __tagsym$$used.3
    ui32SharedAccess
        0x00020140:    00000000    ....    DCD    0
        0x00020144:    00000000    ....    DCD    0
        0x00020148:    00000000    ....    DCD    0
        0x0002014c:    00000000    ....    DCD    0
        0x00020150:    00000000    ....    DCD    0
    Region$$Table$$Base
        0x00020154:    00020188    ....    DCD    131464
        0x00020158:    10000000    ....    DCD    268435456
        0x0002015c:    00000068    h...    DCD    104
        0x00020160:    00018270    p...    DCD    98928
        0x00020164:    000201f0    ....    DCD    131568
        0x00020168:    10060000    ....    DCD    268828672
        0x0002016c:    00000040    @...    DCD    64
        0x00020170:    00018270    p...    DCD    98928
        0x00020174:    000201f0    ....    DCD    131568
        0x00020178:    10000068    h...    DCD    268435560
        0x0002017c:    00003d60    `=..    DCD    15712
        0x00020180:    0001828c    ....    DCD    98956
    Region$$Table$$Limit

** Section #2 'MCU_TCM' (SHT_PROGBITS) [SHF_ALLOC + SHF_WRITE]
    Size   : 104 bytes (alignment 8)
    Address: 0x10000000

    0x10000000:   01 00 00 00 e8 01 00 10 10 00 0c 00 00 00 e0 ff    ................
    0x10000010:   1f 00 00 00 00 00 00 00 fa 00 00 00 00 00 00 00    ................
    0x10000020:   92 24 01 80 20 01 00 00 6d db 02 40 d1 02 00 00    .$.. ...m..@....
    0x10000030:   04 00 00 00 04 04 00 00 00 04 00 00 03 05 00 00    ................
    0x10000040:   03 05 00 00 00 48 e8 01 2c 00 00 00 04 00 00 00    .....H..,.......
    0x10000050:   08 1e 0c 40 18 1e 0c 40 8a f7 01 00 1f fc 01 00    ...@...@........
    0x10000060:   27 fc 01 00 18 fc 01 00                            '.......


** Section #3 'MCU_TCM' (SHT_NOBITS) [SHF_ALLOC + SHF_WRITE]
    Size   : 15712 bytes (alignment 8)
    Address: 0x10000068


** Section #4 'SHARED_SRAM' (SHT_PROGBITS) [SHF_ALLOC + SHF_WRITE]
    Size   : 64 bytes (alignment 4)
    Address: 0x10060000

    0x10060000:   54 fb 01 00 00 00 00 00 00 00 00 00 00 00 00 00    T...............
    0x10060010:   00 00 00 00 00 00 00 00 00 00 00 00 00 00 00 00    ................
    0x10060020:   00 00 00 00 00 00 00 00 00 00 00 00 00 00 00 00    ................
    0x10060030:   00 00 00 00 00 00 00 00 00 00 00 00 00 00 00 00    ................


** Section #5 '.debug_abbrev' (SHT_PROGBITS)
    Size   : 4657 bytes


** Section #6 '.debug_frame' (SHT_PROGBITS)
    Size   : 9872 bytes


** Section #7 '.debug_info' (SHT_PROGBITS)
    Size   : 41001 bytes


** Section #8 '.debug_line' (SHT_PROGBITS)
    Size   : 23614 bytes


** Section #9 '.debug_str' (SHT_PROGBITS)
    Size   : 30787 bytes


** Section #10 '.debug_ranges' (SHT_PROGBITS)
    Size   : 1624 bytes


** Section #11 '.symtab' (SHT_SYMTAB)
    Size   : 12096 bytes (alignment 4)
    String table #12 '.strtab'
    Last local symbol no. 428

    Symbol table .symtab (755 symbols, 428 local)

      #  Symbol Name                Value      Bind  Sec  Type  Vis  Size
    ========================================================================

      1  $d                         0x00018000   Lc    1   --   De 
      2  $t                         0x00018200   Lc    1   --   De 
      3  $d                         0x00018230   Lc    1   --   De 
      4  $t                         0x00018234   Lc    1   --   De 
      5  $d                         0x00018268   Lc    1   --   De 
      6  $t                         0x00018270   Lc    1   --   De 
      7  $d                         0x000182de   Lc    1   --   De 
      8  $t                         0x000182ec   Lc    1   --   De 
      9  $d                         0x000185b4   Lc    1   --   De 
     10  $t                         0x000185b8   Lc    1   --   De 
     11  $d                         0x0001861c   Lc    1   --   De 
     12  $t                         0x00018620   Lc    1   --   De 
     13  $t.16                      0x00018624   Lc    1   --   De 
     14  $d.1                       0x00018c8a   Lc    1   --   De 
     15  $t.2                       0x00018cc8   Lc    1   --   De 
     16  $d.2                       0x000191e0   Lc    1   --   De 
     17  $t.5                       0x000191f0   Lc    1   --   De 
     18  $d.6                       0x000191fe   Lc    1   --   De 
     19  $t.7                       0x00019204   Lc    1   --   De 
     20  $d.2                       0x00019374   Lc    1   --   De 
     21  $t.3                       0x00019380   Lc    1   --   De 
     22  $d.6                       0x0001972c   Lc    1   --   De 
     23  $t.15                      0x00019734   Lc    1   --   De 
     24  $d.8                       0x00019c20   Lc    1   --   De 
     25  $t.0                       0x00019c34   Lc    1   --   De 
     26  $d.12                      0x00019d70   Lc    1   --   De 
     27  $t.13                      0x00019d74   Lc    1   --   De 
     28  $d.40                      0x0001a65e   Lc    1   --   De 
     29  $t.41                      0x0001a664   Lc    1   --   De 
     30  $d.4                       0x0001b316   Lc    1   --   De 
     31  $t.5                       0x0001b37c   Lc    1   --   De 
     32  $d.26                      0x0001bbd0   Lc    1   --   De 
     33  $t.27                      0x0001bbd4   Lc    1   --   De 
     34  $d.2                       0x0001bef2   Lc    1   --   De 
     35  $t.3                       0x0001bef6   Lc    1   --   De 
     36  $d.6                       0x0001bfb4   Lc    1   --   De 
     37  $t.7                       0x0001bfbc   Lc    1   --   De 
     38  $d.13                      0x0001c64c   Lc    1   --   De 
     39  $t.14                      0x0001c662   Lc    1   --   De 
     40  $d.21                      0x0001d440   Lc    1   --   De 
     41  $t.22                      0x0001d454   Lc    1   --   De 
     42  $d.52                      0x0001d924   Lc    1   --   De 
     43  $t.53                      0x0001d942   Lc    1   --   De 
     44  $d.15                      0x0001e984   Lc    1   --   De 
     45  $t.16                      0x0001e994   Lc    1   --   De 
     46  $t                         0x0001f668   Lc    1   --   De 
     47  $d                         0x0001f6b8   Lc    1   --   De 
     48  $t                         0x0001f6bc   Lc    1   --   De 
     49  $d                         0x0001f73a   Lc    1   --   De 
     50  $t                         0x0001f73e   Lc    1   --   De 
     51  $d.realdata                0x0001f78a   Lc    1   --   De 
     52  $d.realdata                0x10000000   Lc    2   --   De 
     53  $d.realdata                0x10060000   Lc    4   --   De 
     54  tusb_fifo.c                0x00000000   Lc  Abs  File  De 
     55  _tu_fifo_count             0x00018871   Lc    1  Code  De   0x40
     56  _tu_fifo_full              0x000188b1   Lc    1  Code  De   0x2c
     57  _tu_fifo_correct_read_pointer
                                    0x00018851   Lc    1  Code  De   0x1e
     58  _tu_fifo_peek              0x000188dd   Lc    1  Code  De   0x7e
     59  advance_pointer            0x0001895d   Lc    1  Code  De   0x62
     60  get_relative_pointer       0x0001c4f9   Lc    1  Code  De   0x1a
     61  _ff_push                   0x000187b5   Lc    1  Code  De   0x24
     62  backward_pointer           0x0001b831   Lc    1  Code  De   0x62
     63  _ff_pull                   0x00018791   Lc    1  Code  De   0x24
     64  _ff_mod                    0x0001875d   Lc    1  Code  De   0x32
     65  dcd_apollo4.c              0x00000000   Lc  Abs  File  De 
     66  dcd_usb_dev_evt_callback   0x0001bed9   Lc    1  Code  De   0xa4
     67  dcd_usb_ep0_setup_callback 0x0001bf7d   Lc    1  Code  De   0x14
     68  dcd_usb_ep_xfer_complete_callback
                                    0x0001bf91   Lc    1  Code  De   0x84
     69  am_hal_usb_enable_phy_reset_override
                                    0x00019e75   Lc    1  Code  De   0x12
     70  am_hal_usb_hardware_unreset
                                    0x0001a499   Lc    1  Code  De   0x10
     71  dcd_usb_setHFCR2           0x0001c015   Lc    1  Code  De   0x14
     72  am_hal_usb_disable_phy_reset_override
                                    0x00019e61   Lc    1  Code  De   0x12
     73  __NVIC_SetPriority         0x0001868d   Lc    1  Code  De   0x42
     74  __NVIC_EnableIRQ           0x0001865d   Lc    1  Code  De   0x30
     75  __NVIC_DisableIRQ          0x00018625   Lc    1  Code  De   0x38
     76  tu_edpt_addr               0x0001df7d   Lc    1  Code  De   0x20
     77  pUSBHandle                 0x10000ac0   Lc    3  Data  De   0x4
     78  tusb.c                     0x00000000   Lc  Abs  File  De 
     79  tu_edpt_packet_size        0x0001e085   Lc    1  Code  De   0x10
     80  tu_desc_type               0x0001df59   Lc    1  Code  De   0xc
     81  tu_edpt_number             0x0001e05d   Lc    1  Code  De   0x12
     82  tu_edpt_dir                0x0001e02d   Lc    1  Code  De   0x10
     83  tu_desc_next               0x0001df1d   Lc    1  Code  De   0x12
     84  .L.str                     0x0001fb70   Lc    1  Data  De   0x17
     85  .L.str.1                   0x0001fb87   Lc    1  Data  De   0x20
     86  .L.str.2                   0x0001fba7   Lc    1  Data  De   0x21
     87  .L__func__.tu_edpt_validate
                                    0x0001fbc8   Lc    1  Data  De   0x11
     88  .L__func__.tusb_init       0x0001fbd9   Lc    1  Data  De   0xa
     89  .L.str.14                  0x0001fd0a   Lc    1  Data  De   0x7
     90  .L.str.15                  0x0001fd16   Lc    1  Data  De   0x2
     91  .L.str.16                  0x0001fd18   Lc    1  Data  De   0x7
     92  .L.str.17                  0x0001fd1f   Lc    1  Data  De   0x4
     93  .L.str.18                  0x0001fd23   Lc    1  Data  De   0x3
     94  .L.str.19                  0x0001fd26   Lc    1  Data  De   0x4
     95  am_resources.c             0x00000000   Lc  Abs  File  De 
     96  __tagsym$$used.0           0x0002012c   Lc    1   --   De 
     97  __tagsym$$used.1           0x00020104   Lc    1   --   De 
     98  __tagsym$$used.2           0x00020118   Lc    1   --   De 
     99  __tagsym$$used.3           0x00020140   Lc    1   --   De 
    100  __tagsym$$used.4           0x10060004   Lc    4   --   De 
    101  __tagsym$$used.5           0x10060018   Lc    4   --   De 
    102  __tagsym$$used.6           0x1006002c   Lc    4   --   De 
    103  __tagsym$$used.7           0x0001fb54   Lc    1   --   De 
    104  __tagsym$$used.8           0x10060000   Lc    4   --   De 
    105  apollo4_board.c            0x00000000   Lc  Abs  File  De 
    106  .L.str                     0x0001fbe3   Lc    1  Data  De   0x12
    107  .L.str.2                   0x0001fbf5   Lc    1  Data  De   0x12
    108  .L.str.1                   0x0001fc07   Lc    1  Data  De   0x11
    109  tinyusb_hid_generic.c      0x00000000   Lc  Abs  File  De 
    110  tud_hid_report             0x0001e755   Lc    1  Code  De   0x22
    111  blink_interval_ms          0x10000018   Lc    2  Data  De   0x4
    112  led_blinking_task.start_ms 0x10000abc   Lc    3  Data  De   0x4
    113  led_blinking_task.led_state
                                    0x10000ab8   Lc    3  Data  De   0x1
    114  usb_descriptors.c          0x00000000   Lc  Abs  File  De 
    115  .compoundliteral           0x0001f78a   Lc    1  Data  De   0x2
    116  _desc_str                  0x100000e4   Lc    3  Data  De   0x40
    117  usbd.c                     0x00000000   Lc  Abs  File  De 
    118  .L.str.2                   0x0001fb70   Lc    1  Data  De   0x17
    119  .L.str.14                  0x0001fb7e   Lc    1  Data  De   0x9
    120  .L.str.4                   0x0001fbc5   Lc    1  Data  De   0x3
    121  get_driver                 0x0001c419   Lc    1  Code  De   0x84
    122  osal_queue_create          0x0001d14d   Lc    1  Code  De   0x14
    123  osal_queue_receive         0x0001d161   Lc    1  Code  De   0x2e
    124  usbd_reset                 0x0001f5f9   Lc    1  Code  De   0x18
    125  tu_print_var               0x0001e339   Lc    1  Code  De   0x38
    126  process_control_request    0x0001d27d   Lc    1  Code  De   0x668
    127  tu_edpt_number             0x0001e071   Lc    1  Code  De   0x12
    128  tu_edpt_dir                0x0001e03d   Lc    1  Code  De   0x10
    129  osal_queue_send            0x0001d191   Lc    1  Code  De   0x9c
    130  tu_desc_next               0x0001df31   Lc    1  Code  De   0x12
    131  _osal_q_lock               0x000187d9   Lc    1  Code  De   0x1c
    132  _osal_q_unlock             0x000187f5   Lc    1  Code  De   0x1c
    133  configuration_reset        0x0001b92d   Lc    1  Code  De   0x7e
    134  invoke_class_control       0x0001cd7d   Lc    1  Code  De   0x36
    135  process_set_config         0x0001db7d   Lc    1  Code  De   0x2f2
    136  process_get_descriptor     0x0001d8e5   Lc    1  Code  De   0x298
    137  tu_desc_type               0x0001df65   Lc    1  Code  De   0xc
    138  tu_desc_len                0x0001df11   Lc    1  Code  De   0xc
    139  _app_driver_count          0x100000cc   Lc    3  Data  De   0x1
    140  .L.str.13                  0x0001fc36   Lc    1  Data  De   0x24
    141  .L.str.8                   0x0001fc5a   Lc    1  Data  De   0xe
    142  .L.str.10                  0x0001fc68   Lc    1  Data  De   0x16
    143  .L.str.54                  0x0001fc7e   Lc    1  Data  De   0x7
    144  .L.str.18                  0x0001fc85   Lc    1  Data  De   0x14
    145  .L.str.19                  0x0001fc99   Lc    1  Data  De   0x1a
    146  .L.str.57                  0x0001fcb3   Lc    1  Data  De   0xe
    147  .L.str.55                  0x0001fcc1   Lc    1  Data  De   0x15
    148  .L.str.7                   0x0001fcd6   Lc    1  Data  De   0xd
    149  .L.str.52                  0x0001fce3   Lc    1  Data  De   0xe
    150  .L.str.12                  0x0001fcf1   Lc    1  Data  De   0xb
    151  .L.str.53                  0x0001fcfc   Lc    1  Data  De   0xa
    152  .L.str                     0x0001fd06   Lc    1  Data  De   0x18
    153  .L.str.36                  0x0001fd1e   Lc    1  Data  De   0x36
    154  .L.str.56                  0x0001fd54   Lc    1  Data  De   0x1d
    155  .L.str.15                  0x0001fd70   Lc    1  Data  De   0x27
    156  .L.str.37                  0x0001fd71   Lc    1  Data  De   0x1b
    157  .L.str.38                  0x0001fd8c   Lc    1  Data  De   0x1c
    158  .L__func__.usbd_edpt_xfer_fifo
                                    0x0001fd97   Lc    1  Data  De   0x14
    159  .L.str.58                  0x0001fda8   Lc    1  Data  De   0x14
    160  .L.str.16                  0x0001fdab   Lc    1  Data  De   0x5
    161  .L.str.17                  0x0001fdb0   Lc    1  Data  De   0x9
    162  .L.str.9                   0x0001fdbc   Lc    1  Data  De   0x1b
    163  .L.str.1                   0x0001fdd7   Lc    1  Data  De   0xc
    164  .L.str.3                   0x0001fde3   Lc    1  Data  De   0xa
    165  .L__func__.usbd_edpt_close 0x0001fde7   Lc    1  Data  De   0x10
    166  .L.str.51                  0x0001fded   Lc    1  Data  De   0x17
    167  .L.str.20                  0x0001fdf7   Lc    1  Data  De   0x1d
    168  .L.str.11                  0x0001fe04   Lc    1  Data  De   0x17
    169  .L.str.34                  0x0001fe1b   Lc    1  Data  De   0x6
    170  .L.str.5                   0x0001fe21   Lc    1  Data  De   0x9
    171  .L.str.6                   0x0001fe2a   Lc    1  Data  De   0xa
    172  .L__func__.osal_queue_send 0x0001fe6e   Lc    1  Data  De   0x10
    173  .L__func__.process_set_config
                                    0x0001fed5   Lc    1  Data  De   0x13
    174  .L__func__.tud_task        0x0001feed   Lc    1  Data  De   0x9
    175  .L__func__.usbd_edpt_open  0x0001ff05   Lc    1  Data  De   0xf
    176  .L__func__.usbd_edpt_xfer  0x0001ff38   Lc    1  Data  De   0xf
    177  .L__func__.usbd_open_edpt_pair
                                    0x0001ff47   Lc    1  Data  De   0x14
    178  .L__func__.process_get_descriptor
                                    0x0001ff79   Lc    1  Data  De   0x17
    179  .L.str.35                  0x0001ff90   Lc    1  Data  De   0x5
    180  .L__func__.tud_init        0x0001ffb6   Lc    1  Data  De   0x9
    181  .L__func__.process_control_request
                                    0x0001ffbf   Lc    1  Data  De   0x18
    182  _usbd_dev                  0x100001b0   Lc    3  Data  De   0x33
    183  _usbd_initialized          0x100001e3   Lc    3  Data  De   0x1
    184  _usbd_q                    0x100001e4   Lc    3  Data  De   0x4
    185  _app_driver                0x100000c8   Lc    3  Data  De   0x4
    186  _usbd_event_str            0x0001f7e8   Lc    1  Data  De   0x24
    187  _tusb_speed_str            0x0001f78c   Lc    1  Data  De   0xc
    188  _usbd_driver               0x0001f7cc   Lc    1  Data  De   0x1c
    189  _tusb_std_request_str      0x0001f798   Lc    1  Data  De   0x34
    190  usbd_control.c             0x00000000   Lc  Abs  File  De 
    191  .L.str                     0x0001fb70   Lc    1  Data  De   0x17
    192  _status_stage_xact         0x00018811   Lc    1  Code  De   0x3e
    193  _data_stage_xact           0x000186d1   Lc    1  Code  De   0x8a
    194  tu_edpt_dir                0x0001e04d   Lc    1  Code  De   0x10
    195  _ctrl_xfer                 0x100000d0   Lc    3  Data  De   0x14
    196  .L.str.3                   0x0001ffdb   Lc    1  Data  De   0x20
    197  .L.str.1                   0x0001fffb   Lc    1  Data  De   0x2a
    198  .L.str.2                   0x00020025   Lc    1  Data  De   0x22
    199  .L__func__.usbd_control_xfer_cb
                                    0x00020047   Lc    1  Data  De   0x15
    200  .L__func__.tud_control_xfer
                                    0x0002005c   Lc    1  Data  De   0x11
    201  hid_device.c               0x00000000   Lc  Abs  File  De 
    202  .L.str                     0x0001fb70   Lc    1  Data  De   0x17
    203  tu_desc_next               0x0001df45   Lc    1  Code  De   0x12
    204  tu_desc_type               0x0001df71   Lc    1  Code  De   0xc
    205  get_index_by_itfnum        0x0001c49d   Lc    1  Code  De   0x5c
    206  _hidd_itf                  0x10000124   Lc    3  Data  De   0x8c
    207  .L.str.1                   0x0002006d   Lc    1  Data  De   0x11
    208  .L__PRETTY_FUNCTION__.hidd_open
                                    0x0002007e   Lc    1  Data  De   0x45
    209  .L__func__.hidd_xfer_cb    0x000200c3   Lc    1  Data  De   0xd
    210  .L__func__.hidd_control_xfer_cb
                                    0x000200d0   Lc    1  Data  De   0x15
    211  .L__func__.hidd_open       0x000200e5   Lc    1  Data  De   0xa
    212  am_util_delay.c            0x00000000   Lc  Abs  File  De 
    213  am_util_id.c               0x00000000   Lc  Abs  File  De 
    214  revmaj_get                 0x0001dec5   Lc    1  Code  De   0x14
    215  chiprev_set                0x0001b8f9   Lc    1  Code  De   0x34
    216  g_ui8DeviceNameUnknown     0x0001fb38   Lc    1  Data  De   0xf
    217  g_ui8VendorNameUnknown     0x0001fb4c   Lc    1  Data  De   0x5
    218  g_ui8VendorNameAmbq        0x0001fb47   Lc    1  Data  De   0x5
    219  g_DeviceNameApollo4p       0x0001fa9e   Lc    1  Data  De   0xd
    220  g_DeviceNameApollo4p_blue  0x0001faab   Lc    1  Data  De   0x12
    221  g_PackageType              0x0001fabd   Lc    1  Data  De   0x10
    222  g_TempRange                0x0001facd   Lc    1  Data  De   0x2c
    223  am_util_stdio.c            0x00000000   Lc  Abs  File  De 
    224  decstr_to_int              0x0001c029   Lc    1  Code  De   0xa6
    225  simple_strlen              0x0001ded9   Lc    1  Code  De   0x36
    226  padbuffer                  0x0001d22d   Lc    1  Code  De   0x50
    227  ndigits_in_hex             0x0001ce35   Lc    1  Code  De   0x3e
    228  uint64_to_hexstr           0x0001ed4d   Lc    1  Code  De   0xc0
    229  ndigits_in_u64             0x0001cea5   Lc    1  Code  De   0x3c
    230  uint64_to_str              0x0001ee0d   Lc    1  Code  De   0x88
    231  ndigits_in_i64             0x0001ce75   Lc    1  Code  De   0x30
    232  ftoa                       0x0001c1e9   Lc    1  Code  De   0x230
    233  divu64_10                  0x0001c0d1   Lc    1  Code  De   0x118
    234  g_bTxtXlate                0x100006a1   Lc    3  Data  De   0x1
    235  g_prfbuf                   0x100006b0   Lc    3  Data  De   0x400
    236  .L.str                     0x000200ef   Lc    1  Data  De   0x13
    237  ../keil6/startup_keil6.s   0x00000000   Lc  Abs  File  De 
    238  STACK                      0x100012c8   Lc    3  Sect  De   0x2b00
    239  StackMem                   0x100012c8   Lc    3  Data  De 
    240  HEAP                       0x100012c8   Lc    3  Sect  De 
    241  HeapMem                    0x100012c8   Lc    3  Data  De 
    242  RESET                      0x00018000   Lc    1  Sect  De   0x234
    243  $v0                        0x00018200   Lc    1   --   De 
    244  am_cryptosec_isr           0x0001822f   Lc    1  Code  De 
    245  am_default_isr             0x0001822f   Lc    1  Code  De   0x2
    246  .text                      0x000182d4   Lc    1  Sect  De   0x18
    247  $v0                        0x000182d4   Lc    1   --   De 
    248  am_hal_cachectrl.c         0x00000000   Lc  Abs  File  De 
    249  am_hal_interrupt.c         0x00000000   Lc  Abs  File  De 
    250  am_hal_mcuctrl.c           0x00000000   Lc  Abs  File  De 
    251  g_am_hal_mcuctrl_sku_mram_size
                                    0x0001972c   Lc    1   --   De 
    252  g_am_hal_mcuctrl_sku_ssram_size
                                    0x0001fa30   Lc    1  Data  De   0x10
    253  am_hal_utils.c             0x00000000   Lc  Abs  File  De 
    254  am_hal_usb.c               0x00000000   Lc  Abs  File  De 
    255  am_hal_usb_ep0_handle_setup_req
                                    0x00019e89   Lc    1  Code  De   0x4e
    256  g_am_hal_usb_states        0x10000598   Lc    3  Data  De   0x108
    257  g_ui32XtalFreq             0x10000044   Lc    2  Data  De   0x4
    258  am_bsp.c                   0x00000000   Lc  Abs  File  De 
    259  g_ePrintInterface          0x100006a2   Lc    3  Data  De   0x1
    260  g_sCOMUART                 0x10000ab0   Lc    3  Data  De   0x4
    261  g_sBspUartConfig           0x0001fb2c   Lc    1  Data  De   0xc
    262  pui8UartTxBuffer           0x10000ec4   Lc    3  Data  De   0x400
    263  pui8UartRxBuffer           0x10000ac4   Lc    3  Data  De   0x400
    264  am_hal_bootrom_helper.c    0x00000000   Lc  Abs  File  De 
    265  am_hal_clkgen.c            0x00000000   Lc  Abs  File  De 
    266  am_hal_itm.c               0x00000000   Lc  Abs  File  De 
    267  am_hal_rtc.c               0x00000000   Lc  Abs  File  De 
    268  am_hal_tpiu.c              0x00000000   Lc  Abs  File  De 
    269  am_hal_uart.c              0x00000000   Lc  Abs  File  De 
    270  nonblocking_write          0x0001d00b   Lc    1  Code  De   0x38
    271  nonblocking_read           0x0001cee1   Lc    1  Code  De   0x38
    272  nonblocking_read_sm        0x0001cf19   Lc    1  Code  De   0xf2
    273  nonblocking_write_sm       0x0001d045   Lc    1  Code  De   0x108
    274  am_hal_dcu.c               0x00000000   Lc  Abs  File  De 
    275  am_hal_gpio.c              0x00000000   Lc  Abs  File  De 
    276  g_ui32DSpintbl             0x000191e0   Lc    1   --   De 
    277  am_hal_pwrctrl.c           0x00000000   Lc  Abs  File  De 
    278  g_bBoostForCryptoApplied   0x100006a0   Lc    3  Data  De   0x1
    279  g_i32LatestVddfActTrim     0x100006a8   Lc    3  Data  De   0x4
    280  g_i32LatestLDOActTrim      0x100006a4   Lc    3  Data  De   0x4
    281  g_ui32VDDFAdjustCodes      0x10000ab4   Lc    3  Data  De   0x4
    282  am_bsp_pins.c              0x00000000   Lc  Abs  File  De 
    283  am_hal_mram.c              0x00000000   Lc  Abs  File  De 
    284  am_hal_adc.c               0x00000000   Lc  Abs  File  De 
    285  am_hal_pin.c               0x00000000   Lc  Abs  File  De 
    286  am_hal_queue.c             0x00000000   Lc  Abs  File  De 
    287  dc.s                       0x00000000   Lc  Abs  File  De 
    288  ../clib/angel/rt.s         0x00000000   Lc  Abs  File  De 
    289  ../clib/longlong.s         0x00000000   Lc  Abs  File  De 
    290  .text                      0x000182ec   Lc    1  Sect  De   0xf0
    291  ../clib/string.c           0x00000000   Lc  Abs  File  De 
    292  .text                      0x000183dc   Lc    1  Sect  De 
    293  ../clib/memcpset.s         0x00000000   Lc  Abs  File  De 
    294  .text                      0x0001841a   Lc    1  Sect  De   0x8a
    295  ../clib/memcpset.s         0x00000000   Lc  Abs  File  De 
    296  .text                      0x000184a4   Lc    1  Sect  De   0x10
    297  ../clib/memcpset.s         0x00000000   Lc  Abs  File  De 
    298  .text                      0x000184b4   Lc    1  Sect  De   0x44
    299  ../clib/memcpset.s         0x00000000   Lc  Abs  File  De 
    300  .text                      0x000184f8   Lc    1  Sect  De   0x4e
    301  ../clib/heapaux.c          0x00000000   Lc  Abs  File  De 
    302  .text                      0x00018546   Lc    1  Sect  De 
    303  ../clib/angel/startup.s    0x00000000   Lc  Abs  File  De 
    304  !!!main                    0x00018234   Lc    1  Sect  De   0x8
    305  ../clib/angel/handlers.s   0x00000000   Lc  Abs  File  De 
    306  !!handler_copy             0x00018270   Lc    1  Sect  De   0x1a
    307  ../fplib/d2f.s             0x00000000   Lc  Abs  File  De 
    308  x$fpl$d2f                  0x0001f668   Lc    1  Sect  De   0x62
    309  $v0                        0x0001f668   Lc    1   --   De 
    310  ../clib/angel/kernel.s     0x00000000   Lc  Abs  File  De 
    311  .ARM.Collect$$rtentry$$00000000
                                    0x000182b4   Lc    1  Sect  De 
    312  ../clib/angel/rt.s         0x00000000   Lc  Abs  File  De 
    313  ../clib/angel/rt.s         0x00000000   Lc  Abs  File  De 
    314  ../clib/angel/rt.s         0x00000000   Lc  Abs  File  De 
    315  ../clib/angel/rt.s         0x00000000   Lc  Abs  File  De 
    316  ../clib/locale.s           0x00000000   Lc  Abs  File  De 
    317  ../clib/memcpset.s         0x00000000   Lc  Abs  File  De 
    318  .text                      0x0001854c   Lc    1  Sect  De   0x64
    319  ../fplib/dnaninf.s         0x00000000   Lc  Abs  File  De 
    320  x$fpl$dnaninf              0x0001f6ca   Lc    1  Sect  De   0x9c
    321  $v0                        0x0001f6ca   Lc    1   --   De 
    322  ../fplib/fretinf.s         0x00000000   Lc  Abs  File  De 
    323  x$fpl$fretinf              0x0001f780   Lc    1  Sect  De   0xa
    324  $v0                        0x0001f780   Lc    1   --   De 
    325  ../fplib/usenofp.s         0x00000000   Lc  Abs  File  De 
    326  x$fpl$usenofp              0x0001f78a   Lc    1  Sect  De 
    327  ../clib/angel/sys.s        0x00000000   Lc  Abs  File  De 
    328  .text                      0x000185b0   Lc    1  Sect  De   0x8
    329  .bss                       0x10000068   Lc    3  Sect  De   0x60
    330  ../clib/angel/kernel.s     0x00000000   Lc  Abs  File  De 
    331  .ARM.Collect$$rtentry$$00000002
                                    0x000182b4   Lc    1  Sect  De 
    332  .ARM.Collect$$rtentry$$00000009
                                    0x000182ba   Lc    1  Sect  De 
    333  .ARM.Collect$$rtentry$$0000000A
                                    0x000182ba   Lc    1  Sect  De   0x4
    334  .ARM.Collect$$rtentry$$0000000C
                                    0x000182be   Lc    1  Sect  De 
    335  .ARM.Collect$$rtentry$$0000000D
                                    0x000182be   Lc    1  Sect  De   0x8
    336  ../clib/angel/kernel.s     0x00000000   Lc  Abs  File  De 
    337  .ARM.Collect$$rtentry$$00000004
                                    0x000182b4   Lc    1  Sect  De   0x6
    338  ../clib/angel/rt.s         0x00000000   Lc  Abs  File  De 
    339  ../clib/memcpset.s         0x00000000   Lc  Abs  File  De 
    340  ../clib/libinit.s          0x00000000   Lc  Abs  File  De 
    341  .ARM.Collect$$libinit$$00000001
                                    0x000182aa   Lc    1  Sect  De   0x4
    342  .ARM.Collect$$libinit$$00000004
                                    0x000182ae   Lc    1  Sect  De 
    343  .ARM.Collect$$libinit$$0000000A
                                    0x000182ae   Lc    1  Sect  De 
    344  .ARM.Collect$$libinit$$0000000C
                                    0x000182ae   Lc    1  Sect  De 
    345  .ARM.Collect$$libinit$$0000000E
                                    0x000182ae   Lc    1  Sect  De 
    346  .ARM.Collect$$libinit$$00000011
                                    0x000182ae   Lc    1  Sect  De 
    347  .ARM.Collect$$libinit$$00000013
                                    0x000182ae   Lc    1  Sect  De 
    348  .ARM.Collect$$libinit$$00000015
                                    0x000182ae   Lc    1  Sect  De 
    349  .ARM.Collect$$libinit$$00000017
                                    0x000182ae   Lc    1  Sect  De 
    350  .ARM.Collect$$libinit$$00000019
                                    0x000182ae   Lc    1  Sect  De 
    351  .ARM.Collect$$libinit$$0000001B
                                    0x000182ae   Lc    1  Sect  De 
    352  .ARM.Collect$$libinit$$0000001D
                                    0x000182ae   Lc    1  Sect  De 
    353  .ARM.Collect$$libinit$$0000001F
                                    0x000182ae   Lc    1  Sect  De 
    354  .ARM.Collect$$libinit$$00000021
                                    0x000182ae   Lc    1  Sect  De 
    355  .ARM.Collect$$libinit$$00000023
                                    0x000182ae   Lc    1  Sect  De 
    356  .ARM.Collect$$libinit$$00000025
                                    0x000182ae   Lc    1  Sect  De 
    357  .ARM.Collect$$libinit$$0000002C
                                    0x000182ae   Lc    1  Sect  De 
    358  .ARM.Collect$$libinit$$0000002E
                                    0x000182ae   Lc    1  Sect  De 
    359  .ARM.Collect$$libinit$$00000030
                                    0x000182ae   Lc    1  Sect  De 
    360  .ARM.Collect$$libinit$$00000032
                                    0x000182ae   Lc    1  Sect  De 
    361  .ARM.Collect$$libinit$$00000033
                                    0x000182ae   Lc    1  Sect  De   0x2
    362  ../clib/angel/sys.s        0x00000000   Lc  Abs  File  De 
    363  .text                      0x000185b8   Lc    1  Sect  De   0x4a
    364  ../clib/stdlib.c           0x00000000   Lc  Abs  File  De 
    365  .text                      0x00018602   Lc    1  Sect  De 
    366  ../clib/signal.c           0x00000000   Lc  Abs  File  De 
    367  ../clib/signal.c           0x00000000   Lc  Abs  File  De 
    368  ../clib/angel/boardlib.s   0x00000000   Lc  Abs  File  De 
    369  ../clib/angel/boardlib.s   0x00000000   Lc  Abs  File  De 
    370  ../clib/angel/boardlib.s   0x00000000   Lc  Abs  File  De 
    371  ../clib/armsys.c           0x00000000   Lc  Abs  File  De 
    372  ../clib/armsys.c           0x00000000   Lc  Abs  File  De 
    373  ../clib/libinit.s          0x00000000   Lc  Abs  File  De 
    374  .ARM.Collect$$libinit$$00000000
                                    0x000182a8   Lc    1  Sect  De   0x2
    375  ../fplib/fpinit.s          0x00000000   Lc  Abs  File  De 
    376  x$fpl$fpinit               0x0001f766   Lc    1  Sect  De   0x1a
    377  $v0                        0x0001f766   Lc    1   --   De 
    378  ../clib/angel/kernel.s     0x00000000   Lc  Abs  File  De 
    379  .ARM.Collect$$rtexit$$00000000
                                    0x000182c6   Lc    1  Sect  De   0x2
    380  ../clib/angel/rt.s         0x00000000   Lc  Abs  File  De 
    381  ../clib/signal.c           0x00000000   Lc  Abs  File  De 
    382  ../clib/signal.c           0x00000000   Lc  Abs  File  De 
    383  ../clib/armsys.c           0x00000000   Lc  Abs  File  De 
    384  ../clib/armsys.c           0x00000000   Lc  Abs  File  De 
    385  ../clib/angel/sysapp.c     0x00000000   Lc  Abs  File  De 
    386  ../clib/angel/sysapp.c     0x00000000   Lc  Abs  File  De 
    387  .text                      0x00018614   Lc    1  Sect  De 
    388  ../clib/angel/sysapp.c     0x00000000   Lc  Abs  File  De 
    389  ../clib/angel/sysapp.c     0x00000000   Lc  Abs  File  De 
    390  ../clib/angel/kernel.s     0x00000000   Lc  Abs  File  De 
    391  .ARM.Collect$$rtexit$$00000002
                                    0x000182c8   Lc    1  Sect  De 
    392  .ARM.Collect$$rtexit$$00000003
                                    0x000182c8   Lc    1  Sect  De   0x4
    393  .ARM.Collect$$rtexit$$00000004
                                    0x000182cc   Lc    1  Sect  De   0x6
    394  ../clib/heapalloc.c        0x00000000   Lc  Abs  File  De 
    395  ../clib/signal.c           0x00000000   Lc  Abs  File  De 
    396  ../clib/signal.c           0x00000000   Lc  Abs  File  De 
    397  ../clib/signal.c           0x00000000   Lc  Abs  File  De 
    398  ../clib/signal.c           0x00000000   Lc  Abs  File  De 
    399  ../clib/angel/sysapp.c     0x00000000   Lc  Abs  File  De 
    400  ../clib/angel/sysapp.c     0x00000000   Lc  Abs  File  De 
    401  ../clib/angel/sys.s        0x00000000   Lc  Abs  File  De 
    402  .text                      0x00018620   Lc    1  Sect  De   0x2
    403  ../clib/angel/sys.s        0x00000000   Lc  Abs  File  De 
    404  .text                      0x00018622   Lc    1  Sect  De 
    405  ../clib/signal.c           0x00000000   Lc  Abs  File  De 
    406  ../clib/signal.s           0x00000000   Lc  Abs  File  De 
    407  ../clib/angel/boardlib.s   0x00000000   Lc  Abs  File  De 
    408  ../clib/libinit.s          0x00000000   Lc  Abs  File  De 
    409  .ARM.Collect$$libshutdown$$00000000
                                    0x000182b0   Lc    1  Sect  De   0x2
    410  ../clib/signal.c           0x00000000   Lc  Abs  File  De 
    411  ../clib/signal.c           0x00000000   Lc  Abs  File  De 
    412  ../clib/signal.c           0x00000000   Lc  Abs  File  De 
    413  ../clib/signal.c           0x00000000   Lc  Abs  File  De 
    414  ../clib/signal.c           0x00000000   Lc  Abs  File  De 
    415  ../clib/signal.c           0x00000000   Lc  Abs  File  De 
    416  ../clib/signal.c           0x00000000   Lc  Abs  File  De 
    417  ../clib/libinit.s          0x00000000   Lc  Abs  File  De 
    418  .ARM.Collect$$libshutdown$$00000002
                                    0x000182b2   Lc    1  Sect  De 
    419  .ARM.Collect$$libshutdown$$00000004
                                    0x000182b2   Lc    1  Sect  De 
    420  .ARM.Collect$$libshutdown$$00000007
                                    0x000182b2   Lc    1  Sect  De 
    421  .ARM.Collect$$libshutdown$$0000000A
                                    0x000182b2   Lc    1  Sect  De 
    422  .ARM.Collect$$libshutdown$$0000000C
                                    0x000182b2   Lc    1  Sect  De 
    423  .ARM.Collect$$libshutdown$$0000000F
                                    0x000182b2   Lc    1  Sect  De 
    424  .ARM.Collect$$libshutdown$$00000010
                                    0x000182b2   Lc    1  Sect  De   0x2
    425  ../clib/angel/scatter.s    0x00000000   Lc  Abs  File  De 
    426  !!!scatter                 0x0001823c   Lc    1  Sect  De   0x34
    427  ../clib/angel/handlers.s   0x00000000   Lc  Abs  File  De 
    428  !!handler_zi               0x0001828c   Lc    1  Sect  De   0x1c
    429  BuildAttributes$$THM_ISAv4$E$P$D$K$B$S$7EM$VFPi3$EXTD16$VFPS$VFMA$PE$A:L22UL41UL21$X:L11$S22US41US21$IEEE1$IW$~IW$USESV6$~STKCKD$USESV7$~SHL$OSPACE$ROPI$EBA8$UX$STANDARDLIB$REQ8$PRES8$EABIv2
                                    0x00000000   Gb  Abs   --   Hi 
    430  __Vectors                  0x00018000   Gb    1  Data  Hi 
    431  __Patchable                0x00018190   Gb    1  Data  Hi 
    432  Reset_Handler              0x00018201   Wk    1  Code  Hi   0x1c
    433  HardFault_Handler          0x0001821d   Wk    1  Code  Hi   0x2
    434  NMI_Handler                0x0001821f   Wk    1  Code  Hi   0x2
    435  MemManage_Handler          0x00018221   Wk    1  Code  Hi   0x2
    436  BusFault_Handler           0x00018223   Wk    1  Code  Hi   0x2
    437  UsageFault_Handler         0x00018225   Wk    1  Code  Hi   0x2
    438  SVC_Handler                0x00018227   Wk    1  Code  Hi   0x2
    439  DebugMon_Handler           0x00018229   Wk    1  Code  Hi   0x2
    440  PendSV_Handler             0x0001822b   Wk    1  Code  Hi   0x2
    441  SysTick_Handler            0x0001822d   Wk    1  Code  Hi   0x2
    442  am_adc_isr                 0x0001822f   Wk    1  Code  Hi 
    443  am_audadc0_isr             0x0001822f   Wk    1  Code  Hi 
    444  am_brownout_isr            0x0001822f   Wk    1  Code  Hi 
    445  am_cachecpu_isr            0x0001822f   Wk    1  Code  Hi 
    446  am_clkgen_isr              0x0001822f   Wk    1  Code  Hi 
    447  am_ctimer_isr              0x0001822f   Wk    1  Code  Hi 
    448  am_disp_isr                0x0001822f   Wk    1  Code  Hi 
    449  am_dsi_isr                 0x0001822f   Wk    1  Code  Hi 
    450  am_dspi2s0_isr             0x0001822f   Wk    1  Code  Hi 
    451  am_dspi2s1_isr             0x0001822f   Wk    1  Code  Hi 
    452  am_dspi2s2_isr             0x0001822f   Wk    1  Code  Hi 
    453  am_dspi2s3_isr             0x0001822f   Wk    1  Code  Hi 
    454  am_gpio0_001f_isr          0x0001822f   Wk    1  Code  Hi 
    455  am_gpio0_203f_isr          0x0001822f   Wk    1  Code  Hi 
    456  am_gpio0_405f_isr          0x0001822f   Wk    1  Code  Hi 
    457  am_gpio0_607f_isr          0x0001822f   Wk    1  Code  Hi 
    458  am_gpio1_001f_isr          0x0001822f   Wk    1  Code  Hi 
    459  am_gpio1_203f_isr          0x0001822f   Wk    1  Code  Hi 
    460  am_gpio1_405f_isr          0x0001822f   Wk    1  Code  Hi 
    461  am_gpio1_607f_isr          0x0001822f   Wk    1  Code  Hi 
    462  am_gpu_isr                 0x0001822f   Wk    1  Code  Hi 
    463  am_iomaster0_isr           0x0001822f   Wk    1  Code  Hi 
    464  am_iomaster1_isr           0x0001822f   Wk    1  Code  Hi 
    465  am_iomaster2_isr           0x0001822f   Wk    1  Code  Hi 
    466  am_iomaster3_isr           0x0001822f   Wk    1  Code  Hi 
    467  am_iomaster4_isr           0x0001822f   Wk    1  Code  Hi 
    468  am_iomaster5_isr           0x0001822f   Wk    1  Code  Hi 
    469  am_iomaster6_isr           0x0001822f   Wk    1  Code  Hi 
    470  am_iomaster7_isr           0x0001822f   Wk    1  Code  Hi 
    471  am_ioslave_acc_isr         0x0001822f   Wk    1  Code  Hi 
    472  am_ioslave_ios_isr         0x0001822f   Wk    1  Code  Hi 
    473  am_mspi0_isr               0x0001822f   Wk    1  Code  Hi 
    474  am_mspi1_isr               0x0001822f   Wk    1  Code  Hi 
    475  am_mspi2_isr               0x0001822f   Wk    1  Code  Hi 
    476  am_pdm0_isr                0x0001822f   Wk    1  Code  Hi 
    477  am_pdm1_isr                0x0001822f   Wk    1  Code  Hi 
    478  am_pdm2_isr                0x0001822f   Wk    1  Code  Hi 
    479  am_pdm3_isr                0x0001822f   Wk    1  Code  Hi 
    480  am_rtc_isr                 0x0001822f   Wk    1  Code  Hi 
    481  am_sdio_isr                0x0001822f   Wk    1  Code  Hi 
    482  am_stimer_cmpr0_isr        0x0001822f   Wk    1  Code  Hi 
    483  am_stimer_cmpr1_isr        0x0001822f   Wk    1  Code  Hi 
    484  am_stimer_cmpr2_isr        0x0001822f   Wk    1  Code  Hi 
    485  am_stimer_cmpr3_isr        0x0001822f   Wk    1  Code  Hi 
    486  am_stimer_cmpr4_isr        0x0001822f   Wk    1  Code  Hi 
    487  am_stimer_cmpr5_isr        0x0001822f   Wk    1  Code  Hi 
    488  am_stimer_cmpr6_isr        0x0001822f   Wk    1  Code  Hi 
    489  am_stimer_cmpr7_isr        0x0001822f   Wk    1  Code  Hi 
    490  am_stimerof_isr            0x0001822f   Wk    1  Code  Hi 
    491  am_timer00_isr             0x0001822f   Wk    1  Code  Hi 
    492  am_timer01_isr             0x0001822f   Wk    1  Code  Hi 
    493  am_timer02_isr             0x0001822f   Wk    1  Code  Hi 
    494  am_timer03_isr             0x0001822f   Wk    1  Code  Hi 
    495  am_timer04_isr             0x0001822f   Wk    1  Code  Hi 
    496  am_timer05_isr             0x0001822f   Wk    1  Code  Hi 
    497  am_timer06_isr             0x0001822f   Wk    1  Code  Hi 
    498  am_timer07_isr             0x0001822f   Wk    1  Code  Hi 
    499  am_timer08_isr             0x0001822f   Wk    1  Code  Hi 
    500  am_timer09_isr             0x0001822f   Wk    1  Code  Hi 
    501  am_timer10_isr             0x0001822f   Wk    1  Code  Hi 
    502  am_timer11_isr             0x0001822f   Wk    1  Code  Hi 
    503  am_timer12_isr             0x0001822f   Wk    1  Code  Hi 
    504  am_timer13_isr             0x0001822f   Wk    1  Code  Hi 
    505  am_timer14_isr             0x0001822f   Wk    1  Code  Hi 
    506  am_timer15_isr             0x0001822f   Wk    1  Code  Hi 
    507  am_uart1_isr               0x0001822f   Wk    1  Code  Hi 
    508  am_uart2_isr               0x0001822f   Wk    1  Code  Hi 
    509  am_uart3_isr               0x0001822f   Wk    1  Code  Hi 
    510  am_uart_isr                0x0001822f   Wk    1  Code  Hi 
    511  am_vcomp_isr               0x0001822f   Wk    1  Code  Hi 
    512  am_watchdog_isr            0x0001822f   Wk    1  Code  Hi 
    513  __main                     0x00018235   Gb    1  Code  Hi   0x8
    514  __scatterload              0x0001823d   Gb    1  Code  Hi 
    515  __scatterload_rt2          0x0001823d   Gb    1  Code  Hi   0x2c
    516  __scatterload_rt2_thumb_only
                                    0x0001823d   Gb    1  Code  Hi 
    517  __scatterload_null         0x0001824b   Gb    1  Code  Hi 
    518  __scatterload_copy         0x00018271   Gb    1  Code  Hi   0x1a
    519  __scatterload_zeroinit     0x0001828d   Gb    1  Code  Hi   0x1c
    520  __rt_lib_init              0x000182a9   Gb    1  Code  De 
    521  __rt_lib_init_fp_1         0x000182ab   Gb    1  Code  Hi 
    522  __rt_lib_init_alloca_1     0x000182af   Gb    1  Code  Hi 
    523  __rt_lib_init_argv_1       0x000182af   Gb    1  Code  Hi 
    524  __rt_lib_init_atexit_1     0x000182af   Gb    1  Code  Hi 
    525  __rt_lib_init_clock_1      0x000182af   Gb    1  Code  Hi 
    526  __rt_lib_init_cpp_1        0x000182af   Gb    1  Code  Hi 
    527  __rt_lib_init_exceptions_1 0x000182af   Gb    1  Code  Hi 
    528  __rt_lib_init_fp_trap_1    0x000182af   Gb    1  Code  Hi 
    529  __rt_lib_init_getenv_1     0x000182af   Gb    1  Code  Hi 
    530  __rt_lib_init_heap_1       0x000182af   Gb    1  Code  Hi 
    531  __rt_lib_init_lc_collate_1 0x000182af   Gb    1  Code  Hi 
    532  __rt_lib_init_lc_ctype_1   0x000182af   Gb    1  Code  Hi 
    533  __rt_lib_init_lc_monetary_1
                                    0x000182af   Gb    1  Code  Hi 
    534  __rt_lib_init_lc_numeric_1 0x000182af   Gb    1  Code  Hi 
    535  __rt_lib_init_lc_time_1    0x000182af   Gb    1  Code  Hi 
    536  __rt_lib_init_preinit_1    0x000182af   Gb    1  Code  Hi 
    537  __rt_lib_init_rand_1       0x000182af   Gb    1  Code  Hi 
    538  __rt_lib_init_return       0x000182af   Gb    1  Code  Hi 
    539  __rt_lib_init_signal_1     0x000182af   Gb    1  Code  Hi 
    540  __rt_lib_init_stdio_1      0x000182af   Gb    1  Code  Hi 
    541  __rt_lib_init_user_alloc_1 0x000182af   Gb    1  Code  Hi 
    542  __rt_lib_shutdown          0x000182b1   Gb    1  Code  De 
    543  __rt_lib_shutdown_cpp_1    0x000182b3   Gb    1  Code  Hi 
    544  __rt_lib_shutdown_fp_trap_1
                                    0x000182b3   Gb    1  Code  Hi 
    545  __rt_lib_shutdown_heap_1   0x000182b3   Gb    1  Code  Hi 
    546  __rt_lib_shutdown_return   0x000182b3   Gb    1  Code  Hi 
    547  __rt_lib_shutdown_signal_1 0x000182b3   Gb    1  Code  Hi 
    548  __rt_lib_shutdown_stdio_1  0x000182b3   Gb    1  Code  Hi 
    549  __rt_lib_shutdown_user_alloc_1
                                    0x000182b3   Gb    1  Code  Hi 
    550  __rt_entry                 0x000182b5   Gb    1  Code  Hi 
    551  __rt_entry_presh_1         0x000182b5   Gb    1  Code  Hi 
    552  __rt_entry_sh              0x000182b5   Gb    1  Code  Hi 
    553  __rt_entry_li              0x000182bb   Gb    1  Code  Hi 
    554  __rt_entry_postsh_1        0x000182bb   Gb    1  Code  Hi 
    555  __rt_entry_main            0x000182bf   Gb    1  Code  Hi 
    556  __rt_entry_postli_1        0x000182bf   Gb    1  Code  Hi 
    557  __rt_exit                  0x000182c7   Gb    1  Code  De 
    558  __rt_exit_ls               0x000182c9   Gb    1  Code  Hi 
    559  __rt_exit_prels_1          0x000182c9   Gb    1  Code  Hi 
    560  __rt_exit_exit             0x000182cd   Gb    1  Code  Hi 
    561  __user_initial_stackheap   0x000182d5   Gb    1  Code  Hi   0xa
    562  __aeabi_uldivmod           0x000182ed   Gb    1  Code  De 
    563  _ll_udiv                   0x000182ed   Gb    1  Code  De   0xf0
    564  strlen                     0x000183dd   Gb    1  Code  De   0x3e
    565  __aeabi_memcpy             0x0001841b   Gb    1  Code  De 
    566  __rt_memcpy                0x0001841b   Gb    1  Code  De   0x8a
    567  _memcpy_lastbytes          0x00018481   Gb    1  Code  De 
    568  __aeabi_memset             0x000184a5   Gb    1  Code  De   0x10
    569  __aeabi_memclr             0x000184b5   Gb    1  Code  De 
    570  __rt_memclr                0x000184b5   Gb    1  Code  De 
    571  _memset                    0x000184b9   Gb    1  Code  De   0x40
    572  __aeabi_memclr4            0x000184f9   Gb    1  Code  De 
    573  __aeabi_memclr8            0x000184f9   Gb    1  Code  De 
    574  __rt_memclr_w              0x000184f9   Gb    1  Code  De 
    575  _memset_w                  0x000184fd   Gb    1  Code  De   0x4a
    576  __use_two_region_memory    0x00018547   Gb    1  Code  Hi   0x2
    577  __rt_heap_escrow$2region   0x00018549   Gb    1  Code  De   0x2
    578  __rt_heap_expand$2region   0x0001854b   Gb    1  Code  De   0x2
    579  __aeabi_memcpy4            0x0001854d   Gb    1  Code  De 
    580  __aeabi_memcpy8            0x0001854d   Gb    1  Code  De 
    581  __rt_memcpy_w              0x0001854d   Gb    1  Code  De   0x64
    582  _memcpy_lastbytes_aligned  0x00018595   Gb    1  Code  De 
    583  __user_libspace            0x000185b1   Wk    1  Code  De   0x8
    584  __user_perproc_libspace    0x000185b1   Wk    1  Code  De 
    585  __user_perthread_libspace  0x000185b1   Wk    1  Code  De 
    586  __user_setup_stackheap     0x000185b9   Gb    1  Code  De   0x4a
    587  exit                       0x00018603   Gb    1  Code  De   0x12
    588  _sys_exit                  0x00018615   Gb    1  Code  De   0x8
    589  __I$use$semihosting        0x00018621   Gb    1  Code  Hi 
    590  __use_no_semihosting_swi   0x00018621   Gb    1  Code  Hi   0x2
    591  __semihosting_library_function
                                    0x00018623   Gb    1  Code  Hi 
    592  am_bsp_buffered_uart_printf_enable
                                    0x000189bf   Gb    1  Code  Hi   0xb6
    593  am_bsp_debug_printf_enable 0x00018a75   Gb    1  Code  Hi   0x26
    594  am_bsp_external_vddusb0p9_switch
                                    0x00018a9b   Gb    1  Code  Hi   0x20
    595  am_bsp_external_vddusb33_switch
                                    0x00018abb   Gb    1  Code  Hi   0x20
    596  am_bsp_itm_printf_enable   0x00018adb   Gb    1  Code  Hi   0x7c
    597  am_bsp_uart_printf_enable  0x00018b57   Gb    1  Code  Hi   0x76
    598  am_bsp_uart_string_print   0x00018bcd   Gb    1  Code  Hi   0x4a
    599  am_hal_cachectrl_config    0x00018c17   Gb    1  Code  Hi   0x44
    600  am_hal_cachectrl_enable    0x00018c5b   Gb    1  Code  Hi   0x1e
    601  am_hal_clkgen_control      0x00018c79   Gb    1  Code  Hi   0x2a2
    602  am_hal_dcu_get             0x00018f1d   Gb    1  Code  Hi   0x9a
    603  am_hal_dcu_update          0x00018fb9   Gb    1  Code  Hi   0xec
    604  am_hal_delay_us            0x000190a5   Gb    1  Code  Hi   0x36
    605  am_hal_delay_us_status_change
                                    0x000190dd   Gb    1  Code  Hi   0x54
    606  am_hal_delay_us_status_check
                                    0x00019131   Gb    1  Code  Hi   0x62
    607  am_hal_gpio_pinconfig      0x00019195   Gb    1  Code  Hi   0x4c
    608  am_hal_gpio_state_write    0x000191f1   Gb    1  Code  Hi   0xe8
    609  am_hal_interrupt_master_disable
                                    0x000192d9   Gb    1  Code  Hi   0x8
    610  am_hal_interrupt_master_enable
                                    0x000192e1   Gb    1  Code  Hi   0x8
    611  am_hal_interrupt_master_set
                                    0x000192e9   Gb    1  Code  Hi   0x6
    612  am_hal_itm_enable          0x000192f1   Gb    1  Code  Hi   0x42
    613  am_hal_itm_print           0x00019335   Gb    1  Code  Hi   0x2e
    614  am_hal_mcuctrl_control     0x00019365   Gb    1  Code  Hi   0x2ba
    615  am_hal_mcuctrl_info_get    0x00019621   Gb    1  Code  Hi   0x10c
    616  am_hal_pwrctrl_periph_disable
                                    0x00019735   Gb    1  Code  Hi   0x11e
    617  am_hal_pwrctrl_periph_enable
                                    0x00019853   Gb    1  Code  Hi   0xb2
    618  am_hal_queue_init          0x00019905   Gb    1  Code  Hi   0x18
    619  am_hal_queue_item_add      0x0001991d   Gb    1  Code  Hi   0x66
    620  am_hal_queue_item_get      0x00019985   Gb    1  Code  Hi   0x60
    621  am_hal_tpiu_enable         0x000199e5   Gb    1  Code  Hi   0x6c
    622  am_hal_uart_buffer_configure
                                    0x00019a51   Gb    1  Code  Hi   0x60
    623  am_hal_uart_configure      0x00019ab1   Gb    1  Code  Hi   0x170
    624  am_hal_uart_initialize     0x00019c35   Gb    1  Code  Hi   0x70
    625  am_hal_uart_power_control  0x00019ca5   Gb    1  Code  Hi   0xba
    626  am_hal_uart_transfer       0x00019d61   Gb    1  Code  Hi   0xb4
    627  am_hal_usb_attach          0x00019e15   Gb    1  Code  Hi   0x2a
    628  am_hal_usb_control         0x00019e3f   Gb    1  Code  Hi   0x22
    629  am_hal_usb_ep_clear_stall  0x00019ed7   Gb    1  Code  Hi   0x8e
    630  am_hal_usb_ep_init         0x00019f65   Gb    1  Code  Hi   0x1c0
    631  am_hal_usb_ep_stall        0x0001a125   Gb    1  Code  Hi   0x86
    632  am_hal_usb_ep_xfer         0x0001a1ad   Gb    1  Code  Hi   0x2ec
    633  am_hal_usb_initialize      0x0001a4a9   Gb    1  Code  Hi   0x38
    634  am_hal_usb_interrupt_service
                                    0x0001a4e1   Gb    1  Code  Hi   0x74c
    635  am_hal_usb_intr_status_get 0x0001ac2d   Gb    1  Code  Hi   0x42
    636  am_hal_usb_intr_usb_enable 0x0001ac6f   Gb    1  Code  Hi   0x30
    637  am_hal_usb_power_control   0x0001aca1   Gb    1  Code  Hi   0x188
    638  am_hal_usb_register_dev_evt_callback
                                    0x0001ae29   Gb    1  Code  Hi   0x26
    639  am_hal_usb_register_ep0_setup_received_callback
                                    0x0001ae4f   Gb    1  Code  Hi   0x26
    640  am_hal_usb_register_ep_xfer_complete_callback
                                    0x0001ae75   Gb    1  Code  Hi   0x26
    641  am_hal_usb_setHFRC2        0x0001ae9b   Gb    1  Code  Hi   0x96
    642  am_hal_usb_set_addr        0x0001af31   Gb    1  Code  Hi   0x30
    643  am_hal_usb_set_dev_speed   0x0001af61   Gb    1  Code  Hi   0x72
    644  am_hal_usb_set_dev_state   0x0001afd3   Gb    1  Code  Hi   0x36
    645  am_usb_isr                 0x0001b009   Gb    1  Code  Hi   0x2e
    646  am_util_delay_ms           0x0001b039   Gb    1  Code  Hi   0x16
    647  am_util_id_device          0x0001b051   Gb    1  Code  Hi   0x10a
    648  am_util_stdio_printf       0x0001b15d   Gb    1  Code  Hi   0x5c
    649  am_util_stdio_printf_init  0x0001b1b9   Gb    1  Code  Hi   0x14
    650  am_util_stdio_terminal_clear
                                    0x0001b1cd   Gb    1  Code  Hi   0x10
    651  am_util_stdio_vsprintf     0x0001b1dd   Gb    1  Code  Hi   0x654
    652  board_init                 0x0001b895   Gb    1  Code  Hi   0x52
    653  board_led_write            0x0001b8e9   Gb    1  Code  Hi   0xa
    654  board_millis               0x0001b8f5   Gb    1  Code  Hi   0x4
    655  crypto_boost_trims         0x0001b9ab   Gb    1  Code  Hi   0xd4
    656  dcd_edpt_clear_stall       0x0001ba81   Gb    1  Code  Hi   0x22
    657  dcd_edpt_close_all         0x0001baa5   Gb    1  Code  Hi   0xa
    658  dcd_edpt_open              0x0001bab1   Gb    1  Code  Hi   0x2e
    659  dcd_edpt_stall             0x0001bae1   Gb    1  Code  Hi   0x22
    660  dcd_edpt_xfer              0x0001bb05   Gb    1  Code  Hi   0x34
    661  dcd_event_bus_reset        0x0001bb39   Gb    1  Code  Hi   0x3e
    662  dcd_event_bus_signal       0x0001bb79   Gb    1  Code  Hi   0x38
    663  dcd_event_handler          0x0001bbb1   Gb    1  Code  Hi   0x14a
    664  dcd_event_setup_received   0x0001bcfd   Gb    1  Code  Hi   0x3e
    665  dcd_event_xfer_complete    0x0001bd3d   Gb    1  Code  Hi   0x54
    666  dcd_init                   0x0001bd91   Gb    1  Code  Hi   0xca
    667  dcd_int_disable            0x0001be5d   Gb    1  Code  Hi   0x12
    668  dcd_int_enable             0x0001be71   Gb    1  Code  Hi   0x1c
    669  dcd_set_address            0x0001be8d   Gb    1  Code  Hi   0x4c
    670  hidd_control_xfer_cb       0x0001c515   Gb    1  Code  Hi   0x44c
    671  hidd_init                  0x0001c961   Gb    1  Code  Hi   0xa
    672  hidd_open                  0x0001c96d   Gb    1  Code  Hi   0x278
    673  hidd_reset                 0x0001cbe5   Gb    1  Code  Hi   0x1a
    674  hidd_xfer_cb               0x0001cc01   Gb    1  Code  Hi   0x17a
    675  led_blinking_task          0x0001cdb5   Gb    1  Code  Hi   0x62
    676  main                       0x0001ce19   Gb    1  Code  Hi   0x1c
    677  read_transaction_save      0x0001de6f   Gb    1  Code  Hi   0x54
    678  tu_edpt_bind_driver        0x0001df9d   Gb    1  Code  Hi   0x8e
    679  tu_edpt_validate           0x0001e095   Gb    1  Code  Hi   0x1c8
    680  tu_fifo_clear              0x0001e25d   Gb    1  Code  Hi   0x2e
    681  tu_fifo_read               0x0001e28d   Gb    1  Code  Hi   0x3a
    682  tu_fifo_write              0x0001e2c9   Gb    1  Code  Hi   0x70
    683  tud_control_status         0x0001e371   Gb    1  Code  Hi   0x32
    684  tud_control_xfer           0x0001e3a5   Gb    1  Code  Hi   0x186
    685  tud_descriptor_configuration_cb
                                    0x0001e52d   Gb    1  Code  Hi   0x12
    686  tud_descriptor_device_cb   0x0001e541   Gb    1  Code  Hi   0xa
    687  tud_descriptor_string_cb   0x0001e54d   Gb    1  Code  Hi   0xce
    688  tud_hid_descriptor_report_cb
                                    0x0001e61d   Gb    1  Code  Hi   0x12
    689  tud_hid_get_report_cb      0x0001e631   Gb    1  Code  Hi   0x20
    690  tud_hid_n_report           0x0001e651   Gb    1  Code  Hi   0x104
    691  tud_hid_set_report_cb      0x0001e779   Gb    1  Code  Hi   0x2a
    692  tud_init                   0x0001e7a5   Gb    1  Code  Hi   0x144
    693  tud_inited                 0x0001e8e9   Gb    1  Code  Hi   0x10
    694  tud_task                   0x0001e8f9   Gb    1  Code  Hi   0x3c0
    695  tusb_init                  0x0001ecb9   Gb    1  Code  Hi   0x5c
    696  tusb_inited                0x0001ed15   Gb    1  Code  Hi   0x36
    697  usbd_control_reset         0x0001ee95   Gb    1  Code  Hi   0x16
    698  usbd_control_set_complete_callback
                                    0x0001eead   Gb    1  Code  Hi   0x14
    699  usbd_control_set_request   0x0001eec1   Gb    1  Code  Hi   0x22
    700  usbd_control_xfer_cb       0x0001eee5   Gb    1  Code  Hi   0x158
    701  usbd_driver_print_control_complete_name
                                    0x0001f03d   Gb    1  Code  Hi   0x5e
    702  usbd_edpt_claim            0x0001f09d   Gb    1  Code  Hi   0xb0
    703  usbd_edpt_clear_stall      0x0001f14d   Gb    1  Code  Hi   0x9a
    704  usbd_edpt_open             0x0001f1e9   Gb    1  Code  Hi   0xc4
    705  usbd_edpt_stall            0x0001f2ad   Gb    1  Code  Hi   0x9a
    706  usbd_edpt_stalled          0x0001f349   Gb    1  Code  Hi   0x46
    707  usbd_edpt_xfer             0x0001f391   Gb    1  Code  Hi   0x148
    708  usbd_open_edpt_pair        0x0001f4d9   Gb    1  Code  Hi   0x11e
    709  write_transaction_save     0x0001f611   Gb    1  Code  Hi   0x58
    710  __aeabi_d2f                0x0001f669   Gb    1  Code  De 
    711  _d2f                       0x0001f669   Gb    1  Code  De   0x62
    712  __fpl_dnaninf              0x0001f6cb   Gb    1  Code  De   0x9c
    713  _fp_init                   0x0001f767   Gb    1  Code  De   0x1a
    714  __fplib_config_fpu_vfp     0x0001f77f   Gb    1  Code  De 
    715  __fplib_config_pureend_doubles
                                    0x0001f77f   Gb    1  Code  De 
    716  __fpl_fretinf              0x0001f781   Gb    1  Code  De   0xa
    717  __I$use$fp                 0x0001f78a   Gb    1   --   De 
    718  am_hal_cachectrl_defaults  0x0001f80c   Gb    1  Data  Hi   0x3
    719  am_hal_pwrctrl_peripheral_control
                                    0x0001f810   Gb    1  Data  Hi   0x220
    720  desc_configuration         0x0001fa40   Gb    1  Data  Hi   0x29
    721  desc_device                0x0001fa6a   Gb    1  Data  Hi   0x12
    722  desc_hid_report            0x0001fa7c   Gb    1  Data  Hi   0x22
    723  g_amHalMcuctrlArgDefault   0x0001fafc   Gb    1  Data  Hi   0x8
    724  g_am_hal_bootrom_helper    0x0001fb04   Gb    1  Data  Hi   0x28
    725  sGlobalAccess              0x0001fb54   Gb    1  Data  Hi   0x1c
    726  ui32DSP0Allowed            0x00020104   Gb    1  Data  Hi   0x14
    727  ui32DSP1Allowed            0x00020118   Gb    1  Data  Hi   0x14
    728  ui32MCUAllowed             0x0002012c   Gb    1  Data  Hi   0x14
    729  ui32SharedAccess           0x00020140   Gb    1  Data  Hi   0x14
    730  Region$$Table$$Base        0x00020154   Gb    1   --   Hi 
    731  Region$$Table$$Limit       0x00020184   Gb    1   --   Hi 
    732  _usbd_qdef                 0x10000000   Gb    2  Data  Hi   0x18
    733  gDcuDisable                0x10000020   Gb    2  Data  Hi   0x8
    734  gDcuEnable                 0x10000028   Gb    2  Data  Hi   0x8
    735  g_AM_BSP_GPIO_COM_UART_RX  0x10000030   Gb    2  Data  Hi   0x4
    736  g_AM_BSP_GPIO_COM_UART_TX  0x10000034   Gb    2  Data  Hi   0x4
    737  g_AM_BSP_GPIO_ITM_SWO      0x10000038   Gb    2  Data  Hi   0x4
    738  g_AM_BSP_GPIO_VDDUSB0P9_SWITCH
                                    0x1000003c   Gb    2  Data  Hi   0x4
    739  g_AM_BSP_GPIO_VDDUSB33_SWITCH
                                    0x10000040   Gb    2  Data  Hi   0x4
    740  g_ui32xtalhscap2trim       0x10000048   Gb    2  Data  Hi   0x4
    741  g_ui32xtalhscaptrim        0x1000004c   Gb    2  Data  Hi   0x4
    742  gpDcuEnable                0x10000050   Gb    2  Data  Hi   0x4
    743  gpDcuLock                  0x10000054   Gb    2  Data  Hi   0x4
    744  string_desc_arr            0x10000058   Gb    2  Data  Hi   0x10
    745  __libspace_start           0x10000068   Gb    3  Data  De   0x60
    746  __temporary_stack_top$libspace
                                    0x100000c8   Gb    3  Data  De 
    747  _usbd_qdef_buf             0x100001e8   Gb    3  Data  Hi   0xc0
    748  am_hal_xtal_users          0x100002a8   Gb    3  Data  Hi   0xc
    749  gStartOff                  0x100002b4   Gb    3  Data  Hi   0x4
    750  g_am_hal_uart_states       0x100002b8   Gb    3  Data  Hi   0x2e0
    751  g_pfnCharPrint             0x100006ac   Gb    3  Data  Hi   0x4
    752  psGlobalAccessPtr          0x10060000   Gb    4  Data  Hi   0x4
    753  ui32MCUClaimed             0x10060004   Gb    4  Data  Hi   0x14
    754  ui32DSP0Claimed            0x10060018   Gb    4  Data  Hi   0x14
    755  ui32DSP1Claimed            0x1006002c   Gb    4  Data  Hi   0x14


** Section #12 '.strtab' (SHT_STRTAB)
    Size   : 11824 bytes

            #  Offset String
        ====================================

            1      1: $d
            2      4: $t
            3      7: $t.16
            4     13: $d.1
            5     18: $t.2
            6     23: $d.2
            7     28: $t.5
            8     33: $d.6
            9     38: $t.7
           10     43: $t.3
           11     48: $t.15
           12     54: $d.8
           13     59: $t.0
           14     64: $d.12
           15     70: $t.13
           16     76: $d.40
           17     82: $t.41
           18     88: $d.4
           19     93: $d.26
           20     99: $t.27
           21    105: $d.13
           22    111: $t.14
           23    117: $d.21
           24    123: $t.22
           25    129: $d.52
           26    135: $t.53
           27    141: $d.15
           28    147: $d.realdata
           29    159: tusb_fifo.c
           30    171: _tu_fifo_count
           31    186: _tu_fifo_full
           32    200: _tu_fifo_correct_read_pointer
           33    230: _tu_fifo_peek
           34    244: advance_pointer
           35    260: get_relative_pointer
           36    281: _ff_push
           37    290: backward_pointer
           38    307: _ff_pull
           39    316: _ff_mod
           40    324: dcd_apollo4.c
           41    338: dcd_usb_dev_evt_callback
           42    363: dcd_usb_ep0_setup_callback
           43    390: dcd_usb_ep_xfer_complete_callback
           44    424: am_hal_usb_enable_phy_reset_override
           45    461: am_hal_usb_hardware_unreset
           46    489: dcd_usb_setHFCR2
           47    506: am_hal_usb_disable_phy_reset_override
           48    544: __NVIC_SetPriority
           49    563: __NVIC_EnableIRQ
           50    580: __NVIC_DisableIRQ
           51    598: tu_edpt_addr
           52    611: pUSBHandle
           53    622: tusb.c
           54    629: tu_edpt_packet_size
           55    649: tu_desc_type
           56    662: tu_edpt_number
           57    677: tu_edpt_dir
           58    689: tu_desc_next
           59    702: .L.str
           60    709: .L.str.1
           61    718: .L.str.2
           62    727: .L__func__.tu_edpt_validate
           63    755: .L__func__.tusb_init
           64    776: .L.str.14
           65    786: .L.str.15
           66    796: .L.str.16
           67    806: .L.str.17
           68    816: .L.str.18
           69    826: .L.str.19
           70    836: am_resources.c
           71    851: __tagsym$$used.0
           72    868: __tagsym$$used.1
           73    885: __tagsym$$used.2
           74    902: __tagsym$$used.3
           75    919: __tagsym$$used.4
           76    936: __tagsym$$used.5
           77    953: __tagsym$$used.6
           78    970: __tagsym$$used.7
           79    987: __tagsym$$used.8
           80   1004: apollo4_board.c
           81   1020: tinyusb_hid_generic.c
           82   1042: tud_hid_report
           83   1057: blink_interval_ms
           84   1075: led_blinking_task.start_ms
           85   1102: led_blinking_task.led_state
           86   1130: usb_descriptors.c
           87   1148: .compoundliteral
           88   1165: _desc_str
           89   1175: usbd.c
           90   1182: .L.str.4
           91   1191: get_driver
           92   1202: osal_queue_create
           93   1220: osal_queue_receive
           94   1239: usbd_reset
           95   1250: tu_print_var
           96   1263: process_control_request
           97   1287: osal_queue_send
           98   1303: _osal_q_lock
           99   1316: _osal_q_unlock
          100   1331: configuration_reset
          101   1351: invoke_class_control
          102   1372: process_set_config
          103   1391: process_get_descriptor
          104   1414: tu_desc_len
          105   1426: _app_driver_count
          106   1444: .L.str.13
          107   1454: .L.str.8
          108   1463: .L.str.10
          109   1473: .L.str.54
          110   1483: .L.str.57
          111   1493: .L.str.55
          112   1503: .L.str.7
          113   1512: .L.str.52
          114   1522: .L.str.12
          115   1532: .L.str.53
          116   1542: .L.str.36
          117   1552: .L.str.56
          118   1562: .L.str.37
          119   1572: .L.str.38
          120   1582: .L__func__.usbd_edpt_xfer_fifo
          121   1613: .L.str.58
          122   1623: .L.str.9
          123   1632: .L.str.3
          124   1641: .L__func__.usbd_edpt_close
          125   1668: .L.str.51
          126   1678: .L.str.20
          127   1688: .L.str.11
          128   1698: .L.str.34
          129   1708: .L.str.5
          130   1717: .L.str.6
          131   1726: .L__func__.osal_queue_send
          132   1753: .L__func__.process_set_config
          133   1783: .L__func__.tud_task
          134   1803: .L__func__.usbd_edpt_open
          135   1829: .L__func__.usbd_edpt_xfer
          136   1855: .L__func__.usbd_open_edpt_pair
          137   1886: .L__func__.process_get_descriptor
          138   1920: .L.str.35
          139   1930: .L__func__.tud_init
          140   1950: .L__func__.process_control_request
          141   1985: _usbd_dev
          142   1995: _usbd_initialized
          143   2013: _usbd_q
          144   2021: _app_driver
          145   2033: _usbd_event_str
          146   2049: _tusb_speed_str
          147   2065: _usbd_driver
          148   2078: _tusb_std_request_str
          149   2100: usbd_control.c
          150   2115: _status_stage_xact
          151   2134: _data_stage_xact
          152   2151: _ctrl_xfer
          153   2162: .L__func__.usbd_control_xfer_cb
          154   2194: .L__func__.tud_control_xfer
          155   2222: hid_device.c
          156   2235: get_index_by_itfnum
          157   2255: _hidd_itf
          158   2265: .L__PRETTY_FUNCTION__.hidd_open
          159   2297: .L__func__.hidd_xfer_cb
          160   2321: .L__func__.hidd_control_xfer_cb
          161   2353: .L__func__.hidd_open
          162   2374: am_util_delay.c
          163   2390: am_util_id.c
          164   2403: revmaj_get
          165   2414: chiprev_set
          166   2426: g_ui8DeviceNameUnknown
          167   2449: g_ui8VendorNameUnknown
          168   2472: g_ui8VendorNameAmbq
          169   2492: g_DeviceNameApollo4p
          170   2513: g_DeviceNameApollo4p_blue
          171   2539: g_PackageType
          172   2553: g_TempRange
          173   2565: am_util_stdio.c
          174   2581: decstr_to_int
          175   2595: simple_strlen
          176   2609: padbuffer
          177   2619: ndigits_in_hex
          178   2634: uint64_to_hexstr
          179   2651: ndigits_in_u64
          180   2666: uint64_to_str
          181   2680: ndigits_in_i64
          182   2695: ftoa
          183   2700: divu64_10
          184   2710: g_bTxtXlate
          185   2722: g_prfbuf
          186   2731: ../keil6/startup_keil6.s
          187   2756: STACK
          188   2762: StackMem
          189   2771: HEAP
          190   2776: HeapMem
          191   2784: RESET
          192   2790: $v0
          193   2794: am_cryptosec_isr
          194   2811: am_default_isr
          195   2826: .text
          196   2832: am_hal_cachectrl.c
          197   2851: am_hal_interrupt.c
          198   2870: am_hal_mcuctrl.c
          199   2887: g_am_hal_mcuctrl_sku_mram_size
          200   2918: g_am_hal_mcuctrl_sku_ssram_size
          201   2950: am_hal_utils.c
          202   2965: am_hal_usb.c
          203   2978: am_hal_usb_ep0_handle_setup_req
          204   3010: g_am_hal_usb_states
          205   3030: g_ui32XtalFreq
          206   3045: am_bsp.c
          207   3054: g_ePrintInterface
          208   3072: g_sCOMUART
          209   3083: g_sBspUartConfig
          210   3100: pui8UartTxBuffer
          211   3117: pui8UartRxBuffer
          212   3134: am_hal_bootrom_helper.c
          213   3158: am_hal_clkgen.c
          214   3174: am_hal_itm.c
          215   3187: am_hal_rtc.c
          216   3200: am_hal_tpiu.c
          217   3214: am_hal_uart.c
          218   3228: nonblocking_write
          219   3246: nonblocking_read
          220   3263: nonblocking_read_sm
          221   3283: nonblocking_write_sm
          222   3304: am_hal_dcu.c
          223   3317: am_hal_gpio.c
          224   3331: g_ui32DSpintbl
          225   3346: am_hal_pwrctrl.c
          226   3363: g_bBoostForCryptoApplied
          227   3388: g_i32LatestVddfActTrim
          228   3411: g_i32LatestLDOActTrim
          229   3433: g_ui32VDDFAdjustCodes
          230   3455: am_bsp_pins.c
          231   3469: am_hal_mram.c
          232   3483: am_hal_adc.c
          233   3496: am_hal_pin.c
          234   3509: am_hal_queue.c
          235   3524: dc.s
          236   3529: ../clib/angel/rt.s
          237   3548: ../clib/longlong.s
          238   3567: ../clib/string.c
          239   3584: ../clib/memcpset.s
          240   3603: ../clib/heapaux.c
          241   3621: ../clib/angel/startup.s
          242   3645: !!!main
          243   3653: ../clib/angel/handlers.s
          244   3678: !!handler_copy
          245   3693: ../fplib/d2f.s
          246   3708: x$fpl$d2f
          247   3718: ../clib/angel/kernel.s
          248   3741: .ARM.Collect$$rtentry$$00000000
          249   3773: ../clib/locale.s
          250   3790: ../fplib/dnaninf.s
          251   3809: x$fpl$dnaninf
          252   3823: ../fplib/fretinf.s
          253   3842: x$fpl$fretinf
          254   3856: ../fplib/usenofp.s
          255   3875: x$fpl$usenofp
          256   3889: ../clib/angel/sys.s
          257   3909: .bss
          258   3914: .ARM.Collect$$rtentry$$00000002
          259   3946: .ARM.Collect$$rtentry$$00000009
          260   3978: .ARM.Collect$$rtentry$$0000000A
          261   4010: .ARM.Collect$$rtentry$$0000000C
          262   4042: .ARM.Collect$$rtentry$$0000000D
          263   4074: .ARM.Collect$$rtentry$$00000004
          264   4106: ../clib/libinit.s
          265   4124: .ARM.Collect$$libinit$$00000001
          266   4156: .ARM.Collect$$libinit$$00000004
          267   4188: .ARM.Collect$$libinit$$0000000A
          268   4220: .ARM.Collect$$libinit$$0000000C
          269   4252: .ARM.Collect$$libinit$$0000000E
          270   4284: .ARM.Collect$$libinit$$00000011
          271   4316: .ARM.Collect$$libinit$$00000013
          272   4348: .ARM.Collect$$libinit$$00000015
          273   4380: .ARM.Collect$$libinit$$00000017
          274   4412: .ARM.Collect$$libinit$$00000019
          275   4444: .ARM.Collect$$libinit$$0000001B
          276   4476: .ARM.Collect$$libinit$$0000001D
          277   4508: .ARM.Collect$$libinit$$0000001F
          278   4540: .ARM.Collect$$libinit$$00000021
          279   4572: .ARM.Collect$$libinit$$00000023
          280   4604: .ARM.Collect$$libinit$$00000025
          281   4636: .ARM.Collect$$libinit$$0000002C
          282   4668: .ARM.Collect$$libinit$$0000002E
          283   4700: .ARM.Collect$$libinit$$00000030
          284   4732: .ARM.Collect$$libinit$$00000032
          285   4764: .ARM.Collect$$libinit$$00000033
          286   4796: ../clib/stdlib.c
          287   4813: ../clib/signal.c
          288   4830: ../clib/angel/boardlib.s
          289   4855: ../clib/armsys.c
          290   4872: .ARM.Collect$$libinit$$00000000
          291   4904: ../fplib/fpinit.s
          292   4922: x$fpl$fpinit
          293   4935: .ARM.Collect$$rtexit$$00000000
          294   4966: ../clib/angel/sysapp.c
          295   4989: .ARM.Collect$$rtexit$$00000002
          296   5020: .ARM.Collect$$rtexit$$00000003
          297   5051: .ARM.Collect$$rtexit$$00000004
          298   5082: ../clib/heapalloc.c
          299   5102: ../clib/signal.s
          300   5119: .ARM.Collect$$libshutdown$$00000000
          301   5155: .ARM.Collect$$libshutdown$$00000002
          302   5191: .ARM.Collect$$libshutdown$$00000004
          303   5227: .ARM.Collect$$libshutdown$$00000007
          304   5263: .ARM.Collect$$libshutdown$$0000000A
          305   5299: .ARM.Collect$$libshutdown$$0000000C
          306   5335: .ARM.Collect$$libshutdown$$0000000F
          307   5371: .ARM.Collect$$libshutdown$$00000010
          308   5407: ../clib/angel/scatter.s
          309   5431: !!!scatter
          310   5442: !!handler_zi
          311   5455: BuildAttributes$$THM_ISAv4$E$P$D$K$B$S$7EM$VFPi3$EXTD16$VFPS$VFMA$PE$A:L22UL41UL21$X:L11$S22US41US21$IEEE1$IW$~IW$USESV6$~STKCKD$USESV7$~SHL$OSPACE$ROPI$EBA8$UX$STANDARDLIB$REQ8$PRES8$EABIv2
          312   5646: __Vectors
          313   5656: __Patchable
          314   5668: Reset_Handler
          315   5682: HardFault_Handler
          316   5700: NMI_Handler
          317   5712: MemManage_Handler
          318   5730: BusFault_Handler
          319   5747: UsageFault_Handler
          320   5766: SVC_Handler
          321   5778: DebugMon_Handler
          322   5795: PendSV_Handler
          323   5810: SysTick_Handler
          324   5826: am_adc_isr
          325   5837: am_audadc0_isr
          326   5852: am_brownout_isr
          327   5868: am_cachecpu_isr
          328   5884: am_clkgen_isr
          329   5898: am_ctimer_isr
          330   5912: am_disp_isr
          331   5924: am_dsi_isr
          332   5935: am_dspi2s0_isr
          333   5950: am_dspi2s1_isr
          334   5965: am_dspi2s2_isr
          335   5980: am_dspi2s3_isr
          336   5995: am_gpio0_001f_isr
          337   6013: am_gpio0_203f_isr
          338   6031: am_gpio0_405f_isr
          339   6049: am_gpio0_607f_isr
          340   6067: am_gpio1_001f_isr
          341   6085: am_gpio1_203f_isr
          342   6103: am_gpio1_405f_isr
          343   6121: am_gpio1_607f_isr
          344   6139: am_gpu_isr
          345   6150: am_iomaster0_isr
          346   6167: am_iomaster1_isr
          347   6184: am_iomaster2_isr
          348   6201: am_iomaster3_isr
          349   6218: am_iomaster4_isr
          350   6235: am_iomaster5_isr
          351   6252: am_iomaster6_isr
          352   6269: am_iomaster7_isr
          353   6286: am_ioslave_acc_isr
          354   6305: am_ioslave_ios_isr
          355   6324: am_mspi0_isr
          356   6337: am_mspi1_isr
          357   6350: am_mspi2_isr
          358   6363: am_pdm0_isr
          359   6375: am_pdm1_isr
          360   6387: am_pdm2_isr
          361   6399: am_pdm3_isr
          362   6411: am_rtc_isr
          363   6422: am_sdio_isr
          364   6434: am_stimer_cmpr0_isr
          365   6454: am_stimer_cmpr1_isr
          366   6474: am_stimer_cmpr2_isr
          367   6494: am_stimer_cmpr3_isr
          368   6514: am_stimer_cmpr4_isr
          369   6534: am_stimer_cmpr5_isr
          370   6554: am_stimer_cmpr6_isr
          371   6574: am_stimer_cmpr7_isr
          372   6594: am_stimerof_isr
          373   6610: am_timer00_isr
          374   6625: am_timer01_isr
          375   6640: am_timer02_isr
          376   6655: am_timer03_isr
          377   6670: am_timer04_isr
          378   6685: am_timer05_isr
          379   6700: am_timer06_isr
          380   6715: am_timer07_isr
          381   6730: am_timer08_isr
          382   6745: am_timer09_isr
          383   6760: am_timer10_isr
          384   6775: am_timer11_isr
          385   6790: am_timer12_isr
          386   6805: am_timer13_isr
          387   6820: am_timer14_isr
          388   6835: am_timer15_isr
          389   6850: am_uart1_isr
          390   6863: am_uart2_isr
          391   6876: am_uart3_isr
          392   6889: am_uart_isr
          393   6901: am_vcomp_isr
          394   6914: am_watchdog_isr
          395   6930: __main
          396   6937: __scatterload
          397   6951: __scatterload_rt2
          398   6969: __scatterload_rt2_thumb_only
          399   6998: __scatterload_null
          400   7017: __scatterload_copy
          401   7036: __scatterload_zeroinit
          402   7059: __rt_lib_init
          403   7073: __rt_lib_init_fp_1
          404   7092: __rt_lib_init_alloca_1
          405   7115: __rt_lib_init_argv_1
          406   7136: __rt_lib_init_atexit_1
          407   7159: __rt_lib_init_clock_1
          408   7181: __rt_lib_init_cpp_1
          409   7201: __rt_lib_init_exceptions_1
          410   7228: __rt_lib_init_fp_trap_1
          411   7252: __rt_lib_init_getenv_1
          412   7275: __rt_lib_init_heap_1
          413   7296: __rt_lib_init_lc_collate_1
          414   7323: __rt_lib_init_lc_ctype_1
          415   7348: __rt_lib_init_lc_monetary_1
          416   7376: __rt_lib_init_lc_numeric_1
          417   7403: __rt_lib_init_lc_time_1
          418   7427: __rt_lib_init_preinit_1
          419   7451: __rt_lib_init_rand_1
          420   7472: __rt_lib_init_return
          421   7493: __rt_lib_init_signal_1
          422   7516: __rt_lib_init_stdio_1
          423   7538: __rt_lib_init_user_alloc_1
          424   7565: __rt_lib_shutdown
          425   7583: __rt_lib_shutdown_cpp_1
          426   7607: __rt_lib_shutdown_fp_trap_1
          427   7635: __rt_lib_shutdown_heap_1
          428   7660: __rt_lib_shutdown_return
          429   7685: __rt_lib_shutdown_signal_1
          430   7712: __rt_lib_shutdown_stdio_1
          431   7738: __rt_lib_shutdown_user_alloc_1
          432   7769: __rt_entry
          433   7780: __rt_entry_presh_1
          434   7799: __rt_entry_sh
          435   7813: __rt_entry_li
          436   7827: __rt_entry_postsh_1
          437   7847: __rt_entry_main
          438   7863: __rt_entry_postli_1
          439   7883: __rt_exit
          440   7893: __rt_exit_ls
          441   7906: __rt_exit_prels_1
          442   7924: __rt_exit_exit
          443   7939: __user_initial_stackheap
          444   7964: __aeabi_uldivmod
          445   7981: _ll_udiv
          446   7990: strlen
          447   7997: __aeabi_memcpy
          448   8012: __rt_memcpy
          449   8024: _memcpy_lastbytes
          450   8042: __aeabi_memset
          451   8057: __aeabi_memclr
          452   8072: __rt_memclr
          453   8084: _memset
          454   8092: __aeabi_memclr4
          455   8108: __aeabi_memclr8
          456   8124: __rt_memclr_w
          457   8138: _memset_w
          458   8148: __use_two_region_memory
          459   8172: __rt_heap_escrow$2region
          460   8197: __rt_heap_expand$2region
          461   8222: __aeabi_memcpy4
          462   8238: __aeabi_memcpy8
          463   8254: __rt_memcpy_w
          464   8268: _memcpy_lastbytes_aligned
          465   8294: __user_libspace
          466   8310: __user_perproc_libspace
          467   8334: __user_perthread_libspace
          468   8360: __user_setup_stackheap
          469   8383: exit
          470   8388: _sys_exit
          471   8398: __I$use$semihosting
          472   8418: __use_no_semihosting_swi
          473   8443: __semihosting_library_function
          474   8474: am_bsp_buffered_uart_printf_enable
          475   8509: am_bsp_debug_printf_enable
          476   8536: am_bsp_external_vddusb0p9_switch
          477   8569: am_bsp_external_vddusb33_switch
          478   8601: am_bsp_itm_printf_enable
          479   8626: am_bsp_uart_printf_enable
          480   8652: am_bsp_uart_string_print
          481   8677: am_hal_cachectrl_config
          482   8701: am_hal_cachectrl_enable
          483   8725: am_hal_clkgen_control
          484   8747: am_hal_dcu_get
          485   8762: am_hal_dcu_update
          486   8780: am_hal_delay_us
          487   8796: am_hal_delay_us_status_change
          488   8826: am_hal_delay_us_status_check
          489   8855: am_hal_gpio_pinconfig
          490   8877: am_hal_gpio_state_write
          491   8901: am_hal_interrupt_master_disable
          492   8933: am_hal_interrupt_master_enable
          493   8964: am_hal_interrupt_master_set
          494   8992: am_hal_itm_enable
          495   9010: am_hal_itm_print
          496   9027: am_hal_mcuctrl_control
          497   9050: am_hal_mcuctrl_info_get
          498   9074: am_hal_pwrctrl_periph_disable
          499   9104: am_hal_pwrctrl_periph_enable
          500   9133: am_hal_queue_init
          501   9151: am_hal_queue_item_add
          502   9173: am_hal_queue_item_get
          503   9195: am_hal_tpiu_enable
          504   9214: am_hal_uart_buffer_configure
          505   9243: am_hal_uart_configure
          506   9265: am_hal_uart_initialize
          507   9288: am_hal_uart_power_control
          508   9314: am_hal_uart_transfer
          509   9335: am_hal_usb_attach
          510   9353: am_hal_usb_control
          511   9372: am_hal_usb_ep_clear_stall
          512   9398: am_hal_usb_ep_init
          513   9417: am_hal_usb_ep_stall
          514   9437: am_hal_usb_ep_xfer
          515   9456: am_hal_usb_initialize
          516   9478: am_hal_usb_interrupt_service
          517   9507: am_hal_usb_intr_status_get
          518   9534: am_hal_usb_intr_usb_enable
          519   9561: am_hal_usb_power_control
          520   9586: am_hal_usb_register_dev_evt_callback
          521   9623: am_hal_usb_register_ep0_setup_received_callback
          522   9671: am_hal_usb_register_ep_xfer_complete_callback
          523   9717: am_hal_usb_setHFRC2
          524   9737: am_hal_usb_set_addr
          525   9757: am_hal_usb_set_dev_speed
          526   9782: am_hal_usb_set_dev_state
          527   9807: am_usb_isr
          528   9818: am_util_delay_ms
          529   9835: am_util_id_device
          530   9853: am_util_stdio_printf
          531   9874: am_util_stdio_printf_init
          532   9900: am_util_stdio_terminal_clear
          533   9929: am_util_stdio_vsprintf
          534   9952: board_init
          535   9963: board_led_write
          536   9979: board_millis
          537   9992: crypto_boost_trims
          538  10011: dcd_edpt_clear_stall
          539  10032: dcd_edpt_close_all
          540  10051: dcd_edpt_open
          541  10065: dcd_edpt_stall
          542  10080: dcd_edpt_xfer
          543  10094: dcd_event_bus_reset
          544  10114: dcd_event_bus_signal
          545  10135: dcd_event_handler
          546  10153: dcd_event_setup_received
          547  10178: dcd_event_xfer_complete
          548  10202: dcd_init
          549  10211: dcd_int_disable
          550  10227: dcd_int_enable
          551  10242: dcd_set_address
          552  10258: hidd_control_xfer_cb
          553  10279: hidd_init
          554  10289: hidd_open
          555  10299: hidd_reset
          556  10310: hidd_xfer_cb
          557  10323: led_blinking_task
          558  10341: main
          559  10346: read_transaction_save
          560  10368: tu_edpt_bind_driver
          561  10388: tu_edpt_validate
          562  10405: tu_fifo_clear
          563  10419: tu_fifo_read
          564  10432: tu_fifo_write
          565  10446: tud_control_status
          566  10465: tud_control_xfer
          567  10482: tud_descriptor_configuration_cb
          568  10514: tud_descriptor_device_cb
          569  10539: tud_descriptor_string_cb
          570  10564: tud_hid_descriptor_report_cb
          571  10593: tud_hid_get_report_cb
          572  10615: tud_hid_n_report
          573  10632: tud_hid_set_report_cb
          574  10654: tud_init
          575  10663: tud_inited
          576  10674: tud_task
          577  10683: tusb_init
          578  10693: tusb_inited
          579  10705: usbd_control_reset
          580  10724: usbd_control_set_complete_callback
          581  10759: usbd_control_set_request
          582  10784: usbd_control_xfer_cb
          583  10805: usbd_driver_print_control_complete_name
          584  10845: usbd_edpt_claim
          585  10861: usbd_edpt_clear_stall
          586  10883: usbd_edpt_open
          587  10898: usbd_edpt_stall
          588  10914: usbd_edpt_stalled
          589  10932: usbd_edpt_xfer
          590  10947: usbd_open_edpt_pair
          591  10967: write_transaction_save
          592  10990: __aeabi_d2f
          593  11002: _d2f
          594  11007: __fpl_dnaninf
          595  11021: _fp_init
          596  11030: __fplib_config_fpu_vfp
          597  11053: __fplib_config_pureend_doubles
          598  11084: __fpl_fretinf
          599  11098: __I$use$fp
          600  11109: am_hal_cachectrl_defaults
          601  11135: am_hal_pwrctrl_peripheral_control
          602  11169: desc_configuration
          603  11188: desc_device
          604  11200: desc_hid_report
          605  11216: g_amHalMcuctrlArgDefault
          606  11241: g_am_hal_bootrom_helper
          607  11265: sGlobalAccess
          608  11279: ui32DSP0Allowed
          609  11295: ui32DSP1Allowed
          610  11311: ui32MCUAllowed
          611  11326: ui32SharedAccess
          612  11343: Region$$Table$$Base
          613  11363: Region$$Table$$Limit
          614  11384: _usbd_qdef
          615  11395: gDcuDisable
          616  11407: gDcuEnable
          617  11418: g_AM_BSP_GPIO_COM_UART_RX
          618  11444: g_AM_BSP_GPIO_COM_UART_TX
          619  11470: g_AM_BSP_GPIO_ITM_SWO
          620  11492: g_AM_BSP_GPIO_VDDUSB0P9_SWITCH
          621  11523: g_AM_BSP_GPIO_VDDUSB33_SWITCH
          622  11553: g_ui32xtalhscap2trim
          623  11574: g_ui32xtalhscaptrim
          624  11594: gpDcuEnable
          625  11606: gpDcuLock
          626  11616: string_desc_arr
          627  11632: __libspace_start
          628  11649: __temporary_stack_top$libspace
          629  11680: _usbd_qdef_buf
          630  11695: am_hal_xtal_users
          631  11713: gStartOff
          632  11723: g_am_hal_uart_states
          633  11744: g_pfnCharPrint
          634  11759: psGlobalAccessPtr
          635  11777: ui32MCUClaimed
          636  11792: ui32DSP0Claimed
          637  11808: ui32DSP1Claimed


** Section #13 '.note' (SHT_NOTE)
    Size   : 32 bytes (alignment 4)


** Section #14 '.comment' (SHT_PROGBITS)
    Size   : 1652 bytes


** Section #15 '.shstrtab' (SHT_STRTAB)
    Size   : 148 bytes

            #  Offset String
        ====================================

            1      1: MCU_MRAM
            2     10: MCU_TCM
            3     18: SHARED_SRAM
            4     30: .debug_abbrev
            5     44: .debug_frame
            6     57: .debug_info
            7     69: .debug_line
            8     81: .debug_str
            9     92: .debug_ranges
           10    106: .symtab
           11    114: .strtab
           12    122: .note
           13    128: .comment
           14    137: .shstrtab
           15    147: 


