
========================================================================

** ELF Header Information

    File Name: bin\coremark.axf

    Machine class: ELFCLASS32 (32-bit)
    Data encoding: ELFDATA2LSB (Little endian)
    Header version: EV_CURRENT (Current version)
    Operating System ABI: none
    ABI Version: 0
    File Type: ET_EXEC (Executable) (2)
    Machine: EM_ARM (ARM)

    Image Entry point: 0x00018235
    Flags: EF_ARM_HASENTRY + EF_ARM_ABI_FLOAT_HARD (0x05000402)

    ARM ELF revision: 5 (ABI version 2)

    Conforms to Hard float procedure-call standard

    Built with
    Component: ARM Compiler 6.16 Tool: armasm [5dfea300]
    Component: ARM Compiler 6.16 Tool: armlink [5dfeaa00]

    Header size: 52 bytes (0x34)
    Program header entry size: 32 bytes (0x20)
    Section header entry size: 40 bytes (0x28)

    Program header entries: 1
    Section header entries: 17

    Program header offset: 138752 (0x00021e00)
    Section header offset: 138784 (0x00021e20)

    Section header string table index: 16

========================================================================

** Program header #0 (PT_LOAD) [PF_X + PF_W + PF_R + PF_ARM_ENTRY]
    Size : 27600 bytes (22240 bytes in file)
    Virtual address: 0x00018000 (Alignment 16)


========================================================================

** Section #1 'MCU_MRAM' (SHT_PROGBITS) [SHF_ALLOC + SHF_EXECINSTR]
    Size   : 21876 bytes (alignment 8)
    Address: 0x00018000

    $d
    RESET
    __Vectors
        0x00018000:    10001610    ....    DCD    268441104
        0x00018004:    00018201    ....    DCD    98817
        0x00018008:    0001821f    ....    DCD    98847
        0x0001800c:    0001821d    ....    DCD    98845
        0x00018010:    00018221    !...    DCD    98849
        0x00018014:    00018223    #...    DCD    98851
        0x00018018:    00018225    %...    DCD    98853
        0x0001801c:    00000000    ....    DCD    0
        0x00018020:    00000000    ....    DCD    0
        0x00018024:    00000000    ....    DCD    0
        0x00018028:    00000000    ....    DCD    0
        0x0001802c:    00018227    '...    DCD    98855
        0x00018030:    00018229    )...    DCD    98857
        0x00018034:    00000000    ....    DCD    0
        0x00018038:    0001822b    +...    DCD    98859
        0x0001803c:    00018453    S...    DCD    99411
        0x00018040:    0001822f    /...    DCD    98863
        0x00018044:    0001822f    /...    DCD    98863
        0x00018048:    0001822f    /...    DCD    98863
        0x0001804c:    0001822f    /...    DCD    98863
        0x00018050:    0001822f    /...    DCD    98863
        0x00018054:    0001822f    /...    DCD    98863
        0x00018058:    0001822f    /...    DCD    98863
        0x0001805c:    0001822f    /...    DCD    98863
        0x00018060:    0001822f    /...    DCD    98863
        0x00018064:    0001822f    /...    DCD    98863
        0x00018068:    0001822f    /...    DCD    98863
        0x0001806c:    0001822f    /...    DCD    98863
        0x00018070:    0001822f    /...    DCD    98863
        0x00018074:    0001822f    /...    DCD    98863
        0x00018078:    0001822f    /...    DCD    98863
        0x0001807c:    0001822f    /...    DCD    98863
        0x00018080:    0001822f    /...    DCD    98863
        0x00018084:    0001822f    /...    DCD    98863
        0x00018088:    0001822f    /...    DCD    98863
        0x0001808c:    0001822f    /...    DCD    98863
        0x00018090:    0001822f    /...    DCD    98863
        0x00018094:    0001822f    /...    DCD    98863
        0x00018098:    0001822f    /...    DCD    98863
        0x0001809c:    0001822f    /...    DCD    98863
        0x000180a0:    0001822f    /...    DCD    98863
        0x000180a4:    0001822f    /...    DCD    98863
        0x000180a8:    0001822f    /...    DCD    98863
        0x000180ac:    0001822f    /...    DCD    98863
        0x000180b0:    0001822f    /...    DCD    98863
        0x000180b4:    0001822f    /...    DCD    98863
        0x000180b8:    0001822f    /...    DCD    98863
        0x000180bc:    0001822f    /...    DCD    98863
        0x000180c0:    0001822f    /...    DCD    98863
        0x000180c4:    0001822f    /...    DCD    98863
        0x000180c8:    0001822f    /...    DCD    98863
        0x000180cc:    0001822f    /...    DCD    98863
        0x000180d0:    0001822f    /...    DCD    98863
        0x000180d4:    0001822f    /...    DCD    98863
        0x000180d8:    0001822f    /...    DCD    98863
        0x000180dc:    0001822f    /...    DCD    98863
        0x000180e0:    0001822f    /...    DCD    98863
        0x000180e4:    0001822f    /...    DCD    98863
        0x000180e8:    0001822f    /...    DCD    98863
        0x000180ec:    0001822f    /...    DCD    98863
        0x000180f0:    0001822f    /...    DCD    98863
        0x000180f4:    0001822f    /...    DCD    98863
        0x000180f8:    0001822f    /...    DCD    98863
        0x000180fc:    0001822f    /...    DCD    98863
        0x00018100:    0001822f    /...    DCD    98863
        0x00018104:    0001822f    /...    DCD    98863
        0x00018108:    0001822f    /...    DCD    98863
        0x0001810c:    0001822f    /...    DCD    98863
        0x00018110:    0001822f    /...    DCD    98863
        0x00018114:    0001822f    /...    DCD    98863
        0x00018118:    0001822f    /...    DCD    98863
        0x0001811c:    0001822f    /...    DCD    98863
        0x00018120:    0001822f    /...    DCD    98863
        0x00018124:    0001822f    /...    DCD    98863
        0x00018128:    0001822f    /...    DCD    98863
        0x0001812c:    0001822f    /...    DCD    98863
        0x00018130:    0001822f    /...    DCD    98863
        0x00018134:    0001822f    /...    DCD    98863
        0x00018138:    0001822f    /...    DCD    98863
        0x0001813c:    0001822f    /...    DCD    98863
        0x00018140:    0001822f    /...    DCD    98863
        0x00018144:    0001822f    /...    DCD    98863
        0x00018148:    0001822f    /...    DCD    98863
        0x0001814c:    0001822f    /...    DCD    98863
        0x00018150:    0001822f    /...    DCD    98863
        0x00018154:    0001822f    /...    DCD    98863
        0x00018158:    0001822f    /...    DCD    98863
        0x0001815c:    0001822f    /...    DCD    98863
        0x00018160:    0001822f    /...    DCD    98863
        0x00018164:    0001822f    /...    DCD    98863
        0x00018168:    0001822f    /...    DCD    98863
        0x0001816c:    0001822f    /...    DCD    98863
        0x00018170:    0001822f    /...    DCD    98863
        0x00018174:    0001822f    /...    DCD    98863
        0x00018178:    0001822f    /...    DCD    98863
        0x0001817c:    0001822f    /...    DCD    98863
        0x00018180:    0001822f    /...    DCD    98863
        0x00018184:    0001822f    /...    DCD    98863
        0x00018188:    0001822f    /...    DCD    98863
        0x0001818c:    0001822f    /...    DCD    98863
    __Patchable
        0x00018190:    00000000    ....    DCD    0
        0x00018194:    00000000    ....    DCD    0
        0x00018198:    00000000    ....    DCD    0
        0x0001819c:    00000000    ....    DCD    0
        0x000181a0:    00000000    ....    DCD    0
        0x000181a4:    00000000    ....    DCD    0
        0x000181a8:    00000000    ....    DCD    0
        0x000181ac:    00000000    ....    DCD    0
        0x000181b0:    00000000    ....    DCD    0
        0x000181b4:    00000000    ....    DCD    0
        0x000181b8:    00000000    ....    DCD    0
        0x000181bc:    00000000    ....    DCD    0
        0x000181c0:    00000000    ....    DCD    0
        0x000181c4:    00000000    ....    DCD    0
        0x000181c8:    00000000    ....    DCD    0
        0x000181cc:    00000000    ....    DCD    0
        0x000181d0:    00000000    ....    DCD    0
        0x000181d4:    00000000    ....    DCD    0
        0x000181d8:    00000000    ....    DCD    0
        0x000181dc:    00000000    ....    DCD    0
        0x000181e0:    00000000    ....    DCD    0
        0x000181e4:    00000000    ....    DCD    0
        0x000181e8:    00000000    ....    DCD    0
        0x000181ec:    00000000    ....    DCD    0
        0x000181f0:    00000000    ....    DCD    0
        0x000181f4:    00000000    ....    DCD    0
        0x000181f8:    00000000    ....    DCD    0
        0x000181fc:    00000000    ....    DCD    0
    $t
    $v0
    Reset_Handler
        0x00018200:    f64e5088    N..P    MOV      r0,#0xed88
        0x00018204:    f2ce0000    ....    MOVT     r0,#0xe000
        0x00018208:    6801        .h      LDR      r1,[r0,#0]
        0x0001820a:    f4410170    A.p.    ORR      r1,r1,#0xf00000
        0x0001820e:    6001        .`      STR      r1,[r0,#0]
        0x00018210:    f3bf8f4f    ..O.    DSB      
        0x00018214:    f3bf8f6f    ..o.    ISB      
        0x00018218:    4805        .H      LDR      r0,[pc,#20] ; [0x18230] = 0x18235
        0x0001821a:    4700        .G      BX       r0
    HardFault_Handler
        0x0001821c:    e7fe        ..      B        HardFault_Handler ; 0x1821c
    NMI_Handler
        0x0001821e:    e7fe        ..      B        NMI_Handler ; 0x1821e
    MemManage_Handler
        0x00018220:    e7fe        ..      B        MemManage_Handler ; 0x18220
    BusFault_Handler
        0x00018222:    e7fe        ..      B        BusFault_Handler ; 0x18222
    UsageFault_Handler
        0x00018224:    e7fe        ..      B        UsageFault_Handler ; 0x18224
    SVC_Handler
        0x00018226:    e7fe        ..      B        SVC_Handler ; 0x18226
    DebugMon_Handler
        0x00018228:    e7fe        ..      B        DebugMon_Handler ; 0x18228
    PendSV_Handler
        0x0001822a:    e7fe        ..      B        PendSV_Handler ; 0x1822a
        0x0001822c:    e7fe        ..      B        0x1822c ; PendSV_Handler + 2
    am_cryptosec_isr
    am_default_isr
    am_adc_isr
    am_audadc0_isr
    am_brownout_isr
    am_cachecpu_isr
    am_clkgen_isr
    am_ctimer_isr
    am_disp_isr
    am_dsi_isr
    am_dspi2s0_isr
    am_dspi2s1_isr
    am_dspi2s2_isr
    am_dspi2s3_isr
    am_gpio0_001f_isr
    am_gpio0_203f_isr
    am_gpio0_405f_isr
    am_gpio0_607f_isr
    am_gpio1_001f_isr
    am_gpio1_203f_isr
    am_gpio1_405f_isr
    am_gpio1_607f_isr
    am_gpu_isr
    am_iomaster0_isr
    am_iomaster1_isr
    am_iomaster2_isr
    am_iomaster3_isr
    am_iomaster4_isr
    am_iomaster5_isr
    am_iomaster6_isr
    am_iomaster7_isr
    am_ioslave_acc_isr
    am_ioslave_ios_isr
    am_mspi0_isr
    am_mspi1_isr
    am_mspi2_isr
    am_pdm0_isr
    am_pdm1_isr
    am_pdm2_isr
    am_pdm3_isr
    am_rtc_isr
    am_sdio_isr
    am_stimer_cmpr0_isr
    am_stimer_cmpr1_isr
    am_stimer_cmpr2_isr
    am_stimer_cmpr3_isr
    am_stimer_cmpr4_isr
    am_stimer_cmpr5_isr
    am_stimer_cmpr6_isr
    am_stimer_cmpr7_isr
    am_stimerof_isr
    am_timer00_isr
    am_timer01_isr
    am_timer02_isr
    am_timer03_isr
    am_timer04_isr
    am_timer05_isr
    am_timer06_isr
    am_timer07_isr
    am_timer08_isr
    am_timer09_isr
    am_timer10_isr
    am_timer11_isr
    am_timer12_isr
    am_timer13_isr
    am_timer14_isr
    am_timer15_isr
    am_uart1_isr
    am_uart2_isr
    am_uart3_isr
    am_uart_isr
    am_usb_isr
    am_vcomp_isr
    am_watchdog_isr
        0x0001822e:    e7fe        ..      B        am_cryptosec_isr ; 0x1822e
    $d
        0x00018230:    00018235    5...    DCD    98869
    $t
    !!!main
    __main
        0x00018234:    f000f802    ....    BL       __scatterload ; 0x1823c
        0x00018238:    f000f86a    ..j.    BL       __rt_entry ; 0x18310
    !!!scatter
    __scatterload
    __scatterload_rt2
    __scatterload_rt2_thumb_only
        0x0001823c:    a00a        ..      ADR      r0,{pc}+0x2c ; 0x18268
        0x0001823e:    e8900c00    ....    LDM      r0,{r10,r11}
        0x00018242:    4482        .D      ADD      r10,r10,r0
        0x00018244:    4483        .D      ADD      r11,r11,r0
        0x00018246:    f1aa0701    ....    SUB      r7,r10,#1
    __scatterload_null
        0x0001824a:    45da        .E      CMP      r10,r11
        0x0001824c:    d101        ..      BNE      0x18252 ; __scatterload_null + 8
        0x0001824e:    f000f85f    .._.    BL       __rt_entry ; 0x18310
        0x00018252:    f2af0e09    ....    ADR      lr,{pc}-7 ; 0x1824b
        0x00018256:    e8ba000f    ....    LDM      r10!,{r0-r3}
        0x0001825a:    f0130f01    ....    TST      r3,#1
        0x0001825e:    bf18        ..      IT       NE
        0x00018260:    1afb        ..      SUBNE    r3,r7,r3
        0x00018262:    f0430301    C...    ORR      r3,r3,#1
        0x00018266:    4718        .G      BX       r3
    $d
        0x00018268:    000052dc    .R..    DCD    21212
        0x0001826c:    0000530c    .S..    DCD    21260
    $t
    !!dczerorl2
    __decompress
    __decompress1
        0x00018270:    440a        .D      ADD      r2,r2,r1
        0x00018272:    f04f0c00    O...    MOV      r12,#0
        0x00018276:    f8103b01    ...;    LDRB     r3,[r0],#1
        0x0001827a:    f0130407    ....    ANDS     r4,r3,#7
        0x0001827e:    bf08        ..      IT       EQ
        0x00018280:    f8104b01    ...K    LDRBEQ   r4,[r0],#1
        0x00018284:    111d        ..      ASRS     r5,r3,#4
        0x00018286:    bf08        ..      IT       EQ
        0x00018288:    f8105b01    ...[    LDRBEQ   r5,[r0],#1
        0x0001828c:    1e64        d.      SUBS     r4,r4,#1
        0x0001828e:    d005        ..      BEQ      0x1829c ; __decompress + 44
        0x00018290:    f8106b01    ...k    LDRB     r6,[r0],#1
        0x00018294:    1e64        d.      SUBS     r4,r4,#1
        0x00018296:    f8016b01    ...k    STRB     r6,[r1],#1
        0x0001829a:    d1f9        ..      BNE      0x18290 ; __decompress + 32
        0x0001829c:    f0130f08    ....    TST      r3,#8
        0x000182a0:    bf1e        ..      ITTT     NE
        0x000182a2:    f8104b01    ...K    LDRBNE   r4,[r0],#1
        0x000182a6:    1cad        ..      ADDNE    r5,r5,#2
        0x000182a8:    1b0c        ..      SUBNE    r4,r1,r4
        0x000182aa:    d109        ..      BNE      0x182c0 ; __decompress + 80
        0x000182ac:    1e6d        m.      SUBS     r5,r5,#1
        0x000182ae:    bf58        X.      IT       PL
        0x000182b0:    f801cb01    ....    STRBPL   r12,[r1],#1
        0x000182b4:    d5fa        ..      BPL      0x182ac ; __decompress + 60
        0x000182b6:    e005        ..      B        0x182c4 ; __decompress + 84
        0x000182b8:    f8146b01    ...k    LDRB     r6,[r4],#1
        0x000182bc:    f8016b01    ...k    STRB     r6,[r1],#1
        0x000182c0:    1e6d        m.      SUBS     r5,r5,#1
        0x000182c2:    d5f9        ..      BPL      0x182b8 ; __decompress + 72
        0x000182c4:    4291        .B      CMP      r1,r2
        0x000182c6:    d3d6        ..      BCC      0x18276 ; __decompress + 6
        0x000182c8:    4770        pG      BX       lr
        0x000182ca:    0000        ..      MOVS     r0,r0
    !!handler_copy
    __scatterload_copy
        0x000182cc:    3a10        .:      SUBS     r2,r2,#0x10
        0x000182ce:    bf24        $.      ITT      CS
        0x000182d0:    c878        x.      LDMCS    r0!,{r3-r6}
        0x000182d2:    c178        x.      STMCS    r1!,{r3-r6}
        0x000182d4:    d8fa        ..      BHI      __scatterload_copy ; 0x182cc
        0x000182d6:    0752        R.      LSLS     r2,r2,#29
        0x000182d8:    bf24        $.      ITT      CS
        0x000182da:    c830        0.      LDMCS    r0!,{r4,r5}
        0x000182dc:    c130        0.      STMCS    r1!,{r4,r5}
        0x000182de:    bf44        D.      ITT      MI
        0x000182e0:    6804        .h      LDRMI    r4,[r0,#0]
        0x000182e2:    600c        .`      STRMI    r4,[r1,#0]
        0x000182e4:    4770        pG      BX       lr
        0x000182e6:    0000        ..      MOVS     r0,r0
    !!handler_zi
    __scatterload_zeroinit
        0x000182e8:    2300        .#      MOVS     r3,#0
        0x000182ea:    2400        .$      MOVS     r4,#0
        0x000182ec:    2500        .%      MOVS     r5,#0
        0x000182ee:    2600        .&      MOVS     r6,#0
        0x000182f0:    3a10        .:      SUBS     r2,r2,#0x10
        0x000182f2:    bf28        (.      IT       CS
        0x000182f4:    c178        x.      STMCS    r1!,{r3-r6}
        0x000182f6:    d8fb        ..      BHI      0x182f0 ; __scatterload_zeroinit + 8
        0x000182f8:    0752        R.      LSLS     r2,r2,#29
        0x000182fa:    bf28        (.      IT       CS
        0x000182fc:    c130        0.      STMCS    r1!,{r4,r5}
        0x000182fe:    bf48        H.      IT       MI
        0x00018300:    600b        .`      STRMI    r3,[r1,#0]
        0x00018302:    4770        pG      BX       lr
    .ARM.Collect$$libinit$$00000000
    __rt_lib_init
        0x00018304:    b51f        ..      PUSH     {r0-r4,lr}
    .ARM.Collect$$libinit$$00000001
    __rt_lib_init_fp_1
        0x00018306:    f004fcfc    ....    BL       _fp_init ; 0x1cd02
    .ARM.Collect$$libinit$$00000004
    .ARM.Collect$$libinit$$0000000A
    .ARM.Collect$$libinit$$0000000C
    .ARM.Collect$$libinit$$0000000E
    .ARM.Collect$$libinit$$00000011
    .ARM.Collect$$libinit$$00000013
    .ARM.Collect$$libinit$$00000015
    .ARM.Collect$$libinit$$00000017
    .ARM.Collect$$libinit$$00000019
    .ARM.Collect$$libinit$$0000001B
    .ARM.Collect$$libinit$$0000001D
    .ARM.Collect$$libinit$$0000001F
    .ARM.Collect$$libinit$$00000021
    .ARM.Collect$$libinit$$00000023
    .ARM.Collect$$libinit$$00000025
    .ARM.Collect$$libinit$$0000002C
    .ARM.Collect$$libinit$$0000002E
    .ARM.Collect$$libinit$$00000030
    .ARM.Collect$$libinit$$00000032
    .ARM.Collect$$libinit$$00000033
    __rt_lib_init_alloca_1
    __rt_lib_init_argv_1
    __rt_lib_init_atexit_1
    __rt_lib_init_clock_1
    __rt_lib_init_cpp_1
    __rt_lib_init_exceptions_1
    __rt_lib_init_fp_trap_1
    __rt_lib_init_getenv_1
    __rt_lib_init_heap_1
    __rt_lib_init_lc_collate_1
    __rt_lib_init_lc_ctype_1
    __rt_lib_init_lc_monetary_1
    __rt_lib_init_lc_numeric_1
    __rt_lib_init_lc_time_1
    __rt_lib_init_preinit_1
    __rt_lib_init_rand_1
    __rt_lib_init_return
    __rt_lib_init_signal_1
    __rt_lib_init_stdio_1
    __rt_lib_init_user_alloc_1
        0x0001830a:    bd1f        ..      POP      {r0-r4,pc}
    .ARM.Collect$$libshutdown$$00000000
    __rt_lib_shutdown
        0x0001830c:    b510        ..      PUSH     {r4,lr}
    .ARM.Collect$$libshutdown$$00000002
    .ARM.Collect$$libshutdown$$00000004
    .ARM.Collect$$libshutdown$$00000007
    .ARM.Collect$$libshutdown$$0000000A
    .ARM.Collect$$libshutdown$$0000000C
    .ARM.Collect$$libshutdown$$0000000F
    .ARM.Collect$$libshutdown$$00000010
    __rt_lib_shutdown_cpp_1
    __rt_lib_shutdown_fp_trap_1
    __rt_lib_shutdown_heap_1
    __rt_lib_shutdown_return
    __rt_lib_shutdown_signal_1
    __rt_lib_shutdown_stdio_1
    __rt_lib_shutdown_user_alloc_1
        0x0001830e:    bd10        ..      POP      {r4,pc}
    .ARM.Collect$$rtentry$$00000000
    .ARM.Collect$$rtentry$$00000002
    .ARM.Collect$$rtentry$$00000004
    __rt_entry
    __rt_entry_presh_1
    __rt_entry_sh
        0x00018310:    f000f866    ..f.    BL       __user_setup_stackheap ; 0x183e0
        0x00018314:    4611        .F      MOV      r1,r2
    .ARM.Collect$$rtentry$$00000009
    .ARM.Collect$$rtentry$$0000000A
    __rt_entry_li
    __rt_entry_postsh_1
        0x00018316:    f7fffff5    ....    BL       __rt_lib_init ; 0x18304
    .ARM.Collect$$rtentry$$0000000C
    .ARM.Collect$$rtentry$$0000000D
    __rt_entry_main
    __rt_entry_postli_1
        0x0001831a:    f003f88f    ....    BL       main ; 0x1b43c
        0x0001831e:    f000f884    ....    BL       exit ; 0x1842a
    .ARM.Collect$$rtexit$$00000000
    __rt_exit
        0x00018322:    b403        ..      PUSH     {r0,r1}
    .ARM.Collect$$rtexit$$00000002
    .ARM.Collect$$rtexit$$00000003
    __rt_exit_ls
    __rt_exit_prels_1
        0x00018324:    f7fffff2    ....    BL       __rt_lib_shutdown ; 0x1830c
    .ARM.Collect$$rtexit$$00000004
    __rt_exit_exit
        0x00018328:    bc03        ..      POP      {r0,r1}
        0x0001832a:    f000f88b    ....    BL       _sys_exit ; 0x18444
        0x0001832e:    0000        ..      MOVS     r0,r0
    .text
    $v0
    __user_initial_stackheap
        0x00018330:    4802        .H      LDR      r0,[pc,#8] ; [0x1833c] = 0x10000a10
        0x00018332:    4903        .I      LDR      r1,[pc,#12] ; [0x18340] = 0x10001610
        0x00018334:    4a01        .J      LDR      r2,[pc,#4] ; [0x1833c] = 0x10000a10
        0x00018336:    4b03        .K      LDR      r3,[pc,#12] ; [0x18344] = 0x10000a10
        0x00018338:    4770        pG      BX       lr
    $d
        0x0001833a:    0000        ..      DCW    0
        0x0001833c:    10000a10    ....    DCD    268438032
        0x00018340:    10001610    ....    DCD    268441104
        0x00018344:    10000a10    ....    DCD    268438032
    $t
    .text
    __aeabi_memclr
    __rt_memclr
        0x00018348:    f04f0200    O...    MOV      r2,#0
    _memset
        0x0001834c:    2904        .)      CMP      r1,#4
        0x0001834e:    f0c08012    ....    BCC.W    0x18376 ; _memset + 42
        0x00018352:    f0100c03    ....    ANDS     r12,r0,#3
        0x00018356:    f000801b    ....    BEQ.W    _memset_w ; 0x18390
        0x0001835a:    f1cc0c04    ....    RSB      r12,r12,#4
        0x0001835e:    f1bc0f02    ....    CMP      r12,#2
        0x00018362:    bf18        ..      IT       NE
        0x00018364:    f8002b01    ...+    STRBNE   r2,[r0],#1
        0x00018368:    bfa8        ..      IT       GE
        0x0001836a:    f8202b02     ..+    STRHGE   r2,[r0],#2
        0x0001836e:    eba1010c    ....    SUB      r1,r1,r12
        0x00018372:    f000b80d    ....    B.W      _memset_w ; 0x18390
        0x00018376:    ea5f7cc1    _..|    LSLS     r12,r1,#31
        0x0001837a:    bf24        $.      ITT      CS
        0x0001837c:    f8002b01    ...+    STRBCS   r2,[r0],#1
        0x00018380:    f8002b01    ...+    STRBCS   r2,[r0],#1
        0x00018384:    bf48        H.      IT       MI
        0x00018386:    f8002b01    ...+    STRBMI   r2,[r0],#1
        0x0001838a:    4770        pG      BX       lr
    .text
    __aeabi_memclr4
    __aeabi_memclr8
    __rt_memclr_w
        0x0001838c:    f04f0200    O...    MOV      r2,#0
    _memset_w
        0x00018390:    b500        ..      PUSH     {lr}
        0x00018392:    4613        .F      MOV      r3,r2
        0x00018394:    4694        .F      MOV      r12,r2
        0x00018396:    4696        .F      MOV      lr,r2
        0x00018398:    3920         9      SUBS     r1,r1,#0x20
        0x0001839a:    bf22        ".      ITTT     CS
        0x0001839c:    e8a0500c    ...P    STMCS    r0!,{r2,r3,r12,lr}
        0x000183a0:    e8a0500c    ...P    STMCS    r0!,{r2,r3,r12,lr}
        0x000183a4:    f1b10120    .. .    SUBSCS   r1,r1,#0x20
        0x000183a8:    f4bfaff7    ....    BCS.W    0x1839a ; _memset_w + 10
        0x000183ac:    0709        ..      LSLS     r1,r1,#28
        0x000183ae:    bf28        (.      IT       CS
        0x000183b0:    e8a0500c    ...P    STMCS    r0!,{r2,r3,r12,lr}
        0x000183b4:    bf48        H.      IT       MI
        0x000183b6:    c00c        ..      STMMI    r0!,{r2,r3}
        0x000183b8:    f85deb04    ]...    POP      {lr}
        0x000183bc:    0089        ..      LSLS     r1,r1,#2
        0x000183be:    bf28        (.      IT       CS
        0x000183c0:    f8402b04    @..+    STRCS    r2,[r0],#4
        0x000183c4:    bf08        ..      IT       EQ
        0x000183c6:    4770        pG      BXEQ     lr
        0x000183c8:    bf48        H.      IT       MI
        0x000183ca:    f8202b02     ..+    STRHMI   r2,[r0],#2
        0x000183ce:    f0114f80    ...O    TST      r1,#0x40000000
        0x000183d2:    bf18        ..      IT       NE
        0x000183d4:    f8002b01    ...+    STRBNE   r2,[r0],#1
        0x000183d8:    4770        pG      BX       lr
    .text
    __use_two_region_memory
        0x000183da:    4770        pG      BX       lr
    __rt_heap_escrow$2region
        0x000183dc:    4770        pG      BX       lr
    __rt_heap_expand$2region
        0x000183de:    4770        pG      BX       lr
    .text
    __user_setup_stackheap
        0x000183e0:    4675        uF      MOV      r5,lr
        0x000183e2:    f000f82b    ..+.    BL       __user_libspace ; 0x1843c
        0x000183e6:    46ae        .F      MOV      lr,r5
        0x000183e8:    0005        ..      MOVS     r5,r0
        0x000183ea:    4669        iF      MOV      r1,sp
        0x000183ec:    4653        SF      MOV      r3,r10
        0x000183ee:    f0200007     ...    BIC      r0,r0,#7
        0x000183f2:    4685        .F      MOV      sp,r0
        0x000183f4:    b018        ..      ADD      sp,sp,#0x60
        0x000183f6:    b520         .      PUSH     {r5,lr}
        0x000183f8:    f7ffff9a    ....    BL       __user_initial_stackheap ; 0x18330
        0x000183fc:    e8bd4020    .. @    POP      {r5,lr}
        0x00018400:    f04f0600    O...    MOV      r6,#0
        0x00018404:    f04f0700    O...    MOV      r7,#0
        0x00018408:    f04f0800    O...    MOV      r8,#0
        0x0001840c:    f04f0b00    O...    MOV      r11,#0
        0x00018410:    46ac        .F      MOV      r12,r5
        0x00018412:    e8ac09c0    ....    STM      r12!,{r6-r8,r11}
        0x00018416:    e8ac09c0    ....    STM      r12!,{r6-r8,r11}
        0x0001841a:    e8ac09c0    ....    STM      r12!,{r6-r8,r11}
        0x0001841e:    e8ac09c0    ....    STM      r12!,{r6-r8,r11}
        0x00018422:    f0210107    !...    BIC      r1,r1,#7
        0x00018426:    468d        .F      MOV      sp,r1
        0x00018428:    4770        pG      BX       lr
    .text
    exit
        0x0001842a:    b510        ..      PUSH     {r4,lr}
        0x0001842c:    4604        .F      MOV      r4,r0
        0x0001842e:    f3af8000    ....    NOP.W    
        0x00018432:    4620         F      MOV      r0,r4
        0x00018434:    e8bd4010    ...@    POP      {r4,lr}
        0x00018438:    f7ffbf73    ..s.    B.W      __rt_exit ; 0x18322
    .text
    __user_libspace
    __user_perproc_libspace
    __user_perthread_libspace
        0x0001843c:    4800        .H      LDR      r0,[pc,#0] ; [0x18440] = 0x100001f8
        0x0001843e:    4770        pG      BX       lr
    $d
        0x00018440:    100001f8    ....    DCD    268435960
    $t
    .text
    _sys_exit
        0x00018444:    4901        .I      LDR      r1,[pc,#4] ; [0x1844c] = 0x20026
        0x00018446:    2018        .       MOVS     r0,#0x18
        0x00018448:    beab        ..      BKPT     #0xab
        0x0001844a:    e7fe        ..      B        0x1844a ; _sys_exit + 6
    $d
        0x0001844c:    00020026    &...    DCD    131110
    $t
    .text
    __I$use$semihosting
    __use_no_semihosting_swi
        0x00018450:    4770        pG      BX       lr
    $t.0
    .text
    SysTick_Handler
    __semihosting_library_function
        0x00018452:    f64010e4    @...    MOV      r0,#0x9e4
        0x00018456:    f2c10000    ....    MOVT     r0,#0x1000
        0x0001845a:    6801        .h      LDR      r1,[r0,#0]
        0x0001845c:    3101        .1      ADDS     r1,#1
        0x0001845e:    6001        .`      STR      r1,[r0,#0]
        0x00018460:    4770        pG      BX       lr
    TrimVersionGet
        0x00018462:    b5b0        ..      PUSH     {r4,r5,r7,lr}
        0x00018464:    f24015a0    @...    MOVW     r5,#0x1a0
        0x00018468:    f2c10500    ....    MOVT     r5,#0x1000
        0x0001846c:    6829        )h      LDR      r1,[r5,#0]
        0x0001846e:    4604        .F      MOV      r4,r0
        0x00018470:    1c4a        J.      ADDS     r2,r1,#1
        0x00018472:    d10c        ..      BNE      0x1848e ; TrimVersionGet + 44
        0x00018474:    2001        .       MOVS     r0,#1
        0x00018476:    f24041c4    @..A    MOV      r1,#0x4c4
        0x0001847a:    2201        ."      MOVS     r2,#1
        0x0001847c:    462b        +F      MOV      r3,r5
        0x0001847e:    f000fb9d    ....    BL       am_hal_mram_info_read ; 0x18bbc
        0x00018482:    b910        ..      CBNZ     r0,0x1848a ; TrimVersionGet + 40
        0x00018484:    6829        )h      LDR      r1,[r5,#0]
        0x00018486:    1c48        H.      ADDS     r0,r1,#1
        0x00018488:    d101        ..      BNE      0x1848e ; TrimVersionGet + 44
        0x0001848a:    2100        .!      MOVS     r1,#0
        0x0001848c:    6029        )`      STR      r1,[r5,#0]
        0x0001848e:    2c00        .,      CMP      r4,#0
        0x00018490:    bf0e        ..      ITEE     EQ
        0x00018492:    2006        .       MOVEQ    r0,#6
        0x00018494:    6021        !`      STRNE    r1,[r4,#0]
        0x00018496:    2000        .       MOVNE    r0,#0
        0x00018498:    bdb0        ..      POP      {r4,r5,r7,pc}
    VDDF_simobuck_boost
        0x0001849a:    e92d41f0    -..A    PUSH     {r4-r8,lr}
        0x0001849e:    b084        ..      SUB      sp,sp,#0x10
        0x000184a0:    460d        .F      MOV      r5,r1
        0x000184a2:    f24011ac    @...    MOVW     r1,#0x1ac
        0x000184a6:    f2c10100    ....    MOVT     r1,#0x1000
        0x000184aa:    680f        .h      LDR      r7,[r1,#0]
        0x000184ac:    f240386c    @.l8    MOVW     r8,#0x36c
        0x000184b0:    4614        .F      MOV      r4,r2
        0x000184b2:    4606        .F      MOV      r6,r0
        0x000184b4:    1c78        x.      ADDS     r0,r7,#1
        0x000184b6:    f2c40802    ....    MOVT     r8,#0x4002
        0x000184ba:    d104        ..      BNE      0x184c6 ; VDDF_simobuck_boost + 44
        0x000184bc:    f8d80000    ....    LDR      r0,[r8,#0]
        0x000184c0:    f3c05705    ...W    UBFX     r7,r0,#20,#6
        0x000184c4:    600f        .`      STR      r7,[r1,#0]
        0x000184c6:    a803        ..      ADD      r0,sp,#0xc
        0x000184c8:    f7ffffcb    ....    BL       TrimVersionGet ; 0x18462
        0x000184cc:    b36e        n.      CBZ      r6,0x1852a ; VDDF_simobuck_boost + 144
        0x000184ce:    f64f40a0    O..@    MOV      r0,#0xfca0
        0x000184d2:    f6cf70ff    ...p    MOVT     r0,#0xffff
        0x000184d6:    f8580000    X...    LDR      r0,[r8,r0]
        0x000184da:    f00000fe    ....    AND      r0,r0,#0xfe
        0x000184de:    2822        "(      CMP      r0,#0x22
        0x000184e0:    d342        B.      BCC      0x18568 ; VDDF_simobuck_boost + 206
        0x000184e2:    9803        ..      LDR      r0,[sp,#0xc]
        0x000184e4:    2805        .(      CMP      r0,#5
        0x000184e6:    bf88        ..      IT       HI
        0x000184e8:    1cec        ..      ADDHI    r4,r5,#3
        0x000184ea:    f1c4003f    ..?.    RSB      r0,r4,#0x3f
        0x000184ee:    4287        .B      CMP      r7,r0
        0x000184f0:    f8d80000    ....    LDR      r0,[r8,#0]
        0x000184f4:    443c        <D      ADD      r4,r4,r7
        0x000184f6:    f3c05005    ...P    UBFX     r0,r0,#20,#6
        0x000184fa:    bf88        ..      IT       HI
        0x000184fc:    243f        ?$      MOVHI    r4,#0x3f
        0x000184fe:    42a0        .B      CMP      r0,r4
        0x00018500:    d032        2.      BEQ      0x18568 ; VDDF_simobuck_boost + 206
        0x00018502:    f000fb41    ..A.    BL       am_hal_interrupt_master_disable ; 0x18b88
        0x00018506:    9001        ..      STR      r0,[sp,#4]
        0x00018508:    f8d8000c    ....    LDR      r0,[r8,#0xc]
        0x0001850c:    f0404000    @..@    ORR      r0,r0,#0x80000000
        0x00018510:    f8c8000c    ....    STR      r0,[r8,#0xc]
        0x00018514:    f8d80000    ....    LDR      r0,[r8,#0]
        0x00018518:    f3645019    d..P    BFI      r0,r4,#20,#6
        0x0001851c:    f8c80000    ....    STR      r0,[r8,#0]
        0x00018520:    2014        .       MOVS     r0,#0x14
        0x00018522:    f000fa17    ....    BL       am_hal_delay_us ; 0x18954
        0x00018526:    9801        ..      LDR      r0,[sp,#4]
        0x00018528:    e01c        ..      B        0x18564 ; VDDF_simobuck_boost + 202
        0x0001852a:    9803        ..      LDR      r0,[sp,#0xc]
        0x0001852c:    2805        .(      CMP      r0,#5
        0x0001852e:    f8d80000    ....    LDR      r0,[r8,#0]
        0x00018532:    bf88        ..      IT       HI
        0x00018534:    3703        .7      ADDHI    r7,#3
        0x00018536:    f3c05005    ...P    UBFX     r0,r0,#20,#6
        0x0001853a:    42b8        .B      CMP      r0,r7
        0x0001853c:    d014        ..      BEQ      0x18568 ; VDDF_simobuck_boost + 206
        0x0001853e:    f000fb23    ..#.    BL       am_hal_interrupt_master_disable ; 0x18b88
        0x00018542:    9002        ..      STR      r0,[sp,#8]
        0x00018544:    f8d8000c    ....    LDR      r0,[r8,#0xc]
        0x00018548:    f0404000    @..@    ORR      r0,r0,#0x80000000
        0x0001854c:    f8c8000c    ....    STR      r0,[r8,#0xc]
        0x00018550:    f8d80000    ....    LDR      r0,[r8,#0]
        0x00018554:    f3675019    g..P    BFI      r0,r7,#20,#6
        0x00018558:    f8c80000    ....    STR      r0,[r8,#0]
        0x0001855c:    2014        .       MOVS     r0,#0x14
        0x0001855e:    f000f9f9    ....    BL       am_hal_delay_us ; 0x18954
        0x00018562:    9802        ..      LDR      r0,[sp,#8]
        0x00018564:    f000fb18    ....    BL       am_hal_interrupt_master_set ; 0x18b98
        0x00018568:    b004        ..      ADD      sp,sp,#0x10
        0x0001856a:    e8bd81f0    ....    POP      {r4-r8,pc}
    am_bsp_low_power_init
        0x0001856e:    b580        ..      PUSH     {r7,lr}
        0x00018570:    f000fd34    ..4.    BL       am_hal_pwrctrl_low_power_init ; 0x18fdc
        0x00018574:    2000        .       MOVS     r0,#0
        0x00018576:    2100        .!      MOVS     r1,#0
        0x00018578:    f000fb6a    ..j.    BL       am_hal_pwrctrl_control ; 0x18c50
        0x0001857c:    e8bd4080    ...@    POP      {r7,lr}
        0x00018580:    f001b88e    ....    B.W      am_hal_rtc_osc_disable ; 0x196a0
    am_bsp_uart_printf_disable
        0x00018584:    b570        p.      PUSH     {r4-r6,lr}
        0x00018586:    f6400587    @...    MOV      r5,#0x887
        0x0001858a:    f2c10500    ....    MOVT     r5,#0x1000
        0x0001858e:    7828        (x      LDRB     r0,[r5,#0]
        0x00018590:    2802        .(      CMP      r0,#2
        0x00018592:    bf18        ..      IT       NE
        0x00018594:    bd70        p.      POPNE    {r4-r6,pc}
        0x00018596:    f640148c    @...    MOV      r4,#0x98c
        0x0001859a:    f2c10400    ....    MOVT     r4,#0x1000
        0x0001859e:    6820         h      LDR      r0,[r4,#0]
        0x000185a0:    f001fc1e    ....    BL       am_hal_uart_tx_flush ; 0x19de0
        0x000185a4:    2000        .       MOVS     r0,#0
        0x000185a6:    2600        .&      MOVS     r6,#0
        0x000185a8:    f001fd9a    ....    BL       am_util_stdio_printf_init ; 0x1a0e0
        0x000185ac:    6820         h      LDR      r0,[r4,#0]
        0x000185ae:    2102        .!      MOVS     r1,#2
        0x000185b0:    2200        ."      MOVS     r2,#0
        0x000185b2:    f001fb5d    ..].    BL       am_hal_uart_power_control ; 0x19c70
        0x000185b6:    6820         h      LDR      r0,[r4,#0]
        0x000185b8:    f001fb0e    ....    BL       am_hal_uart_deinitialize ; 0x19bd8
        0x000185bc:    f64c5030    L.0P    MOV      r0,#0xcd30
        0x000185c0:    f2c00001    ....    MOVT     r0,#1
        0x000185c4:    6804        .h      LDR      r4,[r0,#0]
        0x000185c6:    203c        <       MOVS     r0,#0x3c
        0x000185c8:    4621        !F      MOV      r1,r4
        0x000185ca:    f000fa3b    ..;.    BL       am_hal_gpio_pinconfig ; 0x18a44
        0x000185ce:    202f        /       MOVS     r0,#0x2f
        0x000185d0:    4621        !F      MOV      r1,r4
        0x000185d2:    f000fa37    ..7.    BL       am_hal_gpio_pinconfig ; 0x18a44
        0x000185d6:    702e        .p      STRB     r6,[r5,#0]
        0x000185d8:    bd70        p.      POP      {r4-r6,pc}
    am_bsp_uart_printf_enable
        0x000185da:    b510        ..      PUSH     {r4,lr}
        0x000185dc:    f640148c    @...    MOV      r4,#0x98c
        0x000185e0:    f2c10400    ....    MOVT     r4,#0x1000
        0x000185e4:    2000        .       MOVS     r0,#0
        0x000185e6:    4621        !F      MOV      r1,r4
        0x000185e8:    f001fb0a    ....    BL       am_hal_uart_initialize ; 0x19c00
        0x000185ec:    b9f8        ..      CBNZ     r0,0x1862e ; am_bsp_uart_printf_enable + 84
        0x000185ee:    6820         h      LDR      r0,[r4,#0]
        0x000185f0:    2100        .!      MOVS     r1,#0
        0x000185f2:    2200        ."      MOVS     r2,#0
        0x000185f4:    f001fb3c    ..<.    BL       am_hal_uart_power_control ; 0x19c70
        0x000185f8:    b9c8        ..      CBNZ     r0,0x1862e ; am_bsp_uart_printf_enable + 84
        0x000185fa:    6820         h      LDR      r0,[r4,#0]
        0x000185fc:    f24d0114    M...    MOV      r1,#0xd014
        0x00018600:    f2c00101    ....    MOVT     r1,#1
        0x00018604:    f001fa26    ..&.    BL       am_hal_uart_configure ; 0x19a54
        0x00018608:    b988        ..      CBNZ     r0,0x1862e ; am_bsp_uart_printf_enable + 84
        0x0001860a:    f2400020    @. .    MOVW     r0,#0x20
        0x0001860e:    f2c10000    ....    MOVT     r0,#0x1000
        0x00018612:    6801        .h      LDR      r1,[r0,#0]
        0x00018614:    203c        <       MOVS     r0,#0x3c
        0x00018616:    f000fa15    ....    BL       am_hal_gpio_pinconfig ; 0x18a44
        0x0001861a:    b940        @.      CBNZ     r0,0x1862e ; am_bsp_uart_printf_enable + 84
        0x0001861c:    f240001c    @...    MOVW     r0,#0x1c
        0x00018620:    f2c10000    ....    MOVT     r0,#0x1000
        0x00018624:    6801        .h      LDR      r1,[r0,#0]
        0x00018626:    202f        /       MOVS     r0,#0x2f
        0x00018628:    f000fa0c    ....    BL       am_hal_gpio_pinconfig ; 0x18a44
        0x0001862c:    b110        ..      CBZ      r0,0x18634 ; am_bsp_uart_printf_enable + 90
        0x0001862e:    f04f30ff    O..0    MOV      r0,#0xffffffff
        0x00018632:    bd10        ..      POP      {r4,pc}
        0x00018634:    f6400087    @...    MOV      r0,#0x887
        0x00018638:    f2c10000    ....    MOVT     r0,#0x1000
        0x0001863c:    2102        .!      MOVS     r1,#2
        0x0001863e:    7001        .p      STRB     r1,[r0,#0]
        0x00018640:    f2486051    H.Q`    MOV      r0,#0x8651
        0x00018644:    f2c00001    ....    MOVT     r0,#1
        0x00018648:    f001fd4a    ..J.    BL       am_util_stdio_printf_init ; 0x1a0e0
        0x0001864c:    2000        .       MOVS     r0,#0
        0x0001864e:    bd10        ..      POP      {r4,pc}
    am_bsp_uart_string_print
        0x00018650:    b510        ..      PUSH     {r4,lr}
        0x00018652:    b08a        ..      SUB      sp,sp,#0x28
        0x00018654:    2400        .$      MOVS     r4,#0
        0x00018656:    9409        ..      STR      r4,[sp,#0x24]
        0x00018658:    5d01        .]      LDRB     r1,[r0,r4]
        0x0001865a:    3401        .4      ADDS     r4,#1
        0x0001865c:    2900        .)      CMP      r1,#0
        0x0001865e:    d1fb        ..      BNE      0x18658 ; am_bsp_uart_string_print + 8
        0x00018660:    9002        ..      STR      r0,[sp,#8]
        0x00018662:    1e60        `.      SUBS     r0,r4,#1
        0x00018664:    9003        ..      STR      r0,[sp,#0xc]
        0x00018666:    a809        ..      ADD      r0,sp,#0x24
        0x00018668:    2100        .!      MOVS     r1,#0
        0x0001866a:    9004        ..      STR      r0,[sp,#0x10]
        0x0001866c:    f04f30ff    O..0    MOV      r0,#0xffffffff
        0x00018670:    e9cd0105    ....    STRD     r0,r1,[sp,#0x14]
        0x00018674:    f640108c    @...    MOV      r0,#0x98c
        0x00018678:    f2c10000    ....    MOVT     r0,#0x1000
        0x0001867c:    6800        .h      LDR      r0,[r0,#0]
        0x0001867e:    f88d1004    ....    STRB     r1,[sp,#4]
        0x00018682:    9107        ..      STR      r1,[sp,#0x1c]
        0x00018684:    9108        ..      STR      r1,[sp,#0x20]
        0x00018686:    a901        ..      ADD      r1,sp,#4
        0x00018688:    f001fb50    ..P.    BL       am_hal_uart_transfer ; 0x19d2c
        0x0001868c:    9809        ..      LDR      r0,[sp,#0x24]
        0x0001868e:    3001        .0      ADDS     r0,#1
        0x00018690:    42a0        .B      CMP      r0,r4
        0x00018692:    bf04        ..      ITT      EQ
        0x00018694:    b00a        ..      ADDEQ    sp,sp,#0x28
        0x00018696:    bd10        ..      POPEQ    {r4,pc}
        0x00018698:    e7fe        ..      B        0x18698 ; am_bsp_uart_string_print + 72
        0x0001869a:    0000        ..      MOVS     r0,r0
    am_devices_led_array_init
        0x0001869c:    b570        p.      PUSH     {r4-r6,lr}
        0x0001869e:    460c        .F      MOV      r4,r1
        0x000186a0:    3901        .9      SUBS     r1,#1
        0x000186a2:    291e        .)      CMP      r1,#0x1e
        0x000186a4:    d80c        ..      BHI      0x186c0 ; am_devices_led_array_init + 36
        0x000186a6:    4605        .F      MOV      r5,r0
        0x000186a8:    2800        .(      CMP      r0,#0
        0x000186aa:    bf08        ..      IT       EQ
        0x000186ac:    bd70        p.      POPEQ    {r4-r6,pc}
        0x000186ae:    2600        .&      MOVS     r6,#0
        0x000186b0:    4628        (F      MOV      r0,r5
        0x000186b2:    f000f822    ..".    BL       am_devices_led_init ; 0x186fa
        0x000186b6:    3601        .6      ADDS     r6,#1
        0x000186b8:    42a6        .B      CMP      r6,r4
        0x000186ba:    f1050508    ....    ADD      r5,r5,#8
        0x000186be:    d3f7        ..      BCC      0x186b0 ; am_devices_led_array_init + 20
        0x000186c0:    bd70        p.      POP      {r4-r6,pc}
        0x000186c2:    0000        ..      MOVS     r0,r0
    am_devices_led_array_out
        0x000186c4:    b5f0        ..      PUSH     {r4-r7,lr}
        0x000186c6:    b081        ..      SUB      sp,sp,#4
        0x000186c8:    b1a9        ..      CBZ      r1,0x186f6 ; am_devices_led_array_out + 50
        0x000186ca:    4614        .F      MOV      r4,r2
        0x000186cc:    460d        .F      MOV      r5,r1
        0x000186ce:    4606        .F      MOV      r6,r0
        0x000186d0:    2700        .'      MOVS     r7,#0
        0x000186d2:    bf00        ..      NOP      
        0x000186d4:    fa24f007    $...    LSR      r0,r4,r7
        0x000186d8:    07c0        ..      LSLS     r0,r0,#31
        0x000186da:    d005        ..      BEQ      0x186e8 ; am_devices_led_array_out + 36
        0x000186dc:    4630        0F      MOV      r0,r6
        0x000186de:    4639        9F      MOV      r1,r7
        0x000186e0:    f000f84e    ..N.    BL       am_devices_led_on ; 0x18780
        0x000186e4:    e004        ..      B        0x186f0 ; am_devices_led_array_out + 44
        0x000186e6:    bf00        ..      NOP      
        0x000186e8:    4630        0F      MOV      r0,r6
        0x000186ea:    4639        9F      MOV      r1,r7
        0x000186ec:    f000f82e    ....    BL       am_devices_led_off ; 0x1874c
        0x000186f0:    3701        .7      ADDS     r7,#1
        0x000186f2:    42bd        .B      CMP      r5,r7
        0x000186f4:    d1ee        ..      BNE      0x186d4 ; am_devices_led_array_out + 16
        0x000186f6:    b001        ..      ADD      sp,sp,#4
        0x000186f8:    bdf0        ..      POP      {r4-r7,pc}
    am_devices_led_init
        0x000186fa:    b510        ..      PUSH     {r4,lr}
        0x000186fc:    b118        ..      CBZ      r0,0x18706 ; am_devices_led_init + 12
        0x000186fe:    4604        .F      MOV      r4,r0
        0x00018700:    6800        .h      LDR      r0,[r0,#0]
        0x00018702:    287f        .(      CMP      r0,#0x7f
        0x00018704:    d900        ..      BLS      0x18708 ; am_devices_led_init + 14
        0x00018706:    bd10        ..      POP      {r4,pc}
        0x00018708:    6861        ah      LDR      r1,[r4,#4]
        0x0001870a:    078a        ..      LSLS     r2,r1,#30
        0x0001870c:    d406        ..      BMI      0x1871c ; am_devices_led_init + 34
        0x0001870e:    0749        I.      LSLS     r1,r1,#29
        0x00018710:    d409        ..      BMI      0x18726 ; am_devices_led_init + 44
        0x00018712:    f64c513c    L.<Q    MOV      r1,#0xcd3c
        0x00018716:    f2c00101    ....    MOVT     r1,#1
        0x0001871a:    e008        ..      B        0x1872e ; am_devices_led_init + 52
        0x0001871c:    f64c5138    L.8Q    MOV      r1,#0xcd38
        0x00018720:    f2c00101    ....    MOVT     r1,#1
        0x00018724:    e003        ..      B        0x1872e ; am_devices_led_init + 52
        0x00018726:    f64c5134    L.4Q    MOV      r1,#0xcd34
        0x0001872a:    f2c00101    ....    MOVT     r1,#1
        0x0001872e:    6809        .h      LDR      r1,[r1,#0]
        0x00018730:    f000f988    ....    BL       am_hal_gpio_pinconfig ; 0x18a44
        0x00018734:    6820         h      LDR      r0,[r4,#0]
        0x00018736:    2103        .!      MOVS     r1,#3
        0x00018738:    f000f9b2    ....    BL       am_hal_gpio_state_write ; 0x18aa0
        0x0001873c:    6861        ah      LDR      r1,[r4,#4]
        0x0001873e:    6820         h      LDR      r0,[r4,#0]
        0x00018740:    f0010101    ....    AND      r1,r1,#1
        0x00018744:    e8bd4010    ...@    POP      {r4,lr}
        0x00018748:    f000b9aa    ....    B.W      am_hal_gpio_state_write ; 0x18aa0
    am_devices_led_off
        0x0001874c:    b130        0.      CBZ      r0,0x1875c ; am_devices_led_off + 16
        0x0001874e:    291e        .)      CMP      r1,#0x1e
        0x00018750:    d804        ..      BHI      0x1875c ; am_devices_led_off + 16
        0x00018752:    4602        .F      MOV      r2,r0
        0x00018754:    f8500031    P.1.    LDR      r0,[r0,r1,LSL #3]
        0x00018758:    287f        .(      CMP      r0,#0x7f
        0x0001875a:    d900        ..      BLS      0x1875e ; am_devices_led_off + 18
        0x0001875c:    4770        pG      BX       lr
        0x0001875e:    eb0201c1    ....    ADD      r1,r2,r1,LSL #3
        0x00018762:    6849        Ih      LDR      r1,[r1,#4]
        0x00018764:    078b        ..      LSLS     r3,r1,#30
        0x00018766:    bf5c        \.      ITT      PL
        0x00018768:    7912        .y      LDRBPL   r2,[r2,#4]
        0x0001876a:    ea5f7242    _.Br    LSLSPL   r2,r2,#29
        0x0001876e:    d504        ..      BPL      0x1877a ; am_devices_led_off + 46
        0x00018770:    2201        ."      MOVS     r2,#1
        0x00018772:    ea220101    "...    BIC      r1,r2,r1
        0x00018776:    f000b993    ....    B.W      am_hal_gpio_state_write ; 0x18aa0
        0x0001877a:    2103        .!      MOVS     r1,#3
        0x0001877c:    f000b990    ....    B.W      am_hal_gpio_state_write ; 0x18aa0
    am_devices_led_on
        0x00018780:    b130        0.      CBZ      r0,0x18790 ; am_devices_led_on + 16
        0x00018782:    291e        .)      CMP      r1,#0x1e
        0x00018784:    d804        ..      BHI      0x18790 ; am_devices_led_on + 16
        0x00018786:    4602        .F      MOV      r2,r0
        0x00018788:    f8500031    P.1.    LDR      r0,[r0,r1,LSL #3]
        0x0001878c:    287f        .(      CMP      r0,#0x7f
        0x0001878e:    d900        ..      BLS      0x18792 ; am_devices_led_on + 18
        0x00018790:    4770        pG      BX       lr
        0x00018792:    eb0201c1    ....    ADD      r1,r2,r1,LSL #3
        0x00018796:    6849        Ih      LDR      r1,[r1,#4]
        0x00018798:    078b        ..      LSLS     r3,r1,#30
        0x0001879a:    bf5c        \.      ITT      PL
        0x0001879c:    7912        .y      LDRBPL   r2,[r2,#4]
        0x0001879e:    ea5f7242    _.Br    LSLSPL   r2,r2,#29
        0x000187a2:    d503        ..      BPL      0x187ac ; am_devices_led_on + 44
        0x000187a4:    f0010101    ....    AND      r1,r1,#1
        0x000187a8:    f000b97a    ..z.    B.W      am_hal_gpio_state_write ; 0x18aa0
        0x000187ac:    2104        .!      MOVS     r1,#4
        0x000187ae:    f000b977    ..w.    B.W      am_hal_gpio_state_write ; 0x18aa0
    am_hal_daxi_config
        0x000187b2:    b5b0        ..      PUSH     {r4,r5,r7,lr}
        0x000187b4:    b082        ..      SUB      sp,sp,#8
        0x000187b6:    b128        (.      CBZ      r0,0x187c4 ; am_hal_daxi_config + 18
        0x000187b8:    4605        .F      MOV      r5,r0
        0x000187ba:    7880        .x      LDRB     r0,[r0,#2]
        0x000187bc:    b910        ..      CBNZ     r0,0x187c4 ; am_hal_daxi_config + 18
        0x000187be:    7868        hx      LDRB     r0,[r5,#1]
        0x000187c0:    2801        .(      CMP      r0,#1
        0x000187c2:    d903        ..      BLS      0x187cc ; am_hal_daxi_config + 26
        0x000187c4:    2406        .$      MOVS     r4,#6
        0x000187c6:    4620         F      MOV      r0,r4
        0x000187c8:    b002        ..      ADD      sp,sp,#8
        0x000187ca:    bdb0        ..      POP      {r4,r5,r7,pc}
        0x000187cc:    f000f9dc    ....    BL       am_hal_interrupt_master_disable ; 0x18b88
        0x000187d0:    9001        ..      STR      r0,[sp,#4]
        0x000187d2:    2002        .       MOVS     r0,#2
        0x000187d4:    2100        .!      MOVS     r1,#0
        0x000187d6:    2400        .$      MOVS     r4,#0
        0x000187d8:    f000f816    ....    BL       am_hal_daxi_control ; 0x18808
        0x000187dc:    78a9        .x      LDRB     r1,[r5,#2]
        0x000187de:    786a        jx      LDRB     r2,[r5,#1]
        0x000187e0:    7828        (x      LDRB     r0,[r5,#0]
        0x000187e2:    f0010101    ....    AND      r1,r1,#1
        0x000187e6:    f3622109    b..!    BFI      r1,r2,#8,#2
        0x000187ea:    ea414000    A..@    ORR      r0,r1,r0,LSL #16
        0x000187ee:    2150        P!      MOVS     r1,#0x50
        0x000187f0:    f6c40100    ....    MOVT     r1,#0x4800
        0x000187f4:    6008        .`      STR      r0,[r1,#0]
        0x000187f6:    2000        .       MOVS     r0,#0
        0x000187f8:    f2c470ff    ...p    MOVT     r0,#0x47ff
        0x000187fc:    6800        .h      LDR      r0,[r0,#0]
        0x000187fe:    9801        ..      LDR      r0,[sp,#4]
        0x00018800:    f000f9ca    ....    BL       am_hal_interrupt_master_set ; 0x18b98
        0x00018804:    e7df        ..      B        0x187c6 ; am_hal_daxi_config + 20
        0x00018806:    0000        ..      MOVS     r0,r0
    am_hal_daxi_control
        0x00018808:    b5b0        ..      PUSH     {r4,r5,r7,lr}
        0x0001880a:    b082        ..      SUB      sp,sp,#8
        0x0001880c:    2801        .(      CMP      r0,#1
        0x0001880e:    d062        b.      BEQ      0x188d6 ; am_hal_daxi_control + 206
        0x00018810:    2803        .(      CMP      r0,#3
        0x00018812:    d06f        o.      BEQ      0x188f4 ; am_hal_daxi_control + 236
        0x00018814:    2802        .(      CMP      r0,#2
        0x00018816:    f040809a    @...    BNE.W    0x1894e ; am_hal_daxi_control + 326
        0x0001881a:    2454        T$      MOVS     r4,#0x54
        0x0001881c:    2500        .%      MOVS     r5,#0
        0x0001881e:    f6c40400    ....    MOVT     r4,#0x4800
        0x00018822:    f2c475ff    ...u    MOVT     r5,#0x47ff
        0x00018826:    f000f9af    ....    BL       am_hal_interrupt_master_disable ; 0x18b88
        0x0001882a:    9001        ..      STR      r0,[sp,#4]
        0x0001882c:    f3bf8f4f    ..O.    DSB      
        0x00018830:    6820         h      LDR      r0,[r4,#0]
        0x00018832:    f64011e8    @...    MOV      r1,#0x9e8
        0x00018836:    f0400001    @...    ORR      r0,r0,#1
        0x0001883a:    6020         `      STR      r0,[r4,#0]
        0x0001883c:    6828        (h      LDR      r0,[r5,#0]
        0x0001883e:    6820         h      LDR      r0,[r4,#0]
        0x00018840:    f2c10100    ....    MOVT     r1,#0x1000
        0x00018844:    f0400002    @...    ORR      r0,r0,#2
        0x00018848:    6020         `      STR      r0,[r4,#0]
        0x0001884a:    6828        (h      LDR      r0,[r5,#0]
        0x0001884c:    6808        .h      LDR      r0,[r1,#0]
        0x0001884e:    2800        .(      CMP      r0,#0
        0x00018850:    d03d        =.      BEQ      0x188ce ; am_hal_daxi_control + 198
        0x00018852:    f640220c    @.."    MOV      r2,#0xa0c
        0x00018856:    f2c10200    ....    MOVT     r2,#0x1000
        0x0001885a:    6812        .h      LDR      r2,[r2,#0]
        0x0001885c:    f6402308    @..#    MOV      r3,#0xa08
        0x00018860:    f2c10300    ....    MOVT     r3,#0x1000
        0x00018864:    6812        .h      LDR      r2,[r2,#0]
        0x00018866:    681b        .h      LDR      r3,[r3,#0]
        0x00018868:    401a        .@      ANDS     r2,r2,r3
        0x0001886a:    429a        .B      CMP      r2,r3
        0x0001886c:    d12f        /.      BNE      0x188ce ; am_hal_daxi_control + 198
        0x0001886e:    f24052a0    @..R    MOVW     r2,#0x5a0
        0x00018872:    f2c10200    ....    MOVT     r2,#0x1000
        0x00018876:    6812        .h      LDR      r2,[r2,#0]
        0x00018878:    b1c2        ..      CBZ      r2,0x188ac ; am_hal_daxi_control + 164
        0x0001887a:    2200        ."      MOVS     r2,#0
        0x0001887c:    2300        .#      MOVS     r3,#0
        0x0001887e:    bf00        ..      NOP      
        0x00018880:    50c2        .P      STR      r2,[r0,r3]
        0x00018882:    3310        .3      ADDS     r3,r3,#0x10
        0x00018884:    2b40        @+      CMP      r3,#0x40
        0x00018886:    d1fb        ..      BNE      0x18880 ; am_hal_daxi_control + 120
        0x00018888:    f3bf8f4f    ..O.    DSB      
        0x0001888c:    6820         h      LDR      r0,[r4,#0]
        0x0001888e:    f0400001    @...    ORR      r0,r0,#1
        0x00018892:    6020         `      STR      r0,[r4,#0]
        0x00018894:    6828        (h      LDR      r0,[r5,#0]
        0x00018896:    6820         h      LDR      r0,[r4,#0]
        0x00018898:    f0400002    @...    ORR      r0,r0,#2
        0x0001889c:    6020         `      STR      r0,[r4,#0]
        0x0001889e:    6828        (h      LDR      r0,[r5,#0]
        0x000188a0:    6808        .h      LDR      r0,[r1,#0]
        0x000188a2:    2100        .!      MOVS     r1,#0
        0x000188a4:    5842        BX      LDR      r2,[r0,r1]
        0x000188a6:    3110        .1      ADDS     r1,r1,#0x10
        0x000188a8:    2940        @)      CMP      r1,#0x40
        0x000188aa:    d1fb        ..      BNE      0x188a4 ; am_hal_daxi_control + 156
        0x000188ac:    211e        .!      MOVS     r1,#0x1e
        0x000188ae:    bf00        ..      NOP      
        0x000188b0:    6802        .h      LDR      r2,[r0,#0]
        0x000188b2:    6802        .h      LDR      r2,[r0,#0]
        0x000188b4:    6802        .h      LDR      r2,[r0,#0]
        0x000188b6:    6802        .h      LDR      r2,[r0,#0]
        0x000188b8:    6802        .h      LDR      r2,[r0,#0]
        0x000188ba:    6802        .h      LDR      r2,[r0,#0]
        0x000188bc:    3901        .9      SUBS     r1,#1
        0x000188be:    d1f7        ..      BNE      0x188b0 ; am_hal_daxi_control + 168
        0x000188c0:    f3bf8f4f    ..O.    DSB      
        0x000188c4:    6820         h      LDR      r0,[r4,#0]
        0x000188c6:    f0400002    @...    ORR      r0,r0,#2
        0x000188ca:    6020         `      STR      r0,[r4,#0]
        0x000188cc:    6828        (h      LDR      r0,[r5,#0]
        0x000188ce:    9801        ..      LDR      r0,[sp,#4]
        0x000188d0:    f000f962    ..b.    BL       am_hal_interrupt_master_set ; 0x18b98
        0x000188d4:    e00c        ..      B        0x188f0 ; am_hal_daxi_control + 232
        0x000188d6:    2054        T       MOVS     r0,#0x54
        0x000188d8:    f3bf8f4f    ..O.    DSB      
        0x000188dc:    f6c40000    ....    MOVT     r0,#0x4800
        0x000188e0:    6801        .h      LDR      r1,[r0,#0]
        0x000188e2:    f0410102    A...    ORR      r1,r1,#2
        0x000188e6:    6001        .`      STR      r1,[r0,#0]
        0x000188e8:    2000        .       MOVS     r0,#0
        0x000188ea:    f2c470ff    ...p    MOVT     r0,#0x47ff
        0x000188ee:    6800        .h      LDR      r0,[r0,#0]
        0x000188f0:    2000        .       MOVS     r0,#0
        0x000188f2:    e02d        -.      B        0x18950 ; am_hal_daxi_control + 328
        0x000188f4:    f04f0006    O...    MOV      r0,#6
        0x000188f8:    b351        Q.      CBZ      r1,0x18950 ; am_hal_daxi_control + 328
        0x000188fa:    f011020f    ....    ANDS     r2,r1,#0xf
        0x000188fe:    d127        '.      BNE      0x18950 ; am_hal_daxi_control + 328
        0x00018900:    f64c7380    L..s    MOV      r3,#0xcf80
        0x00018904:    f1010c40    ..@.    ADD      r12,r1,#0x40
        0x00018908:    2000        .       MOVS     r0,#0
        0x0001890a:    f2c00301    ....    MOVT     r3,#1
        0x0001890e:    bf00        ..      NOP      
        0x00018910:    581c        .X      LDR      r4,[r3,r0]
        0x00018912:    428c        .B      CMP      r4,r1
        0x00018914:    d804        ..      BHI      0x18920 ; am_hal_daxi_control + 280
        0x00018916:    181d        ..      ADDS     r5,r3,r0
        0x00018918:    686a        jh      LDR      r2,[r5,#4]
        0x0001891a:    4422        "D      ADD      r2,r2,r4
        0x0001891c:    4594        .E      CMP      r12,r2
        0x0001891e:    d303        ..      BCC      0x18928 ; am_hal_daxi_control + 288
        0x00018920:    3010        .0      ADDS     r0,r0,#0x10
        0x00018922:    2860        `(      CMP      r0,#0x60
        0x00018924:    d1f4        ..      BNE      0x18910 ; am_hal_daxi_control + 264
        0x00018926:    e012        ..      B        0x1894e ; am_hal_daxi_control + 326
        0x00018928:    f640220c    @.."    MOV      r2,#0xa0c
        0x0001892c:    e9d53502    ...5    LDRD     r3,r5,[r5,#8]
        0x00018930:    f2c10200    ....    MOVT     r2,#0x1000
        0x00018934:    6013        .`      STR      r3,[r2,#0]
        0x00018936:    f6402208    @.."    MOV      r2,#0xa08
        0x0001893a:    f2c10200    ....    MOVT     r2,#0x1000
        0x0001893e:    6015        .`      STR      r5,[r2,#0]
        0x00018940:    f64012e8    @...    MOV      r2,#0x9e8
        0x00018944:    f2c10200    ....    MOVT     r2,#0x1000
        0x00018948:    2860        `(      CMP      r0,#0x60
        0x0001894a:    6011        .`      STR      r1,[r2,#0]
        0x0001894c:    d1d0        ..      BNE      0x188f0 ; am_hal_daxi_control + 232
        0x0001894e:    2006        .       MOVS     r0,#6
        0x00018950:    b002        ..      ADD      sp,sp,#8
        0x00018952:    bdb0        ..      POP      {r4,r5,r7,pc}
    am_hal_delay_us
        0x00018954:    f2410100    A...    MOVW     r1,#0x1000
        0x00018958:    f2c40102    ....    MOVT     r1,#0x4002
        0x0001895c:    6809        .h      LDR      r1,[r1,#0]
        0x0001895e:    2205        ."      MOVS     r2,#5
        0x00018960:    f0010118    ....    AND      r1,r1,#0x18
        0x00018964:    2910        .)      CMP      r1,#0x10
        0x00018966:    bf08        ..      IT       EQ
        0x00018968:    2206        ."      MOVEQ    r2,#6
        0x0001896a:    fa00f002    ....    LSL      r0,r0,r2
        0x0001896e:    f04f010f    O...    MOV      r1,#0xf
        0x00018972:    bf08        ..      IT       EQ
        0x00018974:    2115        .!      MOVEQ    r1,#0x15
        0x00018976:    4281        .B      CMP      r1,r0
        0x00018978:    bf28        (.      IT       CS
        0x0001897a:    4770        pG      BXCS     lr
        0x0001897c:    1a40        @.      SUBS     r0,r0,r1
        0x0001897e:    f64c71ec    L..q    MOV      r1,#0xcfec
        0x00018982:    f2c00101    ....    MOVT     r1,#1
        0x00018986:    6a49        Ij      LDR      r1,[r1,#0x24]
        0x00018988:    4708        .G      BX       r1
        0x0001898a:    0000        ..      MOVS     r0,r0
    am_hal_delay_us_status_change
        0x0001898c:    e92d43f0    -..C    PUSH     {r4-r9,lr}
        0x00018990:    b081        ..      SUB      sp,sp,#4
        0x00018992:    460d        .F      MOV      r5,r1
        0x00018994:    6809        .h      LDR      r1,[r1,#0]
        0x00018996:    4011        .@      ANDS     r1,r1,r2
        0x00018998:    4299        .B      CMP      r1,r3
        0x0001899a:    d01b        ..      BEQ      0x189d4 ; am_hal_delay_us_status_change + 72
        0x0001899c:    f64c71ec    L..q    MOV      r1,#0xcfec
        0x000189a0:    f2c00101    ....    MOVT     r1,#1
        0x000189a4:    6a4f        Oj      LDR      r7,[r1,#0x24]
        0x000189a6:    f2410900    A...    MOVW     r9,#0x1000
        0x000189aa:    4698        .F      MOV      r8,r3
        0x000189ac:    4616        .F      MOV      r6,r2
        0x000189ae:    1c44        D.      ADDS     r4,r0,#1
        0x000189b0:    f2c40902    ....    MOVT     r9,#0x4002
        0x000189b4:    3c01        .<      SUBS     r4,#1
        0x000189b6:    d00f        ..      BEQ      0x189d8 ; am_hal_delay_us_status_change + 76
        0x000189b8:    f8d90000    ....    LDR      r0,[r9,#0]
        0x000189bc:    f0000018    ....    AND      r0,r0,#0x18
        0x000189c0:    2810        .(      CMP      r0,#0x10
        0x000189c2:    f04f0011    O...    MOV      r0,#0x11
        0x000189c6:    bf08        ..      IT       EQ
        0x000189c8:    202b        +       MOVEQ    r0,#0x2b
        0x000189ca:    47b8        .G      BLX      r7
        0x000189cc:    6828        (h      LDR      r0,[r5,#0]
        0x000189ce:    4030        0@      ANDS     r0,r0,r6
        0x000189d0:    4540        @E      CMP      r0,r8
        0x000189d2:    d1ef        ..      BNE      0x189b4 ; am_hal_delay_us_status_change + 40
        0x000189d4:    2000        .       MOVS     r0,#0
        0x000189d6:    e000        ..      B        0x189da ; am_hal_delay_us_status_change + 78
        0x000189d8:    2004        .       MOVS     r0,#4
        0x000189da:    b001        ..      ADD      sp,sp,#4
        0x000189dc:    e8bd83f0    ....    POP      {r4-r9,pc}
    am_hal_delay_us_status_check
        0x000189e0:    e92d47f0    -..G    PUSH     {r4-r10,lr}
        0x000189e4:    4607        .F      MOV      r7,r0
        0x000189e6:    f64c70ec    L..p    MOV      r0,#0xcfec
        0x000189ea:    f2c00001    ....    MOVT     r0,#1
        0x000189ee:    f8dd8020    .. .    LDR      r8,[sp,#0x20]
        0x000189f2:    6a44        Dj      LDR      r4,[r0,#0x24]
        0x000189f4:    f2410a00    A...    MOVW     r10,#0x1000
        0x000189f8:    4699        .F      MOV      r9,r3
        0x000189fa:    4615        .F      MOV      r5,r2
        0x000189fc:    460e        .F      MOV      r6,r1
        0x000189fe:    f2c40a02    ....    MOVT     r10,#0x4002
        0x00018a02:    bf00        ..      NOP      
        0x00018a04:    6830        0h      LDR      r0,[r6,#0]
        0x00018a06:    f1b80f00    ....    CMP      r8,#0
        0x00018a0a:    ea000005    ....    AND      r0,r0,r5
        0x00018a0e:    d003        ..      BEQ      0x18a18 ; am_hal_delay_us_status_check + 56
        0x00018a10:    4548        HE      CMP      r0,r9
        0x00018a12:    d103        ..      BNE      0x18a1c ; am_hal_delay_us_status_check + 60
        0x00018a14:    e00f        ..      B        0x18a36 ; am_hal_delay_us_status_check + 86
        0x00018a16:    bf00        ..      NOP      
        0x00018a18:    4548        HE      CMP      r0,r9
        0x00018a1a:    d10c        ..      BNE      0x18a36 ; am_hal_delay_us_status_check + 86
        0x00018a1c:    b177        w.      CBZ      r7,0x18a3c ; am_hal_delay_us_status_check + 92
        0x00018a1e:    f8da0000    ....    LDR      r0,[r10,#0]
        0x00018a22:    3f01        .?      SUBS     r7,#1
        0x00018a24:    f0000018    ....    AND      r0,r0,#0x18
        0x00018a28:    2810        .(      CMP      r0,#0x10
        0x00018a2a:    f04f0011    O...    MOV      r0,#0x11
        0x00018a2e:    bf08        ..      IT       EQ
        0x00018a30:    202b        +       MOVEQ    r0,#0x2b
        0x00018a32:    47a0        .G      BLX      r4
        0x00018a34:    e7e6        ..      B        0x18a04 ; am_hal_delay_us_status_check + 36
        0x00018a36:    2000        .       MOVS     r0,#0
        0x00018a38:    e8bd87f0    ....    POP      {r4-r10,pc}
        0x00018a3c:    2004        .       MOVS     r0,#4
        0x00018a3e:    e8bd87f0    ....    POP      {r4-r10,pc}
        0x00018a42:    0000        ..      MOVS     r0,r0
    am_hal_gpio_pinconfig
        0x00018a44:    b081        ..      SUB      sp,sp,#4
        0x00018a46:    287f        .(      CMP      r0,#0x7f
        0x00018a48:    9100        ..      STR      r1,[sp,#0]
        0x00018a4a:    d901        ..      BLS      0x18a50 ; am_hal_gpio_pinconfig + 12
        0x00018a4c:    2005        .       MOVS     r0,#5
        0x00018a4e:    e01c        ..      B        0x18a8a ; am_hal_gpio_pinconfig + 70
        0x00018a50:    0509        ..      LSLS     r1,r1,#20
        0x00018a52:    d508        ..      BPL      0x18a66 ; am_hal_gpio_pinconfig + 34
        0x00018a54:    0941        A.      LSRS     r1,r0,#5
        0x00018a56:    a20e        ..      ADR      r2,{pc}+0x3a ; 0x18a90
        0x00018a58:    f8521021    R.!.    LDR      r1,[r2,r1,LSL #2]
        0x00018a5c:    f000021f    ....    AND      r2,r0,#0x1f
        0x00018a60:    40d1        .@      LSRS     r1,r1,r2
        0x00018a62:    07c9        ..      LSLS     r1,r1,#31
        0x00018a64:    d010        ..      BEQ      0x18a88 ; am_hal_gpio_pinconfig + 68
        0x00018a66:    f2402100    @..!    MOVW     r1,#0x200
        0x00018a6a:    f2c40101    ....    MOVT     r1,#0x4001
        0x00018a6e:    2273        s"      MOVS     r2,#0x73
        0x00018a70:    600a        .`      STR      r2,[r1,#0]
        0x00018a72:    9a00        ..      LDR      r2,[sp,#0]
        0x00018a74:    f64f6300    O..c    MOVW     r3,#0xfe00
        0x00018a78:    eb010080    ....    ADD      r0,r1,r0,LSL #2
        0x00018a7c:    f6cf73ff    ...s    MOVT     r3,#0xffff
        0x00018a80:    50c2        .P      STR      r2,[r0,r3]
        0x00018a82:    2000        .       MOVS     r0,#0
        0x00018a84:    6008        .`      STR      r0,[r1,#0]
        0x00018a86:    e000        ..      B        0x18a8a ; am_hal_gpio_pinconfig + 70
        0x00018a88:    2007        .       MOVS     r0,#7
        0x00018a8a:    b001        ..      ADD      sp,sp,#4
        0x00018a8c:    4770        pG      BX       lr
        0x00018a8e:    bf00        ..      NOP      
    $d.2
    g_ui32DSpintbl
        0x00018a90:    8fc007e0    ....    DCD    2411726816
        0x00018a94:    e3fbffff    ....    DCD    3824943103
        0x00018a98:    01ffffff    ....    DCD    33554431
        0x00018a9c:    00000000    ....    DCD    0
    $t.5
    am_hal_gpio_state_write
        0x00018aa0:    b510        ..      PUSH     {r4,lr}
        0x00018aa2:    b082        ..      SUB      sp,sp,#8
        0x00018aa4:    2905        .)      CMP      r1,#5
        0x00018aa6:    d86c        l.      BHI      0x18b82 ; am_hal_gpio_state_write + 226
        0x00018aa8:    4604        .F      MOV      r4,r0
        0x00018aaa:    e8dff001    ....    TBB      [pc,r1]
    $d.6
        0x00018aae:    1203        ..      DCW    4611
        0x00018ab0:    54453621    !6ET    DCD    1413821985
    $t.7
        0x00018ab4:    f004001f    ....    AND      r0,r4,#0x1f
        0x00018ab8:    2101        .!      MOVS     r1,#1
        0x00018aba:    f2402214    @.."    MOVW     r2,#0x214
        0x00018abe:    fa01f000    ....    LSL      r0,r1,r0
        0x00018ac2:    f3c41141    ..A.    UBFX     r1,r4,#5,#2
        0x00018ac6:    f2c40201    ....    MOVT     r2,#0x4001
        0x00018aca:    eb020181    ....    ADD      r1,r2,r1,LSL #2
        0x00018ace:    6208        .b      STR      r0,[r1,#0x20]
        0x00018ad0:    e057        W.      B        0x18b82 ; am_hal_gpio_state_write + 226
        0x00018ad2:    f004001f    ....    AND      r0,r4,#0x1f
        0x00018ad6:    2101        .!      MOVS     r1,#1
        0x00018ad8:    f2402214    @.."    MOVW     r2,#0x214
        0x00018adc:    fa01f000    ....    LSL      r0,r1,r0
        0x00018ae0:    f3c41141    ..A.    UBFX     r1,r4,#5,#2
        0x00018ae4:    f2c40201    ....    MOVT     r2,#0x4001
        0x00018ae8:    eb020181    ....    ADD      r1,r2,r1,LSL #2
        0x00018aec:    6108        .a      STR      r0,[r1,#0x10]
        0x00018aee:    e048        H.      B        0x18b82 ; am_hal_gpio_state_write + 226
        0x00018af0:    f000f84a    ..J.    BL       am_hal_interrupt_master_disable ; 0x18b88
        0x00018af4:    f2402314    @..#    MOVW     r3,#0x214
        0x00018af8:    9001        ..      STR      r0,[sp,#4]
        0x00018afa:    f3c41241    ..A.    UBFX     r2,r4,#5,#2
        0x00018afe:    f2c40301    ....    MOVT     r3,#0x4001
        0x00018b02:    f004001f    ....    AND      r0,r4,#0x1f
        0x00018b06:    2101        .!      MOVS     r1,#1
        0x00018b08:    f8534022    S."@    LDR      r4,[r3,r2,LSL #2]
        0x00018b0c:    fa01f000    ....    LSL      r0,r1,r0
        0x00018b10:    4060        `@      EORS     r0,r0,r4
        0x00018b12:    f8430022    C.".    STR      r0,[r3,r2,LSL #2]
        0x00018b16:    9801        ..      LDR      r0,[sp,#4]
        0x00018b18:    e031        1.      B        0x18b7e ; am_hal_gpio_state_write + 222
        0x00018b1a:    f004001f    ....    AND      r0,r4,#0x1f
        0x00018b1e:    2101        .!      MOVS     r1,#1
        0x00018b20:    f2402214    @.."    MOVW     r2,#0x214
        0x00018b24:    fa01f000    ....    LSL      r0,r1,r0
        0x00018b28:    f3c41141    ..A.    UBFX     r1,r4,#5,#2
        0x00018b2c:    f2c40201    ....    MOVT     r2,#0x4001
        0x00018b30:    eb020181    ....    ADD      r1,r2,r1,LSL #2
        0x00018b34:    6508        .e      STR      r0,[r1,#0x50]
        0x00018b36:    e024        $.      B        0x18b82 ; am_hal_gpio_state_write + 226
        0x00018b38:    f004001f    ....    AND      r0,r4,#0x1f
        0x00018b3c:    2101        .!      MOVS     r1,#1
        0x00018b3e:    f2402214    @.."    MOVW     r2,#0x214
        0x00018b42:    fa01f000    ....    LSL      r0,r1,r0
        0x00018b46:    f3c41141    ..A.    UBFX     r1,r4,#5,#2
        0x00018b4a:    f2c40201    ....    MOVT     r2,#0x4001
        0x00018b4e:    eb020181    ....    ADD      r1,r2,r1,LSL #2
        0x00018b52:    6408        .d      STR      r0,[r1,#0x40]
        0x00018b54:    e015        ..      B        0x18b82 ; am_hal_gpio_state_write + 226
        0x00018b56:    f000f817    ....    BL       am_hal_interrupt_master_disable ; 0x18b88
        0x00018b5a:    f2402314    @..#    MOVW     r3,#0x214
        0x00018b5e:    f3c41241    ..A.    UBFX     r2,r4,#5,#2
        0x00018b62:    f2c40301    ....    MOVT     r3,#0x4001
        0x00018b66:    9000        ..      STR      r0,[sp,#0]
        0x00018b68:    eb030282    ....    ADD      r2,r3,r2,LSL #2
        0x00018b6c:    f004001f    ....    AND      r0,r4,#0x1f
        0x00018b70:    2101        .!      MOVS     r1,#1
        0x00018b72:    6b13        .k      LDR      r3,[r2,#0x30]
        0x00018b74:    fa01f000    ....    LSL      r0,r1,r0
        0x00018b78:    4058        X@      EORS     r0,r0,r3
        0x00018b7a:    6310        .c      STR      r0,[r2,#0x30]
        0x00018b7c:    9800        ..      LDR      r0,[sp,#0]
        0x00018b7e:    f000f80b    ....    BL       am_hal_interrupt_master_set ; 0x18b98
        0x00018b82:    2000        .       MOVS     r0,#0
        0x00018b84:    b002        ..      ADD      sp,sp,#8
        0x00018b86:    bd10        ..      POP      {r4,pc}
    am_hal_interrupt_master_disable
        0x00018b88:    f3ef8010    ....    MRS      r0,PRIMASK
        0x00018b8c:    b672        r.      CPSID    i
        0x00018b8e:    4770        pG      BX       lr
    am_hal_interrupt_master_enable
        0x00018b90:    f3ef8010    ....    MRS      r0,PRIMASK
        0x00018b94:    b662        b.      CPSIE    i
        0x00018b96:    4770        pG      BX       lr
    am_hal_interrupt_master_set
        0x00018b98:    f3808810    ....    MSR      PRIMASK,r0
        0x00018b9c:    4770        pG      BX       lr
    am_hal_load_ui32
        0x00018b9e:    f64c71ec    L..q    MOV      r1,#0xcfec
        0x00018ba2:    f2c00101    ....    MOVT     r1,#1
        0x00018ba6:    6949        Ii      LDR      r1,[r1,#0x14]
        0x00018ba8:    4708        .G      BX       r1
    am_hal_mram_ds_init
        0x00018baa:    b580        ..      PUSH     {r7,lr}
        0x00018bac:    f24010b8    @...    MOVW     r0,#0x1b8
        0x00018bb0:    f2c10000    ....    MOVT     r0,#0x1000
        0x00018bb4:    6800        .h      LDR      r0,[r0,#0]
        0x00018bb6:    4780        .G      BLX      r0
        0x00018bb8:    2000        .       MOVS     r0,#0
        0x00018bba:    bd80        ..      POP      {r7,pc}
    am_hal_mram_info_read
        0x00018bbc:    e92d41f0    -..A    PUSH     {r4-r8,lr}
        0x00018bc0:    b082        ..      SUB      sp,sp,#8
        0x00018bc2:    461c        .F      MOV      r4,r3
        0x00018bc4:    4615        .F      MOV      r5,r2
        0x00018bc6:    2801        .(      CMP      r0,#1
        0x00018bc8:    460e        .F      MOV      r6,r1
        0x00018bca:    d00d        ..      BEQ      0x18be8 ; am_hal_mram_info_read + 44
        0x00018bcc:    bbd8        ..      CBNZ     r0,0x18c46 ; am_hal_mram_info_read + 138
        0x00018bce:    2000        .       MOVS     r0,#0
        0x00018bd0:    ebb02f56    ..V/    CMP      r0,r6,LSR #9
        0x00018bd4:    f04f0702    O...    MOV      r7,#2
        0x00018bd8:    d136        6.      BNE      0x18c48 ; am_hal_mram_info_read + 140
        0x00018bda:    19a8        ..      ADDS     r0,r5,r6
        0x00018bdc:    f5b07f00    ....    CMP      r0,#0x200
        0x00018be0:    d832        2.      BHI      0x18c48 ; am_hal_mram_info_read + 140
        0x00018be2:    f04f4784    O..G    MOV      r7,#0x42000000
        0x00018be6:    e00e        ..      B        0x18c06 ; am_hal_mram_info_read + 74
        0x00018be8:    f5a66090    ...`    SUB      r0,r6,#0x480
        0x00018bec:    09c0        ..      LSRS     r0,r0,#7
        0x00018bee:    2802        .(      CMP      r0,#2
        0x00018bf0:    f04f0702    O...    MOV      r7,#2
        0x00018bf4:    d828        (.      BHI      0x18c48 ; am_hal_mram_info_read + 140
        0x00018bf6:    19a8        ..      ADDS     r0,r5,r6
        0x00018bf8:    f5b06fc0    ...o    CMP      r0,#0x600
        0x00018bfc:    d824        $.      BHI      0x18c48 ; am_hal_mram_info_read + 140
        0x00018bfe:    f2420700    B...    MOVW     r7,#0x2000
        0x00018c02:    f2c42700    ...'    MOVT     r7,#0x4200
        0x00018c06:    f24018b4    @...    MOVW     r8,#0x1b4
        0x00018c0a:    f2c10800    ....    MOVT     r8,#0x1000
        0x00018c0e:    f8d81000    ....    LDR      r1,[r8,#0]
        0x00018c12:    2001        .       MOVS     r0,#1
        0x00018c14:    4788        .G      BLX      r1
        0x00018c16:    f7ffffb7    ....    BL       am_hal_interrupt_master_disable ; 0x18b88
        0x00018c1a:    9001        ..      STR      r0,[sp,#4]
        0x00018c1c:    b155        U.      CBZ      r5,0x18c34 ; am_hal_mram_info_read + 120
        0x00018c1e:    eb070086    ....    ADD      r0,r7,r6,LSL #2
        0x00018c22:    bf00        ..      NOP      
        0x00018c24:    1d06        ..      ADDS     r6,r0,#4
        0x00018c26:    f7ffffba    ....    BL       am_hal_load_ui32 ; 0x18b9e
        0x00018c2a:    f8440b04    D...    STR      r0,[r4],#4
        0x00018c2e:    3d01        .=      SUBS     r5,#1
        0x00018c30:    4630        0F      MOV      r0,r6
        0x00018c32:    d1f7        ..      BNE      0x18c24 ; am_hal_mram_info_read + 104
        0x00018c34:    9801        ..      LDR      r0,[sp,#4]
        0x00018c36:    f7ffffaf    ....    BL       am_hal_interrupt_master_set ; 0x18b98
        0x00018c3a:    f8d81000    ....    LDR      r1,[r8,#0]
        0x00018c3e:    2000        .       MOVS     r0,#0
        0x00018c40:    2700        .'      MOVS     r7,#0
        0x00018c42:    4788        .G      BLX      r1
        0x00018c44:    e000        ..      B        0x18c48 ; am_hal_mram_info_read + 140
        0x00018c46:    2701        .'      MOVS     r7,#1
        0x00018c48:    4638        8F      MOV      r0,r7
        0x00018c4a:    b002        ..      ADD      sp,sp,#8
        0x00018c4c:    e8bd81f0    ....    POP      {r4-r8,pc}
    am_hal_pwrctrl_control
        0x00018c50:    e92d43f0    -..C    PUSH     {r4-r9,lr}
        0x00018c54:    b089        ..      SUB      sp,sp,#0x24
        0x00018c56:    2100        .!      MOVS     r1,#0
        0x00018c58:    2803        .(      CMP      r0,#3
        0x00018c5a:    9102        ..      STR      r1,[sp,#8]
        0x00018c5c:    9101        ..      STR      r1,[sp,#4]
        0x00018c5e:    d873        s.      BHI      0x18d48 ; am_hal_pwrctrl_control + 248
        0x00018c60:    e8dff000    ....    TBB      [pc,r0]
    $d.23
        0x00018c64:    90817402    .t..    DCD    2424402946
    $t.24
        0x00018c68:    2544        D%      MOVS     r5,#0x44
        0x00018c6a:    f2c40502    ....    MOVT     r5,#0x4002
        0x00018c6e:    f8d50334    ..4.    LDR      r0,[r5,#0x334]
        0x00018c72:    210a        .!      MOVS     r1,#0xa
        0x00018c74:    f02050f8     ..P    BIC      r0,r0,#0x1f000000
        0x00018c78:    f8c50334    ..4.    STR      r0,[r5,#0x334]
        0x00018c7c:    f8d50314    ....    LDR      r0,[r5,#0x314]
        0x00018c80:    2600        .&      MOVS     r6,#0
        0x00018c82:    f42000f8     ...    BIC      r0,r0,#0x7c0000
        0x00018c86:    f8c50314    ....    STR      r0,[r5,#0x314]
        0x00018c8a:    f8d50300    ....    LDR      r0,[r5,#0x300]
        0x00018c8e:    f361601b    a..`    BFI      r0,r1,#24,#4
        0x00018c92:    f8c50300    ....    STR      r0,[r5,#0x300]
        0x00018c96:    f8d50300    ....    LDR      r0,[r5,#0x300]
        0x00018c9a:    f36120ce    a..     BFI      r0,r1,#11,#4
        0x00018c9e:    f8c50300    ....    STR      r0,[r5,#0x300]
        0x00018ca2:    f8d50314    ....    LDR      r0,[r5,#0x314]
        0x00018ca6:    f44050f0    @..P    ORR      r0,r0,#0x1e00
        0x00018caa:    f8c50314    ....    STR      r0,[r5,#0x314]
        0x00018cae:    f8d50310    ....    LDR      r0,[r5,#0x310]
        0x00018cb2:    f44010f0    @...    ORR      r0,r0,#0x1e0000
        0x00018cb6:    f8c50310    ....    STR      r0,[r5,#0x310]
        0x00018cba:    f8d5031c    ....    LDR      r0,[r5,#0x31c]
        0x00018cbe:    f0407070    @.pp    ORR      r0,r0,#0x3c00000
        0x00018cc2:    f8c5031c    ....    STR      r0,[r5,#0x31c]
        0x00018cc6:    f8d5031c    ....    LDR      r0,[r5,#0x31c]
        0x00018cca:    f44010f0    @...    ORR      r0,r0,#0x1e0000
        0x00018cce:    f8c5031c    ....    STR      r0,[r5,#0x31c]
        0x00018cd2:    f8d50328    ..(.    LDR      r0,[r5,#0x328]
        0x00018cd6:    f8d5132c    ..,.    LDR      r1,[r5,#0x32c]
        0x00018cda:    0e80        ..      LSRS     r0,r0,#26
        0x00018cdc:    f360619f    `..a    BFI      r1,r0,#26,#6
        0x00018ce0:    f8c5132c    ..,.    STR      r1,[r5,#0x32c]
        0x00018ce4:    f8d5033c    ..<.    LDR      r0,[r5,#0x33c]
        0x00018ce8:    f24011b0    @...    MOVW     r1,#0x1b0
        0x00018cec:    f0404000    @..@    ORR      r0,r0,#0x80000000
        0x00018cf0:    f8c5033c    ..<.    STR      r0,[r5,#0x33c]
        0x00018cf4:    f8d5033c    ..<.    LDR      r0,[r5,#0x33c]
        0x00018cf8:    f2c10100    ....    MOVT     r1,#0x1000
        0x00018cfc:    f0404080    @..@    ORR      r0,r0,#0x40000000
        0x00018d00:    f8c5033c    ..<.    STR      r0,[r5,#0x33c]
        0x00018d04:    f8d5032c    ..,.    LDR      r0,[r5,#0x32c]
        0x00018d08:    f3c05005    ...P    UBFX     r0,r0,#20,#6
        0x00018d0c:    6008        .`      STR      r0,[r1,#0]
        0x00018d0e:    f8d5032c    ..,.    LDR      r0,[r5,#0x32c]
        0x00018d12:    2101        .!      MOVS     r1,#1
        0x00018d14:    f020707c     .|p    BIC      r0,r0,#0x3f00000
        0x00018d18:    f8c5032c    ..,.    STR      r0,[r5,#0x32c]
        0x00018d1c:    2007        .       MOVS     r0,#7
        0x00018d1e:    f8c502f8    ....    STR      r0,[r5,#0x2f8]
        0x00018d22:    f8d502fc    ....    LDR      r0,[r5,#0x2fc]
        0x00018d26:    f0207070     .pp    BIC      r0,r0,#0x3c00000
        0x00018d2a:    f8c502fc    ....    STR      r0,[r5,#0x2fc]
        0x00018d2e:    f8d502fc    ....    LDR      r0,[r5,#0x2fc]
        0x00018d32:    f361108a    a...    BFI      r0,r1,#6,#5
        0x00018d36:    f8c502fc    ....    STR      r0,[r5,#0x2fc]
        0x00018d3a:    a803        ..      ADD      r0,sp,#0xc
        0x00018d3c:    9603        ..      STR      r6,[sp,#0xc]
        0x00018d3e:    f7fffb90    ....    BL       TrimVersionGet ; 0x18462
        0x00018d42:    b348        H.      CBZ      r0,0x18d98 ; am_hal_pwrctrl_control + 328
        0x00018d44:    4604        .F      MOV      r4,r0
        0x00018d46:    e023        #.      B        0x18d90 ; am_hal_pwrctrl_control + 320
        0x00018d48:    2406        .$      MOVS     r4,#6
        0x00018d4a:    e021        !.      B        0x18d90 ; am_hal_pwrctrl_control + 320
        0x00018d4c:    f2410008    A...    MOV      r0,#0x1008
        0x00018d50:    f2c40002    ....    MOVT     r0,#0x4002
        0x00018d54:    6800        .h      LDR      r0,[r0,#0]
        0x00018d56:    02c0        ..      LSLS     r0,r0,#11
        0x00018d58:    d512        ..      BPL      0x18d80 ; am_hal_pwrctrl_control + 304
        0x00018d5a:    2014        .       MOVS     r0,#0x14
        0x00018d5c:    f000fb0f    ....    BL       am_hal_pwrctrl_periph_disable ; 0x1937e
        0x00018d60:    4604        .F      MOV      r4,r0
        0x00018d62:    b9a8        ..      CBNZ     r0,0x18d90 ; am_hal_pwrctrl_control + 320
        0x00018d64:    e00c        ..      B        0x18d80 ; am_hal_pwrctrl_control + 304
        0x00018d66:    2044        D       MOVS     r0,#0x44
        0x00018d68:    f2c40002    ....    MOVT     r0,#0x4002
        0x00018d6c:    f8d010e0    ....    LDR      r1,[r0,#0xe0]
        0x00018d70:    2220         "      MOVS     r2,#0x20
        0x00018d72:    f3620187    b...    BFI      r1,r2,#2,#6
        0x00018d76:    f8c010e0    ....    STR      r1,[r0,#0xe0]
        0x00018d7a:    2101        .!      MOVS     r1,#1
        0x00018d7c:    f8c010dc    ....    STR      r1,[r0,#0xdc]
        0x00018d80:    2400        .$      MOVS     r4,#0
        0x00018d82:    e005        ..      B        0x18d90 ; am_hal_pwrctrl_control + 320
        0x00018d84:    2044        D       MOVS     r0,#0x44
        0x00018d86:    f2c40002    ....    MOVT     r0,#0x4002
        0x00018d8a:    2400        .$      MOVS     r4,#0
        0x00018d8c:    f8c04fc0    ...O    STR      r4,[r0,#0xfc0]
        0x00018d90:    4620         F      MOV      r0,r4
        0x00018d92:    b009        ..      ADD      sp,sp,#0x24
        0x00018d94:    e8bd83f0    ....    POP      {r4-r9,pc}
        0x00018d98:    9803        ..      LDR      r0,[sp,#0xc]
        0x00018d9a:    2805        .(      CMP      r0,#5
        0x00018d9c:    bf88        ..      IT       HI
        0x00018d9e:    2616        .&      MOVHI    r6,#0x16
        0x00018da0:    2806        .(      CMP      r0,#6
        0x00018da2:    d331        1.      BCC      0x18e08 ; am_hal_pwrctrl_control + 440
        0x00018da4:    f24010a8    @...    MOVW     r0,#0x1a8
        0x00018da8:    f2c10000    ....    MOVT     r0,#0x1000
        0x00018dac:    6801        .h      LDR      r1,[r0,#0]
        0x00018dae:    3101        .1      ADDS     r1,#1
        0x00018db0:    d12a        *.      BNE      0x18e08 ; am_hal_pwrctrl_control + 440
        0x00018db2:    f6400185    @...    MOV      r1,#0x885
        0x00018db6:    f2c10100    ....    MOVT     r1,#0x1000
        0x00018dba:    780a        .x      LDRB     r2,[r1,#0]
        0x00018dbc:    b90a        ..      CBNZ     r2,0x18dc2 ; am_hal_pwrctrl_control + 370
        0x00018dbe:    2201        ."      MOVS     r2,#1
        0x00018dc0:    700a        .p      STRB     r2,[r1,#0]
        0x00018dc2:    6829        )h      LDR      r1,[r5,#0]
        0x00018dc4:    f3c111c6    ....    UBFX     r1,r1,#7,#7
        0x00018dc8:    6001        .`      STR      r1,[r0,#0]
        0x00018dca:    f8d51334    ..4.    LDR      r1,[r5,#0x334]
        0x00018dce:    f0414100    A..A    ORR      r1,r1,#0x80000000
        0x00018dd2:    f8c51334    ..4.    STR      r1,[r5,#0x334]
        0x00018dd6:    6800        .h      LDR      r0,[r0,#0]
        0x00018dd8:    f086017f    ....    EOR      r1,r6,#0x7f
        0x00018ddc:    1984        ..      ADDS     r4,r0,r6
        0x00018dde:    4288        .B      CMP      r0,r1
        0x00018de0:    6828        (h      LDR      r0,[r5,#0]
        0x00018de2:    bf88        ..      IT       HI
        0x00018de4:    247f        .$      MOVHI    r4,#0x7f
        0x00018de6:    f3c010c6    ....    UBFX     r0,r0,#7,#7
        0x00018dea:    42a0        .B      CMP      r0,r4
        0x00018dec:    d00c        ..      BEQ      0x18e08 ; am_hal_pwrctrl_control + 440
        0x00018dee:    f7fffecb    ....    BL       am_hal_interrupt_master_disable ; 0x18b88
        0x00018df2:    9004        ..      STR      r0,[sp,#0x10]
        0x00018df4:    6828        (h      LDR      r0,[r5,#0]
        0x00018df6:    f36410cd    d...    BFI      r0,r4,#7,#7
        0x00018dfa:    6028        (`      STR      r0,[r5,#0]
        0x00018dfc:    2014        .       MOVS     r0,#0x14
        0x00018dfe:    f7fffda9    ....    BL       am_hal_delay_us ; 0x18954
        0x00018e02:    9804        ..      LDR      r0,[sp,#0x10]
        0x00018e04:    f7fffec8    ....    BL       am_hal_interrupt_master_set ; 0x18b98
        0x00018e08:    2001        .       MOVS     r0,#1
        0x00018e0a:    2100        .!      MOVS     r1,#0
        0x00018e0c:    2200        ."      MOVS     r2,#0
        0x00018e0e:    2400        .$      MOVS     r4,#0
        0x00018e10:    f7fffb43    ..C.    BL       VDDF_simobuck_boost ; 0x1849a
        0x00018e14:    f2410008    A...    MOV      r0,#0x1008
        0x00018e18:    f2c40002    ....    MOVT     r0,#0x4002
        0x00018e1c:    f8d010f8    ....    LDR      r1,[r0,#0xf8]
        0x00018e20:    f0410101    A...    ORR      r1,r1,#1
        0x00018e24:    f8c010f8    ....    STR      r1,[r0,#0xf8]
        0x00018e28:    f8d50334    ..4.    LDR      r0,[r5,#0x334]
        0x00018e2c:    f0404000    @..@    ORR      r0,r0,#0x80000000
        0x00018e30:    f8c50334    ..4.    STR      r0,[r5,#0x334]
        0x00018e34:    f2413088    A..0    MOV      r0,#0x1388
        0x00018e38:    f7fffd8c    ....    BL       am_hal_delay_us ; 0x18954
        0x00018e3c:    a802        ..      ADD      r0,sp,#8
        0x00018e3e:    2100        .!      MOVS     r1,#0
        0x00018e40:    f001fcec    ....    BL       buck_interval_check ; 0x1a81c
        0x00018e44:    2800        .(      CMP      r0,#0
        0x00018e46:    d1a3        ..      BNE      0x18d90 ; am_hal_pwrctrl_control + 320
        0x00018e48:    a801        ..      ADD      r0,sp,#4
        0x00018e4a:    2101        .!      MOVS     r1,#1
        0x00018e4c:    f001fce6    ....    BL       buck_interval_check ; 0x1a81c
        0x00018e50:    2800        .(      CMP      r0,#0
        0x00018e52:    d195        ..      BNE      0x18d80 ; am_hal_pwrctrl_control + 304
        0x00018e54:    f001fd7d    ..}.    BL       buck_ldo_override_init ; 0x1a952
        0x00018e58:    f64010c4    @...    MOV      r0,#0x9c4
        0x00018e5c:    f7fffd7a    ..z.    BL       am_hal_delay_us ; 0x18954
        0x00018e60:    ac04        ..      ADD      r4,sp,#0x10
        0x00018e62:    f8dd8008    ....    LDR      r8,[sp,#8]
        0x00018e66:    4620         F      MOV      r0,r4
        0x00018e68:    f000fccd    ....    BL       am_hal_timer_default_config_set ; 0x19806
        0x00018e6c:    f44f7007    O..p    MOV      r0,#0x21c
        0x00018e70:    f8ad0010    ....    STRH     r0,[sp,#0x10]
        0x00018e74:    200d        .       MOVS     r0,#0xd
        0x00018e76:    4621        !F      MOV      r1,r4
        0x00018e78:    f003fabe    ....    BL       timer_config_b1 ; 0x1c3f8
        0x00018e7c:    200d        .       MOVS     r0,#0xd
        0x00018e7e:    f000fcf0    ....    BL       am_hal_timer_enable ; 0x19862
        0x00018e82:    200d        .       MOVS     r0,#0xd
        0x00018e84:    f000fd87    ....    BL       am_hal_timer_read ; 0x19996
        0x00018e88:    4604        .F      MOV      r4,r0
        0x00018e8a:    4640        @F      MOV      r0,r8
        0x00018e8c:    f7fffd62    ..b.    BL       am_hal_delay_us ; 0x18954
        0x00018e90:    200d        .       MOVS     r0,#0xd
        0x00018e92:    f000fd80    ....    BL       am_hal_timer_read ; 0x19996
        0x00018e96:    4606        .F      MOV      r6,r0
        0x00018e98:    f24039ff    @..9    MOV      r9,#0x3ff
        0x00018e9c:    4627        'F      MOV      r7,r4
        0x00018e9e:    bf00        ..      NOP      
        0x00018ea0:    6bea        .k      LDR      r2,[r5,#0x3c]
        0x00018ea2:    42b4        .B      CMP      r4,r6
        0x00018ea4:    4611        .F      MOV      r1,r2
        0x00018ea6:    f36f219f    o..!    BFC      r1,#10,#22
        0x00018eaa:    d106        ..      BNE      0x18eba ; am_hal_pwrctrl_control + 618
        0x00018eac:    4287        .B      CMP      r7,r0
        0x00018eae:    d11a        ..      BNE      0x18ee6 ; am_hal_pwrctrl_control + 662
        0x00018eb0:    2902        .)      CMP      r1,#2
        0x00018eb2:    d318        ..      BCC      0x18ee6 ; am_hal_pwrctrl_control + 662
        0x00018eb4:    f04f30ff    O..0    MOV      r0,#0xffffffff
        0x00018eb8:    e004        ..      B        0x18ec4 ; am_hal_pwrctrl_control + 628
        0x00018eba:    4549        IE      CMP      r1,r9
        0x00018ebc:    d01b        ..      BEQ      0x18ef6 ; am_hal_pwrctrl_control + 678
        0x00018ebe:    4287        .B      CMP      r7,r0
        0x00018ec0:    d011        ..      BEQ      0x18ee6 ; am_hal_pwrctrl_control + 662
        0x00018ec2:    2001        .       MOVS     r0,#1
        0x00018ec4:    6bea        .k      LDR      r2,[r5,#0x3c]
        0x00018ec6:    4408        .D      ADD      r0,r0,r1
        0x00018ec8:    ea220109    "...    BIC      r1,r2,r9
        0x00018ecc:    4308        .C      ORRS     r0,r0,r1
        0x00018ece:    63e8        .c      STR      r0,[r5,#0x3c]
        0x00018ed0:    200d        .       MOVS     r0,#0xd
        0x00018ed2:    f000fd60    ..`.    BL       am_hal_timer_read ; 0x19996
        0x00018ed6:    4607        .F      MOV      r7,r0
        0x00018ed8:    4640        @F      MOV      r0,r8
        0x00018eda:    f7fffd3b    ..;.    BL       am_hal_delay_us ; 0x18954
        0x00018ede:    200d        .       MOVS     r0,#0xd
        0x00018ee0:    f000fd59    ..Y.    BL       am_hal_timer_read ; 0x19996
        0x00018ee4:    e7dc        ..      B        0x18ea0 ; am_hal_pwrctrl_control + 592
        0x00018ee6:    290e        .)      CMP      r1,#0xe
        0x00018ee8:    bf26        &.      ITTE     CS
        0x00018eea:    f502707d    ..}p    ADDCS    r0,r2,#0x3f4
        0x00018eee:    f36f209f    o..     BFCCS    r0,#10,#22
        0x00018ef2:    2001        .       MOVCC    r0,#1
        0x00018ef4:    e001        ..      B        0x18efa ; am_hal_pwrctrl_control + 682
        0x00018ef6:    f24030f3    @..0    MOV      r0,#0x3f3
        0x00018efa:    6be9        .k      LDR      r1,[r5,#0x3c]
        0x00018efc:    f24032ff    @..2    MOV      r2,#0x3ff
        0x00018f00:    4391        .C      BICS     r1,r1,r2
        0x00018f02:    4408        .D      ADD      r0,r0,r1
        0x00018f04:    63e8        .c      STR      r0,[r5,#0x3c]
        0x00018f06:    200d        .       MOVS     r0,#0xd
        0x00018f08:    f000fc53    ..S.    BL       am_hal_timer_clear_stop ; 0x197b2
        0x00018f0c:    200d        .       MOVS     r0,#0xd
        0x00018f0e:    f000fc8a    ....    BL       am_hal_timer_disable ; 0x19826
        0x00018f12:    200d        .       MOVS     r0,#0xd
        0x00018f14:    f000fd52    ..R.    BL       am_hal_timer_reset_config ; 0x199bc
        0x00018f18:    ac04        ..      ADD      r4,sp,#0x10
        0x00018f1a:    f8dd8004    ....    LDR      r8,[sp,#4]
        0x00018f1e:    4620         F      MOV      r0,r4
        0x00018f20:    f000fc71    ..q.    BL       am_hal_timer_default_config_set ; 0x19806
        0x00018f24:    f240201d    @..     MOV      r0,#0x21d
        0x00018f28:    f8ad0010    ....    STRH     r0,[sp,#0x10]
        0x00018f2c:    200d        .       MOVS     r0,#0xd
        0x00018f2e:    4621        !F      MOV      r1,r4
        0x00018f30:    f003fa62    ..b.    BL       timer_config_b1 ; 0x1c3f8
        0x00018f34:    200d        .       MOVS     r0,#0xd
        0x00018f36:    f000fc94    ....    BL       am_hal_timer_enable ; 0x19862
        0x00018f3a:    200d        .       MOVS     r0,#0xd
        0x00018f3c:    f000fd2b    ..+.    BL       am_hal_timer_read ; 0x19996
        0x00018f40:    4604        .F      MOV      r4,r0
        0x00018f42:    4640        @F      MOV      r0,r8
        0x00018f44:    f7fffd06    ....    BL       am_hal_delay_us ; 0x18954
        0x00018f48:    200d        .       MOVS     r0,#0xd
        0x00018f4a:    f000fd24    ..$.    BL       am_hal_timer_read ; 0x19996
        0x00018f4e:    f24019a4    @...    MOVW     r9,#0x1a4
        0x00018f52:    4606        .F      MOV      r6,r0
        0x00018f54:    f2c10900    ....    MOVT     r9,#0x1000
        0x00018f58:    4627        'F      MOV      r7,r4
        0x00018f5a:    bf00        ..      NOP      
        0x00018f5c:    6c6a        jl      LDR      r2,[r5,#0x44]
        0x00018f5e:    f8d91000    ....    LDR      r1,[r9,#0]
        0x00018f62:    3101        .1      ADDS     r1,#1
        0x00018f64:    f002013f    ..?.    AND      r1,r2,#0x3f
        0x00018f68:    bf08        ..      IT       EQ
        0x00018f6a:    f8c91000    ....    STREQ    r1,[r9,#0]
        0x00018f6e:    42b4        .B      CMP      r4,r6
        0x00018f70:    d106        ..      BNE      0x18f80 ; am_hal_pwrctrl_control + 816
        0x00018f72:    4287        .B      CMP      r7,r0
        0x00018f74:    d11a        ..      BNE      0x18fac ; am_hal_pwrctrl_control + 860
        0x00018f76:    2902        .)      CMP      r1,#2
        0x00018f78:    d318        ..      BCC      0x18fac ; am_hal_pwrctrl_control + 860
        0x00018f7a:    f04f30ff    O..0    MOV      r0,#0xffffffff
        0x00018f7e:    e004        ..      B        0x18f8a ; am_hal_pwrctrl_control + 826
        0x00018f80:    293f        ?)      CMP      r1,#0x3f
        0x00018f82:    d01b        ..      BEQ      0x18fbc ; am_hal_pwrctrl_control + 876
        0x00018f84:    4287        .B      CMP      r7,r0
        0x00018f86:    d011        ..      BEQ      0x18fac ; am_hal_pwrctrl_control + 860
        0x00018f88:    2001        .       MOVS     r0,#1
        0x00018f8a:    6c6a        jl      LDR      r2,[r5,#0x44]
        0x00018f8c:    4408        .D      ADD      r0,r0,r1
        0x00018f8e:    f022013f    ".?.    BIC      r1,r2,#0x3f
        0x00018f92:    4308        .C      ORRS     r0,r0,r1
        0x00018f94:    6468        hd      STR      r0,[r5,#0x44]
        0x00018f96:    200d        .       MOVS     r0,#0xd
        0x00018f98:    f000fcfd    ....    BL       am_hal_timer_read ; 0x19996
        0x00018f9c:    4607        .F      MOV      r7,r0
        0x00018f9e:    4640        @F      MOV      r0,r8
        0x00018fa0:    f7fffcd8    ....    BL       am_hal_delay_us ; 0x18954
        0x00018fa4:    200d        .       MOVS     r0,#0xd
        0x00018fa6:    f000fcf6    ....    BL       am_hal_timer_read ; 0x19996
        0x00018faa:    e7d7        ..      B        0x18f5c ; am_hal_pwrctrl_control + 780
        0x00018fac:    2905        .)      CMP      r1,#5
        0x00018fae:    bf26        &.      ITTE     CS
        0x00018fb0:    f102003d    ..=.    ADDCS    r0,r2,#0x3d
        0x00018fb4:    f000003f    ..?.    ANDCS    r0,r0,#0x3f
        0x00018fb8:    2001        .       MOVCC    r0,#1
        0x00018fba:    e000        ..      B        0x18fbe ; am_hal_pwrctrl_control + 878
        0x00018fbc:    203c        <       MOVS     r0,#0x3c
        0x00018fbe:    6c69        il      LDR      r1,[r5,#0x44]
        0x00018fc0:    f021013f    !.?.    BIC      r1,r1,#0x3f
        0x00018fc4:    4408        .D      ADD      r0,r0,r1
        0x00018fc6:    6468        hd      STR      r0,[r5,#0x44]
        0x00018fc8:    200d        .       MOVS     r0,#0xd
        0x00018fca:    f000fbf2    ....    BL       am_hal_timer_clear_stop ; 0x197b2
        0x00018fce:    200d        .       MOVS     r0,#0xd
        0x00018fd0:    f000fc29    ..).    BL       am_hal_timer_disable ; 0x19826
        0x00018fd4:    200d        .       MOVS     r0,#0xd
        0x00018fd6:    f000fcf1    ....    BL       am_hal_timer_reset_config ; 0x199bc
        0x00018fda:    e6d1        ..      B        0x18d80 ; am_hal_pwrctrl_control + 304
    am_hal_pwrctrl_low_power_init
        0x00018fdc:    b5b0        ..      PUSH     {r4,r5,r7,lr}
        0x00018fde:    f6452503    E..%    MOV      r5,#0x5a03
        0x00018fe2:    2428        ($      MOVS     r4,#0x28
        0x00018fe4:    f6cc5573    ..sU    MOVT     r5,#0xcd73
        0x00018fe8:    f2c40402    ....    MOVT     r4,#0x4002
        0x00018fec:    f7fffddd    ....    BL       am_hal_mram_ds_init ; 0x18baa
        0x00018ff0:    f64c70e0    L..p    MOV      r0,#0xcfe0
        0x00018ff4:    f2c00001    ....    MOVT     r0,#1
        0x00018ff8:    f000f880    ....    BL       am_hal_pwrctrl_mcu_memory_config ; 0x190fc
        0x00018ffc:    f64c70e6    L..p    MOV      r0,#0xcfe6
        0x00019000:    f2c00001    ....    MOVT     r0,#1
        0x00019004:    f000fa94    ....    BL       am_hal_pwrctrl_sram_config ; 0x19530
        0x00019008:    f6401090    @...    MOVW     r0,#0x990
        0x0001900c:    f2c10000    ....    MOVT     r0,#0x1000
        0x00019010:    6801        .h      LDR      r1,[r0,#0]
        0x00019012:    42a9        .B      CMP      r1,r5
        0x00019014:    d03a        :.      BEQ      0x1908c ; am_hal_pwrctrl_low_power_init + 176
        0x00019016:    f8d41314    ....    LDR      r1,[r4,#0x314]
        0x0001901a:    6041        A`      STR      r1,[r0,#4]
        0x0001901c:    f8d41318    ....    LDR      r1,[r4,#0x318]
        0x00019020:    6081        .`      STR      r1,[r0,#8]
        0x00019022:    f8d4131c    ....    LDR      r1,[r4,#0x31c]
        0x00019026:    60c1        .`      STR      r1,[r0,#0xc]
        0x00019028:    f8d41324    ..$.    LDR      r1,[r4,#0x324]
        0x0001902c:    6101        .a      STR      r1,[r0,#0x10]
        0x0001902e:    f8d4132c    ..,.    LDR      r1,[r4,#0x32c]
        0x00019032:    6141        Aa      STR      r1,[r0,#0x14]
        0x00019034:    f8d41330    ..0.    LDR      r1,[r4,#0x330]
        0x00019038:    6181        .a      STR      r1,[r0,#0x18]
        0x0001903a:    f8d41338    ..8.    LDR      r1,[r4,#0x338]
        0x0001903e:    61c1        .a      STR      r1,[r0,#0x1c]
        0x00019040:    f8d41344    ..D.    LDR      r1,[r4,#0x344]
        0x00019044:    6201        .b      STR      r1,[r0,#0x20]
        0x00019046:    f8d41348    ..H.    LDR      r1,[r4,#0x348]
        0x0001904a:    6241        Ab      STR      r1,[r0,#0x24]
        0x0001904c:    f8d41350    ..P.    LDR      r1,[r4,#0x350]
        0x00019050:    6281        .b      STR      r1,[r0,#0x28]
        0x00019052:    6da1        .m      LDR      r1,[r4,#0x58]
        0x00019054:    62c1        .b      STR      r1,[r0,#0x2c]
        0x00019056:    6e21        !n      LDR      r1,[r4,#0x60]
        0x00019058:    6301        .c      STR      r1,[r0,#0x30]
        0x0001905a:    69e1        .i      LDR      r1,[r4,#0x1c]
        0x0001905c:    6341        Ac      STR      r1,[r0,#0x34]
        0x0001905e:    f8d41354    ..T.    LDR      r1,[r4,#0x354]
        0x00019062:    6381        .c      STR      r1,[r0,#0x38]
        0x00019064:    f8d41358    ..X.    LDR      r1,[r4,#0x358]
        0x00019068:    63c1        .c      STR      r1,[r0,#0x3c]
        0x0001906a:    6ba1        .k      LDR      r1,[r4,#0x38]
        0x0001906c:    6401        .d      STR      r1,[r0,#0x40]
        0x0001906e:    6821        !h      LDR      r1,[r4,#0]
        0x00019070:    6441        Ad      STR      r1,[r0,#0x44]
        0x00019072:    f8d410fc    ....    LDR      r1,[r4,#0xfc]
        0x00019076:    6481        .d      STR      r1,[r0,#0x48]
        0x00019078:    f8d410e0    ....    LDR      r1,[r4,#0xe0]
        0x0001907c:    64c1        .d      STR      r1,[r0,#0x4c]
        0x0001907e:    f240412c    @.,A    MOV      r1,#0x42c
        0x00019082:    f2c40102    ....    MOVT     r1,#0x4002
        0x00019086:    6809        .h      LDR      r1,[r1,#0]
        0x00019088:    6005        .`      STR      r5,[r0,#0]
        0x0001908a:    6501        .e      STR      r1,[r0,#0x50]
        0x0001908c:    f2440544    D.D.    MOV      r5,#0x4044
        0x00019090:    f2c40500    ....    MOVT     r5,#0x4000
        0x00019094:    6828        (h      LDR      r0,[r5,#0]
        0x00019096:    213e        >!      MOVS     r1,#0x3e
        0x00019098:    f3614099    a..@    BFI      r0,r1,#18,#8
        0x0001909c:    6028        (`      STR      r0,[r5,#0]
        0x0001909e:    f2411040    A.@.    MOVW     r0,#0x1140
        0x000190a2:    f2c40002    ....    MOVT     r0,#0x4002
        0x000190a6:    2100        .!      MOVS     r1,#0
        0x000190a8:    6001        .`      STR      r1,[r0,#0]
        0x000190aa:    6041        A`      STR      r1,[r0,#4]
        0x000190ac:    6081        .`      STR      r1,[r0,#8]
        0x000190ae:    60c1        .`      STR      r1,[r0,#0xc]
        0x000190b0:    6101        .a      STR      r1,[r0,#0x10]
        0x000190b2:    6141        Aa      STR      r1,[r0,#0x14]
        0x000190b4:    6181        .a      STR      r1,[r0,#0x18]
        0x000190b6:    61c1        .a      STR      r1,[r0,#0x1c]
        0x000190b8:    6201        .b      STR      r1,[r0,#0x20]
        0x000190ba:    6241        Ab      STR      r1,[r0,#0x24]
        0x000190bc:    6281        .b      STR      r1,[r0,#0x28]
        0x000190be:    62c1        .b      STR      r1,[r0,#0x2c]
        0x000190c0:    6301        .c      STR      r1,[r0,#0x30]
        0x000190c2:    6341        Ac      STR      r1,[r0,#0x34]
        0x000190c4:    6381        .c      STR      r1,[r0,#0x38]
        0x000190c6:    63c1        .c      STR      r1,[r0,#0x3c]
        0x000190c8:    6401        .d      STR      r1,[r0,#0x40]
        0x000190ca:    6441        Ad      STR      r1,[r0,#0x44]
        0x000190cc:    6481        .d      STR      r1,[r0,#0x48]
        0x000190ce:    f64c502c    L.,P    MOV      r0,#0xcd2c
        0x000190d2:    f2c00001    ....    MOVT     r0,#1
        0x000190d6:    f7fffb6c    ..l.    BL       am_hal_daxi_config ; 0x187b2
        0x000190da:    2064        d       MOVS     r0,#0x64
        0x000190dc:    f7fffc3a    ..:.    BL       am_hal_delay_us ; 0x18954
        0x000190e0:    6828        (h      LDR      r0,[r5,#0]
        0x000190e2:    f0400040    @.@.    ORR      r0,r0,#0x40
        0x000190e6:    6028        (`      STR      r0,[r5,#0]
        0x000190e8:    f8d40354    ..T.    LDR      r0,[r4,#0x354]
        0x000190ec:    f04060b0    @..`    ORR      r0,r0,#0x5800000
        0x000190f0:    f44001fd    @...    ORR      r1,r0,#0x7e8000
        0x000190f4:    2000        .       MOVS     r0,#0
        0x000190f6:    f8c41354    ..T.    STR      r1,[r4,#0x354]
        0x000190fa:    bdb0        ..      POP      {r4,r5,r7,pc}
    am_hal_pwrctrl_mcu_memory_config
        0x000190fc:    b570        p.      PUSH     {r4-r6,lr}
        0x000190fe:    b082        ..      SUB      sp,sp,#8
        0x00019100:    4606        .F      MOV      r6,r0
        0x00019102:    7800        .x      LDRB     r0,[r0,#0]
        0x00019104:    f2410514    A...    MOV      r5,#0x1014
        0x00019108:    2802        .(      CMP      r0,#2
        0x0001910a:    f2c40502    ....    MOVT     r5,#0x4002
        0x0001910e:    d006        ..      BEQ      0x1911e ; am_hal_pwrctrl_mcu_memory_config + 34
        0x00019110:    2801        .(      CMP      r0,#1
        0x00019112:    d00c        ..      BEQ      0x1912e ; am_hal_pwrctrl_mcu_memory_config + 50
        0x00019114:    b998        ..      CBNZ     r0,0x1913e ; am_hal_pwrctrl_mcu_memory_config + 66
        0x00019116:    6828        (h      LDR      r0,[r5,#0]
        0x00019118:    f0200010     ...    BIC      r0,r0,#0x10
        0x0001911c:    e00a        ..      B        0x19134 ; am_hal_pwrctrl_mcu_memory_config + 56
        0x0001911e:    6828        (h      LDR      r0,[r5,#0]
        0x00019120:    f0400010    @...    ORR      r0,r0,#0x10
        0x00019124:    6028        (`      STR      r0,[r5,#0]
        0x00019126:    6828        (h      LDR      r0,[r5,#0]
        0x00019128:    f0400020    @. .    ORR      r0,r0,#0x20
        0x0001912c:    e006        ..      B        0x1913c ; am_hal_pwrctrl_mcu_memory_config + 64
        0x0001912e:    6828        (h      LDR      r0,[r5,#0]
        0x00019130:    f0400010    @...    ORR      r0,r0,#0x10
        0x00019134:    6028        (`      STR      r0,[r5,#0]
        0x00019136:    6828        (h      LDR      r0,[r5,#0]
        0x00019138:    f0200020     . .    BIC      r0,r0,#0x20
        0x0001913c:    6028        (`      STR      r0,[r5,#0]
        0x0001913e:    78b0        .x      LDRB     r0,[r6,#2]
        0x00019140:    6829        )h      LDR      r1,[r5,#0]
        0x00019142:    2401        .$      MOVS     r4,#1
        0x00019144:    f3600102    `...    BFI      r1,r0,#0,#3
        0x00019148:    6029        )`      STR      r1,[r5,#0]
        0x0001914a:    7930        0y      LDRB     r0,[r6,#4]
        0x0001914c:    6829        )h      LDR      r1,[r5,#0]
        0x0001914e:    f000001f    ....    AND      r0,r0,#0x1f
        0x00019152:    f0210108    !...    BIC      r1,r1,#8
        0x00019156:    ea4100c0    A...    ORR      r0,r1,r0,LSL #3
        0x0001915a:    6028        (`      STR      r0,[r5,#0]
        0x0001915c:    4629        )F      MOV      r1,r5
        0x0001915e:    f8513b04    Q..;    LDR      r3,[r1],#4
        0x00019162:    2005        .       MOVS     r0,#5
        0x00019164:    223f        ?"      MOVS     r2,#0x3f
        0x00019166:    9400        ..      STR      r4,[sp,#0]
        0x00019168:    f7fffc3a    ..:.    BL       am_hal_delay_us_status_check ; 0x189e0
        0x0001916c:    2800        .(      CMP      r0,#0
        0x0001916e:    d132        2.      BNE      0x191d6 ; am_hal_pwrctrl_mcu_memory_config + 218
        0x00019170:    6868        hh      LDR      r0,[r5,#4]
        0x00019172:    6829        )h      LDR      r1,[r5,#0]
        0x00019174:    4048        H@      EORS     r0,r0,r1
        0x00019176:    06c0        ..      LSLS     r0,r0,#27
        0x00019178:    d42c        ,.      BMI      0x191d4 ; am_hal_pwrctrl_mcu_memory_config + 216
        0x0001917a:    6868        hh      LDR      r0,[r5,#4]
        0x0001917c:    6829        )h      LDR      r1,[r5,#0]
        0x0001917e:    4048        H@      EORS     r0,r0,r1
        0x00019180:    0680        ..      LSLS     r0,r0,#26
        0x00019182:    d427        '.      BMI      0x191d4 ; am_hal_pwrctrl_mcu_memory_config + 216
        0x00019184:    6868        hh      LDR      r0,[r5,#4]
        0x00019186:    6829        )h      LDR      r1,[r5,#0]
        0x00019188:    4048        H@      EORS     r0,r0,r1
        0x0001918a:    0740        @.      LSLS     r0,r0,#29
        0x0001918c:    d122        ".      BNE      0x191d4 ; am_hal_pwrctrl_mcu_memory_config + 216
        0x0001918e:    6868        hh      LDR      r0,[r5,#4]
        0x00019190:    6829        )h      LDR      r1,[r5,#0]
        0x00019192:    4048        H@      EORS     r0,r0,r1
        0x00019194:    0700        ..      LSLS     r0,r0,#28
        0x00019196:    d41d        ..      BMI      0x191d4 ; am_hal_pwrctrl_mcu_memory_config + 216
        0x00019198:    7870        px      LDRB     r0,[r6,#1]
        0x0001919a:    68a9        .h      LDR      r1,[r5,#8]
        0x0001919c:    2800        .(      CMP      r0,#0
        0x0001919e:    f0210110    !...    BIC      r1,r1,#0x10
        0x000191a2:    bf08        ..      IT       EQ
        0x000191a4:    3110        .1      ADDEQ    r1,r1,#0x10
        0x000191a6:    60a9        .`      STR      r1,[r5,#8]
        0x000191a8:    7970        py      LDRB     r0,[r6,#5]
        0x000191aa:    68a9        .h      LDR      r1,[r5,#8]
        0x000191ac:    2800        .(      CMP      r0,#0
        0x000191ae:    f0210108    !...    BIC      r1,r1,#8
        0x000191b2:    bf08        ..      IT       EQ
        0x000191b4:    3108        .1      ADDEQ    r1,r1,#8
        0x000191b6:    60a9        .`      STR      r1,[r5,#8]
        0x000191b8:    78f1        .x      LDRB     r1,[r6,#3]
        0x000191ba:    2000        .       MOVS     r0,#0
        0x000191bc:    2907        .)      CMP      r1,#7
        0x000191be:    d80a        ..      BHI      0x191d6 ; am_hal_pwrctrl_mcu_memory_config + 218
        0x000191c0:    e8dff001    ....    TBB      [pc,r1]
    $d.5
        0x000191c4:    0e090b04    ....    DCD    235473668
        0x000191c8:    13090909    ....    DCD    319359241
    $t.6
        0x000191cc:    68a8        .h      LDR      r0,[r5,#8]
        0x000191ce:    f0400007    @...    ORR      r0,r0,#7
        0x000191d2:    e00d        ..      B        0x191f0 ; am_hal_pwrctrl_mcu_memory_config + 244
        0x000191d4:    2001        .       MOVS     r0,#1
        0x000191d6:    b002        ..      ADD      sp,sp,#8
        0x000191d8:    bd70        p.      POP      {r4-r6,pc}
        0x000191da:    68a8        .h      LDR      r0,[r5,#8]
        0x000191dc:    2106        .!      MOVS     r1,#6
        0x000191de:    e001        ..      B        0x191e4 ; am_hal_pwrctrl_mcu_memory_config + 232
        0x000191e0:    68a8        .h      LDR      r0,[r5,#8]
        0x000191e2:    2104        .!      MOVS     r1,#4
        0x000191e4:    f3610002    a...    BFI      r0,r1,#0,#3
        0x000191e8:    e002        ..      B        0x191f0 ; am_hal_pwrctrl_mcu_memory_config + 244
        0x000191ea:    68a8        .h      LDR      r0,[r5,#8]
        0x000191ec:    f0200007     ...    BIC      r0,r0,#7
        0x000191f0:    60a8        .`      STR      r0,[r5,#8]
        0x000191f2:    2000        .       MOVS     r0,#0
        0x000191f4:    e7ef        ..      B        0x191d6 ; am_hal_pwrctrl_mcu_memory_config + 218
        0x000191f6:    0000        ..      MOVS     r0,r0
    am_hal_pwrctrl_mcu_mode_select
        0x000191f8:    e92d41f0    -..A    PUSH     {r4-r8,lr}
        0x000191fc:    b082        ..      SUB      sp,sp,#8
        0x000191fe:    4604        .F      MOV      r4,r0
        0x00019200:    3801        .8      SUBS     r0,#1
        0x00019202:    2801        .(      CMP      r0,#1
        0x00019204:    d814        ..      BHI      0x19230 ; am_hal_pwrctrl_mcu_mode_select + 56
        0x00019206:    2c02        .,      CMP      r4,#2
        0x00019208:    d109        ..      BNE      0x1921e ; am_hal_pwrctrl_mcu_mode_select + 38
        0x0001920a:    f2410000    A...    MOVW     r0,#0x1000
        0x0001920e:    f2c40002    ....    MOVT     r0,#0x4002
        0x00019212:    f8d00108    ....    LDR      r0,[r0,#0x108]
        0x00019216:    f0000030    ..0.    AND      r0,r0,#0x30
        0x0001921a:    2830        0(      CMP      r0,#0x30
        0x0001921c:    d125        %.      BNE      0x1926a ; am_hal_pwrctrl_mcu_mode_select + 114
        0x0001921e:    f2400024    @.$.    MOVW     r0,#0x24
        0x00019222:    f2c10000    ....    MOVT     r0,#0x1000
        0x00019226:    7801        .x      LDRB     r1,[r0,#0]
        0x00019228:    42a1        .B      CMP      r1,r4
        0x0001922a:    d103        ..      BNE      0x19234 ; am_hal_pwrctrl_mcu_mode_select + 60
        0x0001922c:    2000        .       MOVS     r0,#0
        0x0001922e:    e0a3        ..      B        0x19378 ; am_hal_pwrctrl_mcu_mode_select + 384
        0x00019230:    2006        .       MOVS     r0,#6
        0x00019232:    e0a1        ..      B        0x19378 ; am_hal_pwrctrl_mcu_mode_select + 384
        0x00019234:    f240080c    @...    MOVW     r8,#0xc
        0x00019238:    f2c40802    ....    MOVT     r8,#0x4002
        0x0001923c:    7004        .p      STRB     r4,[r0,#0]
        0x0001923e:    f8d80000    ....    LDR      r0,[r8,#0]
        0x00019242:    b2c6        ..      UXTB     r6,r0
        0x00019244:    2e21        !.      CMP      r6,#0x21
        0x00019246:    d118        ..      BNE      0x1927a ; am_hal_pwrctrl_mcu_mode_select + 130
        0x00019248:    f2440044    D.D.    MOV      r0,#0x4044
        0x0001924c:    f2c40000    ....    MOVT     r0,#0x4000
        0x00019250:    6801        .h      LDR      r1,[r0,#0]
        0x00019252:    2c02        .,      CMP      r4,#2
        0x00019254:    d10b        ..      BNE      0x1926e ; am_hal_pwrctrl_mcu_mode_select + 118
        0x00019256:    f0410110    A...    ORR      r1,r1,#0x10
        0x0001925a:    6001        .`      STR      r1,[r0,#0]
        0x0001925c:    f8d80374    ..t.    LDR      r0,[r8,#0x374]
        0x00019260:    f0407000    @..p    ORR      r0,r0,#0x2000000
        0x00019264:    f8c80374    ..t.    STR      r0,[r8,#0x374]
        0x00019268:    e004        ..      B        0x19274 ; am_hal_pwrctrl_mcu_mode_select + 124
        0x0001926a:    2007        .       MOVS     r0,#7
        0x0001926c:    e084        ..      B        0x19378 ; am_hal_pwrctrl_mcu_mode_select + 384
        0x0001926e:    f0410108    A...    ORR      r1,r1,#8
        0x00019272:    6001        .`      STR      r1,[r0,#0]
        0x00019274:    200a        .       MOVS     r0,#0xa
        0x00019276:    f7fffb6d    ..m.    BL       am_hal_delay_us ; 0x18954
        0x0001927a:    2c02        .,      CMP      r4,#2
        0x0001927c:    d12f        /.      BNE      0x192de ; am_hal_pwrctrl_mcu_mode_select + 230
        0x0001927e:    2001        .       MOVS     r0,#1
        0x00019280:    2107        .!      MOVS     r1,#7
        0x00019282:    2203        ."      MOVS     r2,#3
        0x00019284:    2503        .%      MOVS     r5,#3
        0x00019286:    f7fff908    ....    BL       VDDF_simobuck_boost ; 0x1849a
        0x0001928a:    f24010a4    @...    MOVW     r0,#0x1a4
        0x0001928e:    f2c10000    ....    MOVT     r0,#0x1000
        0x00019292:    f8d8107c    ..|.    LDR      r1,[r8,#0x7c]
        0x00019296:    6802        .h      LDR      r2,[r0,#0]
        0x00019298:    f001073f    ..?.    AND      r7,r1,#0x3f
        0x0001929c:    3201        .2      ADDS     r2,#1
        0x0001929e:    bf08        ..      IT       EQ
        0x000192a0:    6007        .`      STREQ    r7,[r0,#0]
        0x000192a2:    a801        ..      ADD      r0,sp,#4
        0x000192a4:    f7fff8dd    ....    BL       TrimVersionGet ; 0x18462
        0x000192a8:    9801        ..      LDR      r0,[sp,#4]
        0x000192aa:    2805        .(      CMP      r0,#5
        0x000192ac:    bf88        ..      IT       HI
        0x000192ae:    2507        .%      MOVHI    r5,#7
        0x000192b0:    f085003f    ..?.    EOR      r0,r5,#0x3f
        0x000192b4:    443d        =D      ADD      r5,r5,r7
        0x000192b6:    4287        .B      CMP      r7,r0
        0x000192b8:    bf88        ..      IT       HI
        0x000192ba:    253f        ?%      MOVHI    r5,#0x3f
        0x000192bc:    42af        .B      CMP      r7,r5
        0x000192be:    d00e        ..      BEQ      0x192de ; am_hal_pwrctrl_mcu_mode_select + 230
        0x000192c0:    f7fffc62    ..b.    BL       am_hal_interrupt_master_disable ; 0x18b88
        0x000192c4:    9000        ..      STR      r0,[sp,#0]
        0x000192c6:    f8d8007c    ..|.    LDR      r0,[r8,#0x7c]
        0x000192ca:    f3650005    e...    BFI      r0,r5,#0,#6
        0x000192ce:    f8c8007c    ..|.    STR      r0,[r8,#0x7c]
        0x000192d2:    2014        .       MOVS     r0,#0x14
        0x000192d4:    f7fffb3e    ..>.    BL       am_hal_delay_us ; 0x18954
        0x000192d8:    9800        ..      LDR      r0,[sp,#0]
        0x000192da:    f7fffc5d    ..].    BL       am_hal_interrupt_master_set ; 0x18b98
        0x000192de:    f2410500    A...    MOVW     r5,#0x1000
        0x000192e2:    f2c40502    ....    MOVT     r5,#0x4002
        0x000192e6:    4628        (F      MOV      r0,r5
        0x000192e8:    f04f31ff    O..1    MOV      r1,#0xffffffff
        0x000192ec:    4622        "F      MOV      r2,r4
        0x000192ee:    230a        .#      MOVS     r3,#0xa
        0x000192f0:    f000fdd4    ....    BL       am_hal_util_write_and_wait ; 0x19e9c
        0x000192f4:    2800        .(      CMP      r0,#0
        0x000192f6:    d13f        ?.      BNE      0x19378 ; am_hal_pwrctrl_mcu_mode_select + 384
        0x000192f8:    2705        .'      MOVS     r7,#5
        0x000192fa:    bf00        ..      NOP      
        0x000192fc:    6828        (h      LDR      r0,[r5,#0]
        0x000192fe:    0740        @.      LSLS     r0,r0,#29
        0x00019300:    d406        ..      BMI      0x19310 ; am_hal_pwrctrl_mcu_mode_select + 280
        0x00019302:    2001        .       MOVS     r0,#1
        0x00019304:    f7fffb26    ..&.    BL       am_hal_delay_us ; 0x18954
        0x00019308:    3f01        .?      SUBS     r7,#1
        0x0001930a:    d1f7        ..      BNE      0x192fc ; am_hal_pwrctrl_mcu_mode_select + 260
        0x0001930c:    2004        .       MOVS     r0,#4
        0x0001930e:    e033        3.      B        0x19378 ; am_hal_pwrctrl_mcu_mode_select + 384
        0x00019310:    2c01        .,      CMP      r4,#1
        0x00019312:    d119        ..      BNE      0x19348 ; am_hal_pwrctrl_mcu_mode_select + 336
        0x00019314:    f24011a4    @...    MOVW     r1,#0x1a4
        0x00019318:    f2c10100    ....    MOVT     r1,#0x1000
        0x0001931c:    f8d8207c    ..|     LDR      r2,[r8,#0x7c]
        0x00019320:    6808        .h      LDR      r0,[r1,#0]
        0x00019322:    f002023f    ..?.    AND      r2,r2,#0x3f
        0x00019326:    1c43        C.      ADDS     r3,r0,#1
        0x00019328:    d008        ..      BEQ      0x1933c ; am_hal_pwrctrl_mcu_mode_select + 324
        0x0001932a:    4282        .B      CMP      r2,r0
        0x0001932c:    d007        ..      BEQ      0x1933e ; am_hal_pwrctrl_mcu_mode_select + 326
        0x0001932e:    f8d8107c    ..|.    LDR      r1,[r8,#0x7c]
        0x00019332:    f3600105    `...    BFI      r1,r0,#0,#6
        0x00019336:    f8c8107c    ..|.    STR      r1,[r8,#0x7c]
        0x0001933a:    e000        ..      B        0x1933e ; am_hal_pwrctrl_mcu_mode_select + 326
        0x0001933c:    600a        .`      STR      r2,[r1,#0]
        0x0001933e:    2000        .       MOVS     r0,#0
        0x00019340:    2100        .!      MOVS     r1,#0
        0x00019342:    2200        ."      MOVS     r2,#0
        0x00019344:    f7fff8a9    ....    BL       VDDF_simobuck_boost ; 0x1849a
        0x00019348:    2e21        !.      CMP      r6,#0x21
        0x0001934a:    d10f        ..      BNE      0x1936c ; am_hal_pwrctrl_mcu_mode_select + 372
        0x0001934c:    f2440044    D.D.    MOV      r0,#0x4044
        0x00019350:    f2c40000    ....    MOVT     r0,#0x4000
        0x00019354:    6801        .h      LDR      r1,[r0,#0]
        0x00019356:    f06f0208    o...    MVN      r2,#8
        0x0001935a:    2c02        .,      CMP      r4,#2
        0x0001935c:    bf08        ..      IT       EQ
        0x0001935e:    f06f0210    o...    MVNEQ    r2,#0x10
        0x00019362:    4011        .@      ANDS     r1,r1,r2
        0x00019364:    6001        .`      STR      r1,[r0,#0]
        0x00019366:    200a        .       MOVS     r0,#0xa
        0x00019368:    f7fffaf4    ....    BL       am_hal_delay_us ; 0x18954
        0x0001936c:    6828        (h      LDR      r0,[r5,#0]
        0x0001936e:    f3c000c1    ....    UBFX     r0,r0,#3,#2
        0x00019372:    1b00        ..      SUBS     r0,r0,r4
        0x00019374:    bf18        ..      IT       NE
        0x00019376:    2001        .       MOVNE    r0,#1
        0x00019378:    b002        ..      ADD      sp,sp,#8
        0x0001937a:    e8bd81f0    ....    POP      {r4-r8,pc}
    am_hal_pwrctrl_periph_disable
        0x0001937e:    e92d41f0    -..A    PUSH     {r4-r8,lr}
        0x00019382:    b082        ..      SUB      sp,sp,#8
        0x00019384:    2821        !(      CMP      r0,#0x21
        0x00019386:    d901        ..      BLS      0x1938c ; am_hal_pwrctrl_periph_disable + 14
        0x00019388:    2506        .%      MOVS     r5,#6
        0x0001938a:    e07f        ..      B        0x1948c ; am_hal_pwrctrl_periph_disable + 270
        0x0001938c:    f64c5140    L.@Q    MOV      r1,#0xcd40
        0x00019390:    f2c00101    ....    MOVT     r1,#1
        0x00019394:    eb011200    ....    ADD      r2,r1,r0,LSL #4
        0x00019398:    e9d26402    ...d    LDRD     r6,r4,[r2,#8]
        0x0001939c:    2814        .(      CMP      r0,#0x14
        0x0001939e:    d136        6.      BNE      0x1940e ; am_hal_pwrctrl_periph_disable + 144
        0x000193a0:    f64077e0    @..w    MOVW     r7,#0xfe0
        0x000193a4:    f2c4070c    ....    MOVT     r7,#0x400c
        0x000193a8:    6838        8h      LDR      r0,[r7,#0]
        0x000193aa:    28c0        .(      CMP      r0,#0xc0
        0x000193ac:    d11f        ..      BNE      0x193ee ; am_hal_pwrctrl_periph_disable + 112
        0x000193ae:    f640287c    @.|(    MOV      r8,#0xa7c
        0x000193b2:    f2c4080c    ....    MOVT     r8,#0x400c
        0x000193b6:    2064        d       MOVS     r0,#0x64
        0x000193b8:    4641        AF      MOV      r1,r8
        0x000193ba:    2201        ."      MOVS     r2,#1
        0x000193bc:    2301        .#      MOVS     r3,#1
        0x000193be:    f7fffae5    ....    BL       am_hal_delay_us_status_change ; 0x1898c
        0x000193c2:    4605        .F      MOV      r5,r0
        0x000193c4:    2800        .(      CMP      r0,#0
        0x000193c6:    d161        a.      BNE      0x1948c ; am_hal_pwrctrl_periph_disable + 270
        0x000193c8:    f5076173    ..sa    ADD      r1,r7,#0xf30
        0x000193cc:    2064        d       MOVS     r0,#0x64
        0x000193ce:    2201        ."      MOVS     r2,#1
        0x000193d0:    2301        .#      MOVS     r3,#1
        0x000193d2:    f7fffadb    ....    BL       am_hal_delay_us_status_change ; 0x1898c
        0x000193d6:    4605        .F      MOV      r5,r0
        0x000193d8:    2800        .(      CMP      r0,#0
        0x000193da:    d157        W.      BNE      0x1948c ; am_hal_pwrctrl_periph_disable + 270
        0x000193dc:    f8d80004    ....    LDR      r0,[r8,#4]
        0x000193e0:    f0400001    @...    ORR      r0,r0,#1
        0x000193e4:    f8c80004    ....    STR      r0,[r8,#4]
        0x000193e8:    200f        .       MOVS     r0,#0xf
        0x000193ea:    f7fffab3    ....    BL       am_hal_delay_us ; 0x18954
        0x000193ee:    f2410004    A...    MOV      r0,#0x1004
        0x000193f2:    f2c40002    ....    MOVT     r0,#0x4002
        0x000193f6:    f44f1180    O...    MOV      r1,#0x100000
        0x000193fa:    2200        ."      MOVS     r2,#0
        0x000193fc:    2310        .#      MOVS     r3,#0x10
        0x000193fe:    f000fd4d    ..M.    BL       am_hal_util_write_and_wait ; 0x19e9c
        0x00019402:    6830        0h      LDR      r0,[r6,#0]
        0x00019404:    ea100504    ....    ANDS     r5,r0,r4
        0x00019408:    bf18        ..      IT       NE
        0x0001940a:    2501        .%      MOVNE    r5,#1
        0x0001940c:    e03e        >.      B        0x1948c ; am_hal_pwrctrl_periph_disable + 270
        0x0001940e:    0100        ..      LSLS     r0,r0,#4
        0x00019410:    6855        Uh      LDR      r5,[r2,#4]
        0x00019412:    580f        .X      LDR      r7,[r1,r0]
        0x00019414:    f7fffbb8    ....    BL       am_hal_interrupt_master_disable ; 0x18b88
        0x00019418:    9001        ..      STR      r0,[sp,#4]
        0x0001941a:    6838        8h      LDR      r0,[r7,#0]
        0x0001941c:    43a8        .C      BICS     r0,r0,r5
        0x0001941e:    6038        8`      STR      r0,[r7,#0]
        0x00019420:    9801        ..      LDR      r0,[sp,#4]
        0x00019422:    f7fffbb9    ....    BL       am_hal_interrupt_master_set ; 0x18b98
        0x00019426:    2500        .%      MOVS     r5,#0
        0x00019428:    2005        .       MOVS     r0,#5
        0x0001942a:    4631        1F      MOV      r1,r6
        0x0001942c:    4622        "F      MOV      r2,r4
        0x0001942e:    4623        #F      MOV      r3,r4
        0x00019430:    9500        ..      STR      r5,[sp,#0]
        0x00019432:    f7fffad5    ....    BL       am_hal_delay_us_status_check ; 0x189e0
        0x00019436:    b348        H.      CBZ      r0,0x1948c ; am_hal_pwrctrl_periph_disable + 270
        0x00019438:    f5b47ff0    ....    CMP      r4,#0x1e0
        0x0001943c:    f04f0500    O...    MOV      r5,#0
        0x00019440:    db0b        ..      BLT      0x1945a ; am_hal_pwrctrl_periph_disable + 220
        0x00019442:    d012        ..      BEQ      0x1946a ; am_hal_pwrctrl_periph_disable + 236
        0x00019444:    f5b43fe0    ...?    CMP      r4,#0x1c000
        0x00019448:    d015        ..      BEQ      0x19476 ; am_hal_pwrctrl_periph_disable + 248
        0x0001944a:    f5b45ff0    ..._    CMP      r4,#0x1e00
        0x0001944e:    d11d        ..      BNE      0x1948c ; am_hal_pwrctrl_periph_disable + 270
        0x00019450:    6838        8h      LDR      r0,[r7,#0]
        0x00019452:    f4105ff0    ..._    TST      r0,#0x1e00
        0x00019456:    d117        ..      BNE      0x19488 ; am_hal_pwrctrl_periph_disable + 266
        0x00019458:    e017        ..      B        0x1948a ; am_hal_pwrctrl_periph_disable + 268
        0x0001945a:    2c1e        .,      CMP      r4,#0x1e
        0x0001945c:    d010        ..      BEQ      0x19480 ; am_hal_pwrctrl_periph_disable + 258
        0x0001945e:    2cff        .,      CMP      r4,#0xff
        0x00019460:    d114        ..      BNE      0x1948c ; am_hal_pwrctrl_periph_disable + 270
        0x00019462:    6838        8h      LDR      r0,[r7,#0]
        0x00019464:    0600        ..      LSLS     r0,r0,#24
        0x00019466:    d10f        ..      BNE      0x19488 ; am_hal_pwrctrl_periph_disable + 266
        0x00019468:    e00f        ..      B        0x1948a ; am_hal_pwrctrl_periph_disable + 268
        0x0001946a:    6838        8h      LDR      r0,[r7,#0]
        0x0001946c:    f4107ff0    ....    TST      r0,#0x1e0
        0x00019470:    bf18        ..      IT       NE
        0x00019472:    6838        8h      LDRNE    r0,[r7,#0]
        0x00019474:    e009        ..      B        0x1948a ; am_hal_pwrctrl_periph_disable + 268
        0x00019476:    6838        8h      LDR      r0,[r7,#0]
        0x00019478:    f4103fe0    ...?    TST      r0,#0x1c000
        0x0001947c:    d104        ..      BNE      0x19488 ; am_hal_pwrctrl_periph_disable + 266
        0x0001947e:    e004        ..      B        0x1948a ; am_hal_pwrctrl_periph_disable + 268
        0x00019480:    6838        8h      LDR      r0,[r7,#0]
        0x00019482:    f0100f1e    ....    TST      r0,#0x1e
        0x00019486:    d000        ..      BEQ      0x1948a ; am_hal_pwrctrl_periph_disable + 268
        0x00019488:    6838        8h      LDR      r0,[r7,#0]
        0x0001948a:    2500        .%      MOVS     r5,#0
        0x0001948c:    4628        (F      MOV      r0,r5
        0x0001948e:    b002        ..      ADD      sp,sp,#8
        0x00019490:    e8bd81f0    ....    POP      {r4-r8,pc}
    am_hal_pwrctrl_periph_enable
        0x00019494:    e92d41f0    -..A    PUSH     {r4-r8,lr}
        0x00019498:    b082        ..      SUB      sp,sp,#8
        0x0001949a:    2821        !(      CMP      r0,#0x21
        0x0001949c:    d901        ..      BLS      0x194a2 ; am_hal_pwrctrl_periph_enable + 14
        0x0001949e:    2006        .       MOVS     r0,#6
        0x000194a0:    e043        C.      B        0x1952a ; am_hal_pwrctrl_periph_enable + 150
        0x000194a2:    4604        .F      MOV      r4,r0
        0x000194a4:    f64c5040    L.@P    MOV      r0,#0xcd40
        0x000194a8:    f2c00001    ....    MOVT     r0,#1
        0x000194ac:    eb001104    ....    ADD      r1,r0,r4,LSL #4
        0x000194b0:    e9d18602    ....    LDRD     r8,r6,[r1,#8]
        0x000194b4:    2c14        .,      CMP      r4,#0x14
        0x000194b6:    d10b        ..      BNE      0x194d0 ; am_hal_pwrctrl_periph_enable + 60
        0x000194b8:    f2410004    A...    MOV      r0,#0x1004
        0x000194bc:    f2c40002    ....    MOVT     r0,#0x4002
        0x000194c0:    f44f1180    O...    MOV      r1,#0x100000
        0x000194c4:    f44f1280    O...    MOV      r2,#0x100000
        0x000194c8:    2310        .#      MOVS     r3,#0x10
        0x000194ca:    f000fce7    ....    BL       am_hal_util_write_and_wait ; 0x19e9c
        0x000194ce:    e016        ..      B        0x194fe ; am_hal_pwrctrl_periph_enable + 106
        0x000194d0:    eb001104    ....    ADD      r1,r0,r4,LSL #4
        0x000194d4:    0122        ".      LSLS     r2,r4,#4
        0x000194d6:    684f        Oh      LDR      r7,[r1,#4]
        0x000194d8:    5885        .X      LDR      r5,[r0,r2]
        0x000194da:    f7fffb55    ..U.    BL       am_hal_interrupt_master_disable ; 0x18b88
        0x000194de:    9001        ..      STR      r0,[sp,#4]
        0x000194e0:    6828        (h      LDR      r0,[r5,#0]
        0x000194e2:    4338        8C      ORRS     r0,r0,r7
        0x000194e4:    6028        (`      STR      r0,[r5,#0]
        0x000194e6:    9801        ..      LDR      r0,[sp,#4]
        0x000194e8:    f7fffb56    ..V.    BL       am_hal_interrupt_master_set ; 0x18b98
        0x000194ec:    2701        .'      MOVS     r7,#1
        0x000194ee:    2005        .       MOVS     r0,#5
        0x000194f0:    4641        AF      MOV      r1,r8
        0x000194f2:    4632        2F      MOV      r2,r6
        0x000194f4:    4633        3F      MOV      r3,r6
        0x000194f6:    9700        ..      STR      r7,[sp,#0]
        0x000194f8:    f7fffa72    ..r.    BL       am_hal_delay_us_status_check ; 0x189e0
        0x000194fc:    b9a8        ..      CBNZ     r0,0x1952a ; am_hal_pwrctrl_periph_enable + 150
        0x000194fe:    f8d80000    ....    LDR      r0,[r8,#0]
        0x00019502:    4030        0@      ANDS     r0,r0,r6
        0x00019504:    fab0f080    ....    CLZ      r0,r0
        0x00019508:    ea4f1050    O.P.    LSR      r0,r0,#5
        0x0001950c:    d00d        ..      BEQ      0x1952a ; am_hal_pwrctrl_periph_enable + 150
        0x0001950e:    2c14        .,      CMP      r4,#0x14
        0x00019510:    d10b        ..      BNE      0x1952a ; am_hal_pwrctrl_periph_enable + 150
        0x00019512:    f6417110    A..q    MOV      r1,#0x1f10
        0x00019516:    f2c4010c    ....    MOVT     r1,#0x400c
        0x0001951a:    2064        d       MOVS     r0,#0x64
        0x0001951c:    2201        ."      MOVS     r2,#1
        0x0001951e:    2301        .#      MOVS     r3,#1
        0x00019520:    b002        ..      ADD      sp,sp,#8
        0x00019522:    e8bd41f0    ...A    POP      {r4-r8,lr}
        0x00019526:    f7ffba31    ..1.    B        am_hal_delay_us_status_change ; 0x1898c
        0x0001952a:    b002        ..      ADD      sp,sp,#8
        0x0001952c:    e8bd81f0    ....    POP      {r4-r8,pc}
    am_hal_pwrctrl_sram_config
        0x00019530:    b570        p.      PUSH     {r4-r6,lr}
        0x00019532:    b082        ..      SUB      sp,sp,#8
        0x00019534:    f2410624    A.$.    MOV      r6,#0x1024
        0x00019538:    f2c40602    ....    MOVT     r6,#0x4002
        0x0001953c:    4604        .F      MOV      r4,r0
        0x0001953e:    7800        .x      LDRB     r0,[r0,#0]
        0x00019540:    6831        1h      LDR      r1,[r6,#0]
        0x00019542:    2501        .%      MOVS     r5,#1
        0x00019544:    f3600101    `...    BFI      r1,r0,#0,#2
        0x00019548:    6031        1`      STR      r1,[r6,#0]
        0x0001954a:    4631        1F      MOV      r1,r6
        0x0001954c:    f8513b04    Q..;    LDR      r3,[r1],#4
        0x00019550:    2005        .       MOVS     r0,#5
        0x00019552:    2203        ."      MOVS     r2,#3
        0x00019554:    9500        ..      STR      r5,[sp,#0]
        0x00019556:    f7fffa43    ..C.    BL       am_hal_delay_us_status_check ; 0x189e0
        0x0001955a:    2800        .(      CMP      r0,#0
        0x0001955c:    d13a        :.      BNE      0x195d4 ; am_hal_pwrctrl_sram_config + 164
        0x0001955e:    6870        ph      LDR      r0,[r6,#4]
        0x00019560:    6831        1h      LDR      r1,[r6,#0]
        0x00019562:    4048        H@      EORS     r0,r0,r1
        0x00019564:    0780        ..      LSLS     r0,r0,#30
        0x00019566:    d001        ..      BEQ      0x1956c ; am_hal_pwrctrl_sram_config + 60
        0x00019568:    2001        .       MOVS     r0,#1
        0x0001956a:    e033        3.      B        0x195d4 ; am_hal_pwrctrl_sram_config + 164
        0x0001956c:    7860        `x      LDRB     r0,[r4,#1]
        0x0001956e:    68b1        .h      LDR      r1,[r6,#8]
        0x00019570:    f3600183    `...    BFI      r1,r0,#2,#2
        0x00019574:    60b1        .`      STR      r1,[r6,#8]
        0x00019576:    78a0        .x      LDRB     r0,[r4,#2]
        0x00019578:    68b1        .h      LDR      r1,[r6,#8]
        0x0001957a:    f0000003    ....    AND      r0,r0,#3
        0x0001957e:    f02101c0    !...    BIC      r1,r1,#0xc0
        0x00019582:    ea411080    A...    ORR      r0,r1,r0,LSL #6
        0x00019586:    60b0        .`      STR      r0,[r6,#8]
        0x00019588:    78e0        .x      LDRB     r0,[r4,#3]
        0x0001958a:    68b1        .h      LDR      r1,[r6,#8]
        0x0001958c:    f0000003    ....    AND      r0,r0,#3
        0x00019590:    f4217140    !.@q    BIC      r1,r1,#0x300
        0x00019594:    ea412000    A..     ORR      r0,r1,r0,LSL #8
        0x00019598:    60b0        .`      STR      r0,[r6,#8]
        0x0001959a:    7920         y      LDRB     r0,[r4,#4]
        0x0001959c:    68b1        .h      LDR      r1,[r6,#8]
        0x0001959e:    f3601105    `...    BFI      r1,r0,#4,#2
        0x000195a2:    60b1        .`      STR      r1,[r6,#8]
        0x000195a4:    7960        `y      LDRB     r0,[r4,#5]
        0x000195a6:    2803        .(      CMP      r0,#3
        0x000195a8:    d813        ..      BHI      0x195d2 ; am_hal_pwrctrl_sram_config + 162
        0x000195aa:    e8dff000    ....    TBB      [pc,r0]
    $d.9
        0x000195ae:    0602        ..      DCW    1538
        0x000195b0:    0e09        ..      DCW    3593
    $t.10
        0x000195b2:    68b0        .h      LDR      r0,[r6,#8]
        0x000195b4:    f0400003    @...    ORR      r0,r0,#3
        0x000195b8:    e00a        ..      B        0x195d0 ; am_hal_pwrctrl_sram_config + 160
        0x000195ba:    68b0        .h      LDR      r0,[r6,#8]
        0x000195bc:    2102        .!      MOVS     r1,#2
        0x000195be:    e001        ..      B        0x195c4 ; am_hal_pwrctrl_sram_config + 148
        0x000195c0:    68b0        .h      LDR      r0,[r6,#8]
        0x000195c2:    2101        .!      MOVS     r1,#1
        0x000195c4:    f3610001    a...    BFI      r0,r1,#0,#2
        0x000195c8:    e002        ..      B        0x195d0 ; am_hal_pwrctrl_sram_config + 160
        0x000195ca:    68b0        .h      LDR      r0,[r6,#8]
        0x000195cc:    f0200003     ...    BIC      r0,r0,#3
        0x000195d0:    60b0        .`      STR      r0,[r6,#8]
        0x000195d2:    2000        .       MOVS     r0,#0
        0x000195d4:    b002        ..      ADD      sp,sp,#8
        0x000195d6:    bd70        p.      POP      {r4-r6,pc}
    am_hal_queue_item_add
        0x000195d8:    b5f0        ..      PUSH     {r4-r7,lr}
        0x000195da:    b081        ..      SUB      sp,sp,#4
        0x000195dc:    4604        .F      MOV      r4,r0
        0x000195de:    6900        .i      LDR      r0,[r0,#0x10]
        0x000195e0:    460d        .F      MOV      r5,r1
        0x000195e2:    fb00f702    ....    MUL      r7,r0,r2
        0x000195e6:    f7fffacf    ....    BL       am_hal_interrupt_master_disable ; 0x18b88
        0x000195ea:    9000        ..      STR      r0,[sp,#0]
        0x000195ec:    68e1        .h      LDR      r1,[r4,#0xc]
        0x000195ee:    68a0        .h      LDR      r0,[r4,#8]
        0x000195f0:    eba10c00    ....    SUB      r12,r1,r0
        0x000195f4:    45bc        .E      CMP      r12,r7
        0x000195f6:    d318        ..      BCC      0x1962a ; am_hal_queue_item_add + 82
        0x000195f8:    b1a7        ..      CBZ      r7,0x19624 ; am_hal_queue_item_add + 76
        0x000195fa:    462a        *F      MOV      r2,r5
        0x000195fc:    463b        ;F      MOV      r3,r7
        0x000195fe:    bf00        ..      NOP      
        0x00019600:    b125        %.      CBZ      r5,0x1960c ; am_hal_queue_item_add + 52
        0x00019602:    7811        .x      LDRB     r1,[r2,#0]
        0x00019604:    6960        `i      LDR      r0,[r4,#0x14]
        0x00019606:    6826        &h      LDR      r6,[r4,#0]
        0x00019608:    5581        .U      STRB     r1,[r0,r6]
        0x0001960a:    68e1        .h      LDR      r1,[r4,#0xc]
        0x0001960c:    6820         h      LDR      r0,[r4,#0]
        0x0001960e:    3b01        .;      SUBS     r3,#1
        0x00019610:    f1000001    ....    ADD      r0,r0,#1
        0x00019614:    fbb0f6f1    ....    UDIV     r6,r0,r1
        0x00019618:    f1020201    ....    ADD      r2,r2,#1
        0x0001961c:    fb060011    ....    MLS      r0,r6,r1,r0
        0x00019620:    6020         `      STR      r0,[r4,#0]
        0x00019622:    d1ed        ..      BNE      0x19600 ; am_hal_queue_item_add + 40
        0x00019624:    68a1        .h      LDR      r1,[r4,#8]
        0x00019626:    4439        9D      ADD      r1,r1,r7
        0x00019628:    60a1        .`      STR      r1,[r4,#8]
        0x0001962a:    9800        ..      LDR      r0,[sp,#0]
        0x0001962c:    2400        .$      MOVS     r4,#0
        0x0001962e:    45bc        .E      CMP      r12,r7
        0x00019630:    bf28        (.      IT       CS
        0x00019632:    2401        .$      MOVCS    r4,#1
        0x00019634:    f7fffab0    ....    BL       am_hal_interrupt_master_set ; 0x18b98
        0x00019638:    4620         F      MOV      r0,r4
        0x0001963a:    b001        ..      ADD      sp,sp,#4
        0x0001963c:    bdf0        ..      POP      {r4-r7,pc}
        0x0001963e:    0000        ..      MOVS     r0,r0
    am_hal_queue_item_get
        0x00019640:    b5f0        ..      PUSH     {r4-r7,lr}
        0x00019642:    b081        ..      SUB      sp,sp,#4
        0x00019644:    4604        .F      MOV      r4,r0
        0x00019646:    6900        .i      LDR      r0,[r0,#0x10]
        0x00019648:    460d        .F      MOV      r5,r1
        0x0001964a:    fb00f702    ....    MUL      r7,r0,r2
        0x0001964e:    f7fffa9b    ....    BL       am_hal_interrupt_master_disable ; 0x18b88
        0x00019652:    9000        ..      STR      r0,[sp,#0]
        0x00019654:    f8d4c008    ....    LDR      r12,[r4,#8]
        0x00019658:    45bc        .E      CMP      r12,r7
        0x0001965a:    d317        ..      BCC      0x1968c ; am_hal_queue_item_get + 76
        0x0001965c:    b19f        ..      CBZ      r7,0x19686 ; am_hal_queue_item_get + 70
        0x0001965e:    4629        )F      MOV      r1,r5
        0x00019660:    463a        :F      MOV      r2,r7
        0x00019662:    bf00        ..      NOP      
        0x00019664:    b11d        ..      CBZ      r5,0x1966e ; am_hal_queue_item_get + 46
        0x00019666:    6863        ch      LDR      r3,[r4,#4]
        0x00019668:    6960        `i      LDR      r0,[r4,#0x14]
        0x0001966a:    5cc0        .\      LDRB     r0,[r0,r3]
        0x0001966c:    7008        .p      STRB     r0,[r1,#0]
        0x0001966e:    6860        `h      LDR      r0,[r4,#4]
        0x00019670:    68e3        .h      LDR      r3,[r4,#0xc]
        0x00019672:    3001        .0      ADDS     r0,#1
        0x00019674:    fbb0f6f3    ....    UDIV     r6,r0,r3
        0x00019678:    3a01        .:      SUBS     r2,#1
        0x0001967a:    fb060013    ....    MLS      r0,r6,r3,r0
        0x0001967e:    f1010101    ....    ADD      r1,r1,#1
        0x00019682:    6060        ``      STR      r0,[r4,#4]
        0x00019684:    d1ee        ..      BNE      0x19664 ; am_hal_queue_item_get + 36
        0x00019686:    68a1        .h      LDR      r1,[r4,#8]
        0x00019688:    1bc9        ..      SUBS     r1,r1,r7
        0x0001968a:    60a1        .`      STR      r1,[r4,#8]
        0x0001968c:    9800        ..      LDR      r0,[sp,#0]
        0x0001968e:    2400        .$      MOVS     r4,#0
        0x00019690:    45bc        .E      CMP      r12,r7
        0x00019692:    bf28        (.      IT       CS
        0x00019694:    2401        .$      MOVCS    r4,#1
        0x00019696:    f7fffa7f    ....    BL       am_hal_interrupt_master_set ; 0x18b98
        0x0001969a:    4620         F      MOV      r0,r4
        0x0001969c:    b001        ..      ADD      sp,sp,#4
        0x0001969e:    bdf0        ..      POP      {r4-r7,pc}
    am_hal_rtc_osc_disable
        0x000196a0:    f6440100    D...    MOVW     r1,#0x4800
        0x000196a4:    f2c40100    ....    MOVT     r1,#0x4000
        0x000196a8:    6808        .h      LDR      r0,[r1,#0]
        0x000196aa:    f0400210    @...    ORR      r2,r0,#0x10
        0x000196ae:    2000        .       MOVS     r0,#0
        0x000196b0:    600a        .`      STR      r2,[r1,#0]
        0x000196b2:    4770        pG      BX       lr
    am_hal_sysctrl_fpu_enable
        0x000196b4:    f64e5088    N..P    MOV      r0,#0xed88
        0x000196b8:    f2ce0000    ....    MOVT     r0,#0xe000
        0x000196bc:    f44f0170    O.p.    MOV      r1,#0xf00000
        0x000196c0:    6001        .`      STR      r1,[r0,#0]
        0x000196c2:    4770        pG      BX       lr
    am_hal_sysctrl_fpu_stacking_enable
        0x000196c4:    b510        ..      PUSH     {r4,lr}
        0x000196c6:    b082        ..      SUB      sp,sp,#8
        0x000196c8:    4604        .F      MOV      r4,r0
        0x000196ca:    f7fffa5d    ..].    BL       am_hal_interrupt_master_disable ; 0x18b88
        0x000196ce:    9001        ..      STR      r0,[sp,#4]
        0x000196d0:    f64e7034    N.4p    MOV      r0,#0xef34
        0x000196d4:    f2ce0000    ....    MOVT     r0,#0xe000
        0x000196d8:    6801        .h      LDR      r1,[r0,#0]
        0x000196da:    f04f4200    O..B    MOV      r2,#0x80000000
        0x000196de:    f0214140    !.@A    BIC      r1,r1,#0xc0000000
        0x000196e2:    2c00        .,      CMP      r4,#0
        0x000196e4:    bf18        ..      IT       NE
        0x000196e6:    f04f4240    O.@B    MOVNE    r2,#0xc0000000
        0x000196ea:    4411        .D      ADD      r1,r1,r2
        0x000196ec:    6001        .`      STR      r1,[r0,#0]
        0x000196ee:    9801        ..      LDR      r0,[sp,#4]
        0x000196f0:    b002        ..      ADD      sp,sp,#8
        0x000196f2:    e8bd4010    ...@    POP      {r4,lr}
        0x000196f6:    f7ffba4f    ..O.    B        am_hal_interrupt_master_set ; 0x18b98
    am_hal_systick_count
        0x000196fa:    f24e0018    N...    MOV      r0,#0xe018
        0x000196fe:    f2ce0000    ....    MOVT     r0,#0xe000
        0x00019702:    6800        .h      LDR      r0,[r0,#0]
        0x00019704:    4770        pG      BX       lr
    am_hal_systick_int_enable
        0x00019706:    f24e0010    N...    MOV      r0,#0xe010
        0x0001970a:    f2ce0000    ....    MOVT     r0,#0xe000
        0x0001970e:    6801        .h      LDR      r1,[r0,#0]
        0x00019710:    f0410102    A...    ORR      r1,r1,#2
        0x00019714:    6001        .`      STR      r1,[r0,#0]
        0x00019716:    4770        pG      BX       lr
    am_hal_systick_load
        0x00019718:    f24e0114    N...    MOV      r1,#0xe014
        0x0001971c:    f2ce0100    ....    MOVT     r1,#0xe000
        0x00019720:    6008        .`      STR      r0,[r1,#0]
        0x00019722:    2000        .       MOVS     r0,#0
        0x00019724:    6048        H`      STR      r0,[r1,#4]
        0x00019726:    4770        pG      BX       lr
    am_hal_systick_reset
        0x00019728:    f24e0010    N...    MOV      r0,#0xe010
        0x0001972c:    f2ce0000    ....    MOVT     r0,#0xe000
        0x00019730:    2100        .!      MOVS     r1,#0
        0x00019732:    6001        .`      STR      r1,[r0,#0]
        0x00019734:    4770        pG      BX       lr
    am_hal_systick_start
        0x00019736:    f24e0010    N...    MOV      r0,#0xe010
        0x0001973a:    f2ce0000    ....    MOVT     r0,#0xe000
        0x0001973e:    6801        .h      LDR      r1,[r0,#0]
        0x00019740:    f0410101    A...    ORR      r1,r1,#1
        0x00019744:    6001        .`      STR      r1,[r0,#0]
        0x00019746:    4770        pG      BX       lr
    am_hal_systick_stop
        0x00019748:    f24e0010    N...    MOV      r0,#0xe010
        0x0001974c:    f2ce0000    ....    MOVT     r0,#0xe000
        0x00019750:    6801        .h      LDR      r1,[r0,#0]
        0x00019752:    f0210101    !...    BIC      r1,r1,#1
        0x00019756:    6001        .`      STR      r1,[r0,#0]
        0x00019758:    4770        pG      BX       lr
    am_hal_timer_clear
        0x0001975a:    b510        ..      PUSH     {r4,lr}
        0x0001975c:    b082        ..      SUB      sp,sp,#8
        0x0001975e:    4604        .F      MOV      r4,r0
        0x00019760:    f7fffa12    ....    BL       am_hal_interrupt_master_disable ; 0x18b88
        0x00019764:    f2481104    H...    MOV      r1,#0x8104
        0x00019768:    9001        ..      STR      r0,[sp,#4]
        0x0001976a:    f2c40100    ....    MOVT     r1,#0x4000
        0x0001976e:    2001        .       MOVS     r0,#1
        0x00019770:    680a        .h      LDR      r2,[r1,#0]
        0x00019772:    40a0        .@      LSLS     r0,r0,r4
        0x00019774:    4382        .C      BICS     r2,r2,r0
        0x00019776:    600a        .`      STR      r2,[r1,#0]
        0x00019778:    eb011244    ..D.    ADD      r2,r1,r4,LSL #5
        0x0001977c:    f8d230fc    ...0    LDR      r3,[r2,#0xfc]
        0x00019780:    f0230301    #...    BIC      r3,r3,#1
        0x00019784:    f8c230fc    ...0    STR      r3,[r2,#0xfc]
        0x00019788:    f8d230fc    ...0    LDR      r3,[r2,#0xfc]
        0x0001978c:    f0430302    C...    ORR      r3,r3,#2
        0x00019790:    f8c230fc    ...0    STR      r3,[r2,#0xfc]
        0x00019794:    f8d230fc    ...0    LDR      r3,[r2,#0xfc]
        0x00019798:    f0430301    C...    ORR      r3,r3,#1
        0x0001979c:    f8c230fc    ...0    STR      r3,[r2,#0xfc]
        0x000197a0:    680a        .h      LDR      r2,[r1,#0]
        0x000197a2:    4310        .C      ORRS     r0,r0,r2
        0x000197a4:    6008        .`      STR      r0,[r1,#0]
        0x000197a6:    9801        ..      LDR      r0,[sp,#4]
        0x000197a8:    f7fff9f6    ....    BL       am_hal_interrupt_master_set ; 0x18b98
        0x000197ac:    2000        .       MOVS     r0,#0
        0x000197ae:    b002        ..      ADD      sp,sp,#8
        0x000197b0:    bd10        ..      POP      {r4,pc}
    am_hal_timer_clear_stop
        0x000197b2:    b510        ..      PUSH     {r4,lr}
        0x000197b4:    b082        ..      SUB      sp,sp,#8
        0x000197b6:    4604        .F      MOV      r4,r0
        0x000197b8:    f7fff9e6    ....    BL       am_hal_interrupt_master_disable ; 0x18b88
        0x000197bc:    f2481104    H...    MOV      r1,#0x8104
        0x000197c0:    9001        ..      STR      r0,[sp,#4]
        0x000197c2:    f2c40100    ....    MOVT     r1,#0x4000
        0x000197c6:    2001        .       MOVS     r0,#1
        0x000197c8:    680a        .h      LDR      r2,[r1,#0]
        0x000197ca:    40a0        .@      LSLS     r0,r0,r4
        0x000197cc:    ea220000    "...    BIC      r0,r2,r0
        0x000197d0:    6008        .`      STR      r0,[r1,#0]
        0x000197d2:    eb011044    ..D.    ADD      r0,r1,r4,LSL #5
        0x000197d6:    f8d010fc    ....    LDR      r1,[r0,#0xfc]
        0x000197da:    f0210101    !...    BIC      r1,r1,#1
        0x000197de:    f8c010fc    ....    STR      r1,[r0,#0xfc]
        0x000197e2:    f8d010fc    ....    LDR      r1,[r0,#0xfc]
        0x000197e6:    f0410102    A...    ORR      r1,r1,#2
        0x000197ea:    f8c010fc    ....    STR      r1,[r0,#0xfc]
        0x000197ee:    f8d010fc    ....    LDR      r1,[r0,#0xfc]
        0x000197f2:    f0410101    A...    ORR      r1,r1,#1
        0x000197f6:    f8c010fc    ....    STR      r1,[r0,#0xfc]
        0x000197fa:    9801        ..      LDR      r0,[sp,#4]
        0x000197fc:    f7fff9cc    ....    BL       am_hal_interrupt_master_set ; 0x18b98
        0x00019800:    2000        .       MOVS     r0,#0
        0x00019802:    b002        ..      ADD      sp,sp,#8
        0x00019804:    bd10        ..      POP      {r4,pc}
    am_hal_timer_default_config_set
        0x00019806:    4601        .F      MOV      r1,r0
        0x00019808:    f2401001    @...    MOV      r0,#0x101
        0x0001980c:    8008        ..      STRH     r0,[r1,#0]
        0x0001980e:    f04f7080    O..p    MOV      r0,#0x1000000
        0x00019812:    f04f32ff    O..2    MOV      r2,#0xffffffff
        0x00019816:    f8c10002    ....    STR      r0,[r1,#2]
        0x0001981a:    2000        .       MOVS     r0,#0
        0x0001981c:    e9c10202    ....    STRD     r0,r2,[r1,#8]
        0x00019820:    2000        .       MOVS     r0,#0
        0x00019822:    610a        .a      STR      r2,[r1,#0x10]
        0x00019824:    4770        pG      BX       lr
    am_hal_timer_disable
        0x00019826:    b510        ..      PUSH     {r4,lr}
        0x00019828:    b082        ..      SUB      sp,sp,#8
        0x0001982a:    4604        .F      MOV      r4,r0
        0x0001982c:    f7fff9ac    ....    BL       am_hal_interrupt_master_disable ; 0x18b88
        0x00019830:    f2481104    H...    MOV      r1,#0x8104
        0x00019834:    9001        ..      STR      r0,[sp,#4]
        0x00019836:    f2c40100    ....    MOVT     r1,#0x4000
        0x0001983a:    2001        .       MOVS     r0,#1
        0x0001983c:    680a        .h      LDR      r2,[r1,#0]
        0x0001983e:    40a0        .@      LSLS     r0,r0,r4
        0x00019840:    ea220000    "...    BIC      r0,r2,r0
        0x00019844:    6008        .`      STR      r0,[r1,#0]
        0x00019846:    eb011044    ..D.    ADD      r0,r1,r4,LSL #5
        0x0001984a:    f8d010fc    ....    LDR      r1,[r0,#0xfc]
        0x0001984e:    f0210101    !...    BIC      r1,r1,#1
        0x00019852:    f8c010fc    ....    STR      r1,[r0,#0xfc]
        0x00019856:    9801        ..      LDR      r0,[sp,#4]
        0x00019858:    f7fff99e    ....    BL       am_hal_interrupt_master_set ; 0x18b98
        0x0001985c:    2000        .       MOVS     r0,#0
        0x0001985e:    b002        ..      ADD      sp,sp,#8
        0x00019860:    bd10        ..      POP      {r4,pc}
    am_hal_timer_enable
        0x00019862:    b510        ..      PUSH     {r4,lr}
        0x00019864:    b082        ..      SUB      sp,sp,#8
        0x00019866:    4604        .F      MOV      r4,r0
        0x00019868:    f7fff98e    ....    BL       am_hal_interrupt_master_disable ; 0x18b88
        0x0001986c:    f2480110    H...    MOV      r1,#0x8010
        0x00019870:    9001        ..      STR      r0,[sp,#4]
        0x00019872:    f2c40100    ....    MOVT     r1,#0x4000
        0x00019876:    2001        .       MOVS     r0,#1
        0x00019878:    f8d120f4    ...     LDR      r2,[r1,#0xf4]
        0x0001987c:    40a0        .@      LSLS     r0,r0,r4
        0x0001987e:    4382        .C      BICS     r2,r2,r0
        0x00019880:    f8c120f4    ...     STR      r2,[r1,#0xf4]
        0x00019884:    680a        .h      LDR      r2,[r1,#0]
        0x00019886:    4302        .C      ORRS     r2,r2,r0
        0x00019888:    600a        .`      STR      r2,[r1,#0]
        0x0001988a:    eb011244    ..D.    ADD      r2,r1,r4,LSL #5
        0x0001988e:    f8d231f0    ...1    LDR      r3,[r2,#0x1f0]
        0x00019892:    f0430301    C...    ORR      r3,r3,#1
        0x00019896:    f8c231f0    ...1    STR      r3,[r2,#0x1f0]
        0x0001989a:    f8d120f4    ...     LDR      r2,[r1,#0xf4]
        0x0001989e:    4310        .C      ORRS     r0,r0,r2
        0x000198a0:    f8c100f4    ....    STR      r0,[r1,#0xf4]
        0x000198a4:    9801        ..      LDR      r0,[sp,#4]
        0x000198a6:    f7fff977    ..w.    BL       am_hal_interrupt_master_set ; 0x18b98
        0x000198aa:    2000        .       MOVS     r0,#0
        0x000198ac:    b002        ..      ADD      sp,sp,#8
        0x000198ae:    bd10        ..      POP      {r4,pc}
    am_hal_timer_enable_sync
        0x000198b0:    b5b0        ..      PUSH     {r4,r5,r7,lr}
        0x000198b2:    b082        ..      SUB      sp,sp,#8
        0x000198b4:    f2480510    H...    MOV      r5,#0x8010
        0x000198b8:    4604        .F      MOV      r4,r0
        0x000198ba:    f2c40500    ....    MOVT     r5,#0x4000
        0x000198be:    f7fff963    ..c.    BL       am_hal_interrupt_master_disable ; 0x18b88
        0x000198c2:    9001        ..      STR      r0,[sp,#4]
        0x000198c4:    6828        (h      LDR      r0,[r5,#0]
        0x000198c6:    f04f0c01    O...    MOV      r12,#1
        0x000198ca:    ea200104     ...    BIC      r1,r0,r4
        0x000198ce:    4628        (F      MOV      r0,r5
        0x000198d0:    f8401910    @...    STR      r1,[r0],#-0x10
        0x000198d4:    2100        .!      MOVS     r1,#0
        0x000198d6:    bf00        ..      NOP      
        0x000198d8:    fa0cf301    ....    LSL      r3,r12,r1
        0x000198dc:    4223        #B      TST      r3,r4
        0x000198de:    d00f        ..      BEQ      0x19900 ; am_hal_timer_enable_sync + 80
        0x000198e0:    f8d520f4    ...     LDR      r2,[r5,#0xf4]
        0x000198e4:    439a        .C      BICS     r2,r2,r3
        0x000198e6:    f8c520f4    ...     STR      r2,[r5,#0xf4]
        0x000198ea:    f8d02200    ..."    LDR      r2,[r0,#0x200]
        0x000198ee:    f0420201    B...    ORR      r2,r2,#1
        0x000198f2:    f8c02200    ..."    STR      r2,[r0,#0x200]
        0x000198f6:    f8d520f4    ...     LDR      r2,[r5,#0xf4]
        0x000198fa:    431a        .C      ORRS     r2,r2,r3
        0x000198fc:    f8c520f4    ...     STR      r2,[r5,#0xf4]
        0x00019900:    3101        .1      ADDS     r1,#1
        0x00019902:    2910        .)      CMP      r1,#0x10
        0x00019904:    f1000020    .. .    ADD      r0,r0,#0x20
        0x00019908:    d1e6        ..      BNE      0x198d8 ; am_hal_timer_enable_sync + 40
        0x0001990a:    6828        (h      LDR      r0,[r5,#0]
        0x0001990c:    4320         C      ORRS     r0,r0,r4
        0x0001990e:    6028        (`      STR      r0,[r5,#0]
        0x00019910:    9801        ..      LDR      r0,[sp,#4]
        0x00019912:    f7fff941    ..A.    BL       am_hal_interrupt_master_set ; 0x18b98
        0x00019916:    2000        .       MOVS     r0,#0
        0x00019918:    b002        ..      ADD      sp,sp,#8
        0x0001991a:    bdb0        ..      POP      {r4,r5,r7,pc}
    am_hal_timer_interrupt_clear
        0x0001991c:    f2480268    H.h.    MOV      r2,#0x8068
        0x00019920:    4601        .F      MOV      r1,r0
        0x00019922:    f2c40200    ....    MOVT     r2,#0x4000
        0x00019926:    2000        .       MOVS     r0,#0
        0x00019928:    6011        .`      STR      r1,[r2,#0]
        0x0001992a:    4770        pG      BX       lr
    am_hal_timer_interrupt_enable
        0x0001992c:    210c        .!      MOVS     r1,#0xc
        0x0001992e:    f2c40102    ....    MOVT     r1,#0x4002
        0x00019932:    6809        .h      LDR      r1,[r1,#0]
        0x00019934:    f00101fe    ....    AND      r1,r1,#0xfe
        0x00019938:    2922        ")      CMP      r1,#0x22
        0x0001993a:    d316        ..      BCC      0x1996a ; am_hal_timer_interrupt_enable + 62
        0x0001993c:    f2402c58    @.X,    MOVW     r12,#0x258
        0x00019940:    2100        .!      MOVS     r1,#0
        0x00019942:    f2c10c00    ....    MOVT     r12,#0x1000
        0x00019946:    4603        .F      MOV      r3,r0
        0x00019948:    07da        ..      LSLS     r2,r3,#31
        0x0001994a:    d003        ..      BEQ      0x19954 ; am_hal_timer_interrupt_enable + 40
        0x0001994c:    eb0c0281    ....    ADD      r2,r12,r1,LSL #2
        0x00019950:    7852        Rx      LDRB     r2,[r2,#1]
        0x00019952:    b19a        ..      CBZ      r2,0x1997c ; am_hal_timer_interrupt_enable + 80
        0x00019954:    079a        ..      LSLS     r2,r3,#30
        0x00019956:    d503        ..      BPL      0x19960 ; am_hal_timer_interrupt_enable + 52
        0x00019958:    eb0c0281    ....    ADD      r2,r12,r1,LSL #2
        0x0001995c:    78d2        .x      LDRB     r2,[r2,#3]
        0x0001995e:    b16a        j.      CBZ      r2,0x1997c ; am_hal_timer_interrupt_enable + 80
        0x00019960:    3101        .1      ADDS     r1,#1
        0x00019962:    2910        .)      CMP      r1,#0x10
        0x00019964:    ea4f0393    O...    LSR      r3,r3,#2
        0x00019968:    d1ee        ..      BNE      0x19948 ; am_hal_timer_interrupt_enable + 28
        0x0001996a:    f2480160    H.`.    MOV      r1,#0x8060
        0x0001996e:    f2c40100    ....    MOVT     r1,#0x4000
        0x00019972:    680a        .h      LDR      r2,[r1,#0]
        0x00019974:    4310        .C      ORRS     r0,r0,r2
        0x00019976:    6008        .`      STR      r0,[r1,#0]
        0x00019978:    2000        .       MOVS     r0,#0
        0x0001997a:    4770        pG      BX       lr
        0x0001997c:    2006        .       MOVS     r0,#6
        0x0001997e:    4770        pG      BX       lr
    am_hal_timer_interrupt_status_get
        0x00019980:    f2480360    H.`.    MOV      r3,#0x8060
        0x00019984:    f2c40300    ....    MOVT     r3,#0x4000
        0x00019988:    685a        Zh      LDR      r2,[r3,#4]
        0x0001998a:    b108        ..      CBZ      r0,0x19990 ; am_hal_timer_interrupt_status_get + 16
        0x0001998c:    6818        .h      LDR      r0,[r3,#0]
        0x0001998e:    4002        .@      ANDS     r2,r2,r0
        0x00019990:    2000        .       MOVS     r0,#0
        0x00019992:    600a        .`      STR      r2,[r1,#0]
        0x00019994:    4770        pG      BX       lr
    am_hal_timer_read
        0x00019996:    b580        ..      PUSH     {r7,lr}
        0x00019998:    b084        ..      SUB      sp,sp,#0x10
        0x0001999a:    f2482104    H..!    MOV      r1,#0x8204
        0x0001999e:    f2c40100    ....    MOVT     r1,#0x4000
        0x000199a2:    eb011040    ..@.    ADD      r0,r1,r0,LSL #5
        0x000199a6:    a901        ..      ADD      r1,sp,#4
        0x000199a8:    f000f841    ..A.    BL       am_hal_triple_read ; 0x19a2e
        0x000199ac:    e9dd1201    ....    LDRD     r1,r2,[sp,#4]
        0x000199b0:    9803        ..      LDR      r0,[sp,#0xc]
        0x000199b2:    4291        .B      CMP      r1,r2
        0x000199b4:    bf08        ..      IT       EQ
        0x000199b6:    4608        .F      MOVEQ    r0,r1
        0x000199b8:    b004        ..      ADD      sp,sp,#0x10
        0x000199ba:    bd80        ..      POP      {r7,pc}
    am_hal_timer_reset_config
        0x000199bc:    b5f0        ..      PUSH     {r4-r7,lr}
        0x000199be:    b081        ..      SUB      sp,sp,#4
        0x000199c0:    f2480660    H.`.    MOV      r6,#0x8060
        0x000199c4:    f2c40600    ....    MOVT     r6,#0x4000
        0x000199c8:    4604        .F      MOV      r4,r0
        0x000199ca:    0040        @.      LSLS     r0,r0,#1
        0x000199cc:    2103        .!      MOVS     r1,#3
        0x000199ce:    6832        2h      LDR      r2,[r6,#0]
        0x000199d0:    fa01f700    ....    LSL      r7,r1,r0
        0x000199d4:    ea220007    "...    BIC      r0,r2,r7
        0x000199d8:    6030        0`      STR      r0,[r6,#0]
        0x000199da:    2001        .       MOVS     r0,#1
        0x000199dc:    fa00f504    ....    LSL      r5,r0,r4
        0x000199e0:    4628        (F      MOV      r0,r5
        0x000199e2:    f7ffff65    ..e.    BL       am_hal_timer_enable_sync ; 0x198b0
        0x000199e6:    4620         F      MOV      r0,r4
        0x000199e8:    f7ffff1d    ....    BL       am_hal_timer_disable ; 0x19826
        0x000199ec:    f8d600a4    ....    LDR      r0,[r6,#0xa4]
        0x000199f0:    2100        .!      MOVS     r1,#0
        0x000199f2:    43a8        .C      BICS     r0,r0,r5
        0x000199f4:    f8c600a4    ....    STR      r0,[r6,#0xa4]
        0x000199f8:    eb061044    ..D.    ADD      r0,r6,r4,LSL #5
        0x000199fc:    f8c011a0    ....    STR      r1,[r0,#0x1a0]
        0x00019a00:    f8c011a4    ....    STR      r1,[r0,#0x1a4]
        0x00019a04:    f8c011a8    ....    STR      r1,[r0,#0x1a8]
        0x00019a08:    f8c011ac    ....    STR      r1,[r0,#0x1ac]
        0x00019a0c:    f8c011b0    ....    STR      r1,[r0,#0x1b0]
        0x00019a10:    f8d600a4    ....    LDR      r0,[r6,#0xa4]
        0x00019a14:    f2402258    @.X"    MOVW     r2,#0x258
        0x00019a18:    4328        (C      ORRS     r0,r0,r5
        0x00019a1a:    f2c10200    ....    MOVT     r2,#0x1000
        0x00019a1e:    f8c600a4    ....    STR      r0,[r6,#0xa4]
        0x00019a22:    60b7        .`      STR      r7,[r6,#8]
        0x00019a24:    2000        .       MOVS     r0,#0
        0x00019a26:    f8421024    B.$.    STR      r1,[r2,r4,LSL #2]
        0x00019a2a:    b001        ..      ADD      sp,sp,#4
        0x00019a2c:    bdf0        ..      POP      {r4-r7,pc}
    am_hal_triple_read
        0x00019a2e:    b510        ..      PUSH     {r4,lr}
        0x00019a30:    468c        .F      MOV      r12,r1
        0x00019a32:    4686        .F      MOV      lr,r0
        0x00019a34:    b412        ..      PUSH     {r1,r4}
        0x00019a36:    f3ef8410    ....    MRS      r4,PRIMASK
        0x00019a3a:    b672        r.      CPSID    i
        0x00019a3c:    bf00        ..      NOP      
        0x00019a3e:    6801        .h      LDR      r1,[r0,#0]
        0x00019a40:    6802        .h      LDR      r2,[r0,#0]
        0x00019a42:    6803        .h      LDR      r3,[r0,#0]
        0x00019a44:    f3848810    ....    MSR      PRIMASK,r4
        0x00019a48:    bc11        ..      POP      {r0,r4}
        0x00019a4a:    6001        .`      STR      r1,[r0,#0]
        0x00019a4c:    6042        B`      STR      r2,[r0,#4]
        0x00019a4e:    6083        .`      STR      r3,[r0,#8]
        0x00019a50:    bd10        ..      POP      {r4,pc}
        0x00019a52:    0000        ..      MOVS     r0,r0
    am_hal_uart_configure
        0x00019a54:    b5f0        ..      PUSH     {r4-r7,lr}
        0x00019a56:    6802        .h      LDR      r2,[r0,#0]
        0x00019a58:    f6496306    I..c    MOV      r3,#0x9e06
        0x00019a5c:    f022427e    ".~B    BIC      r2,r2,#0xfe000000
        0x00019a60:    f2c013ea    ....    MOVT     r3,#0x1ea
        0x00019a64:    429a        .B      CMP      r2,r3
        0x00019a66:    d13e        >.      BNE      0x19ae6 ; am_hal_uart_configure + 146
        0x00019a68:    f8d0c024    ..$.    LDR      r12,[r0,#0x24]
        0x00019a6c:    f24c0430    L.0.    MOV      r4,#0xc030
        0x00019a70:    ea4f330c    O..3    LSL      r3,r12,#12
        0x00019a74:    f2c40401    ....    MOVT     r4,#0x4001
        0x00019a78:    f04f0e00    O...    MOV      lr,#0
        0x00019a7c:    f844e003    D...    STR      lr,[r4,r3]
        0x00019a80:    58e2        .X      LDR      r2,[r4,r3]
        0x00019a82:    f24e3660    N.`6    MOV      r6,#0xe360
        0x00019a86:    f0420208    B...    ORR      r2,r2,#8
        0x00019a8a:    50e2        .P      STR      r2,[r4,r3]
        0x00019a8c:    680a        .h      LDR      r2,[r1,#0]
        0x00019a8e:    58e5        .X      LDR      r5,[r4,r3]
        0x00019a90:    f2c00616    ....    MOVT     r6,#0x16
        0x00019a94:    f0250560    %.`.    BIC      r5,r5,#0x60
        0x00019a98:    2710        .'      MOVS     r7,#0x10
        0x00019a9a:    42b2        .B      CMP      r2,r6
        0x00019a9c:    bf88        ..      IT       HI
        0x00019a9e:    2750        P'      MOVHI    r7,#0x50
        0x00019aa0:    ea450207    E...    ORR      r2,r5,r7
        0x00019aa4:    50e2        .P      STR      r2,[r4,r3]
        0x00019aa6:    58e2        .X      LDR      r2,[r4,r3]
        0x00019aa8:    f0220201    "...    BIC      r2,r2,#1
        0x00019aac:    50e2        .P      STR      r2,[r4,r3]
        0x00019aae:    58e2        .X      LDR      r2,[r4,r3]
        0x00019ab0:    f4227200    "..r    BIC      r2,r2,#0x200
        0x00019ab4:    50e2        .P      STR      r2,[r4,r3]
        0x00019ab6:    58e2        .X      LDR      r2,[r4,r3]
        0x00019ab8:    f4227280    "..r    BIC      r2,r2,#0x100
        0x00019abc:    50e2        .P      STR      r2,[r4,r3]
        0x00019abe:    680a        .h      LDR      r2,[r1,#0]
        0x00019ac0:    58e3        .X      LDR      r3,[r4,r3]
        0x00019ac2:    f3c31302    ....    UBFX     r3,r3,#4,#3
        0x00019ac6:    3b01        .;      SUBS     r3,#1
        0x00019ac8:    2b05        .+      CMP      r3,#5
        0x00019aca:    d20e        ..      BCS      0x19aea ; am_hal_uart_configure + 150
        0x00019acc:    a73d        =.      ADR      r7,{pc}+0xf8 ; 0x19bc4
        0x00019ace:    f8573023    W.#0    LDR      r3,[r7,r3,LSL #2]
        0x00019ad2:    ebb31f02    ....    CMP      r3,r2,LSL #4
        0x00019ad6:    d20e        ..      BCS      0x19af6 ; am_hal_uart_configure + 162
        0x00019ad8:    2100        .!      MOVS     r1,#0
        0x00019ada:    6281        .b      STR      r1,[r0,#0x28]
        0x00019adc:    2002        .       MOVS     r0,#2
        0x00019ade:    f6c00000    ....    MOVT     r0,#0x800
        0x00019ae2:    1c41        A.      ADDS     r1,r0,#1
        0x00019ae4:    e06b        k.      B        0x19bbe ; am_hal_uart_configure + 362
        0x00019ae6:    2102        .!      MOVS     r1,#2
        0x00019ae8:    e069        i.      B        0x19bbe ; am_hal_uart_configure + 362
        0x00019aea:    2102        .!      MOVS     r1,#2
        0x00019aec:    f6c00100    ....    MOVT     r1,#0x800
        0x00019af0:    f8c0e028    ..(.    STR      lr,[r0,#0x28]
        0x00019af4:    e063        c.      B        0x19bbe ; am_hal_uart_configure + 362
        0x00019af6:    0112        ..      LSLS     r2,r2,#4
        0x00019af8:    019e        ..      LSLS     r6,r3,#6
        0x00019afa:    f24c0700    L...    MOVW     r7,#0xc000
        0x00019afe:    fbb6f6f2    ....    UDIV     r6,r6,r2
        0x00019b02:    fbb3f5f2    ....    UDIV     r5,r3,r2
        0x00019b06:    f2c40701    ....    MOVT     r7,#0x4001
        0x00019b0a:    eb07320c    ...2    ADD      r2,r7,r12,LSL #12
        0x00019b0e:    eba61785    ....    SUB      r7,r6,r5,LSL #6
        0x00019b12:    08be        ..      LSRS     r6,r7,#2
        0x00019b14:    eb061605    ....    ADD      r6,r6,r5,LSL #4
        0x00019b18:    fbb3f3f6    ....    UDIV     r3,r3,r6
        0x00019b1c:    6255        Ub      STR      r5,[r2,#0x24]
        0x00019b1e:    6297        .b      STR      r7,[r2,#0x28]
        0x00019b20:    6283        .b      STR      r3,[r0,#0x28]
        0x00019b22:    6b10        .k      LDR      r0,[r2,#0x30]
        0x00019b24:    f4204080     ..@    BIC      r0,r0,#0x4000
        0x00019b28:    6310        .c      STR      r0,[r2,#0x30]
        0x00019b2a:    6b10        .k      LDR      r0,[r2,#0x30]
        0x00019b2c:    f4204000     ..@    BIC      r0,r0,#0x8000
        0x00019b30:    6310        .c      STR      r0,[r2,#0x30]
        0x00019b32:    8908        ..      LDRH     r0,[r1,#8]
        0x00019b34:    6b13        .k      LDR      r3,[r2,#0x30]
        0x00019b36:    4318        .C      ORRS     r0,r0,r3
        0x00019b38:    6310        .c      STR      r0,[r2,#0x30]
        0x00019b3a:    7948        Hy      LDRB     r0,[r1,#5]
        0x00019b3c:    2801        .(      CMP      r0,#1
        0x00019b3e:    d002        ..      BEQ      0x19b46 ; am_hal_uart_configure + 242
        0x00019b40:    b920         .      CBNZ     r0,0x19b4c ; am_hal_uart_configure + 248
        0x00019b42:    2000        .       MOVS     r0,#0
        0x00019b44:    e000        ..      B        0x19b48 ; am_hal_uart_configure + 244
        0x00019b46:    2004        .       MOVS     r0,#4
        0x00019b48:    2302        .#      MOVS     r3,#2
        0x00019b4a:    e001        ..      B        0x19b50 ; am_hal_uart_configure + 252
        0x00019b4c:    2300        .#      MOVS     r3,#0
        0x00019b4e:    2000        .       MOVS     r0,#0
        0x00019b50:    6ad7        .j      LDR      r7,[r2,#0x2c]
        0x00019b52:    f0270701    '...    BIC      r7,r7,#1
        0x00019b56:    62d7        .b      STR      r7,[r2,#0x2c]
        0x00019b58:    6ad7        .j      LDR      r7,[r2,#0x2c]
        0x00019b5a:    f0270702    '...    BIC      r7,r7,#2
        0x00019b5e:    433b        ;C      ORRS     r3,r3,r7
        0x00019b60:    62d3        .b      STR      r3,[r2,#0x2c]
        0x00019b62:    6ad3        .j      LDR      r3,[r2,#0x2c]
        0x00019b64:    f0230304    #...    BIC      r3,r3,#4
        0x00019b68:    4318        .C      ORRS     r0,r0,r3
        0x00019b6a:    62d0        .b      STR      r0,[r2,#0x2c]
        0x00019b6c:    7988        .y      LDRB     r0,[r1,#6]
        0x00019b6e:    6ad3        .j      LDR      r3,[r2,#0x2c]
        0x00019b70:    f36003c3    `...    BFI      r3,r0,#3,#1
        0x00019b74:    62d3        .b      STR      r3,[r2,#0x2c]
        0x00019b76:    6ad0        .j      LDR      r0,[r2,#0x2c]
        0x00019b78:    f0400010    @...    ORR      r0,r0,#0x10
        0x00019b7c:    62d0        .b      STR      r0,[r2,#0x2c]
        0x00019b7e:    7908        .y      LDRB     r0,[r1,#4]
        0x00019b80:    6ad3        .j      LDR      r3,[r2,#0x2c]
        0x00019b82:    f3601346    `.F.    BFI      r3,r0,#5,#2
        0x00019b86:    62d3        .b      STR      r3,[r2,#0x2c]
        0x00019b88:    6ad0        .j      LDR      r0,[r2,#0x2c]
        0x00019b8a:    f0200080     ...    BIC      r0,r0,#0x80
        0x00019b8e:    62d0        .b      STR      r0,[r2,#0x2c]
        0x00019b90:    7a88        .z      LDRB     r0,[r1,#0xa]
        0x00019b92:    6b53        Sk      LDR      r3,[r2,#0x34]
        0x00019b94:    f3600302    `...    BFI      r3,r0,#0,#3
        0x00019b98:    6353        Sc      STR      r3,[r2,#0x34]
        0x00019b9a:    7ac8        .z      LDRB     r0,[r1,#0xb]
        0x00019b9c:    6b51        Qk      LDR      r1,[r2,#0x34]
        0x00019b9e:    f36001c5    `...    BFI      r1,r0,#3,#3
        0x00019ba2:    6351        Qc      STR      r1,[r2,#0x34]
        0x00019ba4:    6b10        .k      LDR      r0,[r2,#0x30]
        0x00019ba6:    2100        .!      MOVS     r1,#0
        0x00019ba8:    f0400001    @...    ORR      r0,r0,#1
        0x00019bac:    6310        .c      STR      r0,[r2,#0x30]
        0x00019bae:    6b10        .k      LDR      r0,[r2,#0x30]
        0x00019bb0:    f4407000    @..p    ORR      r0,r0,#0x200
        0x00019bb4:    6310        .c      STR      r0,[r2,#0x30]
        0x00019bb6:    6b10        .k      LDR      r0,[r2,#0x30]
        0x00019bb8:    f4407080    @..p    ORR      r0,r0,#0x100
        0x00019bbc:    6310        .c      STR      r0,[r2,#0x30]
        0x00019bbe:    4608        .F      MOV      r0,r1
        0x00019bc0:    bdf0        ..      POP      {r4-r7,pc}
        0x00019bc2:    bf00        ..      NOP      
    $d.8
        0x00019bc4:    016e3600    .6n.    DCD    24000000
        0x00019bc8:    00b71b00    ....    DCD    12000000
        0x00019bcc:    005b8d80    ..[.    DCD    6000000
        0x00019bd0:    002dc6c0    ..-.    DCD    3000000
        0x00019bd4:    02dc6c00    .l..    DCD    48000000
    $t.1
    am_hal_uart_deinitialize
        0x00019bd8:    b180        ..      CBZ      r0,0x19bfc ; am_hal_uart_deinitialize + 36
        0x00019bda:    4601        .F      MOV      r1,r0
        0x00019bdc:    6800        .h      LDR      r0,[r0,#0]
        0x00019bde:    f6496306    I..c    MOV      r3,#0x9e06
        0x00019be2:    f020427e     .~B    BIC      r2,r0,#0xfe000000
        0x00019be6:    f2c013ea    ....    MOVT     r3,#0x1ea
        0x00019bea:    429a        .B      CMP      r2,r3
        0x00019bec:    d106        ..      BNE      0x19bfc ; am_hal_uart_deinitialize + 36
        0x00019bee:    f000407e    ..~@    AND      r0,r0,#0xfe000000
        0x00019bf2:    6008        .`      STR      r0,[r1,#0]
        0x00019bf4:    2000        .       MOVS     r0,#0
        0x00019bf6:    6248        Hb      STR      r0,[r1,#0x24]
        0x00019bf8:    7108        .q      STRB     r0,[r1,#4]
        0x00019bfa:    4770        pG      BX       lr
        0x00019bfc:    2002        .       MOVS     r0,#2
        0x00019bfe:    4770        pG      BX       lr
    am_hal_uart_initialize
        0x00019c00:    b5b0        ..      PUSH     {r4,r5,r7,lr}
        0x00019c02:    2803        .(      CMP      r0,#3
        0x00019c04:    bf84        ..      ITT      HI
        0x00019c06:    2005        .       MOVHI    r0,#5
        0x00019c08:    bdb0        ..      POPHI    {r4,r5,r7,pc}
        0x00019c0a:    b379        y.      CBZ      r1,0x19c6c ; am_hal_uart_initialize + 108
        0x00019c0c:    680b        .h      LDR      r3,[r1,#0]
        0x00019c0e:    f6496c06    I..l    MOV      r12,#0x9e06
        0x00019c12:    4602        .F      MOV      r2,r0
        0x00019c14:    f2c01cea    ....    MOVT     r12,#0x1ea
        0x00019c18:    b133        3.      CBZ      r3,0x19c28 ; am_hal_uart_initialize + 40
        0x00019c1a:    681b        .h      LDR      r3,[r3,#0]
        0x00019c1c:    f023437e    #.~C    BIC      r3,r3,#0xfe000000
        0x00019c20:    4563        cE      CMP      r3,r12
        0x00019c22:    bf04        ..      ITT      EQ
        0x00019c24:    2007        .       MOVEQ    r0,#7
        0x00019c26:    bdb0        ..      POPEQ    {r4,r5,r7,pc}
        0x00019c28:    f24055a4    @..U    MOV      r5,#0x5a4
        0x00019c2c:    f04f0eb8    O...    MOV      lr,#0xb8
        0x00019c30:    f2c10500    ....    MOVT     r5,#0x1000
        0x00019c34:    fb02f00e    ....    MUL      r0,r2,lr
        0x00019c38:    582c        ,X      LDR      r4,[r5,r0]
        0x00019c3a:    fb02530e    ...S    MLA      r3,r2,lr,r5
        0x00019c3e:    f004447e    ..~D    AND      r4,r4,#0xfe000000
        0x00019c42:    4464        dD      ADD      r4,r4,r12
        0x00019c44:    502c        ,P      STR      r4,[r5,r0]
        0x00019c46:    2000        .       MOVS     r0,#0
        0x00019c48:    e9c32009    ...     STRD     r2,r0,[r3,#0x24]
        0x00019c4c:    2201        ."      MOVS     r2,#1
        0x00019c4e:    7118        .q      STRB     r0,[r3,#4]
        0x00019c50:    f883002c    ..,.    STRB     r0,[r3,#0x2c]
        0x00019c54:    f8830054    ..T.    STRB     r0,[r3,#0x54]
        0x00019c58:    f883007c    ..|.    STRB     r0,[r3,#0x7c]
        0x00019c5c:    f8830098    ....    STRB     r0,[r3,#0x98]
        0x00019c60:    6798        .g      STR      r0,[r3,#0x78]
        0x00019c62:    6518        .e      STR      r0,[r3,#0x50]
        0x00019c64:    f88320b4    ...     STRB     r2,[r3,#0xb4]
        0x00019c68:    600b        .`      STR      r3,[r1,#0]
        0x00019c6a:    bdb0        ..      POP      {r4,r5,r7,pc}
        0x00019c6c:    2006        .       MOVS     r0,#6
        0x00019c6e:    bdb0        ..      POP      {r4,r5,r7,pc}
    am_hal_uart_power_control
        0x00019c70:    b5b0        ..      PUSH     {r4,r5,r7,lr}
        0x00019c72:    4604        .F      MOV      r4,r0
        0x00019c74:    6800        .h      LDR      r0,[r0,#0]
        0x00019c76:    f6496306    I..c    MOV      r3,#0x9e06
        0x00019c7a:    f020407e     .~@    BIC      r0,r0,#0xfe000000
        0x00019c7e:    f2c013ea    ....    MOVT     r3,#0x1ea
        0x00019c82:    4298        .B      CMP      r0,r3
        0x00019c84:    d127        '.      BNE      0x19cd6 ; am_hal_uart_power_control + 102
        0x00019c86:    6a65        ej      LDR      r5,[r4,#0x24]
        0x00019c88:    1e48        H.      SUBS     r0,r1,#1
        0x00019c8a:    2802        .(      CMP      r0,#2
        0x00019c8c:    f1050009    ....    ADD      r0,r5,#9
        0x00019c90:    d224        $.      BCS      0x19cdc ; am_hal_uart_power_control + 108
        0x00019c92:    f24c0100    L...    MOVW     r1,#0xc000
        0x00019c96:    f2c40101    ....    MOVT     r1,#0x4001
        0x00019c9a:    b18a        ..      CBZ      r2,0x19cc0 ; am_hal_uart_power_control + 80
        0x00019c9c:    eb013205    ...2    ADD      r2,r1,r5,LSL #12
        0x00019ca0:    6a13        .j      LDR      r3,[r2,#0x20]
        0x00019ca2:    60a3        .`      STR      r3,[r4,#8]
        0x00019ca4:    6a53        Sj      LDR      r3,[r2,#0x24]
        0x00019ca6:    60e3        .`      STR      r3,[r4,#0xc]
        0x00019ca8:    6a93        .j      LDR      r3,[r2,#0x28]
        0x00019caa:    6123        #a      STR      r3,[r4,#0x10]
        0x00019cac:    6ad3        .j      LDR      r3,[r2,#0x2c]
        0x00019cae:    6163        ca      STR      r3,[r4,#0x14]
        0x00019cb0:    6b13        .k      LDR      r3,[r2,#0x30]
        0x00019cb2:    61a3        .a      STR      r3,[r4,#0x18]
        0x00019cb4:    6b53        Sk      LDR      r3,[r2,#0x34]
        0x00019cb6:    61e3        .a      STR      r3,[r4,#0x1c]
        0x00019cb8:    6b92        .k      LDR      r2,[r2,#0x38]
        0x00019cba:    6222        "b      STR      r2,[r4,#0x20]
        0x00019cbc:    2201        ."      MOVS     r2,#1
        0x00019cbe:    7122        "q      STRB     r2,[r4,#4]
        0x00019cc0:    eb013105    ...1    ADD      r1,r1,r5,LSL #12
        0x00019cc4:    f04f32ff    O..2    MOV      r2,#0xffffffff
        0x00019cc8:    2500        .%      MOVS     r5,#0
        0x00019cca:    b2c0        ..      UXTB     r0,r0
        0x00019ccc:    644a        Jd      STR      r2,[r1,#0x44]
        0x00019cce:    630d        .c      STR      r5,[r1,#0x30]
        0x00019cd0:    f7fffb55    ..U.    BL       am_hal_pwrctrl_periph_disable ; 0x1937e
        0x00019cd4:    e000        ..      B        0x19cd8 ; am_hal_uart_power_control + 104
        0x00019cd6:    2502        .%      MOVS     r5,#2
        0x00019cd8:    4628        (F      MOV      r0,r5
        0x00019cda:    bdb0        ..      POP      {r4,r5,r7,pc}
        0x00019cdc:    b9e1        ..      CBNZ     r1,0x19d18 ; am_hal_uart_power_control + 168
        0x00019cde:    b1ea        ..      CBZ      r2,0x19d1c ; am_hal_uart_power_control + 172
        0x00019ce0:    7921        !y      LDRB     r1,[r4,#4]
        0x00019ce2:    b301        ..      CBZ      r1,0x19d26 ; am_hal_uart_power_control + 182
        0x00019ce4:    b2c0        ..      UXTB     r0,r0
        0x00019ce6:    f7fffbd5    ....    BL       am_hal_pwrctrl_periph_enable ; 0x19494
        0x00019cea:    f24c0100    L...    MOVW     r1,#0xc000
        0x00019cee:    68a0        .h      LDR      r0,[r4,#8]
        0x00019cf0:    f2c40101    ....    MOVT     r1,#0x4001
        0x00019cf4:    eb013105    ...1    ADD      r1,r1,r5,LSL #12
        0x00019cf8:    6208        .b      STR      r0,[r1,#0x20]
        0x00019cfa:    68e0        .h      LDR      r0,[r4,#0xc]
        0x00019cfc:    2500        .%      MOVS     r5,#0
        0x00019cfe:    6248        Hb      STR      r0,[r1,#0x24]
        0x00019d00:    6920         i      LDR      r0,[r4,#0x10]
        0x00019d02:    6288        .b      STR      r0,[r1,#0x28]
        0x00019d04:    6960        `i      LDR      r0,[r4,#0x14]
        0x00019d06:    62c8        .b      STR      r0,[r1,#0x2c]
        0x00019d08:    69a0        .i      LDR      r0,[r4,#0x18]
        0x00019d0a:    6308        .c      STR      r0,[r1,#0x30]
        0x00019d0c:    69e0        .i      LDR      r0,[r4,#0x1c]
        0x00019d0e:    6348        Hc      STR      r0,[r1,#0x34]
        0x00019d10:    6a20         j      LDR      r0,[r4,#0x20]
        0x00019d12:    6388        .c      STR      r0,[r1,#0x38]
        0x00019d14:    7125        %q      STRB     r5,[r4,#4]
        0x00019d16:    e7df        ..      B        0x19cd8 ; am_hal_uart_power_control + 104
        0x00019d18:    2506        .%      MOVS     r5,#6
        0x00019d1a:    e7dd        ..      B        0x19cd8 ; am_hal_uart_power_control + 104
        0x00019d1c:    b2c0        ..      UXTB     r0,r0
        0x00019d1e:    f7fffbb9    ....    BL       am_hal_pwrctrl_periph_enable ; 0x19494
        0x00019d22:    2500        .%      MOVS     r5,#0
        0x00019d24:    e7d8        ..      B        0x19cd8 ; am_hal_uart_power_control + 104
        0x00019d26:    2507        .%      MOVS     r5,#7
        0x00019d28:    e7d6        ..      B        0x19cd8 ; am_hal_uart_power_control + 104
        0x00019d2a:    0000        ..      MOVS     r0,r0
    am_hal_uart_transfer
        0x00019d2c:    b570        p.      PUSH     {r4-r6,lr}
        0x00019d2e:    460c        .F      MOV      r4,r1
        0x00019d30:    7809        .x      LDRB     r1,[r1,#0]
        0x00019d32:    2903        .)      CMP      r1,#3
        0x00019d34:    d80a        ..      BHI      0x19d4c ; am_hal_uart_transfer + 32
        0x00019d36:    4605        .F      MOV      r5,r0
        0x00019d38:    e8dff001    ....    TBB      [pc,r1]
    $d.12
        0x00019d3c:    2c260a02    ..&,    DCD    740690434
    $t.13
        0x00019d40:    4628        (F      MOV      r0,r5
        0x00019d42:    4621        !F      MOV      r1,r4
        0x00019d44:    f002f8bd    ....    BL       nonblocking_write ; 0x1bec2
        0x00019d48:    b350        P.      CBZ      r0,0x19da0 ; am_hal_uart_transfer + 116
        0x00019d4a:    bd70        p.      POP      {r4-r6,pc}
        0x00019d4c:    2001        .       MOVS     r0,#1
        0x00019d4e:    bd70        p.      POP      {r4-r6,pc}
        0x00019d50:    4628        (F      MOV      r0,r5
        0x00019d52:    4621        !F      MOV      r1,r4
        0x00019d54:    f002f81f    ....    BL       nonblocking_read ; 0x1bd96
        0x00019d58:    2800        .(      CMP      r0,#0
        0x00019d5a:    d1f6        ..      BNE      0x19d4a ; am_hal_uart_transfer + 30
        0x00019d5c:    f895002c    ..,.    LDRB     r0,[r5,#0x2c]
        0x00019d60:    b398        ..      CBZ      r0,0x19dca ; am_hal_uart_transfer + 158
        0x00019d62:    2600        .&      MOVS     r6,#0
        0x00019d64:    4628        (F      MOV      r0,r5
        0x00019d66:    f002f833    ..3.    BL       nonblocking_read_sm ; 0x1bdd0
        0x00019d6a:    f44f707a    O.zp    MOV      r0,#0x3e8
        0x00019d6e:    f7fefdf1    ....    BL       am_hal_delay_us ; 0x18954
        0x00019d72:    6920         i      LDR      r0,[r4,#0x10]
        0x00019d74:    1c41        A.      ADDS     r1,r0,#1
        0x00019d76:    d002        ..      BEQ      0x19d7e ; am_hal_uart_transfer + 82
        0x00019d78:    3601        .6      ADDS     r6,#1
        0x00019d7a:    4286        .B      CMP      r6,r0
        0x00019d7c:    d027        '.      BEQ      0x19dce ; am_hal_uart_transfer + 162
        0x00019d7e:    f895002c    ..,.    LDRB     r0,[r5,#0x2c]
        0x00019d82:    2800        .(      CMP      r0,#0
        0x00019d84:    d1ee        ..      BNE      0x19d64 ; am_hal_uart_transfer + 56
        0x00019d86:    e020         .      B        0x19dca ; am_hal_uart_transfer + 158
        0x00019d88:    4628        (F      MOV      r0,r5
        0x00019d8a:    4621        !F      MOV      r1,r4
        0x00019d8c:    e8bd4070    ..p@    POP      {r4-r6,lr}
        0x00019d90:    f002b897    ....    B.W      nonblocking_write ; 0x1bec2
        0x00019d94:    4628        (F      MOV      r0,r5
        0x00019d96:    4621        !F      MOV      r1,r4
        0x00019d98:    e8bd4070    ..p@    POP      {r4-r6,lr}
        0x00019d9c:    f001bffb    ....    B.W      nonblocking_read ; 0x1bd96
        0x00019da0:    f8950054    ..T.    LDRB     r0,[r5,#0x54]
        0x00019da4:    b188        ..      CBZ      r0,0x19dca ; am_hal_uart_transfer + 158
        0x00019da6:    2600        .&      MOVS     r6,#0
        0x00019da8:    4628        (F      MOV      r0,r5
        0x00019daa:    f002f8a7    ....    BL       nonblocking_write_sm ; 0x1befc
        0x00019dae:    f44f707a    O.zp    MOV      r0,#0x3e8
        0x00019db2:    f7fefdcf    ....    BL       am_hal_delay_us ; 0x18954
        0x00019db6:    6920         i      LDR      r0,[r4,#0x10]
        0x00019db8:    1c41        A.      ADDS     r1,r0,#1
        0x00019dba:    d002        ..      BEQ      0x19dc2 ; am_hal_uart_transfer + 150
        0x00019dbc:    3601        .6      ADDS     r6,#1
        0x00019dbe:    4286        .B      CMP      r6,r0
        0x00019dc0:    d009        ..      BEQ      0x19dd6 ; am_hal_uart_transfer + 170
        0x00019dc2:    f8950054    ..T.    LDRB     r0,[r5,#0x54]
        0x00019dc6:    2800        .(      CMP      r0,#0
        0x00019dc8:    d1ee        ..      BNE      0x19da8 ; am_hal_uart_transfer + 124
        0x00019dca:    2000        .       MOVS     r0,#0
        0x00019dcc:    bd70        p.      POP      {r4-r6,pc}
        0x00019dce:    2000        .       MOVS     r0,#0
        0x00019dd0:    f885002c    ..,.    STRB     r0,[r5,#0x2c]
        0x00019dd4:    e002        ..      B        0x19ddc ; am_hal_uart_transfer + 176
        0x00019dd6:    2000        .       MOVS     r0,#0
        0x00019dd8:    f8850054    ..T.    STRB     r0,[r5,#0x54]
        0x00019ddc:    2004        .       MOVS     r0,#4
        0x00019dde:    bd70        p.      POP      {r4-r6,pc}
    am_hal_uart_tx_flush
        0x00019de0:    b5f0        ..      PUSH     {r4-r7,lr}
        0x00019de2:    b081        ..      SUB      sp,sp,#4
        0x00019de4:    4604        .F      MOV      r4,r0
        0x00019de6:    6a40        @j      LDR      r0,[r0,#0x24]
        0x00019de8:    f89410b4    ....    LDRB     r1,[r4,#0xb4]
        0x00019dec:    b111        ..      CBZ      r1,0x19df4 ; am_hal_uart_tx_flush + 20
        0x00019dee:    2000        .       MOVS     r0,#0
        0x00019df0:    b001        ..      ADD      sp,sp,#4
        0x00019df2:    bdf0        ..      POP      {r4-r7,pc}
        0x00019df4:    f24c0238    L.8.    MOV      r2,#0xc038
        0x00019df8:    0301        ..      LSLS     r1,r0,#12
        0x00019dfa:    f2c40201    ....    MOVT     r2,#0x4001
        0x00019dfe:    5851        QX      LDR      r1,[r2,r1]
        0x00019e00:    07c9        ..      LSLS     r1,r1,#31
        0x00019e02:    d134        4.      BNE      0x19e6e ; am_hal_uart_tx_flush + 142
        0x00019e04:    f894107c    ..|.    LDRB     r1,[r4,#0x7c]
        0x00019e08:    f24c0200    L...    MOVW     r2,#0xc000
        0x00019e0c:    f2c40201    ....    MOVT     r2,#0x4001
        0x00019e10:    eb023500    ...5    ADD      r5,r2,r0,LSL #12
        0x00019e14:    b1a9        ..      CBZ      r1,0x19e42 ; am_hal_uart_tx_flush + 98
        0x00019e16:    f8d40088    ....    LDR      r0,[r4,#0x88]
        0x00019e1a:    b190        ..      CBZ      r0,0x19e42 ; am_hal_uart_tx_flush + 98
        0x00019e1c:    f2442640    D.@&    MOV      r6,#0x4240
        0x00019e20:    f2c0060f    ....    MOVT     r6,#0xf
        0x00019e24:    270a        .'      MOVS     r7,#0xa
        0x00019e26:    bf00        ..      NOP      
        0x00019e28:    6aa0        .j      LDR      r0,[r4,#0x28]
        0x00019e2a:    fbb6f0f0    ....    UDIV     r0,r6,r0
        0x00019e2e:    eb000080    ....    ADD      r0,r0,r0,LSL #2
        0x00019e32:    eb070040    ..@.    ADD      r0,r7,r0,LSL #1
        0x00019e36:    f7fefd8d    ....    BL       am_hal_delay_us ; 0x18954
        0x00019e3a:    f8d40088    ....    LDR      r0,[r4,#0x88]
        0x00019e3e:    2800        .(      CMP      r0,#0
        0x00019e40:    d1f2        ..      BNE      0x19e28 ; am_hal_uart_tx_flush + 72
        0x00019e42:    69a8        .i      LDR      r0,[r5,#0x18]
        0x00019e44:    0700        ..      LSLS     r0,r0,#28
        0x00019e46:    d5d2        ..      BPL      0x19dee ; am_hal_uart_tx_flush + 14
        0x00019e48:    f2442640    D.@&    MOV      r6,#0x4240
        0x00019e4c:    f2c0060f    ....    MOVT     r6,#0xf
        0x00019e50:    270a        .'      MOVS     r7,#0xa
        0x00019e52:    bf00        ..      NOP      
        0x00019e54:    6aa0        .j      LDR      r0,[r4,#0x28]
        0x00019e56:    fbb6f0f0    ....    UDIV     r0,r6,r0
        0x00019e5a:    eb000080    ....    ADD      r0,r0,r0,LSL #2
        0x00019e5e:    eb070040    ..@.    ADD      r0,r7,r0,LSL #1
        0x00019e62:    f7fefd77    ..w.    BL       am_hal_delay_us ; 0x18954
        0x00019e66:    69a8        .i      LDR      r0,[r5,#0x18]
        0x00019e68:    0700        ..      LSLS     r0,r0,#28
        0x00019e6a:    d4f3        ..      BMI      0x19e54 ; am_hal_uart_tx_flush + 116
        0x00019e6c:    e7bf        ..      B        0x19dee ; am_hal_uart_tx_flush + 14
        0x00019e6e:    f89400b4    ....    LDRB     r0,[r4,#0xb4]
        0x00019e72:    2800        .(      CMP      r0,#0
        0x00019e74:    d1bb        ..      BNE      0x19dee ; am_hal_uart_tx_flush + 14
        0x00019e76:    f2442540    D.@%    MOV      r5,#0x4240
        0x00019e7a:    f2c0050f    ....    MOVT     r5,#0xf
        0x00019e7e:    260a        .&      MOVS     r6,#0xa
        0x00019e80:    6aa0        .j      LDR      r0,[r4,#0x28]
        0x00019e82:    fbb5f0f0    ....    UDIV     r0,r5,r0
        0x00019e86:    eb000080    ....    ADD      r0,r0,r0,LSL #2
        0x00019e8a:    eb060040    ..@.    ADD      r0,r6,r0,LSL #1
        0x00019e8e:    f7fefd61    ..a.    BL       am_hal_delay_us ; 0x18954
        0x00019e92:    f89400b4    ....    LDRB     r0,[r4,#0xb4]
        0x00019e96:    2800        .(      CMP      r0,#0
        0x00019e98:    d0f2        ..      BEQ      0x19e80 ; am_hal_uart_tx_flush + 160
        0x00019e9a:    e7a8        ..      B        0x19dee ; am_hal_uart_tx_flush + 14
    am_hal_util_write_and_wait
        0x00019e9c:    e92d4ff0    -..O    PUSH     {r4-r11,lr}
        0x00019ea0:    b087        ..      SUB      sp,sp,#0x1c
        0x00019ea2:    461f        .F      MOV      r7,r3
        0x00019ea4:    4614        .F      MOV      r4,r2
        0x00019ea6:    460e        .F      MOV      r6,r1
        0x00019ea8:    4680        .F      MOV      r8,r0
        0x00019eaa:    f7fefe6d    ..m.    BL       am_hal_interrupt_master_disable ; 0x18b88
        0x00019eae:    ad02        ..      ADD      r5,sp,#8
        0x00019eb0:    9001        ..      STR      r0,[sp,#4]
        0x00019eb2:    4628        (F      MOV      r0,r5
        0x00019eb4:    f7fffca7    ....    BL       am_hal_timer_default_config_set ; 0x19806
        0x00019eb8:    f6485080    H..P    MOV      r0,#0x8d80
        0x00019ebc:    f2c0005b    ..[.    MOVT     r0,#0x5b
        0x00019ec0:    f64d6183    M..a    MOV      r1,#0xde83
        0x00019ec4:    4378        xC      MULS     r0,r7,r0
        0x00019ec6:    f2c4311b    ...1    MOVT     r1,#0x431b
        0x00019eca:    fba00101    ....    UMULL    r0,r1,r0,r1
        0x00019ece:    2001        .       MOVS     r0,#1
        0x00019ed0:    f88d0009    ....    STRB     r0,[sp,#9]
        0x00019ed4:    f04f30ff    O..0    MOV      r0,#0xffffffff
        0x00019ed8:    9005        ..      STR      r0,[sp,#0x14]
        0x00019eda:    2000        .       MOVS     r0,#0
        0x00019edc:    9004        ..      STR      r0,[sp,#0x10]
        0x00019ede:    0c88        ..      LSRS     r0,r1,#18
        0x00019ee0:    9006        ..      STR      r0,[sp,#0x18]
        0x00019ee2:    200d        .       MOVS     r0,#0xd
        0x00019ee4:    4629        )F      MOV      r1,r5
        0x00019ee6:    f001fa21    ..!.    BL       internal_timer_config ; 0x1b32c
        0x00019eea:    4607        .F      MOV      r7,r0
        0x00019eec:    2800        .(      CMP      r0,#0
        0x00019eee:    d171        q.      BNE      0x19fd4 ; am_hal_util_write_and_wait + 312
        0x00019ef0:    200d        .       MOVS     r0,#0xd
        0x00019ef2:    f7fffc32    ..2.    BL       am_hal_timer_clear ; 0x1975a
        0x00019ef6:    200d        .       MOVS     r0,#0xd
        0x00019ef8:    f7fffc95    ....    BL       am_hal_timer_disable ; 0x19826
        0x00019efc:    f04f6000    O..`    MOV      r0,#0x8000000
        0x00019f00:    f7fffd0c    ....    BL       am_hal_timer_interrupt_clear ; 0x1991c
        0x00019f04:    4607        .F      MOV      r7,r0
        0x00019f06:    2800        .(      CMP      r0,#0
        0x00019f08:    d164        d.      BNE      0x19fd4 ; am_hal_util_write_and_wait + 312
        0x00019f0a:    f04f6000    O..`    MOV      r0,#0x8000000
        0x00019f0e:    f7fffd0d    ....    BL       am_hal_timer_interrupt_enable ; 0x1992c
        0x00019f12:    4607        .F      MOV      r7,r0
        0x00019f14:    2800        .(      CMP      r0,#0
        0x00019f16:    d15d        ].      BNE      0x19fd4 ; am_hal_util_write_and_wait + 312
        0x00019f18:    f24e2a00    N..*    MOVW     r10,#0xe200
        0x00019f1c:    f2ce0a00    ....    MOVT     r10,#0xe000
        0x00019f20:    2000        .       MOVS     r0,#0
        0x00019f22:    f88a0250    ..P.    STRB     r0,[r10,#0x250]
        0x00019f26:    f44f3080    O..0    MOV      r0,#0x10000
        0x00019f2a:    f64e570c    N..W    MOV      r7,#0xed0c
        0x00019f2e:    f84a0cf8    J...    STR      r0,[r10,#-0xf8]
        0x00019f32:    f2ce0700    ....    MOVT     r7,#0xe000
        0x00019f36:    6838        8h      LDR      r0,[r7,#0]
        0x00019f38:    f3c02502    ...%    UBFX     r5,r0,#8,#3
        0x00019f3c:    2d07        .-      CMP      r5,#7
        0x00019f3e:    d101        ..      BNE      0x19f44 ; am_hal_util_write_and_wait + 168
        0x00019f40:    2701        .'      MOVS     r7,#1
        0x00019f42:    e047        G.      B        0x19fd4 ; am_hal_util_write_and_wait + 312
        0x00019f44:    2002        .       MOVS     r0,#2
        0x00019f46:    2100        .!      MOVS     r1,#0
        0x00019f48:    f04f0b02    O...    MOV      r11,#2
        0x00019f4c:    f7fefc5c    ..\.    BL       am_hal_daxi_control ; 0x18808
        0x00019f50:    2d05        .-      CMP      r5,#5
        0x00019f52:    f3ef8911    ....    MRS      r9,BASEPRI
        0x00019f56:    bf34        4.      ITE      CC
        0x00019f58:    2020                MOVCC    r0,#0x20
        0x00019f5a:    fa0bf005    ....    LSLCS    r0,r11,r5
        0x00019f5e:    f3808811    ....    MSR      BASEPRI,r0
        0x00019f62:    1c70        p.      ADDS     r0,r6,#1
        0x00019f64:    d003        ..      BEQ      0x19f6e ; am_hal_util_write_and_wait + 210
        0x00019f66:    f8d80000    ....    LDR      r0,[r8,#0]
        0x00019f6a:    43b0        .C      BICS     r0,r0,r6
        0x00019f6c:    4304        .C      ORRS     r4,r4,r0
        0x00019f6e:    200d        .       MOVS     r0,#0xd
        0x00019f70:    f7fffbf3    ....    BL       am_hal_timer_clear ; 0x1975a
        0x00019f74:    6878        xh      LDR      r0,[r7,#4]
        0x00019f76:    4641        AF      MOV      r1,r8
        0x00019f78:    f0200004     ...    BIC      r0,r0,#4
        0x00019f7c:    6078        x`      STR      r0,[r7,#4]
        0x00019f7e:    f24010f0    @...    MOVW     r0,#0x1f0
        0x00019f82:    f2c10000    ....    MOVT     r0,#0x1000
        0x00019f86:    6802        .h      LDR      r2,[r0,#0]
        0x00019f88:    4620         F      MOV      r0,r4
        0x00019f8a:    4790        .G      BLX      r2
        0x00019f8c:    200d        .       MOVS     r0,#0xd
        0x00019f8e:    f7fffc4a    ..J.    BL       am_hal_timer_disable ; 0x19826
        0x00019f92:    f04f6040    O.@`    MOV      r0,#0xc000000
        0x00019f96:    f7fffcc1    ....    BL       am_hal_timer_interrupt_clear ; 0x1991c
        0x00019f9a:    a902        ..      ADD      r1,sp,#8
        0x00019f9c:    2001        .       MOVS     r0,#1
        0x00019f9e:    f7fffcef    ....    BL       am_hal_timer_interrupt_status_get ; 0x19980
        0x00019fa2:    f44f3080    O..0    MOV      r0,#0x10000
        0x00019fa6:    f8ca0088    ....    STR      r0,[r10,#0x88]
        0x00019faa:    9802        ..      LDR      r0,[sp,#8]
        0x00019fac:    f06f6440    o.@d    MVN      r4,#0xc000000
        0x00019fb0:    4220         B      TST      r0,r4
        0x00019fb2:    d10c        ..      BNE      0x19fce ; am_hal_util_write_and_wait + 306
        0x00019fb4:    f44f4580    O..E    MOV      r5,#0x4000
        0x00019fb8:    a902        ..      ADD      r1,sp,#8
        0x00019fba:    2001        .       MOVS     r0,#1
        0x00019fbc:    f8ca5080    ...P    STR      r5,[r10,#0x80]
        0x00019fc0:    f7fffcde    ....    BL       am_hal_timer_interrupt_status_get ; 0x19980
        0x00019fc4:    9802        ..      LDR      r0,[sp,#8]
        0x00019fc6:    4220         B      TST      r0,r4
        0x00019fc8:    bf18        ..      IT       NE
        0x00019fca:    f8ca5000    ...P    STRNE    r5,[r10,#0]
        0x00019fce:    f3898811    ....    MSR      BASEPRI,r9
        0x00019fd2:    2700        .'      MOVS     r7,#0
        0x00019fd4:    9801        ..      LDR      r0,[sp,#4]
        0x00019fd6:    f7fefddf    ....    BL       am_hal_interrupt_master_set ; 0x18b98
        0x00019fda:    4638        8F      MOV      r0,r7
        0x00019fdc:    b007        ..      ADD      sp,sp,#0x1c
        0x00019fde:    e8bd8ff0    ....    POP      {r4-r11,pc}
        0x00019fe2:    0000        ..      MOVS     r0,r0
    am_sprintf
        0x00019fe4:    b083        ..      SUB      sp,sp,#0xc
        0x00019fe6:    b570        p.      PUSH     {r4-r6,lr}
        0x00019fe8:    b081        ..      SUB      sp,sp,#4
        0x00019fea:    f10d0c14    ....    ADD      r12,sp,#0x14
        0x00019fee:    f2402498    @..$    MOVW     r4,#0x298
        0x00019ff2:    e88c000e    ....    STM      r12,{r1-r3}
        0x00019ff6:    f2c10400    ....    MOVT     r4,#0x1000
        0x00019ffa:    6821        !h      LDR      r1,[r4,#0]
        0x00019ffc:    0a09        ..      LSRS     r1,r1,#8
        0x00019ffe:    2902        .)      CMP      r1,#2
        0x0001a000:    d820         .      BHI      0x1a044 ; am_sprintf + 96
        0x0001a002:    f240259c    @..%    MOVW     r5,#0x29c
        0x0001a006:    f2c10500    ....    MOVT     r5,#0x1000
        0x0001a00a:    4601        .F      MOV      r1,r0
        0x0001a00c:    6828        (h      LDR      r0,[r5,#0]
        0x0001a00e:    aa05        ..      ADD      r2,sp,#0x14
        0x0001a010:    9200        ..      STR      r2,[sp,#0]
        0x0001a012:    f000f879    ..y.    BL       am_util_stdio_vsprintf ; 0x1a108
        0x0001a016:    6821        !h      LDR      r1,[r4,#0]
        0x0001a018:    4401        .D      ADD      r1,r1,r0
        0x0001a01a:    f5b17f40    ..@.    CMP      r1,#0x300
        0x0001a01e:    d313        ..      BCC      0x1a048 ; am_sprintf + 100
        0x0001a020:    f24026a0    @..&    MOVW     r6,#0x2a0
        0x0001a024:    f2c10600    ....    MOVT     r6,#0x1000
        0x0001a028:    f20620d7    ...     ADD      r0,r6,#0x2d7
        0x0001a02c:    a10e        ..      ADR      r1,{pc}+0x3c ; 0x1a068
        0x0001a02e:    f000f85d    ..].    BL       am_util_stdio_sprintf ; 0x1a0ec
        0x0001a032:    2000        .       MOVS     r0,#0
        0x0001a034:    f5067140    ..@q    ADD      r1,r6,#0x300
        0x0001a038:    f88602ff    ....    STRB     r0,[r6,#0x2ff]
        0x0001a03c:    6029        )`      STR      r1,[r5,#0]
        0x0001a03e:    f44f7140    O.@q    MOV      r1,#0x300
        0x0001a042:    e00a        ..      B        0x1a05a ; am_sprintf + 118
        0x0001a044:    2000        .       MOVS     r0,#0
        0x0001a046:    e009        ..      B        0x1a05c ; am_sprintf + 120
        0x0001a048:    6829        )h      LDR      r1,[r5,#0]
        0x0001a04a:    4401        .D      ADD      r1,r1,r0
        0x0001a04c:    3101        .1      ADDS     r1,#1
        0x0001a04e:    6029        )`      STR      r1,[r5,#0]
        0x0001a050:    6821        !h      LDR      r1,[r4,#0]
        0x0001a052:    4401        .D      ADD      r1,r1,r0
        0x0001a054:    6021        !`      STR      r1,[r4,#0]
        0x0001a056:    6821        !h      LDR      r1,[r4,#0]
        0x0001a058:    3101        .1      ADDS     r1,#1
        0x0001a05a:    6021        !`      STR      r1,[r4,#0]
        0x0001a05c:    b001        ..      ADD      sp,sp,#4
        0x0001a05e:    e8bd4070    ..p@    POP      {r4-r6,lr}
        0x0001a062:    b003        ..      ADD      sp,sp,#0xc
        0x0001a064:    4770        pG      BX       lr
        0x0001a066:    bf00        ..      NOP      
    $d.8
        0x0001a068:    46465542    BUFF    DCD    1179014466
        0x0001a06c:    4f205245    ER O    DCD    1327518277
        0x0001a070:    46524556    VERF    DCD    1179796822
        0x0001a074:    45574f4c    LOWE    DCD    1163349836
        0x0001a078:    49202144    D! I    DCD    1226842436
        0x0001a07c:    6572636e    ncre    DCD    1701995374
        0x0001a080:    20657361    ase     DCD    543519585
        0x0001a084:    42545250    PRTB    DCD    1112822352
        0x0001a088:    49534655    UFSI    DCD    1230194261
        0x0001a08c:    000a455a    ZE..    DCD    673114
    $t.1
    am_util_delay_ms
        0x0001a090:    f44f717a    O.zq    MOV      r1,#0x3e8
        0x0001a094:    4348        HC      MULS     r0,r1,r0
        0x0001a096:    f7febc5d    ..].    B        am_hal_delay_us ; 0x18954
    am_util_stdio_printf
        0x0001a09a:    b083        ..      SUB      sp,sp,#0xc
        0x0001a09c:    b5b0        ..      PUSH     {r4,r5,r7,lr}
        0x0001a09e:    b081        ..      SUB      sp,sp,#4
        0x0001a0a0:    f10d0c14    ....    ADD      r12,sp,#0x14
        0x0001a0a4:    f6400488    @...    MOV      r4,#0x888
        0x0001a0a8:    e88c000e    ....    STM      r12,{r1-r3}
        0x0001a0ac:    f2c10400    ....    MOVT     r4,#0x1000
        0x0001a0b0:    6821        !h      LDR      r1,[r4,#0]
        0x0001a0b2:    b171        q.      CBZ      r1,0x1a0d2 ; am_util_stdio_printf + 56
        0x0001a0b4:    f640058c    @...    MOV      r5,#0x88c
        0x0001a0b8:    f2c10500    ....    MOVT     r5,#0x1000
        0x0001a0bc:    4601        .F      MOV      r1,r0
        0x0001a0be:    aa05        ..      ADD      r2,sp,#0x14
        0x0001a0c0:    4628        (F      MOV      r0,r5
        0x0001a0c2:    9200        ..      STR      r2,[sp,#0]
        0x0001a0c4:    f000f820    .. .    BL       am_util_stdio_vsprintf ; 0x1a108
        0x0001a0c8:    6821        !h      LDR      r1,[r4,#0]
        0x0001a0ca:    4604        .F      MOV      r4,r0
        0x0001a0cc:    4628        (F      MOV      r0,r5
        0x0001a0ce:    4788        .G      BLX      r1
        0x0001a0d0:    e000        ..      B        0x1a0d4 ; am_util_stdio_printf + 58
        0x0001a0d2:    2400        .$      MOVS     r4,#0
        0x0001a0d4:    4620         F      MOV      r0,r4
        0x0001a0d6:    b001        ..      ADD      sp,sp,#4
        0x0001a0d8:    e8bd40b0    ...@    POP      {r4,r5,r7,lr}
        0x0001a0dc:    b003        ..      ADD      sp,sp,#0xc
        0x0001a0de:    4770        pG      BX       lr
    am_util_stdio_printf_init
        0x0001a0e0:    f6400188    @...    MOV      r1,#0x888
        0x0001a0e4:    f2c10100    ....    MOVT     r1,#0x1000
        0x0001a0e8:    6008        .`      STR      r0,[r1,#0]
        0x0001a0ea:    4770        pG      BX       lr
    am_util_stdio_sprintf
        0x0001a0ec:    b082        ..      SUB      sp,sp,#8
        0x0001a0ee:    b580        ..      PUSH     {r7,lr}
        0x0001a0f0:    b082        ..      SUB      sp,sp,#8
        0x0001a0f2:    e9cd2304    ...#    STRD     r2,r3,[sp,#0x10]
        0x0001a0f6:    aa04        ..      ADD      r2,sp,#0x10
        0x0001a0f8:    9201        ..      STR      r2,[sp,#4]
        0x0001a0fa:    f000f805    ....    BL       am_util_stdio_vsprintf ; 0x1a108
        0x0001a0fe:    b002        ..      ADD      sp,sp,#8
        0x0001a100:    e8bd4080    ...@    POP      {r7,lr}
        0x0001a104:    b002        ..      ADD      sp,sp,#8
        0x0001a106:    4770        pG      BX       lr
    am_util_stdio_vsprintf
        0x0001a108:    e92d4ff0    -..O    PUSH     {r4-r11,lr}
        0x0001a10c:    b08b        ..      SUB      sp,sp,#0x2c
        0x0001a10e:    4683        .F      MOV      r11,r0
        0x0001a110:    a806        ..      ADD      r0,sp,#0x18
        0x0001a112:    f6400884    @...    MOV      r8,#0x884
        0x0001a116:    4617        .F      MOV      r7,r2
        0x0001a118:    1e46        F.      SUBS     r6,r0,#1
        0x0001a11a:    f10d0914    ....    ADD      r9,sp,#0x14
        0x0001a11e:    f2c10800    ....    MOVT     r8,#0x1000
        0x0001a122:    240d        .$      MOVS     r4,#0xd
        0x0001a124:    2500        .%      MOVS     r5,#0
        0x0001a126:    1c48        H.      ADDS     r0,r1,#1
        0x0001a128:    f8101c01    ....    LDRB     r1,[r0,#-1]
        0x0001a12c:    2900        .)      CMP      r1,#0
        0x0001a12e:    f000836b    ..k.    BEQ.W    0x1a808 ; am_util_stdio_vsprintf + 1792
        0x0001a132:    2925        %)      CMP      r1,#0x25
        0x0001a134:    d016        ..      BEQ      0x1a164 ; am_util_stdio_vsprintf + 92
        0x0001a136:    f1bb0f00    ....    CMP      r11,#0
        0x0001a13a:    d00d        ..      BEQ      0x1a158 ; am_util_stdio_vsprintf + 80
        0x0001a13c:    290a        .)      CMP      r1,#0xa
        0x0001a13e:    d107        ..      BNE      0x1a150 ; am_util_stdio_vsprintf + 72
        0x0001a140:    f8982000    ...     LDRB     r2,[r8,#0]
        0x0001a144:    b122        ".      CBZ      r2,0x1a150 ; am_util_stdio_vsprintf + 72
        0x0001a146:    f80b4b01    ...K    STRB     r4,[r11],#1
        0x0001a14a:    f8101c01    ....    LDRB     r1,[r0,#-1]
        0x0001a14e:    3501        .5      ADDS     r5,#1
        0x0001a150:    f80b1b01    ....    STRB     r1,[r11],#1
        0x0001a154:    e002        ..      B        0x1a15c ; am_util_stdio_vsprintf + 84
        0x0001a156:    bf00        ..      NOP      
        0x0001a158:    f04f0b00    O...    MOV      r11,#0
        0x0001a15c:    3501        .5      ADDS     r5,#1
        0x0001a15e:    3001        .0      ADDS     r0,#1
        0x0001a160:    e7e2        ..      B        0x1a128 ; am_util_stdio_vsprintf + 32
        0x0001a162:    bf00        ..      NOP      
        0x0001a164:    4604        .F      MOV      r4,r0
        0x0001a166:    f814ab01    ....    LDRB     r10,[r4],#1
        0x0001a16a:    9604        ..      STR      r6,[sp,#0x10]
        0x0001a16c:    46d0        .F      MOV      r8,r10
        0x0001a16e:    f1ba0f30    ..0.    CMP      r10,#0x30
        0x0001a172:    bf1c        ..      ITT      NE
        0x0001a174:    4604        .F      MOVNE    r4,r0
        0x0001a176:    f04f0820    O. .    MOVNE    r8,#0x20
        0x0001a17a:    4620         F      MOV      r0,r4
        0x0001a17c:    4649        IF      MOV      r1,r9
        0x0001a17e:    f001f829    ..).    BL       decstr_to_int ; 0x1b1d4
        0x0001a182:    9a05        ..      LDR      r2,[sp,#0x14]
        0x0001a184:    4649        IF      MOV      r1,r9
        0x0001a186:    5ca6        .\      LDRB     r6,[r4,r2]
        0x0001a188:    4681        .F      MOV      r9,r0
        0x0001a18a:    2e73        s.      CMP      r6,#0x73
        0x0001a18c:    bf18        ..      IT       NE
        0x0001a18e:    f1c90900    ....    RSBNE    r9,r9,#0
        0x0001a192:    2800        .(      CMP      r0,#0
        0x0001a194:    bf58        X.      IT       PL
        0x0001a196:    4681        .F      MOVPL    r9,r0
        0x0001a198:    2e2e        ..      CMP      r6,#0x2e
        0x0001a19a:    eb040c02    ....    ADD      r12,r4,r2
        0x0001a19e:    d10b        ..      BNE      0x1a1b8 ; am_util_stdio_vsprintf + 176
        0x0001a1a0:    463c        <F      MOV      r4,r7
        0x0001a1a2:    f10c0701    ....    ADD      r7,r12,#1
        0x0001a1a6:    4638        8F      MOV      r0,r7
        0x0001a1a8:    f001f814    ....    BL       decstr_to_int ; 0x1b1d4
        0x0001a1ac:    9a05        ..      LDR      r2,[sp,#0x14]
        0x0001a1ae:    5cbe        .\      LDRB     r6,[r7,r2]
        0x0001a1b0:    eb070c02    ....    ADD      r12,r7,r2
        0x0001a1b4:    4627        'F      MOV      r7,r4
        0x0001a1b6:    e000        ..      B        0x1a1ba ; am_util_stdio_vsprintf + 178
        0x0001a1b8:    2006        .       MOVS     r0,#6
        0x0001a1ba:    2e6c        l.      CMP      r6,#0x6c
        0x0001a1bc:    d112        ..      BNE      0x1a1e4 ; am_util_stdio_vsprintf + 220
        0x0001a1be:    4663        cF      MOV      r3,r12
        0x0001a1c0:    f8131f01    ....    LDRB     r1,[r3,#1]!
        0x0001a1c4:    396c        l9      SUBS     r1,r1,#0x6c
        0x0001a1c6:    fab1f181    ....    CLZ      r1,r1
        0x0001a1ca:    ea4f1251    O.Q.    LSR      r2,r1,#5
        0x0001a1ce:    f04f0101    O...    MOV      r1,#1
        0x0001a1d2:    bf04        ..      ITT      EQ
        0x0001a1d4:    2102        .!      MOVEQ    r1,#2
        0x0001a1d6:    f10c0302    ....    ADDEQ    r3,r12,#2
        0x0001a1da:    f81c6001    ...`    LDRB     r6,[r12,r1]
        0x0001a1de:    469c        .F      MOV      r12,r3
        0x0001a1e0:    e001        ..      B        0x1a1e6 ; am_util_stdio_vsprintf + 222
        0x0001a1e2:    bf00        ..      NOP      
        0x0001a1e4:    2200        ."      MOVS     r2,#0
        0x0001a1e6:    2e72        r.      CMP      r6,#0x72
        0x0001a1e8:    dc13        ..      BGT      0x1a212 ; am_util_stdio_vsprintf + 266
        0x0001a1ea:    f1a60163    ..c.    SUB      r1,r6,#0x63
        0x0001a1ee:    2906        .)      CMP      r1,#6
        0x0001a1f0:    d81c        ..      BHI      0x1a22c ; am_util_stdio_vsprintf + 292
        0x0001a1f2:    e8dff001    ....    TBB      [pc,r1]
    $d.4
        0x0001a1f6:    0480        ..      DCW    1152
        0x0001a1f8:    70702f70    p/pp    DCD    1886400368
        0x0001a1fc:    0004        ..      DCW    4
    $t.5
        0x0001a1fe:    2a00        .*      CMP      r2,#0
        0x0001a200:    f000808c    ....    BEQ.W    0x1a31c ; am_util_stdio_vsprintf + 532
        0x0001a204:    1df8        ..      ADDS     r0,r7,#7
        0x0001a206:    f0200707     ...    BIC      r7,r0,#7
        0x0001a20a:    687c        |h      LDR      r4,[r7,#4]
        0x0001a20c:    f8570b08    W...    LDR      r0,[r7],#8
        0x0001a210:    e087        ..      B        0x1a322 ; am_util_stdio_vsprintf + 538
        0x0001a212:    2e73        s.      CMP      r6,#0x73
        0x0001a214:    f00080a2    ....    BEQ.W    0x1a35c ; am_util_stdio_vsprintf + 596
        0x0001a218:    2e75        u.      CMP      r6,#0x75
        0x0001a21a:    f00080b5    ....    BEQ.W    0x1a388 ; am_util_stdio_vsprintf + 640
        0x0001a21e:    2e78        x.      CMP      r6,#0x78
        0x0001a220:    d159        Y.      BNE      0x1a2d6 ; am_util_stdio_vsprintf + 462
        0x0001a222:    f8cdc00c    ....    STR      r12,[sp,#0xc]
        0x0001a226:    f04f0c27    O.'.    MOV      r12,#0x27
        0x0001a22a:    e007        ..      B        0x1a23c ; am_util_stdio_vsprintf + 308
        0x0001a22c:    2e46        F.      CMP      r6,#0x46
        0x0001a22e:    d011        ..      BEQ      0x1a254 ; am_util_stdio_vsprintf + 332
        0x0001a230:    2e58        X.      CMP      r6,#0x58
        0x0001a232:    d150        P.      BNE      0x1a2d6 ; am_util_stdio_vsprintf + 462
        0x0001a234:    f8cdc00c    ....    STR      r12,[sp,#0xc]
        0x0001a238:    f04f0c07    O...    MOV      r12,#7
        0x0001a23c:    f8dde010    ....    LDR      lr,[sp,#0x10]
        0x0001a240:    2a00        .*      CMP      r2,#0
        0x0001a242:    f00080ab    ....    BEQ.W    0x1a39c ; am_util_stdio_vsprintf + 660
        0x0001a246:    1df9        ..      ADDS     r1,r7,#7
        0x0001a248:    f0210707    !...    BIC      r7,r1,#7
        0x0001a24c:    687c        |h      LDR      r4,[r7,#4]
        0x0001a24e:    f8571b08    W...    LDR      r1,[r7],#8
        0x0001a252:    e0a6        ..      B        0x1a3a2 ; am_util_stdio_vsprintf + 666
        0x0001a254:    f1bb0f00    ....    CMP      r11,#0
        0x0001a258:    f00080c4    ....    BEQ.W    0x1a3e4 ; am_util_stdio_vsprintf + 732
        0x0001a25c:    4604        .F      MOV      r4,r0
        0x0001a25e:    1df8        ..      ADDS     r0,r7,#7
        0x0001a260:    f0200807     ...    BIC      r8,r0,#7
        0x0001a264:    ed980b00    ....    VLDR     d0,[r8,#0]
        0x0001a268:    46e1        .F      MOV      r9,r12
        0x0001a26a:    ec510b10    Q...    VMOV     r0,r1,d0
        0x0001a26e:    f002f9cd    ....    BL       __aeabi_d2f ; 0x1c60c
        0x0001a272:    2114        .!      MOVS     r1,#0x14
        0x0001a274:    f8cb1000    ....    STR      r1,[r11,#0]
        0x0001a278:    f6426123    B.#a    MOV      r1,#0x2e23
        0x0001a27c:    ee000a10    ....    VMOV     s0,r0
        0x0001a280:    f2c00123    ..#.    MOVT     r1,#0x23
        0x0001a284:    f1011e0d    ....    ADD      lr,r1,#0xd000d
        0x0001a288:    eeb50a40    ..@.    VCMP.F32 s0,#0.0
        0x0001a28c:    f64f76fe    O..v    MOV      r6,#0xfffe
        0x0001a290:    46cc        .F      MOV      r12,r9
        0x0001a292:    eef1fa10    ....    VMRS     APSR_nzcv,FPSCR
        0x0001a296:    4671        qF      MOV      r1,lr
        0x0001a298:    f2c006ff    ....    MOVT     r6,#0xff
        0x0001a29c:    f000829f    ....    BEQ.W    0x1a7de ; am_util_stdio_vsprintf + 1750
        0x0001a2a0:    f3c052c7    ...R    UBFX     r2,r0,#23,#8
        0x0001a2a4:    f6426123    B.#a    MOV      r1,#0x2e23
        0x0001a2a8:    2a9d        .*      CMP      r2,#0x9d
        0x0001a2aa:    f2c00123    ..#.    MOVT     r1,#0x23
        0x0001a2ae:    f2008296    ....    BHI.W    0x1a7de ; am_util_stdio_vsprintf + 1750
        0x0001a2b2:    2a68        h*      CMP      r2,#0x68
        0x0001a2b4:    4671        qF      MOV      r1,lr
        0x0001a2b6:    f0c08292    ....    BCC.W    0x1a7de ; am_util_stdio_vsprintf + 1750
        0x0001a2ba:    4603        .F      MOV      r3,r0
        0x0001a2bc:    2101        .!      MOVS     r1,#1
        0x0001a2be:    2a96        .*      CMP      r2,#0x96
        0x0001a2c0:    f36153df    a..S    BFI      r3,r1,#23,#9
        0x0001a2c4:    f0c08209    ....    BCC.W    0x1a6da ; am_util_stdio_vsprintf + 1490
        0x0001a2c8:    f1a20196    ....    SUB      r1,r2,#0x96
        0x0001a2cc:    fa03f101    ....    LSL      r1,r3,r1
        0x0001a2d0:    f04f0a00    O...    MOV      r10,#0
        0x0001a2d4:    e212        ..      B        0x1a6fc ; am_util_stdio_vsprintf + 1524
        0x0001a2d6:    f1bb0f00    ....    CMP      r11,#0
        0x0001a2da:    bf14        ..      ITE      NE
        0x0001a2dc:    f80b6b01    ...k    STRBNE   r6,[r11],#1
        0x0001a2e0:    f04f0b00    O...    MOVEQ    r11,#0
        0x0001a2e4:    f6400884    @...    MOV      r8,#0x884
        0x0001a2e8:    9e04        ..      LDR      r6,[sp,#0x10]
        0x0001a2ea:    f10d0914    ....    ADD      r9,sp,#0x14
        0x0001a2ee:    f2c10800    ....    MOVT     r8,#0x1000
        0x0001a2f2:    240d        .$      MOVS     r4,#0xd
        0x0001a2f4:    e010        ..      B        0x1a318 ; am_util_stdio_vsprintf + 528
        0x0001a2f6:    f1bb0f00    ....    CMP      r11,#0
        0x0001a2fa:    bf1a        ..      ITTE     NE
        0x0001a2fc:    6838        8h      LDRNE    r0,[r7,#0]
        0x0001a2fe:    f80b0b01    ....    STRBNE   r0,[r11],#1
        0x0001a302:    f04f0b00    O...    MOVEQ    r11,#0
        0x0001a306:    f6400884    @...    MOV      r8,#0x884
        0x0001a30a:    9e04        ..      LDR      r6,[sp,#0x10]
        0x0001a30c:    f10d0914    ....    ADD      r9,sp,#0x14
        0x0001a310:    f2c10800    ....    MOVT     r8,#0x1000
        0x0001a314:    240d        .$      MOVS     r4,#0xd
        0x0001a316:    3704        .7      ADDS     r7,#4
        0x0001a318:    3501        .5      ADDS     r5,#1
        0x0001a31a:    e26f        o.      B        0x1a7fc ; am_util_stdio_vsprintf + 1780
        0x0001a31c:    f8570b04    W...    LDR      r0,[r7],#4
        0x0001a320:    17c4        ..      ASRS     r4,r0,#31
        0x0001a322:    eb1070e4    ...p    ADDS     r0,r0,r4,ASR #31
        0x0001a326:    9e04        ..      LDR      r6,[sp,#0x10]
        0x0001a328:    ea807ee4    ...~    EOR      lr,r0,r4,ASR #31
        0x0001a32c:    eb4470e4    D..p    ADC      r0,r4,r4,ASR #31
        0x0001a330:    f1b90f00    ....    CMP      r9,#0
        0x0001a334:    ea8071e4    ...q    EOR      r1,r0,r4,ASR #31
        0x0001a338:    e9cdc703    ....    STRD     r12,r7,[sp,#0xc]
        0x0001a33c:    d046        F.      BEQ      0x1a3cc ; am_util_stdio_vsprintf + 708
        0x0001a33e:    ea5e0001    ^...    ORRS     r0,lr,r1
        0x0001a342:    e9cd1e01    ....    STRD     r1,lr,[sp,#4]
        0x0001a346:    d07b        {.      BEQ      0x1a440 ; am_util_stdio_vsprintf + 824
        0x0001a348:    2700        .'      MOVS     r7,#0
        0x0001a34a:    4670        pF      MOV      r0,lr
        0x0001a34c:    f000ff6e    ..n.    BL       divu64_10 ; 0x1b22c
        0x0001a350:    ea500201    P...    ORRS     r2,r0,r1
        0x0001a354:    f1070701    ....    ADD      r7,r7,#1
        0x0001a358:    d1f8        ..      BNE      0x1a34c ; am_util_stdio_vsprintf + 580
        0x0001a35a:    e072        r.      B        0x1a442 ; am_util_stdio_vsprintf + 826
        0x0001a35c:    f8571b04    W...    LDR      r1,[r7],#4
        0x0001a360:    2900        .)      CMP      r1,#0
        0x0001a362:    f0008109    ....    BEQ.W    0x1a578 ; am_util_stdio_vsprintf + 1136
        0x0001a366:    7808        .x      LDRB     r0,[r1,#0]
        0x0001a368:    9e04        ..      LDR      r6,[sp,#0x10]
        0x0001a36a:    2800        .(      CMP      r0,#0
        0x0001a36c:    f04f040d    O...    MOV      r4,#0xd
        0x0001a370:    46be        .F      MOV      lr,r7
        0x0001a372:    f000812b    ..+.    BEQ.W    0x1a5cc ; am_util_stdio_vsprintf + 1220
        0x0001a376:    1c4a        J.      ADDS     r2,r1,#1
        0x0001a378:    2300        .#      MOVS     r3,#0
        0x0001a37a:    bf00        ..      NOP      
        0x0001a37c:    5cd7        .\      LDRB     r7,[r2,r3]
        0x0001a37e:    1c58        X.      ADDS     r0,r3,#1
        0x0001a380:    2f00        ./      CMP      r7,#0
        0x0001a382:    4603        .F      MOV      r3,r0
        0x0001a384:    d1fa        ..      BNE      0x1a37c ; am_util_stdio_vsprintf + 628
        0x0001a386:    e122        ".      B        0x1a5ce ; am_util_stdio_vsprintf + 1222
        0x0001a388:    2a00        .*      CMP      r2,#0
        0x0001a38a:    d03d        =.      BEQ      0x1a408 ; am_util_stdio_vsprintf + 768
        0x0001a38c:    1df8        ..      ADDS     r0,r7,#7
        0x0001a38e:    f0200707     ...    BIC      r7,r0,#7
        0x0001a392:    f8d7a004    ....    LDR      r10,[r7,#4]
        0x0001a396:    f8574b08    W..K    LDR      r4,[r7],#8
        0x0001a39a:    e039        9.      B        0x1a410 ; am_util_stdio_vsprintf + 776
        0x0001a39c:    f8571b04    W...    LDR      r1,[r7],#4
        0x0001a3a0:    2400        .$      MOVS     r4,#0
        0x0001a3a2:    f1b90f00    ....    CMP      r9,#0
        0x0001a3a6:    d027        '.      BEQ      0x1a3f8 ; am_util_stdio_vsprintf + 752
        0x0001a3a8:    46ba        .F      MOV      r10,r7
        0x0001a3aa:    ea510204    Q...    ORRS     r2,r1,r4
        0x0001a3ae:    f000808d    ....    BEQ.W    0x1a4cc ; am_util_stdio_vsprintf + 964
        0x0001a3b2:    2700        .'      MOVS     r7,#0
        0x0001a3b4:    460b        .F      MOV      r3,r1
        0x0001a3b6:    4622        "F      MOV      r2,r4
        0x0001a3b8:    091b        ..      LSRS     r3,r3,#4
        0x0001a3ba:    ea437302    C..s    ORR      r3,r3,r2,LSL #28
        0x0001a3be:    ea431612    C...    ORR      r6,r3,r2,LSR #4
        0x0001a3c2:    0912        ..      LSRS     r2,r2,#4
        0x0001a3c4:    3701        .7      ADDS     r7,#1
        0x0001a3c6:    2e00        ..      CMP      r6,#0
        0x0001a3c8:    d1f6        ..      BNE      0x1a3b8 ; am_util_stdio_vsprintf + 688
        0x0001a3ca:    e080        ..      B        0x1a4ce ; am_util_stdio_vsprintf + 966
        0x0001a3cc:    f1b43fff    ...?    CMP      r4,#0xffffffff
        0x0001a3d0:    f34080de    @...    BLE.W    0x1a590 ; am_util_stdio_vsprintf + 1160
        0x0001a3d4:    f6400884    @...    MOV      r8,#0x884
        0x0001a3d8:    465f        _F      MOV      r7,r11
        0x0001a3da:    f10d0914    ....    ADD      r9,sp,#0x14
        0x0001a3de:    f2c10800    ....    MOVT     r8,#0x1000
        0x0001a3e2:    e071        q.      B        0x1a4c8 ; am_util_stdio_vsprintf + 960
        0x0001a3e4:    f6400884    @...    MOV      r8,#0x884
        0x0001a3e8:    9e04        ..      LDR      r6,[sp,#0x10]
        0x0001a3ea:    f04f0b00    O...    MOV      r11,#0
        0x0001a3ee:    f10d0914    ....    ADD      r9,sp,#0x14
        0x0001a3f2:    f2c10800    ....    MOVT     r8,#0x1000
        0x0001a3f6:    e12e        ..      B        0x1a656 ; am_util_stdio_vsprintf + 1358
        0x0001a3f8:    f6400884    @...    MOV      r8,#0x884
        0x0001a3fc:    a806        ..      ADD      r0,sp,#0x18
        0x0001a3fe:    f10d0914    ....    ADD      r9,sp,#0x14
        0x0001a402:    f2c10800    ....    MOVT     r8,#0x1000
        0x0001a406:    e081        ..      B        0x1a50c ; am_util_stdio_vsprintf + 1028
        0x0001a408:    f8574b04    W..K    LDR      r4,[r7],#4
        0x0001a40c:    f04f0a00    O...    MOV      r10,#0
        0x0001a410:    9e04        ..      LDR      r6,[sp,#0x10]
        0x0001a412:    f1b90f00    ....    CMP      r9,#0
        0x0001a416:    f8cdc00c    ....    STR      r12,[sp,#0xc]
        0x0001a41a:    f00080b2    ....    BEQ.W    0x1a582 ; am_util_stdio_vsprintf + 1146
        0x0001a41e:    ea54000a    T...    ORRS     r0,r4,r10
        0x0001a422:    9704        ..      STR      r7,[sp,#0x10]
        0x0001a424:    f00080e8    ....    BEQ.W    0x1a5f8 ; am_util_stdio_vsprintf + 1264
        0x0001a428:    2700        .'      MOVS     r7,#0
        0x0001a42a:    4620         F      MOV      r0,r4
        0x0001a42c:    4651        QF      MOV      r1,r10
        0x0001a42e:    bf00        ..      NOP      
        0x0001a430:    f000fefc    ....    BL       divu64_10 ; 0x1b22c
        0x0001a434:    ea500201    P...    ORRS     r2,r0,r1
        0x0001a438:    f1070701    ....    ADD      r7,r7,#1
        0x0001a43c:    d1f8        ..      BNE      0x1a430 ; am_util_stdio_vsprintf + 808
        0x0001a43e:    e0dc        ..      B        0x1a5fa ; am_util_stdio_vsprintf + 1266
        0x0001a440:    2701        .'      MOVS     r7,#1
        0x0001a442:    f1b43fff    ...?    CMP      r4,#0xffffffff
        0x0001a446:    eba90307    ....    SUB      r3,r9,r7
        0x0001a44a:    dd02        ..      BLE      0x1a452 ; am_util_stdio_vsprintf + 842
        0x0001a44c:    f10d0914    ....    ADD      r9,sp,#0x14
        0x0001a450:    e012        ..      B        0x1a478 ; am_util_stdio_vsprintf + 880
        0x0001a452:    f1ba0f30    ..0.    CMP      r10,#0x30
        0x0001a456:    f1a30301    ....    SUB      r3,r3,#1
        0x0001a45a:    f10d0914    ....    ADD      r9,sp,#0x14
        0x0001a45e:    d10b        ..      BNE      0x1a478 ; am_util_stdio_vsprintf + 880
        0x0001a460:    f1bb0f00    ....    CMP      r11,#0
        0x0001a464:    bf1a        ..      ITTE     NE
        0x0001a466:    212d        -!      MOVNE    r1,#0x2d
        0x0001a468:    f80b1b01    ....    STRBNE   r1,[r11],#1
        0x0001a46c:    f04f0b00    O...    MOVEQ    r11,#0
        0x0001a470:    e9dd1e01    ....    LDRD     r1,lr,[sp,#4]
        0x0001a474:    3501        .5      ADDS     r5,#1
        0x0001a476:    e001        ..      B        0x1a47c ; am_util_stdio_vsprintf + 884
        0x0001a478:    e9dd1e01    ....    LDRD     r1,lr,[sp,#4]
        0x0001a47c:    2b01        .+      CMP      r3,#1
        0x0001a47e:    db09        ..      BLT      0x1a494 ; am_util_stdio_vsprintf + 908
        0x0001a480:    4618        .F      MOV      r0,r3
        0x0001a482:    465a        ZF      MOV      r2,r11
        0x0001a484:    2a00        .*      CMP      r2,#0
        0x0001a486:    bf14        ..      ITE      NE
        0x0001a488:    f8028b01    ....    STRBNE   r8,[r2],#1
        0x0001a48c:    2200        ."      MOVEQ    r2,#0
        0x0001a48e:    3801        .8      SUBS     r0,#1
        0x0001a490:    d1f8        ..      BNE      0x1a484 ; am_util_stdio_vsprintf + 892
        0x0001a492:    e000        ..      B        0x1a496 ; am_util_stdio_vsprintf + 910
        0x0001a494:    2300        .#      MOVS     r3,#0
        0x0001a496:    f1bb0f00    ....    CMP      r11,#0
        0x0001a49a:    465f        _F      MOV      r7,r11
        0x0001a49c:    f6400884    @...    MOV      r8,#0x884
        0x0001a4a0:    bf18        ..      IT       NE
        0x0001a4a2:    441f        .D      ADDNE    r7,r3
        0x0001a4a4:    f1ba0f30    ..0.    CMP      r10,#0x30
        0x0001a4a8:    441d        .D      ADD      r5,r5,r3
        0x0001a4aa:    f2c10800    ....    MOVT     r8,#0x1000
        0x0001a4ae:    d00b        ..      BEQ      0x1a4c8 ; am_util_stdio_vsprintf + 960
        0x0001a4b0:    f1b43fff    ...?    CMP      r4,#0xffffffff
        0x0001a4b4:    dc08        ..      BGT      0x1a4c8 ; am_util_stdio_vsprintf + 960
        0x0001a4b6:    f1bb0f00    ....    CMP      r11,#0
        0x0001a4ba:    f04f040d    O...    MOV      r4,#0xd
        0x0001a4be:    d077        w.      BEQ      0x1a5b0 ; am_util_stdio_vsprintf + 1192
        0x0001a4c0:    202d        -       MOVS     r0,#0x2d
        0x0001a4c2:    f8070b01    ....    STRB     r0,[r7],#1
        0x0001a4c6:    e074        t.      B        0x1a5b2 ; am_util_stdio_vsprintf + 1194
        0x0001a4c8:    240d        .$      MOVS     r4,#0xd
        0x0001a4ca:    e073        s.      B        0x1a5b4 ; am_util_stdio_vsprintf + 1196
        0x0001a4cc:    2701        .'      MOVS     r7,#1
        0x0001a4ce:    eba90307    ....    SUB      r3,r9,r7
        0x0001a4d2:    2b01        .+      CMP      r3,#1
        0x0001a4d4:    db0c        ..      BLT      0x1a4f0 ; am_util_stdio_vsprintf + 1000
        0x0001a4d6:    eba70709    ....    SUB      r7,r7,r9
        0x0001a4da:    465e        ^F      MOV      r6,r11
        0x0001a4dc:    f10d0914    ....    ADD      r9,sp,#0x14
        0x0001a4e0:    2e00        ..      CMP      r6,#0
        0x0001a4e2:    bf14        ..      ITE      NE
        0x0001a4e4:    f8068b01    ....    STRBNE   r8,[r6],#1
        0x0001a4e8:    2600        .&      MOVEQ    r6,#0
        0x0001a4ea:    3701        .7      ADDS     r7,#1
        0x0001a4ec:    d3f8        ..      BCC      0x1a4e0 ; am_util_stdio_vsprintf + 984
        0x0001a4ee:    e002        ..      B        0x1a4f6 ; am_util_stdio_vsprintf + 1006
        0x0001a4f0:    2300        .#      MOVS     r3,#0
        0x0001a4f2:    f10d0914    ....    ADD      r9,sp,#0x14
        0x0001a4f6:    f6400884    @...    MOV      r8,#0x884
        0x0001a4fa:    441d        .D      ADD      r5,r5,r3
        0x0001a4fc:    a806        ..      ADD      r0,sp,#0x18
        0x0001a4fe:    f2c10800    ....    MOVT     r8,#0x1000
        0x0001a502:    4657        WF      MOV      r7,r10
        0x0001a504:    f1bb0f00    ....    CMP      r11,#0
        0x0001a508:    bf18        ..      IT       NE
        0x0001a50a:    449b        .D      ADDNE    r11,r11,r3
        0x0001a50c:    46ba        .F      MOV      r10,r7
        0x0001a50e:    ea510204    Q...    ORRS     r2,r1,r4
        0x0001a512:    d015        ..      BEQ      0x1a540 ; am_util_stdio_vsprintf + 1080
        0x0001a514:    2300        .#      MOVS     r3,#0
        0x0001a516:    bf00        ..      NOP      
        0x0001a518:    f001020f    ....    AND      r2,r1,#0xf
        0x0001a51c:    0909        ..      LSRS     r1,r1,#4
        0x0001a51e:    ea417104    A..q    ORR      r1,r1,r4,LSL #28
        0x0001a522:    f1020630    ..0.    ADD      r6,r2,#0x30
        0x0001a526:    2a09        .*      CMP      r2,#9
        0x0001a528:    f1030701    ....    ADD      r7,r3,#1
        0x0001a52c:    ea411214    A...    ORR      r2,r1,r4,LSR #4
        0x0001a530:    bf88        ..      IT       HI
        0x0001a532:    4466        fD      ADDHI    r6,r6,r12
        0x0001a534:    54c6        .T      STRB     r6,[r0,r3]
        0x0001a536:    0924        $.      LSRS     r4,r4,#4
        0x0001a538:    2a00        .*      CMP      r2,#0
        0x0001a53a:    463b        ;F      MOV      r3,r7
        0x0001a53c:    d1ec        ..      BNE      0x1a518 ; am_util_stdio_vsprintf + 1040
        0x0001a53e:    e003        ..      B        0x1a548 ; am_util_stdio_vsprintf + 1088
        0x0001a540:    2030        0       MOVS     r0,#0x30
        0x0001a542:    f88d0018    ....    STRB     r0,[sp,#0x18]
        0x0001a546:    2701        .'      MOVS     r7,#1
        0x0001a548:    f8ddc00c    ....    LDR      r12,[sp,#0xc]
        0x0001a54c:    f1bb0f00    ....    CMP      r11,#0
        0x0001a550:    4676        vF      MOV      r6,lr
        0x0001a552:    f04f040d    O...    MOV      r4,#0xd
        0x0001a556:    d008        ..      BEQ      0x1a56a ; am_util_stdio_vsprintf + 1122
        0x0001a558:    4639        9F      MOV      r1,r7
        0x0001a55a:    4658        XF      MOV      r0,r11
        0x0001a55c:    5c72        r\      LDRB     r2,[r6,r1]
        0x0001a55e:    3901        .9      SUBS     r1,#1
        0x0001a560:    f8002b01    ...+    STRB     r2,[r0],#1
        0x0001a564:    d1fa        ..      BNE      0x1a55c ; am_util_stdio_vsprintf + 1108
        0x0001a566:    2100        .!      MOVS     r1,#0
        0x0001a568:    7001        .p      STRB     r1,[r0,#0]
        0x0001a56a:    f1bb0f00    ....    CMP      r11,#0
        0x0001a56e:    bf18        ..      IT       NE
        0x0001a570:    44bb        .D      ADDNE    r11,r11,r7
        0x0001a572:    443d        =D      ADD      r5,r5,r7
        0x0001a574:    4657        WF      MOV      r7,r10
        0x0001a576:    e141        A.      B        0x1a7fc ; am_util_stdio_vsprintf + 1780
        0x0001a578:    9e04        ..      LDR      r6,[sp,#0x10]
        0x0001a57a:    46be        .F      MOV      lr,r7
        0x0001a57c:    2000        .       MOVS     r0,#0
        0x0001a57e:    240d        .$      MOVS     r4,#0xd
        0x0001a580:    e025        %.      B        0x1a5ce ; am_util_stdio_vsprintf + 1222
        0x0001a582:    f6400884    @...    MOV      r8,#0x884
        0x0001a586:    f10d0914    ....    ADD      r9,sp,#0x14
        0x0001a58a:    f2c10800    ....    MOVT     r8,#0x1000
        0x0001a58e:    e056        V.      B        0x1a63e ; am_util_stdio_vsprintf + 1334
        0x0001a590:    f6400884    @...    MOV      r8,#0x884
        0x0001a594:    f1bb0f00    ....    CMP      r11,#0
        0x0001a598:    f10d0914    ....    ADD      r9,sp,#0x14
        0x0001a59c:    f2c10800    ....    MOVT     r8,#0x1000
        0x0001a5a0:    f04f040d    O...    MOV      r4,#0xd
        0x0001a5a4:    d004        ..      BEQ      0x1a5b0 ; am_util_stdio_vsprintf + 1192
        0x0001a5a6:    202d        -       MOVS     r0,#0x2d
        0x0001a5a8:    f80b0b01    ....    STRB     r0,[r11],#1
        0x0001a5ac:    465f        _F      MOV      r7,r11
        0x0001a5ae:    e000        ..      B        0x1a5b2 ; am_util_stdio_vsprintf + 1194
        0x0001a5b0:    2700        .'      MOVS     r7,#0
        0x0001a5b2:    3501        .5      ADDS     r5,#1
        0x0001a5b4:    4670        pF      MOV      r0,lr
        0x0001a5b6:    463a        :F      MOV      r2,r7
        0x0001a5b8:    f001ffd2    ....    BL       uint64_to_str ; 0x1c560
        0x0001a5bc:    2f00        ./      CMP      r7,#0
        0x0001a5be:    bf18        ..      IT       NE
        0x0001a5c0:    4407        .D      ADDNE    r7,r0
        0x0001a5c2:    46bb        .F      MOV      r11,r7
        0x0001a5c4:    e9ddc703    ....    LDRD     r12,r7,[sp,#0xc]
        0x0001a5c8:    4405        .D      ADD      r5,r5,r0
        0x0001a5ca:    e117        ..      B        0x1a7fc ; am_util_stdio_vsprintf + 1780
        0x0001a5cc:    2000        .       MOVS     r0,#0
        0x0001a5ce:    f1b90f01    ....    CMP      r9,#1
        0x0001a5d2:    db4a        J.      BLT      0x1a66a ; am_util_stdio_vsprintf + 1378
        0x0001a5d4:    4581        .E      CMP      r9,r0
        0x0001a5d6:    d948        H.      BLS      0x1a66a ; am_util_stdio_vsprintf + 1378
        0x0001a5d8:    eba90200    ....    SUB      r2,r9,r0
        0x0001a5dc:    2a01        .*      CMP      r2,#1
        0x0001a5de:    db3c        <.      BLT      0x1a65a ; am_util_stdio_vsprintf + 1362
        0x0001a5e0:    eba00309    ....    SUB      r3,r0,r9
        0x0001a5e4:    465f        _F      MOV      r7,r11
        0x0001a5e6:    bf00        ..      NOP      
        0x0001a5e8:    2f00        ./      CMP      r7,#0
        0x0001a5ea:    bf14        ..      ITE      NE
        0x0001a5ec:    f8078b01    ....    STRBNE   r8,[r7],#1
        0x0001a5f0:    2700        .'      MOVEQ    r7,#0
        0x0001a5f2:    3301        .3      ADDS     r3,#1
        0x0001a5f4:    d3f8        ..      BCC      0x1a5e8 ; am_util_stdio_vsprintf + 1248
        0x0001a5f6:    e031        1.      B        0x1a65c ; am_util_stdio_vsprintf + 1364
        0x0001a5f8:    2701        .'      MOVS     r7,#1
        0x0001a5fa:    eba90007    ....    SUB      r0,r9,r7
        0x0001a5fe:    2801        .(      CMP      r0,#1
        0x0001a600:    db10        ..      BLT      0x1a624 ; am_util_stdio_vsprintf + 1308
        0x0001a602:    eba70109    ....    SUB      r1,r7,r9
        0x0001a606:    9f04        ..      LDR      r7,[sp,#0x10]
        0x0001a608:    465a        ZF      MOV      r2,r11
        0x0001a60a:    f10d0914    ....    ADD      r9,sp,#0x14
        0x0001a60e:    bf00        ..      NOP      
        0x0001a610:    2a00        .*      CMP      r2,#0
        0x0001a612:    bf14        ..      ITE      NE
        0x0001a614:    f8028b01    ....    STRBNE   r8,[r2],#1
        0x0001a618:    2200        ."      MOVEQ    r2,#0
        0x0001a61a:    3101        .1      ADDS     r1,#1
        0x0001a61c:    d3f8        ..      BCC      0x1a610 ; am_util_stdio_vsprintf + 1288
        0x0001a61e:    f6400884    @...    MOV      r8,#0x884
        0x0001a622:    e005        ..      B        0x1a630 ; am_util_stdio_vsprintf + 1320
        0x0001a624:    f6400884    @...    MOV      r8,#0x884
        0x0001a628:    9f04        ..      LDR      r7,[sp,#0x10]
        0x0001a62a:    2000        .       MOVS     r0,#0
        0x0001a62c:    f10d0914    ....    ADD      r9,sp,#0x14
        0x0001a630:    f2c10800    ....    MOVT     r8,#0x1000
        0x0001a634:    4405        .D      ADD      r5,r5,r0
        0x0001a636:    f1bb0f00    ....    CMP      r11,#0
        0x0001a63a:    bf18        ..      IT       NE
        0x0001a63c:    4483        .D      ADDNE    r11,r11,r0
        0x0001a63e:    4620         F      MOV      r0,r4
        0x0001a640:    4651        QF      MOV      r1,r10
        0x0001a642:    465a        ZF      MOV      r2,r11
        0x0001a644:    f001ff8c    ....    BL       uint64_to_str ; 0x1c560
        0x0001a648:    f1bb0f00    ....    CMP      r11,#0
        0x0001a64c:    bf18        ..      IT       NE
        0x0001a64e:    4483        .D      ADDNE    r11,r11,r0
        0x0001a650:    f8ddc00c    ....    LDR      r12,[sp,#0xc]
        0x0001a654:    4405        .D      ADD      r5,r5,r0
        0x0001a656:    240d        .$      MOVS     r4,#0xd
        0x0001a658:    e0d0        ..      B        0x1a7fc ; am_util_stdio_vsprintf + 1780
        0x0001a65a:    2200        ."      MOVS     r2,#0
        0x0001a65c:    4415        .D      ADD      r5,r5,r2
        0x0001a65e:    f04f0900    O...    MOV      r9,#0
        0x0001a662:    f1bb0f00    ....    CMP      r11,#0
        0x0001a666:    bf18        ..      IT       NE
        0x0001a668:    4493        .D      ADDNE    r11,r11,r2
        0x0001a66a:    780a        .x      LDRB     r2,[r1,#0]
        0x0001a66c:    b17a        z.      CBZ      r2,0x1a68e ; am_util_stdio_vsprintf + 1414
        0x0001a66e:    3101        .1      ADDS     r1,#1
        0x0001a670:    4677        wF      MOV      r7,lr
        0x0001a672:    bf00        ..      NOP      
        0x0001a674:    f1bb0f00    ....    CMP      r11,#0
        0x0001a678:    bf14        ..      ITE      NE
        0x0001a67a:    f80b2b01    ...+    STRBNE   r2,[r11],#1
        0x0001a67e:    f04f0b00    O...    MOVEQ    r11,#0
        0x0001a682:    f8112b01    ...+    LDRB     r2,[r1],#1
        0x0001a686:    3501        .5      ADDS     r5,#1
        0x0001a688:    2a00        .*      CMP      r2,#0
        0x0001a68a:    d1f3        ..      BNE      0x1a674 ; am_util_stdio_vsprintf + 1388
        0x0001a68c:    e000        ..      B        0x1a690 ; am_util_stdio_vsprintf + 1416
        0x0001a68e:    4677        wF      MOV      r7,lr
        0x0001a690:    f1b90f00    ....    CMP      r9,#0
        0x0001a694:    f00080ac    ....    BEQ.W    0x1a7f0 ; am_util_stdio_vsprintf + 1768
        0x0001a698:    f1c90100    ....    RSB      r1,r9,#0
        0x0001a69c:    4288        .B      CMP      r0,r1
        0x0001a69e:    f08080a7    ....    BCS.W    0x1a7f0 ; am_util_stdio_vsprintf + 1768
        0x0001a6a2:    1a09        ..      SUBS     r1,r1,r0
        0x0001a6a4:    2901        .)      CMP      r1,#1
        0x0001a6a6:    db0b        ..      BLT      0x1a6c0 ; am_util_stdio_vsprintf + 1464
        0x0001a6a8:    4448        HD      ADD      r0,r0,r9
        0x0001a6aa:    465a        ZF      MOV      r2,r11
        0x0001a6ac:    f10d0914    ....    ADD      r9,sp,#0x14
        0x0001a6b0:    2a00        .*      CMP      r2,#0
        0x0001a6b2:    bf14        ..      ITE      NE
        0x0001a6b4:    f8028b01    ....    STRBNE   r8,[r2],#1
        0x0001a6b8:    2200        ."      MOVEQ    r2,#0
        0x0001a6ba:    3001        .0      ADDS     r0,#1
        0x0001a6bc:    d3f8        ..      BCC      0x1a6b0 ; am_util_stdio_vsprintf + 1448
        0x0001a6be:    e002        ..      B        0x1a6c6 ; am_util_stdio_vsprintf + 1470
        0x0001a6c0:    2100        .!      MOVS     r1,#0
        0x0001a6c2:    f10d0914    ....    ADD      r9,sp,#0x14
        0x0001a6c6:    f6400884    @...    MOV      r8,#0x884
        0x0001a6ca:    f2c10800    ....    MOVT     r8,#0x1000
        0x0001a6ce:    f1bb0f00    ....    CMP      r11,#0
        0x0001a6d2:    bf18        ..      IT       NE
        0x0001a6d4:    448b        .D      ADDNE    r11,r11,r1
        0x0001a6d6:    440d        .D      ADD      r5,r5,r1
        0x0001a6d8:    e090        ..      B        0x1a7fc ; am_util_stdio_vsprintf + 1780
        0x0001a6da:    2a7f        .*      CMP      r2,#0x7f
        0x0001a6dc:    d309        ..      BCC      0x1a6f2 ; am_util_stdio_vsprintf + 1514
        0x0001a6de:    f1c20196    ....    RSB      r1,r2,#0x96
        0x0001a6e2:    3a7e        ~:      SUBS     r2,r2,#0x7e
        0x0001a6e4:    fa03f202    ....    LSL      r2,r3,r2
        0x0001a6e8:    fa23f101    #...    LSR      r1,r3,r1
        0x0001a6ec:    f0224a7f    "..J    BIC      r10,r2,#0xff000000
        0x0001a6f0:    e004        ..      B        0x1a6fc ; am_util_stdio_vsprintf + 1524
        0x0001a6f2:    f1c2017e    ..~.    RSB      r1,r2,#0x7e
        0x0001a6f6:    fa23fa01    #...    LSR      r10,r3,r1
        0x0001a6fa:    2100        .!      MOVS     r1,#0
        0x0001a6fc:    f1b03fff    ...?    CMP      r0,#0xffffffff
        0x0001a700:    465f        _F      MOV      r7,r11
        0x0001a702:    dc03        ..      BGT      0x1a70c ; am_util_stdio_vsprintf + 1540
        0x0001a704:    465f        _F      MOV      r7,r11
        0x0001a706:    202d        -       MOVS     r0,#0x2d
        0x0001a708:    f8070b01    ....    STRB     r0,[r7],#1
        0x0001a70c:    b131        1.      CBZ      r1,0x1a71c ; am_util_stdio_vsprintf + 1556
        0x0001a70e:    2901        .)      CMP      r1,#1
        0x0001a710:    f8cde008    ....    STR      lr,[sp,#8]
        0x0001a714:    db06        ..      BLT      0x1a724 ; am_util_stdio_vsprintf + 1564
        0x0001a716:    4608        .F      MOV      r0,r1
        0x0001a718:    2100        .!      MOVS     r1,#0
        0x0001a71a:    e008        ..      B        0x1a72e ; am_util_stdio_vsprintf + 1574
        0x0001a71c:    2130        0!      MOVS     r1,#0x30
        0x0001a71e:    f8071b01    ....    STRB     r1,[r7],#1
        0x0001a722:    e011        ..      B        0x1a748 ; am_util_stdio_vsprintf + 1600
        0x0001a724:    202d        -       MOVS     r0,#0x2d
        0x0001a726:    f8070b01    ....    STRB     r0,[r7],#1
        0x0001a72a:    4248        HB      RSBS     r0,r1,#0
        0x0001a72c:    17c1        ..      ASRS     r1,r0,#31
        0x0001a72e:    463a        :F      MOV      r2,r7
        0x0001a730:    f001ff16    ....    BL       uint64_to_str ; 0x1c560
        0x0001a734:    f8dde008    ....    LDR      lr,[sp,#8]
        0x0001a738:    46cc        .F      MOV      r12,r9
        0x0001a73a:    2130        0!      MOVS     r1,#0x30
        0x0001a73c:    3f01        .?      SUBS     r7,#1
        0x0001a73e:    bf00        ..      NOP      
        0x0001a740:    f8170f01    ....    LDRB     r0,[r7,#1]!
        0x0001a744:    2800        .(      CMP      r0,#0
        0x0001a746:    d1fb        ..      BNE      0x1a740 ; am_util_stdio_vsprintf + 1592
        0x0001a748:    4638        8F      MOV      r0,r7
        0x0001a74a:    222e        ."      MOVS     r2,#0x2e
        0x0001a74c:    f1ba0f00    ....    CMP      r10,#0
        0x0001a750:    f8002b01    ...+    STRB     r2,[r0],#1
        0x0001a754:    d014        ..      BEQ      0x1a780 ; am_util_stdio_vsprintf + 1656
        0x0001a756:    ebab0100    ....    SUB      r1,r11,r0
        0x0001a75a:    3113        .1      ADDS     r1,r1,#0x13
        0x0001a75c:    42a1        .B      CMP      r1,r4
        0x0001a75e:    bfc8        ..      IT       GT
        0x0001a760:    4621        !F      MOVGT    r1,r4
        0x0001a762:    2901        .)      CMP      r1,#1
        0x0001a764:    db10        ..      BLT      0x1a788 ; am_util_stdio_vsprintf + 1664
        0x0001a766:    2730        0'      MOVS     r7,#0x30
        0x0001a768:    240d        .$      MOVS     r4,#0xd
        0x0001a76a:    eb0a028a    ....    ADD      r2,r10,r10,LSL #2
        0x0001a76e:    eb0753d2    ...S    ADD      r3,r7,r2,LSR #23
        0x0001a772:    f8003b01    ...;    STRB     r3,[r0],#1
        0x0001a776:    3901        .9      SUBS     r1,#1
        0x0001a778:    ea060a42    ..B.    AND      r10,r6,r2,LSL #1
        0x0001a77c:    d1f5        ..      BNE      0x1a76a ; am_util_stdio_vsprintf + 1634
        0x0001a77e:    e004        ..      B        0x1a78a ; am_util_stdio_vsprintf + 1666
        0x0001a780:    1cb8        ..      ADDS     r0,r7,#2
        0x0001a782:    7079        yp      STRB     r1,[r7,#1]
        0x0001a784:    240d        .$      MOVS     r4,#0xd
        0x0001a786:    e015        ..      B        0x1a7b4 ; am_util_stdio_vsprintf + 1708
        0x0001a788:    240d        .$      MOVS     r4,#0xd
        0x0001a78a:    1e41        A.      SUBS     r1,r0,#1
        0x0001a78c:    4559        YE      CMP      r1,r11
        0x0001a78e:    d311        ..      BCC      0x1a7b4 ; am_util_stdio_vsprintf + 1708
        0x0001a790:    eb0a028a    ....    ADD      r2,r10,r10,LSL #2
        0x0001a794:    0052        R.      LSLS     r2,r2,#1
        0x0001a796:    f1b26fa0    ...o    CMP      r2,#0x5000000
        0x0001a79a:    db0b        ..      BLT      0x1a7b4 ; am_util_stdio_vsprintf + 1708
        0x0001a79c:    9e04        ..      LDR      r6,[sp,#0x10]
        0x0001a79e:    780a        .x      LDRB     r2,[r1,#0]
        0x0001a7a0:    2a2e        .*      CMP      r2,#0x2e
        0x0001a7a2:    d003        ..      BEQ      0x1a7ac ; am_util_stdio_vsprintf + 1700
        0x0001a7a4:    2a39        9*      CMP      r2,#0x39
        0x0001a7a6:    d12c        ,.      BNE      0x1a802 ; am_util_stdio_vsprintf + 1786
        0x0001a7a8:    2230        0"      MOVS     r2,#0x30
        0x0001a7aa:    700a        .p      STRB     r2,[r1,#0]
        0x0001a7ac:    3901        .9      SUBS     r1,#1
        0x0001a7ae:    4559        YE      CMP      r1,r11
        0x0001a7b0:    d2f5        ..      BCS      0x1a79e ; am_util_stdio_vsprintf + 1686
        0x0001a7b2:    e000        ..      B        0x1a7b6 ; am_util_stdio_vsprintf + 1710
        0x0001a7b4:    9e04        ..      LDR      r6,[sp,#0x10]
        0x0001a7b6:    eba0010b    ....    SUB      r1,r0,r11
        0x0001a7ba:    f1b13fff    ...?    CMP      r1,#0xffffffff
        0x0001a7be:    f04f0200    O...    MOV      r2,#0
        0x0001a7c2:    7002        .p      STRB     r2,[r0,#0]
        0x0001a7c4:    dc10        ..      BGT      0x1a7e8 ; am_util_stdio_vsprintf + 1760
        0x0001a7c6:    f6426223    B.#b    MOV      r2,#0x2e23
        0x0001a7ca:    1c48        H.      ADDS     r0,r1,#1
        0x0001a7cc:    f2c00223    ..#.    MOVT     r2,#0x23
        0x0001a7d0:    bf18        ..      IT       NE
        0x0001a7d2:    f1021e1c    ....    ADDNE    lr,r2,#0x1c001c
        0x0001a7d6:    1c88        ..      ADDS     r0,r1,#2
        0x0001a7d8:    bf08        ..      IT       EQ
        0x0001a7da:    4696        .F      MOVEQ    lr,r2
        0x0001a7dc:    4671        qF      MOV      r1,lr
        0x0001a7de:    9e04        ..      LDR      r6,[sp,#0x10]
        0x0001a7e0:    f8cb1000    ....    STR      r1,[r11,#0]
        0x0001a7e4:    2103        .!      MOVS     r1,#3
        0x0001a7e6:    240d        .$      MOVS     r4,#0xd
        0x0001a7e8:    f1080708    ....    ADD      r7,r8,#8
        0x0001a7ec:    440d        .D      ADD      r5,r5,r1
        0x0001a7ee:    448b        .D      ADD      r11,r11,r1
        0x0001a7f0:    f6400884    @...    MOV      r8,#0x884
        0x0001a7f4:    f10d0914    ....    ADD      r9,sp,#0x14
        0x0001a7f8:    f2c10800    ....    MOVT     r8,#0x1000
        0x0001a7fc:    f10c0101    ....    ADD      r1,r12,#1
        0x0001a800:    e491        ..      B        0x1a126 ; am_util_stdio_vsprintf + 30
        0x0001a802:    3201        .2      ADDS     r2,#1
        0x0001a804:    700a        .p      STRB     r2,[r1,#0]
        0x0001a806:    e7d6        ..      B        0x1a7b6 ; am_util_stdio_vsprintf + 1710
        0x0001a808:    f1bb0f00    ....    CMP      r11,#0
        0x0001a80c:    bf1c        ..      ITT      NE
        0x0001a80e:    2000        .       MOVNE    r0,#0
        0x0001a810:    f88b0000    ....    STRBNE   r0,[r11,#0]
        0x0001a814:    4628        (F      MOV      r0,r5
        0x0001a816:    b00b        ..      ADD      sp,sp,#0x2c
        0x0001a818:    e8bd8ff0    ....    POP      {r4-r11,pc}
    buck_interval_check
        0x0001a81c:    b5f0        ..      PUSH     {r4-r7,lr}
        0x0001a81e:    b08b        ..      SUB      sp,sp,#0x2c
        0x0001a820:    2260        `"      MOVS     r2,#0x60
        0x0001a822:    f2c40202    ....    MOVT     r2,#0x4002
        0x0001a826:    4604        .F      MOV      r4,r0
        0x0001a828:    f8d20fa0    ....    LDR      r0,[r2,#0xfa0]
        0x0001a82c:    b194        ..      CBZ      r4,0x1a854 ; buck_interval_check + 56
        0x0001a82e:    2900        .)      CMP      r1,#0
        0x0001a830:    f2411100    A...    MOVW     r1,#0x1100
        0x0001a834:    f2c40102    ....    MOVT     r1,#0x4002
        0x0001a838:    6809        .h      LDR      r1,[r1,#0]
        0x0001a83a:    f04f071d    O...    MOV      r7,#0x1d
        0x0001a83e:    bf08        ..      IT       EQ
        0x0001a840:    271c        .'      MOVEQ    r7,#0x1c
        0x0001a842:    07c9        ..      LSLS     r1,r1,#31
        0x0001a844:    d004        ..      BEQ      0x1a850 ; buck_interval_check + 52
        0x0001a846:    6811        .h      LDR      r1,[r2,#0]
        0x0001a848:    f24012ef    @...    MOV      r2,#0x1ef
        0x0001a84c:    4211        .B      TST      r1,r2
        0x0001a84e:    d004        ..      BEQ      0x1a85a ; buck_interval_check + 62
        0x0001a850:    2007        .       MOVS     r0,#7
        0x0001a852:    e000        ..      B        0x1a856 ; buck_interval_check + 58
        0x0001a854:    2006        .       MOVS     r0,#6
        0x0001a856:    b00b        ..      ADD      sp,sp,#0x2c
        0x0001a858:    bdf0        ..      POP      {r4-r7,pc}
        0x0001a85a:    f0000618    ....    AND      r6,r0,#0x18
        0x0001a85e:    200d        .       MOVS     r0,#0xd
        0x0001a860:    f7feffa7    ....    BL       am_hal_timer_clear_stop ; 0x197b2
        0x0001a864:    200d        .       MOVS     r0,#0xd
        0x0001a866:    f7feffde    ....    BL       am_hal_timer_disable ; 0x19826
        0x0001a86a:    200d        .       MOVS     r0,#0xd
        0x0001a86c:    f7fff8a6    ....    BL       am_hal_timer_reset_config ; 0x199bc
        0x0001a870:    ad06        ..      ADD      r5,sp,#0x18
        0x0001a872:    4628        (F      MOV      r0,r5
        0x0001a874:    f7feffc7    ....    BL       am_hal_timer_default_config_set ; 0x19806
        0x0001a878:    2002        .       MOVS     r0,#2
        0x0001a87a:    f88d0019    ....    STRB     r0,[sp,#0x19]
        0x0001a87e:    200d        .       MOVS     r0,#0xd
        0x0001a880:    4629        )F      MOV      r1,r5
        0x0001a882:    f88d7018    ...p    STRB     r7,[sp,#0x18]
        0x0001a886:    f001fdb7    ....    BL       timer_config_b1 ; 0x1c3f8
        0x0001a88a:    2008        .       MOVS     r0,#8
        0x0001a88c:    f7feff91    ....    BL       am_hal_timer_clear_stop ; 0x197b2
        0x0001a890:    2008        .       MOVS     r0,#8
        0x0001a892:    f7feffc8    ....    BL       am_hal_timer_disable ; 0x19826
        0x0001a896:    2008        .       MOVS     r0,#8
        0x0001a898:    f7fff890    ....    BL       am_hal_timer_reset_config ; 0x199bc
        0x0001a89c:    ad01        ..      ADD      r5,sp,#4
        0x0001a89e:    4628        (F      MOV      r0,r5
        0x0001a8a0:    f7feffb1    ....    BL       am_hal_timer_default_config_set ; 0x19806
        0x0001a8a4:    f2402001    @..     MOV      r0,#0x201
        0x0001a8a8:    f8ad0004    ....    STRH     r0,[sp,#4]
        0x0001a8ac:    2008        .       MOVS     r0,#8
        0x0001a8ae:    4629        )F      MOV      r1,r5
        0x0001a8b0:    f001fda2    ....    BL       timer_config_b1 ; 0x1c3f8
        0x0001a8b4:    f7fef968    ..h.    BL       am_hal_interrupt_master_disable ; 0x18b88
        0x0001a8b8:    9000        ..      STR      r0,[sp,#0]
        0x0001a8ba:    2008        .       MOVS     r0,#8
        0x0001a8bc:    f7feffd1    ....    BL       am_hal_timer_enable ; 0x19862
        0x0001a8c0:    200d        .       MOVS     r0,#0xd
        0x0001a8c2:    f7feffce    ....    BL       am_hal_timer_enable ; 0x19862
        0x0001a8c6:    9800        ..      LDR      r0,[sp,#0]
        0x0001a8c8:    f7fef966    ..f.    BL       am_hal_interrupt_master_set ; 0x18b98
        0x0001a8cc:    f2427510    B..u    MOV      r5,#0x2710
        0x0001a8d0:    2e10        ..      CMP      r6,#0x10
        0x0001a8d2:    bf08        ..      IT       EQ
        0x0001a8d4:    f6446520    D. e    MOVEQ    r5,#0x4e20
        0x0001a8d8:    f7fef956    ..V.    BL       am_hal_interrupt_master_disable ; 0x18b88
        0x0001a8dc:    9000        ..      STR      r0,[sp,#0]
        0x0001a8de:    200d        .       MOVS     r0,#0xd
        0x0001a8e0:    f7fff859    ..Y.    BL       am_hal_timer_read ; 0x19996
        0x0001a8e4:    280a        .(      CMP      r0,#0xa
        0x0001a8e6:    d206        ..      BCS      0x1a8f6 ; buck_interval_check + 218
        0x0001a8e8:    9800        ..      LDR      r0,[sp,#0]
        0x0001a8ea:    f7fef955    ..U.    BL       am_hal_interrupt_master_set ; 0x18b98
        0x0001a8ee:    3d01        .=      SUBS     r5,#1
        0x0001a8f0:    d1f2        ..      BNE      0x1a8d8 ; buck_interval_check + 188
        0x0001a8f2:    2500        .%      MOVS     r5,#0
        0x0001a8f4:    e007        ..      B        0x1a906 ; buck_interval_check + 234
        0x0001a8f6:    2008        .       MOVS     r0,#8
        0x0001a8f8:    f7fff84d    ..M.    BL       am_hal_timer_read ; 0x19996
        0x0001a8fc:    9900        ..      LDR      r1,[sp,#0]
        0x0001a8fe:    4605        .F      MOV      r5,r0
        0x0001a900:    4608        .F      MOV      r0,r1
        0x0001a902:    f7fef949    ..I.    BL       am_hal_interrupt_master_set ; 0x18b98
        0x0001a906:    200d        .       MOVS     r0,#0xd
        0x0001a908:    f7feff53    ..S.    BL       am_hal_timer_clear_stop ; 0x197b2
        0x0001a90c:    200d        .       MOVS     r0,#0xd
        0x0001a90e:    f7feff8a    ....    BL       am_hal_timer_disable ; 0x19826
        0x0001a912:    200d        .       MOVS     r0,#0xd
        0x0001a914:    f7fff852    ..R.    BL       am_hal_timer_reset_config ; 0x199bc
        0x0001a918:    2008        .       MOVS     r0,#8
        0x0001a91a:    f7feff4a    ..J.    BL       am_hal_timer_clear_stop ; 0x197b2
        0x0001a91e:    2008        .       MOVS     r0,#8
        0x0001a920:    f7feff81    ....    BL       am_hal_timer_disable ; 0x19826
        0x0001a924:    2008        .       MOVS     r0,#8
        0x0001a926:    f7fff849    ..I.    BL       am_hal_timer_reset_config ; 0x199bc
        0x0001a92a:    b185        ..      CBZ      r5,0x1a94e ; buck_interval_check + 306
        0x0001a92c:    f64a20ab    J..     MOV      r0,#0xaaab
        0x0001a930:    f6ca20aa    ...     MOVT     r0,#0xaaaa
        0x0001a934:    fba50100    ....    UMULL    r0,r1,r5,r0
        0x0001a938:    0888        ..      LSRS     r0,r1,#2
        0x0001a93a:    f5b57f96    ....    CMP      r5,#0x12c
        0x0001a93e:    bf38        8.      IT       CC
        0x0001a940:    2032        2       MOVCC    r0,#0x32
        0x0001a942:    2896        .(      CMP      r0,#0x96
        0x0001a944:    bf28        (.      IT       CS
        0x0001a946:    2096        .       MOVCS    r0,#0x96
        0x0001a948:    6020         `      STR      r0,[r4,#0]
        0x0001a94a:    2000        .       MOVS     r0,#0
        0x0001a94c:    e783        ..      B        0x1a856 ; buck_interval_check + 58
        0x0001a94e:    2001        .       MOVS     r0,#1
        0x0001a950:    e781        ..      B        0x1a856 ; buck_interval_check + 58
    buck_ldo_override_init
        0x0001a952:    2060        `       MOVS     r0,#0x60
        0x0001a954:    f2c40002    ....    MOVT     r0,#0x4002
        0x0001a958:    6801        .h      LDR      r1,[r0,#0]
        0x0001a95a:    2204        ."      MOVS     r2,#4
        0x0001a95c:    f4413100    A..1    ORR      r1,r1,#0x20000
        0x0001a960:    6001        .`      STR      r1,[r0,#0]
        0x0001a962:    6801        .h      LDR      r1,[r0,#0]
        0x0001a964:    f4412180    A..!    ORR      r1,r1,#0x40000
        0x0001a968:    6001        .`      STR      r1,[r0,#0]
        0x0001a96a:    6801        .h      LDR      r1,[r0,#0]
        0x0001a96c:    f4412100    A..!    ORR      r1,r1,#0x80000
        0x0001a970:    6001        .`      STR      r1,[r0,#0]
        0x0001a972:    6801        .h      LDR      r1,[r0,#0]
        0x0001a974:    f4413180    A..1    ORR      r1,r1,#0x10000
        0x0001a978:    6001        .`      STR      r1,[r0,#0]
        0x0001a97a:    6a01        .j      LDR      r1,[r0,#0x20]
        0x0001a97c:    f362218d    b..!    BFI      r1,r2,#10,#4
        0x0001a980:    6201        .b      STR      r1,[r0,#0x20]
        0x0001a982:    6801        .h      LDR      r1,[r0,#0]
        0x0001a984:    f0210110    !...    BIC      r1,r1,#0x10
        0x0001a988:    6001        .`      STR      r1,[r0,#0]
        0x0001a98a:    6801        .h      LDR      r1,[r0,#0]
        0x0001a98c:    f041010e    A...    ORR      r1,r1,#0xe
        0x0001a990:    6001        .`      STR      r1,[r0,#0]
        0x0001a992:    6801        .h      LDR      r1,[r0,#0]
        0x0001a994:    f0410101    A...    ORR      r1,r1,#1
        0x0001a998:    6001        .`      STR      r1,[r0,#0]
        0x0001a99a:    6801        .h      LDR      r1,[r0,#0]
        0x0001a99c:    f4217100    !..q    BIC      r1,r1,#0x200
        0x0001a9a0:    6001        .`      STR      r1,[r0,#0]
        0x0001a9a2:    6801        .h      LDR      r1,[r0,#0]
        0x0001a9a4:    f44171e0    A..q    ORR      r1,r1,#0x1c0
        0x0001a9a8:    6001        .`      STR      r1,[r0,#0]
        0x0001a9aa:    6801        .h      LDR      r1,[r0,#0]
        0x0001a9ac:    f0410120    A. .    ORR      r1,r1,#0x20
        0x0001a9b0:    6001        .`      STR      r1,[r0,#0]
        0x0001a9b2:    4770        pG      BX       lr
    calc_func
        0x0001a9b4:    b5f0        ..      PUSH     {r4-r7,lr}
        0x0001a9b6:    b083        ..      SUB      sp,sp,#0xc
        0x0001a9b8:    8807        ..      LDRH     r7,[r0,#0]
        0x0001a9ba:    4604        .F      MOV      r4,r0
        0x0001a9bc:    0638        8.      LSLS     r0,r7,#24
        0x0001a9be:    d41e        ..      BMI      0x1a9fe ; calc_func + 74
        0x0001a9c0:    460d        .F      MOV      r5,r1
        0x0001a9c2:    f0070007    ....    AND      r0,r7,#7
        0x0001a9c6:    f3c701c3    ....    UBFX     r1,r7,#3,#4
        0x0001a9ca:    2801        .(      CMP      r0,#1
        0x0001a9cc:    ea411101    A...    ORR      r1,r1,r1,LSL #4
        0x0001a9d0:    d018        ..      BEQ      0x1aa04 ; calc_func + 80
        0x0001a9d2:    463e        >F      MOV      r6,r7
        0x0001a9d4:    b9f8        ..      CBNZ     r0,0x1aa16 ; calc_func + 98
        0x0001a9d6:    e9d5c005    ....    LDRD     r12,r0,[r5,#0x14]
        0x0001a9da:    2922        ")      CMP      r1,#0x22
        0x0001a9dc:    f9b52000    ...     LDRSH    r2,[r5,#0]
        0x0001a9e0:    f9b53002    ...0    LDRSH    r3,[r5,#2]
        0x0001a9e4:    8f2e        ..      LDRH     r6,[r5,#0x38]
        0x0001a9e6:    bf98        ..      IT       LS
        0x0001a9e8:    2122        "!      MOVLS    r1,#0x22
        0x0001a9ea:    9100        ..      STR      r1,[sp,#0]
        0x0001a9ec:    4661        aF      MOV      r1,r12
        0x0001a9ee:    9601        ..      STR      r6,[sp,#4]
        0x0001a9f0:    f000f8fa    ....    BL       core_bench_state ; 0x1abe8
        0x0001a9f4:    8fe9        ..      LDRH     r1,[r5,#0x3e]
        0x0001a9f6:    4606        .F      MOV      r6,r0
        0x0001a9f8:    b969        i.      CBNZ     r1,0x1aa16 ; calc_func + 98
        0x0001a9fa:    87ee        ..      STRH     r6,[r5,#0x3e]
        0x0001a9fc:    e00b        ..      B        0x1aa16 ; calc_func + 98
        0x0001a9fe:    f007007f    ....    AND      r0,r7,#0x7f
        0x0001aa02:    e014        ..      B        0x1aa2e ; calc_func + 122
        0x0001aa04:    8f2a        *.      LDRH     r2,[r5,#0x38]
        0x0001aa06:    f1050028    ..(.    ADD      r0,r5,#0x28
        0x0001aa0a:    f000f8d9    ....    BL       core_bench_matrix ; 0x1abc0
        0x0001aa0e:    8fa9        ..      LDRH     r1,[r5,#0x3c]
        0x0001aa10:    4606        .F      MOV      r6,r0
        0x0001aa12:    b901        ..      CBNZ     r1,0x1aa16 ; calc_func + 98
        0x0001aa14:    87ae        ..      STRH     r6,[r5,#0x3c]
        0x0001aa16:    8f29        ).      LDRH     r1,[r5,#0x38]
        0x0001aa18:    4630        0F      MOV      r0,r6
        0x0001aa1a:    f000fba7    ....    BL       crcu16 ; 0x1b16c
        0x0001aa1e:    f3660706    f...    BFI      r7,r6,#0,#7
        0x0001aa22:    8728        (.      STRH     r0,[r5,#0x38]
        0x0001aa24:    f006007f    ....    AND      r0,r6,#0x7f
        0x0001aa28:    f0470180    G...    ORR      r1,r7,#0x80
        0x0001aa2c:    8021        !.      STRH     r1,[r4,#0]
        0x0001aa2e:    b003        ..      ADD      sp,sp,#0xc
        0x0001aa30:    bdf0        ..      POP      {r4-r7,pc}
    check_data_types
        0x0001aa32:    2000        .       MOVS     r0,#0
        0x0001aa34:    4770        pG      BX       lr
    cmp_complex
        0x0001aa36:    b570        p.      PUSH     {r4-r6,lr}
        0x0001aa38:    460d        .F      MOV      r5,r1
        0x0001aa3a:    4611        .F      MOV      r1,r2
        0x0001aa3c:    4614        .F      MOV      r4,r2
        0x0001aa3e:    f7ffffb9    ....    BL       calc_func ; 0x1a9b4
        0x0001aa42:    4606        .F      MOV      r6,r0
        0x0001aa44:    4628        (F      MOV      r0,r5
        0x0001aa46:    4621        !F      MOV      r1,r4
        0x0001aa48:    f7ffffb4    ....    BL       calc_func ; 0x1a9b4
        0x0001aa4c:    b2b1        ..      UXTH     r1,r6
        0x0001aa4e:    b280        ..      UXTH     r0,r0
        0x0001aa50:    1a08        ..      SUBS     r0,r1,r0
        0x0001aa52:    bd70        p.      POP      {r4-r6,pc}
    cmp_idx
        0x0001aa54:    b91a        ..      CBNZ     r2,0x1aa5e ; cmp_idx + 10
        0x0001aa56:    7842        Bx      LDRB     r2,[r0,#1]
        0x0001aa58:    7002        .p      STRB     r2,[r0,#0]
        0x0001aa5a:    784a        Jx      LDRB     r2,[r1,#1]
        0x0001aa5c:    700a        .p      STRB     r2,[r1,#0]
        0x0001aa5e:    f9b00002    ....    LDRSH    r0,[r0,#2]
        0x0001aa62:    f9b11002    ....    LDRSH    r1,[r1,#2]
        0x0001aa66:    1a40        @.      SUBS     r0,r0,r1
        0x0001aa68:    4770        pG      BX       lr
        0x0001aa6a:    0000        ..      MOVS     r0,r0
    core_bench_list
        0x0001aa6c:    e92d4ff0    -..O    PUSH     {r4-r11,lr}
        0x0001aa70:    b083        ..      SUB      sp,sp,#0xc
        0x0001aa72:    f9b06004    ...`    LDRSH    r6,[r0,#4]
        0x0001aa76:    6a44        Dj      LDR      r4,[r0,#0x24]
        0x0001aa78:    f04f0b00    O...    MOV      r11,#0
        0x0001aa7c:    2e01        ..      CMP      r6,#1
        0x0001aa7e:    9000        ..      STR      r0,[sp,#0]
        0x0001aa80:    f8cdb008    ....    STR      r11,[sp,#8]
        0x0001aa84:    f8ad100a    ....    STRH     r1,[sp,#0xa]
        0x0001aa88:    9101        ..      STR      r1,[sp,#4]
        0x0001aa8a:    db46        F.      BLT      0x1ab1a ; core_bench_list + 174
        0x0001aa8c:    f04f0800    O...    MOV      r8,#0
        0x0001aa90:    f10d0a08    ....    ADD      r10,sp,#8
        0x0001aa94:    4689        .F      MOV      r9,r1
        0x0001aa96:    2700        .'      MOVS     r7,#0
        0x0001aa98:    2500        .%      MOVS     r5,#0
        0x0001aa9a:    f04f0b00    O...    MOV      r11,#0
        0x0001aa9e:    bf00        ..      NOP      
        0x0001aaa0:    fa5ff088    _...    UXTB     r0,r8
        0x0001aaa4:    f8ad0008    ....    STRH     r0,[sp,#8]
        0x0001aaa8:    4620         F      MOV      r0,r4
        0x0001aaaa:    4651        QF      MOV      r1,r10
        0x0001aaac:    f000f9c8    ....    BL       core_list_find ; 0x1ae40
        0x0001aab0:    b154        T.      CBZ      r4,0x1aac8 ; core_bench_list + 92
        0x0001aab2:    2200        ."      MOVS     r2,#0
        0x0001aab4:    4621        !F      MOV      r1,r4
        0x0001aab6:    bf00        ..      NOP      
        0x0001aab8:    460c        .F      MOV      r4,r1
        0x0001aaba:    6809        .h      LDR      r1,[r1,#0]
        0x0001aabc:    6022        "`      STR      r2,[r4,#0]
        0x0001aabe:    2900        .)      CMP      r1,#0
        0x0001aac0:    4622        "F      MOV      r2,r4
        0x0001aac2:    d1f9        ..      BNE      0x1aab8 ; core_bench_list + 76
        0x0001aac4:    e001        ..      B        0x1aaca ; core_bench_list + 94
        0x0001aac6:    bf00        ..      NOP      
        0x0001aac8:    2400        .$      MOVS     r4,#0
        0x0001aaca:    b178        x.      CBZ      r0,0x1aaec ; core_bench_list + 128
        0x0001aacc:    6841        Ah      LDR      r1,[r0,#4]
        0x0001aace:    6802        .h      LDR      r2,[r0,#0]
        0x0001aad0:    8809        ..      LDRH     r1,[r1,#0]
        0x0001aad2:    3501        .5      ADDS     r5,#1
        0x0001aad4:    ea012151    ..Q!    AND      r1,r1,r1,LSR #9
        0x0001aad8:    f0010101    ....    AND      r1,r1,#1
        0x0001aadc:    b16a        j.      CBZ      r2,0x1aafa ; core_bench_list + 142
        0x0001aade:    6813        .h      LDR      r3,[r2,#0]
        0x0001aae0:    6003        .`      STR      r3,[r0,#0]
        0x0001aae2:    6820         h      LDR      r0,[r4,#0]
        0x0001aae4:    6010        .`      STR      r0,[r2,#0]
        0x0001aae6:    6022        "`      STR      r2,[r4,#0]
        0x0001aae8:    e007        ..      B        0x1aafa ; core_bench_list + 142
        0x0001aaea:    bf00        ..      NOP      
        0x0001aaec:    6820         h      LDR      r0,[r4,#0]
        0x0001aaee:    f10b0b01    ....    ADD      r11,r11,#1
        0x0001aaf2:    6840        @h      LDR      r0,[r0,#4]
        0x0001aaf4:    8800        ..      LDRH     r0,[r0,#0]
        0x0001aaf6:    f3c02100    ...!    UBFX     r1,r0,#8,#1
        0x0001aafa:    fa0ff089    ....    SXTH     r0,r9
        0x0001aafe:    2800        .(      CMP      r0,#0
        0x0001ab00:    d403        ..      BMI      0x1ab0a ; core_bench_list + 158
        0x0001ab02:    f1090901    ....    ADD      r9,r9,#1
        0x0001ab06:    f8ad900a    ....    STRH     r9,[sp,#0xa]
        0x0001ab0a:    f1080001    ....    ADD      r0,r8,#1
        0x0001ab0e:    fa0ff880    ....    SXTH     r8,r0
        0x0001ab12:    45b0        .E      CMP      r8,r6
        0x0001ab14:    440f        .D      ADD      r7,r7,r1
        0x0001ab16:    dbc3        ..      BLT      0x1aaa0 ; core_bench_list + 52
        0x0001ab18:    e001        ..      B        0x1ab1e ; core_bench_list + 178
        0x0001ab1a:    2500        .%      MOVS     r5,#0
        0x0001ab1c:    2700        .'      MOVS     r7,#0
        0x0001ab1e:    9901        ..      LDR      r1,[sp,#4]
        0x0001ab20:    ebcb0085    ....    RSB      r0,r11,r5,LSL #2
        0x0001ab24:    2901        .)      CMP      r1,#1
        0x0001ab26:    eb000607    ....    ADD      r6,r0,r7
        0x0001ab2a:    db08        ..      BLT      0x1ab3e ; core_bench_list + 210
        0x0001ab2c:    f64a2137    J.7!    MOV      r1,#0xaa37
        0x0001ab30:    9a00        ..      LDR      r2,[sp,#0]
        0x0001ab32:    f2c00101    ....    MOVT     r1,#1
        0x0001ab36:    4620         F      MOV      r0,r4
        0x0001ab38:    f000fa1c    ....    BL       core_list_mergesort ; 0x1af74
        0x0001ab3c:    4604        .F      MOV      r4,r0
        0x0001ab3e:    6820         h      LDR      r0,[r4,#0]
        0x0001ab40:    e9d07800    ...x    LDRD     r7,r8,[r0,#0]
        0x0001ab44:    e9d72100    ...!    LDRD     r2,r1,[r7,#0]
        0x0001ab48:    6041        A`      STR      r1,[r0,#4]
        0x0001ab4a:    6002        .`      STR      r2,[r0,#0]
        0x0001ab4c:    2000        .       MOVS     r0,#0
        0x0001ab4e:    6038        8`      STR      r0,[r7,#0]
        0x0001ab50:    a902        ..      ADD      r1,sp,#8
        0x0001ab52:    4620         F      MOV      r0,r4
        0x0001ab54:    f8c78004    ....    STR      r8,[r7,#4]
        0x0001ab58:    f000f972    ..r.    BL       core_list_find ; 0x1ae40
        0x0001ab5c:    4605        .F      MOV      r5,r0
        0x0001ab5e:    b908        ..      CBNZ     r0,0x1ab64 ; core_bench_list + 248
        0x0001ab60:    6825        %h      LDR      r5,[r4,#0]
        0x0001ab62:    b15d        ].      CBZ      r5,0x1ab7c ; core_bench_list + 272
        0x0001ab64:    6860        `h      LDR      r0,[r4,#4]
        0x0001ab66:    b2b1        ..      UXTH     r1,r6
        0x0001ab68:    f9b00000    ....    LDRSH    r0,[r0,#0]
        0x0001ab6c:    f000fafa    ....    BL       crc16 ; 0x1b164
        0x0001ab70:    682d        -h      LDR      r5,[r5,#0]
        0x0001ab72:    4606        .F      MOV      r6,r0
        0x0001ab74:    2d00        .-      CMP      r5,#0
        0x0001ab76:    d1f5        ..      BNE      0x1ab64 ; core_bench_list + 248
        0x0001ab78:    f8d78004    ....    LDR      r8,[r7,#4]
        0x0001ab7c:    6820         h      LDR      r0,[r4,#0]
        0x0001ab7e:    e9d02100    ...!    LDRD     r2,r1,[r0,#0]
        0x0001ab82:    6079        y`      STR      r1,[r7,#4]
        0x0001ab84:    f64a2155    J.U!    MOV      r1,#0xaa55
        0x0001ab88:    f8c08004    ....    STR      r8,[r0,#4]
        0x0001ab8c:    603a        :`      STR      r2,[r7,#0]
        0x0001ab8e:    6007        .`      STR      r7,[r0,#0]
        0x0001ab90:    f2c00101    ....    MOVT     r1,#1
        0x0001ab94:    4620         F      MOV      r0,r4
        0x0001ab96:    2200        ."      MOVS     r2,#0
        0x0001ab98:    f000f9ec    ....    BL       core_list_mergesort ; 0x1af74
        0x0001ab9c:    6805        .h      LDR      r5,[r0,#0]
        0x0001ab9e:    b15d        ].      CBZ      r5,0x1abb8 ; core_bench_list + 332
        0x0001aba0:    4604        .F      MOV      r4,r0
        0x0001aba2:    bf00        ..      NOP      
        0x0001aba4:    6860        `h      LDR      r0,[r4,#4]
        0x0001aba6:    b2b1        ..      UXTH     r1,r6
        0x0001aba8:    f9b00000    ....    LDRSH    r0,[r0,#0]
        0x0001abac:    f000fada    ....    BL       crc16 ; 0x1b164
        0x0001abb0:    682d        -h      LDR      r5,[r5,#0]
        0x0001abb2:    4606        .F      MOV      r6,r0
        0x0001abb4:    2d00        .-      CMP      r5,#0
        0x0001abb6:    d1f5        ..      BNE      0x1aba4 ; core_bench_list + 312
        0x0001abb8:    b2b0        ..      UXTH     r0,r6
        0x0001abba:    b003        ..      ADD      sp,sp,#0xc
        0x0001abbc:    e8bd8ff0    ....    POP      {r4-r11,pc}
    core_bench_matrix
        0x0001abc0:    b5f0        ..      PUSH     {r4-r7,lr}
        0x0001abc2:    b081        ..      SUB      sp,sp,#4
        0x0001abc4:    4617        .F      MOV      r7,r2
        0x0001abc6:    e9d04200    ...B    LDRD     r4,r2,[r0,#0]
        0x0001abca:    e9d03502    ...5    LDRD     r3,r5,[r0,#8]
        0x0001abce:    460e        .F      MOV      r6,r1
        0x0001abd0:    4620         F      MOV      r0,r4
        0x0001abd2:    4629        )F      MOV      r1,r5
        0x0001abd4:    9600        ..      STR      r6,[sp,#0]
        0x0001abd6:    f001f85b    ..[.    BL       matrix_test ; 0x1bc90
        0x0001abda:    4639        9F      MOV      r1,r7
        0x0001abdc:    b001        ..      ADD      sp,sp,#4
        0x0001abde:    e8bd40f0    ...@    POP      {r4-r7,lr}
        0x0001abe2:    f000babf    ....    B.W      crc16 ; 0x1b164
        0x0001abe6:    0000        ..      MOVS     r0,r0
    core_bench_state
        0x0001abe8:    e92d4ff0    -..O    PUSH     {r4-r11,lr}
        0x0001abec:    b093        ..      SUB      sp,sp,#0x4c
        0x0001abee:    f10d0b0c    ....    ADD      r11,sp,#0xc
        0x0001abf2:    460e        .F      MOV      r6,r1
        0x0001abf4:    4682        .F      MOV      r10,r0
        0x0001abf6:    9102        ..      STR      r1,[sp,#8]
        0x0001abf8:    4658        XF      MOV      r0,r11
        0x0001abfa:    2120         !      MOVS     r1,#0x20
        0x0001abfc:    e9cd2300    ...#    STRD     r2,r3,[sp,#0]
        0x0001ac00:    f7fdfbc4    ....    BL       __aeabi_memclr4 ; 0x1838c
        0x0001ac04:    ad0b        ..      ADD      r5,sp,#0x2c
        0x0001ac06:    4628        (F      MOV      r0,r5
        0x0001ac08:    2120         !      MOVS     r1,#0x20
        0x0001ac0a:    f7fdfbbf    ....    BL       __aeabi_memclr4 ; 0x1838c
        0x0001ac0e:    7830        0x      LDRB     r0,[r6,#0]
        0x0001ac10:    b178        x.      CBZ      r0,0x1ac32 ; core_bench_state + 74
        0x0001ac12:    af02        ..      ADD      r7,sp,#8
        0x0001ac14:    ac03        ..      ADD      r4,sp,#0xc
        0x0001ac16:    bf00        ..      NOP      
        0x0001ac18:    4638        8F      MOV      r0,r7
        0x0001ac1a:    4621        !F      MOV      r1,r4
        0x0001ac1c:    f000fa12    ....    BL       core_state_transition ; 0x1b044
        0x0001ac20:    9902        ..      LDR      r1,[sp,#8]
        0x0001ac22:    f8552020    U.      LDR      r2,[r5,r0,LSL #2]
        0x0001ac26:    7809        .x      LDRB     r1,[r1,#0]
        0x0001ac28:    3201        .2      ADDS     r2,#1
        0x0001ac2a:    2900        .)      CMP      r1,#0
        0x0001ac2c:    f8452020    E.      STR      r2,[r5,r0,LSL #2]
        0x0001ac30:    d1f2        ..      BNE      0x1ac18 ; core_bench_state + 48
        0x0001ac32:    f8dd8070    ..p.    LDR      r8,[sp,#0x70]
        0x0001ac36:    f1ba0f01    ....    CMP      r10,#1
        0x0001ac3a:    eb06090a    ....    ADD      r9,r6,r10
        0x0001ac3e:    db0b        ..      BLT      0x1ac58 ; core_bench_state + 112
        0x0001ac40:    9800        ..      LDR      r0,[sp,#0]
        0x0001ac42:    4631        1F      MOV      r1,r6
        0x0001ac44:    b2c0        ..      UXTB     r0,r0
        0x0001ac46:    bf00        ..      NOP      
        0x0001ac48:    780a        .x      LDRB     r2,[r1,#0]
        0x0001ac4a:    2a2c        ,*      CMP      r2,#0x2c
        0x0001ac4c:    bf1c        ..      ITT      NE
        0x0001ac4e:    4042        B@      EORNE    r2,r2,r0
        0x0001ac50:    700a        .p      STRBNE   r2,[r1,#0]
        0x0001ac52:    4441        AD      ADD      r1,r1,r8
        0x0001ac54:    4549        IE      CMP      r1,r9
        0x0001ac56:    d3f7        ..      BCC      0x1ac48 ; core_bench_state + 96
        0x0001ac58:    7830        0x      LDRB     r0,[r6,#0]
        0x0001ac5a:    9602        ..      STR      r6,[sp,#8]
        0x0001ac5c:    b178        x.      CBZ      r0,0x1ac7e ; core_bench_state + 150
        0x0001ac5e:    af02        ..      ADD      r7,sp,#8
        0x0001ac60:    ac03        ..      ADD      r4,sp,#0xc
        0x0001ac62:    bf00        ..      NOP      
        0x0001ac64:    4638        8F      MOV      r0,r7
        0x0001ac66:    4621        !F      MOV      r1,r4
        0x0001ac68:    f000f9ec    ....    BL       core_state_transition ; 0x1b044
        0x0001ac6c:    9902        ..      LDR      r1,[sp,#8]
        0x0001ac6e:    f8552020    U.      LDR      r2,[r5,r0,LSL #2]
        0x0001ac72:    7809        .x      LDRB     r1,[r1,#0]
        0x0001ac74:    3201        .2      ADDS     r2,#1
        0x0001ac76:    2900        .)      CMP      r1,#0
        0x0001ac78:    f8452020    E.      STR      r2,[r5,r0,LSL #2]
        0x0001ac7c:    d1f2        ..      BNE      0x1ac64 ; core_bench_state + 124
        0x0001ac7e:    f1ba0f01    ....    CMP      r10,#1
        0x0001ac82:    db09        ..      BLT      0x1ac98 ; core_bench_state + 176
        0x0001ac84:    9801        ..      LDR      r0,[sp,#4]
        0x0001ac86:    b2c0        ..      UXTB     r0,r0
        0x0001ac88:    7831        1x      LDRB     r1,[r6,#0]
        0x0001ac8a:    292c        ,)      CMP      r1,#0x2c
        0x0001ac8c:    bf1c        ..      ITT      NE
        0x0001ac8e:    4041        A@      EORNE    r1,r1,r0
        0x0001ac90:    7031        1p      STRBNE   r1,[r6,#0]
        0x0001ac92:    4446        FD      ADD      r6,r6,r8
        0x0001ac94:    454e        NE      CMP      r6,r9
        0x0001ac96:    d3f7        ..      BCC      0x1ac88 ; core_bench_state + 160
        0x0001ac98:    981d        ..      LDR      r0,[sp,#0x74]
        0x0001ac9a:    2400        .$      MOVS     r4,#0
        0x0001ac9c:    f8552024    U.$     LDR      r2,[r5,r4,LSL #2]
        0x0001aca0:    b281        ..      UXTH     r1,r0
        0x0001aca2:    4610        .F      MOV      r0,r2
        0x0001aca4:    f000fa8a    ....    BL       crcu32 ; 0x1b1bc
        0x0001aca8:    f85b1024    [.$.    LDR      r1,[r11,r4,LSL #2]
        0x0001acac:    4602        .F      MOV      r2,r0
        0x0001acae:    4608        .F      MOV      r0,r1
        0x0001acb0:    4611        .F      MOV      r1,r2
        0x0001acb2:    f000fa83    ....    BL       crcu32 ; 0x1b1bc
        0x0001acb6:    3401        .4      ADDS     r4,#1
        0x0001acb8:    2c08        .,      CMP      r4,#8
        0x0001acba:    d1ef        ..      BNE      0x1ac9c ; core_bench_state + 180
        0x0001acbc:    b013        ..      ADD      sp,sp,#0x4c
        0x0001acbe:    e8bd8ff0    ....    POP      {r4-r11,pc}
        0x0001acc2:    0000        ..      MOVS     r0,r0
    core_init_matrix
        0x0001acc4:    e92d4ff0    -..O    PUSH     {r4-r11,lr}
        0x0001acc8:    b083        ..      SUB      sp,sp,#0xc
        0x0001acca:    2a00        .*      CMP      r2,#0
        0x0001accc:    9301        ..      STR      r3,[sp,#4]
        0x0001acce:    bf08        ..      IT       EQ
        0x0001acd0:    2201        ."      MOVEQ    r2,#1
        0x0001acd2:    b158        X.      CBZ      r0,0x1acec ; core_init_matrix + 40
        0x0001acd4:    4684        .F      MOV      r12,r0
        0x0001acd6:    f04f30ff    O..0    MOV      r0,#0xffffffff
        0x0001acda:    2708        .'      MOVS     r7,#8
        0x0001acdc:    1c86        ..      ADDS     r6,r0,#2
        0x0001acde:    437e        ~C      MULS     r6,r7,r6
        0x0001ace0:    3001        .0      ADDS     r0,#1
        0x0001ace2:    4566        fE      CMP      r6,r12
        0x0001ace4:    f1070708    ....    ADD      r7,r7,#8
        0x0001ace8:    d3f8        ..      BCC      0x1acdc ; core_init_matrix + 24
        0x0001acea:    e001        ..      B        0x1acf0 ; core_init_matrix + 44
        0x0001acec:    f04f30ff    O..0    MOV      r0,#0xffffffff
        0x0001acf0:    3103        .1      ADDS     r1,#3
        0x0001acf2:    f0210103    !...    BIC      r1,r1,#3
        0x0001acf6:    fb00f800    ....    MUL      r8,r0,r0
        0x0001acfa:    9102        ..      STR      r1,[sp,#8]
        0x0001acfc:    eb010148    ..H.    ADD      r1,r1,r8,LSL #1
        0x0001ad00:    9100        ..      STR      r1,[sp,#0]
        0x0001ad02:    b360        `.      CBZ      r0,0x1ad5e ; core_init_matrix + 154
        0x0001ad04:    9c02        ..      LDR      r4,[sp,#8]
        0x0001ad06:    ea4f0940    O.@.    LSL      r9,r0,#1
        0x0001ad0a:    ea4f0a48    O.H.    LSL      r10,r8,#1
        0x0001ad0e:    2601        .&      MOVS     r6,#1
        0x0001ad10:    f04f0b00    O...    MOV      r11,#0
        0x0001ad14:    f64f71ff    O..q    MOV      r1,#0xffff
        0x0001ad18:    eb04070a    ....    ADD      r7,r4,r10
        0x0001ad1c:    ea4f0c46    O.F.    LSL      r12,r6,#1
        0x0001ad20:    2500        .%      MOVS     r5,#0
        0x0001ad22:    bf00        ..      NOP      
        0x0001ad24:    eb060e05    ....    ADD      lr,r6,r5
        0x0001ad28:    fb02f20e    ....    MUL      r2,r2,lr
        0x0001ad2c:    17d3        ..      ASRS     r3,r2,#31
        0x0001ad2e:    eb024313    ...C    ADD      r3,r2,r3,LSR #16
        0x0001ad32:    438b        .C      BICS     r3,r3,r1
        0x0001ad34:    1ad2        ..      SUBS     r2,r2,r3
        0x0001ad36:    eb0e0302    ....    ADD      r3,lr,r2
        0x0001ad3a:    f8273015    '..0    STRH     r3,[r7,r5,LSL #1]
        0x0001ad3e:    eb0c0302    ....    ADD      r3,r12,r2
        0x0001ad42:    b2db        ..      UXTB     r3,r3
        0x0001ad44:    f8243015    $..0    STRH     r3,[r4,r5,LSL #1]
        0x0001ad48:    3501        .5      ADDS     r5,#1
        0x0001ad4a:    42a8        .B      CMP      r0,r5
        0x0001ad4c:    f10c0c02    ....    ADD      r12,r12,#2
        0x0001ad50:    d1e8        ..      BNE      0x1ad24 ; core_init_matrix + 96
        0x0001ad52:    f10b0b01    ....    ADD      r11,r11,#1
        0x0001ad56:    444c        LD      ADD      r4,r4,r9
        0x0001ad58:    4583        .E      CMP      r11,r0
        0x0001ad5a:    442e        .D      ADD      r6,r6,r5
        0x0001ad5c:    d1dc        ..      BNE      0x1ad18 ; core_init_matrix + 84
        0x0001ad5e:    9f00        ..      LDR      r7,[sp,#0]
        0x0001ad60:    9a01        ..      LDR      r2,[sp,#4]
        0x0001ad62:    eb070148    ..H.    ADD      r1,r7,r8,LSL #1
        0x0001ad66:    3103        .1      ADDS     r1,#3
        0x0001ad68:    9b02        ..      LDR      r3,[sp,#8]
        0x0001ad6a:    f0210103    !...    BIC      r1,r1,#3
        0x0001ad6e:    6010        .`      STR      r0,[r2,#0]
        0x0001ad70:    e9c23701    ...7    STRD     r3,r7,[r2,#4]
        0x0001ad74:    60d1        .`      STR      r1,[r2,#0xc]
        0x0001ad76:    b003        ..      ADD      sp,sp,#0xc
        0x0001ad78:    e8bd8ff0    ....    POP      {r4-r11,pc}
    core_init_state
        0x0001ad7c:    e92d4ff0    -..O    PUSH     {r4-r11,lr}
        0x0001ad80:    b081        ..      SUB      sp,sp,#4
        0x0001ad82:    f1a00c01    ....    SUB      r12,r0,#1
        0x0001ad86:    f1bc0f02    ....    CMP      r12,#2
        0x0001ad8a:    9000        ..      STR      r0,[sp,#0]
        0x0001ad8c:    d32a        *.      BCC      0x1ade4 ; core_init_state + 104
        0x0001ad8e:    2700        .'      MOVS     r7,#0
        0x0001ad90:    f20f0e6c    ..l.    ADR.W    lr,{pc}+0x70 ; 0x1ae00
        0x0001ad94:    f20f0988    ....    ADR.W    r9,{pc}+0x8c ; 0x1ae20
        0x0001ad98:    f04f0a0c    O...    MOV      r10,#0xc
        0x0001ad9c:    202c        ,       MOVS     r0,#0x2c
        0x0001ad9e:    2300        .#      MOVS     r3,#0
        0x0001ada0:    f04f0b00    O...    MOV      r11,#0
        0x0001ada4:    b173        s.      CBZ      r3,0x1adc4 ; core_init_state + 72
        0x0001ada6:    eb02050b    ....    ADD      r5,r2,r11
        0x0001adaa:    462c        ,F      MOV      r4,r5
        0x0001adac:    461e        .F      MOV      r6,r3
        0x0001adae:    bf00        ..      NOP      
        0x0001adb0:    f8178b01    ....    LDRB     r8,[r7],#1
        0x0001adb4:    3e01        .>      SUBS     r6,#1
        0x0001adb6:    f8048b01    ....    STRB     r8,[r4],#1
        0x0001adba:    d1f9        ..      BNE      0x1adb0 ; core_init_state + 52
        0x0001adbc:    54e8        .T      STRB     r0,[r5,r3]
        0x0001adbe:    445b        [D      ADD      r3,r3,r11
        0x0001adc0:    f1030b01    ....    ADD      r11,r3,#1
        0x0001adc4:    3101        .1      ADDS     r1,#1
        0x0001adc6:    f0010307    ....    AND      r3,r1,#7
        0x0001adca:    f85e4023    ^.#@    LDR      r4,[lr,r3,LSL #2]
        0x0001adce:    f8593023    Y.#0    LDR      r3,[r9,r3,LSL #2]
        0x0001add2:    ea0a0551    ..Q.    AND      r5,r10,r1,LSR #1
        0x0001add6:    5967        gY      LDR      r7,[r4,r5]
        0x0001add8:    eb0b0403    ....    ADD      r4,r11,r3
        0x0001addc:    3401        .4      ADDS     r4,#1
        0x0001adde:    4564        dE      CMP      r4,r12
        0x0001ade0:    d3e0        ..      BCC      0x1ada4 ; core_init_state + 40
        0x0001ade2:    e001        ..      B        0x1ade8 ; core_init_state + 108
        0x0001ade4:    f04f0b00    O...    MOV      r11,#0
        0x0001ade8:    9800        ..      LDR      r0,[sp,#0]
        0x0001adea:    4583        .E      CMP      r11,r0
        0x0001adec:    d205        ..      BCS      0x1adfa ; core_init_state + 126
        0x0001adee:    445a        ZD      ADD      r2,r2,r11
        0x0001adf0:    eba0010b    ....    SUB      r1,r0,r11
        0x0001adf4:    4610        .F      MOV      r0,r2
        0x0001adf6:    f7fdfaa7    ....    BL       __aeabi_memclr ; 0x18348
        0x0001adfa:    b001        ..      ADD      sp,sp,#4
        0x0001adfc:    e8bd8ff0    ....    POP      {r4-r11,pc}
    $d.5
        0x0001ae00:    0001d020     ...    DCD    118816
        0x0001ae04:    0001d020     ...    DCD    118816
        0x0001ae08:    0001d020     ...    DCD    118816
        0x0001ae0c:    0001cf70    p...    DCD    118640
        0x0001ae10:    0001cf70    p...    DCD    118640
        0x0001ae14:    0001d060    `...    DCD    118880
        0x0001ae18:    0001d060    `...    DCD    118880
        0x0001ae1c:    0001cf60    `...    DCD    118624
        0x0001ae20:    00000004    ....    DCD    4
        0x0001ae24:    00000004    ....    DCD    4
        0x0001ae28:    00000004    ....    DCD    4
        0x0001ae2c:    00000008    ....    DCD    8
        0x0001ae30:    00000008    ....    DCD    8
        0x0001ae34:    00000008    ....    DCD    8
        0x0001ae38:    00000008    ....    DCD    8
        0x0001ae3c:    00000008    ....    DCD    8
    $t.5
    core_list_find
        0x0001ae40:    f9b12002    ...     LDRSH    r2,[r1,#2]
        0x0001ae44:    f1b23fff    ...?    CMP      r2,#0xffffffff
        0x0001ae48:    dd0b        ..      BLE      0x1ae62 ; core_list_find + 34
        0x0001ae4a:    b1a0        ..      CBZ      r0,0x1ae76 ; core_list_find + 54
        0x0001ae4c:    b291        ..      UXTH     r1,r2
        0x0001ae4e:    bf00        ..      NOP      
        0x0001ae50:    6842        Bh      LDR      r2,[r0,#4]
        0x0001ae52:    8852        R.      LDRH     r2,[r2,#2]
        0x0001ae54:    428a        .B      CMP      r2,r1
        0x0001ae56:    bf08        ..      IT       EQ
        0x0001ae58:    4770        pG      BXEQ     lr
        0x0001ae5a:    6800        .h      LDR      r0,[r0,#0]
        0x0001ae5c:    2800        .(      CMP      r0,#0
        0x0001ae5e:    d1f7        ..      BNE      0x1ae50 ; core_list_find + 16
        0x0001ae60:    e009        ..      B        0x1ae76 ; core_list_find + 54
        0x0001ae62:    b140        @.      CBZ      r0,0x1ae76 ; core_list_find + 54
        0x0001ae64:    f9b11000    ....    LDRSH    r1,[r1,#0]
        0x0001ae68:    6842        Bh      LDR      r2,[r0,#4]
        0x0001ae6a:    7812        .x      LDRB     r2,[r2,#0]
        0x0001ae6c:    428a        .B      CMP      r2,r1
        0x0001ae6e:    d003        ..      BEQ      0x1ae78 ; core_list_find + 56
        0x0001ae70:    6800        .h      LDR      r0,[r0,#0]
        0x0001ae72:    2800        .(      CMP      r0,#0
        0x0001ae74:    d1f8        ..      BNE      0x1ae68 ; core_list_find + 40
        0x0001ae76:    2000        .       MOVS     r0,#0
        0x0001ae78:    4770        pG      BX       lr
        0x0001ae7a:    0000        ..      MOVS     r0,r0
    core_list_init
        0x0001ae7c:    e92d4ff0    -..O    PUSH     {r4-r11,lr}
        0x0001ae80:    4686        .F      MOV      lr,r0
        0x0001ae82:    f64c40cd    L..@    MOV      r0,#0xcccd
        0x0001ae86:    f6cc40cc    ...@    MOVT     r0,#0xcccc
        0x0001ae8a:    fbae0300    ....    UMULL    r0,r3,lr,r0
        0x0001ae8e:    4608        .F      MOV      r0,r1
        0x0001ae90:    f06f0101    o...    MVN      r1,#1
        0x0001ae94:    eb011a13    ....    ADD      r10,r1,r3,LSR #4
        0x0001ae98:    eb0008ca    ....    ADD      r8,r0,r10,LSL #3
        0x0001ae9c:    2100        .!      MOVS     r1,#0
        0x0001ae9e:    f2480380    H...    MOV      r3,#0x8080
        0x0001aea2:    4647        GF      MOV      r7,r8
        0x0001aea4:    eb08098a    ....    ADD      r9,r8,r10,LSL #2
        0x0001aea8:    e9c01800    ....    STRD     r1,r8,[r0,#0]
        0x0001aeac:    f8473b08    G..;    STR      r3,[r7],#8
        0x0001aeb0:    f1000308    ....    ADD      r3,r0,#8
        0x0001aeb4:    f1be0f64    ..d.    CMP      lr,#0x64
        0x0001aeb8:    f1080b04    ....    ADD      r11,r8,#4
        0x0001aebc:    bf28        (.      IT       CS
        0x0001aebe:    45b9        .E      CMPCS    r9,r7
        0x0001aec0:    d90b        ..      BLS      0x1aeda ; core_list_init + 94
        0x0001aec2:    2600        .&      MOVS     r6,#0
        0x0001aec4:    e9c06b02    ...k    STRD     r6,r11,[r0,#8]
        0x0001aec8:    f06f4600    o..F    MVN      r6,#0x80000000
        0x0001aecc:    6003        .`      STR      r3,[r0,#0]
        0x0001aece:    4619        .F      MOV      r1,r3
        0x0001aed0:    f1000310    ....    ADD      r3,r0,#0x10
        0x0001aed4:    f8cb6000    ...`    STR      r6,[r11,#0]
        0x0001aed8:    46bb        .F      MOV      r11,r7
        0x0001aeda:    f1ba0f00    ....    CMP      r10,#0
        0x0001aede:    d021        !.      BEQ      0x1af24 ; core_list_init + 168
        0x0001aee0:    2700        .'      MOVS     r7,#0
        0x0001aee2:    f6477eff    G..~    MOV      lr,#0x7fff
        0x0001aee6:    bf00        ..      NOP      
        0x0001aee8:    f10b0404    ....    ADD      r4,r11,#4
        0x0001aeec:    454c        LE      CMP      r4,r9
        0x0001aeee:    d216        ..      BCS      0x1af1e ; core_list_init + 162
        0x0001aef0:    f1030608    ....    ADD      r6,r3,#8
        0x0001aef4:    4546        FE      CMP      r6,r8
        0x0001aef6:    d212        ..      BCS      0x1af1e ; core_list_init + 162
        0x0001aef8:    ea870502    ....    EOR      r5,r7,r2
        0x0001aefc:    f0070c07    ....    AND      r12,r7,#7
        0x0001af00:    f3650cc6    e...    BFI      r12,r5,#3,#4
        0x0001af04:    ea4c250c    L..%    ORR      r5,r12,r12,LSL #8
        0x0001af08:    6019        .`      STR      r1,[r3,#0]
        0x0001af0a:    6003        .`      STR      r3,[r0,#0]
        0x0001af0c:    f8c3b004    ....    STR      r11,[r3,#4]
        0x0001af10:    f8ab5000    ...P    STRH     r5,[r11,#0]
        0x0001af14:    f8abe002    ....    STRH     lr,[r11,#2]
        0x0001af18:    4619        .F      MOV      r1,r3
        0x0001af1a:    46a3        .F      MOV      r11,r4
        0x0001af1c:    4633        3F      MOV      r3,r6
        0x0001af1e:    3701        .7      ADDS     r7,#1
        0x0001af20:    45ba        .E      CMP      r10,r7
        0x0001af22:    d1e1        ..      BNE      0x1aee8 ; core_list_init + 108
        0x0001af24:    680e        .h      LDR      r6,[r1,#0]
        0x0001af26:    b1de        ..      CBZ      r6,0x1af60 ; core_list_init + 228
        0x0001af28:    f64c43cd    L..C    MOV      r3,#0xcccd
        0x0001af2c:    f6cc43cc    ...C    MOVT     r3,#0xcccc
        0x0001af30:    fbaa3703    ...7    UMULL    r3,r7,r10,r3
        0x0001af34:    ea4f0c97    O...    LSR      r12,r7,#2
        0x0001af38:    2701        .'      MOVS     r7,#1
        0x0001af3a:    bf00        ..      NOP      
        0x0001af3c:    1c7d        }.      ADDS     r5,r7,#1
        0x0001af3e:    ea870402    ....    EOR      r4,r7,r2
        0x0001af42:    f0050307    ....    AND      r3,r5,#7
        0x0001af46:    f36f349f    o..4    BFC      r4,#14,#18
        0x0001af4a:    4567        gE      CMP      r7,r12
        0x0001af4c:    bf28        (.      IT       CS
        0x0001af4e:    ea442703    D..'    ORRCS    r7,r4,r3,LSL #8
        0x0001af52:    684b        Kh      LDR      r3,[r1,#4]
        0x0001af54:    4631        1F      MOV      r1,r6
        0x0001af56:    6836        6h      LDR      r6,[r6,#0]
        0x0001af58:    805f        _.      STRH     r7,[r3,#2]
        0x0001af5a:    2e00        ..      CMP      r6,#0
        0x0001af5c:    462f        /F      MOV      r7,r5
        0x0001af5e:    d1ed        ..      BNE      0x1af3c ; core_list_init + 192
        0x0001af60:    f64a2155    J.U!    MOV      r1,#0xaa55
        0x0001af64:    f2c00101    ....    MOVT     r1,#1
        0x0001af68:    2200        ."      MOVS     r2,#0
        0x0001af6a:    e8bd4ff0    ...O    POP      {r4-r11,lr}
        0x0001af6e:    f000b801    ....    B.W      core_list_mergesort ; 0x1af74
        0x0001af72:    0000        ..      MOVS     r0,r0
    core_list_mergesort
        0x0001af74:    e92d4ff0    -..O    PUSH     {r4-r11,lr}
        0x0001af78:    b083        ..      SUB      sp,sp,#0xc
        0x0001af7a:    4614        .F      MOV      r4,r2
        0x0001af7c:    460d        .F      MOV      r5,r1
        0x0001af7e:    f04f0801    O...    MOV      r8,#1
        0x0001af82:    bf00        ..      NOP      
        0x0001af84:    4681        .F      MOV      r9,r0
        0x0001af86:    2000        .       MOVS     r0,#0
        0x0001af88:    2100        .!      MOVS     r1,#0
        0x0001af8a:    2600        .&      MOVS     r6,#0
        0x0001af8c:    9002        ..      STR      r0,[sp,#8]
        0x0001af8e:    bf00        ..      NOP      
        0x0001af90:    2700        .'      MOVS     r7,#0
        0x0001af92:    4648        HF      MOV      r0,r9
        0x0001af94:    f1b80f01    ....    CMP      r8,#1
        0x0001af98:    db09        ..      BLT      0x1afae ; core_list_mergesort + 58
        0x0001af9a:    bf00        ..      NOP      
        0x0001af9c:    6800        .h      LDR      r0,[r0,#0]
        0x0001af9e:    3701        .7      ADDS     r7,#1
        0x0001afa0:    b120         .      CBZ      r0,0x1afac ; core_list_mergesort + 56
        0x0001afa2:    45b8        .E      CMP      r8,r7
        0x0001afa4:    d1fa        ..      BNE      0x1af9c ; core_list_mergesort + 40
        0x0001afa6:    4647        GF      MOV      r7,r8
        0x0001afa8:    e001        ..      B        0x1afae ; core_list_mergesort + 58
        0x0001afaa:    bf00        ..      NOP      
        0x0001afac:    2000        .       MOVS     r0,#0
        0x0001afae:    9100        ..      STR      r1,[sp,#0]
        0x0001afb0:    3101        .1      ADDS     r1,#1
        0x0001afb2:    9101        ..      STR      r1,[sp,#4]
        0x0001afb4:    4649        IF      MOV      r1,r9
        0x0001afb6:    46c3        .F      MOV      r11,r8
        0x0001afb8:    468a        .F      MOV      r10,r1
        0x0001afba:    4681        .F      MOV      r9,r0
        0x0001afbc:    2f00        ./      CMP      r7,#0
        0x0001afbe:    dc06        ..      BGT      0x1afce ; core_list_mergesort + 90
        0x0001afc0:    f1b90f00    ....    CMP      r9,#0
        0x0001afc4:    d02e        ..      BEQ      0x1b024 ; core_list_mergesort + 176
        0x0001afc6:    f1bb0f01    ....    CMP      r11,#1
        0x0001afca:    db2b        +.      BLT      0x1b024 ; core_list_mergesort + 176
        0x0001afcc:    b1c7        ..      CBZ      r7,0x1b000 ; core_list_mergesort + 140
        0x0001afce:    f1b90f00    ....    CMP      r9,#0
        0x0001afd2:    bf18        ..      IT       NE
        0x0001afd4:    f1bb0f00    ....    CMPNE    r11,#0
        0x0001afd8:    d00c        ..      BEQ      0x1aff4 ; core_list_mergesort + 128
        0x0001afda:    f8da0004    ....    LDR      r0,[r10,#4]
        0x0001afde:    f8d91004    ....    LDR      r1,[r9,#4]
        0x0001afe2:    4622        "F      MOV      r2,r4
        0x0001afe4:    47a8        .G      BLX      r5
        0x0001afe6:    2800        .(      CMP      r0,#0
        0x0001afe8:    dd04        ..      BLE      0x1aff4 ; core_list_mergesort + 128
        0x0001afea:    f8d90000    ....    LDR      r0,[r9,#0]
        0x0001afee:    f1ab0b01    ....    SUB      r11,r11,#1
        0x0001aff2:    e00a        ..      B        0x1b00a ; core_list_mergesort + 150
        0x0001aff4:    f8da1000    ....    LDR      r1,[r10,#0]
        0x0001aff8:    3f01        .?      SUBS     r7,#1
        0x0001affa:    4648        HF      MOV      r0,r9
        0x0001affc:    4652        RF      MOV      r2,r10
        0x0001affe:    e006        ..      B        0x1b00e ; core_list_mergesort + 154
        0x0001b000:    f8d90000    ....    LDR      r0,[r9,#0]
        0x0001b004:    f1ab0b01    ....    SUB      r11,r11,#1
        0x0001b008:    2700        .'      MOVS     r7,#0
        0x0001b00a:    4651        QF      MOV      r1,r10
        0x0001b00c:    464a        JF      MOV      r2,r9
        0x0001b00e:    b12e        ..      CBZ      r6,0x1b01c ; core_list_mergesort + 168
        0x0001b010:    6032        2`      STR      r2,[r6,#0]
        0x0001b012:    468a        .F      MOV      r10,r1
        0x0001b014:    4681        .F      MOV      r9,r0
        0x0001b016:    4616        .F      MOV      r6,r2
        0x0001b018:    e7d0        ..      B        0x1afbc ; core_list_mergesort + 72
        0x0001b01a:    bf00        ..      NOP      
        0x0001b01c:    4613        .F      MOV      r3,r2
        0x0001b01e:    9202        ..      STR      r2,[sp,#8]
        0x0001b020:    4616        .F      MOV      r6,r2
        0x0001b022:    e7c9        ..      B        0x1afb8 ; core_list_mergesort + 68
        0x0001b024:    9901        ..      LDR      r1,[sp,#4]
        0x0001b026:    f1b90f00    ....    CMP      r9,#0
        0x0001b02a:    d1b1        ..      BNE      0x1af90 ; core_list_mergesort + 28
        0x0001b02c:    2000        .       MOVS     r0,#0
        0x0001b02e:    6030        0`      STR      r0,[r6,#0]
        0x0001b030:    9800        ..      LDR      r0,[sp,#0]
        0x0001b032:    ea4f0848    O.H.    LSL      r8,r8,#1
        0x0001b036:    2800        .(      CMP      r0,#0
        0x0001b038:    9802        ..      LDR      r0,[sp,#8]
        0x0001b03a:    d1a3        ..      BNE      0x1af84 ; core_list_mergesort + 16
        0x0001b03c:    b003        ..      ADD      sp,sp,#0xc
        0x0001b03e:    e8bd8ff0    ....    POP      {r4-r11,pc}
        0x0001b042:    0000        ..      MOVS     r0,r0
    core_state_transition
        0x0001b044:    b580        ..      PUSH     {r7,lr}
        0x0001b046:    f8d0e000    ....    LDR      lr,[r0,#0]
        0x0001b04a:    4684        .F      MOV      r12,r0
        0x0001b04c:    f89e2000    ...     LDRB     r2,[lr,#0]
        0x0001b050:    2a00        .*      CMP      r2,#0
        0x0001b052:    d06e        n.      BEQ      0x1b132 ; core_state_transition + 238
        0x0001b054:    f10e0e01    ....    ADD      lr,lr,#1
        0x0001b058:    2000        .       MOVS     r0,#0
        0x0001b05a:    bf00        ..      NOP      
        0x0001b05c:    2a2c        ,*      CMP      r2,#0x2c
        0x0001b05e:    f000807d    ..}.    BEQ.W    0x1b15c ; core_state_transition + 280
        0x0001b062:    2807        .(      CMP      r0,#7
        0x0001b064:    d858        X.      BHI      0x1b118 ; core_state_transition + 212
        0x0001b066:    e8dff000    ....    TBB      [pc,r0]
    $d.2
        0x0001b06a:    5704        .W      DCW    22276
        0x0001b06c:    2c261d12    ..&,    DCD    740695314
        0x0001b070:    3c35        5<      DCW    15413
    $t.3
        0x0001b072:    f1a20030    ..0.    SUB      r0,r2,#0x30
        0x0001b076:    280a        .(      CMP      r0,#0xa
        0x0001b078:    d339        9.      BCC      0x1b0ee ; core_state_transition + 170
        0x0001b07a:    2a2b        +*      CMP      r2,#0x2b
        0x0001b07c:    f04f0002    O...    MOV      r0,#2
        0x0001b080:    bf18        ..      IT       NE
        0x0001b082:    2a2d        -*      CMPNE    r2,#0x2d
        0x0001b084:    d034        4.      BEQ      0x1b0f0 ; core_state_transition + 172
        0x0001b086:    2a2e        .*      CMP      r2,#0x2e
        0x0001b088:    d14e        N.      BNE      0x1b128 ; core_state_transition + 228
        0x0001b08a:    2005        .       MOVS     r0,#5
        0x0001b08c:    e030        0.      B        0x1b0f0 ; core_state_transition + 172
        0x0001b08e:    f1a20030    ..0.    SUB      r0,r2,#0x30
        0x0001b092:    2809        .(      CMP      r0,#9
        0x0001b094:    d930        0.      BLS      0x1b0f8 ; core_state_transition + 180
        0x0001b096:    6888        .h      LDR      r0,[r1,#8]
        0x0001b098:    2a2e        .*      CMP      r2,#0x2e
        0x0001b09a:    f1000001    ....    ADD      r0,r0,#1
        0x0001b09e:    6088        .`      STR      r0,[r1,#8]
        0x0001b0a0:    d038        8.      BEQ      0x1b114 ; core_state_transition + 208
        0x0001b0a2:    e05a        Z.      B        0x1b15a ; core_state_transition + 278
        0x0001b0a4:    2a2d        -*      CMP      r2,#0x2d
        0x0001b0a6:    d001        ..      BEQ      0x1b0ac ; core_state_transition + 104
        0x0001b0a8:    2a2b        +*      CMP      r2,#0x2b
        0x0001b0aa:    d14b        K.      BNE      0x1b144 ; core_state_transition + 256
        0x0001b0ac:    68c8        .h      LDR      r0,[r1,#0xc]
        0x0001b0ae:    3001        .0      ADDS     r0,#1
        0x0001b0b0:    60c8        .`      STR      r0,[r1,#0xc]
        0x0001b0b2:    2006        .       MOVS     r0,#6
        0x0001b0b4:    e030        0.      B        0x1b118 ; core_state_transition + 212
        0x0001b0b6:    2a2e        .*      CMP      r2,#0x2e
        0x0001b0b8:    d122        ".      BNE      0x1b100 ; core_state_transition + 188
        0x0001b0ba:    6908        .i      LDR      r0,[r1,#0x10]
        0x0001b0bc:    3001        .0      ADDS     r0,#1
        0x0001b0be:    6108        .a      STR      r0,[r1,#0x10]
        0x0001b0c0:    e028        (.      B        0x1b114 ; core_state_transition + 208
        0x0001b0c2:    f0420020    B. .    ORR      r0,r2,#0x20
        0x0001b0c6:    2865        e(      CMP      r0,#0x65
        0x0001b0c8:    d120         .      BNE      0x1b10c ; core_state_transition + 200
        0x0001b0ca:    6948        Hi      LDR      r0,[r1,#0x14]
        0x0001b0cc:    3001        .0      ADDS     r0,#1
        0x0001b0ce:    6148        Ha      STR      r0,[r1,#0x14]
        0x0001b0d0:    2003        .       MOVS     r0,#3
        0x0001b0d2:    e021        !.      B        0x1b118 ; core_state_transition + 212
        0x0001b0d4:    6988        .i      LDR      r0,[r1,#0x18]
        0x0001b0d6:    3a30        0:      SUBS     r2,r2,#0x30
        0x0001b0d8:    3001        .0      ADDS     r0,#1
        0x0001b0da:    2a09        .*      CMP      r2,#9
        0x0001b0dc:    6188        .a      STR      r0,[r1,#0x18]
        0x0001b0de:    d904        ..      BLS      0x1b0ea ; core_state_transition + 166
        0x0001b0e0:    e03b        ;.      B        0x1b15a ; core_state_transition + 278
        0x0001b0e2:    f1a20030    ..0.    SUB      r0,r2,#0x30
        0x0001b0e6:    280a        .(      CMP      r0,#0xa
        0x0001b0e8:    d228        (.      BCS      0x1b13c ; core_state_transition + 248
        0x0001b0ea:    2007        .       MOVS     r0,#7
        0x0001b0ec:    e014        ..      B        0x1b118 ; core_state_transition + 212
        0x0001b0ee:    2004        .       MOVS     r0,#4
        0x0001b0f0:    680a        .h      LDR      r2,[r1,#0]
        0x0001b0f2:    3201        .2      ADDS     r2,#1
        0x0001b0f4:    600a        .`      STR      r2,[r1,#0]
        0x0001b0f6:    e00f        ..      B        0x1b118 ; core_state_transition + 212
        0x0001b0f8:    6888        .h      LDR      r0,[r1,#8]
        0x0001b0fa:    3001        .0      ADDS     r0,#1
        0x0001b0fc:    6088        .`      STR      r0,[r1,#8]
        0x0001b0fe:    e003        ..      B        0x1b108 ; core_state_transition + 196
        0x0001b100:    f1a20030    ..0.    SUB      r0,r2,#0x30
        0x0001b104:    280a        .(      CMP      r0,#0xa
        0x0001b106:    d221        !.      BCS      0x1b14c ; core_state_transition + 264
        0x0001b108:    2004        .       MOVS     r0,#4
        0x0001b10a:    e005        ..      B        0x1b118 ; core_state_transition + 212
        0x0001b10c:    f1a20030    ..0.    SUB      r0,r2,#0x30
        0x0001b110:    280a        .(      CMP      r0,#0xa
        0x0001b112:    d21f        ..      BCS      0x1b154 ; core_state_transition + 272
        0x0001b114:    2005        .       MOVS     r0,#5
        0x0001b116:    bf00        ..      NOP      
        0x0001b118:    f81e2b01    ...+    LDRB     r2,[lr],#1
        0x0001b11c:    2801        .(      CMP      r0,#1
        0x0001b11e:    bf18        ..      IT       NE
        0x0001b120:    2a00        .*      CMPNE    r2,#0
        0x0001b122:    f47faf9b    ....    BNE.W    0x1b05c ; core_state_transition + 24
        0x0001b126:    e006        ..      B        0x1b136 ; core_state_transition + 242
        0x0001b128:    6848        Hh      LDR      r0,[r1,#4]
        0x0001b12a:    3001        .0      ADDS     r0,#1
        0x0001b12c:    6048        H`      STR      r0,[r1,#4]
        0x0001b12e:    2001        .       MOVS     r0,#1
        0x0001b130:    e7de        ..      B        0x1b0f0 ; core_state_transition + 172
        0x0001b132:    2000        .       MOVS     r0,#0
        0x0001b134:    e012        ..      B        0x1b15c ; core_state_transition + 280
        0x0001b136:    f1ae0e01    ....    SUB      lr,lr,#1
        0x0001b13a:    e00f        ..      B        0x1b15c ; core_state_transition + 280
        0x0001b13c:    6848        Hh      LDR      r0,[r1,#4]
        0x0001b13e:    3001        .0      ADDS     r0,#1
        0x0001b140:    6048        H`      STR      r0,[r1,#4]
        0x0001b142:    e00a        ..      B        0x1b15a ; core_state_transition + 278
        0x0001b144:    68c8        .h      LDR      r0,[r1,#0xc]
        0x0001b146:    3001        .0      ADDS     r0,#1
        0x0001b148:    60c8        .`      STR      r0,[r1,#0xc]
        0x0001b14a:    e006        ..      B        0x1b15a ; core_state_transition + 278
        0x0001b14c:    6908        .i      LDR      r0,[r1,#0x10]
        0x0001b14e:    3001        .0      ADDS     r0,#1
        0x0001b150:    6108        .a      STR      r0,[r1,#0x10]
        0x0001b152:    e002        ..      B        0x1b15a ; core_state_transition + 278
        0x0001b154:    6948        Hi      LDR      r0,[r1,#0x14]
        0x0001b156:    3001        .0      ADDS     r0,#1
        0x0001b158:    6148        Ha      STR      r0,[r1,#0x14]
        0x0001b15a:    2001        .       MOVS     r0,#1
        0x0001b15c:    b2c0        ..      UXTB     r0,r0
        0x0001b15e:    f8cce000    ....    STR      lr,[r12,#0]
        0x0001b162:    bd80        ..      POP      {r7,pc}
    crc16
        0x0001b164:    b280        ..      UXTH     r0,r0
        0x0001b166:    f000b801    ....    B.W      crcu16 ; 0x1b16c
        0x0001b16a:    0000        ..      MOVS     r0,r0
    crcu16
        0x0001b16c:    b510        ..      PUSH     {r4,lr}
        0x0001b16e:    f24a0c01    J...    MOV      r12,#0xa001
        0x0001b172:    b2c3        ..      UXTB     r3,r0
        0x0001b174:    2400        .$      MOVS     r4,#0
        0x0001b176:    bf00        ..      NOP      
        0x0001b178:    ea830e01    ....    EOR      lr,r3,r1
        0x0001b17c:    f3c1014e    ..N.    UBFX     r1,r1,#1,#15
        0x0001b180:    ea5f72ce    _..r    LSLS     r2,lr,#31
        0x0001b184:    ea4f0353    O.S.    LSR      r3,r3,#1
        0x0001b188:    bf18        ..      IT       NE
        0x0001b18a:    ea81010c    ....    EORNE    r1,r1,r12
        0x0001b18e:    2c07        .,      CMP      r4,#7
        0x0001b190:    f1040401    ....    ADD      r4,r4,#1
        0x0001b194:    d3f0        ..      BCC      0x1b178 ; crcu16 + 12
        0x0001b196:    0a00        ..      LSRS     r0,r0,#8
        0x0001b198:    2200        ."      MOVS     r2,#0
        0x0001b19a:    bf00        ..      NOP      
        0x0001b19c:    ea800301    ....    EOR      r3,r0,r1
        0x0001b1a0:    f3c1014e    ..N.    UBFX     r1,r1,#1,#15
        0x0001b1a4:    07db        ..      LSLS     r3,r3,#31
        0x0001b1a6:    ea4f0050    O.P.    LSR      r0,r0,#1
        0x0001b1aa:    bf18        ..      IT       NE
        0x0001b1ac:    ea81010c    ....    EORNE    r1,r1,r12
        0x0001b1b0:    2a07        .*      CMP      r2,#7
        0x0001b1b2:    f1020201    ....    ADD      r2,r2,#1
        0x0001b1b6:    d3f1        ..      BCC      0x1b19c ; crcu16 + 48
        0x0001b1b8:    4608        .F      MOV      r0,r1
        0x0001b1ba:    bd10        ..      POP      {r4,pc}
    crcu32
        0x0001b1bc:    b510        ..      PUSH     {r4,lr}
        0x0001b1be:    4604        .F      MOV      r4,r0
        0x0001b1c0:    b280        ..      UXTH     r0,r0
        0x0001b1c2:    f7ffffd3    ....    BL       crcu16 ; 0x1b16c
        0x0001b1c6:    4601        .F      MOV      r1,r0
        0x0001b1c8:    0c20         .      LSRS     r0,r4,#16
        0x0001b1ca:    e8bd4010    ...@    POP      {r4,lr}
        0x0001b1ce:    f7ffbfcd    ....    B.W      crcu16 ; 0x1b16c
        0x0001b1d2:    0000        ..      MOVS     r0,r0
    decstr_to_int
        0x0001b1d4:    b510        ..      PUSH     {r4,lr}
        0x0001b1d6:    4603        .F      MOV      r3,r0
        0x0001b1d8:    f813cb01    ....    LDRB     r12,[r3],#1
        0x0001b1dc:    f1bc0e2d    ..-.    SUBS     lr,r12,#0x2d
        0x0001b1e0:    bf18        ..      IT       NE
        0x0001b1e2:    4603        .F      MOVNE    r3,r0
        0x0001b1e4:    781a        .x      LDRB     r2,[r3,#0]
        0x0001b1e6:    fabefe8e    ....    CLZ      lr,lr
        0x0001b1ea:    f1a20030    ..0.    SUB      r0,r2,#0x30
        0x0001b1ee:    2809        .(      CMP      r0,#9
        0x0001b1f0:    ea4f1e5e    O.^.    LSR      lr,lr,#5
        0x0001b1f4:    d811        ..      BHI      0x1b21a ; decstr_to_int + 70
        0x0001b1f6:    3301        .3      ADDS     r3,#1
        0x0001b1f8:    2000        .       MOVS     r0,#0
        0x0001b1fa:    bf00        ..      NOP      
        0x0001b1fc:    eb000080    ....    ADD      r0,r0,r0,LSL #2
        0x0001b200:    eb020040    ..@.    ADD      r0,r2,r0,LSL #1
        0x0001b204:    f8132b01    ...+    LDRB     r2,[r3],#1
        0x0001b208:    f10e0e01    ....    ADD      lr,lr,#1
        0x0001b20c:    f1a20430    ..0.    SUB      r4,r2,#0x30
        0x0001b210:    2c0a        .,      CMP      r4,#0xa
        0x0001b212:    f1a00030    ..0.    SUB      r0,r0,#0x30
        0x0001b216:    d3f1        ..      BCC      0x1b1fc ; decstr_to_int + 40
        0x0001b218:    e000        ..      B        0x1b21c ; decstr_to_int + 72
        0x0001b21a:    2000        .       MOVS     r0,#0
        0x0001b21c:    b109        ..      CBZ      r1,0x1b222 ; decstr_to_int + 78
        0x0001b21e:    f8c1e000    ....    STR      lr,[r1,#0]
        0x0001b222:    f1bc0f2d    ..-.    CMP      r12,#0x2d
        0x0001b226:    bf08        ..      IT       EQ
        0x0001b228:    4240        @B      RSBEQ    r0,r0,#0
        0x0001b22a:    bd10        ..      POP      {r4,pc}
    divu64_10
        0x0001b22c:    b999        ..      CBNZ     r1,0x1b256 ; divu64_10 + 42
        0x0001b22e:    0841        A.      LSRS     r1,r0,#1
        0x0001b230:    eb010190    ....    ADD      r1,r1,r0,LSR #2
        0x0001b234:    eb011111    ....    ADD      r1,r1,r1,LSR #4
        0x0001b238:    eb012111    ...!    ADD      r1,r1,r1,LSR #8
        0x0001b23c:    eb014111    ...A    ADD      r1,r1,r1,LSR #16
        0x0001b240:    08ca        ..      LSRS     r2,r1,#3
        0x0001b242:    eb020282    ....    ADD      r2,r2,r2,LSL #2
        0x0001b246:    eba00042    ..B.    SUB      r0,r0,r2,LSL #1
        0x0001b24a:    3006        .0      ADDS     r0,#6
        0x0001b24c:    0900        ..      LSRS     r0,r0,#4
        0x0001b24e:    eb0000d1    ....    ADD      r0,r0,r1,LSR #3
        0x0001b252:    2100        .!      MOVS     r1,#0
        0x0001b254:    4770        pG      BX       lr
        0x0001b256:    b510        ..      PUSH     {r4,lr}
        0x0001b258:    ea5f0c51    _.Q.    LSRS     r12,r1,#1
        0x0001b25c:    ea4f0290    O...    LSR      r2,r0,#2
        0x0001b260:    ea4f0330    O.0.    RRX      r3,r0
        0x0001b264:    ea427281    B..r    ORR      r2,r2,r1,LSL #30
        0x0001b268:    eb130e02    ....    ADDS     lr,r3,r2
        0x0001b26c:    eb4c0391    L...    ADC      r3,r12,r1,LSR #2
        0x0001b270:    ea4f121e    O...    LSR      r2,lr,#4
        0x0001b274:    ea427203    B..r    ORR      r2,r2,r3,LSL #28
        0x0001b278:    ea4f1c13    O...    LSR      r12,r3,#4
        0x0001b27c:    eb1e0e02    ....    ADDS     lr,lr,r2
        0x0001b280:    eb43030c    C...    ADC      r3,r3,r12
        0x0001b284:    ea4f221e    O.."    LSR      r2,lr,#8
        0x0001b288:    ea426203    B..b    ORR      r2,r2,r3,LSL #24
        0x0001b28c:    ea4f2c13    O..,    LSR      r12,r3,#8
        0x0001b290:    eb1e0e02    ....    ADDS     lr,lr,r2
        0x0001b294:    eb43030c    C...    ADC      r3,r3,r12
        0x0001b298:    ea4f421e    O..B    LSR      r2,lr,#16
        0x0001b29c:    ea424203    B..B    ORR      r2,r2,r3,LSL #16
        0x0001b2a0:    ea4f4c13    O..L    LSR      r12,r3,#16
        0x0001b2a4:    eb12020e    ....    ADDS     r2,r2,lr
        0x0001b2a8:    eb43030c    C...    ADC      r3,r3,r12
        0x0001b2ac:    18d2        ..      ADDS     r2,r2,r3
        0x0001b2ae:    f1430c00    C...    ADC      r12,r3,#0
        0x0001b2b2:    08d2        ..      LSRS     r2,r2,#3
        0x0001b2b4:    ea42724c    B.Lr    ORR      r2,r2,r12,LSL #29
        0x0001b2b8:    f06f0309    o...    MVN      r3,#9
        0x0001b2bc:    fba2e303    ....    UMULL    lr,r3,r2,r3
        0x0001b2c0:    ea4f04dc    O...    LSR      r4,r12,#3
        0x0001b2c4:    1a9b        ..      SUBS     r3,r3,r2
        0x0001b2c6:    eb040484    ....    ADD      r4,r4,r4,LSL #2
        0x0001b2ca:    eba30344    ..D.    SUB      r3,r3,r4,LSL #1
        0x0001b2ce:    eb10000e    ....    ADDS     r0,r0,lr
        0x0001b2d2:    4159        YA      ADCS     r1,r1,r3
        0x0001b2d4:    3006        .0      ADDS     r0,#6
        0x0001b2d6:    f1410100    A...    ADC      r1,r1,#0
        0x0001b2da:    0900        ..      LSRS     r0,r0,#4
        0x0001b2dc:    ea407001    @..p    ORR      r0,r0,r1,LSL #28
        0x0001b2e0:    090b        ..      LSRS     r3,r1,#4
        0x0001b2e2:    1880        ..      ADDS     r0,r0,r2
        0x0001b2e4:    eb4301dc    C...    ADC      r1,r3,r12,LSR #3
        0x0001b2e8:    bd10        ..      POP      {r4,pc}
        0x0001b2ea:    0000        ..      MOVS     r0,r0
    get_seed_32
        0x0001b2ec:    3801        .8      SUBS     r0,#1
        0x0001b2ee:    2804        .(      CMP      r0,#4
        0x0001b2f0:    bf84        ..      ITT      HI
        0x0001b2f2:    2000        .       MOVHI    r0,#0
        0x0001b2f4:    4770        pG      BXHI     lr
        0x0001b2f6:    a102        ..      ADR      r1,{pc}+0xa ; 0x1b300
        0x0001b2f8:    f8510020    Q. .    LDR      r0,[r1,r0,LSL #2]
        0x0001b2fc:    6800        .h      LDR      r0,[r0,#0]
        0x0001b2fe:    4770        pG      BX       lr
    $d.1
        0x0001b300:    100009ec    ....    DCD    268437996
        0x0001b304:    100009f0    ....    DCD    268438000
        0x0001b308:    100001bc    ....    DCD    268435900
        0x0001b30c:    100001c0    ....    DCD    268435904
        0x0001b310:    100009f4    ....    DCD    268438004
    $t.2
    get_time
        0x0001b314:    f6402000    @..     MOVW     r0,#0xa00
        0x0001b318:    f64011f8    @...    MOV      r1,#0x9f8
        0x0001b31c:    f2c10000    ....    MOVT     r0,#0x1000
        0x0001b320:    f2c10100    ....    MOVT     r1,#0x1000
        0x0001b324:    6800        .h      LDR      r0,[r0,#0]
        0x0001b326:    6809        .h      LDR      r1,[r1,#0]
        0x0001b328:    1a40        @.      SUBS     r0,r0,r1
        0x0001b32a:    4770        pG      BX       lr
    internal_timer_config
        0x0001b32c:    b580        ..      PUSH     {r7,lr}
        0x0001b32e:    220c        ."      MOVS     r2,#0xc
        0x0001b330:    f2c40202    ....    MOVT     r2,#0x4002
        0x0001b334:    6813        .h      LDR      r3,[r2,#0]
        0x0001b336:    b2db        ..      UXTB     r3,r3
        0x0001b338:    2b21        !+      CMP      r3,#0x21
        0x0001b33a:    d141        A.      BNE      0x1b3c0 ; internal_timer_config + 148
        0x0001b33c:    780a        .x      LDRB     r2,[r1,#0]
        0x0001b33e:    f891e001    ....    LDRB     lr,[r1,#1]
        0x0001b342:    78cb        .x      LDRB     r3,[r1,#3]
        0x0001b344:    f891c002    ....    LDRB     r12,[r1,#2]
        0x0001b348:    0212        ..      LSLS     r2,r2,#8
        0x0001b34a:    f36e1207    n...    BFI      r2,lr,#4,#4
        0x0001b34e:    f003031f    ....    AND      r3,r3,#0x1f
        0x0001b352:    ea4202c3    B...    ORR      r2,r2,r3,LSL #3
        0x0001b356:    f00c033f    ..?.    AND      r3,r12,#0x3f
        0x0001b35a:    ea420c83    B...    ORR      r12,r2,r3,LSL #2
        0x0001b35e:    790b        .y      LDRB     r3,[r1,#4]
        0x0001b360:    688a        .h      LDR      r2,[r1,#8]
        0x0001b362:    f0030303    ....    AND      r3,r3,#3
        0x0001b366:    ea4c6202    L..b    ORR      r2,r12,r2,LSL #24
        0x0001b36a:    ea424c03    B..L    ORR      r12,r2,r3,LSL #16
        0x0001b36e:    f2482200    H.."    MOVW     r2,#0x8200
        0x0001b372:    0140        @.      LSLS     r0,r0,#5
        0x0001b374:    f2c40200    ....    MOVT     r2,#0x4000
        0x0001b378:    f891e005    ....    LDRB     lr,[r1,#5]
        0x0001b37c:    5813        .X      LDR      r3,[r2,r0]
        0x0001b37e:    ea4f2e0e    O...    LSL      lr,lr,#8
        0x0001b382:    f0230301    #...    BIC      r3,r3,#1
        0x0001b386:    5013        .P      STR      r3,[r2,r0]
        0x0001b388:    f2482310    H..#    MOV      r3,#0x8210
        0x0001b38c:    f2c40300    ....    MOVT     r3,#0x4000
        0x0001b390:    f842c000    B...    STR      r12,[r2,r0]
        0x0001b394:    f843e000    C...    STR      lr,[r3,r0]
        0x0001b398:    f8d1c00c    ....    LDR      r12,[r1,#0xc]
        0x0001b39c:    f2482308    H..#    MOV      r3,#0x8208
        0x0001b3a0:    f2c40300    ....    MOVT     r3,#0x4000
        0x0001b3a4:    f843c000    C...    STR      r12,[r3,r0]
        0x0001b3a8:    6909        .i      LDR      r1,[r1,#0x10]
        0x0001b3aa:    f248230c    H..#    MOV      r3,#0x820c
        0x0001b3ae:    f2c40300    ....    MOVT     r3,#0x4000
        0x0001b3b2:    5019        .P      STR      r1,[r3,r0]
        0x0001b3b4:    5811        .X      LDR      r1,[r2,r0]
        0x0001b3b6:    f0410102    A...    ORR      r1,r1,#2
        0x0001b3ba:    5011        .P      STR      r1,[r2,r0]
        0x0001b3bc:    2000        .       MOVS     r0,#0
        0x0001b3be:    bd80        ..      POP      {r7,pc}
        0x0001b3c0:    6812        .h      LDR      r2,[r2,#0]
        0x0001b3c2:    f00202fe    ....    AND      r2,r2,#0xfe
        0x0001b3c6:    2a22        "*      CMP      r2,#0x22
        0x0001b3c8:    bf3c        <.      ITT      CC
        0x0001b3ca:    2001        .       MOVCC    r0,#1
        0x0001b3cc:    bd80        ..      POPCC    {r7,pc}
        0x0001b3ce:    280f        .(      CMP      r0,#0xf
        0x0001b3d0:    d80f        ..      BHI      0x1b3f2 ; internal_timer_config + 198
        0x0001b3d2:    2201        ."      MOVS     r2,#1
        0x0001b3d4:    4082        .@      LSLS     r2,r2,r0
        0x0001b3d6:    f64d430a    M..C    MOV      r3,#0xdc0a
        0x0001b3da:    421a        .B      TST      r2,r3
        0x0001b3dc:    bf1c        ..      ITT      NE
        0x0001b3de:    2006        .       MOVNE    r0,#6
        0x0001b3e0:    bd80        ..      POPNE    {r7,pc}
        0x0001b3e2:    f24233a0    B..3    MOV      r3,#0x23a0
        0x0001b3e6:    421a        .B      TST      r2,r3
        0x0001b3e8:    d003        ..      BEQ      0x1b3f2 ; internal_timer_config + 198
        0x0001b3ea:    790a        .y      LDRB     r2,[r1,#4]
        0x0001b3ec:    b10a        ..      CBZ      r2,0x1b3f2 ; internal_timer_config + 198
        0x0001b3ee:    2007        .       MOVS     r0,#7
        0x0001b3f0:    bd80        ..      POP      {r7,pc}
        0x0001b3f2:    e8bd4080    ...@    POP      {r7,lr}
        0x0001b3f6:    f000bfff    ....    B.W      timer_config_b1 ; 0x1c3f8
        0x0001b3fa:    0000        ..      MOVS     r0,r0
    iterate
        0x0001b3fc:    b570        p.      PUSH     {r4-r6,lr}
        0x0001b3fe:    69c5        .i      LDR      r5,[r0,#0x1c]
        0x0001b400:    4604        .F      MOV      r4,r0
        0x0001b402:    2000        .       MOVS     r0,#0
        0x0001b404:    63a0        .c      STR      r0,[r4,#0x38]
        0x0001b406:    63e0        .c      STR      r0,[r4,#0x3c]
        0x0001b408:    b1b5        ..      CBZ      r5,0x1b438 ; iterate + 60
        0x0001b40a:    2600        .&      MOVS     r6,#0
        0x0001b40c:    4620         F      MOV      r0,r4
        0x0001b40e:    2101        .!      MOVS     r1,#1
        0x0001b410:    f7fffb2c    ..,.    BL       core_bench_list ; 0x1aa6c
        0x0001b414:    8f21        !.      LDRH     r1,[r4,#0x38]
        0x0001b416:    f7fffea9    ....    BL       crcu16 ; 0x1b16c
        0x0001b41a:    8720         .      STRH     r0,[r4,#0x38]
        0x0001b41c:    4620         F      MOV      r0,r4
        0x0001b41e:    f04f31ff    O..1    MOV      r1,#0xffffffff
        0x0001b422:    f7fffb23    ..#.    BL       core_bench_list ; 0x1aa6c
        0x0001b426:    8f21        !.      LDRH     r1,[r4,#0x38]
        0x0001b428:    f7fffea0    ....    BL       crcu16 ; 0x1b16c
        0x0001b42c:    8720         .      STRH     r0,[r4,#0x38]
        0x0001b42e:    b906        ..      CBNZ     r6,0x1b432 ; iterate + 54
        0x0001b430:    8760        `.      STRH     r0,[r4,#0x3a]
        0x0001b432:    3601        .6      ADDS     r6,#1
        0x0001b434:    42b5        .B      CMP      r5,r6
        0x0001b436:    d1e9        ..      BNE      0x1b40c ; iterate + 16
        0x0001b438:    2000        .       MOVS     r0,#0
        0x0001b43a:    bd70        p.      POP      {r4-r6,pc}
    main
        0x0001b43c:    b5b0        ..      PUSH     {r4,r5,r7,lr}
        0x0001b43e:    b082        ..      SUB      sp,sp,#8
        0x0001b440:    f6400186    @...    MOV      r1,#0x886
        0x0001b444:    2000        .       MOVS     r0,#0
        0x0001b446:    f2c10100    ....    MOVT     r1,#0x1000
        0x0001b44a:    ac01        ..      ADD      r4,sp,#4
        0x0001b44c:    466d        mF      MOV      r5,sp
        0x0001b44e:    9001        ..      STR      r0,[sp,#4]
        0x0001b450:    7008        .p      STRB     r0,[r1,#0]
        0x0001b452:    4620         F      MOV      r0,r4
        0x0001b454:    4629        )F      MOV      r1,r5
        0x0001b456:    f000f807    ....    BL       main_loop ; 0x1b468
        0x0001b45a:    4620         F      MOV      r0,r4
        0x0001b45c:    4629        )F      MOV      r1,r5
        0x0001b45e:    f000f803    ....    BL       main_loop ; 0x1b468
        0x0001b462:    2000        .       MOVS     r0,#0
        0x0001b464:    b002        ..      ADD      sp,sp,#8
        0x0001b466:    bdb0        ..      POP      {r4,r5,r7,pc}
    main_loop
        0x0001b468:    e92d4ff0    -..O    PUSH     {r4-r11,lr}
        0x0001b46c:    b081        ..      SUB      sp,sp,#4
        0x0001b46e:    ed2d8b02    -...    VPUSH    {d8}
        0x0001b472:    f5ad6d03    ...m    SUB      sp,sp,#0x830
        0x0001b476:    f20d74ec    ...t    ADD      r4,sp,#0x7ec
        0x0001b47a:    f1040a42    ..B.    ADD      r10,r4,#0x42
        0x0001b47e:    460a        .F      MOV      r2,r1
        0x0001b480:    4601        .F      MOV      r1,r0
        0x0001b482:    4650        PF      MOV      r0,r10
        0x0001b484:    f000fe40    ..@.    BL       portable_init ; 0x1c108
        0x0001b488:    2001        .       MOVS     r0,#1
        0x0001b48a:    f7ffff2f    ../.    BL       get_seed_32 ; 0x1b2ec
        0x0001b48e:    f8ad07ec    ....    STRH     r0,[sp,#0x7ec]
        0x0001b492:    2002        .       MOVS     r0,#2
        0x0001b494:    f7ffff2a    ..*.    BL       get_seed_32 ; 0x1b2ec
        0x0001b498:    f8ad07ee    ....    STRH     r0,[sp,#0x7ee]
        0x0001b49c:    2003        .       MOVS     r0,#3
        0x0001b49e:    f7ffff25    ..%.    BL       get_seed_32 ; 0x1b2ec
        0x0001b4a2:    f8ad07f0    ....    STRH     r0,[sp,#0x7f0]
        0x0001b4a6:    2004        .       MOVS     r0,#4
        0x0001b4a8:    f7ffff20    .. .    BL       get_seed_32 ; 0x1b2ec
        0x0001b4ac:    0041        A.      LSLS     r1,r0,#1
        0x0001b4ae:    f6400886    @...    MOV      r8,#0x886
        0x0001b4b2:    f8cd1808    ....    STR      r1,[sp,#0x808]
        0x0001b4b6:    f2c10800    ....    MOVT     r8,#0x1000
        0x0001b4ba:    f8981000    ....    LDRB     r1,[r8,#0]
        0x0001b4be:    2901        .)      CMP      r1,#1
        0x0001b4c0:    bf04        ..      ITT      EQ
        0x0001b4c2:    0080        ..      LSLEQ    r0,r0,#2
        0x0001b4c4:    f8cd0808    ....    STREQ    r0,[sp,#0x808]
        0x0001b4c8:    2005        .       MOVS     r0,#5
        0x0001b4ca:    f7ffff0f    ....    BL       get_seed_32 ; 0x1b2ec
        0x0001b4ce:    2800        .(      CMP      r0,#0
        0x0001b4d0:    bf08        ..      IT       EQ
        0x0001b4d2:    2007        .       MOVEQ    r0,#7
        0x0001b4d4:    f8bdc7ec    ....    LDRH     r12,[sp,#0x7ec]
        0x0001b4d8:    f8bd17ee    ....    LDRH     r1,[sp,#0x7ee]
        0x0001b4dc:    f8bd37f0    ...7    LDRH     r3,[sp,#0x7f0]
        0x0001b4e0:    ea41070c    A...    ORR      r7,r1,r12
        0x0001b4e4:    431f        .C      ORRS     r7,r7,r3
        0x0001b4e6:    f8cd080c    ....    STR      r0,[sp,#0x80c]
        0x0001b4ea:    d008        ..      BEQ      0x1b4fe ; main_loop + 150
        0x0001b4ec:    f1bc0f01    ....    CMP      r12,#1
        0x0001b4f0:    bf08        ..      IT       EQ
        0x0001b4f2:    ea510103    Q...    ORRSEQ   r1,r1,r3
        0x0001b4f6:    d10b        ..      BNE      0x1b510 ; main_loop + 168
        0x0001b4f8:    f2434c15    C..L    MOV      r12,#0x3415
        0x0001b4fc:    e001        ..      B        0x1b502 ; main_loop + 154
        0x0001b4fe:    f04f0c00    O...    MOV      r12,#0
        0x0001b502:    2166        f!      MOVS     r1,#0x66
        0x0001b504:    f8adc7ec    ....    STRH     r12,[sp,#0x7ec]
        0x0001b508:    f8adc7ee    ....    STRH     r12,[sp,#0x7ee]
        0x0001b50c:    f8ad17f0    ....    STRH     r1,[sp,#0x7f0]
        0x0001b510:    2300        .#      MOVS     r3,#0
        0x0001b512:    a907        ..      ADD      r1,sp,#0x1c
        0x0001b514:    2700        .'      MOVS     r7,#0
        0x0001b516:    f8ad382c    ..,8    STRH     r3,[sp,#0x82c]
        0x0001b51a:    f8cd17f4    ....    STR      r1,[sp,#0x7f4]
        0x0001b51e:    bf00        ..      NOP      
        0x0001b520:    fa20f603     ...    LSR      r6,r0,r3
        0x0001b524:    07f6        ..      LSLS     r6,r6,#31
        0x0001b526:    f1030301    ....    ADD      r3,r3,#1
        0x0001b52a:    bf18        ..      IT       NE
        0x0001b52c:    3701        .7      ADDNE    r7,#1
        0x0001b52e:    2b03        .+      CMP      r3,#3
        0x0001b530:    d1f6        ..      BNE      0x1b520 ; main_loop + 184
        0x0001b532:    b2bb        ..      UXTH     r3,r7
        0x0001b534:    f44f67fa    O..g    MOV      r7,#0x7d0
        0x0001b538:    fbb7f3f3    ....    UDIV     r3,r7,r3
        0x0001b53c:    2700        .'      MOVS     r7,#0
        0x0001b53e:    2600        .&      MOVS     r6,#0
        0x0001b540:    f8cd3804    ...8    STR      r3,[sp,#0x804]
        0x0001b544:    fa20f507     ...    LSR      r5,r0,r7
        0x0001b548:    07ed        ..      LSLS     r5,r5,#31
        0x0001b54a:    d009        ..      BEQ      0x1b560 ; main_loop + 248
        0x0001b54c:    b2b5        ..      UXTH     r5,r6
        0x0001b54e:    fb031505    ....    MLA      r5,r3,r5,r1
        0x0001b552:    3701        .7      ADDS     r7,#1
        0x0001b554:    eb040287    ....    ADD      r2,r4,r7,LSL #2
        0x0001b558:    3601        .6      ADDS     r6,#1
        0x0001b55a:    6095        .`      STR      r5,[r2,#8]
        0x0001b55c:    e001        ..      B        0x1b562 ; main_loop + 250
        0x0001b55e:    bf00        ..      NOP      
        0x0001b560:    3701        .7      ADDS     r7,#1
        0x0001b562:    2f03        ./      CMP      r7,#3
        0x0001b564:    d1ee        ..      BNE      0x1b544 ; main_loop + 220
        0x0001b566:    07c1        ..      LSLS     r1,r0,#31
        0x0001b568:    d00b        ..      BEQ      0x1b582 ; main_loop + 282
        0x0001b56a:    f8dd17f8    ....    LDR      r1,[sp,#0x7f8]
        0x0001b56e:    fa0ff28c    ....    SXTH     r2,r12
        0x0001b572:    4618        .F      MOV      r0,r3
        0x0001b574:    f7fffc82    ....    BL       core_list_init ; 0x1ae7c
        0x0001b578:    4601        .F      MOV      r1,r0
        0x0001b57a:    f8dd080c    ....    LDR      r0,[sp,#0x80c]
        0x0001b57e:    f8cd1810    ....    STR      r1,[sp,#0x810]
        0x0001b582:    0781        ..      LSLS     r1,r0,#30
        0x0001b584:    d50f        ..      BPL      0x1b5a6 ; main_loop + 318
        0x0001b586:    f9bd27ec    ...'    LDRSH    r2,[sp,#0x7ec]
        0x0001b58a:    f8bd37ee    ...7    LDRH     r3,[sp,#0x7ee]
        0x0001b58e:    f8dd0804    ....    LDR      r0,[sp,#0x804]
        0x0001b592:    f8dd17fc    ....    LDR      r1,[sp,#0x7fc]
        0x0001b596:    ea424203    B..B    ORR      r2,r2,r3,LSL #16
        0x0001b59a:    f1040328    ..(.    ADD      r3,r4,#0x28
        0x0001b59e:    f7fffb91    ....    BL       core_init_matrix ; 0x1acc4
        0x0001b5a2:    f8dd080c    ....    LDR      r0,[sp,#0x80c]
        0x0001b5a6:    0740        @.      LSLS     r0,r0,#29
        0x0001b5a8:    d507        ..      BPL      0x1b5ba ; main_loop + 338
        0x0001b5aa:    f8dd0804    ....    LDR      r0,[sp,#0x804]
        0x0001b5ae:    f9bd17ec    ....    LDRSH    r1,[sp,#0x7ec]
        0x0001b5b2:    f8dd2800    ...(    LDR      r2,[sp,#0x800]
        0x0001b5b6:    f7fffbe1    ....    BL       core_init_state ; 0x1ad7c
        0x0001b5ba:    f8dd0808    ....    LDR      r0,[sp,#0x808]
        0x0001b5be:    2800        .(      CMP      r0,#0
        0x0001b5c0:    d14d        M.      BNE      0x1b65e ; main_loop + 502
        0x0001b5c2:    270a        .'      MOVS     r7,#0xa
        0x0001b5c4:    f8cd7808    ...x    STR      r7,[sp,#0x808]
        0x0001b5c8:    f000feac    ....    BL       start_time ; 0x1c324
        0x0001b5cc:    f20d70ec    ...p    ADD      r0,sp,#0x7ec
        0x0001b5d0:    f7ffff14    ....    BL       iterate ; 0x1b3fc
        0x0001b5d4:    f000fed1    ....    BL       stop_time ; 0x1c37a
        0x0001b5d8:    f7fffe9c    ....    BL       get_time ; 0x1b314
        0x0001b5dc:    f000feec    ....    BL       time_in_secs ; 0x1c3b8
        0x0001b5e0:    eeb08a40    ..@.    VMOV.F32 s16,s0
        0x0001b5e4:    eef08a60    ..`.    VMOV.F32 s17,s1
        0x0001b5e8:    ed9f0b67    ..g.    VLDR     d0,[pc,#412] ; [0x1b788] = 0
        0x0001b5ec:    ec510b18    Q...    VMOV     r0,r1,d8
        0x0001b5f0:    ec554b10    U..K    VMOV     r4,r5,d0
        0x0001b5f4:    4622        "F      MOV      r2,r4
        0x0001b5f6:    462b        +F      MOV      r3,r5
        0x0001b5f8:    f001fb28    ..(.    BL       __aeabi_dcmpge ; 0x1cc4c
        0x0001b5fc:    bb00        ..      CBNZ     r0,0x1b640 ; main_loop + 472
        0x0001b5fe:    f20d76ec    ...v    ADD      r6,sp,#0x7ec
        0x0001b602:    bf00        ..      NOP      
        0x0001b604:    f8dd0808    ....    LDR      r0,[sp,#0x808]
        0x0001b608:    eb000080    ....    ADD      r0,r0,r0,LSL #2
        0x0001b60c:    0040        @.      LSLS     r0,r0,#1
        0x0001b60e:    f8cd0808    ....    STR      r0,[sp,#0x808]
        0x0001b612:    f000fe87    ....    BL       start_time ; 0x1c324
        0x0001b616:    4630        0F      MOV      r0,r6
        0x0001b618:    f7fffef0    ....    BL       iterate ; 0x1b3fc
        0x0001b61c:    f000fead    ....    BL       stop_time ; 0x1c37a
        0x0001b620:    f7fffe78    ..x.    BL       get_time ; 0x1b314
        0x0001b624:    f000fec8    ....    BL       time_in_secs ; 0x1c3b8
        0x0001b628:    eeb08a40    ..@.    VMOV.F32 s16,s0
        0x0001b62c:    ec510b10    Q...    VMOV     r0,r1,d0
        0x0001b630:    4622        "F      MOV      r2,r4
        0x0001b632:    462b        +F      MOV      r3,r5
        0x0001b634:    eef08a60    ..`.    VMOV.F32 s17,s1
        0x0001b638:    f001fb16    ....    BL       __aeabi_dcmplt ; 0x1cc68
        0x0001b63c:    2800        .(      CMP      r0,#0
        0x0001b63e:    d1e1        ..      BNE      0x1b604 ; main_loop + 412
        0x0001b640:    ec510b18    Q...    VMOV     r0,r1,d8
        0x0001b644:    f001f9b6    ....    BL       __aeabi_d2uiz ; 0x1c9b4
        0x0001b648:    2800        .(      CMP      r0,#0
        0x0001b64a:    bf08        ..      IT       EQ
        0x0001b64c:    2001        .       MOVEQ    r0,#1
        0x0001b64e:    fbb7f0f0    ....    UDIV     r0,r7,r0
        0x0001b652:    f8dd1808    ....    LDR      r1,[sp,#0x808]
        0x0001b656:    3001        .0      ADDS     r0,#1
        0x0001b658:    4348        HC      MULS     r0,r1,r0
        0x0001b65a:    f8cd0808    ....    STR      r0,[sp,#0x808]
        0x0001b65e:    f000fe61    ..a.    BL       start_time ; 0x1c324
        0x0001b662:    f20d70ec    ...p    ADD      r0,sp,#0x7ec
        0x0001b666:    f7fffec9    ....    BL       iterate ; 0x1b3fc
        0x0001b66a:    f000fe86    ....    BL       stop_time ; 0x1c37a
        0x0001b66e:    f7fffe51    ..Q.    BL       get_time ; 0x1b314
        0x0001b672:    f9bd17ec    ....    LDRSH    r1,[sp,#0x7ec]
        0x0001b676:    9006        ..      STR      r0,[sp,#0x18]
        0x0001b678:    4608        .F      MOV      r0,r1
        0x0001b67a:    2100        .!      MOVS     r1,#0
        0x0001b67c:    2400        .$      MOVS     r4,#0
        0x0001b67e:    f7fffd71    ..q.    BL       crc16 ; 0x1b164
        0x0001b682:    f9bd17ee    ....    LDRSH    r1,[sp,#0x7ee]
        0x0001b686:    4602        .F      MOV      r2,r0
        0x0001b688:    4608        .F      MOV      r0,r1
        0x0001b68a:    4611        .F      MOV      r1,r2
        0x0001b68c:    f7fffd6a    ..j.    BL       crc16 ; 0x1b164
        0x0001b690:    f9bd17f0    ....    LDRSH    r1,[sp,#0x7f0]
        0x0001b694:    4602        .F      MOV      r2,r0
        0x0001b696:    4608        .F      MOV      r0,r1
        0x0001b698:    4611        .F      MOV      r1,r2
        0x0001b69a:    f7fffd63    ..c.    BL       crc16 ; 0x1b164
        0x0001b69e:    f9bd1804    ....    LDRSH    r1,[sp,#0x804]
        0x0001b6a2:    4602        .F      MOV      r2,r0
        0x0001b6a4:    4608        .F      MOV      r0,r1
        0x0001b6a6:    4611        .F      MOV      r1,r2
        0x0001b6a8:    f7fffd5c    ..\.    BL       crc16 ; 0x1b164
        0x0001b6ac:    4601        .F      MOV      r1,r0
        0x0001b6ae:    f6473004    G..0    MOV      r0,#0x7b04
        0x0001b6b2:    f2400b18    @...    MOVW     r11,#0x18
        0x0001b6b6:    f64f79ff    O..y    MOV      r9,#0xffff
        0x0001b6ba:    4281        .B      CMP      r1,r0
        0x0001b6bc:    f2c10b00    ....    MOVT     r11,#0x1000
        0x0001b6c0:    9105        ..      STR      r1,[sp,#0x14]
        0x0001b6c2:    dd14        ..      BLE      0x1b6ee ; main_loop + 646
        0x0001b6c4:    f64e10f5    N...    MOV      r0,#0xe9f5
        0x0001b6c8:    4281        .B      CMP      r1,r0
        0x0001b6ca:    d023        #.      BEQ      0x1b714 ; main_loop + 684
        0x0001b6cc:    f6482002    H..     MOV      r0,#0x8a02
        0x0001b6d0:    4281        .B      CMP      r1,r0
        0x0001b6d2:    d027        '.      BEQ      0x1b724 ; main_loop + 700
        0x0001b6d4:    2000        .       MOVS     r0,#0
        0x0001b6d6:    9004        ..      STR      r0,[sp,#0x10]
        0x0001b6d8:    f6473005    G..0    MOV      r0,#0x7b05
        0x0001b6dc:    4281        .B      CMP      r1,r0
        0x0001b6de:    f04080a3    @...    BNE.W    0x1b828 ; main_loop + 960
        0x0001b6e2:    f04f0801    O...    MOV      r8,#1
        0x0001b6e6:    2400        .$      MOVS     r4,#0
        0x0001b6e8:    f20f4050    ..P@    ADR.W    r0,{pc}+0x454 ; 0x1bb3c
        0x0001b6ec:    e024        $.      B        0x1b738 ; main_loop + 720
        0x0001b6ee:    f64100f2    A...    MOV      r0,#0x18f2
        0x0001b6f2:    4281        .B      CMP      r1,r0
        0x0001b6f4:    d01b        ..      BEQ      0x1b72e ; main_loop + 710
        0x0001b6f6:    2000        .       MOVS     r0,#0
        0x0001b6f8:    9004        ..      STR      r0,[sp,#0x10]
        0x0001b6fa:    f64460af    D..`    MOV      r0,#0x4eaf
        0x0001b6fe:    4281        .B      CMP      r1,r0
        0x0001b700:    f0408092    @...    BNE.W    0x1b828 ; main_loop + 960
        0x0001b704:    f24d00f3    M...    MOV      r0,#0xd0f3
        0x0001b708:    f04f0802    O...    MOV      r8,#2
        0x0001b70c:    2400        .$      MOVS     r4,#0
        0x0001b70e:    f2c00001    ....    MOVT     r0,#1
        0x0001b712:    e011        ..      B        0x1b738 ; main_loop + 720
        0x0001b714:    f24d00c6    M...    MOV      r0,#0xd0c6
        0x0001b718:    f04f0803    O...    MOV      r8,#3
        0x0001b71c:    2401        .$      MOVS     r4,#1
        0x0001b71e:    f2c00001    ....    MOVT     r0,#1
        0x0001b722:    e009        ..      B        0x1b738 ; main_loop + 720
        0x0001b724:    f20f30b8    ...0    ADR.W    r0,{pc}+0x3bc ; 0x1bae0
        0x0001b728:    f04f0800    O...    MOV      r8,#0
        0x0001b72c:    e004        ..      B        0x1b738 ; main_loop + 720
        0x0001b72e:    f04f0804    O...    MOV      r8,#4
        0x0001b732:    2400        .$      MOVS     r4,#0
        0x0001b734:    f20f30d8    ...0    ADR.W    r0,{pc}+0x3dc ; 0x1bb10
        0x0001b738:    9404        ..      STR      r4,[sp,#0x10]
        0x0001b73a:    f7fefc53    ..S.    BL       am_sprintf ; 0x19fe4
        0x0001b73e:    f8db0000    ....    LDR      r0,[r11,#0]
        0x0001b742:    2800        .(      CMP      r0,#0
        0x0001b744:    d06a        j.      BEQ      0x1b81c ; main_loop + 948
        0x0001b746:    f24d043a    M.:.    MOV      r4,#0xd03a
        0x0001b74a:    f24d0530    M.0.    MOV      r5,#0xd030
        0x0001b74e:    f8cda00c    ....    STR      r10,[sp,#0xc]
        0x0001b752:    f04f0a00    O...    MOV      r10,#0
        0x0001b756:    f2c00401    ....    MOVT     r4,#1
        0x0001b75a:    f2c00501    ....    MOVT     r5,#1
        0x0001b75e:    2600        .&      MOVS     r6,#0
        0x0001b760:    2700        .'      MOVS     r7,#0
        0x0001b762:    f04f0900    O...    MOV      r9,#0
        0x0001b766:    bf00        ..      NOP      
        0x0001b768:    f8dd180c    ....    LDR      r1,[sp,#0x80c]
        0x0001b76c:    f8ada82c    ..,.    STRH     r10,[sp,#0x82c]
        0x0001b770:    07c8        ..      LSLS     r0,r1,#31
        0x0001b772:    d005        ..      BEQ      0x1b780 ; main_loop + 792
        0x0001b774:    f8bd2826    ..&(    LDRH     r2,[sp,#0x826]
        0x0001b778:    f8353018    5..0    LDRH     r3,[r5,r8,LSL #1]
        0x0001b77c:    429a        .B      CMP      r2,r3
        0x0001b77e:    d107        ..      BNE      0x1b790 ; main_loop + 808
        0x0001b780:    2000        .       MOVS     r0,#0
        0x0001b782:    e013        ..      B        0x1b7ac ; main_loop + 836
        0x0001b784:    bf00        ..      NOP      
        0x0001b786:    bf00        ..      NOP      
    $d.3
        0x0001b788:    00000000    ....    DCD    0
        0x0001b78c:    3ff00000    ...?    DCD    1072693248
    $t.4
        0x0001b790:    f24d3042    M.B0    MOV      r0,#0xd342
        0x0001b794:    f2c00001    ....    MOVT     r0,#1
        0x0001b798:    4631        1F      MOV      r1,r6
        0x0001b79a:    f7fefc23    ..#.    BL       am_sprintf ; 0x19fe4
        0x0001b79e:    f8bd082c    ..,.    LDRH     r0,[sp,#0x82c]
        0x0001b7a2:    f8dd180c    ....    LDR      r1,[sp,#0x80c]
        0x0001b7a6:    3001        .0      ADDS     r0,#1
        0x0001b7a8:    f8ad082c    ..,.    STRH     r0,[sp,#0x82c]
        0x0001b7ac:    078a        ..      LSLS     r2,r1,#30
        0x0001b7ae:    d513        ..      BPL      0x1b7d8 ; main_loop + 880
        0x0001b7b0:    f8bd2828    ..((    LDRH     r2,[sp,#0x828]
        0x0001b7b4:    f8343018    4..0    LDRH     r3,[r4,r8,LSL #1]
        0x0001b7b8:    429a        .B      CMP      r2,r3
        0x0001b7ba:    d00d        ..      BEQ      0x1b7d8 ; main_loop + 880
        0x0001b7bc:    f24d3071    M.q0    MOV      r0,#0xd371
        0x0001b7c0:    f2c00001    ....    MOVT     r0,#1
        0x0001b7c4:    4631        1F      MOV      r1,r6
        0x0001b7c6:    f7fefc0d    ....    BL       am_sprintf ; 0x19fe4
        0x0001b7ca:    f8bd082c    ..,.    LDRH     r0,[sp,#0x82c]
        0x0001b7ce:    f8dd180c    ....    LDR      r1,[sp,#0x80c]
        0x0001b7d2:    3001        .0      ADDS     r0,#1
        0x0001b7d4:    f8ad082c    ..,.    STRH     r0,[sp,#0x82c]
        0x0001b7d8:    0749        I.      LSLS     r1,r1,#29
        0x0001b7da:    d515        ..      BPL      0x1b808 ; main_loop + 928
        0x0001b7dc:    f24d0170    M.p.    MOV      r1,#0xd070
        0x0001b7e0:    f2c00101    ....    MOVT     r1,#1
        0x0001b7e4:    f8bd282a    ..*(    LDRH     r2,[sp,#0x82a]
        0x0001b7e8:    f8313018    1..0    LDRH     r3,[r1,r8,LSL #1]
        0x0001b7ec:    429a        .B      CMP      r2,r3
        0x0001b7ee:    d00b        ..      BEQ      0x1b808 ; main_loop + 928
        0x0001b7f0:    f24d3012    M..0    MOV      r0,#0xd312
        0x0001b7f4:    f2c00001    ....    MOVT     r0,#1
        0x0001b7f8:    4631        1F      MOV      r1,r6
        0x0001b7fa:    f7fefbf3    ....    BL       am_sprintf ; 0x19fe4
        0x0001b7fe:    f8bd082c    ..,.    LDRH     r0,[sp,#0x82c]
        0x0001b802:    3001        .0      ADDS     r0,#1
        0x0001b804:    f8ad082c    ..,.    STRH     r0,[sp,#0x82c]
        0x0001b808:    3701        .7      ADDS     r7,#1
        0x0001b80a:    f8db1000    ....    LDR      r1,[r11,#0]
        0x0001b80e:    b2be        ..      UXTH     r6,r7
        0x0001b810:    42b1        .B      CMP      r1,r6
        0x0001b812:    4481        .D      ADD      r9,r9,r0
        0x0001b814:    d8a8        ..      BHI      0x1b768 ; main_loop + 768
        0x0001b816:    f8dda00c    ....    LDR      r10,[sp,#0xc]
        0x0001b81a:    e001        ..      B        0x1b820 ; main_loop + 952
        0x0001b81c:    f04f0900    O...    MOV      r9,#0
        0x0001b820:    f6400886    @...    MOV      r8,#0x886
        0x0001b824:    f2c10800    ....    MOVT     r8,#0x1000
        0x0001b828:    f7fff903    ....    BL       check_data_types ; 0x1aa32
        0x0001b82c:    f8dd1804    ....    LDR      r1,[sp,#0x804]
        0x0001b830:    eb090600    ....    ADD      r6,r9,r0
        0x0001b834:    f24d2056    M.V     MOV      r0,#0xd256
        0x0001b838:    f2c00001    ....    MOVT     r0,#1
        0x0001b83c:    f7fefbd2    ....    BL       am_sprintf ; 0x19fe4
        0x0001b840:    9f06        ..      LDR      r7,[sp,#0x18]
        0x0001b842:    f24d206e    M.n     MOV      r0,#0xd26e
        0x0001b846:    f2c00001    ....    MOVT     r0,#1
        0x0001b84a:    463a        :F      MOV      r2,r7
        0x0001b84c:    2300        .#      MOVS     r3,#0
        0x0001b84e:    f7fefbc9    ....    BL       am_sprintf ; 0x19fe4
        0x0001b852:    4638        8F      MOV      r0,r7
        0x0001b854:    f000fdb0    ....    BL       time_in_secs ; 0x1c3b8
        0x0001b858:    f24d10f9    M...    MOV      r0,#0xd1f9
        0x0001b85c:    ec532b10    S..+    VMOV     r2,r3,d0
        0x0001b860:    f2c00001    ....    MOVT     r0,#1
        0x0001b864:    f7fefbbe    ....    BL       am_sprintf ; 0x19fe4
        0x0001b868:    4638        8F      MOV      r0,r7
        0x0001b86a:    f000fda5    ....    BL       time_in_secs ; 0x1c3b8
        0x0001b86e:    ed9f1b98    ....    VLDR     d1,[pc,#608] ; [0x1bad0] = 0
        0x0001b872:    ec510b10    Q...    VMOV     r0,r1,d0
        0x0001b876:    ec532b11    S..+    VMOV     r2,r3,d1
        0x0001b87a:    f001f9ee    ....    BL       __aeabi_dcmple ; 0x1cc5a
        0x0001b87e:    b9c8        ..      CBNZ     r0,0x1b8b4 ; main_loop + 1100
        0x0001b880:    f8db0000    ....    LDR      r0,[r11,#0]
        0x0001b884:    f8dd1808    ....    LDR      r1,[sp,#0x808]
        0x0001b888:    4348        HC      MULS     r0,r1,r0
        0x0001b88a:    f001f8c0    ....    BL       __aeabi_ui2d ; 0x1ca0e
        0x0001b88e:    4604        .F      MOV      r4,r0
        0x0001b890:    4638        8F      MOV      r0,r7
        0x0001b892:    460d        .F      MOV      r5,r1
        0x0001b894:    f000fd90    ....    BL       time_in_secs ; 0x1c3b8
        0x0001b898:    ec532b10    S..+    VMOV     r2,r3,d0
        0x0001b89c:    4620         F      MOV      r0,r4
        0x0001b89e:    4629        )F      MOV      r1,r5
        0x0001b8a0:    f000fef2    ....    BL       __aeabi_ddiv ; 0x1c688
        0x0001b8a4:    4602        .F      MOV      r2,r0
        0x0001b8a6:    f24d10e2    M...    MOV      r0,#0xd1e2
        0x0001b8aa:    f2c00001    ....    MOVT     r0,#1
        0x0001b8ae:    460b        .F      MOV      r3,r1
        0x0001b8b0:    f7fefb98    ....    BL       am_sprintf ; 0x19fe4
        0x0001b8b4:    4638        8F      MOV      r0,r7
        0x0001b8b6:    f000fd7f    ....    BL       time_in_secs ; 0x1c3b8
        0x0001b8ba:    ed9f1b87    ....    VLDR     d1,[pc,#540] ; [0x1bad8] = 0
        0x0001b8be:    ec510b10    Q...    VMOV     r0,r1,d0
        0x0001b8c2:    ec532b11    S..+    VMOV     r2,r3,d1
        0x0001b8c6:    f001f9c1    ....    BL       __aeabi_dcmpge ; 0x1cc4c
        0x0001b8ca:    b930        0.      CBNZ     r0,0x1b8da ; main_loop + 1138
        0x0001b8cc:    f24d007a    M.z.    MOV      r0,#0xd07a
        0x0001b8d0:    f2c00001    ....    MOVT     r0,#1
        0x0001b8d4:    f7fefb86    ....    BL       am_sprintf ; 0x19fe4
        0x0001b8d8:    3601        .6      ADDS     r6,#1
        0x0001b8da:    f8db0000    ....    LDR      r0,[r11,#0]
        0x0001b8de:    f8dd1808    ....    LDR      r1,[sp,#0x808]
        0x0001b8e2:    4341        AC      MULS     r1,r0,r1
        0x0001b8e4:    f24d203e    M.>     MOV      r0,#0xd23e
        0x0001b8e8:    f2c00001    ....    MOVT     r0,#1
        0x0001b8ec:    f7fefb7a    ..z.    BL       am_sprintf ; 0x19fe4
        0x0001b8f0:    f24d39a2    M..9    MOV      r9,#0xd3a2
        0x0001b8f4:    f24d2027    M.'     MOV      r0,#0xd227
        0x0001b8f8:    f2c00901    ....    MOVT     r9,#1
        0x0001b8fc:    f2c00001    ....    MOVT     r0,#1
        0x0001b900:    4649        IF      MOV      r1,r9
        0x0001b902:    f7fefb6f    ..o.    BL       am_sprintf ; 0x19fe4
        0x0001b906:    f24d2010    M..     MOV      r0,#0xd210
        0x0001b90a:    f24d4112    M..A    MOV      r1,#0xd412
        0x0001b90e:    f2c00001    ....    MOVT     r0,#1
        0x0001b912:    f2c00101    ....    MOVT     r1,#1
        0x0001b916:    f7fefb65    ..e.    BL       am_sprintf ; 0x19fe4
        0x0001b91a:    f24d2087    M..     MOV      r0,#0xd287
        0x0001b91e:    9905        ..      LDR      r1,[sp,#0x14]
        0x0001b920:    f2c00001    ....    MOVT     r0,#1
        0x0001b924:    f7fefb5e    ..^.    BL       am_sprintf ; 0x19fe4
        0x0001b928:    f8dd180c    ....    LDR      r1,[sp,#0x80c]
        0x0001b92c:    f8db0000    ....    LDR      r0,[r11,#0]
        0x0001b930:    07ca        ..      LSLS     r2,r1,#31
        0x0001b932:    bf18        ..      IT       NE
        0x0001b934:    2800        .(      CMPNE    r0,#0
        0x0001b936:    d012        ..      BEQ      0x1b95e ; main_loop + 1270
        0x0001b938:    f24d24a2    M..$    MOV      r4,#0xd2a2
        0x0001b93c:    2100        .!      MOVS     r1,#0
        0x0001b93e:    f2c00401    ....    MOVT     r4,#1
        0x0001b942:    2500        .%      MOVS     r5,#0
        0x0001b944:    f8bd2826    ..&(    LDRH     r2,[sp,#0x826]
        0x0001b948:    4620         F      MOV      r0,r4
        0x0001b94a:    f7fefb4b    ..K.    BL       am_sprintf ; 0x19fe4
        0x0001b94e:    3501        .5      ADDS     r5,#1
        0x0001b950:    f8db0000    ....    LDR      r0,[r11,#0]
        0x0001b954:    b2a9        ..      UXTH     r1,r5
        0x0001b956:    4288        .B      CMP      r0,r1
        0x0001b958:    d8f4        ..      BHI      0x1b944 ; main_loop + 1244
        0x0001b95a:    f8dd180c    ....    LDR      r1,[sp,#0x80c]
        0x0001b95e:    078a        ..      LSLS     r2,r1,#30
        0x0001b960:    d513        ..      BPL      0x1b98a ; main_loop + 1314
        0x0001b962:    b190        ..      CBZ      r0,0x1b98a ; main_loop + 1314
        0x0001b964:    f24d24f6    M..$    MOV      r4,#0xd2f6
        0x0001b968:    2100        .!      MOVS     r1,#0
        0x0001b96a:    f2c00401    ....    MOVT     r4,#1
        0x0001b96e:    2500        .%      MOVS     r5,#0
        0x0001b970:    f8bd2828    ..((    LDRH     r2,[sp,#0x828]
        0x0001b974:    4620         F      MOV      r0,r4
        0x0001b976:    f7fefb35    ..5.    BL       am_sprintf ; 0x19fe4
        0x0001b97a:    3501        .5      ADDS     r5,#1
        0x0001b97c:    f8db0000    ....    LDR      r0,[r11,#0]
        0x0001b980:    b2a9        ..      UXTH     r1,r5
        0x0001b982:    4288        .B      CMP      r0,r1
        0x0001b984:    d8f4        ..      BHI      0x1b970 ; main_loop + 1288
        0x0001b986:    f8dd180c    ....    LDR      r1,[sp,#0x80c]
        0x0001b98a:    0749        I.      LSLS     r1,r1,#29
        0x0001b98c:    d511        ..      BPL      0x1b9b2 ; main_loop + 1354
        0x0001b98e:    b180        ..      CBZ      r0,0x1b9b2 ; main_loop + 1354
        0x0001b990:    f24d24be    M..$    MOV      r4,#0xd2be
        0x0001b994:    2100        .!      MOVS     r1,#0
        0x0001b996:    f2c00401    ....    MOVT     r4,#1
        0x0001b99a:    2500        .%      MOVS     r5,#0
        0x0001b99c:    f8bd282a    ..*(    LDRH     r2,[sp,#0x82a]
        0x0001b9a0:    4620         F      MOV      r0,r4
        0x0001b9a2:    f7fefb1f    ....    BL       am_sprintf ; 0x19fe4
        0x0001b9a6:    3501        .5      ADDS     r5,#1
        0x0001b9a8:    f8db0000    ....    LDR      r0,[r11,#0]
        0x0001b9ac:    b2a9        ..      UXTH     r1,r5
        0x0001b9ae:    4288        .B      CMP      r0,r1
        0x0001b9b0:    d8f4        ..      BHI      0x1b99c ; main_loop + 1332
        0x0001b9b2:    b180        ..      CBZ      r0,0x1b9d6 ; main_loop + 1390
        0x0001b9b4:    f24d24da    M..$    MOV      r4,#0xd2da
        0x0001b9b8:    2100        .!      MOVS     r1,#0
        0x0001b9ba:    f2c00401    ....    MOVT     r4,#1
        0x0001b9be:    2500        .%      MOVS     r5,#0
        0x0001b9c0:    f8bd2824    ..$(    LDRH     r2,[sp,#0x824]
        0x0001b9c4:    4620         F      MOV      r0,r4
        0x0001b9c6:    f7fefb0d    ....    BL       am_sprintf ; 0x19fe4
        0x0001b9ca:    3501        .5      ADDS     r5,#1
        0x0001b9cc:    f8db0000    ....    LDR      r0,[r11,#0]
        0x0001b9d0:    b2a9        ..      UXTH     r1,r5
        0x0001b9d2:    4288        .B      CMP      r0,r1
        0x0001b9d4:    d8f4        ..      BHI      0x1b9c0 ; main_loop + 1368
        0x0001b9d6:    0430        0.      LSLS     r0,r6,#16
        0x0001b9d8:    d00c        ..      BEQ      0x1b9f4 ; main_loop + 1420
        0x0001b9da:    f24d1024    M.$.    MOV      r0,#0xd124
        0x0001b9de:    b231        1.      SXTH     r1,r6
        0x0001b9e0:    f24d12d1    M...    MOV      r2,#0xd1d1
        0x0001b9e4:    f2c00001    ....    MOVT     r0,#1
        0x0001b9e8:    f2c00201    ....    MOVT     r2,#1
        0x0001b9ec:    2900        .)      CMP      r1,#0
        0x0001b9ee:    bfc8        ..      IT       GT
        0x0001b9f0:    4610        .F      MOVGT    r0,r2
        0x0001b9f2:    e033        3.      B        0x1ba5c ; main_loop + 1524
        0x0001b9f4:    f24d1087    M...    MOV      r0,#0xd187
        0x0001b9f8:    f2c00001    ....    MOVT     r0,#1
        0x0001b9fc:    f7fefaf2    ....    BL       am_sprintf ; 0x19fe4
        0x0001ba00:    9804        ..      LDR      r0,[sp,#0x10]
        0x0001ba02:    b368        h.      CBZ      r0,0x1ba60 ; main_loop + 1528
        0x0001ba04:    f8db0000    ....    LDR      r0,[r11,#0]
        0x0001ba08:    f8dd1808    ....    LDR      r1,[sp,#0x808]
        0x0001ba0c:    4348        HC      MULS     r0,r1,r0
        0x0001ba0e:    f000fffe    ....    BL       __aeabi_ui2d ; 0x1ca0e
        0x0001ba12:    4604        .F      MOV      r4,r0
        0x0001ba14:    4638        8F      MOV      r0,r7
        0x0001ba16:    460d        .F      MOV      r5,r1
        0x0001ba18:    f000fcce    ....    BL       time_in_secs ; 0x1c3b8
        0x0001ba1c:    ec532b10    S..+    VMOV     r2,r3,d0
        0x0001ba20:    4620         F      MOV      r0,r4
        0x0001ba22:    4629        )F      MOV      r1,r5
        0x0001ba24:    f000fe30    ..0.    BL       __aeabi_ddiv ; 0x1c688
        0x0001ba28:    4602        .F      MOV      r2,r0
        0x0001ba2a:    f24d4607    M..F    MOV      r6,#0xd407
        0x0001ba2e:    f24d401e    M..@    MOV      r0,#0xd41e
        0x0001ba32:    f2c00601    ....    MOVT     r6,#1
        0x0001ba36:    f2c00001    ....    MOVT     r0,#1
        0x0001ba3a:    460b        .F      MOV      r3,r1
        0x0001ba3c:    f8cd9000    ....    STR      r9,[sp,#0]
        0x0001ba40:    9601        ..      STR      r6,[sp,#4]
        0x0001ba42:    f7fefacf    ....    BL       am_sprintf ; 0x19fe4
        0x0001ba46:    f24d4018    M..@    MOV      r0,#0xd418
        0x0001ba4a:    f24d4112    M..A    MOV      r1,#0xd412
        0x0001ba4e:    f2c00001    ....    MOVT     r0,#1
        0x0001ba52:    f2c00101    ....    MOVT     r1,#1
        0x0001ba56:    f7fefac5    ....    BL       am_sprintf ; 0x19fe4
        0x0001ba5a:    a043        C.      ADR      r0,{pc}+0x10e ; 0x1bb68
        0x0001ba5c:    f7fefac2    ....    BL       am_sprintf ; 0x19fe4
        0x0001ba60:    f8db0000    ....    LDR      r0,[r11,#0]
        0x0001ba64:    f8dd1808    ....    LDR      r1,[sp,#0x808]
        0x0001ba68:    4348        HC      MULS     r0,r1,r0
        0x0001ba6a:    f000ffd0    ....    BL       __aeabi_ui2d ; 0x1ca0e
        0x0001ba6e:    4604        .F      MOV      r4,r0
        0x0001ba70:    4638        8F      MOV      r0,r7
        0x0001ba72:    460d        .F      MOV      r5,r1
        0x0001ba74:    f000fca0    ....    BL       time_in_secs ; 0x1c3b8
        0x0001ba78:    ec532b10    S..+    VMOV     r2,r3,d0
        0x0001ba7c:    4620         F      MOV      r0,r4
        0x0001ba7e:    4629        )F      MOV      r1,r5
        0x0001ba80:    f000fe02    ....    BL       __aeabi_ddiv ; 0x1c688
        0x0001ba84:    f000fdc2    ....    BL       __aeabi_d2f ; 0x1c60c
        0x0001ba88:    f8981000    ....    LDRB     r1,[r8,#0]
        0x0001ba8c:    ee010a10    ....    VMOV     s2,r0
        0x0001ba90:    2901        .)      CMP      r1,#1
        0x0001ba92:    a136        6.      ADR      r1,{pc}+0xda ; 0x1bb6c
        0x0001ba94:    bf08        ..      IT       EQ
        0x0001ba96:    3104        .1      ADDEQ    r1,#4
        0x0001ba98:    ed910a00    ....    VLDR     s0,[r1,#0]
        0x0001ba9c:    ee810a00    ....    VDIV.F32 s0,s2,s0
        0x0001baa0:    ee100a10    ....    VMOV     r0,s0
        0x0001baa4:    f001f892    ....    BL       __aeabi_f2d ; 0x1cbcc
        0x0001baa8:    4602        .F      MOV      r2,r0
        0x0001baaa:    f24d00b8    M...    MOV      r0,#0xd0b8
        0x0001baae:    f2c00001    ....    MOVT     r0,#1
        0x0001bab2:    460b        .F      MOV      r3,r1
        0x0001bab4:    f7fefa96    ....    BL       am_sprintf ; 0x19fe4
        0x0001bab8:    4650        PF      MOV      r0,r10
        0x0001baba:    f000faa3    ....    BL       portable_fini ; 0x1c004
        0x0001babe:    2000        .       MOVS     r0,#0
        0x0001bac0:    f50d6d03    ...m    ADD      sp,sp,#0x830
        0x0001bac4:    ecbd8b02    ....    VPOP     {d8}
        0x0001bac8:    b001        ..      ADD      sp,sp,#4
        0x0001baca:    e8bd8ff0    ....    POP      {r4-r11,pc}
        0x0001bace:    bf00        ..      NOP      
    $d.5
        0x0001bad0:    00000000    ....    DCD    0
        0x0001bad4:    00000000    ....    DCD    0
        0x0001bad8:    00000000    ....    DCD    0
        0x0001badc:    40240000    ..$@    DCD    1076101120
        0x0001bae0:    70206b36    6k p    DCD    1881172790
        0x0001bae4:    6f667265    erfo    DCD    1868984933
        0x0001bae8:    6e616d72    rman    DCD    1851878770
        0x0001baec:    72206563    ce r    DCD    1914725731
        0x0001baf0:    70206e75    un p    DCD    1881173621
        0x0001baf4:    6d617261    aram    DCD    1835102817
        0x0001baf8:    72657465    eter    DCD    1919251557
        0x0001bafc:    6f662073    s fo    DCD    1868963955
        0x0001bb00:    6f632072    r co    DCD    1868767346
        0x0001bb04:    616d6572    rema    DCD    1634559346
        0x0001bb08:    0a2e6b72    rk..    DCD    170814322
        0x0001bb0c:    00000000    ....    DCD    0
        0x0001bb10:    76204b32    2K v    DCD    1981827890
        0x0001bb14:    64696c61    alid    DCD    1684630625
        0x0001bb18:    6f697461    atio    DCD    1869182049
        0x0001bb1c:    7572206e    n ru    DCD    1970413678
        0x0001bb20:    6170206e    n pa    DCD    1634738286
        0x0001bb24:    656d6172    rame    DCD    1701667186
        0x0001bb28:    73726574    ters    DCD    1936876916
        0x0001bb2c:    726f6620     for    DCD    1919903264
        0x0001bb30:    726f6320     cor    DCD    1919902496
        0x0001bb34:    72616d65    emar    DCD    1918987621
        0x0001bb38:    000a2e6b    k...    DCD    667243
        0x0001bb3c:    76206b36    6k v    DCD    1981836086
        0x0001bb40:    64696c61    alid    DCD    1684630625
        0x0001bb44:    6f697461    atio    DCD    1869182049
        0x0001bb48:    7572206e    n ru    DCD    1970413678
        0x0001bb4c:    6170206e    n pa    DCD    1634738286
        0x0001bb50:    656d6172    rame    DCD    1701667186
        0x0001bb54:    73726574    ters    DCD    1936876916
        0x0001bb58:    726f6620     for    DCD    1919903264
        0x0001bb5c:    726f6320     cor    DCD    1919902496
        0x0001bb60:    72616d65    emar    DCD    1918987621
        0x0001bb64:    000a2e6b    k...    DCD    667243
        0x0001bb68:    0000000a    ....    DCD    10
        0x0001bb6c:    42c00000    ...B    DCD    1119879168
        0x0001bb70:    43400000    ..@C    DCD    1128267776
    $t.6
    matrix_mul_matrix
        0x0001bb74:    e92d4ff0    -..O    PUSH     {r4-r11,lr}
        0x0001bb78:    b082        ..      SUB      sp,sp,#8
        0x0001bb7a:    9300        ..      STR      r3,[sp,#0]
        0x0001bb7c:    b340        @.      CBZ      r0,0x1bbd0 ; matrix_mul_matrix + 92
        0x0001bb7e:    ea4f0c40    O.@.    LSL      r12,r0,#1
        0x0001bb82:    2300        .#      MOVS     r3,#0
        0x0001bb84:    f04f0800    O...    MOV      r8,#0
        0x0001bb88:    f8ddb000    ....    LDR      r11,[sp,#0]
        0x0001bb8c:    fb03f900    ....    MUL      r9,r3,r0
        0x0001bb90:    2700        .'      MOVS     r7,#0
        0x0001bb92:    9301        ..      STR      r3,[sp,#4]
        0x0001bb94:    eb070a09    ....    ADD      r10,r7,r9
        0x0001bb98:    465e        ^F      MOV      r6,r11
        0x0001bb9a:    2400        .$      MOVS     r4,#0
        0x0001bb9c:    2500        .%      MOVS     r5,#0
        0x0001bb9e:    f841802a    A.*.    STR      r8,[r1,r10,LSL #2]
        0x0001bba2:    bf00        ..      NOP      
        0x0001bba4:    f932e015    2...    LDRSH    lr,[r2,r5,LSL #1]
        0x0001bba8:    f9b63000    ...0    LDRSH    r3,[r6,#0]
        0x0001bbac:    3501        .5      ADDS     r5,#1
        0x0001bbae:    fb13440e    ...D    SMLABB   r4,r3,lr,r4
        0x0001bbb2:    42a8        .B      CMP      r0,r5
        0x0001bbb4:    4466        fD      ADD      r6,r6,r12
        0x0001bbb6:    d1f5        ..      BNE      0x1bba4 ; matrix_mul_matrix + 48
        0x0001bbb8:    3701        .7      ADDS     r7,#1
        0x0001bbba:    4287        .B      CMP      r7,r0
        0x0001bbbc:    f10b0b02    ....    ADD      r11,r11,#2
        0x0001bbc0:    f841402a    A.*@    STR      r4,[r1,r10,LSL #2]
        0x0001bbc4:    d1e6        ..      BNE      0x1bb94 ; matrix_mul_matrix + 32
        0x0001bbc6:    9b01        ..      LDR      r3,[sp,#4]
        0x0001bbc8:    4462        bD      ADD      r2,r2,r12
        0x0001bbca:    3301        .3      ADDS     r3,#1
        0x0001bbcc:    4283        .B      CMP      r3,r0
        0x0001bbce:    d1db        ..      BNE      0x1bb88 ; matrix_mul_matrix + 20
        0x0001bbd0:    b002        ..      ADD      sp,sp,#8
        0x0001bbd2:    e8bd8ff0    ....    POP      {r4-r11,pc}
        0x0001bbd6:    0000        ..      MOVS     r0,r0
    matrix_mul_matrix_bitextract
        0x0001bbd8:    e92d4ff0    -..O    PUSH     {r4-r11,lr}
        0x0001bbdc:    b082        ..      SUB      sp,sp,#8
        0x0001bbde:    9300        ..      STR      r3,[sp,#0]
        0x0001bbe0:    b370        p.      CBZ      r0,0x1bc40 ; matrix_mul_matrix_bitextract + 104
        0x0001bbe2:    ea4f0c40    O.@.    LSL      r12,r0,#1
        0x0001bbe6:    2300        .#      MOVS     r3,#0
        0x0001bbe8:    f8ddb000    ....    LDR      r11,[sp,#0]
        0x0001bbec:    fb03f900    ....    MUL      r9,r3,r0
        0x0001bbf0:    f04f0800    O...    MOV      r8,#0
        0x0001bbf4:    9301        ..      STR      r3,[sp,#4]
        0x0001bbf6:    bf00        ..      NOP      
        0x0001bbf8:    eb080a09    ....    ADD      r10,r8,r9
        0x0001bbfc:    2300        .#      MOVS     r3,#0
        0x0001bbfe:    465e        ^F      MOV      r6,r11
        0x0001bc00:    2400        .$      MOVS     r4,#0
        0x0001bc02:    2500        .%      MOVS     r5,#0
        0x0001bc04:    f841302a    A.*0    STR      r3,[r1,r10,LSL #2]
        0x0001bc08:    f832e015    2...    LDRH     lr,[r2,r5,LSL #1]
        0x0001bc0c:    8833        3.      LDRH     r3,[r6,#0]
        0x0001bc0e:    3501        .5      ADDS     r5,#1
        0x0001bc10:    fb03f30e    ....    MUL      r3,r3,lr
        0x0001bc14:    f3c30783    ....    UBFX     r7,r3,#2,#4
        0x0001bc18:    f3c31346    ..F.    UBFX     r3,r3,#5,#7
        0x0001bc1c:    fb174403    ...D    SMLABB   r4,r7,r3,r4
        0x0001bc20:    42a8        .B      CMP      r0,r5
        0x0001bc22:    4466        fD      ADD      r6,r6,r12
        0x0001bc24:    d1f0        ..      BNE      0x1bc08 ; matrix_mul_matrix_bitextract + 48
        0x0001bc26:    f1080801    ....    ADD      r8,r8,#1
        0x0001bc2a:    4580        .E      CMP      r8,r0
        0x0001bc2c:    f10b0b02    ....    ADD      r11,r11,#2
        0x0001bc30:    f841402a    A.*@    STR      r4,[r1,r10,LSL #2]
        0x0001bc34:    d1e0        ..      BNE      0x1bbf8 ; matrix_mul_matrix_bitextract + 32
        0x0001bc36:    9b01        ..      LDR      r3,[sp,#4]
        0x0001bc38:    4462        bD      ADD      r2,r2,r12
        0x0001bc3a:    3301        .3      ADDS     r3,#1
        0x0001bc3c:    4283        .B      CMP      r3,r0
        0x0001bc3e:    d1d3        ..      BNE      0x1bbe8 ; matrix_mul_matrix_bitextract + 16
        0x0001bc40:    b002        ..      ADD      sp,sp,#8
        0x0001bc42:    e8bd8ff0    ....    POP      {r4-r11,pc}
        0x0001bc46:    0000        ..      MOVS     r0,r0
    matrix_sum
        0x0001bc48:    b5f0        ..      PUSH     {r4-r7,lr}
        0x0001bc4a:    f04f0300    O...    MOV      r3,#0
        0x0001bc4e:    b1e8        ..      CBZ      r0,0x1bc8c ; matrix_sum + 68
        0x0001bc50:    ea4f0c80    O...    LSL      r12,r0,#2
        0x0001bc54:    f04f0e00    O...    MOV      lr,#0
        0x0001bc58:    2500        .%      MOVS     r5,#0
        0x0001bc5a:    2400        .$      MOVS     r4,#0
        0x0001bc5c:    2600        .&      MOVS     r6,#0
        0x0001bc5e:    bf00        ..      NOP      
        0x0001bc60:    462f        /F      MOV      r7,r5
        0x0001bc62:    f8515026    Q.&P    LDR      r5,[r1,r6,LSL #2]
        0x0001bc66:    3601        .6      ADDS     r6,#1
        0x0001bc68:    442c        ,D      ADD      r4,r4,r5
        0x0001bc6a:    42bd        .B      CMP      r5,r7
        0x0001bc6c:    f04f0700    O...    MOV      r7,#0
        0x0001bc70:    bfc8        ..      IT       GT
        0x0001bc72:    2701        .'      MOVGT    r7,#1
        0x0001bc74:    4294        .B      CMP      r4,r2
        0x0001bc76:    bfc4        ..      ITT      GT
        0x0001bc78:    2400        .$      MOVGT    r4,#0
        0x0001bc7a:    270a        .'      MOVGT    r7,#0xa
        0x0001bc7c:    42b0        .B      CMP      r0,r6
        0x0001bc7e:    443b        ;D      ADD      r3,r3,r7
        0x0001bc80:    d1ee        ..      BNE      0x1bc60 ; matrix_sum + 24
        0x0001bc82:    f10e0e01    ....    ADD      lr,lr,#1
        0x0001bc86:    4586        .E      CMP      lr,r0
        0x0001bc88:    4461        aD      ADD      r1,r1,r12
        0x0001bc8a:    d1e7        ..      BNE      0x1bc5c ; matrix_sum + 20
        0x0001bc8c:    b218        ..      SXTH     r0,r3
        0x0001bc8e:    bdf0        ..      POP      {r4-r7,pc}
    matrix_test
        0x0001bc90:    e92d4ff0    -..O    PUSH     {r4-r11,lr}
        0x0001bc94:    b081        ..      SUB      sp,sp,#4
        0x0001bc96:    4605        .F      MOV      r5,r0
        0x0001bc98:    f8dda028    ..(.    LDR      r10,[sp,#0x28]
        0x0001bc9c:    f24f0000    O...    MOVW     r0,#0xf000
        0x0001bca0:    f6cf70ff    ...p    MOVT     r0,#0xffff
        0x0001bca4:    461f        .F      MOV      r7,r3
        0x0001bca6:    4693        .F      MOV      r11,r2
        0x0001bca8:    4688        .F      MOV      r8,r1
        0x0001bcaa:    ea4a0200    J...    ORR      r2,r10,r0
        0x0001bcae:    b1bd        ..      CBZ      r5,0x1bce0 ; matrix_test + 80
        0x0001bcb0:    fb05f405    ....    MUL      r4,r5,r5
        0x0001bcb4:    2c01        .,      CMP      r4,#1
        0x0001bcb6:    bf98        ..      IT       LS
        0x0001bcb8:    2401        .$      MOVLS    r4,#1
        0x0001bcba:    4659        YF      MOV      r1,r11
        0x0001bcbc:    4620         F      MOV      r0,r4
        0x0001bcbe:    bf00        ..      NOP      
        0x0001bcc0:    880b        ..      LDRH     r3,[r1,#0]
        0x0001bcc2:    3801        .8      SUBS     r0,#1
        0x0001bcc4:    4453        SD      ADD      r3,r3,r10
        0x0001bcc6:    f8213b02    !..;    STRH     r3,[r1],#2
        0x0001bcca:    d1f9        ..      BNE      0x1bcc0 ; matrix_test + 48
        0x0001bccc:    4659        YF      MOV      r1,r11
        0x0001bcce:    4646        FF      MOV      r6,r8
        0x0001bcd0:    f9313b02    1..;    LDRSH    r3,[r1],#2
        0x0001bcd4:    3c01        .<      SUBS     r4,#1
        0x0001bcd6:    fb03f30a    ....    MUL      r3,r3,r10
        0x0001bcda:    f8463b04    F..;    STR      r3,[r6],#4
        0x0001bcde:    d1f7        ..      BNE      0x1bcd0 ; matrix_test + 64
        0x0001bce0:    4628        (F      MOV      r0,r5
        0x0001bce2:    4641        AF      MOV      r1,r8
        0x0001bce4:    9200        ..      STR      r2,[sp,#0]
        0x0001bce6:    f7ffffaf    ....    BL       matrix_sum ; 0x1bc48
        0x0001bcea:    2100        .!      MOVS     r1,#0
        0x0001bcec:    f7fffa3a    ..:.    BL       crc16 ; 0x1b164
        0x0001bcf0:    4681        .F      MOV      r9,r0
        0x0001bcf2:    b1c5        ..      CBZ      r5,0x1bd26 ; matrix_test + 150
        0x0001bcf4:    ea4f0e45    O.E.    LSL      lr,r5,#1
        0x0001bcf8:    f04f0c00    O...    MOV      r12,#0
        0x0001bcfc:    465a        ZF      MOV      r2,r11
        0x0001bcfe:    2300        .#      MOVS     r3,#0
        0x0001bd00:    2100        .!      MOVS     r1,#0
        0x0001bd02:    2400        .$      MOVS     r4,#0
        0x0001bd04:    f848c023    H.#.    STR      r12,[r8,r3,LSL #2]
        0x0001bd08:    f9326014    2..`    LDRSH    r6,[r2,r4,LSL #1]
        0x0001bd0c:    f9370014    7...    LDRSH    r0,[r7,r4,LSL #1]
        0x0001bd10:    3401        .4      ADDS     r4,#1
        0x0001bd12:    42a5        .B      CMP      r5,r4
        0x0001bd14:    fb101106    ....    SMLABB   r1,r0,r6,r1
        0x0001bd18:    d1f6        ..      BNE      0x1bd08 ; matrix_test + 120
        0x0001bd1a:    f8481023    H.#.    STR      r1,[r8,r3,LSL #2]
        0x0001bd1e:    3301        .3      ADDS     r3,#1
        0x0001bd20:    42ab        .B      CMP      r3,r5
        0x0001bd22:    4472        rD      ADD      r2,r2,lr
        0x0001bd24:    d1ec        ..      BNE      0x1bd00 ; matrix_test + 112
        0x0001bd26:    9c00        ..      LDR      r4,[sp,#0]
        0x0001bd28:    4628        (F      MOV      r0,r5
        0x0001bd2a:    4641        AF      MOV      r1,r8
        0x0001bd2c:    4622        "F      MOV      r2,r4
        0x0001bd2e:    f7ffff8b    ....    BL       matrix_sum ; 0x1bc48
        0x0001bd32:    4649        IF      MOV      r1,r9
        0x0001bd34:    f7fffa16    ....    BL       crc16 ; 0x1b164
        0x0001bd38:    4681        .F      MOV      r9,r0
        0x0001bd3a:    4628        (F      MOV      r0,r5
        0x0001bd3c:    4641        AF      MOV      r1,r8
        0x0001bd3e:    465a        ZF      MOV      r2,r11
        0x0001bd40:    463b        ;F      MOV      r3,r7
        0x0001bd42:    f7ffff17    ....    BL       matrix_mul_matrix ; 0x1bb74
        0x0001bd46:    4628        (F      MOV      r0,r5
        0x0001bd48:    4641        AF      MOV      r1,r8
        0x0001bd4a:    4622        "F      MOV      r2,r4
        0x0001bd4c:    f7ffff7c    ..|.    BL       matrix_sum ; 0x1bc48
        0x0001bd50:    4649        IF      MOV      r1,r9
        0x0001bd52:    f7fffa07    ....    BL       crc16 ; 0x1b164
        0x0001bd56:    4681        .F      MOV      r9,r0
        0x0001bd58:    4628        (F      MOV      r0,r5
        0x0001bd5a:    4641        AF      MOV      r1,r8
        0x0001bd5c:    465a        ZF      MOV      r2,r11
        0x0001bd5e:    463b        ;F      MOV      r3,r7
        0x0001bd60:    f7ffff3a    ..:.    BL       matrix_mul_matrix_bitextract ; 0x1bbd8
        0x0001bd64:    4628        (F      MOV      r0,r5
        0x0001bd66:    4641        AF      MOV      r1,r8
        0x0001bd68:    4622        "F      MOV      r2,r4
        0x0001bd6a:    f7ffff6d    ..m.    BL       matrix_sum ; 0x1bc48
        0x0001bd6e:    4649        IF      MOV      r1,r9
        0x0001bd70:    f7fff9f8    ....    BL       crc16 ; 0x1b164
        0x0001bd74:    b15d        ].      CBZ      r5,0x1bd8e ; matrix_test + 254
        0x0001bd76:    fb05f105    ....    MUL      r1,r5,r5
        0x0001bd7a:    2200        ."      MOVS     r2,#0
        0x0001bd7c:    f83b3012    ;..0    LDRH     r3,[r11,r2,LSL #1]
        0x0001bd80:    eba3030a    ....    SUB      r3,r3,r10
        0x0001bd84:    f82b3012    +..0    STRH     r3,[r11,r2,LSL #1]
        0x0001bd88:    3201        .2      ADDS     r2,#1
        0x0001bd8a:    428a        .B      CMP      r2,r1
        0x0001bd8c:    d3f6        ..      BCC      0x1bd7c ; matrix_test + 236
        0x0001bd8e:    b200        ..      SXTH     r0,r0
        0x0001bd90:    b001        ..      ADD      sp,sp,#4
        0x0001bd92:    e8bd8ff0    ....    POP      {r4-r11,pc}
    nonblocking_read
        0x0001bd96:    b510        ..      PUSH     {r4,lr}
        0x0001bd98:    b190        ..      CBZ      r0,0x1bdc0 ; nonblocking_read + 42
        0x0001bd9a:    4604        .F      MOV      r4,r0
        0x0001bd9c:    6800        .h      LDR      r0,[r0,#0]
        0x0001bd9e:    f6496206    I..b    MOV      r2,#0x9e06
        0x0001bda2:    f020407e     .~@    BIC      r0,r0,#0xfe000000
        0x0001bda6:    f2c012ea    ....    MOVT     r2,#0x1ea
        0x0001bdaa:    4290        .B      CMP      r0,r2
        0x0001bdac:    d108        ..      BNE      0x1bdc0 ; nonblocking_read + 42
        0x0001bdae:    68c8        .h      LDR      r0,[r1,#0xc]
        0x0001bdb0:    b108        ..      CBZ      r0,0x1bdb6 ; nonblocking_read + 32
        0x0001bdb2:    2200        ."      MOVS     r2,#0
        0x0001bdb4:    6002        .`      STR      r2,[r0,#0]
        0x0001bdb6:    4620         F      MOV      r0,r4
        0x0001bdb8:    f000fa8a    ....    BL       read_transaction_save ; 0x1c2d0
        0x0001bdbc:    b110        ..      CBZ      r0,0x1bdc4 ; nonblocking_read + 46
        0x0001bdbe:    bd10        ..      POP      {r4,pc}
        0x0001bdc0:    2002        .       MOVS     r0,#2
        0x0001bdc2:    bd10        ..      POP      {r4,pc}
        0x0001bdc4:    4620         F      MOV      r0,r4
        0x0001bdc6:    f000f803    ....    BL       nonblocking_read_sm ; 0x1bdd0
        0x0001bdca:    2000        .       MOVS     r0,#0
        0x0001bdcc:    bd10        ..      POP      {r4,pc}
        0x0001bdce:    0000        ..      MOVS     r0,r0
    nonblocking_read_sm
        0x0001bdd0:    b5b0        ..      PUSH     {r4,r5,r7,lr}
        0x0001bdd2:    b08a        ..      SUB      sp,sp,#0x28
        0x0001bdd4:    4604        .F      MOV      r4,r0
        0x0001bdd6:    f8900098    ....    LDRB     r0,[r0,#0x98]
        0x0001bdda:    b1f8        ..      CBZ      r0,0x1be1c ; nonblocking_read_sm + 76
        0x0001bddc:    f7fcfed4    ....    BL       am_hal_interrupt_master_disable ; 0x18b88
        0x0001bde0:    9001        ..      STR      r0,[sp,#4]
        0x0001bde2:    6a60        `j      LDR      r0,[r4,#0x24]
        0x0001bde4:    f24c0100    L...    MOVW     r1,#0xc000
        0x0001bde8:    f2c40101    ....    MOVT     r1,#0x4001
        0x0001bdec:    eb013000    ...0    ADD      r0,r1,r0,LSL #12
        0x0001bdf0:    2200        ."      MOVS     r2,#0
        0x0001bdf2:    a902        ..      ADD      r1,sp,#8
        0x0001bdf4:    6983        .i      LDR      r3,[r0,#0x18]
        0x0001bdf6:    06db        ..      LSLS     r3,r3,#27
        0x0001bdf8:    d408        ..      BMI      0x1be0c ; nonblocking_read_sm + 60
        0x0001bdfa:    6803        .h      LDR      r3,[r0,#0]
        0x0001bdfc:    f4136f70    ..po    TST      r3,#0xf00
        0x0001be00:    d109        ..      BNE      0x1be16 ; nonblocking_read_sm + 70
        0x0001be02:    548b        .T      STRB     r3,[r1,r2]
        0x0001be04:    3201        .2      ADDS     r2,#1
        0x0001be06:    2a20         *      CMP      r2,#0x20
        0x0001be08:    d1f4        ..      BNE      0x1bdf4 ; nonblocking_read_sm + 36
        0x0001be0a:    2220         "      MOVS     r2,#0x20
        0x0001be0c:    f104009c    ....    ADD      r0,r4,#0x9c
        0x0001be10:    a902        ..      ADD      r1,sp,#8
        0x0001be12:    f7fdfbe1    ....    BL       am_hal_queue_item_add ; 0x195d8
        0x0001be16:    9801        ..      LDR      r0,[sp,#4]
        0x0001be18:    f7fcfebe    ....    BL       am_hal_interrupt_master_set ; 0x18b98
        0x0001be1c:    f894002c    ..,.    LDRB     r0,[r4,#0x2c]
        0x0001be20:    2800        .(      CMP      r0,#0
        0x0001be22:    d04c        L.      BEQ      0x1bebe ; nonblocking_read_sm + 238
        0x0001be24:    f7fcfeb0    ....    BL       am_hal_interrupt_master_disable ; 0x18b88
        0x0001be28:    9002        ..      STR      r0,[sp,#8]
        0x0001be2a:    6d20         m      LDR      r0,[r4,#0x50]
        0x0001be2c:    f8941098    ....    LDRB     r1,[r4,#0x98]
        0x0001be30:    6ba2        .k      LDR      r2,[r4,#0x38]
        0x0001be32:    2900        .)      CMP      r1,#0
        0x0001be34:    6b61        ak      LDR      r1,[r4,#0x34]
        0x0001be36:    eba20200    ....    SUB      r2,r2,r0
        0x0001be3a:    4401        .D      ADD      r1,r1,r0
        0x0001be3c:    d012        ..      BEQ      0x1be64 ; nonblocking_read_sm + 148
        0x0001be3e:    f8d450a4    ...P    LDR      r5,[r4,#0xa4]
        0x0001be42:    f104009c    ....    ADD      r0,r4,#0x9c
        0x0001be46:    42aa        .B      CMP      r2,r5
        0x0001be48:    bf38        8.      IT       CC
        0x0001be4a:    4615        .F      MOVCC    r5,r2
        0x0001be4c:    462a        *F      MOV      r2,r5
        0x0001be4e:    f7fdfbf7    ....    BL       am_hal_queue_item_get ; 0x19640
        0x0001be52:    b9f8        ..      CBNZ     r0,0x1be94 ; nonblocking_read_sm + 196
        0x0001be54:    6c62        bl      LDR      r2,[r4,#0x44]
        0x0001be56:    2000        .       MOVS     r0,#0
        0x0001be58:    f884002c    ..,.    STRB     r0,[r4,#0x2c]
        0x0001be5c:    b1d2        ..      CBZ      r2,0x1be94 ; nonblocking_read_sm + 196
        0x0001be5e:    6ca1        .l      LDR      r1,[r4,#0x48]
        0x0001be60:    2001        .       MOVS     r0,#1
        0x0001be62:    e02b        +.      B        0x1bebc ; nonblocking_read_sm + 236
        0x0001be64:    b1aa        ..      CBZ      r2,0x1be92 ; nonblocking_read_sm + 194
        0x0001be66:    6a60        `j      LDR      r0,[r4,#0x24]
        0x0001be68:    f24c0300    L...    MOVW     r3,#0xc000
        0x0001be6c:    f2c40301    ....    MOVT     r3,#0x4001
        0x0001be70:    eb033000    ...0    ADD      r0,r3,r0,LSL #12
        0x0001be74:    2500        .%      MOVS     r5,#0
        0x0001be76:    bf00        ..      NOP      
        0x0001be78:    6983        .i      LDR      r3,[r0,#0x18]
        0x0001be7a:    06db        ..      LSLS     r3,r3,#27
        0x0001be7c:    d40a        ..      BMI      0x1be94 ; nonblocking_read_sm + 196
        0x0001be7e:    6803        .h      LDR      r3,[r0,#0]
        0x0001be80:    f4136f70    ..po    TST      r3,#0xf00
        0x0001be84:    d106        ..      BNE      0x1be94 ; nonblocking_read_sm + 196
        0x0001be86:    554b        KU      STRB     r3,[r1,r5]
        0x0001be88:    3501        .5      ADDS     r5,#1
        0x0001be8a:    42aa        .B      CMP      r2,r5
        0x0001be8c:    d1f4        ..      BNE      0x1be78 ; nonblocking_read_sm + 168
        0x0001be8e:    4615        .F      MOV      r5,r2
        0x0001be90:    e000        ..      B        0x1be94 ; nonblocking_read_sm + 196
        0x0001be92:    2500        .%      MOVS     r5,#0
        0x0001be94:    6d20         m      LDR      r0,[r4,#0x50]
        0x0001be96:    4428        (D      ADD      r0,r0,r5
        0x0001be98:    6520         e      STR      r0,[r4,#0x50]
        0x0001be9a:    9802        ..      LDR      r0,[sp,#8]
        0x0001be9c:    f7fcfe7c    ..|.    BL       am_hal_interrupt_master_set ; 0x18b98
        0x0001bea0:    6be0        .k      LDR      r0,[r4,#0x3c]
        0x0001bea2:    6d21        !m      LDR      r1,[r4,#0x50]
        0x0001bea4:    6001        .`      STR      r1,[r0,#0]
        0x0001bea6:    6ba0        .k      LDR      r0,[r4,#0x38]
        0x0001bea8:    6d21        !m      LDR      r1,[r4,#0x50]
        0x0001beaa:    4281        .B      CMP      r1,r0
        0x0001beac:    d107        ..      BNE      0x1bebe ; nonblocking_read_sm + 238
        0x0001beae:    6c62        bl      LDR      r2,[r4,#0x44]
        0x0001beb0:    2000        .       MOVS     r0,#0
        0x0001beb2:    f884002c    ..,.    STRB     r0,[r4,#0x2c]
        0x0001beb6:    b112        ..      CBZ      r2,0x1bebe ; nonblocking_read_sm + 238
        0x0001beb8:    6ca1        .l      LDR      r1,[r4,#0x48]
        0x0001beba:    2000        .       MOVS     r0,#0
        0x0001bebc:    4790        .G      BLX      r2
        0x0001bebe:    b00a        ..      ADD      sp,sp,#0x28
        0x0001bec0:    bdb0        ..      POP      {r4,r5,r7,pc}
    nonblocking_write
        0x0001bec2:    b510        ..      PUSH     {r4,lr}
        0x0001bec4:    b190        ..      CBZ      r0,0x1beec ; nonblocking_write + 42
        0x0001bec6:    4604        .F      MOV      r4,r0
        0x0001bec8:    6800        .h      LDR      r0,[r0,#0]
        0x0001beca:    f6496206    I..b    MOV      r2,#0x9e06
        0x0001bece:    f020407e     .~@    BIC      r0,r0,#0xfe000000
        0x0001bed2:    f2c012ea    ....    MOVT     r2,#0x1ea
        0x0001bed6:    4290        .B      CMP      r0,r2
        0x0001bed8:    d108        ..      BNE      0x1beec ; nonblocking_write + 42
        0x0001beda:    68c8        .h      LDR      r0,[r1,#0xc]
        0x0001bedc:    b108        ..      CBZ      r0,0x1bee2 ; nonblocking_write + 32
        0x0001bede:    2200        ."      MOVS     r2,#0
        0x0001bee0:    6002        .`      STR      r2,[r0,#0]
        0x0001bee2:    4620         F      MOV      r0,r4
        0x0001bee4:    f000fb66    ..f.    BL       write_transaction_save ; 0x1c5b4
        0x0001bee8:    b110        ..      CBZ      r0,0x1bef0 ; nonblocking_write + 46
        0x0001beea:    bd10        ..      POP      {r4,pc}
        0x0001beec:    2002        .       MOVS     r0,#2
        0x0001beee:    bd10        ..      POP      {r4,pc}
        0x0001bef0:    4620         F      MOV      r0,r4
        0x0001bef2:    f000f803    ....    BL       nonblocking_write_sm ; 0x1befc
        0x0001bef6:    2000        .       MOVS     r0,#0
        0x0001bef8:    bd10        ..      POP      {r4,pc}
        0x0001befa:    0000        ..      MOVS     r0,r0
    nonblocking_write_sm
        0x0001befc:    e92d41f0    -..A    PUSH     {r4-r8,lr}
        0x0001bf00:    b084        ..      SUB      sp,sp,#0x10
        0x0001bf02:    4604        .F      MOV      r4,r0
        0x0001bf04:    f8900054    ..T.    LDRB     r0,[r0,#0x54]
        0x0001bf08:    b3e8        ..      CBZ      r0,0x1bf86 ; nonblocking_write_sm + 138
        0x0001bf0a:    f7fcfe3d    ..=.    BL       am_hal_interrupt_master_disable ; 0x18b88
        0x0001bf0e:    9001        ..      STR      r0,[sp,#4]
        0x0001bf10:    6fa0        .o      LDR      r0,[r4,#0x78]
        0x0001bf12:    f894107c    ..|.    LDRB     r1,[r4,#0x7c]
        0x0001bf16:    6e22        "n      LDR      r2,[r4,#0x60]
        0x0001bf18:    2900        .)      CMP      r1,#0
        0x0001bf1a:    6de1        .m      LDR      r1,[r4,#0x5c]
        0x0001bf1c:    eba20200    ....    SUB      r2,r2,r0
        0x0001bf20:    4401        .D      ADD      r1,r1,r0
        0x0001bf22:    d015        ..      BEQ      0x1bf50 ; nonblocking_write_sm + 84
        0x0001bf24:    f8d43088    ...0    LDR      r3,[r4,#0x88]
        0x0001bf28:    f8d4708c    ...p    LDR      r7,[r4,#0x8c]
        0x0001bf2c:    f1040080    ....    ADD      r0,r4,#0x80
        0x0001bf30:    1afd        ..      SUBS     r5,r7,r3
        0x0001bf32:    42aa        .B      CMP      r2,r5
        0x0001bf34:    bf38        8.      IT       CC
        0x0001bf36:    4615        .F      MOVCC    r5,r2
        0x0001bf38:    462a        *F      MOV      r2,r5
        0x0001bf3a:    f7fdfb4d    ..M.    BL       am_hal_queue_item_add ; 0x195d8
        0x0001bf3e:    b9e0        ..      CBNZ     r0,0x1bf7a ; nonblocking_write_sm + 126
        0x0001bf40:    6ee2        .n      LDR      r2,[r4,#0x6c]
        0x0001bf42:    2000        .       MOVS     r0,#0
        0x0001bf44:    f8840054    ..T.    STRB     r0,[r4,#0x54]
        0x0001bf48:    b1ba        ..      CBZ      r2,0x1bf7a ; nonblocking_write_sm + 126
        0x0001bf4a:    6f21        !o      LDR      r1,[r4,#0x70]
        0x0001bf4c:    2001        .       MOVS     r0,#1
        0x0001bf4e:    e055        U.      B        0x1bffc ; nonblocking_write_sm + 256
        0x0001bf50:    b192        ..      CBZ      r2,0x1bf78 ; nonblocking_write_sm + 124
        0x0001bf52:    6a60        `j      LDR      r0,[r4,#0x24]
        0x0001bf54:    f24c0300    L...    MOVW     r3,#0xc000
        0x0001bf58:    f2c40301    ....    MOVT     r3,#0x4001
        0x0001bf5c:    eb033000    ...0    ADD      r0,r3,r0,LSL #12
        0x0001bf60:    2500        .%      MOVS     r5,#0
        0x0001bf62:    bf00        ..      NOP      
        0x0001bf64:    6983        .i      LDR      r3,[r0,#0x18]
        0x0001bf66:    069b        ..      LSLS     r3,r3,#26
        0x0001bf68:    d407        ..      BMI      0x1bf7a ; nonblocking_write_sm + 126
        0x0001bf6a:    5d4b        K]      LDRB     r3,[r1,r5]
        0x0001bf6c:    3501        .5      ADDS     r5,#1
        0x0001bf6e:    42aa        .B      CMP      r2,r5
        0x0001bf70:    6003        .`      STR      r3,[r0,#0]
        0x0001bf72:    d1f7        ..      BNE      0x1bf64 ; nonblocking_write_sm + 104
        0x0001bf74:    4615        .F      MOV      r5,r2
        0x0001bf76:    e000        ..      B        0x1bf7a ; nonblocking_write_sm + 126
        0x0001bf78:    2500        .%      MOVS     r5,#0
        0x0001bf7a:    6fa0        .o      LDR      r0,[r4,#0x78]
        0x0001bf7c:    4428        (D      ADD      r0,r0,r5
        0x0001bf7e:    67a0        .g      STR      r0,[r4,#0x78]
        0x0001bf80:    9801        ..      LDR      r0,[sp,#4]
        0x0001bf82:    f7fcfe09    ....    BL       am_hal_interrupt_master_set ; 0x18b98
        0x0001bf86:    f894007c    ..|.    LDRB     r0,[r4,#0x7c]
        0x0001bf8a:    b330        0.      CBZ      r0,0x1bfda ; nonblocking_write_sm + 222
        0x0001bf8c:    6a65        ej      LDR      r5,[r4,#0x24]
        0x0001bf8e:    f24c0800    L...    MOVW     r8,#0xc000
        0x0001bf92:    f2c40801    ....    MOVT     r8,#0x4001
        0x0001bf96:    f7fcfdf7    ....    BL       am_hal_interrupt_master_disable ; 0x18b88
        0x0001bf9a:    9002        ..      STR      r0,[sp,#8]
        0x0001bf9c:    eb083705    ...7    ADD      r7,r8,r5,LSL #12
        0x0001bfa0:    69b8        .i      LDR      r0,[r7,#0x18]
        0x0001bfa2:    0680        ..      LSLS     r0,r0,#26
        0x0001bfa4:    d416        ..      BMI      0x1bfd4 ; nonblocking_write_sm + 216
        0x0001bfa6:    f1040580    ....    ADD      r5,r4,#0x80
        0x0001bfaa:    f10d060f    ....    ADD      r6,sp,#0xf
        0x0001bfae:    bf00        ..      NOP      
        0x0001bfb0:    4628        (F      MOV      r0,r5
        0x0001bfb2:    4631        1F      MOV      r1,r6
        0x0001bfb4:    2201        ."      MOVS     r2,#1
        0x0001bfb6:    f7fdfb43    ..C.    BL       am_hal_queue_item_get ; 0x19640
        0x0001bfba:    b158        X.      CBZ      r0,0x1bfd4 ; nonblocking_write_sm + 216
        0x0001bfbc:    6a60        `j      LDR      r0,[r4,#0x24]
        0x0001bfbe:    f89d100f    ....    LDRB     r1,[sp,#0xf]
        0x0001bfc2:    eb083000    ...0    ADD      r0,r8,r0,LSL #12
        0x0001bfc6:    6982        .i      LDR      r2,[r0,#0x18]
        0x0001bfc8:    0692        ..      LSLS     r2,r2,#26
        0x0001bfca:    bf58        X.      IT       PL
        0x0001bfcc:    6001        .`      STRPL    r1,[r0,#0]
        0x0001bfce:    69b8        .i      LDR      r0,[r7,#0x18]
        0x0001bfd0:    0680        ..      LSLS     r0,r0,#26
        0x0001bfd2:    d5ed        ..      BPL      0x1bfb0 ; nonblocking_write_sm + 180
        0x0001bfd4:    9802        ..      LDR      r0,[sp,#8]
        0x0001bfd6:    f7fcfddf    ....    BL       am_hal_interrupt_master_set ; 0x18b98
        0x0001bfda:    6e60        `n      LDR      r0,[r4,#0x64]
        0x0001bfdc:    6fa1        .o      LDR      r1,[r4,#0x78]
        0x0001bfde:    6001        .`      STR      r1,[r0,#0]
        0x0001bfe0:    6e20         n      LDR      r0,[r4,#0x60]
        0x0001bfe2:    6fa1        .o      LDR      r1,[r4,#0x78]
        0x0001bfe4:    4281        .B      CMP      r1,r0
        0x0001bfe6:    d10a        ..      BNE      0x1bffe ; nonblocking_write_sm + 258
        0x0001bfe8:    f8940054    ..T.    LDRB     r0,[r4,#0x54]
        0x0001bfec:    b138        8.      CBZ      r0,0x1bffe ; nonblocking_write_sm + 258
        0x0001bfee:    6ee2        .n      LDR      r2,[r4,#0x6c]
        0x0001bff0:    2000        .       MOVS     r0,#0
        0x0001bff2:    f8840054    ..T.    STRB     r0,[r4,#0x54]
        0x0001bff6:    b112        ..      CBZ      r2,0x1bffe ; nonblocking_write_sm + 258
        0x0001bff8:    6f21        !o      LDR      r1,[r4,#0x70]
        0x0001bffa:    2000        .       MOVS     r0,#0
        0x0001bffc:    4790        .G      BLX      r2
        0x0001bffe:    b004        ..      ADD      sp,sp,#0x10
        0x0001c000:    e8bd81f0    ....    POP      {r4-r8,pc}
    portable_fini
        0x0001c004:    e92d41f0    -..A    PUSH     {r4-r8,lr}
        0x0001c008:    2100        .!      MOVS     r1,#0
        0x0001c00a:    7001        .p      STRB     r1,[r0,#0]
        0x0001c00c:    f7fcfae5    ....    BL       am_bsp_uart_printf_enable ; 0x185da
        0x0001c010:    a033        3.      ADR      r0,{pc}+0xd0 ; 0x1c0e0
        0x0001c012:    f7fef842    ..B.    BL       am_util_stdio_printf ; 0x1a09a
        0x0001c016:    f24020a0    @..     MOVW     r0,#0x2a0
        0x0001c01a:    f2c10000    ....    MOVT     r0,#0x1000
        0x0001c01e:    7800        .x      LDRB     r0,[r0,#0]
        0x0001c020:    b1c0        ..      CBZ      r0,0x1c054 ; portable_fini + 80
        0x0001c022:    f24024a0    @..$    MOVW     r4,#0x2a0
        0x0001c026:    f2c10400    ....    MOVT     r4,#0x1000
        0x0001c02a:    2500        .%      MOVS     r5,#0
        0x0001c02c:    f24026fe    @..&    MOV      r6,#0x2fe
        0x0001c030:    4620         F      MOV      r0,r4
        0x0001c032:    f7fef832    ..2.    BL       am_util_stdio_printf ; 0x1a09a
        0x0001c036:    7820         x      LDRB     r0,[r4,#0]
        0x0001c038:    b128        (.      CBZ      r0,0x1c046 ; portable_fini + 66
        0x0001c03a:    bf00        ..      NOP      
        0x0001c03c:    f8140f01    ....    LDRB     r0,[r4,#1]!
        0x0001c040:    3501        .5      ADDS     r5,#1
        0x0001c042:    2800        .(      CMP      r0,#0
        0x0001c044:    d1fa        ..      BNE      0x1c03c ; portable_fini + 56
        0x0001c046:    42b5        .B      CMP      r5,r6
        0x0001c048:    dc04        ..      BGT      0x1c054 ; portable_fini + 80
        0x0001c04a:    f8140f01    ....    LDRB     r0,[r4,#1]!
        0x0001c04e:    3501        .5      ADDS     r5,#1
        0x0001c050:    2800        .(      CMP      r0,#0
        0x0001c052:    d1ed        ..      BNE      0x1c030 ; portable_fini + 44
        0x0001c054:    f7fcfa96    ....    BL       am_bsp_uart_printf_disable ; 0x18584
        0x0001c058:    f2400800    @...    MOVW     r8,#0
        0x0001c05c:    f2c10800    ....    MOVT     r8,#0x1000
        0x0001c060:    4640        @F      MOV      r0,r8
        0x0001c062:    2103        .!      MOVS     r1,#3
        0x0001c064:    f7fcfb1a    ....    BL       am_devices_led_array_init ; 0x1869c
        0x0001c068:    f64a26ab    J..&    MOV      r6,#0xaaab
        0x0001c06c:    2500        .%      MOVS     r5,#0
        0x0001c06e:    f6ca26aa    ...&    MOVT     r6,#0xaaaa
        0x0001c072:    2701        .'      MOVS     r7,#1
        0x0001c074:    2404        .$      MOVS     r4,#4
        0x0001c076:    bf00        ..      NOP      
        0x0001c078:    b2e8        ..      UXTB     r0,r5
        0x0001c07a:    fba01206    ....    UMULL    r1,r2,r0,r6
        0x0001c07e:    0891        ..      LSRS     r1,r2,#2
        0x0001c080:    eb010141    ..A.    ADD      r1,r1,r1,LSL #1
        0x0001c084:    eba00041    ..A.    SUB      r0,r0,r1,LSL #1
        0x0001c088:    1ec1        ..      SUBS     r1,r0,#3
        0x0001c08a:    fa24f201    $...    LSR      r2,r4,r1
        0x0001c08e:    bf38        8.      IT       CC
        0x0001c090:    fa07f200    ....    LSLCC    r2,r7,r0
        0x0001c094:    4640        @F      MOV      r0,r8
        0x0001c096:    2103        .!      MOVS     r1,#3
        0x0001c098:    f7fcfb14    ....    BL       am_devices_led_array_out ; 0x186c4
        0x0001c09c:    20c8        .       MOVS     r0,#0xc8
        0x0001c09e:    f7fdfff7    ....    BL       am_util_delay_ms ; 0x1a090
        0x0001c0a2:    3501        .5      ADDS     r5,#1
        0x0001c0a4:    2d0c        .-      CMP      r5,#0xc
        0x0001c0a6:    d1e7        ..      BNE      0x1c078 ; portable_fini + 116
        0x0001c0a8:    f2400400    @...    MOVW     r4,#0
        0x0001c0ac:    2503        .%      MOVS     r5,#3
        0x0001c0ae:    f2c10400    ....    MOVT     r4,#0x1000
        0x0001c0b2:    bf00        ..      NOP      
        0x0001c0b4:    4620         F      MOV      r0,r4
        0x0001c0b6:    2103        .!      MOVS     r1,#3
        0x0001c0b8:    2207        ."      MOVS     r2,#7
        0x0001c0ba:    f7fcfb03    ....    BL       am_devices_led_array_out ; 0x186c4
        0x0001c0be:    f44f7096    O..p    MOV      r0,#0x12c
        0x0001c0c2:    f7fdffe5    ....    BL       am_util_delay_ms ; 0x1a090
        0x0001c0c6:    4620         F      MOV      r0,r4
        0x0001c0c8:    2103        .!      MOVS     r1,#3
        0x0001c0ca:    2200        ."      MOVS     r2,#0
        0x0001c0cc:    f7fcfafa    ....    BL       am_devices_led_array_out ; 0x186c4
        0x0001c0d0:    f44f7096    O..p    MOV      r0,#0x12c
        0x0001c0d4:    f7fdffdc    ....    BL       am_util_delay_ms ; 0x1a090
        0x0001c0d8:    3d01        .=      SUBS     r5,#1
        0x0001c0da:    d1eb        ..      BNE      0x1c0b4 ; portable_fini + 176
        0x0001c0dc:    e8bd81f0    ....    POP      {r4-r8,pc}
    $d.10
        0x0001c0e0:    626d410a    .Amb    DCD    1651327242
        0x0001c0e4:    4d207169    iq M    DCD    1293971817
        0x0001c0e8:    6f726369    icro    DCD    1869767529
        0x0001c0ec:    726f4320     Cor    DCD    1919894304
        0x0001c0f0:    72616d65    emar    DCD    1918987621
        0x0001c0f4:    7572206b    k ru    DCD    1970413675
        0x0001c0f8:    6966206e    n fi    DCD    1768300654
        0x0001c0fc:    6873696e    nish    DCD    1752394094
        0x0001c100:    0a216465    ed!.    DCD    169960549
        0x0001c104:    0000000a    ....    DCD    10
    $t.5
    portable_init
        0x0001c108:    b5b0        ..      PUSH     {r4,r5,r7,lr}
        0x0001c10a:    b084        ..      SUB      sp,sp,#0x10
        0x0001c10c:    f24024a0    @..$    MOVW     r4,#0x2a0
        0x0001c110:    2101        .!      MOVS     r1,#1
        0x0001c112:    f2c10400    ....    MOVT     r4,#0x1000
        0x0001c116:    7001        .p      STRB     r1,[r0,#0]
        0x0001c118:    4620         F      MOV      r0,r4
        0x0001c11a:    f44f7140    O.@q    MOV      r1,#0x300
        0x0001c11e:    f7fcf935    ..5.    BL       __aeabi_memclr4 ; 0x1838c
        0x0001c122:    f240209c    @..     MOVW     r0,#0x29c
        0x0001c126:    f2c10000    ....    MOVT     r0,#0x1000
        0x0001c12a:    6004        .`      STR      r4,[r0,#0]
        0x0001c12c:    f2402098    @..     MOVW     r0,#0x298
        0x0001c130:    f2c10000    ....    MOVT     r0,#0x1000
        0x0001c134:    2500        .%      MOVS     r5,#0
        0x0001c136:    6005        .`      STR      r5,[r0,#0]
        0x0001c138:    f7fcfa4f    ..O.    BL       am_bsp_uart_printf_enable ; 0x185da
        0x0001c13c:    f6400486    @...    MOV      r4,#0x886
        0x0001c140:    f2c10400    ....    MOVT     r4,#0x1000
        0x0001c144:    7821        !x      LDRB     r1,[r4,#0]
        0x0001c146:    a057        W.      ADR      r0,{pc}+0x15e ; 0x1c2a4
        0x0001c148:    a24b        K.      ADR      r2,{pc}+0x130 ; 0x1c278
        0x0001c14a:    2901        .)      CMP      r1,#1
        0x0001c14c:    bf08        ..      IT       EQ
        0x0001c14e:    4610        .F      MOVEQ    r0,r2
        0x0001c150:    f7fdffa3    ....    BL       am_util_stdio_printf ; 0x1a09a
        0x0001c154:    f7fcfa16    ....    BL       am_bsp_uart_printf_disable ; 0x18584
        0x0001c158:    f7fcfa09    ....    BL       am_bsp_low_power_init ; 0x1856e
        0x0001c15c:    2001        .       MOVS     r0,#1
        0x0001c15e:    2100        .!      MOVS     r1,#0
        0x0001c160:    f7fcfd76    ..v.    BL       am_hal_pwrctrl_control ; 0x18c50
        0x0001c164:    2003        .       MOVS     r0,#3
        0x0001c166:    2100        .!      MOVS     r1,#0
        0x0001c168:    f7fcfd72    ..r.    BL       am_hal_pwrctrl_control ; 0x18c50
        0x0001c16c:    2002        .       MOVS     r0,#2
        0x0001c16e:    2100        .!      MOVS     r1,#0
        0x0001c170:    f7fcfd6e    ..n.    BL       am_hal_pwrctrl_control ; 0x18c50
        0x0001c174:    f64c5026    L.&P    MOV      r0,#0xcd26
        0x0001c178:    f2c00001    ....    MOVT     r0,#1
        0x0001c17c:    8881        ..      LDRH     r1,[r0,#4]
        0x0001c17e:    6800        .h      LDR      r0,[r0,#0]
        0x0001c180:    f8ad500c    ...P    STRH     r5,[sp,#0xc]
        0x0001c184:    9000        ..      STR      r0,[sp,#0]
        0x0001c186:    4668        hF      MOV      r0,sp
        0x0001c188:    9502        ..      STR      r5,[sp,#8]
        0x0001c18a:    f8ad1004    ....    STRH     r1,[sp,#4]
        0x0001c18e:    f7fcffb5    ....    BL       am_hal_pwrctrl_mcu_memory_config ; 0x190fc
        0x0001c192:    f04f4090    O..@    MOV      r0,#0x48000000
        0x0001c196:    6801        .h      LDR      r1,[r0,#0]
        0x0001c198:    220c        ."      MOVS     r2,#0xc
        0x0001c19a:    f3621107    b...    BFI      r1,r2,#4,#4
        0x0001c19e:    6001        .`      STR      r1,[r0,#0]
        0x0001c1a0:    6801        .h      LDR      r1,[r0,#0]
        0x0001c1a2:    f2401580    @...    MOVW     r5,#0x180
        0x0001c1a6:    f4417100    A..q    ORR      r1,r1,#0x200
        0x0001c1aa:    6001        .`      STR      r1,[r0,#0]
        0x0001c1ac:    6801        .h      LDR      r1,[r0,#0]
        0x0001c1ae:    f2c40502    ....    MOVT     r5,#0x4002
        0x0001c1b2:    f4417180    A..q    ORR      r1,r1,#0x100
        0x0001c1b6:    6001        .`      STR      r1,[r0,#0]
        0x0001c1b8:    6801        .h      LDR      r1,[r0,#0]
        0x0001c1ba:    f0410101    A...    ORR      r1,r1,#1
        0x0001c1be:    6001        .`      STR      r1,[r0,#0]
        0x0001c1c0:    f2410014    A...    MOV      r0,#0x1014
        0x0001c1c4:    f2c40002    ....    MOVT     r0,#0x4002
        0x0001c1c8:    6801        .h      LDR      r1,[r0,#0]
        0x0001c1ca:    f0210120    !. .    BIC      r1,r1,#0x20
        0x0001c1ce:    6001        .`      STR      r1,[r0,#0]
        0x0001c1d0:    6801        .h      LDR      r1,[r0,#0]
        0x0001c1d2:    f0410110    A...    ORR      r1,r1,#0x10
        0x0001c1d6:    6001        .`      STR      r1,[r0,#0]
        0x0001c1d8:    6881        .h      LDR      r1,[r0,#8]
        0x0001c1da:    f0210110    !...    BIC      r1,r1,#0x10
        0x0001c1de:    6081        .`      STR      r1,[r0,#8]
        0x0001c1e0:    6828        (h      LDR      r0,[r5,#0]
        0x0001c1e2:    f0400001    @...    ORR      r0,r0,#1
        0x0001c1e6:    6028        (`      STR      r0,[r5,#0]
        0x0001c1e8:    6828        (h      LDR      r0,[r5,#0]
        0x0001c1ea:    f0200002     ...    BIC      r0,r0,#2
        0x0001c1ee:    6028        (`      STR      r0,[r5,#0]
        0x0001c1f0:    6828        (h      LDR      r0,[r5,#0]
        0x0001c1f2:    f0200004     ...    BIC      r0,r0,#4
        0x0001c1f6:    6028        (`      STR      r0,[r5,#0]
        0x0001c1f8:    a802        ..      ADD      r0,sp,#8
        0x0001c1fa:    f7fdf999    ....    BL       am_hal_pwrctrl_sram_config ; 0x19530
        0x0001c1fe:    f8d501fc    ....    LDR      r0,[r5,#0x1fc]
        0x0001c202:    f4202080     ..     BIC      r0,r0,#0x40000
        0x0001c206:    f8c501fc    ....    STR      r0,[r5,#0x1fc]
        0x0001c20a:    f8d501fc    ....    LDR      r0,[r5,#0x1fc]
        0x0001c20e:    f4201000     ...    BIC      r0,r0,#0x200000
        0x0001c212:    f8c501fc    ....    STR      r0,[r5,#0x1fc]
        0x0001c216:    f8d501fc    ....    LDR      r0,[r5,#0x1fc]
        0x0001c21a:    f0207080     ..p    BIC      r0,r0,#0x1000000
        0x0001c21e:    f8c501fc    ....    STR      r0,[r5,#0x1fc]
        0x0001c222:    f7fdfa47    ..G.    BL       am_hal_sysctrl_fpu_enable ; 0x196b4
        0x0001c226:    2001        .       MOVS     r0,#1
        0x0001c228:    f7fdfa4c    ..L.    BL       am_hal_sysctrl_fpu_stacking_enable ; 0x196c4
        0x0001c22c:    202a        *       MOVS     r0,#0x2a
        0x0001c22e:    2100        .!      MOVS     r1,#0
        0x0001c230:    f7fcfc36    ..6.    BL       am_hal_gpio_state_write ; 0x18aa0
        0x0001c234:    f64c5038    L.8P    MOV      r0,#0xcd38
        0x0001c238:    f2c00001    ....    MOVT     r0,#1
        0x0001c23c:    6801        .h      LDR      r1,[r0,#0]
        0x0001c23e:    202a        *       MOVS     r0,#0x2a
        0x0001c240:    f7fcfc00    ....    BL       am_hal_gpio_pinconfig ; 0x18a44
        0x0001c244:    202a        *       MOVS     r0,#0x2a
        0x0001c246:    2101        .!      MOVS     r1,#1
        0x0001c248:    f7fcfc2a    ..*.    BL       am_hal_gpio_state_write ; 0x18aa0
        0x0001c24c:    202a        *       MOVS     r0,#0x2a
        0x0001c24e:    2100        .!      MOVS     r1,#0
        0x0001c250:    f7fcfc26    ..&.    BL       am_hal_gpio_state_write ; 0x18aa0
        0x0001c254:    7820         x      LDRB     r0,[r4,#0]
        0x0001c256:    2801        .(      CMP      r0,#1
        0x0001c258:    bf14        ..      ITE      NE
        0x0001c25a:    2001        .       MOVNE    r0,#1
        0x0001c25c:    2002        .       MOVEQ    r0,#2
        0x0001c25e:    f7fcffcb    ....    BL       am_hal_pwrctrl_mcu_mode_select ; 0x191f8
        0x0001c262:    b130        0.      CBZ      r0,0x1c272 ; portable_init + 362
        0x0001c264:    4601        .F      MOV      r1,r0
        0x0001c266:    f24d4038    M.8@    MOV      r0,#0xd438
        0x0001c26a:    f2c00001    ....    MOVT     r0,#1
        0x0001c26e:    f7fdfeb9    ....    BL       am_sprintf ; 0x19fe4
        0x0001c272:    b004        ..      ADD      sp,sp,#0x10
        0x0001c274:    bdb0        ..      POP      {r4,r5,r7,pc}
        0x0001c276:    bf00        ..      NOP      
    $d.6
        0x0001c278:    0a0a0a0a    ....    DCD    168430090
        0x0001c27c:    69626d41    Ambi    DCD    1768058177
        0x0001c280:    694d2071    q Mi    DCD    1766662257
        0x0001c284:    206f7263    cro     DCD    544174691
        0x0001c288:    65726f43    Core    DCD    1701998403
        0x0001c28c:    6b72616d    mark    DCD    1802658157
        0x0001c290:    32393120     192    DCD    842608928
        0x0001c294:    207a484d    MHz     DCD    544884813
        0x0001c298:    74736574    test    DCD    1953719668
        0x0001c29c:    0a2e2e2e    ....    DCD    170798638
        0x0001c2a0:    0000000a    ....    DCD    10
        0x0001c2a4:    0a0a0a0a    ....    DCD    168430090
        0x0001c2a8:    69626d41    Ambi    DCD    1768058177
        0x0001c2ac:    694d2071    q Mi    DCD    1766662257
        0x0001c2b0:    206f7263    cro     DCD    544174691
        0x0001c2b4:    65726f43    Core    DCD    1701998403
        0x0001c2b8:    6b72616d    mark    DCD    1802658157
        0x0001c2bc:    4d363920     96M    DCD    1295399200
        0x0001c2c0:    74207a48    Hz t    DCD    1948285512
        0x0001c2c4:    2e747365    est.    DCD    779383653
        0x0001c2c8:    0a0a2e2e    ....    DCD    168439342
        0x0001c2cc:    00000000    ....    DCD    0
    $t.6
    read_transaction_save
        0x0001c2d0:    b5b0        ..      PUSH     {r4,r5,r7,lr}
        0x0001c2d2:    b082        ..      SUB      sp,sp,#8
        0x0001c2d4:    460d        .F      MOV      r5,r1
        0x0001c2d6:    4604        .F      MOV      r4,r0
        0x0001c2d8:    f7fcfc56    ..V.    BL       am_hal_interrupt_master_disable ; 0x18b88
        0x0001c2dc:    9001        ..      STR      r0,[sp,#4]
        0x0001c2de:    f894002c    ..,.    LDRB     r0,[r4,#0x2c]
        0x0001c2e2:    b118        ..      CBZ      r0,0x1c2ec ; read_transaction_save + 28
        0x0001c2e4:    2505        .%      MOVS     r5,#5
        0x0001c2e6:    f6c00500    ....    MOVT     r5,#0x800
        0x0001c2ea:    e015        ..      B        0x1c318 ; read_transaction_save + 72
        0x0001c2ec:    2001        .       MOVS     r0,#1
        0x0001c2ee:    f884002c    ..,.    STRB     r0,[r4,#0x2c]
        0x0001c2f2:    7828        (x      LDRB     r0,[r5,#0]
        0x0001c2f4:    6869        ih      LDR      r1,[r5,#4]
        0x0001c2f6:    f8840030    ..0.    STRB     r0,[r4,#0x30]
        0x0001c2fa:    6361        ac      STR      r1,[r4,#0x34]
        0x0001c2fc:    e9d50102    ....    LDRD     r0,r1,[r5,#8]
        0x0001c300:    e9c4010e    ....    STRD     r0,r1,[r4,#0x38]
        0x0001c304:    e9d50104    ....    LDRD     r0,r1,[r5,#0x10]
        0x0001c308:    e9c40110    ....    STRD     r0,r1,[r4,#0x40]
        0x0001c30c:    e9d50106    ....    LDRD     r0,r1,[r5,#0x18]
        0x0001c310:    2500        .%      MOVS     r5,#0
        0x0001c312:    e9c40112    ....    STRD     r0,r1,[r4,#0x48]
        0x0001c316:    6525        %e      STR      r5,[r4,#0x50]
        0x0001c318:    9801        ..      LDR      r0,[sp,#4]
        0x0001c31a:    f7fcfc3d    ..=.    BL       am_hal_interrupt_master_set ; 0x18b98
        0x0001c31e:    4628        (F      MOV      r0,r5
        0x0001c320:    b002        ..      ADD      sp,sp,#8
        0x0001c322:    bdb0        ..      POP      {r4,r5,r7,pc}
    start_time
        0x0001c324:    b510        ..      PUSH     {r4,lr}
        0x0001c326:    f7fdfa0f    ....    BL       am_hal_systick_stop ; 0x19748
        0x0001c32a:    f7fdf9fd    ....    BL       am_hal_systick_reset ; 0x19728
        0x0001c32e:    f06f407f    o..@    MVN      r0,#0xff000000
        0x0001c332:    f06f447f    o..D    MVN      r4,#0xff000000
        0x0001c336:    f7fdf9ef    ....    BL       am_hal_systick_load ; 0x19718
        0x0001c33a:    f7fdf9e4    ....    BL       am_hal_systick_int_enable ; 0x19706
        0x0001c33e:    f7fcfc27    ..'.    BL       am_hal_interrupt_master_enable ; 0x18b90
        0x0001c342:    f7fdf9f8    ....    BL       am_hal_systick_start ; 0x19736
        0x0001c346:    f7fdf9d8    ....    BL       am_hal_systick_count ; 0x196fa
        0x0001c34a:    f64011e4    @...    MOV      r1,#0x9e4
        0x0001c34e:    f2c10100    ....    MOVT     r1,#0x1000
        0x0001c352:    6809        .h      LDR      r1,[r1,#0]
        0x0001c354:    1a20         .      SUBS     r0,r4,r0
        0x0001c356:    0a0a        ..      LSRS     r2,r1,#8
        0x0001c358:    eb106001    ...`    ADDS     r0,r0,r1,LSL #24
        0x0001c35c:    f1420100    B...    ADC      r1,r2,#0
        0x0001c360:    f64012f8    @...    MOV      r2,#0x9f8
        0x0001c364:    f2c10200    ....    MOVT     r2,#0x1000
        0x0001c368:    e9c20100    ....    STRD     r0,r1,[r2,#0]
        0x0001c36c:    f24f0014    O...    MOV      r0,#0xf014
        0x0001c370:    f6c470ff    ...p    MOVT     r0,#0x4fff
        0x0001c374:    2101        .!      MOVS     r1,#1
        0x0001c376:    6001        .`      STR      r1,[r0,#0]
        0x0001c378:    bd10        ..      POP      {r4,pc}
    stop_time
        0x0001c37a:    b580        ..      PUSH     {r7,lr}
        0x0001c37c:    f7fdf9e4    ....    BL       am_hal_systick_stop ; 0x19748
        0x0001c380:    f7fdf9bb    ....    BL       am_hal_systick_count ; 0x196fa
        0x0001c384:    f64012e4    @...    MOV      r2,#0x9e4
        0x0001c388:    f2c10200    ....    MOVT     r2,#0x1000
        0x0001c38c:    f06f417f    o..A    MVN      r1,#0xff000000
        0x0001c390:    6812        .h      LDR      r2,[r2,#0]
        0x0001c392:    1a08        ..      SUBS     r0,r1,r0
        0x0001c394:    0a11        ..      LSRS     r1,r2,#8
        0x0001c396:    eb106002    ...`    ADDS     r0,r0,r2,LSL #24
        0x0001c39a:    f6402200    @.."    MOVW     r2,#0xa00
        0x0001c39e:    f1410100    A...    ADC      r1,r1,#0
        0x0001c3a2:    f2c10200    ....    MOVT     r2,#0x1000
        0x0001c3a6:    e9c20100    ....    STRD     r0,r1,[r2,#0]
        0x0001c3aa:    f24f0014    O...    MOV      r0,#0xf014
        0x0001c3ae:    f6c470ff    ...p    MOVT     r0,#0x4fff
        0x0001c3b2:    2100        .!      MOVS     r1,#0
        0x0001c3b4:    6001        .`      STR      r1,[r0,#0]
        0x0001c3b6:    bd80        ..      POP      {r7,pc}
    time_in_secs
        0x0001c3b8:    b510        ..      PUSH     {r4,lr}
        0x0001c3ba:    f6400186    @...    MOV      r1,#0x886
        0x0001c3be:    f2c10100    ....    MOVT     r1,#0x1000
        0x0001c3c2:    780c        .x      LDRB     r4,[r1,#0]
        0x0001c3c4:    f000fb23    ..#.    BL       __aeabi_ui2d ; 0x1ca0e
        0x0001c3c8:    a207        ..      ADR      r2,{pc}+0x20 ; 0x1c3e8
        0x0001c3ca:    2c01        .,      CMP      r4,#1
        0x0001c3cc:    bf08        ..      IT       EQ
        0x0001c3ce:    3208        .2      ADDEQ    r2,r2,#8
        0x0001c3d0:    ed920b00    ....    VLDR     d0,[r2,#0]
        0x0001c3d4:    ec532b10    S..+    VMOV     r2,r3,d0
        0x0001c3d8:    f000f956    ..V.    BL       __aeabi_ddiv ; 0x1c688
        0x0001c3dc:    ec410b10    A...    VMOV     d0,r0,r1
        0x0001c3e0:    bd10        ..      POP      {r4,pc}
        0x0001c3e2:    bf00        ..      NOP      
        0x0001c3e4:    bf00        ..      NOP      
        0x0001c3e6:    bf00        ..      NOP      
    $d.4
        0x0001c3e8:    00000000    ....    DCD    0
        0x0001c3ec:    4196e360    `..A    DCD    1100407648
        0x0001c3f0:    00000000    ....    DCD    0
        0x0001c3f4:    41a6e360    `..A    DCD    1101456224
    $t.0
    timer_config_b1
        0x0001c3f8:    e92d43f0    -..C    PUSH     {r4-r9,lr}
        0x0001c3fc:    f2402858    @.X(    MOVW     r8,#0x258
        0x0001c400:    f2c10800    ....    MOVT     r8,#0x1000
        0x0001c404:    eb080280    ....    ADD      r2,r8,r0,LSL #2
        0x0001c408:    2600        .&      MOVS     r6,#0
        0x0001c40a:    4615        .F      MOV      r5,r2
        0x0001c40c:    e9d13e02    ...>    LDRD     r3,lr,[r1,#8]
        0x0001c410:    f8d1c010    ....    LDR      r12,[r1,#0x10]
        0x0001c414:    f8456b03    E..k    STR      r6,[r5],#3
        0x0001c418:    784f        Ox      LDRB     r7,[r1,#1]
        0x0001c41a:    2f0e        ./      CMP      r7,#0xe
        0x0001c41c:    d832        2.      BHI      0x1c484 ; timer_config_b1 + 140
        0x0001c41e:    1c96        ..      ADDS     r6,r2,#2
        0x0001c420:    2207        ."      MOVS     r2,#7
        0x0001c422:    e8dff007    ....    TBB      [pc,r7]
    $d.1
        0x0001c426:    1199        ..      DCW    4505
        0x0001c428:    2f082f08    ././    DCD    789065480
        0x0001c42c:    2f2f2f99    .///    DCD    791621529
        0x0001c430:    211d2f2f    //.!    DCD    555560751
        0x0001c434:    0099        ..      DCW    153
    $t.2
        0x0001c436:    f04f3201    O..2    MOV      r2,#0x1010101
        0x0001c43a:    2b00        .+      CMP      r3,#0
        0x0001c43c:    f8482020    H.      STR      r2,[r8,r0,LSL #2]
        0x0001c440:    f0408089    @...    BNE.W    0x1c556 ; timer_config_b1 + 350
        0x0001c444:    2300        .#      MOVS     r3,#0
        0x0001c446:    e01d        ..      B        0x1c484 ; timer_config_b1 + 140
        0x0001c448:    2201        ."      MOVS     r2,#1
        0x0001c44a:    f11e0701    ....    ADDS     r7,lr,#1
        0x0001c44e:    702a        *p      STRB     r2,[r5,#0]
        0x0001c450:    7032        2p      STRB     r2,[r6,#0]
        0x0001c452:    d107        ..      BNE      0x1c464 ; timer_config_b1 + 108
        0x0001c454:    f11c0e01    ....    ADDS     lr,r12,#1
        0x0001c458:    bf28        (.      IT       CS
        0x0001c45a:    f04f3eff    O..>    MOVCS    lr,#0xffffffff
        0x0001c45e:    e011        ..      B        0x1c484 ; timer_config_b1 + 140
        0x0001c460:    2b20         +      CMP      r3,#0x20
        0x0001c462:    d906        ..      BLS      0x1c472 ; timer_config_b1 + 122
        0x0001c464:    2207        ."      MOVS     r2,#7
        0x0001c466:    e077        w.      B        0x1c558 ; timer_config_b1 + 352
        0x0001c468:    f04f3201    O..2    MOV      r2,#0x1010101
        0x0001c46c:    f8482020    H.      STR      r2,[r8,r0,LSL #2]
        0x0001c470:    e008        ..      B        0x1c484 ; timer_config_b1 + 140
        0x0001c472:    2201        ."      MOVS     r2,#1
        0x0001c474:    2b00        .+      CMP      r3,#0
        0x0001c476:    469c        .F      MOV      r12,r3
        0x0001c478:    bf18        ..      IT       NE
        0x0001c47a:    3301        .3      ADDNE    r3,#1
        0x0001c47c:    f8082020    ..      STRB     r2,[r8,r0,LSL #2]
        0x0001c480:    702a        *p      STRB     r2,[r5,#0]
        0x0001c482:    7032        2p      STRB     r2,[r6,#0]
        0x0001c484:    780a        .x      LDRB     r2,[r1,#0]
        0x0001c486:    f00204e0    ....    AND      r4,r2,#0xe0
        0x0001c48a:    2c20         ,      CMP      r4,#0x20
        0x0001c48c:    d10d        ..      BNE      0x1c4aa ; timer_config_b1 + 178
        0x0001c48e:    f1a20420    .. .    SUB      r4,r2,#0x20
        0x0001c492:    07d2        ..      LSLS     r2,r2,#31
        0x0001c494:    ea4f0264    O.d.    ASR      r2,r4,#1
        0x0001c498:    d102        ..      BNE      0x1c4a0 ; timer_config_b1 + 168
        0x0001c49a:    f8182022    .."     LDRB     r2,[r8,r2,LSL #2]
        0x0001c49e:    e002        ..      B        0x1c4a6 ; timer_config_b1 + 174
        0x0001c4a0:    eb080282    ....    ADD      r2,r8,r2,LSL #2
        0x0001c4a4:    7892        .x      LDRB     r2,[r2,#2]
        0x0001c4a6:    2a00        .*      CMP      r2,#0
        0x0001c4a8:    d055        U.      BEQ      0x1c556 ; timer_config_b1 + 350
        0x0001c4aa:    790a        .y      LDRB     r2,[r1,#4]
        0x0001c4ac:    b172        r.      CBZ      r2,0x1c4cc ; timer_config_b1 + 212
        0x0001c4ae:    794a        Jy      LDRB     r2,[r1,#5]
        0x0001c4b0:    2a1f        .*      CMP      r2,#0x1f
        0x0001c4b2:    d80b        ..      BHI      0x1c4cc ; timer_config_b1 + 212
        0x0001c4b4:    07d4        ..      LSLS     r4,r2,#31
        0x0001c4b6:    ea4f0252    O.R.    LSR      r2,r2,#1
        0x0001c4ba:    d102        ..      BNE      0x1c4c2 ; timer_config_b1 + 202
        0x0001c4bc:    f8182022    .."     LDRB     r2,[r8,r2,LSL #2]
        0x0001c4c0:    e002        ..      B        0x1c4c8 ; timer_config_b1 + 208
        0x0001c4c2:    eb080282    ....    ADD      r2,r8,r2,LSL #2
        0x0001c4c6:    7892        .x      LDRB     r2,[r2,#2]
        0x0001c4c8:    2a00        .*      CMP      r2,#0
        0x0001c4ca:    d044        D.      BEQ      0x1c556 ; timer_config_b1 + 350
        0x0001c4cc:    f2481804    H...    MOV      r8,#0x8104
        0x0001c4d0:    f2c40800    ....    MOVT     r8,#0x4000
        0x0001c4d4:    2401        .$      MOVS     r4,#1
        0x0001c4d6:    f8d85000    ...P    LDR      r5,[r8,#0]
        0x0001c4da:    fa04f900    ....    LSL      r9,r4,r0
        0x0001c4de:    ea250509    %...    BIC      r5,r5,r9
        0x0001c4e2:    f8c85000    ...P    STR      r5,[r8,#0]
        0x0001c4e6:    780d        .x      LDRB     r5,[r1,#0]
        0x0001c4e8:    784e        Nx      LDRB     r6,[r1,#1]
        0x0001c4ea:    78ca        .x      LDRB     r2,[r1,#3]
        0x0001c4ec:    022d        -.      LSLS     r5,r5,#8
        0x0001c4ee:    788f        .x      LDRB     r7,[r1,#2]
        0x0001c4f0:    f006060f    ....    AND      r6,r6,#0xf
        0x0001c4f4:    ea456303    E..c    ORR      r3,r5,r3,LSL #24
        0x0001c4f8:    f002021f    ....    AND      r2,r2,#0x1f
        0x0001c4fc:    790c        .y      LDRB     r4,[r1,#4]
        0x0001c4fe:    ea431306    C...    ORR      r3,r3,r6,LSL #4
        0x0001c502:    eb081040    ..@.    ADD      r0,r8,r0,LSL #5
        0x0001c506:    f007073f    ..?.    AND      r7,r7,#0x3f
        0x0001c50a:    ea4302c2    C...    ORR      r2,r3,r2,LSL #3
        0x0001c50e:    7949        Iy      LDRB     r1,[r1,#5]
        0x0001c510:    f8d030fc    ...0    LDR      r3,[r0,#0xfc]
        0x0001c514:    f0040403    ....    AND      r4,r4,#3
        0x0001c518:    ea420287    B...    ORR      r2,r2,r7,LSL #2
        0x0001c51c:    ea424204    B..B    ORR      r2,r2,r4,LSL #16
        0x0001c520:    0209        ..      LSLS     r1,r1,#8
        0x0001c522:    f0230301    #...    BIC      r3,r3,#1
        0x0001c526:    f8c030fc    ...0    STR      r3,[r0,#0xfc]
        0x0001c52a:    f8c020fc    ...     STR      r2,[r0,#0xfc]
        0x0001c52e:    f8c0110c    ....    STR      r1,[r0,#0x10c]
        0x0001c532:    f8c0e104    ....    STR      lr,[r0,#0x104]
        0x0001c536:    f8c0c108    ....    STR      r12,[r0,#0x108]
        0x0001c53a:    f8d010fc    ....    LDR      r1,[r0,#0xfc]
        0x0001c53e:    2200        ."      MOVS     r2,#0
        0x0001c540:    f0410102    A...    ORR      r1,r1,#2
        0x0001c544:    f8c010fc    ....    STR      r1,[r0,#0xfc]
        0x0001c548:    f8d80000    ....    LDR      r0,[r8,#0]
        0x0001c54c:    ea400009    @...    ORR      r0,r0,r9
        0x0001c550:    f8c80000    ....    STR      r0,[r8,#0]
        0x0001c554:    e000        ..      B        0x1c558 ; timer_config_b1 + 352
        0x0001c556:    2206        ."      MOVS     r2,#6
        0x0001c558:    4610        .F      MOV      r0,r2
        0x0001c55a:    e8bd83f0    ....    POP      {r4-r9,pc}
        0x0001c55e:    0000        ..      MOVS     r0,r0
    uint64_to_str
        0x0001c560:    b5f0        ..      PUSH     {r4-r7,lr}
        0x0001c562:    b087        ..      SUB      sp,sp,#0x1c
        0x0001c564:    4614        .F      MOV      r4,r2
        0x0001c566:    4605        .F      MOV      r5,r0
        0x0001c568:    2000        .       MOVS     r0,#0
        0x0001c56a:    f10d0603    ....    ADD      r6,sp,#3
        0x0001c56e:    bf00        ..      NOP      
        0x0001c570:    4607        .F      MOV      r7,r0
        0x0001c572:    4628        (F      MOV      r0,r5
        0x0001c574:    f7fefe5a    ..Z.    BL       divu64_10 ; 0x1b22c
        0x0001c578:    4602        .F      MOV      r2,r0
        0x0001c57a:    eb000080    ....    ADD      r0,r0,r0,LSL #2
        0x0001c57e:    eba50040    ..@.    SUB      r0,r5,r0,LSL #1
        0x0001c582:    f1000330    ..0.    ADD      r3,r0,#0x30
        0x0001c586:    1c78        x.      ADDS     r0,r7,#1
        0x0001c588:    55f3        .U      STRB     r3,[r6,r7]
        0x0001c58a:    ea520701    R...    ORRS     r7,r2,r1
        0x0001c58e:    4615        .F      MOV      r5,r2
        0x0001c590:    d1ee        ..      BNE      0x1c570 ; uint64_to_str + 16
        0x0001c592:    b16c        l.      CBZ      r4,0x1c5b0 ; uint64_to_str + 80
        0x0001c594:    2801        .(      CMP      r0,#1
        0x0001c596:    f8043b01    ...;    STRB     r3,[r4],#1
        0x0001c59a:    d007        ..      BEQ      0x1c5ac ; uint64_to_str + 76
        0x0001c59c:    1eb1        ..      SUBS     r1,r6,#2
        0x0001c59e:    4602        .F      MOV      r2,r0
        0x0001c5a0:    5c8b        .\      LDRB     r3,[r1,r2]
        0x0001c5a2:    3a01        .:      SUBS     r2,#1
        0x0001c5a4:    2a01        .*      CMP      r2,#1
        0x0001c5a6:    f8043b01    ...;    STRB     r3,[r4],#1
        0x0001c5aa:    d1f9        ..      BNE      0x1c5a0 ; uint64_to_str + 64
        0x0001c5ac:    2100        .!      MOVS     r1,#0
        0x0001c5ae:    7021        !p      STRB     r1,[r4,#0]
        0x0001c5b0:    b007        ..      ADD      sp,sp,#0x1c
        0x0001c5b2:    bdf0        ..      POP      {r4-r7,pc}
    write_transaction_save
        0x0001c5b4:    b5b0        ..      PUSH     {r4,r5,r7,lr}
        0x0001c5b6:    b082        ..      SUB      sp,sp,#8
        0x0001c5b8:    460d        .F      MOV      r5,r1
        0x0001c5ba:    4604        .F      MOV      r4,r0
        0x0001c5bc:    f7fcfae4    ....    BL       am_hal_interrupt_master_disable ; 0x18b88
        0x0001c5c0:    9001        ..      STR      r0,[sp,#4]
        0x0001c5c2:    f8940054    ..T.    LDRB     r0,[r4,#0x54]
        0x0001c5c6:    b118        ..      CBZ      r0,0x1c5d0 ; write_transaction_save + 28
        0x0001c5c8:    2504        .%      MOVS     r5,#4
        0x0001c5ca:    f6c00500    ....    MOVT     r5,#0x800
        0x0001c5ce:    e017        ..      B        0x1c600 ; write_transaction_save + 76
        0x0001c5d0:    2001        .       MOVS     r0,#1
        0x0001c5d2:    f8840054    ..T.    STRB     r0,[r4,#0x54]
        0x0001c5d6:    7828        (x      LDRB     r0,[r5,#0]
        0x0001c5d8:    6869        ih      LDR      r1,[r5,#4]
        0x0001c5da:    f8840058    ..X.    STRB     r0,[r4,#0x58]
        0x0001c5de:    65e1        .e      STR      r1,[r4,#0x5c]
        0x0001c5e0:    e9d50102    ....    LDRD     r0,r1,[r5,#8]
        0x0001c5e4:    e9c40118    ....    STRD     r0,r1,[r4,#0x60]
        0x0001c5e8:    e9d50104    ....    LDRD     r0,r1,[r5,#0x10]
        0x0001c5ec:    e9c4011a    ....    STRD     r0,r1,[r4,#0x68]
        0x0001c5f0:    e9d50106    ....    LDRD     r0,r1,[r5,#0x18]
        0x0001c5f4:    2500        .%      MOVS     r5,#0
        0x0001c5f6:    e9c4011c    ....    STRD     r0,r1,[r4,#0x70]
        0x0001c5fa:    67a5        .g      STR      r5,[r4,#0x78]
        0x0001c5fc:    f88450b4    ...P    STRB     r5,[r4,#0xb4]
        0x0001c600:    9801        ..      LDR      r0,[sp,#4]
        0x0001c602:    f7fcfac9    ....    BL       am_hal_interrupt_master_set ; 0x18b98
        0x0001c606:    4628        (F      MOV      r0,r5
        0x0001c608:    b002        ..      ADD      sp,sp,#8
        0x0001c60a:    bdb0        ..      POP      {r4,r5,r7,pc}
    $t
    x$fpl$d2f
    $v0
    __aeabi_d2f
    _d2f
        0x0001c60c:    f0214200    !..B    BIC      r2,r1,#0x80000000
        0x0001c610:    f0014300    ...C    AND      r3,r1,#0x80000000
        0x0001c614:    f1a25260    ..`R    SUB      r2,r2,#0x38000000
        0x0001c618:    f5b21f80    ....    CMP      r2,#0x100000
        0x0001c61c:    bf28        (.      IT       CS
        0x0001c61e:    f1d26c7f    ...l    RSBSCS   r12,r2,#0xff00000
        0x0001c622:    d90b        ..      BLS      0x1c63c ; __aeabi_d2f + 48
        0x0001c624:    ea5f1c00    _...    LSLS     r12,r0,#4
        0x0001c628:    ea4302c2    C...    ORR      r2,r3,r2,LSL #3
        0x0001c62c:    eb427050    B.Pp    ADC      r0,r2,r0,LSR #29
        0x0001c630:    bf18        ..      IT       NE
        0x0001c632:    4770        pG      BXNE     lr
        0x0001c634:    bf28        (.      IT       CS
        0x0001c636:    f0200001     ...    BICCS    r0,r0,#1
        0x0001c63a:    4770        pG      BX       lr
        0x0001c63c:    f5b21f80    ....    CMP      r2,#0x100000
        0x0001c640:    bfbc        ..      ITT      LT
        0x0001c642:    4618        .F      MOVLT    r0,r3
        0x0001c644:    4770        pG      BXLT     lr
        0x0001c646:    ea4f0c41    O.A.    LSL      r12,r1,#1
        0x0001c64a:    f51c1f00    ....    CMN      r12,#0x200000
        0x0001c64e:    d202        ..      BCS      0x1c656 ; __aeabi_d2f + 74
        0x0001c650:    4608        .F      MOV      r0,r1
        0x0001c652:    f000bb63    ..c.    B.W      __fpl_fretinf ; 0x1cd1c
        0x0001c656:    b570        p.      PUSH     {r4-r6,lr}
        0x0001c658:    f000fa64    ..d.    BL       __fpl_dnaninf ; 0x1cb24
    $d
        0x0001c65c:    89000000    ....    DCD    2298478592
    $t
        0x0001c660:    f7ffbff6    ....    B.W      0x1c650 ; __aeabi_d2f + 68
        0x0001c664:    f04f4000    O..@    MOV      r0,#0x80000000
        0x0001c668:    f5a00080    ....    SUB      r0,r0,#0x400000
        0x0001c66c:    4770        pG      BX       lr
    x$fpl$dcmpinf
    $v0
    __fpl_dcmp_Inf
        0x0001c66e:    1049        I.      ASRS     r1,r1,#1
        0x0001c670:    bf58        X.      IT       PL
        0x0001c672:    f1c14140    ..@A    RSBPL    r1,r1,#0xc0000000
        0x0001c676:    105b        [.      ASRS     r3,r3,#1
        0x0001c678:    bf58        X.      IT       PL
        0x0001c67a:    f1c34340    ..@C    RSBPL    r3,r3,#0xc0000000
        0x0001c67e:    428b        .B      CMP      r3,r1
        0x0001c680:    f3ef8000    ....    MRS      r0,APSR ; formerly CPSR
        0x0001c684:    4770        pG      BX       lr
        0x0001c686:    0000        ..      MOVS     r0,r0
    x$fpl$ddiv
    $v0
    __aeabi_ddiv
    _ddiv
        0x0001c688:    e92d41c0    -..A    PUSH     {r6-r8,lr}
        0x0001c68c:    b430        0.      PUSH     {r4,r5}
    ddiv_entry
        0x0001c68e:    f8dfc2a4    ....    LDR      r12,[pc,#676] ; [0x1c934] = 0x7ff0000
        0x0001c692:    ea3c1411    <...    BICS     r4,r12,r1,LSR #4
        0x0001c696:    bf18        ..      IT       NE
        0x0001c698:    ea3c1413    <...    BICSNE   r4,r12,r3,LSR #4
        0x0001c69c:    f00080ed    ....    BEQ.W    0x1c87a ; ddiv_entry + 492
        0x0001c6a0:    ea1c1411    ....    ANDS     r4,r12,r1,LSR #4
        0x0001c6a4:    ea810503    ....    EOR      r5,r1,r3
        0x0001c6a8:    ea4474d5    D..t    ORR      r4,r4,r5,LSR #31
        0x0001c6ac:    bf18        ..      IT       NE
        0x0001c6ae:    ea1c1513    ....    ANDSNE   r5,r12,r3,LSR #4
        0x0001c6b2:    f00080c8    ....    BEQ.W    0x1c846 ; ddiv_entry + 440
        0x0001c6b6:    eba40405    ....    SUB      r4,r4,r5
        0x0001c6ba:    f104747f    ...t    ADD      r4,r4,#0x3fc0000
        0x0001c6be:    f5043400    ...4    ADD      r4,r4,#0x20000
        0x0001c6c2:    f04f4500    O..E    MOV      r5,#0x80000000
        0x0001c6c6:    ea4521c1    E..!    ORR      r1,r5,r1,LSL #11
        0x0001c6ca:    ea4523c3    E..#    ORR      r3,r5,r3,LSL #11
        0x0001c6ce:    ea415150    A.PQ    ORR      r1,r1,r0,LSR #21
        0x0001c6d2:    ea435352    C.RS    ORR      r3,r3,r2,LSR #21
        0x0001c6d6:    ea4f20c0    O..     LSL      r0,r0,#11
        0x0001c6da:    ea4f22c2    O.."    LSL      r2,r2,#11
        0x0001c6de:    4299        .B      CMP      r1,r3
        0x0001c6e0:    bf08        ..      IT       EQ
        0x0001c6e2:    4290        .B      CMPEQ    r0,r2
        0x0001c6e4:    f000809d    ....    BEQ.W    0x1c822 ; ddiv_entry + 404
        0x0001c6e8:    ea4f6513    O..e    LSR      r5,r3,#24
        0x0001c6ec:    f20f1644    ..D.    ADR.W    r6,{pc}+0x148 ; 0x1c834
        0x0001c6f0:    5d76        v]      LDRB     r6,[r6,r5]
        0x0001c6f2:    ea4f4513    O..E    LSR      r5,r3,#16
        0x0001c6f6:    fb06f705    ....    MUL      r7,r6,r5
        0x0001c6fa:    f1c77780    ...w    RSB      r7,r7,#0x1000000
        0x0001c6fe:    fb06f707    ....    MUL      r7,r6,r7
        0x0001c702:    ea4f37d7    O..7    LSR      r7,r7,#15
        0x0001c706:    fba76803    ...h    UMULL    r6,r8,r7,r3
        0x0001c70a:    4276        vB      RSBS     r6,r6,#0
        0x0001c70c:    fba7ce06    ....    UMULL    r12,lr,r7,r6
        0x0001c710:    f5c83880    ...8    RSB      r8,r8,#0x10000
        0x0001c714:    bf38        8.      IT       CC
        0x0001c716:    f1a80801    ....    SUBCC    r8,r8,#1
        0x0001c71a:    fb07e608    ....    MLA      r6,r7,r8,lr
        0x0001c71e:    fba68c02    ....    UMULL    r8,r12,r6,r2
        0x0001c722:    f04f0e00    O...    MOV      lr,#0
        0x0001c726:    fbe6ce03    ....    UMLAL    r12,lr,r6,r3
        0x0001c72a:    f1dc0c00    ....    RSBS     r12,r12,#0
        0x0001c72e:    f1ce4e00    ...N    RSB      lr,lr,#0x80000000
        0x0001c732:    bf38        8.      IT       CC
        0x0001c734:    f1ae0e01    ....    SUBCC    lr,lr,#1
        0x0001c738:    fba6580c    ...X    UMULL    r5,r8,r6,r12
        0x0001c73c:    f04f0700    O...    MOV      r7,#0
        0x0001c740:    fbe6870e    ....    UMLAL    r8,r7,r6,lr
        0x0001c744:    fba1c608    ....    UMULL    r12,r6,r1,r8
        0x0001c748:    fba0ce07    ....    UMULL    r12,lr,r0,r7
        0x0001c74c:    eb16060e    ....    ADDS     r6,r6,lr
        0x0001c750:    f04f0500    O...    MOV      r5,#0
        0x0001c754:    f1450500    E...    ADC      r5,r5,#0
        0x0001c758:    fbe16507    ...e    UMLAL    r6,r5,r1,r7
        0x0001c75c:    f1154ee0    ...N    ADDS     lr,r5,#0x70000000
        0x0001c760:    bf7e        ~.      ITTT     VC
        0x0001c762:    f5a43480    ...4    SUBVC    r4,r4,#0x10000
        0x0001c766:    ea5f0646    _.F.    LSLSVC   r6,r6,#1
        0x0001c76a:    416d        mA      ADCVC    r5,r5,r5
        0x0001c76c:    f1160780    ....    ADDS     r7,r6,#0x80
        0x0001c770:    f1450500    E...    ADC      r5,r5,#0
        0x0001c774:    ea4f2717    O..'    LSR      r7,r7,#8
        0x0001c778:    ea476705    G..g    ORR      r7,r7,r5,LSL #24
        0x0001c77c:    ea4f2515    O..%    LSR      r5,r5,#8
        0x0001c780:    ea4f6606    O..f    LSL      r6,r6,#24
        0x0001c784:    f1a646de    ...F    SUB      r6,r6,#0x6f000000
        0x0001c788:    f1b65f80    ..._    CMP      r6,#0x10000000
        0x0001c78c:    d920         .      BLS      0x1c7d0 ; ddiv_entry + 322
        0x0001c78e:    4638        8F      MOV      r0,r7
        0x0001c790:    eb0571c4    ...q    ADD      r1,r5,r4,LSL #31
        0x0001c794:    f0240c01    $...    BIC      r12,r4,#1
        0x0001c798:    eb01110c    ....    ADD      r1,r1,r12,LSL #4
        0x0001c79c:    f1bc6ffe    ...o    CMP      r12,#0x7f00000
        0x0001c7a0:    d802        ..      BHI      0x1c7a8 ; ddiv_entry + 282
        0x0001c7a2:    bcf0        ..      POP      {r4-r7}
        0x0001c7a4:    e8bd8100    ....    POP      {r8,pc}
        0x0001c7a8:    4224        $B      TST      r4,r4
        0x0001c7aa:    bf5c        \.      ITT      PL
        0x0001c7ac:    f5011e80    ....    ADDPL    lr,r1,#0x100000
        0x0001c7b0:    ea9e7fc4    ....    TEQPL    lr,r4,LSL #31
        0x0001c7b4:    d402        ..      BMI      0x1c7bc ; ddiv_entry + 302
        0x0001c7b6:    bcf0        ..      POP      {r4-r7}
        0x0001c7b8:    e8bd8100    ....    POP      {r8,pc}
        0x0001c7bc:    4224        $B      TST      r4,r4
        0x0001c7be:    f1008039    ..9.    BMI.W    0x1c834 ; ddiv_entry + 422
        0x0001c7c2:    f1a141c0    ...A    SUB      r1,r1,#0x60000000
        0x0001c7c6:    bcf0        ..      POP      {r4-r7}
        0x0001c7c8:    e8bd4100    ...A    POP      {r8,lr}
        0x0001c7cc:    f000b9f8    ....    B.W      __fpl_dretinf ; 0x1cbc0
        0x0001c7d0:    ea4f20d0    O..     LSR      r0,r0,#11
        0x0001c7d4:    ea405041    @.AP    ORR      r0,r0,r1,LSL #21
        0x0001c7d8:    ea4f21d1    O..!    LSR      r1,r1,#11
        0x0001c7dc:    ea4f22d2    O.."    LSR      r2,r2,#11
        0x0001c7e0:    ea425243    B.CR    ORR      r2,r2,r3,LSL #21
        0x0001c7e4:    ea4f23d3    O..#    LSR      r3,r3,#11
        0x0001c7e8:    fba78602    ....    UMULL    r8,r6,r7,r2
        0x0001c7ec:    fb076603    ...f    MLA      r6,r7,r3,r6
        0x0001c7f0:    fb056602    ...f    MLA      r6,r5,r2,r6
        0x0001c7f4:    ea1e0f0e    ....    TST      lr,lr
        0x0001c7f8:    bf58        X.      IT       PL
        0x0001c7fa:    eba65600    ...V    SUBPL    r6,r6,r0,LSL #20
        0x0001c7fe:    ebb65600    ...V    SUBS     r6,r6,r0,LSL #20
        0x0001c802:    ea4f0e52    O.R.    LSR      lr,r2,#1
        0x0001c806:    ea4e7ec3    N..~    ORR      lr,lr,r3,LSL #31
        0x0001c80a:    eb180e0e    ....    ADDS     lr,r8,lr
        0x0001c80e:    eb560e53    V.S.    ADCS     lr,r6,r3,LSR #1
        0x0001c812:    d5bc        ..      BPL      0x1c78e ; ddiv_entry + 256
        0x0001c814:    eb180802    ....    ADDS     r8,r8,r2
        0x0001c818:    415e        ^A      ADCS     r6,r6,r3
        0x0001c81a:    1c7f        ..      ADDS     r7,r7,#1
        0x0001c81c:    f1550500    U...    ADCS     r5,r5,#0
        0x0001c820:    e7b5        ..      B        0x1c78e ; ddiv_entry + 256
        0x0001c822:    f44f1580    O...    MOV      r5,#0x100000
        0x0001c826:    f04f0700    O...    MOV      r7,#0
        0x0001c82a:    f04f0600    O...    MOV      r6,#0
        0x0001c82e:    f04f0800    O...    MOV      r8,#0
        0x0001c832:    e7ac        ..      B        0x1c78e ; ddiv_entry + 256
        0x0001c834:    f10141c0    ...A    ADD      r1,r1,#0x60000000
        0x0001c838:    f0014100    ...A    AND      r1,r1,#0x80000000
        0x0001c83c:    f04f0000    O...    MOV      r0,#0
        0x0001c840:    bcf0        ..      POP      {r4-r7}
        0x0001c842:    e8bd8100    ....    POP      {r8,pc}
        0x0001c846:    ea0c1513    ....    AND      r5,r12,r3,LSR #4
        0x0001c84a:    ea111f0c    ....    TST      r1,r12,LSL #4
        0x0001c84e:    d000        ..      BEQ      0x1c852 ; ddiv_entry + 452
        0x0001c850:    e00c        ..      B        0x1c86c ; ddiv_entry + 478
        0x0001c852:    ea131f0c    ....    TST      r3,r12,LSL #4
        0x0001c856:    f0008026    ..&.    BEQ.W    0x1c8a6 ; ddiv_entry + 536
        0x0001c85a:    f04f0000    O...    MOV      r0,#0
        0x0001c85e:    ea810103    ....    EOR      r1,r1,r3
        0x0001c862:    f0014100    ...A    AND      r1,r1,#0x80000000
        0x0001c866:    bcf0        ..      POP      {r4-r7}
        0x0001c868:    e8bd8100    ....    POP      {r8,pc}
        0x0001c86c:    bcf0        ..      POP      {r4-r7}
        0x0001c86e:    e8bd4100    ...A    POP      {r8,lr}
        0x0001c872:    ea810103    ....    EOR      r1,r1,r3
        0x0001c876:    f000b9a3    ....    B.W      __fpl_dretinf ; 0x1cbc0
        0x0001c87a:    bcf0        ..      POP      {r4-r7}
        0x0001c87c:    e8bd4100    ...A    POP      {r8,lr}
        0x0001c880:    b570        p.      PUSH     {r4-r6,lr}
        0x0001c882:    f000f94f    ..O.    BL       __fpl_dnaninf ; 0x1cb24
        0x0001c886:    bf00        ..      NOP      
    $d
        0x0001c888:    3efc7e09    .~.>    DCD    1056734729
    $t
        0x0001c88c:    f000b807    ....    B.W      0x1c89e ; ddiv_entry + 528
        0x0001c890:    f04f0000    O...    MOV      r0,#0
        0x0001c894:    ea810103    ....    EOR      r1,r1,r3
        0x0001c898:    f0014100    ...A    AND      r1,r1,#0x80000000
        0x0001c89c:    4770        pG      BX       lr
        0x0001c89e:    ea810103    ....    EOR      r1,r1,r3
        0x0001c8a2:    f000b98d    ....    B.W      __fpl_dretinf ; 0x1cbc0
        0x0001c8a6:    bcf0        ..      POP      {r4-r7}
        0x0001c8a8:    e8bd4100    ...A    POP      {r8,lr}
        0x0001c8ac:    4922        "I      LDR      r1,[pc,#136] ; [0x1c938] = 0x7ff80000
        0x0001c8ae:    f04f0000    O...    MOV      r0,#0
        0x0001c8b2:    4770        pG      BX       lr
    $d
        0x0001c8b4:    f9fbfdff    ....    DCD    4194041343
        0x0001c8b8:    f2f4f5f7    ....    DCD    4076140023
        0x0001c8bc:    ebedeef0    ....    DCD    3958238960
        0x0001c8c0:    e4e6e8e9    ....    DCD    3840338153
        0x0001c8c4:    dee0e1e3    ....    DCD    3739279843
        0x0001c8c8:    d8dadbdd    ....    DCD    3638221789
        0x0001c8cc:    d3d4d5d7    ....    DCD    3553940951
        0x0001c8d0:    cdcfd0d1    ....    DCD    3452948689
        0x0001c8d4:    c8cacbcc    ....    DCD    3368733644
        0x0001c8d8:    c4c5c6c7    ....    DCD    3301295815
        0x0001c8dc:    bfc0c1c2    ....    DCD    3217080770
        0x0001c8e0:    bbbcbdbe    ....    DCD    3149708734
        0x0001c8e4:    b7b8b9ba    ....    DCD    3082336698
        0x0001c8e8:    b3b4b5b6    ....    DCD    3014964662
        0x0001c8ec:    afb0b1b2    ....    DCD    2947592626
        0x0001c8f0:    abacadae    ....    DCD    2880220590
        0x0001c8f4:    a8a8a9aa    ....    DCD    2829625770
        0x0001c8f8:    a4a5a6a7    ....    DCD    2762319527
        0x0001c8fc:    a1a2a3a3    ....    DCD    2711790499
        0x0001c900:    9e9f9fa0    ....    DCD    2661261216
        0x0001c904:    9b9c9c9d    ....    DCD    2610732189
        0x0001c908:    9899999a    ....    DCD    2560203162
        0x0001c90c:    95969797    ....    DCD    2509674391
        0x0001c910:    93939495    ....    DCD    2475922581
        0x0001c914:    90919192    ....    DCD    2425459090
        0x0001c918:    8e8e8f8f    ....    DCD    2391707535
        0x0001c91c:    8b8c8c8d    ....    DCD    2341244045
        0x0001c920:    89898a8b    ....    DCD    2307492491
        0x0001c924:    87878888    ....    DCD    2273806472
        0x0001c928:    84858586    ....    DCD    2223342982
        0x0001c92c:    82838384    ....    DCD    2189656964
        0x0001c930:    80818182    ....    DCD    2155970946
        0x0001c934:    07ff0000    ....    DCD    134152192
        0x0001c938:    7ff80000    ....    DCD    2146959360
    $t
    x$fpl$deqf
    $v0
    __aeabi_cdcmpeq
    _dcmpeq
        0x0001c93c:    ea510c03    Q...    ORRS     r12,r1,r3
        0x0001c940:    d417        ..      BMI      0x1c972 ; __aeabi_cdcmpeq + 54
        0x0001c942:    f51c1f80    ....    CMN      r12,#0x100000
        0x0001c946:    bf58        X.      IT       PL
        0x0001c948:    f5bc1f80    ....    CMPPL    r12,#0x100000
        0x0001c94c:    f1008006    ....    BMI.W    0x1c95c ; __aeabi_cdcmpeq + 32
        0x0001c950:    4299        .B      CMP      r1,r3
        0x0001c952:    bf18        ..      IT       NE
        0x0001c954:    4770        pG      BXNE     lr
        0x0001c956:    bf08        ..      IT       EQ
        0x0001c958:    4290        .B      CMPEQ    r0,r2
        0x0001c95a:    4770        pG      BX       lr
        0x0001c95c:    d707        ..      BVC      0x1c96e ; __aeabi_cdcmpeq + 50
        0x0001c95e:    f5111f80    ....    CMN      r1,#0x100000
        0x0001c962:    bf58        X.      IT       PL
        0x0001c964:    f5131f80    ....    CMNPL    r3,#0x100000
        0x0001c968:    d419        ..      BMI      0x1c99e ; __aeabi_cdcmpeq + 98
        0x0001c96a:    4299        .B      CMP      r1,r3
        0x0001c96c:    4770        pG      BX       lr
        0x0001c96e:    4289        .B      CMP      r1,r1
        0x0001c970:    4770        pG      BX       lr
        0x0001c972:    f51c1f80    ....    CMN      r12,#0x100000
        0x0001c976:    d508        ..      BPL      0x1c98a ; __aeabi_cdcmpeq + 78
        0x0001c978:    f5bc1f80    ....    CMP      r12,#0x100000
        0x0001c97c:    d5f7        ..      BPL      0x1c96e ; __aeabi_cdcmpeq + 50
        0x0001c97e:    428b        .B      CMP      r3,r1
        0x0001c980:    bf18        ..      IT       NE
        0x0001c982:    4770        pG      BXNE     lr
        0x0001c984:    bf08        ..      IT       EQ
        0x0001c986:    4282        .B      CMPEQ    r2,r0
        0x0001c988:    4770        pG      BX       lr
        0x0001c98a:    f44f1c00    O...    MOV      r12,#0x200000
        0x0001c98e:    eb1c0f41    ..A.    CMN      r12,r1,LSL #1
        0x0001c992:    bf38        8.      IT       CC
        0x0001c994:    eb1c0f43    ..C.    CMNCC    r12,r3,LSL #1
        0x0001c998:    d201        ..      BCS      0x1c99e ; __aeabi_cdcmpeq + 98
        0x0001c99a:    428b        .B      CMP      r3,r1
        0x0001c99c:    4770        pG      BX       lr
        0x0001c99e:    b570        p.      PUSH     {r4-r6,lr}
        0x0001c9a0:    f000f8c0    ....    BL       __fpl_dnaninf ; 0x1cb24
    $d
        0x0001c9a4:    00492492    .$I.    DCD    4793490
    $t
        0x0001c9a8:    f04f5100    O..Q    MOV      r1,#0x20000000
        0x0001c9ac:    f04f5380    O..S    MOV      r3,#0x10000000
        0x0001c9b0:    f7ffbe5d    ..].    B.W      __fpl_dcmp_Inf ; 0x1c66e
    x$fpl$dfixu
    $v0
    __aeabi_d2uiz
    _dfixu
        0x0001c9b4:    ea4f5311    O..S    LSR      r3,r1,#20
        0x0001c9b8:    f5a36380    ...c    SUB      r3,r3,#0x400
        0x0001c9bc:    f1d3031e    ....    RSBS     r3,r3,#0x1e
        0x0001c9c0:    bfa8        ..      IT       GE
        0x0001c9c2:    f1d30c20    .. .    RSBSGE   r12,r3,#0x20
        0x0001c9c6:    db08        ..      BLT      0x1c9da ; __aeabi_d2uiz + 38
        0x0001c9c8:    f04f4200    O..B    MOV      r2,#0x80000000
        0x0001c9cc:    ea4222c1    B.."    ORR      r2,r2,r1,LSL #11
        0x0001c9d0:    ea525250    R.PR    ORRS     r2,r2,r0,LSR #21
        0x0001c9d4:    fa32f003    2...    LSRS     r0,r2,r3
        0x0001c9d8:    4770        pG      BX       lr
        0x0001c9da:    4209        .B      TST      r1,r1
        0x0001c9dc:    d40b        ..      BMI      0x1c9f6 ; __aeabi_d2uiz + 66
        0x0001c9de:    2b10        .+      CMP      r3,#0x10
        0x0001c9e0:    bfc4        ..      ITT      GT
        0x0001c9e2:    2000        .       MOVGT    r0,#0
        0x0001c9e4:    4770        pG      BXGT     lr
        0x0001c9e6:    f5037c78    ..x|    ADD      r12,r3,#0x3e0
        0x0001c9ea:    f1bc3fff    ...?    CMP      r12,#0xffffffff
        0x0001c9ee:    d005        ..      BEQ      0x1c9fc ; __aeabi_d2uiz + 72
        0x0001c9f0:    f04f30ff    O..0    MOV      r0,#0xffffffff
        0x0001c9f4:    4770        pG      BX       lr
        0x0001c9f6:    f04f0000    O...    MOV      r0,#0
        0x0001c9fa:    4770        pG      BX       lr
        0x0001c9fc:    b570        p.      PUSH     {r4-r6,lr}
        0x0001c9fe:    f000f891    ....    BL       __fpl_dnaninf ; 0x1cb24
        0x0001ca02:    bf00        ..      NOP      
    $d
        0x0001ca04:    80249249    I.$.    DCD    2149880393
    $t
        0x0001ca08:    2000        .       MOVS     r0,#0
        0x0001ca0a:    4770        pG      BX       lr
        0x0001ca0c:    e7f0        ..      B        0x1c9f0 ; __aeabi_d2uiz + 60
    x$fpl$dfltu
    $v0
    __aeabi_ui2d
    _dfltu
        0x0001ca0e:    fab0f380    ....    CLZ      r3,r0
        0x0001ca12:    fa10f103    ....    LSLS     r1,r0,r3
        0x0001ca16:    d00a        ..      BEQ      0x1ca2e ; __aeabi_ui2d + 32
        0x0001ca18:    f1c3031d    ....    RSB      r3,r3,#0x1d
        0x0001ca1c:    f5036380    ...c    ADD      r3,r3,#0x400
        0x0001ca20:    ea4f5203    O..R    LSL      r2,r3,#20
        0x0001ca24:    ea4f5041    O.AP    LSL      r0,r1,#21
        0x0001ca28:    eb0221d1    ...!    ADD      r1,r2,r1,LSR #11
        0x0001ca2c:    4770        pG      BX       lr
        0x0001ca2e:    f04f0000    O...    MOV      r0,#0
        0x0001ca32:    4770        pG      BX       lr
    x$fpl$dgeqf
    $v0
    __aeabi_cdcmpge
    _dcmpge
        0x0001ca34:    ea510c03    Q...    ORRS     r12,r1,r3
        0x0001ca38:    d417        ..      BMI      0x1ca6a ; __aeabi_cdcmpge + 54
        0x0001ca3a:    f51c1f80    ....    CMN      r12,#0x100000
        0x0001ca3e:    bf58        X.      IT       PL
        0x0001ca40:    f5bc1f80    ....    CMPPL    r12,#0x100000
        0x0001ca44:    f1008006    ....    BMI.W    0x1ca54 ; __aeabi_cdcmpge + 32
        0x0001ca48:    4299        .B      CMP      r1,r3
        0x0001ca4a:    bf18        ..      IT       NE
        0x0001ca4c:    4770        pG      BXNE     lr
        0x0001ca4e:    bf08        ..      IT       EQ
        0x0001ca50:    4290        .B      CMPEQ    r0,r2
        0x0001ca52:    4770        pG      BX       lr
        0x0001ca54:    d707        ..      BVC      0x1ca66 ; __aeabi_cdcmpge + 50
        0x0001ca56:    f5111f80    ....    CMN      r1,#0x100000
        0x0001ca5a:    bf58        X.      IT       PL
        0x0001ca5c:    f5131f80    ....    CMNPL    r3,#0x100000
        0x0001ca60:    d419        ..      BMI      0x1ca96 ; __aeabi_cdcmpge + 98
        0x0001ca62:    4299        .B      CMP      r1,r3
        0x0001ca64:    4770        pG      BX       lr
        0x0001ca66:    4289        .B      CMP      r1,r1
        0x0001ca68:    4770        pG      BX       lr
        0x0001ca6a:    f51c1f80    ....    CMN      r12,#0x100000
        0x0001ca6e:    d508        ..      BPL      0x1ca82 ; __aeabi_cdcmpge + 78
        0x0001ca70:    f5bc1f80    ....    CMP      r12,#0x100000
        0x0001ca74:    d5f7        ..      BPL      0x1ca66 ; __aeabi_cdcmpge + 50
        0x0001ca76:    428b        .B      CMP      r3,r1
        0x0001ca78:    bf18        ..      IT       NE
        0x0001ca7a:    4770        pG      BXNE     lr
        0x0001ca7c:    bf08        ..      IT       EQ
        0x0001ca7e:    4282        .B      CMPEQ    r2,r0
        0x0001ca80:    4770        pG      BX       lr
        0x0001ca82:    f44f1c00    O...    MOV      r12,#0x200000
        0x0001ca86:    eb1c0f41    ..A.    CMN      r12,r1,LSL #1
        0x0001ca8a:    bf38        8.      IT       CC
        0x0001ca8c:    eb1c0f43    ..C.    CMNCC    r12,r3,LSL #1
        0x0001ca90:    d201        ..      BCS      0x1ca96 ; __aeabi_cdcmpge + 98
        0x0001ca92:    428b        .B      CMP      r3,r1
        0x0001ca94:    4770        pG      BX       lr
        0x0001ca96:    b570        p.      PUSH     {r4-r6,lr}
        0x0001ca98:    f000f844    ..D.    BL       __fpl_dnaninf ; 0x1cb24
    $d
        0x0001ca9c:    00492492    .$I.    DCD    4793490
    $t
        0x0001caa0:    f04f5180    O..Q    MOV      r1,#0x10000000
        0x0001caa4:    f04f5300    O..S    MOV      r3,#0x20000000
        0x0001caa8:    f7ffbde1    ....    B.W      __fpl_dcmp_Inf ; 0x1c66e
    x$fpl$dleqf
    $v0
    __aeabi_cdcmple
    _dcmple
        0x0001caac:    ea510c03    Q...    ORRS     r12,r1,r3
        0x0001cab0:    d417        ..      BMI      0x1cae2 ; __aeabi_cdcmple + 54
        0x0001cab2:    f51c1f80    ....    CMN      r12,#0x100000
        0x0001cab6:    bf58        X.      IT       PL
        0x0001cab8:    f5bc1f80    ....    CMPPL    r12,#0x100000
        0x0001cabc:    f1008006    ....    BMI.W    0x1cacc ; __aeabi_cdcmple + 32
        0x0001cac0:    4299        .B      CMP      r1,r3
        0x0001cac2:    bf18        ..      IT       NE
        0x0001cac4:    4770        pG      BXNE     lr
        0x0001cac6:    bf08        ..      IT       EQ
        0x0001cac8:    4290        .B      CMPEQ    r0,r2
        0x0001caca:    4770        pG      BX       lr
        0x0001cacc:    d707        ..      BVC      0x1cade ; __aeabi_cdcmple + 50
        0x0001cace:    f5111f80    ....    CMN      r1,#0x100000
        0x0001cad2:    bf58        X.      IT       PL
        0x0001cad4:    f5131f80    ....    CMNPL    r3,#0x100000
        0x0001cad8:    d419        ..      BMI      __fpl_dcmple_InfNaN ; 0x1cb0e
        0x0001cada:    4299        .B      CMP      r1,r3
        0x0001cadc:    4770        pG      BX       lr
        0x0001cade:    4289        .B      CMP      r1,r1
        0x0001cae0:    4770        pG      BX       lr
        0x0001cae2:    f51c1f80    ....    CMN      r12,#0x100000
        0x0001cae6:    d508        ..      BPL      0x1cafa ; __aeabi_cdcmple + 78
        0x0001cae8:    f5bc1f80    ....    CMP      r12,#0x100000
        0x0001caec:    d5f7        ..      BPL      0x1cade ; __aeabi_cdcmple + 50
        0x0001caee:    428b        .B      CMP      r3,r1
        0x0001caf0:    bf18        ..      IT       NE
        0x0001caf2:    4770        pG      BXNE     lr
        0x0001caf4:    bf08        ..      IT       EQ
        0x0001caf6:    4282        .B      CMPEQ    r2,r0
        0x0001caf8:    4770        pG      BX       lr
        0x0001cafa:    f44f1c00    O...    MOV      r12,#0x200000
        0x0001cafe:    eb1c0f41    ..A.    CMN      r12,r1,LSL #1
        0x0001cb02:    bf38        8.      IT       CC
        0x0001cb04:    eb1c0f43    ..C.    CMNCC    r12,r3,LSL #1
        0x0001cb08:    d201        ..      BCS      __fpl_dcmple_InfNaN ; 0x1cb0e
        0x0001cb0a:    428b        .B      CMP      r3,r1
        0x0001cb0c:    4770        pG      BX       lr
    __fpl_dcmple_InfNaN
        0x0001cb0e:    b570        p.      PUSH     {r4-r6,lr}
        0x0001cb10:    f000f808    ....    BL       __fpl_dnaninf ; 0x1cb24
    $d
        0x0001cb14:    00492492    .$I.    DCD    4793490
    $t
        0x0001cb18:    f04f5100    O..Q    MOV      r1,#0x20000000
        0x0001cb1c:    f04f5380    O..S    MOV      r3,#0x10000000
        0x0001cb20:    f7ffbda5    ....    B.W      __fpl_dcmp_Inf ; 0x1c66e
    x$fpl$dnaninf
    $v0
    __fpl_dnaninf
        0x0001cb24:    f10e0e02    ....    ADD      lr,lr,#2
        0x0001cb28:    f02e0e03    ....    BIC      lr,lr,#3
        0x0001cb2c:    f85e6b04    ^..k    LDR      r6,[lr],#4
        0x0001cb30:    4236        6B      TST      r6,r6
        0x0001cb32:    d405        ..      BMI      0x1cb40 ; __fpl_dnaninf + 28
        0x0001cb34:    2a01        .*      CMP      r2,#1
        0x0001cb36:    eb430503    C...    ADC      r5,r3,r3
        0x0001cb3a:    f5151f00    ....    CMN      r5,#0x200000
        0x0001cb3e:    d812        ..      BHI      0x1cb66 ; __fpl_dnaninf + 66
        0x0001cb40:    2801        .(      CMP      r0,#1
        0x0001cb42:    eb410c01    A...    ADC      r12,r1,r1
        0x0001cb46:    f51c1f00    ....    CMN      r12,#0x200000
        0x0001cb4a:    d80c        ..      BHI      0x1cb66 ; __fpl_dnaninf + 66
        0x0001cb4c:    d10e        ..      BNE      0x1cb6c ; __fpl_dnaninf + 72
        0x0001cb4e:    ea4f7cd1    O..|    LSR      r12,r1,#31
        0x0001cb52:    eb0c0c4c    ..L.    ADD      r12,r12,r12,LSL #1
        0x0001cb56:    f10c0c02    ....    ADD      r12,r12,#2
        0x0001cb5a:    f5151f00    ....    CMN      r5,#0x200000
        0x0001cb5e:    bf08        ..      IT       EQ
        0x0001cb60:    eb4c7cd3    L..|    ADCEQ    r12,r12,r3,LSR #31
        0x0001cb64:    e004        ..      B        0x1cb70 ; __fpl_dnaninf + 76
        0x0001cb66:    f04f0c08    O...    MOV      r12,#8
        0x0001cb6a:    e001        ..      B        0x1cb70 ; __fpl_dnaninf + 76
        0x0001cb6c:    ea4f7cd3    O..|    LSR      r12,r3,#31
        0x0001cb70:    eb0c054c    ..L.    ADD      r5,r12,r12,LSL #1
        0x0001cb74:    fa26f605    &...    LSR      r6,r6,r5
        0x0001cb78:    f0060607    ....    AND      r6,r6,#7
        0x0001cb7c:    f1b60c04    ....    SUBS     r12,r6,#4
        0x0001cb80:    d206        ..      BCS      0x1cb90 ; __fpl_dnaninf + 108
        0x0001cb82:    eb0e0c86    ....    ADD      r12,lr,r6,LSL #2
        0x0001cb86:    e8bd4070    ..p@    POP      {r4-r6,lr}
        0x0001cb8a:    f04c0c01    L...    ORR      r12,r12,#1
        0x0001cb8e:    4760        `G      BX       r12
        0x0001cb90:    e8dff00c    ....    TBB      [pc,r12]
    $d
        0x0001cb94:    02020b09    ....    DCD    33688329
    $t
        0x0001cb98:    f04f4100    O..A    MOV      r1,#0x80000000
        0x0001cb9c:    f5a12100    ...!    SUB      r1,r1,#0x80000
        0x0001cba0:    f04f0000    O...    MOV      r0,#0
        0x0001cba4:    bd70        p.      POP      {r4-r6,pc}
        0x0001cba6:    4619        .F      MOV      r1,r3
        0x0001cba8:    4610        .F      MOV      r0,r2
        0x0001cbaa:    2801        .(      CMP      r0,#1
        0x0001cbac:    eb510401    Q...    ADCS     r4,r1,r1
        0x0001cbb0:    bf18        ..      IT       NE
        0x0001cbb2:    f5d41400    ....    RSBSNE   r4,r4,#0x200000
        0x0001cbb6:    bf84        ..      ITT      HI
        0x0001cbb8:    2000        .       MOVHI    r0,#0
        0x0001cbba:    f0014100    ...A    ANDHI    r1,r1,#0x80000000
        0x0001cbbe:    bd70        p.      POP      {r4-r6,pc}
    x$fpl$dretinf
    $v0
    __fpl_dretinf
        0x0001cbc0:    0808        ..      LSRS     r0,r1,#32
        0x0001cbc2:    f5a01100    ....    SUB      r1,r0,#0x200000
        0x0001cbc6:    ea4f0131    O.1.    RRX      r1,r1
        0x0001cbca:    4770        pG      BX       lr
    x$fpl$f2d
    $v0
    __aeabi_f2d
    _f2d
        0x0001cbcc:    0043        C.      LSLS     r3,r0,#1
        0x0001cbce:    ea4f0cd3    O...    LSR      r12,r3,#3
        0x0001cbd2:    ea4f0c3c    O.<.    RRX      r12,r12
        0x0001cbd6:    4043        C@      EORS     r3,r3,r0
        0x0001cbd8:    bf1f        ..      ITTTT    NE
        0x0001cbda:    0740        @.      LSLNE    r0,r0,#29
        0x0001cbdc:    f10c5160    ..`Q    ADDNE    r1,r12,#0x38000000
        0x0001cbe0:    f0134ffe    ...O    TSTNE    r3,#0x7f000000
        0x0001cbe4:    4770        pG      BXNE     lr
        0x0001cbe6:    f01c6f00    ...o    TST      r12,#0x8000000
        0x0001cbea:    d103        ..      BNE      0x1cbf4 ; __aeabi_f2d + 40
        0x0001cbec:    f00c4100    ...A    AND      r1,r12,#0x80000000
        0x0001cbf0:    2000        .       MOVS     r0,#0
        0x0001cbf2:    4770        pG      BX       lr
        0x0001cbf4:    f00c4300    ...C    AND      r3,r12,#0x80000000
        0x0001cbf8:    ea437050    C.Pp    ORR      r0,r3,r0,LSR #29
        0x0001cbfc:    ea4000cc    @...    ORR      r0,r0,r12,LSL #3
        0x0001cc00:    b510        ..      PUSH     {r4,lr}
        0x0001cc02:    f000f838    ..8.    BL       __fpl_fnaninf ; 0x1cc76
        0x0001cc06:    bf00        ..      NOP      
    $d
        0x0001cc08:    92000000    ....    DCD    2449473536
    $t
        0x0001cc0c:    ea4f0100    O...    MOV.W    r1,r0
        0x0001cc10:    f7ffbfd6    ....    B.W      __fpl_dretinf ; 0x1cbc0
        0x0001cc14:    f04f4100    O..A    MOV      r1,#0x80000000
        0x0001cc18:    f5a12100    ...!    SUB      r1,r1,#0x80000
        0x0001cc1c:    f04f0000    O...    MOV      r0,#0
        0x0001cc20:    4770        pG      BX       lr
    x$fpl$fcmp
    $v0
    __aeabi_dcmpeq
    _deq
        0x0001cc22:    b510        ..      PUSH     {r4,lr}
        0x0001cc24:    f7fffe8a    ....    BL       __aeabi_cdcmpeq ; 0x1c93c
        0x0001cc28:    bf0c        ..      ITE      EQ
        0x0001cc2a:    2001        .       MOVEQ    r0,#1
        0x0001cc2c:    2000        .       MOVNE    r0,#0
        0x0001cc2e:    bd10        ..      POP      {r4,pc}
    _dneq
        0x0001cc30:    b510        ..      PUSH     {r4,lr}
        0x0001cc32:    f7fffe83    ....    BL       __aeabi_cdcmpeq ; 0x1c93c
        0x0001cc36:    bf14        ..      ITE      NE
        0x0001cc38:    2001        .       MOVNE    r0,#1
        0x0001cc3a:    2000        .       MOVEQ    r0,#0
        0x0001cc3c:    bd10        ..      POP      {r4,pc}
    __aeabi_dcmpgt
    _dgr
        0x0001cc3e:    b510        ..      PUSH     {r4,lr}
        0x0001cc40:    f7fffef8    ....    BL       __aeabi_cdcmpge ; 0x1ca34
        0x0001cc44:    bf8c        ..      ITE      HI
        0x0001cc46:    2001        .       MOVHI    r0,#1
        0x0001cc48:    2000        .       MOVLS    r0,#0
        0x0001cc4a:    bd10        ..      POP      {r4,pc}
    __aeabi_dcmpge
    _dgeq
        0x0001cc4c:    b510        ..      PUSH     {r4,lr}
        0x0001cc4e:    f7fffef1    ....    BL       __aeabi_cdcmpge ; 0x1ca34
        0x0001cc52:    bf2c        ,.      ITE      CS
        0x0001cc54:    2001        .       MOVCS    r0,#1
        0x0001cc56:    2000        .       MOVCC    r0,#0
        0x0001cc58:    bd10        ..      POP      {r4,pc}
    __aeabi_dcmple
    _dleq
        0x0001cc5a:    b510        ..      PUSH     {r4,lr}
        0x0001cc5c:    f7ffff26    ..&.    BL       __aeabi_cdcmple ; 0x1caac
        0x0001cc60:    bf94        ..      ITE      LS
        0x0001cc62:    2001        .       MOVLS    r0,#1
        0x0001cc64:    2000        .       MOVHI    r0,#0
        0x0001cc66:    bd10        ..      POP      {r4,pc}
    __aeabi_dcmplt
    _dls
        0x0001cc68:    b510        ..      PUSH     {r4,lr}
        0x0001cc6a:    f7ffff1f    ....    BL       __aeabi_cdcmple ; 0x1caac
        0x0001cc6e:    bf34        4.      ITE      CC
        0x0001cc70:    2001        .       MOVCC    r0,#1
        0x0001cc72:    2000        .       MOVCS    r0,#0
        0x0001cc74:    bd10        ..      POP      {r4,pc}
    x$fpl$fnaninf
    $v0
    __fpl_fnaninf
        0x0001cc76:    f10e0e02    ....    ADD      lr,lr,#2
        0x0001cc7a:    f02e0e03    ....    BIC      lr,lr,#3
        0x0001cc7e:    f85e4b04    ^..K    LDR      r4,[lr],#4
        0x0001cc82:    4224        $B      TST      r4,r4
        0x0001cc84:    d404        ..      BMI      0x1cc90 ; __fpl_fnaninf + 26
        0x0001cc86:    ea4f0241    O.A.    LSL      r2,r1,#1
        0x0001cc8a:    f1b24f7f    ...O    CMP      r2,#0xff000000
        0x0001cc8e:    d811        ..      BHI      0x1ccb4 ; __fpl_fnaninf + 62
        0x0001cc90:    ea4f0340    O.@.    LSL      r3,r0,#1
        0x0001cc94:    f1b34f7f    ...O    CMP      r3,#0xff000000
        0x0001cc98:    d80c        ..      BHI      0x1ccb4 ; __fpl_fnaninf + 62
        0x0001cc9a:    d10e        ..      BNE      0x1ccba ; __fpl_fnaninf + 68
        0x0001cc9c:    ea4f7cd0    O..|    LSR      r12,r0,#31
        0x0001cca0:    eb0c0c4c    ..L.    ADD      r12,r12,r12,LSL #1
        0x0001cca4:    f10c0c02    ....    ADD      r12,r12,#2
        0x0001cca8:    f1b24f7f    ...O    CMP      r2,#0xff000000
        0x0001ccac:    bf08        ..      IT       EQ
        0x0001ccae:    eb4c7cd1    L..|    ADCEQ    r12,r12,r1,LSR #31
        0x0001ccb2:    e004        ..      B        0x1ccbe ; __fpl_fnaninf + 72
        0x0001ccb4:    f04f0c08    O...    MOV      r12,#8
        0x0001ccb8:    e001        ..      B        0x1ccbe ; __fpl_fnaninf + 72
        0x0001ccba:    ea4f7cd1    O..|    LSR      r12,r1,#31
        0x0001ccbe:    eb0c034c    ..L.    ADD      r3,r12,r12,LSL #1
        0x0001ccc2:    fa24f403    $...    LSR      r4,r4,r3
        0x0001ccc6:    f0040407    ....    AND      r4,r4,#7
        0x0001ccca:    f1b40c04    ....    SUBS     r12,r4,#4
        0x0001ccce:    d206        ..      BCS      0x1ccde ; __fpl_fnaninf + 104
        0x0001ccd0:    eb0e0c84    ....    ADD      r12,lr,r4,LSL #2
        0x0001ccd4:    e8bd4010    ...@    POP      {r4,lr}
        0x0001ccd8:    f04c0c01    L...    ORR      r12,r12,#1
        0x0001ccdc:    4760        `G      BX       r12
        0x0001ccde:    e8dff00c    ....    TBB      [pc,r12]
    $d
        0x0001cce2:    0807        ..      DCW    2055
        0x0001cce4:    0202        ..      DCW    514
    $t
        0x0001cce6:    f04f4000    O..@    MOV      r0,#0x80000000
        0x0001ccea:    f5a00080    ....    SUB      r0,r0,#0x400000
        0x0001ccee:    bd10        ..      POP      {r4,pc}
        0x0001ccf0:    4608        .F      MOV      r0,r1
        0x0001ccf2:    0042        B.      LSLS     r2,r0,#1
        0x0001ccf4:    bf18        ..      IT       NE
        0x0001ccf6:    f1d27280    ...r    RSBSNE   r2,r2,#0x1000000
        0x0001ccfa:    bf88        ..      IT       HI
        0x0001ccfc:    f0004000    ...@    ANDHI    r0,r0,#0x80000000
        0x0001cd00:    bd10        ..      POP      {r4,pc}
    x$fpl$fpinit
    $v0
    _fp_init
        0x0001cd02:    eef10a10    ....    VMRS     r0,FPSCR
        0x0001cd06:    f64f71ff    O..q    MOV      r1,#0xffff
        0x0001cd0a:    f2c031c0    ...1    MOVT     r1,#0x3c0
        0x0001cd0e:    ea200001     ...    BIC      r0,r0,r1
        0x0001cd12:    f0407040    @.@p    ORR      r0,r0,#0x3000000
        0x0001cd16:    eee10a10    ....    VMSR     FPSCR,r0
    __fplib_config_fpu_vfp
    __fplib_config_pureend_doubles
        0x0001cd1a:    4770        pG      BX       lr
    x$fpl$fretinf
    $v0
    __fpl_fretinf
        0x0001cd1c:    21ff        .!      MOVS     r1,#0xff
        0x0001cd1e:    ea4150d0    A..P    ORR      r0,r1,r0,LSR #23
        0x0001cd22:    05c0        ..      LSLS     r0,r0,#23
        0x0001cd24:    4770        pG      BX       lr
    $d.realdata
    .L__const.apollo4_cache_memory_config.McuMemCfg
    x$fpl$usenofp
    __I$use$fp
        0x0001cd26:    0001        ..      DCW    1
        0x0001cd28:    01010101    ....    DCD    16843009
    am_hal_daxi_defaults
        0x0001cd2c:    00000002    ....    DCD    2
    am_hal_gpio_pincfg_disabled
        0x0001cd30:    00000003    ....    DCD    3
    am_hal_gpio_pincfg_opendrain
        0x0001cd34:    00000283    ....    DCD    643
    am_hal_gpio_pincfg_output
        0x0001cd38:    00000183    ....    DCD    387
    am_hal_gpio_pincfg_tristate
        0x0001cd3c:    00000383    ....    DCD    899
    am_hal_pwrctrl_peripheral_control
        0x0001cd40:    40021004    ...@    DCD    1073876996
        0x0001cd44:    00000001    ....    DCD    1
        0x0001cd48:    40021008    ...@    DCD    1073877000
        0x0001cd4c:    00000001    ....    DCD    1
        0x0001cd50:    40021004    ...@    DCD    1073876996
        0x0001cd54:    00000002    ....    DCD    2
        0x0001cd58:    40021008    ...@    DCD    1073877000
        0x0001cd5c:    0000001e    ....    DCD    30
        0x0001cd60:    40021004    ...@    DCD    1073876996
        0x0001cd64:    00000004    ....    DCD    4
        0x0001cd68:    40021008    ...@    DCD    1073877000
        0x0001cd6c:    0000001e    ....    DCD    30
        0x0001cd70:    40021004    ...@    DCD    1073876996
        0x0001cd74:    00000008    ....    DCD    8
        0x0001cd78:    40021008    ...@    DCD    1073877000
        0x0001cd7c:    0000001e    ....    DCD    30
        0x0001cd80:    40021004    ...@    DCD    1073876996
        0x0001cd84:    00000010    ....    DCD    16
        0x0001cd88:    40021008    ...@    DCD    1073877000
        0x0001cd8c:    0000001e    ....    DCD    30
        0x0001cd90:    40021004    ...@    DCD    1073876996
        0x0001cd94:    00000020     ...    DCD    32
        0x0001cd98:    40021008    ...@    DCD    1073877000
        0x0001cd9c:    000001e0    ....    DCD    480
        0x0001cda0:    40021004    ...@    DCD    1073876996
        0x0001cda4:    00000040    @...    DCD    64
        0x0001cda8:    40021008    ...@    DCD    1073877000
        0x0001cdac:    000001e0    ....    DCD    480
        0x0001cdb0:    40021004    ...@    DCD    1073876996
        0x0001cdb4:    00000080    ....    DCD    128
        0x0001cdb8:    40021008    ...@    DCD    1073877000
        0x0001cdbc:    000001e0    ....    DCD    480
        0x0001cdc0:    40021004    ...@    DCD    1073876996
        0x0001cdc4:    00000100    ....    DCD    256
        0x0001cdc8:    40021008    ...@    DCD    1073877000
        0x0001cdcc:    000001e0    ....    DCD    480
        0x0001cdd0:    40021004    ...@    DCD    1073876996
        0x0001cdd4:    00000200    ....    DCD    512
        0x0001cdd8:    40021008    ...@    DCD    1073877000
        0x0001cddc:    00001e00    ....    DCD    7680
        0x0001cde0:    40021004    ...@    DCD    1073876996
        0x0001cde4:    00000400    ....    DCD    1024
        0x0001cde8:    40021008    ...@    DCD    1073877000
        0x0001cdec:    00001e00    ....    DCD    7680
        0x0001cdf0:    40021004    ...@    DCD    1073876996
        0x0001cdf4:    00000800    ....    DCD    2048
        0x0001cdf8:    40021008    ...@    DCD    1073877000
        0x0001cdfc:    00001e00    ....    DCD    7680
        0x0001ce00:    40021004    ...@    DCD    1073876996
        0x0001ce04:    00001000    ....    DCD    4096
        0x0001ce08:    40021008    ...@    DCD    1073877000
        0x0001ce0c:    00001e00    ....    DCD    7680
        0x0001ce10:    40021004    ...@    DCD    1073876996
        0x0001ce14:    00002000    . ..    DCD    8192
        0x0001ce18:    40021008    ...@    DCD    1073877000
        0x0001ce1c:    00002000    . ..    DCD    8192
        0x0001ce20:    40021004    ...@    DCD    1073876996
        0x0001ce24:    00004000    .@..    DCD    16384
        0x0001ce28:    40021008    ...@    DCD    1073877000
        0x0001ce2c:    0001c000    ....    DCD    114688
        0x0001ce30:    40021004    ...@    DCD    1073876996
        0x0001ce34:    00008000    ....    DCD    32768
        0x0001ce38:    40021008    ...@    DCD    1073877000
        0x0001ce3c:    0001c000    ....    DCD    114688
        0x0001ce40:    40021004    ...@    DCD    1073876996
        0x0001ce44:    00010000    ....    DCD    65536
        0x0001ce48:    40021008    ...@    DCD    1073877000
        0x0001ce4c:    0001c000    ....    DCD    114688
        0x0001ce50:    40021004    ...@    DCD    1073876996
        0x0001ce54:    00020000    ....    DCD    131072
        0x0001ce58:    40021008    ...@    DCD    1073877000
        0x0001ce5c:    00020000    ....    DCD    131072
        0x0001ce60:    40021004    ...@    DCD    1073876996
        0x0001ce64:    00040000    ....    DCD    262144
        0x0001ce68:    40021008    ...@    DCD    1073877000
        0x0001ce6c:    00040000    ....    DCD    262144
        0x0001ce70:    40021004    ...@    DCD    1073876996
        0x0001ce74:    00080000    ....    DCD    524288
        0x0001ce78:    40021008    ...@    DCD    1073877000
        0x0001ce7c:    00080000    ....    DCD    524288
        0x0001ce80:    40021004    ...@    DCD    1073876996
        0x0001ce84:    00100000    ....    DCD    1048576
        0x0001ce88:    40021008    ...@    DCD    1073877000
        0x0001ce8c:    00100000    ....    DCD    1048576
        0x0001ce90:    40021004    ...@    DCD    1073876996
        0x0001ce94:    00200000    .. .    DCD    2097152
        0x0001ce98:    40021008    ...@    DCD    1073877000
        0x0001ce9c:    00200000    .. .    DCD    2097152
        0x0001cea0:    40021004    ...@    DCD    1073876996
        0x0001cea4:    00400000    ..@.    DCD    4194304
        0x0001cea8:    40021008    ...@    DCD    1073877000
        0x0001ceac:    00400000    ..@.    DCD    4194304
        0x0001ceb0:    40021004    ...@    DCD    1073876996
        0x0001ceb4:    00800000    ....    DCD    8388608
        0x0001ceb8:    40021008    ...@    DCD    1073877000
        0x0001cebc:    00800000    ....    DCD    8388608
        0x0001cec0:    40021004    ...@    DCD    1073876996
        0x0001cec4:    01000000    ....    DCD    16777216
        0x0001cec8:    40021008    ...@    DCD    1073877000
        0x0001cecc:    01000000    ....    DCD    16777216
        0x0001ced0:    4002100c    ...@    DCD    1073877004
        0x0001ced4:    00000001    ....    DCD    1
        0x0001ced8:    40021010    ...@    DCD    1073877008
        0x0001cedc:    000000ff    ....    DCD    255
        0x0001cee0:    4002100c    ...@    DCD    1073877004
        0x0001cee4:    00000002    ....    DCD    2
        0x0001cee8:    40021010    ...@    DCD    1073877008
        0x0001ceec:    000000ff    ....    DCD    255
        0x0001cef0:    4002100c    ...@    DCD    1073877004
        0x0001cef4:    00000004    ....    DCD    4
        0x0001cef8:    40021010    ...@    DCD    1073877008
        0x0001cefc:    000000ff    ....    DCD    255
        0x0001cf00:    4002100c    ...@    DCD    1073877004
        0x0001cf04:    00000008    ....    DCD    8
        0x0001cf08:    40021010    ...@    DCD    1073877008
        0x0001cf0c:    000000ff    ....    DCD    255
        0x0001cf10:    4002100c    ...@    DCD    1073877004
        0x0001cf14:    00000010    ....    DCD    16
        0x0001cf18:    40021010    ...@    DCD    1073877008
        0x0001cf1c:    000000ff    ....    DCD    255
        0x0001cf20:    4002100c    ...@    DCD    1073877004
        0x0001cf24:    00000020     ...    DCD    32
        0x0001cf28:    40021010    ...@    DCD    1073877008
        0x0001cf2c:    000000ff    ....    DCD    255
        0x0001cf30:    4002100c    ...@    DCD    1073877004
        0x0001cf34:    00000040    @...    DCD    64
        0x0001cf38:    40021010    ...@    DCD    1073877008
        0x0001cf3c:    000000ff    ....    DCD    255
        0x0001cf40:    4002100c    ...@    DCD    1073877004
        0x0001cf44:    00000080    ....    DCD    128
        0x0001cf48:    40021010    ...@    DCD    1073877008
        0x0001cf4c:    000000ff    ....    DCD    255
        0x0001cf50:    4002100c    ...@    DCD    1073877004
        0x0001cf54:    00000400    ....    DCD    1024
        0x0001cf58:    40021010    ...@    DCD    1073877008
        0x0001cf5c:    00000400    ....    DCD    1024
    errpat
        0x0001cf60:    0001d4cf    ....    DCD    120015
        0x0001cf64:    0001d4e1    ....    DCD    120033
        0x0001cf68:    0001d4ea    ....    DCD    120042
        0x0001cf6c:    0001d4d8    ....    DCD    120024
    floatpat
        0x0001cf70:    0001d473    s...    DCD    119923
        0x0001cf74:    0001d485    ....    DCD    119941
        0x0001cf78:    0001d48e    ....    DCD    119950
        0x0001cf7c:    0001d47c    |...    DCD    119932
    gAxiMemRange
        0x0001cf80:    10060000    ....    DCD    268828672
        0x0001cf84:    00080000    ....    DCD    524288
        0x0001cf88:    40021028    (..@    DCD    1073877032
        0x0001cf8c:    00000001    ....    DCD    1
        0x0001cf90:    100e0000    ....    DCD    269352960
        0x0001cf94:    00080000    ....    DCD    524288
        0x0001cf98:    40021028    (..@    DCD    1073877032
        0x0001cf9c:    00000002    ....    DCD    2
        0x0001cfa0:    10160000    ....    DCD    269877248
        0x0001cfa4:    00020000    ....    DCD    131072
        0x0001cfa8:    4002105c    \..@    DCD    1073877084
        0x0001cfac:    00000002    ....    DCD    2
        0x0001cfb0:    10180000    ....    DCD    270008320
        0x0001cfb4:    00040000    ....    DCD    262144
        0x0001cfb8:    4002105c    \..@    DCD    1073877084
        0x0001cfbc:    00000001    ....    DCD    1
        0x0001cfc0:    101d0000    ....    DCD    270336000
        0x0001cfc4:    00008000    ....    DCD    32768
        0x0001cfc8:    4002107c    |..@    DCD    1073877116
        0x0001cfcc:    00000002    ....    DCD    2
        0x0001cfd0:    101c0000    ....    DCD    270270464
        0x0001cfd4:    00010000    ....    DCD    65536
        0x0001cfd8:    4002107c    |..@    DCD    1073877116
        0x0001cfdc:    00000001    ....    DCD    1
    g_DefaultMcuMemCfg
        0x0001cfe0:    07070102    ....    DCD    117899522
        0x0001cfe4:    0001        ..      DCW    1
    g_DefaultSRAMCfg
        0x0001cfe6:    0003        ..      DCW    3
        0x0001cfe8:    03000000    ....    DCD    50331648
    g_am_hal_bootrom_helper
        0x0001cfec:    0800004d    M...    DCD    134217805
        0x0001cff0:    08000051    Q...    DCD    134217809
        0x0001cff4:    08000055    U...    DCD    134217813
        0x0001cff8:    08000059    Y...    DCD    134217817
        0x0001cffc:    0800006d    m...    DCD    134217837
        0x0001d000:    08000075    u...    DCD    134217845
        0x0001d004:    08000079    y...    DCD    134217849
        0x0001d008:    08000081    ....    DCD    134217857
        0x0001d00c:    08000099    ....    DCD    134217881
        0x0001d010:    0800009d    ....    DCD    134217885
    g_sBspUartConfig
        0x0001d014:    0001c200    ....    DCD    115200
        0x0001d018:    00000203    ....    DCD    515
        0x0001d01c:    02020000    ....    DCD    33685504
    intpat
        0x0001d020:    0001d4a9    ....    DCD    119977
        0x0001d024:    0001d4c5    ....    DCD    120005
        0x0001d028:    0001d4ca    ....    DCD    120010
        0x0001d02c:    0001d4ae    ....    DCD    119982
    list_known_crc
        0x0001d030:    3340d4b0    ..@3    DCD    859886768
        0x0001d034:    e7146a79    yj..    DCD    3876874873
        0x0001d038:    e3c1        ..      DCW    58305
    matrix_known_crc
        0x0001d03a:    be52        R.      DCW    48722
        0x0001d03c:    56081199    ...V    DCD    1443369369
        0x0001d040:    07471fd7    ..G.    DCD    122101719
    __tagsym$$used.7
    sGlobalAccess
        0x0001d044:    0001d530    0...    DCD    120112
        0x0001d048:    0001d51c    ....    DCD    120092
        0x0001d04c:    0001d4f4    ....    DCD    120052
        0x0001d050:    0001d508    ....    DCD    120072
        0x0001d054:    1001f004    ....    DCD    268562436
        0x0001d058:    1001f018    ....    DCD    268562456
        0x0001d05c:    1001f02c    ,...    DCD    268562476
    scipat
        0x0001d060:    0001d4bc    ....    DCD    119996
        0x0001d064:    0001d497    ....    DCD    119959
        0x0001d068:    0001d4b3    ....    DCD    119987
        0x0001d06c:    0001d4a0    ....    DCD    119968
    state_known_crc
        0x0001d070:    39bf5e47    G^.9    DCD    968842823
        0x0001d074:    8e3ae5a4    ..:.    DCD    2386224548
        0x0001d078:    8d84        ..      DCW    36228
    .L.str.15
        0x0001d07a:    5245        ER      DCW    21061
        0x0001d07c:    21524f52    ROR!    DCD    559042386
        0x0001d080:    73754d20     Mus    DCD    1937067296
        0x0001d084:    78652074    t ex    DCD    2019893364
        0x0001d088:    74756365    ecut    DCD    1953850213
        0x0001d08c:    6f662065    e fo    DCD    1868963941
        0x0001d090:    74612072    r at    DCD    1952522354
        0x0001d094:    61656c20     lea    DCD    1634036768
        0x0001d098:    31207473    st 1    DCD    824210547
        0x0001d09c:    65732030    0 se    DCD    1702043696
        0x0001d0a0:    66207363    cs f    DCD    1713402723
        0x0001d0a4:    6120726f    or a    DCD    1629516399
        0x0001d0a8:    6c617620     val    DCD    1818326560
        0x0001d0ac:    72206469    id r    DCD    1914725481
        0x0001d0b0:    6c757365    esul    DCD    1819636581
        0x0001d0b4:    000a2174    t!..    DCD    663924
    .L.str.33
        0x0001d0b8:    4d2f4d43    CM/M    DCD    1294945603
        0x0001d0bc:    253d7a48    Hz=%    DCD    624785992
        0x0001d0c0:    2e66332e    .3f.    DCD    778449710
        0x0001d0c4:    000a        ..      DCW    10
    .L.str.6
        0x0001d0c6:    4b32        2K      DCW    19250
        0x0001d0c8:    72657020     per    DCD    1919250464
        0x0001d0cc:    6d726f66    form    DCD    1836216166
        0x0001d0d0:    65636e61    ance    DCD    1701015137
        0x0001d0d4:    6e757220     run    DCD    1853190688
        0x0001d0d8:    72617020     par    DCD    1918988320
        0x0001d0dc:    74656d61    amet    DCD    1952804193
        0x0001d0e0:    20737265    ers     DCD    544436837
        0x0001d0e4:    20726f66    for     DCD    544370534
        0x0001d0e8:    65726f63    core    DCD    1701998435
        0x0001d0ec:    6b72616d    mark    DCD    1802658157
        0x0001d0f0:    0a2e        ..      DCW    2606
        0x0001d0f2:    00          .       DCB    0
    .L.str.5
        0x0001d0f3:    50          P       DCB    80
        0x0001d0f4:    69666f72    rofi    DCD    1768320882
        0x0001d0f8:    6720656c    le g    DCD    1730176364
        0x0001d0fc:    72656e65    ener    DCD    1919250021
        0x0001d100:    6f697461    atio    DCD    1869182049
        0x0001d104:    7572206e    n ru    DCD    1970413678
        0x0001d108:    6170206e    n pa    DCD    1634738286
        0x0001d10c:    656d6172    rame    DCD    1701667186
        0x0001d110:    73726574    ters    DCD    1936876916
        0x0001d114:    726f6620     for    DCD    1919903264
        0x0001d118:    726f6320     cor    DCD    1919902496
        0x0001d11c:    72616d65    emar    DCD    1918987621
        0x0001d120:    000a2e6b    k...    DCD    667243
    .L.str.32
        0x0001d124:    6e6e6143    Cann    DCD    1852727619
        0x0001d128:    7620746f    ot v    DCD    1981838447
        0x0001d12c:    64696c61    alid    DCD    1684630625
        0x0001d130:    20657461    ate     DCD    543519841
        0x0001d134:    7265706f    oper    DCD    1919250543
        0x0001d138:    6f697461    atio    DCD    1869182049
        0x0001d13c:    6f66206e    n fo    DCD    1868963950
        0x0001d140:    68742072    r th    DCD    1752440946
        0x0001d144:    20657365    ese     DCD    543519589
        0x0001d148:    64656573    seed    DCD    1684366707
        0x0001d14c:    6c617620     val    DCD    1818326560
        0x0001d150:    2c736575    ues,    DCD    745760117
        0x0001d154:    656c7020     ple    DCD    1701605408
        0x0001d158:    20657361    ase     DCD    543519585
        0x0001d15c:    706d6f63    comp    DCD    1886220131
        0x0001d160:    20657261    are     DCD    543519329
        0x0001d164:    68746977    with    DCD    1752459639
        0x0001d168:    73657220     res    DCD    1936028192
        0x0001d16c:    73746c75    ults    DCD    1937009781
        0x0001d170:    206e6f20     on     DCD    544108320
        0x0001d174:    6e6b2061    a kn    DCD    1852514401
        0x0001d178:    206e776f    own     DCD    544110447
        0x0001d17c:    74616c70    plat    DCD    1952541808
        0x0001d180:    6d726f66    form    DCD    1836216166
        0x0001d184:    0a2e        ..      DCW    2606
        0x0001d186:    00          .       DCB    0
    .L.str.26
        0x0001d187:    43          C       DCB    67
        0x0001d188:    6572726f    orre    DCD    1701999215
        0x0001d18c:    6f207463    ct o    DCD    1864397923
        0x0001d190:    61726570    pera    DCD    1634887024
        0x0001d194:    6e6f6974    tion    DCD    1852795252
        0x0001d198:    6c617620     val    DCD    1818326560
        0x0001d19c:    74616469    idat    DCD    1952539753
        0x0001d1a0:    202e6465    ed.     DCD    539911269
        0x0001d1a4:    20656553    See     DCD    543515987
        0x0001d1a8:    64616572    read    DCD    1684104562
        0x0001d1ac:    742e656d    me.t    DCD    1949197677
        0x0001d1b0:    66207478    xt f    DCD    1713403000
        0x0001d1b4:    7220726f    or r    DCD    1914729071
        0x0001d1b8:    61206e75    un a    DCD    1629515381
        0x0001d1bc:    7220646e    nd r    DCD    1914725486
        0x0001d1c0:    726f7065    epor    DCD    1919905893
        0x0001d1c4:    676e6974    ting    DCD    1735289204
        0x0001d1c8:    6c757220     rul    DCD    1819636256
        0x0001d1cc:    0a2e7365    es..    DCD    170816357
        0x0001d1d0:    00          .       DCB    0
    .L.str.31
        0x0001d1d1:    457272      Err     DCB    69,114,114
        0x0001d1d4:    2073726f    ors     DCD    544436847
        0x0001d1d8:    65746564    dete    DCD    1702126948
        0x0001d1dc:    64657463    cted    DCD    1684370531
        0x0001d1e0:    000a        ..      DCW    10
    .L.str.14
        0x0001d1e2:    7449        It      DCW    29769
        0x0001d1e4:    74617265    erat    DCD    1952543333
        0x0001d1e8:    736e6f69    ions    DCD    1936617321
        0x0001d1ec:    6365532f    /Sec    DCD    1667584815
        0x0001d1f0:    3a202020       :    DCD    975183904
        0x0001d1f4:    0a662520     %f.    DCD    174466336
        0x0001d1f8:    00          .       DCB    0
    .L.str.13
        0x0001d1f9:    546f74      Tot     DCB    84,111,116
        0x0001d1fc:    74206c61    al t    DCD    1948281953
        0x0001d200:    20656d69    ime     DCD    543518057
        0x0001d204:    63657328    (sec    DCD    1667593000
        0x0001d208:    203a2973    s):     DCD    540682611
        0x0001d20c:    000a6625    %f..    DCD    681509
    .L.str.19
        0x0001d210:    6f6d654d    Memo    DCD    1869440333
        0x0001d214:    6c207972    ry l    DCD    1814067570
        0x0001d218:    7461636f    ocat    DCD    1952539503
        0x0001d21c:    206e6f69    ion     DCD    544108393
        0x0001d220:    25203a20     : %    DCD    622869024
        0x0001d224:    0a73        s.      DCW    2675
        0x0001d226:    00          .       DCB    0
    .L.str.17
        0x0001d227:    43          C       DCB    67
        0x0001d228:    69706d6f    ompi    DCD    1768975727
        0x0001d22c:    2072656c    ler     DCD    544367980
        0x0001d230:    73726576    vers    DCD    1936876918
        0x0001d234:    206e6f69    ion     DCD    544108393
        0x0001d238:    7325203a    : %s    DCD    1931812922
        0x0001d23c:    000a        ..      DCW    10
    .L.str.16
        0x0001d23e:    7449        It      DCW    29769
        0x0001d240:    74617265    erat    DCD    1952543333
        0x0001d244:    736e6f69    ions    DCD    1936617321
        0x0001d248:    20202020            DCD    538976288
        0x0001d24c:    3a202020       :    DCD    975183904
        0x0001d250:    756c2520     %lu    DCD    1970021664
        0x0001d254:    000a        ..      DCW    10
    .L.str.11
        0x0001d256:    6f43        Co      DCW    28483
        0x0001d258:    614d6572    reMa    DCD    1632462194
        0x0001d25c:    53206b72    rk S    DCD    1394633586
        0x0001d260:    20657a69    ize     DCD    543521385
        0x0001d264:    3a202020       :    DCD    975183904
        0x0001d268:    756c2520     %lu    DCD    1970021664
        0x0001d26c:    000a        ..      DCW    10
    .L.str.12
        0x0001d26e:    6f54        To      DCW    28500
        0x0001d270:    206c6174    tal     DCD    543973748
        0x0001d274:    6b636974    tick    DCD    1801677172
        0x0001d278:    20202073    s       DCD    538976371
        0x0001d27c:    3a202020       :    DCD    975183904
        0x0001d280:    6c6c2520     %ll    DCD    1819026720
        0x0001d284:    0a75        u.      DCW    2677
        0x0001d286:    00          .       DCB    0
    .L.str.21
        0x0001d287:    73          s       DCB    115
        0x0001d288:    63646565    eedc    DCD    1667523941
        0x0001d28c:    20206372    rc      DCD    538993522
        0x0001d290:    20202020            DCD    538976288
        0x0001d294:    20202020            DCD    538976288
        0x0001d298:    7830203a    : 0x    DCD    2016419898
        0x0001d29c:    78343025    %04x    DCD    2016686117
        0x0001d2a0:    000a        ..      DCW    10
    .L.str.22
        0x0001d2a2:    255b        [%      DCW    9563
        0x0001d2a4:    72635d64    d]cr    DCD    1919114596
        0x0001d2a8:    73696c63    clis    DCD    1936288867
        0x0001d2ac:    20202074    t       DCD    538976372
        0x0001d2b0:    20202020            DCD    538976288
        0x0001d2b4:    7830203a    : 0x    DCD    2016419898
        0x0001d2b8:    78343025    %04x    DCD    2016686117
        0x0001d2bc:    000a        ..      DCW    10
    .L.str.24
        0x0001d2be:    255b        [%      DCW    9563
        0x0001d2c0:    72635d64    d]cr    DCD    1919114596
        0x0001d2c4:    61747363    csta    DCD    1635021667
        0x0001d2c8:    20206574    te      DCD    538994036
        0x0001d2cc:    20202020            DCD    538976288
        0x0001d2d0:    7830203a    : 0x    DCD    2016419898
        0x0001d2d4:    78343025    %04x    DCD    2016686117
        0x0001d2d8:    000a        ..      DCW    10
    .L.str.25
        0x0001d2da:    255b        [%      DCW    9563
        0x0001d2dc:    72635d64    d]cr    DCD    1919114596
        0x0001d2e0:    6e696663    cfin    DCD    1852401251
        0x0001d2e4:    20206c61    al      DCD    538995809
        0x0001d2e8:    20202020            DCD    538976288
        0x0001d2ec:    7830203a    : 0x    DCD    2016419898
        0x0001d2f0:    78343025    %04x    DCD    2016686117
        0x0001d2f4:    000a        ..      DCW    10
    .L.str.23
        0x0001d2f6:    255b        [%      DCW    9563
        0x0001d2f8:    72635d64    d]cr    DCD    1919114596
        0x0001d2fc:    74616d63    cmat    DCD    1952542051
        0x0001d300:    20786972    rix     DCD    544762226
        0x0001d304:    20202020            DCD    538976288
        0x0001d308:    7830203a    : 0x    DCD    2016419898
        0x0001d30c:    78343025    %04x    DCD    2016686117
        0x0001d310:    000a        ..      DCW    10
    .L.str.10
        0x0001d312:    255b        [%      DCW    9563
        0x0001d314:    52455d75    u]ER    DCD    1380277621
        0x0001d318:    21524f52    ROR!    DCD    559042386
        0x0001d31c:    61747320     sta    DCD    1635021600
        0x0001d320:    63206574    te c    DCD    1663067508
        0x0001d324:    30206372    rc 0    DCD    807428978
        0x0001d328:    34302578    x%04    DCD    875570552
        0x0001d32c:    202d2078    x -     DCD    539828344
        0x0001d330:    756f6873    shou    DCD    1970235507
        0x0001d334:    6220646c    ld b    DCD    1646290028
        0x0001d338:    78302065    e 0x    DCD    2016419941
        0x0001d33c:    78343025    %04x    DCD    2016686117
        0x0001d340:    000a        ..      DCW    10
    .L.str.8
        0x0001d342:    255b        [%      DCW    9563
        0x0001d344:    52455d75    u]ER    DCD    1380277621
        0x0001d348:    21524f52    ROR!    DCD    559042386
        0x0001d34c:    73696c20     lis    DCD    1936288800
        0x0001d350:    72632074    t cr    DCD    1919098996
        0x0001d354:    78302063    c 0x    DCD    2016419939
        0x0001d358:    78343025    %04x    DCD    2016686117
        0x0001d35c:    73202d20     - s    DCD    1931488544
        0x0001d360:    6c756f68    houl    DCD    1819635560
        0x0001d364:    65622064    d be    DCD    1700929636
        0x0001d368:    25783020     0x%    DCD    628633632
        0x0001d36c:    0a783430    04x.    DCD    175649840
        0x0001d370:    00          .       DCB    0
    .L.str.9
        0x0001d371:    5b2575      [%u     DCB    91,37,117
        0x0001d374:    5252455d    ]ERR    DCD    1381123421
        0x0001d378:    2021524f    OR!     DCD    539054671
        0x0001d37c:    7274616d    matr    DCD    1920229741
        0x0001d380:    63207869    ix c    DCD    1663072361
        0x0001d384:    30206372    rc 0    DCD    807428978
        0x0001d388:    34302578    x%04    DCD    875570552
        0x0001d38c:    202d2078    x -     DCD    539828344
        0x0001d390:    756f6873    shou    DCD    1970235507
        0x0001d394:    6220646c    ld b    DCD    1646290028
        0x0001d398:    78302065    e 0x    DCD    2016419941
        0x0001d39c:    78343025    %04x    DCD    2016686117
        0x0001d3a0:    000a        ..      DCW    10
    .L.str.18
        0x0001d3a2:    4347        GC      DCW    17223
        0x0001d3a4:    6c432043    C Cl    DCD    1816338499
        0x0001d3a8:    20676e61    ang     DCD    543649377
        0x0001d3ac:    302e3331    13.0    DCD    808334129
        0x0001d3b0:    2820302e    .0 (    DCD    673198126
        0x0001d3b4:    3a687373    ssh:    DCD    979923827
        0x0001d3b8:    73642f2f    //ds    DCD    1935945519
        0x0001d3bc:    7265672d    -ger    DCD    1919248173
        0x0001d3c0:    2f746972    rit/    DCD    796158322
        0x0001d3c4:    636d7261    armc    DCD    1668117089
        0x0001d3c8:    69706d6f    ompi    DCD    1768975727
        0x0001d3cc:    2f72656c    ler/    DCD    796026220
        0x0001d3d0:    6d766c6c    llvm    DCD    1836477548
        0x0001d3d4:    6f72702d    -pro    DCD    1869770797
        0x0001d3d8:    7463656a    ject    DCD    1952671082
        0x0001d3dc:    35663120     1f5    DCD    895889696
        0x0001d3e0:    64303737    770d    DCD    1680881463
        0x0001d3e4:    32376636    6f72    DCD    842491446
        0x0001d3e8:    65346565    ee4e    DCD    1697932645
        0x0001d3ec:    31326162    ba21    DCD    825385314
        0x0001d3f0:    39303935    5909    DCD    959461685
        0x0001d3f4:    66626232    2bbf    DCD    1717723698
        0x0001d3f8:    62626334    4cbb    DCD    1650615092
        0x0001d3fc:    62393138    819b    DCD    1647915320
        0x0001d400:    33323365    e323    DCD    858927973
        0x0001d404:    2961        a)      DCW    10593
        0x0001d406:    00          .       DCB    0
    .L.str.28
        0x0001d407:    66          f       DCB    102
        0x0001d408:    7367616c    lags    DCD    1936154988
        0x0001d40c:    6f2d203a    : -o    DCD    1865228346
        0x0001d410:    0033        3.      DCW    51
    .L.str.20
        0x0001d412:    5453        ST      DCW    21587
        0x0001d414:    004b4341    ACK.    DCD    4932417
    .L.str.29
        0x0001d418:    25202f20     / %    DCD    622866208
        0x0001d41c:    0073        s.      DCW    115
    .L.str.27
        0x0001d41e:    6f43        Co      DCW    28483
        0x0001d420:    614d6572    reMa    DCD    1632462194
        0x0001d424:    31206b72    rk 1    DCD    824208242
        0x0001d428:    3a20302e    .0 :    DCD    975188014
        0x0001d42c:    20662520     %f     DCD    543565088
        0x0001d430:    7325202f    / %s    DCD    1931812911
        0x0001d434:    00732520     %s.    DCD    7546144
    .L.str.2
        0x0001d438:    6f727245    Erro    DCD    1869771333
        0x0001d43c:    69772072    r wi    DCD    1769414770
        0x0001d440:    61206874    th a    DCD    1629513844
        0x0001d444:    61685f6d    m_ha    DCD    1634230125
        0x0001d448:    77705f6c    l_pw    DCD    2003853164
        0x0001d44c:    72746372    rctr    DCD    1920230258
        0x0001d450:    636d5f6c    l_mc    DCD    1668112236
        0x0001d454:    6f6d5f75    u_mo    DCD    1869438837
        0x0001d458:    735f6564    de_s    DCD    1935631716
        0x0001d45c:    63656c65    elec    DCD    1667591269
        0x0001d460:    2c292874    t(),    DCD    740894836
        0x0001d464:    74657220     ret    DCD    1952805408
        0x0001d468:    656e7275    urne    DCD    1701737077
        0x0001d46c:    64252064    d %d    DCD    1680154724
        0x0001d470:    33000a2e    ...3    DCD    855640622
        0x0001d474:    34352e35    5.54    DCD    875900469
        0x0001d478:    00303034    400.    DCD    3158068
        0x0001d47c:    362e302b    +0.6    DCD    908996651
        0x0001d480:    30303434    4400    DCD    808465460
        0x0001d484:    32312e00    ..12    DCD    842083840
        0x0001d488:    30353433    3450    DCD    808793139
        0x0001d48c:    312d0030    0.-1    DCD    825032752
        0x0001d490:    372e3031    10.7    DCD    925773873
        0x0001d494:    2d003030    00.-    DCD    754987056
        0x0001d498:    3332312e    .123    DCD    858927406
        0x0001d49c:    00322d65    e-2.    DCD    3288421
        0x0001d4a0:    362e302b    +0.6    DCD    908996651
        0x0001d4a4:    32312d65    e-12    DCD    842083685
        0x0001d4a8:    31303500    .501    DCD    825242880
        0x0001d4ac:    312b0032    2.+1    DCD    824901682
        0x0001d4b0:    2d003232    22.-    DCD    754987570
        0x0001d4b4:    2b653738    87e+    DCD    728053560
        0x0001d4b8:    00323338    832.    DCD    3289912
        0x0001d4bc:    30352e35    5.50    DCD    808791605
        0x0001d4c0:    332b6530    0e+3    DCD    858481968
        0x0001d4c4:    33323100    .123    DCD    858927360
        0x0001d4c8:    382d0034    4.-8    DCD    942473268
        0x0001d4cc:    54003437    74.T    DCD    1409299511
        0x0001d4d0:    65332e30    0.3e    DCD    1697852976
        0x0001d4d4:    0046312d    -1F.    DCD    4600109
        0x0001d4d8:    302e3433    34.0    DCD    808334387
        0x0001d4dc:    5e542d65    e-T^    DCD    1582574949
        0x0001d4e0:    2e542d00    .-T.    DCD    777268480
        0x0001d4e4:    542b2b54    T++T    DCD    1412115284
        0x0001d4e8:    54310071    q.1T    DCD    1412497521
        0x0001d4ec:    65342e33    3.4e    DCD    1697918515
        0x0001d4f0:    00007a34    4z..    DCD    31284
    __tagsym$$used.1
    ui32DSP0Allowed
        0x0001d4f4:    00000001    ....    DCD    1
        0x0001d4f8:    00000000    ....    DCD    0
        0x0001d4fc:    00010000    ....    DCD    65536
        0x0001d500:    00000000    ....    DCD    0
        0x0001d504:    00000000    ....    DCD    0
    __tagsym$$used.2
    ui32DSP1Allowed
        0x0001d508:    00000000    ....    DCD    0
        0x0001d50c:    00000000    ....    DCD    0
        0x0001d510:    00020000    ....    DCD    131072
        0x0001d514:    00000000    ....    DCD    0
        0x0001d518:    00000000    ....    DCD    0
    __tagsym$$used.0
    ui32MCUAllowed
        0x0001d51c:    00000021    !...    DCD    33
        0x0001d520:    00000000    ....    DCD    0
        0x0001d524:    00000000    ....    DCD    0
        0x0001d528:    00000000    ....    DCD    0
        0x0001d52c:    00000000    ....    DCD    0
    __tagsym$$used.3
    ui32SharedAccess
        0x0001d530:    00000001    ....    DCD    1
        0x0001d534:    00000000    ....    DCD    0
        0x0001d538:    00000000    ....    DCD    0
        0x0001d53c:    00000000    ....    DCD    0
        0x0001d540:    00000000    ....    DCD    0
    Region$$Table$$Base
        0x0001d544:    0001d580    ....    DCD    120192
        0x0001d548:    10000000    ....    DCD    268435456
        0x0001d54c:    000001f8    ....    DCD    504
        0x0001d550:    00018270    p...    DCD    98928
        0x0001d554:    0001d6a0    ....    DCD    120480
        0x0001d558:    1001f000    ....    DCD    268562432
        0x0001d55c:    00000040    @...    DCD    64
        0x0001d560:    000182cc    ....    DCD    99020
        0x0001d564:    0001d6a0    ....    DCD    120480
        0x0001d568:    100001f8    ....    DCD    268435960
        0x0001d56c:    00001418    ....    DCD    5144
        0x0001d570:    000182e8    ....    DCD    99048
    Region$$Table$$Limit

** Section #2 'MCU_TCM' (SHT_PROGBITS) [SHF_ALLOC + SHF_WRITE]
    Size   : 288 bytes (alignment 16)
    Address: 0x10000000

    Data section was compressed (Original size: 504 bytes)

    0x10000000:   5a 00 00 00 04 00 00 00 1e 00 00 00 04 00 00 00    Z...............
    0x10000010:   5b 00 00 00 04 00 00 00 01 00 00 00 04 00 00 00    [...............
    0x10000020:   04 04 00 00 01 00 00 00 44 f2 04 01 c4 f2 01 01    ........D.......
    0x10000030:   c3 22 4a 60 05 22 cb 6c 43 f0 10 03 cb 64 0a 65    ."J`.".lC....d.e
    0x10000040:   01 23 cb 60 00 22 0a 61 4a 61 8a 61 00 f0 0f 00    .#.`.".aJa.a....
    0x10000050:   0b 68 43 f0 08 03 0b 60 0a 68 22 f0 08 02 0a 60    .hC....`.h"....`
    0x10000060:   09 22 0b 6d 62 f3 95 23 0b 65 06 22 0b 6d 62 f3    .".mb..#.e.".mb.
    0x10000070:   04 03 0b 65 0a 68 42 f0 08 02 0a 60 0b 68 23 f0    ...e.hB....`.h#.
    0x10000080:   08 03 0b 60 ca 6e 0b 68 23 f0 08 03 12 09 0b 60    ...`.n.h#......`
    0x10000090:   40 ea 02 10 c8 60 05 20 0a 6d 60 f3 04 02 0a 65    @....`. .m`....e
    0x100000a0:   08 68 40 f0 08 00 08 60 0a 68 22 f0 08 02 0a 60    .h@....`.h"....`
    0x100000b0:   00 22 08 6d 6f f3 95 20 08 65 ca 60 05 20 0a 6d    .".mo.. .e.`. .m
    0x100000c0:   60 f3 04 02 0a 65 08 68 40 f0 08 00 08 60 0a 68    `....e.h@....`.h
    0x100000d0:   22 f0 08 02 0a 60 00 22 c8 6c 20 f0 10 00 c8 64    "....`.".l ....d
    0x100000e0:   4a 60 70 47 44 f2 04 01 c4 f2 01 01 c3 20 48 60    J`pGD........ H`
    0x100000f0:   05 20 ca 6c 42 f0 10 02 ca 64 08 65 01 22 ca 60    . .lB....d.e.".`
    0x10000100:   00 20 08 61 48 61 88 61 0a 68 42 f0 08 02 0a 60    . .aHa.a.hB....`
    0x10000110:   08 68 20 f0 08 00 08 60 09 20 0a 6d 60 f3 95 22    .h ....`. .m`.."
    0x10000120:   0a 65 06 20 0a 6d 60 f3 04 02 0a 65 08 68 40 f0    .e. .m`....e.h@.
    0x10000130:   08 00 08 60 45 f6 a0 00 0a 68 22 f0 08 02 0a 60    ...`E....h"....`
    0x10000140:   c0 f2 10 00 ca 6e 02 f0 0f 02 02 43 ca 60 05 20    .....n.....C.`. 
    0x10000150:   0a 6d 60 f3 04 02 0a 65 08 68 40 f0 08 00 08 60    .m`....e.h@....`
    0x10000160:   0a 68 22 f0 08 02 0a 60 00 22 08 6d 6f f3 95 20    .h"....`.".mo.. 
    0x10000170:   08 65 ca 60 05 20 0a 6d 60 f3 04 02 0a 65 08 68    .e.`. .m`....e.h
    0x10000180:   40 f0 08 00 08 60 0a 68 22 f0 08 02 0a 60 00 22    @....`.h"....`."
    0x10000190:   c8 6c 20 f0 10 00 c8 64 4a 60 00 20 70 47 00 00    .l ....dJ`. pG..
    0x100001a0:   ff ff ff ff ff ff ff ff ff ff ff ff ff ff ff ff    ................
    0x100001b0:   ff ff ff ff 29 00 00 10 e5 00 00 10 66 00 00 00    ....).......f...
    0x100001c0:   d0 07 00 00 00 00 00 00 00 00 00 00 00 00 00 00    ................
    0x100001d0:   08 60 bf f3 4f 8f 30 bf bf f3 6f 8f 70 47 00 bf    .`..O.0...o.pG..
    0x100001e0:   00 00 00 00 00 00 00 00 00 00 00 00 00 00 00 00    ................
    0x100001f0:   d1 01 00 10 00 00 00 00                            ........


** Section #3 'MCU_TCM' (SHT_NOBITS) [SHF_ALLOC + SHF_WRITE]
    Size   : 5144 bytes (alignment 8)
    Address: 0x100001f8


** Section #4 'SHARED_SRAM' (SHT_PROGBITS) [SHF_ALLOC + SHF_WRITE]
    Size   : 64 bytes (alignment 4)
    Address: 0x1001f000

    0x1001f000:   44 d0 01 00 00 00 00 00 00 00 00 00 00 00 00 00    D...............
    0x1001f010:   00 00 00 00 00 00 00 00 00 00 00 00 00 00 00 00    ................
    0x1001f020:   00 00 00 00 00 00 00 00 00 00 00 00 00 00 00 00    ................
    0x1001f030:   00 00 00 00 00 00 00 00 00 00 00 00 00 00 00 00    ................


** Section #5 '.debug_abbrev' (SHT_PROGBITS)
    Size   : 3864 bytes


** Section #6 '.debug_frame' (SHT_PROGBITS)
    Size   : 7268 bytes


** Section #7 '.debug_info' (SHT_PROGBITS)
    Size   : 33400 bytes


** Section #8 '.debug_line' (SHT_PROGBITS)
    Size   : 9861 bytes


** Section #9 '.debug_loc' (SHT_PROGBITS)
    Size   : 16021 bytes


** Section #10 '.debug_str' (SHT_PROGBITS)
    Size   : 21820 bytes


** Section #11 '.debug_ranges' (SHT_PROGBITS)
    Size   : 944 bytes


** Section #12 '.symtab' (SHT_SYMTAB)
    Size   : 11072 bytes (alignment 4)
    String table #13 '.strtab'
    Last local symbol no. 349

    Symbol table .symtab (691 symbols, 349 local)

      #  Symbol Name                Value      Bind  Sec  Type  Vis  Size
    ========================================================================

      1  $d                         0x00018000   Lc    1   --   De 
      2  $t                         0x00018200   Lc    1   --   De 
      3  $d                         0x00018230   Lc    1   --   De 
      4  $t                         0x00018234   Lc    1   --   De 
      5  $d                         0x00018268   Lc    1   --   De 
      6  $t                         0x00018270   Lc    1   --   De 
      7  $d                         0x0001833a   Lc    1   --   De 
      8  $t                         0x00018348   Lc    1   --   De 
      9  $d                         0x00018440   Lc    1   --   De 
     10  $t                         0x00018444   Lc    1   --   De 
     11  $d                         0x0001844c   Lc    1   --   De 
     12  $t                         0x00018450   Lc    1   --   De 
     13  $t.0                       0x00018452   Lc    1   --   De 
     14  $d.2                       0x00018a90   Lc    1   --   De 
     15  $t.5                       0x00018aa0   Lc    1   --   De 
     16  $d.6                       0x00018aae   Lc    1   --   De 
     17  $t.7                       0x00018ab4   Lc    1   --   De 
     18  $d.23                      0x00018c64   Lc    1   --   De 
     19  $t.24                      0x00018c68   Lc    1   --   De 
     20  $d.5                       0x000191c4   Lc    1   --   De 
     21  $t.6                       0x000191cc   Lc    1   --   De 
     22  $d.9                       0x000195ae   Lc    1   --   De 
     23  $t.10                      0x000195b2   Lc    1   --   De 
     24  $d.8                       0x00019bc4   Lc    1   --   De 
     25  $t.1                       0x00019bd8   Lc    1   --   De 
     26  $d.12                      0x00019d3c   Lc    1   --   De 
     27  $t.13                      0x00019d40   Lc    1   --   De 
     28  $d.8                       0x0001a068   Lc    1   --   De 
     29  $t.1                       0x0001a090   Lc    1   --   De 
     30  $d.4                       0x0001a1f6   Lc    1   --   De 
     31  $t.5                       0x0001a1fe   Lc    1   --   De 
     32  $d.5                       0x0001ae00   Lc    1   --   De 
     33  $t.5                       0x0001ae40   Lc    1   --   De 
     34  $d.2                       0x0001b06a   Lc    1   --   De 
     35  $t.3                       0x0001b072   Lc    1   --   De 
     36  $d.1                       0x0001b300   Lc    1   --   De 
     37  $t.2                       0x0001b314   Lc    1   --   De 
     38  $d.3                       0x0001b788   Lc    1   --   De 
     39  $t.4                       0x0001b790   Lc    1   --   De 
     40  $d.5                       0x0001bad0   Lc    1   --   De 
     41  $t.6                       0x0001bb74   Lc    1   --   De 
     42  $d.10                      0x0001c0e0   Lc    1   --   De 
     43  $t.5                       0x0001c108   Lc    1   --   De 
     44  $d.6                       0x0001c278   Lc    1   --   De 
     45  $t.6                       0x0001c2d0   Lc    1   --   De 
     46  $d.4                       0x0001c3e8   Lc    1   --   De 
     47  $t.0                       0x0001c3f8   Lc    1   --   De 
     48  $d.1                       0x0001c426   Lc    1   --   De 
     49  $t.2                       0x0001c436   Lc    1   --   De 
     50  $t                         0x0001c60c   Lc    1   --   De 
     51  $d                         0x0001c65c   Lc    1   --   De 
     52  $t                         0x0001c660   Lc    1   --   De 
     53  $d                         0x0001c888   Lc    1   --   De 
     54  $t                         0x0001c88c   Lc    1   --   De 
     55  $d                         0x0001c8b4   Lc    1   --   De 
     56  $t                         0x0001c93c   Lc    1   --   De 
     57  $d                         0x0001c9a4   Lc    1   --   De 
     58  $t                         0x0001c9a8   Lc    1   --   De 
     59  $d                         0x0001ca04   Lc    1   --   De 
     60  $t                         0x0001ca08   Lc    1   --   De 
     61  $d                         0x0001ca9c   Lc    1   --   De 
     62  $t                         0x0001caa0   Lc    1   --   De 
     63  $d                         0x0001cb14   Lc    1   --   De 
     64  $t                         0x0001cb18   Lc    1   --   De 
     65  $d                         0x0001cb94   Lc    1   --   De 
     66  $t                         0x0001cb98   Lc    1   --   De 
     67  $d                         0x0001cc08   Lc    1   --   De 
     68  $t                         0x0001cc0c   Lc    1   --   De 
     69  $d                         0x0001cce2   Lc    1   --   De 
     70  $t                         0x0001cce6   Lc    1   --   De 
     71  $d.realdata                0x0001cd26   Lc    1   --   De 
     72  $d.realdata                0x10000000   Lc    2   --   De 
     73  $d.realdata                0x1001f000   Lc    4   --   De 
     74  am_resources.c             0x00000000   Lc  Abs  File  De 
     75  __tagsym$$used.0           0x0001d51c   Lc    1   --   De 
     76  __tagsym$$used.1           0x0001d4f4   Lc    1   --   De 
     77  __tagsym$$used.2           0x0001d508   Lc    1   --   De 
     78  __tagsym$$used.3           0x0001d530   Lc    1   --   De 
     79  __tagsym$$used.4           0x1001f004   Lc    4   --   De 
     80  __tagsym$$used.5           0x1001f018   Lc    4   --   De 
     81  __tagsym$$used.6           0x1001f02c   Lc    4   --   De 
     82  __tagsym$$used.7           0x0001d044   Lc    1   --   De 
     83  __tagsym$$used.8           0x1001f000   Lc    4   --   De 
     84  am_time.c                  0x00000000   Lc  Abs  File  De 
     85  coremark.c                 0x00000000   Lc  Abs  File  De 
     86  core_list_join.c           0x00000000   Lc  Abs  File  De 
     87  core_main.c                0x00000000   Lc  Abs  File  De 
     88  .L.str.15                  0x0001d07a   Lc    1  Data  De   0x3e
     89  .L.str.33                  0x0001d0b8   Lc    1  Data  De   0xe
     90  .L.str.6                   0x0001d0c6   Lc    1  Data  De   0x2d
     91  .L.str.5                   0x0001d0f3   Lc    1  Data  De   0x31
     92  .L.str.32                  0x0001d124   Lc    1  Data  De   0x63
     93  .L.str.26                  0x0001d187   Lc    1  Data  De   0x4a
     94  .L.str.31                  0x0001d1d1   Lc    1  Data  De   0x11
     95  .L.str.14                  0x0001d1e2   Lc    1  Data  De   0x17
     96  .L.str.13                  0x0001d1f9   Lc    1  Data  De   0x17
     97  .L.str.19                  0x0001d210   Lc    1  Data  De   0x17
     98  .L.str.17                  0x0001d227   Lc    1  Data  De   0x17
     99  .L.str.16                  0x0001d23e   Lc    1  Data  De   0x18
    100  .L.str.11                  0x0001d256   Lc    1  Data  De   0x18
    101  .L.str.12                  0x0001d26e   Lc    1  Data  De   0x19
    102  .L.str.21                  0x0001d287   Lc    1  Data  De   0x1b
    103  .L.str.22                  0x0001d2a2   Lc    1  Data  De   0x1c
    104  .L.str.24                  0x0001d2be   Lc    1  Data  De   0x1c
    105  .L.str.25                  0x0001d2da   Lc    1  Data  De   0x1c
    106  .L.str.23                  0x0001d2f6   Lc    1  Data  De   0x1c
    107  .L.str.10                  0x0001d312   Lc    1  Data  De   0x30
    108  .L.str.8                   0x0001d342   Lc    1  Data  De   0x2f
    109  .L.str.9                   0x0001d371   Lc    1  Data  De   0x31
    110  .L.str.18                  0x0001d3a2   Lc    1  Data  De   0x65
    111  .L.str.28                  0x0001d407   Lc    1  Data  De   0xb
    112  .L.str.20                  0x0001d412   Lc    1  Data  De   0x6
    113  .L.str.29                  0x0001d418   Lc    1  Data  De   0x6
    114  .L.str.27                  0x0001d41e   Lc    1  Data  De   0x1a
    115  list_known_crc             0x0001d030   Lc    1  Data  De   0xa
    116  matrix_known_crc           0x0001d03a   Lc    1  Data  De   0xa
    117  state_known_crc            0x0001d070   Lc    1  Data  De   0xa
    118  core_matrix.c              0x00000000   Lc  Abs  File  De 
    119  core_portme.c              0x00000000   Lc  Abs  File  De 
    120  start_time_val             0x100009f8   Lc    3  Data  De   0x8
    121  stop_time_val              0x10000a00   Lc    3  Data  De   0x8
    122  .L.str.2                   0x0001d438   Lc    1  Data  De   0x3b
    123  .L__const.apollo4_cache_memory_config.McuMemCfg
                                    0x0001cd26   Lc    1  Data  De   0x6
    124  core_state.c               0x00000000   Lc  Abs  File  De 
    125  intpat                     0x0001d020   Lc    1  Data  De   0x10
    126  floatpat                   0x0001cf70   Lc    1  Data  De   0x10
    127  scipat                     0x0001d060   Lc    1  Data  De   0x10
    128  errpat                     0x0001cf60   Lc    1  Data  De   0x10
    129  core_util.c                0x00000000   Lc  Abs  File  De 
    130  am_devices_led.c           0x00000000   Lc  Abs  File  De 
    131  am_util_delay.c            0x00000000   Lc  Abs  File  De 
    132  am_util_stdio.c            0x00000000   Lc  Abs  File  De 
    133  decstr_to_int              0x0001b1d5   Lc    1  Code  De   0x58
    134  uint64_to_str              0x0001c561   Lc    1  Code  De   0x54
    135  divu64_10                  0x0001b22d   Lc    1  Code  De   0xbe
    136  g_bTxtXlate                0x10000884   Lc    3  Data  De   0x1
    137  g_prfbuf                   0x1000088c   Lc    3  Data  De   0x100
    138  ../keil6/startup_keil6.s   0x00000000   Lc  Abs  File  De 
    139  STACK                      0x10000a10   Lc    3  Sect  De   0xc00
    140  StackMem                   0x10000a10   Lc    3  Data  De 
    141  HEAP                       0x10000a10   Lc    3  Sect  De 
    142  HeapMem                    0x10000a10   Lc    3  Data  De 
    143  RESET                      0x00018000   Lc    1  Sect  De   0x234
    144  $v0                        0x00018200   Lc    1   --   De 
    145  am_cryptosec_isr           0x0001822f   Lc    1  Code  De 
    146  am_default_isr             0x0001822f   Lc    1  Code  De   0x2
    147  .text                      0x00018330   Lc    1  Sect  De   0x18
    148  $v0                        0x00018330   Lc    1   --   De 
    149  am_bsp.c                   0x00000000   Lc  Abs  File  De 
    150  g_ePrintInterface          0x10000887   Lc    3  Data  De   0x1
    151  g_sCOMUART                 0x1000098c   Lc    3  Data  De   0x4
    152  g_sBspUartConfig           0x0001d014   Lc    1  Data  De   0xc
    153  am_hal_interrupt.c         0x00000000   Lc  Abs  File  De 
    154  am_hal_sysctrl.c           0x00000000   Lc  Abs  File  De 
    155  am_hal_systick.c           0x00000000   Lc  Abs  File  De 
    156  am_hal_utils.c             0x00000000   Lc  Abs  File  De 
    157  am_hal_gpio.c              0x00000000   Lc  Abs  File  De 
    158  g_ui32DSpintbl             0x00018a90   Lc    1   --   De 
    159  am_hal_pwrctrl.c           0x00000000   Lc  Abs  File  De 
    160  VDDF_simobuck_boost        0x0001849b   Lc    1  Code  De   0xd4
    161  buck_interval_check        0x0001a81d   Lc    1  Code  De   0x136
    162  TrimVersionGet             0x00018463   Lc    1  Code  De   0x38
    163  storeAndWFIRAM             0x100001d0   Lc    2  Data  De   0x20
    164  am_bsp_pins.c              0x00000000   Lc  Abs  File  De 
    165  am_hal_bootrom_helper.c    0x00000000   Lc  Abs  File  De 
    166  am_hal_cachectrl.c         0x00000000   Lc  Abs  File  De 
    167  gAxiMemRange               0x0001cf80   Lc    1  Data  De   0x60
    168  ui32AxiBufPwrStatReg       0x10000a0c   Lc    3  Data  De   0x4
    169  ui32AxiBufPwrStatMask      0x10000a08   Lc    3  Data  De   0x4
    170  p64BAxiMem                 0x100009e8   Lc    3  Data  De   0x4
    171  am_hal_itm.c               0x00000000   Lc  Abs  File  De 
    172  am_hal_mram.c              0x00000000   Lc  Abs  File  De 
    173  g_program_mram_tmc_tcycrd  0x10000028   Lc    2  Data  De   0xbc
    174  g_recover_broken_mram_tmc_r_timer1
                                    0x100000e4   Lc    2  Data  De   0xbc
    175  am_hal_rtc.c               0x00000000   Lc  Abs  File  De 
    176  am_hal_tpiu.c              0x00000000   Lc  Abs  File  De 
    177  am_hal_uart.c              0x00000000   Lc  Abs  File  De 
    178  nonblocking_write          0x0001bec3   Lc    1  Code  De   0x38
    179  nonblocking_read           0x0001bd97   Lc    1  Code  De   0x38
    180  nonblocking_read_sm        0x0001bdd1   Lc    1  Code  De   0xf2
    181  nonblocking_write_sm       0x0001befd   Lc    1  Code  De   0x108
    182  am_hal_dcu.c               0x00000000   Lc  Abs  File  De 
    183  am_hal_pin.c               0x00000000   Lc  Abs  File  De 
    184  am_hal_timer.c             0x00000000   Lc  Abs  File  De 
    185  TimerFlags                 0x10000258   Lc    3  Data  De   0x40
    186  am_hal_mspi.c              0x00000000   Lc  Abs  File  De 
    187  am_hal_global.c            0x00000000   Lc  Abs  File  De 
    188  am_hal_queue.c             0x00000000   Lc  Abs  File  De 
    189  am_hal_cmdq.c              0x00000000   Lc  Abs  File  De 
    190  dc.s                       0x00000000   Lc  Abs  File  De 
    191  ../clib/memcpset.s         0x00000000   Lc  Abs  File  De 
    192  ../clib/memcpset.s         0x00000000   Lc  Abs  File  De 
    193  .text                      0x00018348   Lc    1  Sect  De   0x44
    194  ../clib/memcpset.s         0x00000000   Lc  Abs  File  De 
    195  .text                      0x0001838c   Lc    1  Sect  De   0x4e
    196  ../clib/heapaux.c          0x00000000   Lc  Abs  File  De 
    197  .text                      0x000183da   Lc    1  Sect  De 
    198  ../clib/angel/startup.s    0x00000000   Lc  Abs  File  De 
    199  !!!main                    0x00018234   Lc    1  Sect  De   0x8
    200  ../clib/angel/handlers.s   0x00000000   Lc  Abs  File  De 
    201  !!handler_copy             0x000182cc   Lc    1  Sect  De   0x1a
    202  ../fplib/d2f.s             0x00000000   Lc  Abs  File  De 
    203  x$fpl$d2f                  0x0001c60c   Lc    1  Sect  De   0x62
    204  $v0                        0x0001c60c   Lc    1   --   De 
    205  ../fplib/dcmp.s            0x00000000   Lc  Abs  File  De 
    206  x$fpl$fcmp                 0x0001cc22   Lc    1  Sect  De   0x54
    207  $v0                        0x0001cc22   Lc    1   --   De 
    208  ../fplib/ddiv.s            0x00000000   Lc  Abs  File  De 
    209  x$fpl$ddiv                 0x0001c688   Lc    1  Sect  De   0x2b4
    210  $v0                        0x0001c688   Lc    1   --   De 
    211  ddiv_entry                 0x0001c68f   Lc    1  Code  De 
    212  ../fplib/dfixu.s           0x00000000   Lc  Abs  File  De 
    213  x$fpl$dfixu                0x0001c9b4   Lc    1  Sect  De   0x5a
    214  $v0                        0x0001c9b4   Lc    1   --   De 
    215  ../fplib/dflt.s            0x00000000   Lc  Abs  File  De 
    216  x$fpl$dfltu                0x0001ca0e   Lc    1  Sect  De   0x26
    217  $v0                        0x0001ca0e   Lc    1   --   De 
    218  ../fplib/f2d.s             0x00000000   Lc  Abs  File  De 
    219  x$fpl$f2d                  0x0001cbcc   Lc    1  Sect  De   0x56
    220  $v0                        0x0001cbcc   Lc    1   --   De 
    221  ../clib/angel/kernel.s     0x00000000   Lc  Abs  File  De 
    222  .ARM.Collect$$rtentry$$00000000
                                    0x00018310   Lc    1  Sect  De 
    223  ../clib/memcpset.s         0x00000000   Lc  Abs  File  De 
    224  ../fplib/deqf.s            0x00000000   Lc  Abs  File  De 
    225  x$fpl$deqf                 0x0001c93c   Lc    1  Sect  De   0x78
    226  $v0                        0x0001c93c   Lc    1   --   De 
    227  ../fplib/dgeqf.s           0x00000000   Lc  Abs  File  De 
    228  x$fpl$dgeqf                0x0001ca34   Lc    1  Sect  De   0x78
    229  $v0                        0x0001ca34   Lc    1   --   De 
    230  ../fplib/dleqf.s           0x00000000   Lc  Abs  File  De 
    231  x$fpl$dleqf                0x0001caac   Lc    1  Sect  De   0x78
    232  $v0                        0x0001caac   Lc    1   --   De 
    233  ../fplib/dnaninf.s         0x00000000   Lc  Abs  File  De 
    234  x$fpl$dnaninf              0x0001cb24   Lc    1  Sect  De   0x9c
    235  $v0                        0x0001cb24   Lc    1   --   De 
    236  ../fplib/dretinf.s         0x00000000   Lc  Abs  File  De 
    237  x$fpl$dretinf              0x0001cbc0   Lc    1  Sect  De   0xc
    238  $v0                        0x0001cbc0   Lc    1   --   De 
    239  ../fplib/fnaninf.s         0x00000000   Lc  Abs  File  De 
    240  x$fpl$fnaninf              0x0001cc76   Lc    1  Sect  De   0x8c
    241  $v0                        0x0001cc76   Lc    1   --   De 
    242  ../fplib/fretinf.s         0x00000000   Lc  Abs  File  De 
    243  x$fpl$fretinf              0x0001cd1c   Lc    1  Sect  De   0xa
    244  $v0                        0x0001cd1c   Lc    1   --   De 
    245  ../fplib/usenofp.s         0x00000000   Lc  Abs  File  De 
    246  x$fpl$usenofp              0x0001cd26   Lc    1  Sect  De 
    247  ../clib/angel/kernel.s     0x00000000   Lc  Abs  File  De 
    248  .ARM.Collect$$rtentry$$00000002
                                    0x00018310   Lc    1  Sect  De 
    249  .ARM.Collect$$rtentry$$00000009
                                    0x00018316   Lc    1  Sect  De 
    250  .ARM.Collect$$rtentry$$0000000A
                                    0x00018316   Lc    1  Sect  De   0x4
    251  .ARM.Collect$$rtentry$$0000000C
                                    0x0001831a   Lc    1  Sect  De 
    252  .ARM.Collect$$rtentry$$0000000D
                                    0x0001831a   Lc    1  Sect  De   0x8
    253  ../clib/angel/kernel.s     0x00000000   Lc  Abs  File  De 
    254  .ARM.Collect$$rtentry$$00000004
                                    0x00018310   Lc    1  Sect  De   0x6
    255  ../fplib/dcmpi.s           0x00000000   Lc  Abs  File  De 
    256  x$fpl$dcmpinf              0x0001c66e   Lc    1  Sect  De   0x18
    257  $v0                        0x0001c66e   Lc    1   --   De 
    258  ../clib/angel/sys.s        0x00000000   Lc  Abs  File  De 
    259  .text                      0x000183e0   Lc    1  Sect  De   0x4a
    260  ../clib/stdlib.c           0x00000000   Lc  Abs  File  De 
    261  .text                      0x0001842a   Lc    1  Sect  De 
    262  ../clib/angel/boardlib.s   0x00000000   Lc  Abs  File  De 
    263  ../clib/angel/boardlib.s   0x00000000   Lc  Abs  File  De 
    264  ../clib/angel/boardlib.s   0x00000000   Lc  Abs  File  De 
    265  ../clib/libinit.s          0x00000000   Lc  Abs  File  De 
    266  .ARM.Collect$$libinit$$00000000
                                    0x00018304   Lc    1  Sect  De   0x2
    267  ../clib/angel/sys.s        0x00000000   Lc  Abs  File  De 
    268  .text                      0x0001843c   Lc    1  Sect  De   0x8
    269  .bss                       0x100001f8   Lc    3  Sect  De   0x60
    270  ../clib/angel/kernel.s     0x00000000   Lc  Abs  File  De 
    271  .ARM.Collect$$rtexit$$00000000
                                    0x00018322   Lc    1  Sect  De   0x2
    272  ../clib/libinit.s          0x00000000   Lc  Abs  File  De 
    273  .ARM.Collect$$libinit$$00000001
                                    0x00018306   Lc    1  Sect  De   0x4
    274  .ARM.Collect$$libinit$$00000004
                                    0x0001830a   Lc    1  Sect  De 
    275  .ARM.Collect$$libinit$$0000000A
                                    0x0001830a   Lc    1  Sect  De 
    276  .ARM.Collect$$libinit$$0000000C
                                    0x0001830a   Lc    1  Sect  De 
    277  .ARM.Collect$$libinit$$0000000E
                                    0x0001830a   Lc    1  Sect  De 
    278  .ARM.Collect$$libinit$$00000011
                                    0x0001830a   Lc    1  Sect  De 
    279  .ARM.Collect$$libinit$$00000013
                                    0x0001830a   Lc    1  Sect  De 
    280  .ARM.Collect$$libinit$$00000015
                                    0x0001830a   Lc    1  Sect  De 
    281  .ARM.Collect$$libinit$$00000017
                                    0x0001830a   Lc    1  Sect  De 
    282  .ARM.Collect$$libinit$$00000019
                                    0x0001830a   Lc    1  Sect  De 
    283  .ARM.Collect$$libinit$$0000001B
                                    0x0001830a   Lc    1  Sect  De 
    284  .ARM.Collect$$libinit$$0000001D
                                    0x0001830a   Lc    1  Sect  De 
    285  .ARM.Collect$$libinit$$0000001F
                                    0x0001830a   Lc    1  Sect  De 
    286  .ARM.Collect$$libinit$$00000021
                                    0x0001830a   Lc    1  Sect  De 
    287  .ARM.Collect$$libinit$$00000023
                                    0x0001830a   Lc    1  Sect  De 
    288  .ARM.Collect$$libinit$$00000025
                                    0x0001830a   Lc    1  Sect  De 
    289  .ARM.Collect$$libinit$$0000002C
                                    0x0001830a   Lc    1  Sect  De 
    290  .ARM.Collect$$libinit$$0000002E
                                    0x0001830a   Lc    1  Sect  De 
    291  .ARM.Collect$$libinit$$00000030
                                    0x0001830a   Lc    1  Sect  De 
    292  .ARM.Collect$$libinit$$00000032
                                    0x0001830a   Lc    1  Sect  De 
    293  .ARM.Collect$$libinit$$00000033
                                    0x0001830a   Lc    1  Sect  De   0x2
    294  ../clib/angel/kernel.s     0x00000000   Lc  Abs  File  De 
    295  .ARM.Collect$$rtexit$$00000002
                                    0x00018324   Lc    1  Sect  De 
    296  .ARM.Collect$$rtexit$$00000003
                                    0x00018324   Lc    1  Sect  De   0x4
    297  .ARM.Collect$$rtexit$$00000004
                                    0x00018328   Lc    1  Sect  De   0x6
    298  ../clib/armsys.c           0x00000000   Lc  Abs  File  De 
    299  ../clib/armsys.c           0x00000000   Lc  Abs  File  De 
    300  ../fplib/fpinit.s          0x00000000   Lc  Abs  File  De 
    301  x$fpl$fpinit               0x0001cd02   Lc    1  Sect  De   0x1a
    302  $v0                        0x0001cd02   Lc    1   --   De 
    303  ../clib/angel/sysapp.c     0x00000000   Lc  Abs  File  De 
    304  .text                      0x00018444   Lc    1  Sect  De 
    305  ../clib/angel/sysapp.c     0x00000000   Lc  Abs  File  De 
    306  ../clib/angel/boardlib.s   0x00000000   Lc  Abs  File  De 
    307  ../clib/armsys.c           0x00000000   Lc  Abs  File  De 
    308  ../clib/armsys.c           0x00000000   Lc  Abs  File  De 
    309  ../clib/libinit.s          0x00000000   Lc  Abs  File  De 
    310  .ARM.Collect$$libshutdown$$00000000
                                    0x0001830c   Lc    1  Sect  De   0x2
    311  ../clib/angel/sysapp.c     0x00000000   Lc  Abs  File  De 
    312  ../clib/angel/sysapp.c     0x00000000   Lc  Abs  File  De 
    313  ../clib/angel/sys.s        0x00000000   Lc  Abs  File  De 
    314  .text                      0x00018450   Lc    1  Sect  De   0x2
    315  ../clib/angel/sys.s        0x00000000   Lc  Abs  File  De 
    316  .text                      0x00018452   Lc    1  Sect  De 
    317  ../clib/heapalloc.c        0x00000000   Lc  Abs  File  De 
    318  ../clib/signal.c           0x00000000   Lc  Abs  File  De 
    319  ../clib/signal.c           0x00000000   Lc  Abs  File  De 
    320  ../clib/libinit.s          0x00000000   Lc  Abs  File  De 
    321  .ARM.Collect$$libshutdown$$00000002
                                    0x0001830e   Lc    1  Sect  De 
    322  .ARM.Collect$$libshutdown$$00000004
                                    0x0001830e   Lc    1  Sect  De 
    323  .ARM.Collect$$libshutdown$$00000007
                                    0x0001830e   Lc    1  Sect  De 
    324  .ARM.Collect$$libshutdown$$0000000A
                                    0x0001830e   Lc    1  Sect  De 
    325  .ARM.Collect$$libshutdown$$0000000C
                                    0x0001830e   Lc    1  Sect  De 
    326  .ARM.Collect$$libshutdown$$0000000F
                                    0x0001830e   Lc    1  Sect  De 
    327  .ARM.Collect$$libshutdown$$00000010
                                    0x0001830e   Lc    1  Sect  De   0x2
    328  ../clib/angel/rt.s         0x00000000   Lc  Abs  File  De 
    329  ../clib/signal.c           0x00000000   Lc  Abs  File  De 
    330  ../clib/signal.c           0x00000000   Lc  Abs  File  De 
    331  ../clib/signal.c           0x00000000   Lc  Abs  File  De 
    332  ../clib/signal.c           0x00000000   Lc  Abs  File  De 
    333  ../clib/angel/sysapp.c     0x00000000   Lc  Abs  File  De 
    334  ../clib/angel/sysapp.c     0x00000000   Lc  Abs  File  De 
    335  ../clib/signal.s           0x00000000   Lc  Abs  File  De 
    336  ../clib/signal.c           0x00000000   Lc  Abs  File  De 
    337  ../clib/signal.c           0x00000000   Lc  Abs  File  De 
    338  ../clib/signal.c           0x00000000   Lc  Abs  File  De 
    339  ../clib/signal.c           0x00000000   Lc  Abs  File  De 
    340  ../clib/signal.c           0x00000000   Lc  Abs  File  De 
    341  ../clib/signal.c           0x00000000   Lc  Abs  File  De 
    342  ../clib/signal.c           0x00000000   Lc  Abs  File  De 
    343  ../clib/signal.c           0x00000000   Lc  Abs  File  De 
    344  ../clib/angel/dczerorl2.s  0x00000000   Lc  Abs  File  De 
    345  !!dczerorl2                0x00018270   Lc    1  Sect  De   0x5a
    346  ../clib/angel/scatter.s    0x00000000   Lc  Abs  File  De 
    347  !!!scatter                 0x0001823c   Lc    1  Sect  De   0x34
    348  ../clib/angel/handlers.s   0x00000000   Lc  Abs  File  De 
    349  !!handler_zi               0x000182e8   Lc    1  Sect  De   0x1c
    350  BuildAttributes$$THM_ISAv4$E$P$D$K$B$S$7EM$VFPi3$EXTD16$VFPS$VFMA$PE$A:L22UL41UL21$X:L11$S22US41US21$IEEE1$IW$~IW$USESV6$~STKCKD$USESV7$~SHL$OSPACE$ROPI$EBA8$UX$STANDARDLIB$REQ8$PRES8$EABIv2
                                    0x00000000   Gb  Abs   --   Hi 
    351  __Vectors                  0x00018000   Gb    1  Data  Hi 
    352  __Patchable                0x00018190   Gb    1  Data  Hi 
    353  Reset_Handler              0x00018201   Wk    1  Code  Hi   0x1c
    354  HardFault_Handler          0x0001821d   Wk    1  Code  Hi   0x2
    355  NMI_Handler                0x0001821f   Wk    1  Code  Hi   0x2
    356  MemManage_Handler          0x00018221   Wk    1  Code  Hi   0x2
    357  BusFault_Handler           0x00018223   Wk    1  Code  Hi   0x2
    358  UsageFault_Handler         0x00018225   Wk    1  Code  Hi   0x2
    359  SVC_Handler                0x00018227   Wk    1  Code  Hi   0x2
    360  DebugMon_Handler           0x00018229   Wk    1  Code  Hi   0x2
    361  PendSV_Handler             0x0001822b   Wk    1  Code  Hi   0x2
    362  am_adc_isr                 0x0001822f   Wk    1  Code  Hi 
    363  am_audadc0_isr             0x0001822f   Wk    1  Code  Hi 
    364  am_brownout_isr            0x0001822f   Wk    1  Code  Hi 
    365  am_cachecpu_isr            0x0001822f   Wk    1  Code  Hi 
    366  am_clkgen_isr              0x0001822f   Wk    1  Code  Hi 
    367  am_ctimer_isr              0x0001822f   Wk    1  Code  Hi 
    368  am_disp_isr                0x0001822f   Wk    1  Code  Hi 
    369  am_dsi_isr                 0x0001822f   Wk    1  Code  Hi 
    370  am_dspi2s0_isr             0x0001822f   Wk    1  Code  Hi 
    371  am_dspi2s1_isr             0x0001822f   Wk    1  Code  Hi 
    372  am_dspi2s2_isr             0x0001822f   Wk    1  Code  Hi 
    373  am_dspi2s3_isr             0x0001822f   Wk    1  Code  Hi 
    374  am_gpio0_001f_isr          0x0001822f   Wk    1  Code  Hi 
    375  am_gpio0_203f_isr          0x0001822f   Wk    1  Code  Hi 
    376  am_gpio0_405f_isr          0x0001822f   Wk    1  Code  Hi 
    377  am_gpio0_607f_isr          0x0001822f   Wk    1  Code  Hi 
    378  am_gpio1_001f_isr          0x0001822f   Wk    1  Code  Hi 
    379  am_gpio1_203f_isr          0x0001822f   Wk    1  Code  Hi 
    380  am_gpio1_405f_isr          0x0001822f   Wk    1  Code  Hi 
    381  am_gpio1_607f_isr          0x0001822f   Wk    1  Code  Hi 
    382  am_gpu_isr                 0x0001822f   Wk    1  Code  Hi 
    383  am_iomaster0_isr           0x0001822f   Wk    1  Code  Hi 
    384  am_iomaster1_isr           0x0001822f   Wk    1  Code  Hi 
    385  am_iomaster2_isr           0x0001822f   Wk    1  Code  Hi 
    386  am_iomaster3_isr           0x0001822f   Wk    1  Code  Hi 
    387  am_iomaster4_isr           0x0001822f   Wk    1  Code  Hi 
    388  am_iomaster5_isr           0x0001822f   Wk    1  Code  Hi 
    389  am_iomaster6_isr           0x0001822f   Wk    1  Code  Hi 
    390  am_iomaster7_isr           0x0001822f   Wk    1  Code  Hi 
    391  am_ioslave_acc_isr         0x0001822f   Wk    1  Code  Hi 
    392  am_ioslave_ios_isr         0x0001822f   Wk    1  Code  Hi 
    393  am_mspi0_isr               0x0001822f   Wk    1  Code  Hi 
    394  am_mspi1_isr               0x0001822f   Wk    1  Code  Hi 
    395  am_mspi2_isr               0x0001822f   Wk    1  Code  Hi 
    396  am_pdm0_isr                0x0001822f   Wk    1  Code  Hi 
    397  am_pdm1_isr                0x0001822f   Wk    1  Code  Hi 
    398  am_pdm2_isr                0x0001822f   Wk    1  Code  Hi 
    399  am_pdm3_isr                0x0001822f   Wk    1  Code  Hi 
    400  am_rtc_isr                 0x0001822f   Wk    1  Code  Hi 
    401  am_sdio_isr                0x0001822f   Wk    1  Code  Hi 
    402  am_stimer_cmpr0_isr        0x0001822f   Wk    1  Code  Hi 
    403  am_stimer_cmpr1_isr        0x0001822f   Wk    1  Code  Hi 
    404  am_stimer_cmpr2_isr        0x0001822f   Wk    1  Code  Hi 
    405  am_stimer_cmpr3_isr        0x0001822f   Wk    1  Code  Hi 
    406  am_stimer_cmpr4_isr        0x0001822f   Wk    1  Code  Hi 
    407  am_stimer_cmpr5_isr        0x0001822f   Wk    1  Code  Hi 
    408  am_stimer_cmpr6_isr        0x0001822f   Wk    1  Code  Hi 
    409  am_stimer_cmpr7_isr        0x0001822f   Wk    1  Code  Hi 
    410  am_stimerof_isr            0x0001822f   Wk    1  Code  Hi 
    411  am_timer00_isr             0x0001822f   Wk    1  Code  Hi 
    412  am_timer01_isr             0x0001822f   Wk    1  Code  Hi 
    413  am_timer02_isr             0x0001822f   Wk    1  Code  Hi 
    414  am_timer03_isr             0x0001822f   Wk    1  Code  Hi 
    415  am_timer04_isr             0x0001822f   Wk    1  Code  Hi 
    416  am_timer05_isr             0x0001822f   Wk    1  Code  Hi 
    417  am_timer06_isr             0x0001822f   Wk    1  Code  Hi 
    418  am_timer07_isr             0x0001822f   Wk    1  Code  Hi 
    419  am_timer08_isr             0x0001822f   Wk    1  Code  Hi 
    420  am_timer09_isr             0x0001822f   Wk    1  Code  Hi 
    421  am_timer10_isr             0x0001822f   Wk    1  Code  Hi 
    422  am_timer11_isr             0x0001822f   Wk    1  Code  Hi 
    423  am_timer12_isr             0x0001822f   Wk    1  Code  Hi 
    424  am_timer13_isr             0x0001822f   Wk    1  Code  Hi 
    425  am_timer14_isr             0x0001822f   Wk    1  Code  Hi 
    426  am_timer15_isr             0x0001822f   Wk    1  Code  Hi 
    427  am_uart1_isr               0x0001822f   Wk    1  Code  Hi 
    428  am_uart2_isr               0x0001822f   Wk    1  Code  Hi 
    429  am_uart3_isr               0x0001822f   Wk    1  Code  Hi 
    430  am_uart_isr                0x0001822f   Wk    1  Code  Hi 
    431  am_usb_isr                 0x0001822f   Wk    1  Code  Hi 
    432  am_vcomp_isr               0x0001822f   Wk    1  Code  Hi 
    433  am_watchdog_isr            0x0001822f   Wk    1  Code  Hi 
    434  __main                     0x00018235   Gb    1  Code  Hi   0x8
    435  __scatterload              0x0001823d   Gb    1  Code  Hi 
    436  __scatterload_rt2          0x0001823d   Gb    1  Code  Hi   0x2c
    437  __scatterload_rt2_thumb_only
                                    0x0001823d   Gb    1  Code  Hi 
    438  __scatterload_null         0x0001824b   Gb    1  Code  Hi 
    439  __decompress               0x00018271   Gb    1  Code  Hi   0x5a
    440  __decompress1              0x00018271   Gb    1  Code  Hi 
    441  __scatterload_copy         0x000182cd   Gb    1  Code  Hi   0x1a
    442  __scatterload_zeroinit     0x000182e9   Gb    1  Code  Hi   0x1c
    443  __rt_lib_init              0x00018305   Gb    1  Code  De 
    444  __rt_lib_init_fp_1         0x00018307   Gb    1  Code  Hi 
    445  __rt_lib_init_alloca_1     0x0001830b   Gb    1  Code  Hi 
    446  __rt_lib_init_argv_1       0x0001830b   Gb    1  Code  Hi 
    447  __rt_lib_init_atexit_1     0x0001830b   Gb    1  Code  Hi 
    448  __rt_lib_init_clock_1      0x0001830b   Gb    1  Code  Hi 
    449  __rt_lib_init_cpp_1        0x0001830b   Gb    1  Code  Hi 
    450  __rt_lib_init_exceptions_1 0x0001830b   Gb    1  Code  Hi 
    451  __rt_lib_init_fp_trap_1    0x0001830b   Gb    1  Code  Hi 
    452  __rt_lib_init_getenv_1     0x0001830b   Gb    1  Code  Hi 
    453  __rt_lib_init_heap_1       0x0001830b   Gb    1  Code  Hi 
    454  __rt_lib_init_lc_collate_1 0x0001830b   Gb    1  Code  Hi 
    455  __rt_lib_init_lc_ctype_1   0x0001830b   Gb    1  Code  Hi 
    456  __rt_lib_init_lc_monetary_1
                                    0x0001830b   Gb    1  Code  Hi 
    457  __rt_lib_init_lc_numeric_1 0x0001830b   Gb    1  Code  Hi 
    458  __rt_lib_init_lc_time_1    0x0001830b   Gb    1  Code  Hi 
    459  __rt_lib_init_preinit_1    0x0001830b   Gb    1  Code  Hi 
    460  __rt_lib_init_rand_1       0x0001830b   Gb    1  Code  Hi 
    461  __rt_lib_init_return       0x0001830b   Gb    1  Code  Hi 
    462  __rt_lib_init_signal_1     0x0001830b   Gb    1  Code  Hi 
    463  __rt_lib_init_stdio_1      0x0001830b   Gb    1  Code  Hi 
    464  __rt_lib_init_user_alloc_1 0x0001830b   Gb    1  Code  Hi 
    465  __rt_lib_shutdown          0x0001830d   Gb    1  Code  De 
    466  __rt_lib_shutdown_cpp_1    0x0001830f   Gb    1  Code  Hi 
    467  __rt_lib_shutdown_fp_trap_1
                                    0x0001830f   Gb    1  Code  Hi 
    468  __rt_lib_shutdown_heap_1   0x0001830f   Gb    1  Code  Hi 
    469  __rt_lib_shutdown_return   0x0001830f   Gb    1  Code  Hi 
    470  __rt_lib_shutdown_signal_1 0x0001830f   Gb    1  Code  Hi 
    471  __rt_lib_shutdown_stdio_1  0x0001830f   Gb    1  Code  Hi 
    472  __rt_lib_shutdown_user_alloc_1
                                    0x0001830f   Gb    1  Code  Hi 
    473  __rt_entry                 0x00018311   Gb    1  Code  Hi 
    474  __rt_entry_presh_1         0x00018311   Gb    1  Code  Hi 
    475  __rt_entry_sh              0x00018311   Gb    1  Code  Hi 
    476  __rt_entry_li              0x00018317   Gb    1  Code  Hi 
    477  __rt_entry_postsh_1        0x00018317   Gb    1  Code  Hi 
    478  __rt_entry_main            0x0001831b   Gb    1  Code  Hi 
    479  __rt_entry_postli_1        0x0001831b   Gb    1  Code  Hi 
    480  __rt_exit                  0x00018323   Gb    1  Code  De 
    481  __rt_exit_ls               0x00018325   Gb    1  Code  Hi 
    482  __rt_exit_prels_1          0x00018325   Gb    1  Code  Hi 
    483  __rt_exit_exit             0x00018329   Gb    1  Code  Hi 
    484  __user_initial_stackheap   0x00018331   Gb    1  Code  Hi   0xa
    485  __aeabi_memclr             0x00018349   Gb    1  Code  De 
    486  __rt_memclr                0x00018349   Gb    1  Code  De 
    487  _memset                    0x0001834d   Gb    1  Code  De   0x40
    488  __aeabi_memclr4            0x0001838d   Gb    1  Code  De 
    489  __aeabi_memclr8            0x0001838d   Gb    1  Code  De 
    490  __rt_memclr_w              0x0001838d   Gb    1  Code  De 
    491  _memset_w                  0x00018391   Gb    1  Code  De   0x4a
    492  __use_two_region_memory    0x000183db   Gb    1  Code  Hi   0x2
    493  __rt_heap_escrow$2region   0x000183dd   Gb    1  Code  De   0x2
    494  __rt_heap_expand$2region   0x000183df   Gb    1  Code  De   0x2
    495  __user_setup_stackheap     0x000183e1   Gb    1  Code  De   0x4a
    496  exit                       0x0001842b   Gb    1  Code  De   0x12
    497  __user_libspace            0x0001843d   Wk    1  Code  De   0x8
    498  __user_perproc_libspace    0x0001843d   Wk    1  Code  De 
    499  __user_perthread_libspace  0x0001843d   Wk    1  Code  De 
    500  _sys_exit                  0x00018445   Gb    1  Code  De   0x8
    501  __I$use$semihosting        0x00018451   Gb    1  Code  Hi 
    502  __use_no_semihosting_swi   0x00018451   Gb    1  Code  Hi   0x2
    503  SysTick_Handler            0x00018453   Gb    1  Code  Hi   0x10
    504  __semihosting_library_function
                                    0x00018453   Gb    1  Code  Hi 
    505  am_bsp_low_power_init      0x0001856f   Gb    1  Code  Hi   0x16
    506  am_bsp_uart_printf_disable 0x00018585   Gb    1  Code  Hi   0x56
    507  am_bsp_uart_printf_enable  0x000185db   Gb    1  Code  Hi   0x76
    508  am_bsp_uart_string_print   0x00018651   Gb    1  Code  Hi   0x4a
    509  am_devices_led_array_init  0x0001869d   Gb    1  Code  Hi   0x26
    510  am_devices_led_array_out   0x000186c5   Gb    1  Code  Hi   0x36
    511  am_devices_led_init        0x000186fb   Gb    1  Code  Hi   0x52
    512  am_devices_led_off         0x0001874d   Gb    1  Code  Hi   0x34
    513  am_devices_led_on          0x00018781   Gb    1  Code  Hi   0x32
    514  am_hal_daxi_config         0x000187b3   Gb    1  Code  Hi   0x54
    515  am_hal_daxi_control        0x00018809   Gb    1  Code  Hi   0x14c
    516  am_hal_delay_us            0x00018955   Gb    1  Code  Hi   0x36
    517  am_hal_delay_us_status_change
                                    0x0001898d   Gb    1  Code  Hi   0x54
    518  am_hal_delay_us_status_check
                                    0x000189e1   Gb    1  Code  Hi   0x62
    519  am_hal_gpio_pinconfig      0x00018a45   Gb    1  Code  Hi   0x4c
    520  am_hal_gpio_state_write    0x00018aa1   Gb    1  Code  Hi   0xe8
    521  am_hal_interrupt_master_disable
                                    0x00018b89   Gb    1  Code  Hi   0x8
    522  am_hal_interrupt_master_enable
                                    0x00018b91   Gb    1  Code  Hi   0x8
    523  am_hal_interrupt_master_set
                                    0x00018b99   Gb    1  Code  Hi   0x6
    524  am_hal_load_ui32           0x00018b9f   Gb    1  Code  Hi   0xc
    525  am_hal_mram_ds_init        0x00018bab   Gb    1  Code  Hi   0x12
    526  am_hal_mram_info_read      0x00018bbd   Gb    1  Code  Hi   0x94
    527  am_hal_pwrctrl_control     0x00018c51   Gb    1  Code  Hi   0x38c
    528  am_hal_pwrctrl_low_power_init
                                    0x00018fdd   Gb    1  Code  Hi   0x120
    529  am_hal_pwrctrl_mcu_memory_config
                                    0x000190fd   Gb    1  Code  Hi   0xfa
    530  am_hal_pwrctrl_mcu_mode_select
                                    0x000191f9   Gb    1  Code  Hi   0x186
    531  am_hal_pwrctrl_periph_disable
                                    0x0001937f   Gb    1  Code  Hi   0x116
    532  am_hal_pwrctrl_periph_enable
                                    0x00019495   Gb    1  Code  Hi   0x9c
    533  am_hal_pwrctrl_sram_config 0x00019531   Gb    1  Code  Hi   0xa8
    534  am_hal_queue_item_add      0x000195d9   Gb    1  Code  Hi   0x66
    535  am_hal_queue_item_get      0x00019641   Gb    1  Code  Hi   0x60
    536  am_hal_rtc_osc_disable     0x000196a1   Gb    1  Code  Hi   0x14
    537  am_hal_sysctrl_fpu_enable  0x000196b5   Gb    1  Code  Hi   0x10
    538  am_hal_sysctrl_fpu_stacking_enable
                                    0x000196c5   Gb    1  Code  Hi   0x36
    539  am_hal_systick_count       0x000196fb   Gb    1  Code  Hi   0xc
    540  am_hal_systick_int_enable  0x00019707   Gb    1  Code  Hi   0x12
    541  am_hal_systick_load        0x00019719   Gb    1  Code  Hi   0x10
    542  am_hal_systick_reset       0x00019729   Gb    1  Code  Hi   0xe
    543  am_hal_systick_start       0x00019737   Gb    1  Code  Hi   0x12
    544  am_hal_systick_stop        0x00019749   Gb    1  Code  Hi   0x12
    545  am_hal_timer_clear         0x0001975b   Gb    1  Code  Hi   0x58
    546  am_hal_timer_clear_stop    0x000197b3   Gb    1  Code  Hi   0x54
    547  am_hal_timer_default_config_set
                                    0x00019807   Gb    1  Code  Hi   0x20
    548  am_hal_timer_disable       0x00019827   Gb    1  Code  Hi   0x3c
    549  am_hal_timer_enable        0x00019863   Gb    1  Code  Hi   0x4e
    550  am_hal_timer_enable_sync   0x000198b1   Gb    1  Code  Hi   0x6c
    551  am_hal_timer_interrupt_clear
                                    0x0001991d   Gb    1  Code  Hi   0x10
    552  am_hal_timer_interrupt_enable
                                    0x0001992d   Gb    1  Code  Hi   0x54
    553  am_hal_timer_interrupt_status_get
                                    0x00019981   Gb    1  Code  Hi   0x16
    554  am_hal_timer_read          0x00019997   Gb    1  Code  Hi   0x26
    555  am_hal_timer_reset_config  0x000199bd   Gb    1  Code  Hi   0x72
    556  am_hal_triple_read         0x00019a2f   Gb    1  Code  Hi   0x24
    557  am_hal_uart_configure      0x00019a55   Gb    1  Code  Hi   0x170
    558  am_hal_uart_deinitialize   0x00019bd9   Gb    1  Code  Hi   0x28
    559  am_hal_uart_initialize     0x00019c01   Gb    1  Code  Hi   0x70
    560  am_hal_uart_power_control  0x00019c71   Gb    1  Code  Hi   0xba
    561  am_hal_uart_transfer       0x00019d2d   Gb    1  Code  Hi   0xb4
    562  am_hal_uart_tx_flush       0x00019de1   Gb    1  Code  Hi   0xbc
    563  am_hal_util_write_and_wait 0x00019e9d   Gb    1  Code  Hi   0x146
    564  am_sprintf                 0x00019fe5   Gb    1  Code  Hi   0x84
    565  am_util_delay_ms           0x0001a091   Gb    1  Code  Hi   0xa
    566  am_util_stdio_printf       0x0001a09b   Gb    1  Code  Hi   0x46
    567  am_util_stdio_printf_init  0x0001a0e1   Gb    1  Code  Hi   0xc
    568  am_util_stdio_sprintf      0x0001a0ed   Gb    1  Code  Hi   0x1c
    569  am_util_stdio_vsprintf     0x0001a109   Gb    1  Code  Hi   0x714
    570  buck_ldo_override_init     0x0001a953   Gb    1  Code  Hi   0x62
    571  calc_func                  0x0001a9b5   Gb    1  Code  Hi   0x7e
    572  check_data_types           0x0001aa33   Gb    1  Code  Hi   0x4
    573  cmp_complex                0x0001aa37   Gb    1  Code  Hi   0x1e
    574  cmp_idx                    0x0001aa55   Gb    1  Code  Hi   0x16
    575  core_bench_list            0x0001aa6d   Gb    1  Code  Hi   0x154
    576  core_bench_matrix          0x0001abc1   Gb    1  Code  Hi   0x26
    577  core_bench_state           0x0001abe9   Gb    1  Code  Hi   0xda
    578  core_init_matrix           0x0001acc5   Gb    1  Code  Hi   0xb8
    579  core_init_state            0x0001ad7d   Gb    1  Code  Hi   0x84
    580  core_list_find             0x0001ae41   Gb    1  Code  Hi   0x3a
    581  core_list_init             0x0001ae7d   Gb    1  Code  Hi   0xf6
    582  core_list_mergesort        0x0001af75   Gb    1  Code  Hi   0xce
    583  core_state_transition      0x0001b045   Gb    1  Code  Hi   0x120
    584  crc16                      0x0001b165   Gb    1  Code  Hi   0x6
    585  crcu16                     0x0001b16d   Gb    1  Code  Hi   0x50
    586  crcu32                     0x0001b1bd   Gb    1  Code  Hi   0x16
    587  get_seed_32                0x0001b2ed   Gb    1  Code  Hi   0x14
    588  get_time                   0x0001b315   Gb    1  Code  Hi   0x18
    589  internal_timer_config      0x0001b32d   Gb    1  Code  Hi   0xce
    590  iterate                    0x0001b3fd   Gb    1  Code  Hi   0x40
    591  main                       0x0001b43d   Gb    1  Code  Hi   0x2c
    592  main_loop                  0x0001b469   Gb    1  Code  Hi   0x70c
    593  matrix_mul_matrix          0x0001bb75   Gb    1  Code  Hi   0x62
    594  matrix_mul_matrix_bitextract
                                    0x0001bbd9   Gb    1  Code  Hi   0x6e
    595  matrix_sum                 0x0001bc49   Gb    1  Code  Hi   0x48
    596  matrix_test                0x0001bc91   Gb    1  Code  Hi   0x106
    597  portable_fini              0x0001c005   Gb    1  Code  Hi   0xdc
    598  portable_init              0x0001c109   Gb    1  Code  Hi   0x170
    599  read_transaction_save      0x0001c2d1   Gb    1  Code  Hi   0x54
    600  start_time                 0x0001c325   Gb    1  Code  Hi   0x56
    601  stop_time                  0x0001c37b   Gb    1  Code  Hi   0x3e
    602  time_in_secs               0x0001c3b9   Gb    1  Code  Hi   0x40
    603  timer_config_b1            0x0001c3f9   Gb    1  Code  Hi   0x166
    604  write_transaction_save     0x0001c5b5   Gb    1  Code  Hi   0x58
    605  __aeabi_d2f                0x0001c60d   Gb    1  Code  De 
    606  _d2f                       0x0001c60d   Gb    1  Code  De   0x62
    607  __fpl_dcmp_Inf             0x0001c66f   Gb    1  Code  De   0x18
    608  __aeabi_ddiv               0x0001c689   Gb    1  Code  De 
    609  _ddiv                      0x0001c689   Gb    1  Code  De   0x22c
    610  __aeabi_cdcmpeq            0x0001c93d   Gb    1  Code  De 
    611  _dcmpeq                    0x0001c93d   Gb    1  Code  De   0x78
    612  __aeabi_d2uiz              0x0001c9b5   Gb    1  Code  De 
    613  _dfixu                     0x0001c9b5   Gb    1  Code  De   0x5a
    614  __aeabi_ui2d               0x0001ca0f   Gb    1  Code  De 
    615  _dfltu                     0x0001ca0f   Gb    1  Code  De   0x26
    616  __aeabi_cdcmpge            0x0001ca35   Gb    1  Code  De 
    617  _dcmpge                    0x0001ca35   Gb    1  Code  De   0x78
    618  __aeabi_cdcmple            0x0001caad   Gb    1  Code  De 
    619  _dcmple                    0x0001caad   Gb    1  Code  De   0x78
    620  __fpl_dcmple_InfNaN        0x0001cb0f   Gb    1  Code  Pr 
    621  __fpl_dnaninf              0x0001cb25   Gb    1  Code  De   0x9c
    622  __fpl_dretinf              0x0001cbc1   Gb    1  Code  De   0xc
    623  __aeabi_f2d                0x0001cbcd   Gb    1  Code  De 
    624  _f2d                       0x0001cbcd   Gb    1  Code  De   0x56
    625  __aeabi_dcmpeq             0x0001cc23   Gb    1  Code  De 
    626  _deq                       0x0001cc23   Gb    1  Code  De   0xe
    627  _dneq                      0x0001cc31   Gb    1  Code  De   0xe
    628  __aeabi_dcmpgt             0x0001cc3f   Gb    1  Code  De 
    629  _dgr                       0x0001cc3f   Gb    1  Code  De   0xe
    630  __aeabi_dcmpge             0x0001cc4d   Gb    1  Code  De 
    631  _dgeq                      0x0001cc4d   Gb    1  Code  De   0xe
    632  __aeabi_dcmple             0x0001cc5b   Gb    1  Code  De 
    633  _dleq                      0x0001cc5b   Gb    1  Code  De   0xe
    634  __aeabi_dcmplt             0x0001cc69   Gb    1  Code  De 
    635  _dls                       0x0001cc69   Gb    1  Code  De   0xe
    636  __fpl_fnaninf              0x0001cc77   Gb    1  Code  De   0x8c
    637  _fp_init                   0x0001cd03   Gb    1  Code  De   0x1a
    638  __fplib_config_fpu_vfp     0x0001cd1b   Gb    1  Code  De 
    639  __fplib_config_pureend_doubles
                                    0x0001cd1b   Gb    1  Code  De 
    640  __fpl_fretinf              0x0001cd1d   Gb    1  Code  De   0xa
    641  __I$use$fp                 0x0001cd26   Gb    1   --   De 
    642  am_hal_daxi_defaults       0x0001cd2c   Gb    1  Data  Hi   0x3
    643  am_hal_gpio_pincfg_disabled
                                    0x0001cd30   Gb    1  Data  Hi   0x4
    644  am_hal_gpio_pincfg_opendrain
                                    0x0001cd34   Gb    1  Data  Hi   0x4
    645  am_hal_gpio_pincfg_output  0x0001cd38   Gb    1  Data  Hi   0x4
    646  am_hal_gpio_pincfg_tristate
                                    0x0001cd3c   Gb    1  Data  Hi   0x4
    647  am_hal_pwrctrl_peripheral_control
                                    0x0001cd40   Gb    1  Data  Hi   0x220
    648  g_DefaultMcuMemCfg         0x0001cfe0   Gb    1  Data  Hi   0x6
    649  g_DefaultSRAMCfg           0x0001cfe6   Gb    1  Data  Hi   0x6
    650  g_am_hal_bootrom_helper    0x0001cfec   Gb    1  Data  Hi   0x28
    651  sGlobalAccess              0x0001d044   Gb    1  Data  Hi   0x1c
    652  ui32DSP0Allowed            0x0001d4f4   Gb    1  Data  Hi   0x14
    653  ui32DSP1Allowed            0x0001d508   Gb    1  Data  Hi   0x14
    654  ui32MCUAllowed             0x0001d51c   Gb    1  Data  Hi   0x14
    655  ui32SharedAccess           0x0001d530   Gb    1  Data  Hi   0x14
    656  Region$$Table$$Base        0x0001d544   Gb    1   --   Hi 
    657  Region$$Table$$Limit       0x0001d574   Gb    1   --   Hi 
    658  am_bsp_psLEDs              0x10000000   Gb    2  Data  Hi   0x18
    659  default_num_contexts       0x10000018   Gb    2  Data  Hi   0x4
    660  g_AM_BSP_GPIO_COM_UART_RX  0x1000001c   Gb    2  Data  Hi   0x4
    661  g_AM_BSP_GPIO_COM_UART_TX  0x10000020   Gb    2  Data  Hi   0x4
    662  g_eCurrPwrMode             0x10000024   Gb    2  Data  Hi   0x1
    663  g_ui32TrimVer              0x100001a0   Gb    2  Data  Hi   0x4
    664  g_ui32origMEMLDOActiveTrim 0x100001a4   Gb    2  Data  Hi   0x4
    665  g_ui32origSimobuckVDDCtrim 0x100001a8   Gb    2  Data  Hi   0x4
    666  g_ui32origSimobuckVDDFtrim 0x100001ac   Gb    2  Data  Hi   0x4
    667  g_ui32origSimobuckVDDStrim 0x100001b0   Gb    2  Data  Hi   0x4
    668  program_mram_tmc_tcycrd    0x100001b4   Gb    2  Data  Hi   0x4
    669  recover_broken_mram_tmc_r_timer1
                                    0x100001b8   Gb    2  Data  Hi   0x4
    670  seed3_volatile             0x100001bc   Gb    2  Data  Hi   0x4
    671  seed4_volatile             0x100001c0   Gb    2  Data  Hi   0x4
    672  storeAndWFIfuncRAM         0x100001f0   Gb    2  Data  Hi   0x4
    673  __libspace_start           0x100001f8   Gb    3  Data  De   0x60
    674  __temporary_stack_top$libspace
                                    0x10000258   Gb    3  Data  De 
    675  am_bufcnt                  0x10000298   Gb    3  Data  Hi   0x4
    676  am_pcBuf                   0x1000029c   Gb    3  Data  Hi   0x4
    677  am_prtbuf                  0x100002a0   Gb    3  Data  Hi   0x300
    678  gMspiXipState              0x100005a0   Gb    3  Data  Hi   0x4
    679  g_am_hal_uart_states       0x100005a4   Gb    3  Data  Hi   0x2e0
    680  g_bVDDCbuckboosted         0x10000885   Gb    3  Data  Hi   0x1
    681  g_eAmbClkSpd               0x10000886   Gb    3  Data  Hi   0x1
    682  g_pfnCharPrint             0x10000888   Gb    3  Data  Hi   0x4
    683  g_trim_reg_origvals        0x10000990   Gb    3  Data  Hi   0x54
    684  g_ui32SysTickWrappedTime   0x100009e4   Gb    3  Data  Hi   0x4
    685  seed1_volatile             0x100009ec   Gb    3  Data  Hi   0x4
    686  seed2_volatile             0x100009f0   Gb    3  Data  Hi   0x4
    687  seed5_volatile             0x100009f4   Gb    3  Data  Hi   0x4
    688  psGlobalAccessPtr          0x1001f000   Gb    4  Data  Hi   0x4
    689  ui32MCUClaimed             0x1001f004   Gb    4  Data  Hi   0x14
    690  ui32DSP0Claimed            0x1001f018   Gb    4  Data  Hi   0x14
    691  ui32DSP1Claimed            0x1001f02c   Gb    4  Data  Hi   0x14


** Section #13 '.strtab' (SHT_STRTAB)
    Size   : 10356 bytes

            #  Offset String
        ====================================

            1      1: $d
            2      4: $t
            3      7: $t.0
            4     12: $d.2
            5     17: $t.5
            6     22: $d.6
            7     27: $t.7
            8     32: $d.23
            9     38: $t.24
           10     44: $d.5
           11     49: $t.6
           12     54: $d.9
           13     59: $t.10
           14     65: $d.8
           15     70: $t.1
           16     75: $d.12
           17     81: $t.13
           18     87: $d.4
           19     92: $t.3
           20     97: $d.1
           21    102: $t.2
           22    107: $d.3
           23    112: $t.4
           24    117: $d.10
           25    123: $d.realdata
           26    135: am_resources.c
           27    150: __tagsym$$used.0
           28    167: __tagsym$$used.1
           29    184: __tagsym$$used.2
           30    201: __tagsym$$used.3
           31    218: __tagsym$$used.4
           32    235: __tagsym$$used.5
           33    252: __tagsym$$used.6
           34    269: __tagsym$$used.7
           35    286: __tagsym$$used.8
           36    303: am_time.c
           37    313: coremark.c
           38    324: core_list_join.c
           39    341: core_main.c
           40    353: .L.str.15
           41    363: .L.str.33
           42    373: .L.str.6
           43    382: .L.str.5
           44    391: .L.str.32
           45    401: .L.str.26
           46    411: .L.str.31
           47    421: .L.str.14
           48    431: .L.str.13
           49    441: .L.str.19
           50    451: .L.str.17
           51    461: .L.str.16
           52    471: .L.str.11
           53    481: .L.str.12
           54    491: .L.str.21
           55    501: .L.str.22
           56    511: .L.str.24
           57    521: .L.str.25
           58    531: .L.str.23
           59    541: .L.str.10
           60    551: .L.str.8
           61    560: .L.str.9
           62    569: .L.str.18
           63    579: .L.str.28
           64    589: .L.str.20
           65    599: .L.str.29
           66    609: .L.str.27
           67    619: list_known_crc
           68    634: matrix_known_crc
           69    651: state_known_crc
           70    667: core_matrix.c
           71    681: core_portme.c
           72    695: start_time_val
           73    710: stop_time_val
           74    724: .L.str.2
           75    733: .L__const.apollo4_cache_memory_config.McuMemCfg
           76    781: core_state.c
           77    794: intpat
           78    801: floatpat
           79    810: scipat
           80    817: errpat
           81    824: core_util.c
           82    836: am_devices_led.c
           83    853: am_util_delay.c
           84    869: am_util_stdio.c
           85    885: decstr_to_int
           86    899: uint64_to_str
           87    913: divu64_10
           88    923: g_bTxtXlate
           89    935: g_prfbuf
           90    944: ../keil6/startup_keil6.s
           91    969: STACK
           92    975: StackMem
           93    984: HEAP
           94    989: HeapMem
           95    997: RESET
           96   1003: $v0
           97   1007: am_cryptosec_isr
           98   1024: am_default_isr
           99   1039: .text
          100   1045: am_bsp.c
          101   1054: g_ePrintInterface
          102   1072: g_sCOMUART
          103   1083: g_sBspUartConfig
          104   1100: am_hal_interrupt.c
          105   1119: am_hal_sysctrl.c
          106   1136: am_hal_systick.c
          107   1153: am_hal_utils.c
          108   1168: am_hal_gpio.c
          109   1182: g_ui32DSpintbl
          110   1197: am_hal_pwrctrl.c
          111   1214: VDDF_simobuck_boost
          112   1234: buck_interval_check
          113   1254: TrimVersionGet
          114   1269: storeAndWFIRAM
          115   1284: am_bsp_pins.c
          116   1298: am_hal_bootrom_helper.c
          117   1322: am_hal_cachectrl.c
          118   1341: gAxiMemRange
          119   1354: ui32AxiBufPwrStatReg
          120   1375: ui32AxiBufPwrStatMask
          121   1397: p64BAxiMem
          122   1408: am_hal_itm.c
          123   1421: am_hal_mram.c
          124   1435: g_program_mram_tmc_tcycrd
          125   1461: g_recover_broken_mram_tmc_r_timer1
          126   1496: am_hal_rtc.c
          127   1509: am_hal_tpiu.c
          128   1523: am_hal_uart.c
          129   1537: nonblocking_write
          130   1555: nonblocking_read
          131   1572: nonblocking_read_sm
          132   1592: nonblocking_write_sm
          133   1613: am_hal_dcu.c
          134   1626: am_hal_pin.c
          135   1639: am_hal_timer.c
          136   1654: TimerFlags
          137   1665: am_hal_mspi.c
          138   1679: am_hal_global.c
          139   1695: am_hal_queue.c
          140   1710: am_hal_cmdq.c
          141   1724: dc.s
          142   1729: ../clib/memcpset.s
          143   1748: ../clib/heapaux.c
          144   1766: ../clib/angel/startup.s
          145   1790: !!!main
          146   1798: ../clib/angel/handlers.s
          147   1823: !!handler_copy
          148   1838: ../fplib/d2f.s
          149   1853: x$fpl$d2f
          150   1863: ../fplib/dcmp.s
          151   1879: x$fpl$fcmp
          152   1890: ../fplib/ddiv.s
          153   1906: x$fpl$ddiv
          154   1917: ddiv_entry
          155   1928: ../fplib/dfixu.s
          156   1945: x$fpl$dfixu
          157   1957: ../fplib/dflt.s
          158   1973: x$fpl$dfltu
          159   1985: ../fplib/f2d.s
          160   2000: x$fpl$f2d
          161   2010: ../clib/angel/kernel.s
          162   2033: .ARM.Collect$$rtentry$$00000000
          163   2065: ../fplib/deqf.s
          164   2081: x$fpl$deqf
          165   2092: ../fplib/dgeqf.s
          166   2109: x$fpl$dgeqf
          167   2121: ../fplib/dleqf.s
          168   2138: x$fpl$dleqf
          169   2150: ../fplib/dnaninf.s
          170   2169: x$fpl$dnaninf
          171   2183: ../fplib/dretinf.s
          172   2202: x$fpl$dretinf
          173   2216: ../fplib/fnaninf.s
          174   2235: x$fpl$fnaninf
          175   2249: ../fplib/fretinf.s
          176   2268: x$fpl$fretinf
          177   2282: ../fplib/usenofp.s
          178   2301: x$fpl$usenofp
          179   2315: .ARM.Collect$$rtentry$$00000002
          180   2347: .ARM.Collect$$rtentry$$00000009
          181   2379: .ARM.Collect$$rtentry$$0000000A
          182   2411: .ARM.Collect$$rtentry$$0000000C
          183   2443: .ARM.Collect$$rtentry$$0000000D
          184   2475: .ARM.Collect$$rtentry$$00000004
          185   2507: ../fplib/dcmpi.s
          186   2524: x$fpl$dcmpinf
          187   2538: ../clib/angel/sys.s
          188   2558: ../clib/stdlib.c
          189   2575: ../clib/angel/boardlib.s
          190   2600: ../clib/libinit.s
          191   2618: .ARM.Collect$$libinit$$00000000
          192   2650: .bss
          193   2655: .ARM.Collect$$rtexit$$00000000
          194   2686: .ARM.Collect$$libinit$$00000001
          195   2718: .ARM.Collect$$libinit$$00000004
          196   2750: .ARM.Collect$$libinit$$0000000A
          197   2782: .ARM.Collect$$libinit$$0000000C
          198   2814: .ARM.Collect$$libinit$$0000000E
          199   2846: .ARM.Collect$$libinit$$00000011
          200   2878: .ARM.Collect$$libinit$$00000013
          201   2910: .ARM.Collect$$libinit$$00000015
          202   2942: .ARM.Collect$$libinit$$00000017
          203   2974: .ARM.Collect$$libinit$$00000019
          204   3006: .ARM.Collect$$libinit$$0000001B
          205   3038: .ARM.Collect$$libinit$$0000001D
          206   3070: .ARM.Collect$$libinit$$0000001F
          207   3102: .ARM.Collect$$libinit$$00000021
          208   3134: .ARM.Collect$$libinit$$00000023
          209   3166: .ARM.Collect$$libinit$$00000025
          210   3198: .ARM.Collect$$libinit$$0000002C
          211   3230: .ARM.Collect$$libinit$$0000002E
          212   3262: .ARM.Collect$$libinit$$00000030
          213   3294: .ARM.Collect$$libinit$$00000032
          214   3326: .ARM.Collect$$libinit$$00000033
          215   3358: .ARM.Collect$$rtexit$$00000002
          216   3389: .ARM.Collect$$rtexit$$00000003
          217   3420: .ARM.Collect$$rtexit$$00000004
          218   3451: ../clib/armsys.c
          219   3468: ../fplib/fpinit.s
          220   3486: x$fpl$fpinit
          221   3499: ../clib/angel/sysapp.c
          222   3522: .ARM.Collect$$libshutdown$$00000000
          223   3558: ../clib/heapalloc.c
          224   3578: ../clib/signal.c
          225   3595: .ARM.Collect$$libshutdown$$00000002
          226   3631: .ARM.Collect$$libshutdown$$00000004
          227   3667: .ARM.Collect$$libshutdown$$00000007
          228   3703: .ARM.Collect$$libshutdown$$0000000A
          229   3739: .ARM.Collect$$libshutdown$$0000000C
          230   3775: .ARM.Collect$$libshutdown$$0000000F
          231   3811: .ARM.Collect$$libshutdown$$00000010
          232   3847: ../clib/angel/rt.s
          233   3866: ../clib/signal.s
          234   3883: ../clib/angel/dczerorl2.s
          235   3909: !!dczerorl2
          236   3921: ../clib/angel/scatter.s
          237   3945: !!!scatter
          238   3956: !!handler_zi
          239   3969: BuildAttributes$$THM_ISAv4$E$P$D$K$B$S$7EM$VFPi3$EXTD16$VFPS$VFMA$PE$A:L22UL41UL21$X:L11$S22US41US21$IEEE1$IW$~IW$USESV6$~STKCKD$USESV7$~SHL$OSPACE$ROPI$EBA8$UX$STANDARDLIB$REQ8$PRES8$EABIv2
          240   4160: __Vectors
          241   4170: __Patchable
          242   4182: Reset_Handler
          243   4196: HardFault_Handler
          244   4214: NMI_Handler
          245   4226: MemManage_Handler
          246   4244: BusFault_Handler
          247   4261: UsageFault_Handler
          248   4280: SVC_Handler
          249   4292: DebugMon_Handler
          250   4309: PendSV_Handler
          251   4324: am_adc_isr
          252   4335: am_audadc0_isr
          253   4350: am_brownout_isr
          254   4366: am_cachecpu_isr
          255   4382: am_clkgen_isr
          256   4396: am_ctimer_isr
          257   4410: am_disp_isr
          258   4422: am_dsi_isr
          259   4433: am_dspi2s0_isr
          260   4448: am_dspi2s1_isr
          261   4463: am_dspi2s2_isr
          262   4478: am_dspi2s3_isr
          263   4493: am_gpio0_001f_isr
          264   4511: am_gpio0_203f_isr
          265   4529: am_gpio0_405f_isr
          266   4547: am_gpio0_607f_isr
          267   4565: am_gpio1_001f_isr
          268   4583: am_gpio1_203f_isr
          269   4601: am_gpio1_405f_isr
          270   4619: am_gpio1_607f_isr
          271   4637: am_gpu_isr
          272   4648: am_iomaster0_isr
          273   4665: am_iomaster1_isr
          274   4682: am_iomaster2_isr
          275   4699: am_iomaster3_isr
          276   4716: am_iomaster4_isr
          277   4733: am_iomaster5_isr
          278   4750: am_iomaster6_isr
          279   4767: am_iomaster7_isr
          280   4784: am_ioslave_acc_isr
          281   4803: am_ioslave_ios_isr
          282   4822: am_mspi0_isr
          283   4835: am_mspi1_isr
          284   4848: am_mspi2_isr
          285   4861: am_pdm0_isr
          286   4873: am_pdm1_isr
          287   4885: am_pdm2_isr
          288   4897: am_pdm3_isr
          289   4909: am_rtc_isr
          290   4920: am_sdio_isr
          291   4932: am_stimer_cmpr0_isr
          292   4952: am_stimer_cmpr1_isr
          293   4972: am_stimer_cmpr2_isr
          294   4992: am_stimer_cmpr3_isr
          295   5012: am_stimer_cmpr4_isr
          296   5032: am_stimer_cmpr5_isr
          297   5052: am_stimer_cmpr6_isr
          298   5072: am_stimer_cmpr7_isr
          299   5092: am_stimerof_isr
          300   5108: am_timer00_isr
          301   5123: am_timer01_isr
          302   5138: am_timer02_isr
          303   5153: am_timer03_isr
          304   5168: am_timer04_isr
          305   5183: am_timer05_isr
          306   5198: am_timer06_isr
          307   5213: am_timer07_isr
          308   5228: am_timer08_isr
          309   5243: am_timer09_isr
          310   5258: am_timer10_isr
          311   5273: am_timer11_isr
          312   5288: am_timer12_isr
          313   5303: am_timer13_isr
          314   5318: am_timer14_isr
          315   5333: am_timer15_isr
          316   5348: am_uart1_isr
          317   5361: am_uart2_isr
          318   5374: am_uart3_isr
          319   5387: am_uart_isr
          320   5399: am_usb_isr
          321   5410: am_vcomp_isr
          322   5423: am_watchdog_isr
          323   5439: __main
          324   5446: __scatterload
          325   5460: __scatterload_rt2
          326   5478: __scatterload_rt2_thumb_only
          327   5507: __scatterload_null
          328   5526: __decompress
          329   5539: __decompress1
          330   5553: __scatterload_copy
          331   5572: __scatterload_zeroinit
          332   5595: __rt_lib_init
          333   5609: __rt_lib_init_fp_1
          334   5628: __rt_lib_init_alloca_1
          335   5651: __rt_lib_init_argv_1
          336   5672: __rt_lib_init_atexit_1
          337   5695: __rt_lib_init_clock_1
          338   5717: __rt_lib_init_cpp_1
          339   5737: __rt_lib_init_exceptions_1
          340   5764: __rt_lib_init_fp_trap_1
          341   5788: __rt_lib_init_getenv_1
          342   5811: __rt_lib_init_heap_1
          343   5832: __rt_lib_init_lc_collate_1
          344   5859: __rt_lib_init_lc_ctype_1
          345   5884: __rt_lib_init_lc_monetary_1
          346   5912: __rt_lib_init_lc_numeric_1
          347   5939: __rt_lib_init_lc_time_1
          348   5963: __rt_lib_init_preinit_1
          349   5987: __rt_lib_init_rand_1
          350   6008: __rt_lib_init_return
          351   6029: __rt_lib_init_signal_1
          352   6052: __rt_lib_init_stdio_1
          353   6074: __rt_lib_init_user_alloc_1
          354   6101: __rt_lib_shutdown
          355   6119: __rt_lib_shutdown_cpp_1
          356   6143: __rt_lib_shutdown_fp_trap_1
          357   6171: __rt_lib_shutdown_heap_1
          358   6196: __rt_lib_shutdown_return
          359   6221: __rt_lib_shutdown_signal_1
          360   6248: __rt_lib_shutdown_stdio_1
          361   6274: __rt_lib_shutdown_user_alloc_1
          362   6305: __rt_entry
          363   6316: __rt_entry_presh_1
          364   6335: __rt_entry_sh
          365   6349: __rt_entry_li
          366   6363: __rt_entry_postsh_1
          367   6383: __rt_entry_main
          368   6399: __rt_entry_postli_1
          369   6419: __rt_exit
          370   6429: __rt_exit_ls
          371   6442: __rt_exit_prels_1
          372   6460: __rt_exit_exit
          373   6475: __user_initial_stackheap
          374   6500: __aeabi_memclr
          375   6515: __rt_memclr
          376   6527: _memset
          377   6535: __aeabi_memclr4
          378   6551: __aeabi_memclr8
          379   6567: __rt_memclr_w
          380   6581: _memset_w
          381   6591: __use_two_region_memory
          382   6615: __rt_heap_escrow$2region
          383   6640: __rt_heap_expand$2region
          384   6665: __user_setup_stackheap
          385   6688: exit
          386   6693: __user_libspace
          387   6709: __user_perproc_libspace
          388   6733: __user_perthread_libspace
          389   6759: _sys_exit
          390   6769: __I$use$semihosting
          391   6789: __use_no_semihosting_swi
          392   6814: SysTick_Handler
          393   6830: __semihosting_library_function
          394   6861: am_bsp_low_power_init
          395   6883: am_bsp_uart_printf_disable
          396   6910: am_bsp_uart_printf_enable
          397   6936: am_bsp_uart_string_print
          398   6961: am_devices_led_array_init
          399   6987: am_devices_led_array_out
          400   7012: am_devices_led_init
          401   7032: am_devices_led_off
          402   7051: am_devices_led_on
          403   7069: am_hal_daxi_config
          404   7088: am_hal_daxi_control
          405   7108: am_hal_delay_us
          406   7124: am_hal_delay_us_status_change
          407   7154: am_hal_delay_us_status_check
          408   7183: am_hal_gpio_pinconfig
          409   7205: am_hal_gpio_state_write
          410   7229: am_hal_interrupt_master_disable
          411   7261: am_hal_interrupt_master_enable
          412   7292: am_hal_interrupt_master_set
          413   7320: am_hal_load_ui32
          414   7337: am_hal_mram_ds_init
          415   7357: am_hal_mram_info_read
          416   7379: am_hal_pwrctrl_control
          417   7402: am_hal_pwrctrl_low_power_init
          418   7432: am_hal_pwrctrl_mcu_memory_config
          419   7465: am_hal_pwrctrl_mcu_mode_select
          420   7496: am_hal_pwrctrl_periph_disable
          421   7526: am_hal_pwrctrl_periph_enable
          422   7555: am_hal_pwrctrl_sram_config
          423   7582: am_hal_queue_item_add
          424   7604: am_hal_queue_item_get
          425   7626: am_hal_rtc_osc_disable
          426   7649: am_hal_sysctrl_fpu_enable
          427   7675: am_hal_sysctrl_fpu_stacking_enable
          428   7710: am_hal_systick_count
          429   7731: am_hal_systick_int_enable
          430   7757: am_hal_systick_load
          431   7777: am_hal_systick_reset
          432   7798: am_hal_systick_start
          433   7819: am_hal_systick_stop
          434   7839: am_hal_timer_clear
          435   7858: am_hal_timer_clear_stop
          436   7882: am_hal_timer_default_config_set
          437   7914: am_hal_timer_disable
          438   7935: am_hal_timer_enable
          439   7955: am_hal_timer_enable_sync
          440   7980: am_hal_timer_interrupt_clear
          441   8009: am_hal_timer_interrupt_enable
          442   8039: am_hal_timer_interrupt_status_get
          443   8073: am_hal_timer_read
          444   8091: am_hal_timer_reset_config
          445   8117: am_hal_triple_read
          446   8136: am_hal_uart_configure
          447   8158: am_hal_uart_deinitialize
          448   8183: am_hal_uart_initialize
          449   8206: am_hal_uart_power_control
          450   8232: am_hal_uart_transfer
          451   8253: am_hal_uart_tx_flush
          452   8274: am_hal_util_write_and_wait
          453   8301: am_sprintf
          454   8312: am_util_delay_ms
          455   8329: am_util_stdio_printf
          456   8350: am_util_stdio_printf_init
          457   8376: am_util_stdio_sprintf
          458   8398: am_util_stdio_vsprintf
          459   8421: buck_ldo_override_init
          460   8444: calc_func
          461   8454: check_data_types
          462   8471: cmp_complex
          463   8483: cmp_idx
          464   8491: core_bench_list
          465   8507: core_bench_matrix
          466   8525: core_bench_state
          467   8542: core_init_matrix
          468   8559: core_init_state
          469   8575: core_list_find
          470   8590: core_list_init
          471   8605: core_list_mergesort
          472   8625: core_state_transition
          473   8647: crc16
          474   8653: crcu16
          475   8660: crcu32
          476   8667: get_seed_32
          477   8679: get_time
          478   8688: internal_timer_config
          479   8710: iterate
          480   8718: main
          481   8723: main_loop
          482   8733: matrix_mul_matrix
          483   8751: matrix_mul_matrix_bitextract
          484   8780: matrix_sum
          485   8791: matrix_test
          486   8803: portable_fini
          487   8817: portable_init
          488   8831: read_transaction_save
          489   8853: start_time
          490   8864: stop_time
          491   8874: time_in_secs
          492   8887: timer_config_b1
          493   8903: write_transaction_save
          494   8926: __aeabi_d2f
          495   8938: _d2f
          496   8943: __fpl_dcmp_Inf
          497   8958: __aeabi_ddiv
          498   8971: _ddiv
          499   8977: __aeabi_cdcmpeq
          500   8993: _dcmpeq
          501   9001: __aeabi_d2uiz
          502   9015: _dfixu
          503   9022: __aeabi_ui2d
          504   9035: _dfltu
          505   9042: __aeabi_cdcmpge
          506   9058: _dcmpge
          507   9066: __aeabi_cdcmple
          508   9082: _dcmple
          509   9090: __fpl_dcmple_InfNaN
          510   9110: __fpl_dnaninf
          511   9124: __fpl_dretinf
          512   9138: __aeabi_f2d
          513   9150: _f2d
          514   9155: __aeabi_dcmpeq
          515   9170: _deq
          516   9175: _dneq
          517   9181: __aeabi_dcmpgt
          518   9196: _dgr
          519   9201: __aeabi_dcmpge
          520   9216: _dgeq
          521   9222: __aeabi_dcmple
          522   9237: _dleq
          523   9243: __aeabi_dcmplt
          524   9258: _dls
          525   9263: __fpl_fnaninf
          526   9277: _fp_init
          527   9286: __fplib_config_fpu_vfp
          528   9309: __fplib_config_pureend_doubles
          529   9340: __fpl_fretinf
          530   9354: __I$use$fp
          531   9365: am_hal_daxi_defaults
          532   9386: am_hal_gpio_pincfg_disabled
          533   9414: am_hal_gpio_pincfg_opendrain
          534   9443: am_hal_gpio_pincfg_output
          535   9469: am_hal_gpio_pincfg_tristate
          536   9497: am_hal_pwrctrl_peripheral_control
          537   9531: g_DefaultMcuMemCfg
          538   9550: g_DefaultSRAMCfg
          539   9567: g_am_hal_bootrom_helper
          540   9591: sGlobalAccess
          541   9605: ui32DSP0Allowed
          542   9621: ui32DSP1Allowed
          543   9637: ui32MCUAllowed
          544   9652: ui32SharedAccess
          545   9669: Region$$Table$$Base
          546   9689: Region$$Table$$Limit
          547   9710: am_bsp_psLEDs
          548   9724: default_num_contexts
          549   9745: g_AM_BSP_GPIO_COM_UART_RX
          550   9771: g_AM_BSP_GPIO_COM_UART_TX
          551   9797: g_eCurrPwrMode
          552   9812: g_ui32TrimVer
          553   9826: g_ui32origMEMLDOActiveTrim
          554   9853: g_ui32origSimobuckVDDCtrim
          555   9880: g_ui32origSimobuckVDDFtrim
          556   9907: g_ui32origSimobuckVDDStrim
          557   9934: program_mram_tmc_tcycrd
          558   9958: recover_broken_mram_tmc_r_timer1
          559   9991: seed3_volatile
          560  10006: seed4_volatile
          561  10021: storeAndWFIfuncRAM
          562  10040: __libspace_start
          563  10057: __temporary_stack_top$libspace
          564  10088: am_bufcnt
          565  10098: am_pcBuf
          566  10107: am_prtbuf
          567  10117: gMspiXipState
          568  10131: g_am_hal_uart_states
          569  10152: g_bVDDCbuckboosted
          570  10171: g_eAmbClkSpd
          571  10184: g_pfnCharPrint
          572  10199: g_trim_reg_origvals
          573  10219: g_ui32SysTickWrappedTime
          574  10244: seed1_volatile
          575  10259: seed2_volatile
          576  10274: seed5_volatile
          577  10289: psGlobalAccessPtr
          578  10307: ui32MCUClaimed
          579  10322: ui32DSP0Claimed
          580  10338: ui32DSP1Claimed
          581  10354: 
          582  10355: 


** Section #14 '.note' (SHT_NOTE)
    Size   : 32 bytes (alignment 4)


** Section #15 '.comment' (SHT_PROGBITS)
    Size   : 1648 bytes


** Section #16 '.shstrtab' (SHT_STRTAB)
    Size   : 160 bytes

            #  Offset String
        ====================================

            1      1: MCU_MRAM
            2     10: MCU_TCM
            3     18: SHARED_SRAM
            4     30: .debug_abbrev
            5     44: .debug_frame
            6     57: .debug_info
            7     69: .debug_line
            8     81: .debug_loc
            9     92: .debug_str
           10    103: .debug_ranges
           11    117: .symtab
           12    125: .strtab
           13    133: .note
           14    139: .comment
           15    148: .shstrtab
           16    158: 
           17    159: 


