
========================================================================

** ELF Header Information

    File Name: bin\adc_vbatt.axf

    Machine class: ELFCLASS32 (32-bit)
    Data encoding: ELFDATA2LSB (Little endian)
    Header version: EV_CURRENT (Current version)
    Operating System ABI: none
    ABI Version: 0
    File Type: ET_EXEC (Executable) (2)
    Machine: EM_ARM (ARM)

    Image Entry point: 0x00018235
    Flags: EF_ARM_HASENTRY + EF_ARM_ABI_FLOAT_HARD (0x05000402)

    ARM ELF revision: 5 (ABI version 2)

    Conforms to Hard float procedure-call standard

    Built with
    Component: ARM Compiler 6.16 Tool: armasm [5dfea300]
    Component: ARM Compiler 6.16 Tool: armlink [5dfeaa00]

    Header size: 52 bytes (0x34)
    Program header entry size: 32 bytes (0x20)
    Section header entry size: 40 bytes (0x28)

    Program header entries: 1
    Section header entries: 16

    Program header offset: 92200 (0x00016828)
    Section header offset: 92232 (0x00016848)

    Section header string table index: 15

========================================================================

** Program header #0 (PT_LOAD) [PF_X + PF_W + PF_R + PF_ARM_ENTRY]
    Size : 25904 bytes (19672 bytes in file)
    Virtual address: 0x00018000 (Alignment 16)


========================================================================

** Section #1 'MCU_MRAM' (SHT_PROGBITS) [SHF_ALLOC + SHF_EXECINSTR]
    Size   : 19232 bytes (alignment 4)
    Address: 0x00018000

    $d
    RESET
    __Vectors
        0x00018000:    10001980    ....    DCD    268441984
        0x00018004:    00018201    ....    DCD    98817
        0x00018008:    0001821f    ....    DCD    98847
        0x0001800c:    0001843d    =...    DCD    99389
        0x00018010:    00018221    !...    DCD    98849
        0x00018014:    00018223    #...    DCD    98851
        0x00018018:    00018225    %...    DCD    98853
        0x0001801c:    00000000    ....    DCD    0
        0x00018020:    00000000    ....    DCD    0
        0x00018024:    00000000    ....    DCD    0
        0x00018028:    00000000    ....    DCD    0
        0x0001802c:    00018227    '...    DCD    98855
        0x00018030:    00018229    )...    DCD    98857
        0x00018034:    00000000    ....    DCD    0
        0x00018038:    0001822b    +...    DCD    98859
        0x0001803c:    0001822d    -...    DCD    98861
        0x00018040:    0001822f    /...    DCD    98863
        0x00018044:    0001822f    /...    DCD    98863
        0x00018048:    0001822f    /...    DCD    98863
        0x0001804c:    0001822f    /...    DCD    98863
        0x00018050:    0001822f    /...    DCD    98863
        0x00018054:    0001822f    /...    DCD    98863
        0x00018058:    0001822f    /...    DCD    98863
        0x0001805c:    0001822f    /...    DCD    98863
        0x00018060:    0001822f    /...    DCD    98863
        0x00018064:    0001822f    /...    DCD    98863
        0x00018068:    0001822f    /...    DCD    98863
        0x0001806c:    0001822f    /...    DCD    98863
        0x00018070:    0001822f    /...    DCD    98863
        0x00018074:    0001822f    /...    DCD    98863
        0x00018078:    0001822f    /...    DCD    98863
        0x0001807c:    0001822f    /...    DCD    98863
        0x00018080:    0001822f    /...    DCD    98863
        0x00018084:    0001822f    /...    DCD    98863
        0x00018088:    0001822f    /...    DCD    98863
        0x0001808c:    00018775    u...    DCD    100213
        0x00018090:    0001822f    /...    DCD    98863
        0x00018094:    0001822f    /...    DCD    98863
        0x00018098:    0001822f    /...    DCD    98863
        0x0001809c:    0001822f    /...    DCD    98863
        0x000180a0:    0001822f    /...    DCD    98863
        0x000180a4:    0001822f    /...    DCD    98863
        0x000180a8:    0001822f    /...    DCD    98863
        0x000180ac:    0001822f    /...    DCD    98863
        0x000180b0:    0001822f    /...    DCD    98863
        0x000180b4:    0001822f    /...    DCD    98863
        0x000180b8:    0001822f    /...    DCD    98863
        0x000180bc:    0001822f    /...    DCD    98863
        0x000180c0:    0001822f    /...    DCD    98863
        0x000180c4:    0001822f    /...    DCD    98863
        0x000180c8:    0001822f    /...    DCD    98863
        0x000180cc:    0001822f    /...    DCD    98863
        0x000180d0:    0001822f    /...    DCD    98863
        0x000180d4:    0001822f    /...    DCD    98863
        0x000180d8:    0001822f    /...    DCD    98863
        0x000180dc:    0001822f    /...    DCD    98863
        0x000180e0:    0001822f    /...    DCD    98863
        0x000180e4:    0001822f    /...    DCD    98863
        0x000180e8:    0001822f    /...    DCD    98863
        0x000180ec:    0001822f    /...    DCD    98863
        0x000180f0:    0001822f    /...    DCD    98863
        0x000180f4:    0001822f    /...    DCD    98863
        0x000180f8:    0001822f    /...    DCD    98863
        0x000180fc:    0001822f    /...    DCD    98863
        0x00018100:    0001822f    /...    DCD    98863
        0x00018104:    0001822f    /...    DCD    98863
        0x00018108:    0001822f    /...    DCD    98863
        0x0001810c:    0001822f    /...    DCD    98863
        0x00018110:    0001822f    /...    DCD    98863
        0x00018114:    0001822f    /...    DCD    98863
        0x00018118:    0001822f    /...    DCD    98863
        0x0001811c:    0001822f    /...    DCD    98863
        0x00018120:    0001822f    /...    DCD    98863
        0x00018124:    0001822f    /...    DCD    98863
        0x00018128:    0001822f    /...    DCD    98863
        0x0001812c:    0001822f    /...    DCD    98863
        0x00018130:    0001822f    /...    DCD    98863
        0x00018134:    0001822f    /...    DCD    98863
        0x00018138:    0001822f    /...    DCD    98863
        0x0001813c:    0001822f    /...    DCD    98863
        0x00018140:    0001822f    /...    DCD    98863
        0x00018144:    0001822f    /...    DCD    98863
        0x00018148:    0001822f    /...    DCD    98863
        0x0001814c:    0001822f    /...    DCD    98863
        0x00018150:    0001822f    /...    DCD    98863
        0x00018154:    0001822f    /...    DCD    98863
        0x00018158:    0001822f    /...    DCD    98863
        0x0001815c:    0001822f    /...    DCD    98863
        0x00018160:    0001822f    /...    DCD    98863
        0x00018164:    0001822f    /...    DCD    98863
        0x00018168:    0001822f    /...    DCD    98863
        0x0001816c:    0001822f    /...    DCD    98863
        0x00018170:    0001822f    /...    DCD    98863
        0x00018174:    0001822f    /...    DCD    98863
        0x00018178:    0001822f    /...    DCD    98863
        0x0001817c:    0001822f    /...    DCD    98863
        0x00018180:    0001822f    /...    DCD    98863
        0x00018184:    0001822f    /...    DCD    98863
        0x00018188:    0001822f    /...    DCD    98863
        0x0001818c:    0001822f    /...    DCD    98863
    __Patchable
        0x00018190:    00000000    ....    DCD    0
        0x00018194:    00000000    ....    DCD    0
        0x00018198:    00000000    ....    DCD    0
        0x0001819c:    00000000    ....    DCD    0
        0x000181a0:    00000000    ....    DCD    0
        0x000181a4:    00000000    ....    DCD    0
        0x000181a8:    00000000    ....    DCD    0
        0x000181ac:    00000000    ....    DCD    0
        0x000181b0:    00000000    ....    DCD    0
        0x000181b4:    00000000    ....    DCD    0
        0x000181b8:    00000000    ....    DCD    0
        0x000181bc:    00000000    ....    DCD    0
        0x000181c0:    00000000    ....    DCD    0
        0x000181c4:    00000000    ....    DCD    0
        0x000181c8:    00000000    ....    DCD    0
        0x000181cc:    00000000    ....    DCD    0
        0x000181d0:    00000000    ....    DCD    0
        0x000181d4:    00000000    ....    DCD    0
        0x000181d8:    00000000    ....    DCD    0
        0x000181dc:    00000000    ....    DCD    0
        0x000181e0:    00000000    ....    DCD    0
        0x000181e4:    00000000    ....    DCD    0
        0x000181e8:    00000000    ....    DCD    0
        0x000181ec:    00000000    ....    DCD    0
        0x000181f0:    00000000    ....    DCD    0
        0x000181f4:    00000000    ....    DCD    0
        0x000181f8:    00000000    ....    DCD    0
        0x000181fc:    00000000    ....    DCD    0
    $t
    $v0
    Reset_Handler
        0x00018200:    f64e5088    N..P    MOV      r0,#0xed88
        0x00018204:    f2ce0000    ....    MOVT     r0,#0xe000
        0x00018208:    6801        .h      LDR      r1,[r0,#0]
        0x0001820a:    f4410170    A.p.    ORR      r1,r1,#0xf00000
        0x0001820e:    6001        .`      STR      r1,[r0,#0]
        0x00018210:    f3bf8f4f    ..O.    DSB      
        0x00018214:    f3bf8f6f    ..o.    ISB      
        0x00018218:    4805        .H      LDR      r0,[pc,#20] ; [0x18230] = 0x18235
        0x0001821a:    4700        .G      BX       r0
        0x0001821c:    e7fe        ..      B        0x1821c ; Reset_Handler + 28
    NMI_Handler
        0x0001821e:    e7fe        ..      B        NMI_Handler ; 0x1821e
    MemManage_Handler
        0x00018220:    e7fe        ..      B        MemManage_Handler ; 0x18220
    BusFault_Handler
        0x00018222:    e7fe        ..      B        BusFault_Handler ; 0x18222
    UsageFault_Handler
        0x00018224:    e7fe        ..      B        UsageFault_Handler ; 0x18224
    SVC_Handler
        0x00018226:    e7fe        ..      B        SVC_Handler ; 0x18226
    DebugMon_Handler
        0x00018228:    e7fe        ..      B        DebugMon_Handler ; 0x18228
    PendSV_Handler
        0x0001822a:    e7fe        ..      B        PendSV_Handler ; 0x1822a
    SysTick_Handler
        0x0001822c:    e7fe        ..      B        SysTick_Handler ; 0x1822c
    am_cryptosec_isr
    am_default_isr
    am_audadc0_isr
    am_brownout_isr
    am_cachecpu_isr
    am_clkgen_isr
    am_ctimer_isr
    am_disp_isr
    am_dsi_isr
    am_dspi2s0_isr
    am_dspi2s1_isr
    am_dspi2s2_isr
    am_dspi2s3_isr
    am_gpio0_001f_isr
    am_gpio0_203f_isr
    am_gpio0_405f_isr
    am_gpio0_607f_isr
    am_gpio1_001f_isr
    am_gpio1_203f_isr
    am_gpio1_405f_isr
    am_gpio1_607f_isr
    am_gpu_isr
    am_iomaster0_isr
    am_iomaster1_isr
    am_iomaster2_isr
    am_iomaster3_isr
    am_iomaster4_isr
    am_iomaster5_isr
    am_iomaster6_isr
    am_iomaster7_isr
    am_ioslave_acc_isr
    am_ioslave_ios_isr
    am_mspi0_isr
    am_mspi1_isr
    am_mspi2_isr
    am_pdm0_isr
    am_pdm1_isr
    am_pdm2_isr
    am_pdm3_isr
    am_rtc_isr
    am_sdio_isr
    am_stimer_cmpr0_isr
    am_stimer_cmpr1_isr
    am_stimer_cmpr2_isr
    am_stimer_cmpr3_isr
    am_stimer_cmpr4_isr
    am_stimer_cmpr5_isr
    am_stimer_cmpr6_isr
    am_stimer_cmpr7_isr
    am_stimerof_isr
    am_timer00_isr
    am_timer01_isr
    am_timer02_isr
    am_timer03_isr
    am_timer04_isr
    am_timer05_isr
    am_timer06_isr
    am_timer07_isr
    am_timer08_isr
    am_timer09_isr
    am_timer10_isr
    am_timer11_isr
    am_timer12_isr
    am_timer13_isr
    am_timer14_isr
    am_timer15_isr
    am_uart1_isr
    am_uart2_isr
    am_uart3_isr
    am_uart_isr
    am_usb_isr
    am_vcomp_isr
    am_watchdog_isr
        0x0001822e:    e7fe        ..      B        am_cryptosec_isr ; 0x1822e
    $d
        0x00018230:    00018235    5...    DCD    98869
    $t
    !!!main
    __main
        0x00018234:    f000f802    ....    BL       __scatterload ; 0x1823c
        0x00018238:    f000f86a    ..j.    BL       __rt_entry ; 0x18310
    !!!scatter
    __scatterload
    __scatterload_rt2
    __scatterload_rt2_thumb_only
        0x0001823c:    a00a        ..      ADR      r0,{pc}+0x2c ; 0x18268
        0x0001823e:    e8900c00    ....    LDM      r0,{r10,r11}
        0x00018242:    4482        .D      ADD      r10,r10,r0
        0x00018244:    4483        .D      ADD      r11,r11,r0
        0x00018246:    f1aa0701    ....    SUB      r7,r10,#1
    __scatterload_null
        0x0001824a:    45da        .E      CMP      r10,r11
        0x0001824c:    d101        ..      BNE      0x18252 ; __scatterload_null + 8
        0x0001824e:    f000f85f    .._.    BL       __rt_entry ; 0x18310
        0x00018252:    f2af0e09    ....    ADR      lr,{pc}-7 ; 0x1824b
        0x00018256:    e8ba000f    ....    LDM      r10!,{r0-r3}
        0x0001825a:    f0130f01    ....    TST      r3,#1
        0x0001825e:    bf18        ..      IT       NE
        0x00018260:    1afb        ..      SUBNE    r3,r7,r3
        0x00018262:    f0430301    C...    ORR      r3,r3,#1
        0x00018266:    4718        .G      BX       r3
    $d
        0x00018268:    00004888    .H..    DCD    18568
        0x0001826c:    000048b8    .H..    DCD    18616
    $t
    !!dczerorl2
    __decompress
    __decompress1
        0x00018270:    440a        .D      ADD      r2,r2,r1
        0x00018272:    f04f0c00    O...    MOV      r12,#0
        0x00018276:    f8103b01    ...;    LDRB     r3,[r0],#1
        0x0001827a:    f0130407    ....    ANDS     r4,r3,#7
        0x0001827e:    bf08        ..      IT       EQ
        0x00018280:    f8104b01    ...K    LDRBEQ   r4,[r0],#1
        0x00018284:    111d        ..      ASRS     r5,r3,#4
        0x00018286:    bf08        ..      IT       EQ
        0x00018288:    f8105b01    ...[    LDRBEQ   r5,[r0],#1
        0x0001828c:    1e64        d.      SUBS     r4,r4,#1
        0x0001828e:    d005        ..      BEQ      0x1829c ; __decompress + 44
        0x00018290:    f8106b01    ...k    LDRB     r6,[r0],#1
        0x00018294:    1e64        d.      SUBS     r4,r4,#1
        0x00018296:    f8016b01    ...k    STRB     r6,[r1],#1
        0x0001829a:    d1f9        ..      BNE      0x18290 ; __decompress + 32
        0x0001829c:    f0130f08    ....    TST      r3,#8
        0x000182a0:    bf1e        ..      ITTT     NE
        0x000182a2:    f8104b01    ...K    LDRBNE   r4,[r0],#1
        0x000182a6:    1cad        ..      ADDNE    r5,r5,#2
        0x000182a8:    1b0c        ..      SUBNE    r4,r1,r4
        0x000182aa:    d109        ..      BNE      0x182c0 ; __decompress + 80
        0x000182ac:    1e6d        m.      SUBS     r5,r5,#1
        0x000182ae:    bf58        X.      IT       PL
        0x000182b0:    f801cb01    ....    STRBPL   r12,[r1],#1
        0x000182b4:    d5fa        ..      BPL      0x182ac ; __decompress + 60
        0x000182b6:    e005        ..      B        0x182c4 ; __decompress + 84
        0x000182b8:    f8146b01    ...k    LDRB     r6,[r4],#1
        0x000182bc:    f8016b01    ...k    STRB     r6,[r1],#1
        0x000182c0:    1e6d        m.      SUBS     r5,r5,#1
        0x000182c2:    d5f9        ..      BPL      0x182b8 ; __decompress + 72
        0x000182c4:    4291        .B      CMP      r1,r2
        0x000182c6:    d3d6        ..      BCC      0x18276 ; __decompress + 6
        0x000182c8:    4770        pG      BX       lr
        0x000182ca:    0000        ..      MOVS     r0,r0
    !!handler_copy
    __scatterload_copy
        0x000182cc:    3a10        .:      SUBS     r2,r2,#0x10
        0x000182ce:    bf24        $.      ITT      CS
        0x000182d0:    c878        x.      LDMCS    r0!,{r3-r6}
        0x000182d2:    c178        x.      STMCS    r1!,{r3-r6}
        0x000182d4:    d8fa        ..      BHI      __scatterload_copy ; 0x182cc
        0x000182d6:    0752        R.      LSLS     r2,r2,#29
        0x000182d8:    bf24        $.      ITT      CS
        0x000182da:    c830        0.      LDMCS    r0!,{r4,r5}
        0x000182dc:    c130        0.      STMCS    r1!,{r4,r5}
        0x000182de:    bf44        D.      ITT      MI
        0x000182e0:    6804        .h      LDRMI    r4,[r0,#0]
        0x000182e2:    600c        .`      STRMI    r4,[r1,#0]
        0x000182e4:    4770        pG      BX       lr
        0x000182e6:    0000        ..      MOVS     r0,r0
    !!handler_zi
    __scatterload_zeroinit
        0x000182e8:    2300        .#      MOVS     r3,#0
        0x000182ea:    2400        .$      MOVS     r4,#0
        0x000182ec:    2500        .%      MOVS     r5,#0
        0x000182ee:    2600        .&      MOVS     r6,#0
        0x000182f0:    3a10        .:      SUBS     r2,r2,#0x10
        0x000182f2:    bf28        (.      IT       CS
        0x000182f4:    c178        x.      STMCS    r1!,{r3-r6}
        0x000182f6:    d8fb        ..      BHI      0x182f0 ; __scatterload_zeroinit + 8
        0x000182f8:    0752        R.      LSLS     r2,r2,#29
        0x000182fa:    bf28        (.      IT       CS
        0x000182fc:    c130        0.      STMCS    r1!,{r4,r5}
        0x000182fe:    bf48        H.      IT       MI
        0x00018300:    600b        .`      STRMI    r3,[r1,#0]
        0x00018302:    4770        pG      BX       lr
    .ARM.Collect$$libinit$$00000000
    __rt_lib_init
        0x00018304:    b51f        ..      PUSH     {r0-r4,lr}
    .ARM.Collect$$libinit$$00000001
    __rt_lib_init_fp_1
        0x00018306:    f004f8b2    ....    BL       _fp_init ; 0x1c46e
    .ARM.Collect$$libinit$$00000004
    .ARM.Collect$$libinit$$0000000A
    .ARM.Collect$$libinit$$0000000C
    .ARM.Collect$$libinit$$0000000E
    .ARM.Collect$$libinit$$00000011
    .ARM.Collect$$libinit$$00000013
    .ARM.Collect$$libinit$$00000015
    .ARM.Collect$$libinit$$00000017
    .ARM.Collect$$libinit$$00000019
    .ARM.Collect$$libinit$$0000001B
    .ARM.Collect$$libinit$$0000001D
    .ARM.Collect$$libinit$$0000001F
    .ARM.Collect$$libinit$$00000021
    .ARM.Collect$$libinit$$00000023
    .ARM.Collect$$libinit$$00000025
    .ARM.Collect$$libinit$$0000002C
    .ARM.Collect$$libinit$$0000002E
    .ARM.Collect$$libinit$$00000030
    .ARM.Collect$$libinit$$00000032
    .ARM.Collect$$libinit$$00000033
    __rt_lib_init_alloca_1
    __rt_lib_init_argv_1
    __rt_lib_init_atexit_1
    __rt_lib_init_clock_1
    __rt_lib_init_cpp_1
    __rt_lib_init_exceptions_1
    __rt_lib_init_fp_trap_1
    __rt_lib_init_getenv_1
    __rt_lib_init_heap_1
    __rt_lib_init_lc_collate_1
    __rt_lib_init_lc_ctype_1
    __rt_lib_init_lc_monetary_1
    __rt_lib_init_lc_numeric_1
    __rt_lib_init_lc_time_1
    __rt_lib_init_preinit_1
    __rt_lib_init_rand_1
    __rt_lib_init_return
    __rt_lib_init_signal_1
    __rt_lib_init_stdio_1
    __rt_lib_init_user_alloc_1
        0x0001830a:    bd1f        ..      POP      {r0-r4,pc}
    .ARM.Collect$$libshutdown$$00000000
    __rt_lib_shutdown
        0x0001830c:    b510        ..      PUSH     {r4,lr}
    .ARM.Collect$$libshutdown$$00000002
    .ARM.Collect$$libshutdown$$00000004
    .ARM.Collect$$libshutdown$$00000007
    .ARM.Collect$$libshutdown$$0000000A
    .ARM.Collect$$libshutdown$$0000000C
    .ARM.Collect$$libshutdown$$0000000F
    .ARM.Collect$$libshutdown$$00000010
    __rt_lib_shutdown_cpp_1
    __rt_lib_shutdown_fp_trap_1
    __rt_lib_shutdown_heap_1
    __rt_lib_shutdown_return
    __rt_lib_shutdown_signal_1
    __rt_lib_shutdown_stdio_1
    __rt_lib_shutdown_user_alloc_1
        0x0001830e:    bd10        ..      POP      {r4,pc}
    .ARM.Collect$$rtentry$$00000000
    .ARM.Collect$$rtentry$$00000002
    .ARM.Collect$$rtentry$$00000004
    __rt_entry
    __rt_entry_presh_1
    __rt_entry_sh
        0x00018310:    f000f81d    ....    BL       __user_setup_stackheap ; 0x1834e
        0x00018314:    4611        .F      MOV      r1,r2
    .ARM.Collect$$rtentry$$00000009
    .ARM.Collect$$rtentry$$0000000A
    __rt_entry_li
    __rt_entry_postsh_1
        0x00018316:    f7fffff5    ....    BL       __rt_lib_init ; 0x18304
    .ARM.Collect$$rtentry$$0000000C
    .ARM.Collect$$rtentry$$0000000D
    __rt_entry_main
    __rt_entry_postli_1
        0x0001831a:    f003fb2b    ..+.    BL       main ; 0x1b974
        0x0001831e:    f000f83b    ..;.    BL       exit ; 0x18398
    .ARM.Collect$$rtexit$$00000000
    __rt_exit
        0x00018322:    b403        ..      PUSH     {r0,r1}
    .ARM.Collect$$rtexit$$00000002
    .ARM.Collect$$rtexit$$00000003
    __rt_exit_ls
    __rt_exit_prels_1
        0x00018324:    f7fffff2    ....    BL       __rt_lib_shutdown ; 0x1830c
    .ARM.Collect$$rtexit$$00000004
    __rt_exit_exit
        0x00018328:    bc03        ..      POP      {r0,r1}
        0x0001832a:    f000f843    ..C.    BL       _sys_exit ; 0x183b4
        0x0001832e:    0000        ..      MOVS     r0,r0
    .text
    $v0
    __user_initial_stackheap
        0x00018330:    4802        .H      LDR      r0,[pc,#8] ; [0x1833c] = 0x10000980
        0x00018332:    4903        .I      LDR      r1,[pc,#12] ; [0x18340] = 0x10001980
        0x00018334:    4a01        .J      LDR      r2,[pc,#4] ; [0x1833c] = 0x10000980
        0x00018336:    4b03        .K      LDR      r3,[pc,#12] ; [0x18344] = 0x10000980
        0x00018338:    4770        pG      BX       lr
    $d
        0x0001833a:    0000        ..      DCW    0
        0x0001833c:    10000980    ....    DCD    268437888
        0x00018340:    10001980    ....    DCD    268441984
        0x00018344:    10000980    ....    DCD    268437888
    $t
    .text
    __use_two_region_memory
        0x00018348:    4770        pG      BX       lr
    __rt_heap_escrow$2region
        0x0001834a:    4770        pG      BX       lr
    __rt_heap_expand$2region
        0x0001834c:    4770        pG      BX       lr
    .text
    __user_setup_stackheap
        0x0001834e:    4675        uF      MOV      r5,lr
        0x00018350:    f000f82c    ..,.    BL       __user_libspace ; 0x183ac
        0x00018354:    46ae        .F      MOV      lr,r5
        0x00018356:    0005        ..      MOVS     r5,r0
        0x00018358:    4669        iF      MOV      r1,sp
        0x0001835a:    4653        SF      MOV      r3,r10
        0x0001835c:    f0200007     ...    BIC      r0,r0,#7
        0x00018360:    4685        .F      MOV      sp,r0
        0x00018362:    b018        ..      ADD      sp,sp,#0x60
        0x00018364:    b520         .      PUSH     {r5,lr}
        0x00018366:    f7ffffe3    ....    BL       __user_initial_stackheap ; 0x18330
        0x0001836a:    e8bd4020    .. @    POP      {r5,lr}
        0x0001836e:    f04f0600    O...    MOV      r6,#0
        0x00018372:    f04f0700    O...    MOV      r7,#0
        0x00018376:    f04f0800    O...    MOV      r8,#0
        0x0001837a:    f04f0b00    O...    MOV      r11,#0
        0x0001837e:    46ac        .F      MOV      r12,r5
        0x00018380:    e8ac09c0    ....    STM      r12!,{r6-r8,r11}
        0x00018384:    e8ac09c0    ....    STM      r12!,{r6-r8,r11}
        0x00018388:    e8ac09c0    ....    STM      r12!,{r6-r8,r11}
        0x0001838c:    e8ac09c0    ....    STM      r12!,{r6-r8,r11}
        0x00018390:    f0210107    !...    BIC      r1,r1,#7
        0x00018394:    468d        .F      MOV      sp,r1
        0x00018396:    4770        pG      BX       lr
    .text
    exit
        0x00018398:    b510        ..      PUSH     {r4,lr}
        0x0001839a:    4604        .F      MOV      r4,r0
        0x0001839c:    f3af8000    ....    NOP.W    
        0x000183a0:    4620         F      MOV      r0,r4
        0x000183a2:    e8bd4010    ...@    POP      {r4,lr}
        0x000183a6:    f7ffbfbc    ....    B.W      __rt_exit ; 0x18322
        0x000183aa:    0000        ..      MOVS     r0,r0
    .text
    __user_libspace
    __user_perproc_libspace
    __user_perthread_libspace
        0x000183ac:    4800        .H      LDR      r0,[pc,#0] ; [0x183b0] = 0x100001f8
        0x000183ae:    4770        pG      BX       lr
    $d
        0x000183b0:    100001f8    ....    DCD    268435960
    $t
    .text
    _sys_exit
        0x000183b4:    4901        .I      LDR      r1,[pc,#4] ; [0x183bc] = 0x20026
        0x000183b6:    2018        .       MOVS     r0,#0x18
        0x000183b8:    beab        ..      BKPT     #0xab
        0x000183ba:    e7fe        ..      B        0x183ba ; _sys_exit + 6
    $d
        0x000183bc:    00020026    &...    DCD    131110
    $t
    .text
    __I$use$semihosting
    __use_no_semihosting_swi
        0x000183c0:    4770        pG      BX       lr
    .text
    __semihosting_library_function
        0x000183c2:    0000        ..      MOVS     r0,r0
    $t.7
    ForceFIFOpop
        0x000183c4:    b5f0        ..      PUSH     {r4-r7,lr}
        0x000183c6:    b081        ..      SUB      sp,sp,#4
        0x000183c8:    f2480500    H...    MOVW     r5,#0x8000
        0x000183cc:    f2c40503    ....    MOVT     r5,#0x4003
        0x000183d0:    6829        )h      LDR      r1,[r5,#0]
        0x000183d2:    4604        .F      MOV      r4,r0
        0x000183d4:    0749        I.      LSLS     r1,r1,#29
        0x000183d6:    d402        ..      BMI      0x183de ; ForceFIFOpop + 26
        0x000183d8:    6828        (h      LDR      r0,[r5,#0]
        0x000183da:    07c0        ..      LSLS     r0,r0,#31
        0x000183dc:    d109        ..      BNE      0x183f2 ; ForceFIFOpop + 46
        0x000183de:    6828        (h      LDR      r0,[r5,#0]
        0x000183e0:    07c0        ..      LSLS     r0,r0,#31
        0x000183e2:    d028        (.      BEQ      0x18436 ; ForceFIFOpop + 114
        0x000183e4:    6828        (h      LDR      r0,[r5,#0]
        0x000183e6:    0740        @.      LSLS     r0,r0,#29
        0x000183e8:    d525        %.      BPL      0x18436 ; ForceFIFOpop + 114
        0x000183ea:    6c28        (l      LDR      r0,[r5,#0x40]
        0x000183ec:    f1b03fff    ...?    CMP      r0,#0xffffffff
        0x000183f0:    dc21        !.      BGT      0x18436 ; ForceFIFOpop + 114
        0x000183f2:    6ba8        .k      LDR      r0,[r5,#0x38]
        0x000183f4:    f0106f7f    ...o    TST      r0,#0xff00000
        0x000183f8:    d112        ..      BNE      0x18420 ; ForceFIFOpop + 92
        0x000183fa:    f64a76af    J..v    MOV      r6,#0xafaf
        0x000183fe:    f2c016af    ....    MOVT     r6,#0x1af
        0x00018402:    2737        7'      MOVS     r7,#0x37
        0x00018404:    b12c        ,.      CBZ      r4,0x18412 ; ForceFIFOpop + 78
        0x00018406:    6820         h      LDR      r0,[r4,#0]
        0x00018408:    f020407e     .~@    BIC      r0,r0,#0xfe000000
        0x0001840c:    42b0        .B      CMP      r0,r6
        0x0001840e:    bf08        ..      IT       EQ
        0x00018410:    60af        .`      STREQ    r7,[r5,#8]
        0x00018412:    201e        .       MOVS     r0,#0x1e
        0x00018414:    f001f92e    ....    BL       am_hal_delay_us ; 0x19674
        0x00018418:    6ba8        .k      LDR      r0,[r5,#0x38]
        0x0001841a:    f0106f7f    ...o    TST      r0,#0xff00000
        0x0001841e:    d0f1        ..      BEQ      0x18404 ; ForceFIFOpop + 64
        0x00018420:    6ba8        .k      LDR      r0,[r5,#0x38]
        0x00018422:    f0106f7f    ...o    TST      r0,#0xff00000
        0x00018426:    d006        ..      BEQ      0x18436 ; ForceFIFOpop + 114
        0x00018428:    2000        .       MOVS     r0,#0
        0x0001842a:    bf00        ..      NOP      
        0x0001842c:    63a8        .c      STR      r0,[r5,#0x38]
        0x0001842e:    6ba9        .k      LDR      r1,[r5,#0x38]
        0x00018430:    f0116f7f    ...o    TST      r1,#0xff00000
        0x00018434:    d1fa        ..      BNE      0x1842c ; ForceFIFOpop + 104
        0x00018436:    b001        ..      ADD      sp,sp,#4
        0x00018438:    bdf0        ..      POP      {r4-r7,pc}
        0x0001843a:    0000        ..      MOVS     r0,r0
    HardFault_Handler
        0x0001843c:    f01e0f04    ....    TST      lr,#4
        0x00018440:    bf0c        ..      ITE      EQ
        0x00018442:    f3ef8008    ....    MRSEQ    r0,MSP
        0x00018446:    f3ef8009    ....    MRSNE    r0,PSP
        0x0001844a:    4904        .I      LDR      r1,[pc,#16] ; [0x1845c] = 0x10000298
        0x0001844c:    f5017100    ...q    ADD      r1,r1,#0x200
        0x00018450:    f0210103    !...    BIC      r1,r1,#3
        0x00018454:    468d        .F      MOV      sp,r1
        0x00018456:    f002bb57    ..W.    B.W      am_util_faultisr_collect_data ; 0x1ab08
        0x0001845a:    bf00        ..      NOP      
    $d.4
        0x0001845c:    10000298    ....    DCD    268436120
    $t.27
    TrimVersionGet
        0x00018460:    b5b0        ..      PUSH     {r4,r5,r7,lr}
        0x00018462:    f24015ac    @...    MOVW     r5,#0x1ac
        0x00018466:    f2c10500    ....    MOVT     r5,#0x1000
        0x0001846a:    6829        )h      LDR      r1,[r5,#0]
        0x0001846c:    4604        .F      MOV      r4,r0
        0x0001846e:    1c4a        J.      ADDS     r2,r1,#1
        0x00018470:    d10c        ..      BNE      0x1848c ; TrimVersionGet + 44
        0x00018472:    2001        .       MOVS     r0,#1
        0x00018474:    f24041c4    @..A    MOV      r1,#0x4c4
        0x00018478:    2201        ."      MOVS     r2,#1
        0x0001847a:    462b        +F      MOV      r3,r5
        0x0001847c:    f001fac8    ....    BL       am_hal_mram_info_read ; 0x19a10
        0x00018480:    b910        ..      CBNZ     r0,0x18488 ; TrimVersionGet + 40
        0x00018482:    6829        )h      LDR      r1,[r5,#0]
        0x00018484:    1c48        H.      ADDS     r0,r1,#1
        0x00018486:    d101        ..      BNE      0x1848c ; TrimVersionGet + 44
        0x00018488:    2100        .!      MOVS     r1,#0
        0x0001848a:    6029        )`      STR      r1,[r5,#0]
        0x0001848c:    2c00        .,      CMP      r4,#0
        0x0001848e:    bf0e        ..      ITEE     EQ
        0x00018490:    2006        .       MOVEQ    r0,#6
        0x00018492:    6021        !`      STRNE    r1,[r4,#0]
        0x00018494:    2000        .       MOVNE    r0,#0
        0x00018496:    bdb0        ..      POP      {r4,r5,r7,pc}
    VDDF_simobuck_boost
        0x00018498:    e92d41f0    -..A    PUSH     {r4-r8,lr}
        0x0001849c:    b084        ..      SUB      sp,sp,#0x10
        0x0001849e:    460d        .F      MOV      r5,r1
        0x000184a0:    f24011b8    @...    MOVW     r1,#0x1b8
        0x000184a4:    f2c10100    ....    MOVT     r1,#0x1000
        0x000184a8:    680f        .h      LDR      r7,[r1,#0]
        0x000184aa:    f240386c    @.l8    MOVW     r8,#0x36c
        0x000184ae:    4614        .F      MOV      r4,r2
        0x000184b0:    4606        .F      MOV      r6,r0
        0x000184b2:    1c78        x.      ADDS     r0,r7,#1
        0x000184b4:    f2c40802    ....    MOVT     r8,#0x4002
        0x000184b8:    d104        ..      BNE      0x184c4 ; VDDF_simobuck_boost + 44
        0x000184ba:    f8d80000    ....    LDR      r0,[r8,#0]
        0x000184be:    f3c05705    ...W    UBFX     r7,r0,#20,#6
        0x000184c2:    600f        .`      STR      r7,[r1,#0]
        0x000184c4:    a803        ..      ADD      r0,sp,#0xc
        0x000184c6:    f7ffffcb    ....    BL       TrimVersionGet ; 0x18460
        0x000184ca:    b36e        n.      CBZ      r6,0x18528 ; VDDF_simobuck_boost + 144
        0x000184cc:    f64f40a0    O..@    MOV      r0,#0xfca0
        0x000184d0:    f6cf70ff    ...p    MOVT     r0,#0xffff
        0x000184d4:    f8580000    X...    LDR      r0,[r8,r0]
        0x000184d8:    f00000fe    ....    AND      r0,r0,#0xfe
        0x000184dc:    2822        "(      CMP      r0,#0x22
        0x000184de:    d342        B.      BCC      0x18566 ; VDDF_simobuck_boost + 206
        0x000184e0:    9803        ..      LDR      r0,[sp,#0xc]
        0x000184e2:    2805        .(      CMP      r0,#5
        0x000184e4:    bf88        ..      IT       HI
        0x000184e6:    1cec        ..      ADDHI    r4,r5,#3
        0x000184e8:    f1c4003f    ..?.    RSB      r0,r4,#0x3f
        0x000184ec:    4287        .B      CMP      r7,r0
        0x000184ee:    f8d80000    ....    LDR      r0,[r8,#0]
        0x000184f2:    443c        <D      ADD      r4,r4,r7
        0x000184f4:    f3c05005    ...P    UBFX     r0,r0,#20,#6
        0x000184f8:    bf88        ..      IT       HI
        0x000184fa:    243f        ?$      MOVHI    r4,#0x3f
        0x000184fc:    42a0        .B      CMP      r0,r4
        0x000184fe:    d032        2.      BEQ      0x18566 ; VDDF_simobuck_boost + 206
        0x00018500:    f001fa0a    ....    BL       am_hal_interrupt_master_disable ; 0x19918
        0x00018504:    9001        ..      STR      r0,[sp,#4]
        0x00018506:    f8d8000c    ....    LDR      r0,[r8,#0xc]
        0x0001850a:    f0404000    @..@    ORR      r0,r0,#0x80000000
        0x0001850e:    f8c8000c    ....    STR      r0,[r8,#0xc]
        0x00018512:    f8d80000    ....    LDR      r0,[r8,#0]
        0x00018516:    f3645019    d..P    BFI      r0,r4,#20,#6
        0x0001851a:    f8c80000    ....    STR      r0,[r8,#0]
        0x0001851e:    2014        .       MOVS     r0,#0x14
        0x00018520:    f001f8a8    ....    BL       am_hal_delay_us ; 0x19674
        0x00018524:    9801        ..      LDR      r0,[sp,#4]
        0x00018526:    e01c        ..      B        0x18562 ; VDDF_simobuck_boost + 202
        0x00018528:    9803        ..      LDR      r0,[sp,#0xc]
        0x0001852a:    2805        .(      CMP      r0,#5
        0x0001852c:    f8d80000    ....    LDR      r0,[r8,#0]
        0x00018530:    bf88        ..      IT       HI
        0x00018532:    3703        .7      ADDHI    r7,#3
        0x00018534:    f3c05005    ...P    UBFX     r0,r0,#20,#6
        0x00018538:    42b8        .B      CMP      r0,r7
        0x0001853a:    d014        ..      BEQ      0x18566 ; VDDF_simobuck_boost + 206
        0x0001853c:    f001f9ec    ....    BL       am_hal_interrupt_master_disable ; 0x19918
        0x00018540:    9002        ..      STR      r0,[sp,#8]
        0x00018542:    f8d8000c    ....    LDR      r0,[r8,#0xc]
        0x00018546:    f0404000    @..@    ORR      r0,r0,#0x80000000
        0x0001854a:    f8c8000c    ....    STR      r0,[r8,#0xc]
        0x0001854e:    f8d80000    ....    LDR      r0,[r8,#0]
        0x00018552:    f3675019    g..P    BFI      r0,r7,#20,#6
        0x00018556:    f8c80000    ....    STR      r0,[r8,#0]
        0x0001855a:    2014        .       MOVS     r0,#0x14
        0x0001855c:    f001f88a    ....    BL       am_hal_delay_us ; 0x19674
        0x00018560:    9802        ..      LDR      r0,[sp,#8]
        0x00018562:    f001f9e1    ....    BL       am_hal_interrupt_master_set ; 0x19928
        0x00018566:    b004        ..      ADD      sp,sp,#0x10
        0x00018568:    e8bd81f0    ....    POP      {r4-r8,pc}
    __NVIC_EnableIRQ
        0x0001856c:    b081        ..      SUB      sp,sp,#4
        0x0001856e:    f88d0003    ....    STRB     r0,[sp,#3]
        0x00018572:    f99d0003    ....    LDRSB    r0,[sp,#3]
        0x00018576:    2800        .(      CMP      r0,#0
        0x00018578:    d40e        ..      BMI      0x18598 ; __NVIC_EnableIRQ + 44
        0x0001857a:    e7ff        ..      B        0x1857c ; __NVIC_EnableIRQ + 16
        0x0001857c:    f99d1003    ....    LDRSB    r1,[sp,#3]
        0x00018580:    f001021f    ....    AND      r2,r1,#0x1f
        0x00018584:    2001        .       MOVS     r0,#1
        0x00018586:    4090        .@      LSLS     r0,r0,r2
        0x00018588:    094a        J.      LSRS     r2,r1,#5
        0x0001858a:    f24e1100    N...    MOVW     r1,#0xe100
        0x0001858e:    f2ce0100    ....    MOVT     r1,#0xe000
        0x00018592:    f8410022    A.".    STR      r0,[r1,r2,LSL #2]
        0x00018596:    e7ff        ..      B        0x18598 ; __NVIC_EnableIRQ + 44
        0x00018598:    b001        ..      ADD      sp,sp,#4
        0x0001859a:    4770        pG      BX       lr
    __NVIC_SetPriority
        0x0001859c:    b082        ..      SUB      sp,sp,#8
        0x0001859e:    f88d0007    ....    STRB     r0,[sp,#7]
        0x000185a2:    9100        ..      STR      r1,[sp,#0]
        0x000185a4:    f99d0007    ....    LDRSB    r0,[sp,#7]
        0x000185a8:    2800        .(      CMP      r0,#0
        0x000185aa:    d40a        ..      BMI      0x185c2 ; __NVIC_SetPriority + 38
        0x000185ac:    e7ff        ..      B        0x185ae ; __NVIC_SetPriority + 18
        0x000185ae:    9800        ..      LDR      r0,[sp,#0]
        0x000185b0:    0140        @.      LSLS     r0,r0,#5
        0x000185b2:    f99d1007    ....    LDRSB    r1,[sp,#7]
        0x000185b6:    f24e4200    N..B    MOVW     r2,#0xe400
        0x000185ba:    f2ce0200    ....    MOVT     r2,#0xe000
        0x000185be:    5488        .T      STRB     r0,[r1,r2]
        0x000185c0:    e00b        ..      B        0x185da ; __NVIC_SetPriority + 62
        0x000185c2:    9800        ..      LDR      r0,[sp,#0]
        0x000185c4:    0140        @.      LSLS     r0,r0,#5
        0x000185c6:    f89d1007    ....    LDRB     r1,[sp,#7]
        0x000185ca:    f001010f    ....    AND      r1,r1,#0xf
        0x000185ce:    f64e5214    N..R    MOV      r2,#0xed14
        0x000185d2:    f2ce0200    ....    MOVT     r2,#0xe000
        0x000185d6:    5488        .T      STRB     r0,[r1,r2]
        0x000185d8:    e7ff        ..      B        0x185da ; __NVIC_SetPriority + 62
        0x000185da:    b002        ..      ADD      sp,sp,#8
        0x000185dc:    4770        pG      BX       lr
        0x000185de:    0000        ..      MOVS     r0,r0
    adc_init
        0x000185e0:    b510        ..      PUSH     {r4,lr}
        0x000185e2:    b08c        ..      SUB      sp,sp,#0x30
        0x000185e4:    f24041a0    @..A    MOVW     r1,#0x4a0
        0x000185e8:    f2c10100    ....    MOVT     r1,#0x1000
        0x000185ec:    2000        .       MOVS     r0,#0
        0x000185ee:    f000fc31    ..1.    BL       am_hal_adc_initialize ; 0x18e54
        0x000185f2:    b138        8.      CBZ      r0,0x18604 ; adc_init + 36
        0x000185f4:    e7ff        ..      B        0x185f6 ; adc_init + 22
        0x000185f6:    f64c0053    L.S.    MOV      r0,#0xc853
        0x000185fa:    f2c00001    ....    MOVT     r0,#1
        0x000185fe:    f002faef    ....    BL       am_util_stdio_printf ; 0x1abe0
        0x00018602:    e7ff        ..      B        0x18604 ; adc_init + 36
        0x00018604:    f24040a0    @..@    MOVW     r0,#0x4a0
        0x00018608:    f2c10000    ....    MOVT     r0,#0x1000
        0x0001860c:    6800        .h      LDR      r0,[r0,#0]
        0x0001860e:    2200        ."      MOVS     r2,#0
        0x00018610:    4611        .F      MOV      r1,r2
        0x00018612:    f000fd1a    ....    BL       am_hal_adc_power_control ; 0x1904a
        0x00018616:    b138        8.      CBZ      r0,0x18628 ; adc_init + 72
        0x00018618:    e7ff        ..      B        0x1861a ; adc_init + 58
        0x0001861a:    f64c008f    L...    MOV      r0,#0xc88f
        0x0001861e:    f2c00001    ....    MOVT     r0,#1
        0x00018622:    f002fadd    ....    BL       am_util_stdio_printf ; 0x1abe0
        0x00018626:    e7ff        ..      B        0x18628 ; adc_init + 72
        0x00018628:    f24040a0    @..@    MOVW     r0,#0x4a0
        0x0001862c:    f2c10000    ....    MOVT     r0,#0x1000
        0x00018630:    6800        .h      LDR      r0,[r0,#0]
        0x00018632:    f24c7160    L.`q    MOV      r1,#0xc760
        0x00018636:    f2c00101    ....    MOVT     r1,#1
        0x0001863a:    f000faa9    ....    BL       am_hal_adc_configure ; 0x18b90
        0x0001863e:    b138        8.      CBZ      r0,0x18650 ; adc_init + 112
        0x00018640:    e7ff        ..      B        0x18642 ; adc_init + 98
        0x00018642:    f64c0027    L.'.    MOV      r0,#0xc827
        0x00018646:    f2c00001    ....    MOVT     r0,#1
        0x0001864a:    f002fac9    ....    BL       am_util_stdio_printf ; 0x1abe0
        0x0001864e:    e7ff        ..      B        0x18650 ; adc_init + 112
        0x00018650:    f24c61c4    L..a    MOV      r1,#0xc6c4
        0x00018654:    f2c00101    ....    MOVT     r1,#1
        0x00018658:    6808        .h      LDR      r0,[r1,#0]
        0x0001865a:    6849        Ih      LDR      r1,[r1,#4]
        0x0001865c:    9108        ..      STR      r1,[sp,#0x20]
        0x0001865e:    9007        ..      STR      r0,[sp,#0x1c]
        0x00018660:    f24040a0    @..@    MOVW     r0,#0x4a0
        0x00018664:    f2c10000    ....    MOVT     r0,#0x1000
        0x00018668:    9006        ..      STR      r0,[sp,#0x18]
        0x0001866a:    6800        .h      LDR      r0,[r0,#0]
        0x0001866c:    a907        ..      ADD      r1,sp,#0x1c
        0x0001866e:    f000faca    ....    BL       am_hal_adc_configure_irtt ; 0x18c06
        0x00018672:    9806        ..      LDR      r0,[sp,#0x18]
        0x00018674:    6800        .h      LDR      r0,[r0,#0]
        0x00018676:    21c7        .!      MOVS     r1,#0xc7
        0x00018678:    f000fc8c    ....    BL       am_hal_adc_interrupt_enable ; 0x18f94
        0x0001867c:    9806        ..      LDR      r0,[sp,#0x18]
        0x0001867e:    2100        .!      MOVS     r1,#0
        0x00018680:    9101        ..      STR      r1,[sp,#4]
        0x00018682:    f88d102f    ../.    STRB     r1,[sp,#0x2f]
        0x00018686:    f88d102e    ....    STRB     r1,[sp,#0x2e]
        0x0001868a:    f88d102d    ..-.    STRB     r1,[sp,#0x2d]
        0x0001868e:    f88d1024    ..$.    STRB     r1,[sp,#0x24]
        0x00018692:    f88d102c    ..,.    STRB     r1,[sp,#0x2c]
        0x00018696:    2220         "      MOVS     r2,#0x20
        0x00018698:    9203        ..      STR      r2,[sp,#0xc]
        0x0001869a:    920a        ..      STR      r2,[sp,#0x28]
        0x0001869c:    6800        .h      LDR      r0,[r0,#0]
        0x0001869e:    aa09        ..      ADD      r2,sp,#0x24
        0x000186a0:    9204        ..      STR      r2,[sp,#0x10]
        0x000186a2:    f000fac9    ....    BL       am_hal_adc_configure_slot ; 0x18c38
        0x000186a6:    9a04        ..      LDR      r2,[sp,#0x10]
        0x000186a8:    9806        ..      LDR      r0,[sp,#0x18]
        0x000186aa:    6800        .h      LDR      r0,[r0,#0]
        0x000186ac:    2101        .!      MOVS     r1,#1
        0x000186ae:    9105        ..      STR      r1,[sp,#0x14]
        0x000186b0:    f000fac2    ....    BL       am_hal_adc_configure_slot ; 0x18c38
        0x000186b4:    9a04        ..      LDR      r2,[sp,#0x10]
        0x000186b6:    9806        ..      LDR      r0,[sp,#0x18]
        0x000186b8:    6800        .h      LDR      r0,[r0,#0]
        0x000186ba:    2102        .!      MOVS     r1,#2
        0x000186bc:    9102        ..      STR      r1,[sp,#8]
        0x000186be:    f000fabb    ....    BL       am_hal_adc_configure_slot ; 0x18c38
        0x000186c2:    9a04        ..      LDR      r2,[sp,#0x10]
        0x000186c4:    9806        ..      LDR      r0,[sp,#0x18]
        0x000186c6:    6800        .h      LDR      r0,[r0,#0]
        0x000186c8:    2103        .!      MOVS     r1,#3
        0x000186ca:    f000fab5    ....    BL       am_hal_adc_configure_slot ; 0x18c38
        0x000186ce:    9a04        ..      LDR      r2,[sp,#0x10]
        0x000186d0:    9806        ..      LDR      r0,[sp,#0x18]
        0x000186d2:    6800        .h      LDR      r0,[r0,#0]
        0x000186d4:    2104        .!      MOVS     r1,#4
        0x000186d6:    f000faaf    ....    BL       am_hal_adc_configure_slot ; 0x18c38
        0x000186da:    9a04        ..      LDR      r2,[sp,#0x10]
        0x000186dc:    9806        ..      LDR      r0,[sp,#0x18]
        0x000186de:    6800        .h      LDR      r0,[r0,#0]
        0x000186e0:    2106        .!      MOVS     r1,#6
        0x000186e2:    f000faa9    ....    BL       am_hal_adc_configure_slot ; 0x18c38
        0x000186e6:    f8ddc014    ....    LDR      r12,[sp,#0x14]
        0x000186ea:    9b01        ..      LDR      r3,[sp,#4]
        0x000186ec:    9903        ..      LDR      r1,[sp,#0xc]
        0x000186ee:    9a04        ..      LDR      r2,[sp,#0x10]
        0x000186f0:    9806        ..      LDR      r0,[sp,#0x18]
        0x000186f2:    f88dc02f    ../.    STRB     r12,[sp,#0x2f]
        0x000186f6:    f88d302e    ...0    STRB     r3,[sp,#0x2e]
        0x000186fa:    f04f0c09    O...    MOV      r12,#9
        0x000186fe:    f88dc02d    ..-.    STRB     r12,[sp,#0x2d]
        0x00018702:    f88d3024    ..$0    STRB     r3,[sp,#0x24]
        0x00018706:    f88d302c    ..,0    STRB     r3,[sp,#0x2c]
        0x0001870a:    910a        ..      STR      r1,[sp,#0x28]
        0x0001870c:    6800        .h      LDR      r0,[r0,#0]
        0x0001870e:    2105        .!      MOVS     r1,#5
        0x00018710:    f000fa92    ....    BL       am_hal_adc_configure_slot ; 0x18c38
        0x00018714:    f8ddc004    ....    LDR      r12,[sp,#4]
        0x00018718:    9b02        ..      LDR      r3,[sp,#8]
        0x0001871a:    9903        ..      LDR      r1,[sp,#0xc]
        0x0001871c:    9a04        ..      LDR      r2,[sp,#0x10]
        0x0001871e:    f8dde014    ....    LDR      lr,[sp,#0x14]
        0x00018722:    9806        ..      LDR      r0,[sp,#0x18]
        0x00018724:    f88de02f    ../.    STRB     lr,[sp,#0x2f]
        0x00018728:    f88dc02e    ....    STRB     r12,[sp,#0x2e]
        0x0001872c:    f04f0e08    O...    MOV      lr,#8
        0x00018730:    f88de02d    ..-.    STRB     lr,[sp,#0x2d]
        0x00018734:    f88dc024    ..$.    STRB     r12,[sp,#0x24]
        0x00018738:    f88d302c    ..,0    STRB     r3,[sp,#0x2c]
        0x0001873c:    910a        ..      STR      r1,[sp,#0x28]
        0x0001873e:    6800        .h      LDR      r0,[r0,#0]
        0x00018740:    2107        .!      MOVS     r1,#7
        0x00018742:    f000fa79    ..y.    BL       am_hal_adc_configure_slot ; 0x18c38
        0x00018746:    9806        ..      LDR      r0,[sp,#0x18]
        0x00018748:    6800        .h      LDR      r0,[r0,#0]
        0x0001874a:    f000fb55    ..U.    BL       am_hal_adc_enable ; 0x18df8
        0x0001874e:    b138        8.      CBZ      r0,0x18760 ; adc_init + 384
        0x00018750:    e7ff        ..      B        0x18752 ; adc_init + 370
        0x00018752:    f64c0009    L...    MOV      r0,#0xc809
        0x00018756:    f2c00001    ....    MOVT     r0,#1
        0x0001875a:    f002fa41    ..A.    BL       am_util_stdio_printf ; 0x1abe0
        0x0001875e:    e7ff        ..      B        0x18760 ; adc_init + 384
        0x00018760:    f24040a0    @..@    MOVW     r0,#0x4a0
        0x00018764:    f2c10000    ....    MOVT     r0,#0x1000
        0x00018768:    6800        .h      LDR      r0,[r0,#0]
        0x0001876a:    f000fc3f    ..?.    BL       am_hal_adc_irtt_enable ; 0x18fec
        0x0001876e:    b00c        ..      ADD      sp,sp,#0x30
        0x00018770:    bd10        ..      POP      {r4,pc}
        0x00018772:    0000        ..      MOVS     r0,r0
    am_adc_isr
        0x00018774:    b580        ..      PUSH     {r7,lr}
        0x00018776:    b08a        ..      SUB      sp,sp,#0x28
        0x00018778:    f24040a0    @..@    MOVW     r0,#0x4a0
        0x0001877c:    f2c10000    ....    MOVT     r0,#0x1000
        0x00018780:    9004        ..      STR      r0,[sp,#0x10]
        0x00018782:    6800        .h      LDR      r0,[r0,#0]
        0x00018784:    a909        ..      ADD      r1,sp,#0x24
        0x00018786:    2201        ."      MOVS     r2,#1
        0x00018788:    9205        ..      STR      r2,[sp,#0x14]
        0x0001878a:    f000fc18    ....    BL       am_hal_adc_interrupt_status ; 0x18fbe
        0x0001878e:    9804        ..      LDR      r0,[sp,#0x10]
        0x00018790:    6800        .h      LDR      r0,[r0,#0]
        0x00018792:    9909        ..      LDR      r1,[sp,#0x24]
        0x00018794:    f000fbeb    ....    BL       am_hal_adc_interrupt_clear ; 0x18f6e
        0x00018798:    9905        ..      LDR      r1,[sp,#0x14]
        0x0001879a:    f2400000    @...    MOVW     r0,#0
        0x0001879e:    f2c10000    ....    MOVT     r0,#0x1000
        0x000187a2:    f000f99f    ....    BL       am_devices_led_toggle ; 0x18ae4
        0x000187a6:    9805        ..      LDR      r0,[sp,#0x14]
        0x000187a8:    9008        ..      STR      r0,[sp,#0x20]
        0x000187aa:    e7ff        ..      B        0x187ac ; am_adc_isr + 56
        0x000187ac:    f2480038    H.8.    MOV      r0,#0x8038
        0x000187b0:    f2c40003    ....    MOVT     r0,#0x4003
        0x000187b4:    6800        .h      LDR      r0,[r0,#0]
        0x000187b6:    f000617f    ...a    AND      r1,r0,#0xff00000
        0x000187ba:    2000        .       MOVS     r0,#0
        0x000187bc:    ebb05f11    ..._    CMP      r0,r1,LSR #20
        0x000187c0:    d031        1.      BEQ      0x18826 ; am_adc_isr + 178
        0x000187c2:    e7ff        ..      B        0x187c4 ; am_adc_isr + 80
        0x000187c4:    2001        .       MOVS     r0,#1
        0x000187c6:    9002        ..      STR      r0,[sp,#8]
        0x000187c8:    9008        ..      STR      r0,[sp,#0x20]
        0x000187ca:    2100        .!      MOVS     r1,#0
        0x000187cc:    9103        ..      STR      r1,[sp,#0xc]
        0x000187ce:    f000fde7    ....    BL       am_hal_daxi_control ; 0x193a0
        0x000187d2:    9902        ..      LDR      r1,[sp,#8]
        0x000187d4:    9a03        ..      LDR      r2,[sp,#0xc]
        0x000187d6:    f24040a0    @..@    MOVW     r0,#0x4a0
        0x000187da:    f2c10000    ....    MOVT     r0,#0x1000
        0x000187de:    6800        .h      LDR      r0,[r0,#0]
        0x000187e0:    46ec        .F      MOV      r12,sp
        0x000187e2:    ab06        ..      ADD      r3,sp,#0x18
        0x000187e4:    f8cc3000    ...0    STR      r3,[r12,#0]
        0x000187e8:    ab08        ..      ADD      r3,sp,#0x20
        0x000187ea:    f000fcad    ....    BL       am_hal_adc_samples_read ; 0x19148
        0x000187ee:    9807        ..      LDR      r0,[sp,#0x1c]
        0x000187f0:    2805        .(      CMP      r0,#5
        0x000187f2:    d109        ..      BNE      0x18808 ; am_adc_isr + 148
        0x000187f4:    e7ff        ..      B        0x187f6 ; am_adc_isr + 130
        0x000187f6:    9806        ..      LDR      r0,[sp,#0x18]
        0x000187f8:    f3c0108d    ....    UBFX     r0,r0,#6,#14
        0x000187fc:    f640114e    @.N.    MOV      r1,#0x94e
        0x00018800:    f2c10100    ....    MOVT     r1,#0x1000
        0x00018804:    8008        ..      STRH     r0,[r1,#0]
        0x00018806:    e00d        ..      B        0x18824 ; am_adc_isr + 176
        0x00018808:    9807        ..      LDR      r0,[sp,#0x1c]
        0x0001880a:    2807        .(      CMP      r0,#7
        0x0001880c:    d109        ..      BNE      0x18822 ; am_adc_isr + 174
        0x0001880e:    e7ff        ..      B        0x18810 ; am_adc_isr + 156
        0x00018810:    9806        ..      LDR      r0,[sp,#0x18]
        0x00018812:    f3c0108d    ....    UBFX     r0,r0,#6,#14
        0x00018816:    f640114c    @.L.    MOV      r1,#0x94c
        0x0001881a:    f2c10100    ....    MOVT     r1,#0x1000
        0x0001881e:    8008        ..      STRH     r0,[r1,#0]
        0x00018820:    e7ff        ..      B        0x18822 ; am_adc_isr + 174
        0x00018822:    e7ff        ..      B        0x18824 ; am_adc_isr + 176
        0x00018824:    e7c2        ..      B        0x187ac ; am_adc_isr + 56
        0x00018826:    f6401150    @.P.    MOVW     r1,#0x950
        0x0001882a:    f2c10100    ....    MOVT     r1,#0x1000
        0x0001882e:    6808        .h      LDR      r0,[r1,#0]
        0x00018830:    3001        .0      ADDS     r0,#1
        0x00018832:    6008        .`      STR      r0,[r1,#0]
        0x00018834:    b00a        ..      ADD      sp,sp,#0x28
        0x00018836:    bd80        ..      POP      {r7,pc}
    am_bsp_itm_printf_enable
        0x00018838:    b580        ..      PUSH     {r7,lr}
        0x0001883a:    b082        ..      SUB      sp,sp,#8
        0x0001883c:    f2410008    A...    MOV      r0,#0x1008
        0x00018840:    f2c40002    ....    MOVT     r0,#0x4002
        0x00018844:    6800        .h      LDR      r0,[r0,#0]
        0x00018846:    02c0        ..      LSLS     r0,r0,#11
        0x00018848:    d512        ..      BPL      0x18870 ; am_bsp_itm_printf_enable + 56
        0x0001884a:    f640207c    @.|     MOV      r0,#0xa7c
        0x0001884e:    f2c4000c    ....    MOVT     r0,#0x400c
        0x00018852:    6800        .h      LDR      r0,[r0,#0]
        0x00018854:    07c0        ..      LSLS     r0,r0,#31
        0x00018856:    d00b        ..      BEQ      0x18870 ; am_bsp_itm_printf_enable + 56
        0x00018858:    a801        ..      ADD      r0,sp,#4
        0x0001885a:    f000fe47    ..G.    BL       am_hal_dcu_get ; 0x194ec
        0x0001885e:    f89d0004    ....    LDRB     r0,[sp,#4]
        0x00018862:    06c0        ..      LSLS     r0,r0,#27
        0x00018864:    d408        ..      BMI      0x18878 ; am_bsp_itm_printf_enable + 64
        0x00018866:    2001        .       MOVS     r0,#1
        0x00018868:    2110        .!      MOVS     r1,#0x10
        0x0001886a:    f000fe8d    ....    BL       am_hal_dcu_update ; 0x19588
        0x0001886e:    b118        ..      CBZ      r0,0x18878 ; am_bsp_itm_printf_enable + 64
        0x00018870:    f04f30ff    O..0    MOV      r0,#0xffffffff
        0x00018874:    b002        ..      ADD      sp,sp,#8
        0x00018876:    bd80        ..      POP      {r7,pc}
        0x00018878:    f24040ef    @..@    MOV      r0,#0x4ef
        0x0001887c:    f2c10000    ....    MOVT     r0,#0x1000
        0x00018880:    2101        .!      MOVS     r1,#1
        0x00018882:    7001        .p      STRB     r1,[r0,#0]
        0x00018884:    f001f854    ..T.    BL       am_hal_itm_enable ; 0x19930
        0x00018888:    f2442040    D.@     MOV      r0,#0x4240
        0x0001888c:    f2c0000f    ....    MOVT     r0,#0xf
        0x00018890:    f002f849    ..I.    BL       am_hal_tpiu_enable ; 0x1a926
        0x00018894:    f240002c    @.,.    MOVW     r0,#0x2c
        0x00018898:    f2c10000    ....    MOVT     r0,#0x1000
        0x0001889c:    6801        .h      LDR      r1,[r0,#0]
        0x0001889e:    201c        .       MOVS     r0,#0x1c
        0x000188a0:    f000ff7c    ..|.    BL       am_hal_gpio_pinconfig ; 0x1979c
        0x000188a4:    f6491075    I.u.    MOV      r0,#0x9975
        0x000188a8:    f2c00001    ....    MOVT     r0,#1
        0x000188ac:    f002f9c6    ....    BL       am_util_stdio_printf_init ; 0x1ac3c
        0x000188b0:    2000        .       MOVS     r0,#0
        0x000188b2:    e7df        ..      B        0x18874 ; am_bsp_itm_printf_enable + 60
    am_bsp_low_power_init
        0x000188b4:    b580        ..      PUSH     {r7,lr}
        0x000188b6:    f001fabb    ....    BL       am_hal_pwrctrl_low_power_init ; 0x19e30
        0x000188ba:    2000        .       MOVS     r0,#0
        0x000188bc:    2100        .!      MOVS     r1,#0
        0x000188be:    f001f8f1    ....    BL       am_hal_pwrctrl_control ; 0x19aa4
        0x000188c2:    e8bd4080    ...@    POP      {r7,lr}
        0x000188c6:    f001bdb1    ....    B.W      am_hal_rtc_osc_disable ; 0x1a42c
        0x000188ca:    0000        ..      MOVS     r0,r0
    am_devices_led_array_init
        0x000188cc:    b580        ..      PUSH     {r7,lr}
        0x000188ce:    b084        ..      SUB      sp,sp,#0x10
        0x000188d0:    9003        ..      STR      r0,[sp,#0xc]
        0x000188d2:    9102        ..      STR      r1,[sp,#8]
        0x000188d4:    9803        ..      LDR      r0,[sp,#0xc]
        0x000188d6:    b120         .      CBZ      r0,0x188e2 ; am_devices_led_array_init + 22
        0x000188d8:    e7ff        ..      B        0x188da ; am_devices_led_array_init + 14
        0x000188da:    9802        ..      LDR      r0,[sp,#8]
        0x000188dc:    2820         (      CMP      r0,#0x20
        0x000188de:    d301        ..      BCC      0x188e4 ; am_devices_led_array_init + 24
        0x000188e0:    e7ff        ..      B        0x188e2 ; am_devices_led_array_init + 22
        0x000188e2:    e012        ..      B        0x1890a ; am_devices_led_array_init + 62
        0x000188e4:    2000        .       MOVS     r0,#0
        0x000188e6:    9001        ..      STR      r0,[sp,#4]
        0x000188e8:    e7ff        ..      B        0x188ea ; am_devices_led_array_init + 30
        0x000188ea:    9801        ..      LDR      r0,[sp,#4]
        0x000188ec:    9902        ..      LDR      r1,[sp,#8]
        0x000188ee:    4288        .B      CMP      r0,r1
        0x000188f0:    d20b        ..      BCS      0x1890a ; am_devices_led_array_init + 62
        0x000188f2:    e7ff        ..      B        0x188f4 ; am_devices_led_array_init + 40
        0x000188f4:    9803        ..      LDR      r0,[sp,#0xc]
        0x000188f6:    9901        ..      LDR      r1,[sp,#4]
        0x000188f8:    eb0000c1    ....    ADD      r0,r0,r1,LSL #3
        0x000188fc:    f000f808    ....    BL       am_devices_led_init ; 0x18910
        0x00018900:    e7ff        ..      B        0x18902 ; am_devices_led_array_init + 54
        0x00018902:    9801        ..      LDR      r0,[sp,#4]
        0x00018904:    3001        .0      ADDS     r0,#1
        0x00018906:    9001        ..      STR      r0,[sp,#4]
        0x00018908:    e7ef        ..      B        0x188ea ; am_devices_led_array_init + 30
        0x0001890a:    b004        ..      ADD      sp,sp,#0x10
        0x0001890c:    bd80        ..      POP      {r7,pc}
        0x0001890e:    0000        ..      MOVS     r0,r0
    am_devices_led_init
        0x00018910:    b580        ..      PUSH     {r7,lr}
        0x00018912:    b082        ..      SUB      sp,sp,#8
        0x00018914:    9001        ..      STR      r0,[sp,#4]
        0x00018916:    9801        ..      LDR      r0,[sp,#4]
        0x00018918:    b128        (.      CBZ      r0,0x18926 ; am_devices_led_init + 22
        0x0001891a:    e7ff        ..      B        0x1891c ; am_devices_led_init + 12
        0x0001891c:    9801        ..      LDR      r0,[sp,#4]
        0x0001891e:    6800        .h      LDR      r0,[r0,#0]
        0x00018920:    2880        .(      CMP      r0,#0x80
        0x00018922:    d301        ..      BCC      0x18928 ; am_devices_led_init + 24
        0x00018924:    e7ff        ..      B        0x18926 ; am_devices_led_init + 22
        0x00018926:    e04e        N.      B        0x189c6 ; am_devices_led_init + 182
        0x00018928:    9801        ..      LDR      r0,[sp,#4]
        0x0001892a:    7900        .y      LDRB     r0,[r0,#4]
        0x0001892c:    0780        ..      LSLS     r0,r0,#30
        0x0001892e:    2800        .(      CMP      r0,#0
        0x00018930:    d516        ..      BPL      0x18960 ; am_devices_led_init + 80
        0x00018932:    e7ff        ..      B        0x18934 ; am_devices_led_init + 36
        0x00018934:    9801        ..      LDR      r0,[sp,#4]
        0x00018936:    6800        .h      LDR      r0,[r0,#0]
        0x00018938:    f24c419c    L..A    MOV      r1,#0xc49c
        0x0001893c:    f2c00101    ....    MOVT     r1,#1
        0x00018940:    6809        .h      LDR      r1,[r1,#0]
        0x00018942:    f000ff2b    ..+.    BL       am_hal_gpio_pinconfig ; 0x1979c
        0x00018946:    9801        ..      LDR      r0,[sp,#4]
        0x00018948:    6800        .h      LDR      r0,[r0,#0]
        0x0001894a:    2103        .!      MOVS     r1,#3
        0x0001894c:    f000ff70    ..p.    BL       am_hal_gpio_state_write ; 0x19830
        0x00018950:    9901        ..      LDR      r1,[sp,#4]
        0x00018952:    6808        .h      LDR      r0,[r1,#0]
        0x00018954:    6849        Ih      LDR      r1,[r1,#4]
        0x00018956:    f0010101    ....    AND      r1,r1,#1
        0x0001895a:    f000ff69    ..i.    BL       am_hal_gpio_state_write ; 0x19830
        0x0001895e:    e032        2.      B        0x189c6 ; am_devices_led_init + 182
        0x00018960:    9801        ..      LDR      r0,[sp,#4]
        0x00018962:    7900        .y      LDRB     r0,[r0,#4]
        0x00018964:    0740        @.      LSLS     r0,r0,#29
        0x00018966:    2800        .(      CMP      r0,#0
        0x00018968:    d516        ..      BPL      0x18998 ; am_devices_led_init + 136
        0x0001896a:    e7ff        ..      B        0x1896c ; am_devices_led_init + 92
        0x0001896c:    9801        ..      LDR      r0,[sp,#4]
        0x0001896e:    6800        .h      LDR      r0,[r0,#0]
        0x00018970:    f24c4198    L..A    MOV      r1,#0xc498
        0x00018974:    f2c00101    ....    MOVT     r1,#1
        0x00018978:    6809        .h      LDR      r1,[r1,#0]
        0x0001897a:    f000ff0f    ....    BL       am_hal_gpio_pinconfig ; 0x1979c
        0x0001897e:    9801        ..      LDR      r0,[sp,#4]
        0x00018980:    6800        .h      LDR      r0,[r0,#0]
        0x00018982:    2103        .!      MOVS     r1,#3
        0x00018984:    f000ff54    ..T.    BL       am_hal_gpio_state_write ; 0x19830
        0x00018988:    9901        ..      LDR      r1,[sp,#4]
        0x0001898a:    6808        .h      LDR      r0,[r1,#0]
        0x0001898c:    6849        Ih      LDR      r1,[r1,#4]
        0x0001898e:    f0010101    ....    AND      r1,r1,#1
        0x00018992:    f000ff4d    ..M.    BL       am_hal_gpio_state_write ; 0x19830
        0x00018996:    e015        ..      B        0x189c4 ; am_devices_led_init + 180
        0x00018998:    9801        ..      LDR      r0,[sp,#4]
        0x0001899a:    6800        .h      LDR      r0,[r0,#0]
        0x0001899c:    f24c41a0    L..A    MOV      r1,#0xc4a0
        0x000189a0:    f2c00101    ....    MOVT     r1,#1
        0x000189a4:    6809        .h      LDR      r1,[r1,#0]
        0x000189a6:    f000fef9    ....    BL       am_hal_gpio_pinconfig ; 0x1979c
        0x000189aa:    9801        ..      LDR      r0,[sp,#4]
        0x000189ac:    6800        .h      LDR      r0,[r0,#0]
        0x000189ae:    2103        .!      MOVS     r1,#3
        0x000189b0:    f000ff3e    ..>.    BL       am_hal_gpio_state_write ; 0x19830
        0x000189b4:    9901        ..      LDR      r1,[sp,#4]
        0x000189b6:    6808        .h      LDR      r0,[r1,#0]
        0x000189b8:    6849        Ih      LDR      r1,[r1,#4]
        0x000189ba:    f0010101    ....    AND      r1,r1,#1
        0x000189be:    f000ff37    ..7.    BL       am_hal_gpio_state_write ; 0x19830
        0x000189c2:    e7ff        ..      B        0x189c4 ; am_devices_led_init + 180
        0x000189c4:    e7ff        ..      B        0x189c6 ; am_devices_led_init + 182
        0x000189c6:    b002        ..      ADD      sp,sp,#8
        0x000189c8:    bd80        ..      POP      {r7,pc}
        0x000189ca:    0000        ..      MOVS     r0,r0
    am_devices_led_off
        0x000189cc:    b580        ..      PUSH     {r7,lr}
        0x000189ce:    b082        ..      SUB      sp,sp,#8
        0x000189d0:    9001        ..      STR      r0,[sp,#4]
        0x000189d2:    9100        ..      STR      r1,[sp,#0]
        0x000189d4:    9801        ..      LDR      r0,[sp,#4]
        0x000189d6:    b158        X.      CBZ      r0,0x189f0 ; am_devices_led_off + 36
        0x000189d8:    e7ff        ..      B        0x189da ; am_devices_led_off + 14
        0x000189da:    9800        ..      LDR      r0,[sp,#0]
        0x000189dc:    281e        .(      CMP      r0,#0x1e
        0x000189de:    d807        ..      BHI      0x189f0 ; am_devices_led_off + 36
        0x000189e0:    e7ff        ..      B        0x189e2 ; am_devices_led_off + 22
        0x000189e2:    9801        ..      LDR      r0,[sp,#4]
        0x000189e4:    9900        ..      LDR      r1,[sp,#0]
        0x000189e6:    f8500031    P.1.    LDR      r0,[r0,r1,LSL #3]
        0x000189ea:    2880        .(      CMP      r0,#0x80
        0x000189ec:    d301        ..      BCC      0x189f2 ; am_devices_led_off + 38
        0x000189ee:    e7ff        ..      B        0x189f0 ; am_devices_led_off + 36
        0x000189f0:    e02f        /.      B        0x18a52 ; am_devices_led_off + 134
        0x000189f2:    9801        ..      LDR      r0,[sp,#4]
        0x000189f4:    9900        ..      LDR      r1,[sp,#0]
        0x000189f6:    eb0000c1    ....    ADD      r0,r0,r1,LSL #3
        0x000189fa:    7900        .y      LDRB     r0,[r0,#4]
        0x000189fc:    0780        ..      LSLS     r0,r0,#30
        0x000189fe:    2800        .(      CMP      r0,#0
        0x00018a00:    d50c        ..      BPL      0x18a1c ; am_devices_led_off + 80
        0x00018a02:    e7ff        ..      B        0x18a04 ; am_devices_led_off + 56
        0x00018a04:    9801        ..      LDR      r0,[sp,#4]
        0x00018a06:    9a00        ..      LDR      r2,[sp,#0]
        0x00018a08:    eb0001c2    ....    ADD      r1,r0,r2,LSL #3
        0x00018a0c:    f8500032    P.2.    LDR      r0,[r0,r2,LSL #3]
        0x00018a10:    684a        Jh      LDR      r2,[r1,#4]
        0x00018a12:    2101        .!      MOVS     r1,#1
        0x00018a14:    4391        .C      BICS     r1,r1,r2
        0x00018a16:    f000ff0b    ....    BL       am_hal_gpio_state_write ; 0x19830
        0x00018a1a:    e01a        ..      B        0x18a52 ; am_devices_led_off + 134
        0x00018a1c:    9801        ..      LDR      r0,[sp,#4]
        0x00018a1e:    7900        .y      LDRB     r0,[r0,#4]
        0x00018a20:    0740        @.      LSLS     r0,r0,#29
        0x00018a22:    2800        .(      CMP      r0,#0
        0x00018a24:    d50c        ..      BPL      0x18a40 ; am_devices_led_off + 116
        0x00018a26:    e7ff        ..      B        0x18a28 ; am_devices_led_off + 92
        0x00018a28:    9801        ..      LDR      r0,[sp,#4]
        0x00018a2a:    9a00        ..      LDR      r2,[sp,#0]
        0x00018a2c:    eb0001c2    ....    ADD      r1,r0,r2,LSL #3
        0x00018a30:    f8500032    P.2.    LDR      r0,[r0,r2,LSL #3]
        0x00018a34:    684a        Jh      LDR      r2,[r1,#4]
        0x00018a36:    2101        .!      MOVS     r1,#1
        0x00018a38:    4391        .C      BICS     r1,r1,r2
        0x00018a3a:    f000fef9    ....    BL       am_hal_gpio_state_write ; 0x19830
        0x00018a3e:    e007        ..      B        0x18a50 ; am_devices_led_off + 132
        0x00018a40:    9801        ..      LDR      r0,[sp,#4]
        0x00018a42:    9900        ..      LDR      r1,[sp,#0]
        0x00018a44:    f8500031    P.1.    LDR      r0,[r0,r1,LSL #3]
        0x00018a48:    2103        .!      MOVS     r1,#3
        0x00018a4a:    f000fef1    ....    BL       am_hal_gpio_state_write ; 0x19830
        0x00018a4e:    e7ff        ..      B        0x18a50 ; am_devices_led_off + 132
        0x00018a50:    e7ff        ..      B        0x18a52 ; am_devices_led_off + 134
        0x00018a52:    b002        ..      ADD      sp,sp,#8
        0x00018a54:    bd80        ..      POP      {r7,pc}
        0x00018a56:    0000        ..      MOVS     r0,r0
    am_devices_led_on
        0x00018a58:    b580        ..      PUSH     {r7,lr}
        0x00018a5a:    b082        ..      SUB      sp,sp,#8
        0x00018a5c:    9001        ..      STR      r0,[sp,#4]
        0x00018a5e:    9100        ..      STR      r1,[sp,#0]
        0x00018a60:    9801        ..      LDR      r0,[sp,#4]
        0x00018a62:    b158        X.      CBZ      r0,0x18a7c ; am_devices_led_on + 36
        0x00018a64:    e7ff        ..      B        0x18a66 ; am_devices_led_on + 14
        0x00018a66:    9800        ..      LDR      r0,[sp,#0]
        0x00018a68:    281e        .(      CMP      r0,#0x1e
        0x00018a6a:    d807        ..      BHI      0x18a7c ; am_devices_led_on + 36
        0x00018a6c:    e7ff        ..      B        0x18a6e ; am_devices_led_on + 22
        0x00018a6e:    9801        ..      LDR      r0,[sp,#4]
        0x00018a70:    9900        ..      LDR      r1,[sp,#0]
        0x00018a72:    f8500031    P.1.    LDR      r0,[r0,r1,LSL #3]
        0x00018a76:    2880        .(      CMP      r0,#0x80
        0x00018a78:    d301        ..      BCC      0x18a7e ; am_devices_led_on + 38
        0x00018a7a:    e7ff        ..      B        0x18a7c ; am_devices_led_on + 36
        0x00018a7c:    e02f        /.      B        0x18ade ; am_devices_led_on + 134
        0x00018a7e:    9801        ..      LDR      r0,[sp,#4]
        0x00018a80:    9900        ..      LDR      r1,[sp,#0]
        0x00018a82:    eb0000c1    ....    ADD      r0,r0,r1,LSL #3
        0x00018a86:    7900        .y      LDRB     r0,[r0,#4]
        0x00018a88:    0780        ..      LSLS     r0,r0,#30
        0x00018a8a:    2800        .(      CMP      r0,#0
        0x00018a8c:    d50c        ..      BPL      0x18aa8 ; am_devices_led_on + 80
        0x00018a8e:    e7ff        ..      B        0x18a90 ; am_devices_led_on + 56
        0x00018a90:    9801        ..      LDR      r0,[sp,#4]
        0x00018a92:    9a00        ..      LDR      r2,[sp,#0]
        0x00018a94:    eb0001c2    ....    ADD      r1,r0,r2,LSL #3
        0x00018a98:    f8500032    P.2.    LDR      r0,[r0,r2,LSL #3]
        0x00018a9c:    6849        Ih      LDR      r1,[r1,#4]
        0x00018a9e:    f0010101    ....    AND      r1,r1,#1
        0x00018aa2:    f000fec5    ....    BL       am_hal_gpio_state_write ; 0x19830
        0x00018aa6:    e01a        ..      B        0x18ade ; am_devices_led_on + 134
        0x00018aa8:    9801        ..      LDR      r0,[sp,#4]
        0x00018aaa:    7900        .y      LDRB     r0,[r0,#4]
        0x00018aac:    0740        @.      LSLS     r0,r0,#29
        0x00018aae:    2800        .(      CMP      r0,#0
        0x00018ab0:    d50c        ..      BPL      0x18acc ; am_devices_led_on + 116
        0x00018ab2:    e7ff        ..      B        0x18ab4 ; am_devices_led_on + 92
        0x00018ab4:    9801        ..      LDR      r0,[sp,#4]
        0x00018ab6:    9a00        ..      LDR      r2,[sp,#0]
        0x00018ab8:    eb0001c2    ....    ADD      r1,r0,r2,LSL #3
        0x00018abc:    f8500032    P.2.    LDR      r0,[r0,r2,LSL #3]
        0x00018ac0:    6849        Ih      LDR      r1,[r1,#4]
        0x00018ac2:    f0010101    ....    AND      r1,r1,#1
        0x00018ac6:    f000feb3    ....    BL       am_hal_gpio_state_write ; 0x19830
        0x00018aca:    e007        ..      B        0x18adc ; am_devices_led_on + 132
        0x00018acc:    9801        ..      LDR      r0,[sp,#4]
        0x00018ace:    9900        ..      LDR      r1,[sp,#0]
        0x00018ad0:    f8500031    P.1.    LDR      r0,[r0,r1,LSL #3]
        0x00018ad4:    2104        .!      MOVS     r1,#4
        0x00018ad6:    f000feab    ....    BL       am_hal_gpio_state_write ; 0x19830
        0x00018ada:    e7ff        ..      B        0x18adc ; am_devices_led_on + 132
        0x00018adc:    e7ff        ..      B        0x18ade ; am_devices_led_on + 134
        0x00018ade:    b002        ..      ADD      sp,sp,#8
        0x00018ae0:    bd80        ..      POP      {r7,pc}
        0x00018ae2:    0000        ..      MOVS     r0,r0
    am_devices_led_toggle
        0x00018ae4:    b580        ..      PUSH     {r7,lr}
        0x00018ae6:    b084        ..      SUB      sp,sp,#0x10
        0x00018ae8:    9003        ..      STR      r0,[sp,#0xc]
        0x00018aea:    9102        ..      STR      r1,[sp,#8]
        0x00018aec:    9803        ..      LDR      r0,[sp,#0xc]
        0x00018aee:    b158        X.      CBZ      r0,0x18b08 ; am_devices_led_toggle + 36
        0x00018af0:    e7ff        ..      B        0x18af2 ; am_devices_led_toggle + 14
        0x00018af2:    9802        ..      LDR      r0,[sp,#8]
        0x00018af4:    281e        .(      CMP      r0,#0x1e
        0x00018af6:    d807        ..      BHI      0x18b08 ; am_devices_led_toggle + 36
        0x00018af8:    e7ff        ..      B        0x18afa ; am_devices_led_toggle + 22
        0x00018afa:    9803        ..      LDR      r0,[sp,#0xc]
        0x00018afc:    9902        ..      LDR      r1,[sp,#8]
        0x00018afe:    f8500031    P.1.    LDR      r0,[r0,r1,LSL #3]
        0x00018b02:    2880        .(      CMP      r0,#0x80
        0x00018b04:    d301        ..      BCC      0x18b0a ; am_devices_led_toggle + 38
        0x00018b06:    e7ff        ..      B        0x18b08 ; am_devices_led_toggle + 36
        0x00018b08:    e040        @.      B        0x18b8c ; am_devices_led_toggle + 168
        0x00018b0a:    9803        ..      LDR      r0,[sp,#0xc]
        0x00018b0c:    9902        ..      LDR      r1,[sp,#8]
        0x00018b0e:    eb0000c1    ....    ADD      r0,r0,r1,LSL #3
        0x00018b12:    7900        .y      LDRB     r0,[r0,#4]
        0x00018b14:    0780        ..      LSLS     r0,r0,#30
        0x00018b16:    2800        .(      CMP      r0,#0
        0x00018b18:    d508        ..      BPL      0x18b2c ; am_devices_led_toggle + 72
        0x00018b1a:    e7ff        ..      B        0x18b1c ; am_devices_led_toggle + 56
        0x00018b1c:    9803        ..      LDR      r0,[sp,#0xc]
        0x00018b1e:    9902        ..      LDR      r1,[sp,#8]
        0x00018b20:    f8500031    P.1.    LDR      r0,[r0,r1,LSL #3]
        0x00018b24:    2102        .!      MOVS     r1,#2
        0x00018b26:    f000fe83    ....    BL       am_hal_gpio_state_write ; 0x19830
        0x00018b2a:    e02f        /.      B        0x18b8c ; am_devices_led_toggle + 168
        0x00018b2c:    9803        ..      LDR      r0,[sp,#0xc]
        0x00018b2e:    7900        .y      LDRB     r0,[r0,#4]
        0x00018b30:    0740        @.      LSLS     r0,r0,#29
        0x00018b32:    2800        .(      CMP      r0,#0
        0x00018b34:    d508        ..      BPL      0x18b48 ; am_devices_led_toggle + 100
        0x00018b36:    e7ff        ..      B        0x18b38 ; am_devices_led_toggle + 84
        0x00018b38:    9803        ..      LDR      r0,[sp,#0xc]
        0x00018b3a:    9902        ..      LDR      r1,[sp,#8]
        0x00018b3c:    f8500031    P.1.    LDR      r0,[r0,r1,LSL #3]
        0x00018b40:    2102        .!      MOVS     r1,#2
        0x00018b42:    f000fe75    ..u.    BL       am_hal_gpio_state_write ; 0x19830
        0x00018b46:    e020         .      B        0x18b8a ; am_devices_led_toggle + 166
        0x00018b48:    9803        ..      LDR      r0,[sp,#0xc]
        0x00018b4a:    9902        ..      LDR      r1,[sp,#8]
        0x00018b4c:    f8500031    P.1.    LDR      r0,[r0,r1,LSL #3]
        0x00018b50:    2102        .!      MOVS     r1,#2
        0x00018b52:    466a        jF      MOV      r2,sp
        0x00018b54:    f000fe50    ..P.    BL       am_hal_gpio_state_read ; 0x197f8
        0x00018b58:    9001        ..      STR      r0,[sp,#4]
        0x00018b5a:    9801        ..      LDR      r0,[sp,#4]
        0x00018b5c:    b9a0        ..      CBNZ     r0,0x18b88 ; am_devices_led_toggle + 164
        0x00018b5e:    e7ff        ..      B        0x18b60 ; am_devices_led_toggle + 124
        0x00018b60:    9800        ..      LDR      r0,[sp,#0]
        0x00018b62:    b140        @.      CBZ      r0,0x18b76 ; am_devices_led_toggle + 146
        0x00018b64:    e7ff        ..      B        0x18b66 ; am_devices_led_toggle + 130
        0x00018b66:    9803        ..      LDR      r0,[sp,#0xc]
        0x00018b68:    9902        ..      LDR      r1,[sp,#8]
        0x00018b6a:    f8500031    P.1.    LDR      r0,[r0,r1,LSL #3]
        0x00018b6e:    2103        .!      MOVS     r1,#3
        0x00018b70:    f000fe5e    ..^.    BL       am_hal_gpio_state_write ; 0x19830
        0x00018b74:    e007        ..      B        0x18b86 ; am_devices_led_toggle + 162
        0x00018b76:    9803        ..      LDR      r0,[sp,#0xc]
        0x00018b78:    9902        ..      LDR      r1,[sp,#8]
        0x00018b7a:    f8500031    P.1.    LDR      r0,[r0,r1,LSL #3]
        0x00018b7e:    2104        .!      MOVS     r1,#4
        0x00018b80:    f000fe56    ..V.    BL       am_hal_gpio_state_write ; 0x19830
        0x00018b84:    e7ff        ..      B        0x18b86 ; am_devices_led_toggle + 162
        0x00018b86:    e7ff        ..      B        0x18b88 ; am_devices_led_toggle + 164
        0x00018b88:    e7ff        ..      B        0x18b8a ; am_devices_led_toggle + 166
        0x00018b8a:    e7ff        ..      B        0x18b8c ; am_devices_led_toggle + 168
        0x00018b8c:    b004        ..      ADD      sp,sp,#0x10
        0x00018b8e:    bd80        ..      POP      {r7,pc}
    am_hal_adc_configure
        0x00018b90:    b510        ..      PUSH     {r4,lr}
        0x00018b92:    b3b0        ..      CBZ      r0,0x18c02 ; am_hal_adc_configure + 114
        0x00018b94:    6800        .h      LDR      r0,[r0,#0]
        0x00018b96:    f64a72af    J..r    MOV      r2,#0xafaf
        0x00018b9a:    f020407e     .~@    BIC      r0,r0,#0xfe000000
        0x00018b9e:    f2c012af    ....    MOVT     r2,#0x1af
        0x00018ba2:    4290        .B      CMP      r0,r2
        0x00018ba4:    d12d        -.      BNE      0x18c02 ; am_hal_adc_configure + 114
        0x00018ba6:    7808        .x      LDRB     r0,[r1,#0]
        0x00018ba8:    2802        .(      CMP      r0,#2
        0x00018baa:    bf1c        ..      ITT      NE
        0x00018bac:    2006        .       MOVNE    r0,#6
        0x00018bae:    bd10        ..      POPNE    {r4,pc}
        0x00018bb0:    788a        .x      LDRB     r2,[r1,#2]
        0x00018bb2:    f891c001    ....    LDRB     r12,[r1,#1]
        0x00018bb6:    78cb        .x      LDRB     r3,[r1,#3]
        0x00018bb8:    f44f2000    O..     MOV      r0,#0x80000
        0x00018bbc:    f891e004    ....    LDRB     lr,[r1,#4]
        0x00018bc0:    ea0040c2    ...@    AND      r0,r0,r2,LSL #19
        0x00018bc4:    f0030407    ....    AND      r4,r3,#7
        0x00018bc8:    794a        Jy      LDRB     r2,[r1,#5]
        0x00018bca:    f36c5014    l..P    BFI      r0,r12,#20,#1
        0x00018bce:    f00e0301    ....    AND      r3,lr,#1
        0x00018bd2:    7989        .y      LDRB     r1,[r1,#6]
        0x00018bd4:    ea404004    @..@    ORR      r0,r0,r4,LSL #16
        0x00018bd8:    f0020201    ....    AND      r2,r2,#1
        0x00018bdc:    ea401003    @...    ORR      r0,r0,r3,LSL #4
        0x00018be0:    f0010101    ....    AND      r1,r1,#1
        0x00018be4:    ea4000c2    @...    ORR      r0,r0,r2,LSL #3
        0x00018be8:    ea400081    @...    ORR      r0,r0,r1,LSL #2
        0x00018bec:    f0407000    @..p    ORR      r0,r0,#0x2000000
        0x00018bf0:    f2480100    H...    MOVW     r1,#0x8000
        0x00018bf4:    f4405080    @..P    ORR      r0,r0,#0x1000
        0x00018bf8:    f2c40103    ....    MOVT     r1,#0x4003
        0x00018bfc:    6008        .`      STR      r0,[r1,#0]
        0x00018bfe:    2000        .       MOVS     r0,#0
        0x00018c00:    bd10        ..      POP      {r4,pc}
        0x00018c02:    2002        .       MOVS     r0,#2
        0x00018c04:    bd10        ..      POP      {r4,pc}
    am_hal_adc_configure_irtt
        0x00018c06:    b1a8        ..      CBZ      r0,0x18c34 ; am_hal_adc_configure_irtt + 46
        0x00018c08:    6800        .h      LDR      r0,[r0,#0]
        0x00018c0a:    f64a72af    J..r    MOV      r2,#0xafaf
        0x00018c0e:    f020407e     .~@    BIC      r0,r0,#0xfe000000
        0x00018c12:    f2c012af    ....    MOVT     r2,#0x1af
        0x00018c16:    4290        .B      CMP      r0,r2
        0x00018c18:    d10c        ..      BNE      0x18c34 ; am_hal_adc_configure_irtt + 46
        0x00018c1a:    6848        Hh      LDR      r0,[r1,#4]
        0x00018c1c:    7849        Ix      LDRB     r1,[r1,#1]
        0x00018c1e:    f36f209f    o..     BFC      r0,#10,#22
        0x00018c22:    f3614012    a..@    BFI      r0,r1,#16,#3
        0x00018c26:    f2480140    H.@.    MOV      r1,#0x8040
        0x00018c2a:    f2c40103    ....    MOVT     r1,#0x4003
        0x00018c2e:    6008        .`      STR      r0,[r1,#0]
        0x00018c30:    2000        .       MOVS     r0,#0
        0x00018c32:    4770        pG      BX       lr
        0x00018c34:    2002        .       MOVS     r0,#2
        0x00018c36:    4770        pG      BX       lr
    am_hal_adc_configure_slot
        0x00018c38:    b510        ..      PUSH     {r4,lr}
        0x00018c3a:    b3d8        ..      CBZ      r0,0x18cb4 ; am_hal_adc_configure_slot + 124
        0x00018c3c:    6800        .h      LDR      r0,[r0,#0]
        0x00018c3e:    f64a73af    J..s    MOV      r3,#0xafaf
        0x00018c42:    f020407e     .~@    BIC      r0,r0,#0xfe000000
        0x00018c46:    f2c013af    ....    MOVT     r3,#0x1af
        0x00018c4a:    4298        .B      CMP      r0,r3
        0x00018c4c:    d132        2.      BNE      0x18cb4 ; am_hal_adc_configure_slot + 124
        0x00018c4e:    2907        .)      CMP      r1,#7
        0x00018c50:    bf84        ..      ITT      HI
        0x00018c52:    2005        .       MOVHI    r0,#5
        0x00018c54:    bd10        ..      POPHI    {r4,pc}
        0x00018c56:    6850        Ph      LDR      r0,[r2,#4]
        0x00018c58:    f020031f     ...    BIC      r3,r0,#0x1f
        0x00018c5c:    2b20         +      CMP      r3,#0x20
        0x00018c5e:    bf1c        ..      ITT      NE
        0x00018c60:    2006        .       MOVNE    r0,#6
        0x00018c62:    bd10        ..      POPNE    {r4,pc}
        0x00018c64:    0480        ..      LSLS     r0,r0,#18
        0x00018c66:    7813        .x      LDRB     r3,[r2,#0]
        0x00018c68:    f892c008    ....    LDRB     r12,[r2,#8]
        0x00018c6c:    fa3ff080    ?...    UXTB16   r0,r0
        0x00018c70:    f892e009    ....    LDRB     lr,[r2,#9]
        0x00018c74:    7a94        .z      LDRB     r4,[r2,#0xa]
        0x00018c76:    f363601a    c..`    BFI      r0,r3,#24,#3
        0x00018c7a:    f00c0303    ....    AND      r3,r12,#3
        0x00018c7e:    ea404003    @..@    ORR      r0,r0,r3,LSL #16
        0x00018c82:    f00e030f    ....    AND      r3,lr,#0xf
        0x00018c86:    ea402003    @..     ORR      r0,r0,r3,LSL #8
        0x00018c8a:    f004037f    ....    AND      r3,r4,#0x7f
        0x00018c8e:    7ad2        .z      LDRB     r2,[r2,#0xb]
        0x00018c90:    ea400043    @.C.    ORR      r0,r0,r3,LSL #1
        0x00018c94:    4310        .C      ORRS     r0,r0,r2
        0x00018c96:    f248020c    H...    MOV      r2,#0x800c
        0x00018c9a:    f2c40203    ....    MOVT     r2,#0x4003
        0x00018c9e:    f8420021    B.!.    STR      r0,[r2,r1,LSL #2]
        0x00018ca2:    f24040a4    @..@    MOV      r0,#0x4a4
        0x00018ca6:    f2c10000    ....    MOVT     r0,#0x1000
        0x00018caa:    6801        .h      LDR      r1,[r0,#0]
        0x00018cac:    3101        .1      ADDS     r1,#1
        0x00018cae:    6001        .`      STR      r1,[r0,#0]
        0x00018cb0:    2000        .       MOVS     r0,#0
        0x00018cb2:    bd10        ..      POP      {r4,pc}
        0x00018cb4:    2002        .       MOVS     r0,#2
        0x00018cb6:    bd10        ..      POP      {r4,pc}
    am_hal_adc_control
        0x00018cb8:    b1e8        ..      CBZ      r0,0x18cf6 ; am_hal_adc_control + 62
        0x00018cba:    6800        .h      LDR      r0,[r0,#0]
        0x00018cbc:    f64a73af    J..s    MOV      r3,#0xafaf
        0x00018cc0:    f020407e     .~@    BIC      r0,r0,#0xfe000000
        0x00018cc4:    f2c013af    ....    MOVT     r3,#0x1af
        0x00018cc8:    4298        .B      CMP      r0,r3
        0x00018cca:    d114        ..      BNE      0x18cf6 ; am_hal_adc_control + 62
        0x00018ccc:    2903        .)      CMP      r1,#3
        0x00018cce:    f200807b    ..{.    BHI.W    0x18dc8 ; am_hal_adc_control + 272
        0x00018cd2:    e8dff001    ....    TBB      [pc,r1]
    $d.11
        0x00018cd6:    1202        ..      DCW    4610
        0x00018cd8:    634c        Lc      DCW    25420
    $t.12
        0x00018cda:    6850        Ph      LDR      r0,[r2,#4]
        0x00018cdc:    2100        .!      MOVS     r1,#0
        0x00018cde:    ebb15f10    ..._    CMP      r1,r0,LSR #20
        0x00018ce2:    d106        ..      BNE      0x18cf2 ; am_hal_adc_control + 58
        0x00018ce4:    6893        .h      LDR      r3,[r2,#8]
        0x00018ce6:    f64f71ff    O..q    MOV      r1,#0xffff
        0x00018cea:    f2c0010f    ....    MOVT     r1,#0xf
        0x00018cee:    428b        .B      CMP      r3,r1
        0x00018cf0:    d96e        n.      BLS      0x18dd0 ; am_hal_adc_control + 280
        0x00018cf2:    2005        .       MOVS     r0,#5
        0x00018cf4:    4770        pG      BX       lr
        0x00018cf6:    2002        .       MOVS     r0,#2
        0x00018cf8:    4770        pG      BX       lr
        0x00018cfa:    2a00        .*      CMP      r2,#0
        0x00018cfc:    d064        d.      BEQ      0x18dc8 ; am_hal_adc_control + 272
        0x00018cfe:    ed920a02    ....    VLDR     s0,[r2,#8]
        0x00018d02:    ed9f1a39    ..9.    VLDR     s2,[pc,#228] ; [0x18de8] = 0xc2f6e979
        0x00018d06:    eeb40a41    ..A.    VCMP.F32 s0,s2
        0x00018d0a:    eef1fa10    ....    VMRS     APSR_nzcv,FPSCR
        0x00018d0e:    d15d        ].      BNE      0x18dcc ; am_hal_adc_control + 276
        0x00018d10:    f24040f0    @..@    MOVW     r0,#0x4f0
        0x00018d14:    f2c10000    ....    MOVT     r0,#0x1000
        0x00018d18:    ed901a00    ....    VLDR     s2,[r0,#0]
        0x00018d1c:    ed920a00    ....    VLDR     s0,[r2,#0]
        0x00018d20:    eeb51a40    ..@.    VCMP.F32 s2,#0.0
        0x00018d24:    eef1fa10    ....    VMRS     APSR_nzcv,FPSCR
        0x00018d28:    d113        ..      BNE      0x18d52 ; am_hal_adc_control + 154
        0x00018d2a:    f6401164    @.d.    MOV      r1,#0x964
        0x00018d2e:    f2c10100    ....    MOVT     r1,#0x1000
        0x00018d32:    ed911a01    ....    VLDR     s2,[r1,#4]
        0x00018d36:    ed912a02    ...*    VLDR     s4,[r1,#8]
        0x00018d3a:    ed913a00    ...:    VLDR     s6,[r1,#0]
        0x00018d3e:    ee321a01    2...    VADD.F32 s2,s4,s2
        0x00018d42:    ed9f2a2a    ..**    VLDR     s4,[pc,#168] ; [0x18dec] = 0xc3910000
        0x00018d46:    ee211a02    !...    VMUL.F32 s2,s2,s4
        0x00018d4a:    ee331a01    3...    VADD.F32 s2,s6,s2
        0x00018d4e:    ed801a00    ....    VSTR     s2,[r0,#0]
        0x00018d52:    ed9f2a27    ..'*    VLDR     s4,[pc,#156] ; [0x18df0] = 0x43910000
        0x00018d56:    2000        .       MOVS     r0,#0
        0x00018d58:    ee200a02     ...    VMUL.F32 s0,s0,s4
        0x00018d5c:    ed9f2a25    ..%*    VLDR     s4,[pc,#148] ; [0x18df4] = 0xc3889333
        0x00018d60:    ee300a01    0...    VADD.F32 s0,s0,s2
        0x00018d64:    ee300a02    0...    VADD.F32 s0,s0,s4
        0x00018d68:    ed820a01    ....    VSTR     s0,[r2,#4]
        0x00018d6c:    4770        pG      BX       lr
        0x00018d6e:    b35a        Z.      CBZ      r2,0x18dc8 ; am_hal_adc_control + 272
        0x00018d70:    ed920a03    ....    VLDR     s0,[r2,#0xc]
        0x00018d74:    ed9f1a1c    ....    VLDR     s2,[pc,#112] ; [0x18de8] = 0xc2f6e979
        0x00018d78:    eeb40a41    ..A.    VCMP.F32 s0,s2
        0x00018d7c:    eef1fa10    ....    VMRS     APSR_nzcv,FPSCR
        0x00018d80:    d124        $.      BNE      0x18dcc ; am_hal_adc_control + 276
        0x00018d82:    f6401064    @.d.    MOV      r0,#0x964
        0x00018d86:    f2c10000    ....    MOVT     r0,#0x1000
        0x00018d8a:    6801        .h      LDR      r1,[r0,#0]
        0x00018d8c:    6011        .`      STR      r1,[r2,#0]
        0x00018d8e:    6841        Ah      LDR      r1,[r0,#4]
        0x00018d90:    6051        Q`      STR      r1,[r2,#4]
        0x00018d92:    6881        .h      LDR      r1,[r0,#8]
        0x00018d94:    6091        .`      STR      r1,[r2,#8]
        0x00018d96:    7b00        .{      LDRB     r0,[r0,#0xc]
        0x00018d98:    60d0        .`      STR      r0,[r2,#0xc]
        0x00018d9a:    e023        #.      B        0x18de4 ; am_hal_adc_control + 300
        0x00018d9c:    b1a2        ..      CBZ      r2,0x18dc8 ; am_hal_adc_control + 272
        0x00018d9e:    ed920a03    ....    VLDR     s0,[r2,#0xc]
        0x00018da2:    ed9f1a11    ....    VLDR     s2,[pc,#68] ; [0x18de8] = 0xc2f6e979
        0x00018da6:    eeb40a41    ..A.    VCMP.F32 s0,s2
        0x00018daa:    eef1fa10    ....    VMRS     APSR_nzcv,FPSCR
        0x00018dae:    d10d        ..      BNE      0x18dcc ; am_hal_adc_control + 276
        0x00018db0:    f6401058    @.X.    MOV      r0,#0x958
        0x00018db4:    f2c10000    ....    MOVT     r0,#0x1000
        0x00018db8:    6801        .h      LDR      r1,[r0,#0]
        0x00018dba:    6011        .`      STR      r1,[r2,#0]
        0x00018dbc:    6840        @h      LDR      r0,[r0,#4]
        0x00018dbe:    6050        P`      STR      r0,[r2,#4]
        0x00018dc0:    2000        .       MOVS     r0,#0
        0x00018dc2:    e9c20002    ....    STRD     r0,r0,[r2,#8]
        0x00018dc6:    4770        pG      BX       lr
        0x00018dc8:    2006        .       MOVS     r0,#6
        0x00018dca:    4770        pG      BX       lr
        0x00018dcc:    2007        .       MOVS     r0,#7
        0x00018dce:    4770        pG      BX       lr
        0x00018dd0:    f248032c    H.,.    MOV      r3,#0x802c
        0x00018dd4:    f2c40303    ....    MOVT     r3,#0x4003
        0x00018dd8:    6018        .`      STR      r0,[r3,#0]
        0x00018dda:    6890        .h      LDR      r0,[r2,#8]
        0x00018ddc:    4008        .@      ANDS     r0,r0,r1
        0x00018dde:    6058        X`      STR      r0,[r3,#4]
        0x00018de0:    7810        .x      LDRB     r0,[r2,#0]
        0x00018de2:    6098        .`      STR      r0,[r3,#8]
        0x00018de4:    2000        .       MOVS     r0,#0
        0x00018de6:    4770        pG      BX       lr
    $d.13
        0x00018de8:    c2f6e979    y...    DCD    3270961529
        0x00018dec:    c3910000    ....    DCD    3281059840
        0x00018df0:    43910000    ...C    DCD    1133576192
        0x00018df4:    c3889333    3...    DCD    3280507699
    $t.14
    am_hal_adc_enable
        0x00018df8:    b570        p.      PUSH     {r4-r6,lr}
        0x00018dfa:    b340        @.      CBZ      r0,0x18e4e ; am_hal_adc_enable + 86
        0x00018dfc:    6801        .h      LDR      r1,[r0,#0]
        0x00018dfe:    f64a73af    J..s    MOV      r3,#0xafaf
        0x00018e02:    f021427e    !.~B    BIC      r2,r1,#0xfe000000
        0x00018e06:    f2c013af    ....    MOVT     r3,#0x1af
        0x00018e0a:    429a        .B      CMP      r2,r3
        0x00018e0c:    d11f        ..      BNE      0x18e4e ; am_hal_adc_enable + 86
        0x00018e0e:    0189        ..      LSLS     r1,r1,#6
        0x00018e10:    f04f0100    O...    MOV      r1,#0
        0x00018e14:    d41c        ..      BMI      0x18e50 ; am_hal_adc_enable + 88
        0x00018e16:    f2482400    H..$    MOVW     r4,#0x8200
        0x00018e1a:    f2c40403    ....    MOVT     r4,#0x4003
        0x00018e1e:    6825        %h      LDR      r5,[r4,#0]
        0x00018e20:    6021        !`      STR      r1,[r4,#0]
        0x00018e22:    f64f6100    O..a    MOVW     r1,#0xfe00
        0x00018e26:    f6cf71ff    ...q    MOVT     r1,#0xffff
        0x00018e2a:    6866        fh      LDR      r6,[r4,#4]
        0x00018e2c:    5862        bX      LDR      r2,[r4,r1]
        0x00018e2e:    f0420201    B...    ORR      r2,r2,#1
        0x00018e32:    5062        bP      STR      r2,[r4,r1]
        0x00018e34:    6801        .h      LDR      r1,[r0,#0]
        0x00018e36:    f0417100    A..q    ORR      r1,r1,#0x2000000
        0x00018e3a:    6001        .`      STR      r1,[r0,#0]
        0x00018e3c:    f7fffac2    ....    BL       ForceFIFOpop ; 0x183c4
        0x00018e40:    2100        .!      MOVS     r1,#0
        0x00018e42:    07b0        ..      LSLS     r0,r6,#30
        0x00018e44:    bf04        ..      ITT      EQ
        0x00018e46:    2003        .       MOVEQ    r0,#3
        0x00018e48:    60a0        .`      STREQ    r0,[r4,#8]
        0x00018e4a:    6025        %`      STR      r5,[r4,#0]
        0x00018e4c:    e000        ..      B        0x18e50 ; am_hal_adc_enable + 88
        0x00018e4e:    2102        .!      MOVS     r1,#2
        0x00018e50:    4608        .F      MOV      r0,r1
        0x00018e52:    bd70        p.      POP      {r4-r6,pc}
    am_hal_adc_initialize
        0x00018e54:    b570        p.      PUSH     {r4-r6,lr}
        0x00018e56:    b108        ..      CBZ      r0,0x18e5c ; am_hal_adc_initialize + 8
        0x00018e58:    2005        .       MOVS     r0,#5
        0x00018e5a:    bd70        p.      POP      {r4-r6,pc}
        0x00018e5c:    2900        .)      CMP      r1,#0
        0x00018e5e:    d04d        M.      BEQ      0x18efc ; am_hal_adc_initialize + 168
        0x00018e60:    f24040a8    @..@    MOVW     r0,#0x4a8
        0x00018e64:    f2c10000    ....    MOVT     r0,#0x1000
        0x00018e68:    6802        .h      LDR      r2,[r0,#0]
        0x00018e6a:    01d3        ..      LSLS     r3,r2,#7
        0x00018e6c:    bf44        D.      ITT      MI
        0x00018e6e:    2007        .       MOVMI    r0,#7
        0x00018e70:    bd70        p.      POPMI    {r4-r6,pc}
        0x00018e72:    f64a73af    J..s    MOV      r3,#0xafaf
        0x00018e76:    f2c013af    ....    MOVT     r3,#0x1af
        0x00018e7a:    f3630218    c...    BFI      r2,r3,#0,#25
        0x00018e7e:    2300        .#      MOVS     r3,#0
        0x00018e80:    e9c02300    ...#    STRD     r2,r3,[r0,#0]
        0x00018e84:    f24042a4    @..B    MOV      r2,#0x4a4
        0x00018e88:    f6401464    @.d.    MOV      r4,#0x964
        0x00018e8c:    f2c10200    ....    MOVT     r2,#0x1000
        0x00018e90:    f2c10400    ....    MOVT     r4,#0x1000
        0x00018e94:    6013        .`      STR      r3,[r2,#0]
        0x00018e96:    6008        .`      STR      r0,[r1,#0]
        0x00018e98:    2001        .       MOVS     r0,#1
        0x00018e9a:    f44f6198    O..a    MOV      r1,#0x4c0
        0x00018e9e:    2201        ."      MOVS     r2,#1
        0x00018ea0:    4623        #F      MOV      r3,r4
        0x00018ea2:    2601        .&      MOVS     r6,#1
        0x00018ea4:    f000fdb4    ....    BL       am_hal_mram_info_read ; 0x19a10
        0x00018ea8:    4605        .F      MOV      r5,r0
        0x00018eaa:    1d23        #.      ADDS     r3,r4,#4
        0x00018eac:    2001        .       MOVS     r0,#1
        0x00018eae:    f24041c1    @..A    MOV      r1,#0x4c1
        0x00018eb2:    2201        ."      MOVS     r2,#1
        0x00018eb4:    f000fdac    ....    BL       am_hal_mram_info_read ; 0x19a10
        0x00018eb8:    4305        .C      ORRS     r5,r5,r0
        0x00018eba:    f1040308    ....    ADD      r3,r4,#8
        0x00018ebe:    2001        .       MOVS     r0,#1
        0x00018ec0:    f24041c2    @..A    MOV      r1,#0x4c2
        0x00018ec4:    2201        ."      MOVS     r2,#1
        0x00018ec6:    f000fda3    ....    BL       am_hal_mram_info_read ; 0x19a10
        0x00018eca:    4328        (C      ORRS     r0,r0,r5
        0x00018ecc:    d106        ..      BNE      0x18edc ; am_hal_adc_initialize + 136
        0x00018ece:    6820         h      LDR      r0,[r4,#0]
        0x00018ed0:    3001        .0      ADDS     r0,#1
        0x00018ed2:    bf1c        ..      ITT      NE
        0x00018ed4:    6860        `h      LDRNE    r0,[r4,#4]
        0x00018ed6:    f1100001    ....    ADDSNE   r0,r0,#1
        0x00018eda:    d111        ..      BNE      0x18f00 ; am_hal_adc_initialize + 172
        0x00018edc:    f24c0000    L...    MOVW     r0,#0xc000
        0x00018ee0:    f2c43095    ...0    MOVT     r0,#0x4395
        0x00018ee4:    f6490174    I.t.    MOV      r1,#0x9874
        0x00018ee8:    f24472a1    D..r    MOV      r2,#0x47a1
        0x00018eec:    2600        .&      MOVS     r6,#0
        0x00018eee:    f6c37183    ...q    MOVT     r1,#0x3f83
        0x00018ef2:    f6cb328c    ...2    MOVT     r2,#0xbb8c
        0x00018ef6:    e8840007    ....    STM      r4,{r0-r2}
        0x00018efa:    e004        ..      B        0x18f06 ; am_hal_adc_initialize + 178
        0x00018efc:    2006        .       MOVS     r0,#6
        0x00018efe:    bd70        p.      POP      {r4-r6,pc}
        0x00018f00:    68a0        .h      LDR      r0,[r4,#8]
        0x00018f02:    3001        .0      ADDS     r0,#1
        0x00018f04:    d0ea        ..      BEQ      0x18edc ; am_hal_adc_initialize + 136
        0x00018f06:    7326        &s      STRB     r6,[r4,#0xc]
        0x00018f08:    f6401458    @.X.    MOV      r4,#0x958
        0x00018f0c:    f2c10400    ....    MOVT     r4,#0x1000
        0x00018f10:    1d23        #.      ADDS     r3,r4,#4
        0x00018f12:    2001        .       MOVS     r0,#1
        0x00018f14:    f24041ca    @..A    MOV      r1,#0x4ca
        0x00018f18:    2201        ."      MOVS     r2,#1
        0x00018f1a:    f000fd79    ..y.    BL       am_hal_mram_info_read ; 0x19a10
        0x00018f1e:    4605        .F      MOV      r5,r0
        0x00018f20:    2001        .       MOVS     r0,#1
        0x00018f22:    f24041cb    @..A    MOV      r1,#0x4cb
        0x00018f26:    2201        ."      MOVS     r2,#1
        0x00018f28:    4623        #F      MOV      r3,r4
        0x00018f2a:    f000fd71    ..q.    BL       am_hal_mram_info_read ; 0x19a10
        0x00018f2e:    f240110c    @...    MOVW     r1,#0x10c
        0x00018f32:    f2c40102    ....    MOVT     r1,#0x4002
        0x00018f36:    680a        .h      LDR      r2,[r1,#0]
        0x00018f38:    4328        (C      ORRS     r0,r0,r5
        0x00018f3a:    f0220201    "...    BIC      r2,r2,#1
        0x00018f3e:    600a        .`      STR      r2,[r1,#0]
        0x00018f40:    e9d42100    ...!    LDRD     r2,r1,[r4,#0]
        0x00018f44:    fab0f080    ....    CLZ      r0,r0
        0x00018f48:    f1b131ff    ...1    SUBS     r1,r1,#0xffffffff
        0x00018f4c:    ea4f1050    O.P.    LSR      r0,r0,#5
        0x00018f50:    bf18        ..      IT       NE
        0x00018f52:    2101        .!      MOVNE    r1,#1
        0x00018f54:    4008        .@      ANDS     r0,r0,r1
        0x00018f56:    f1b231ff    ...1    SUBS     r1,r2,#0xffffffff
        0x00018f5a:    bf18        ..      IT       NE
        0x00018f5c:    2101        .!      MOVNE    r1,#1
        0x00018f5e:    4008        .@      ANDS     r0,r0,r1
        0x00018f60:    f24041ec    @..A    MOV      r1,#0x4ec
        0x00018f64:    f2c10100    ....    MOVT     r1,#0x1000
        0x00018f68:    7008        .p      STRB     r0,[r1,#0]
        0x00018f6a:    2000        .       MOVS     r0,#0
        0x00018f6c:    bd70        p.      POP      {r4-r6,pc}
    am_hal_adc_interrupt_clear
        0x00018f6e:    b178        x.      CBZ      r0,0x18f90 ; am_hal_adc_interrupt_clear + 34
        0x00018f70:    6800        .h      LDR      r0,[r0,#0]
        0x00018f72:    f64a72af    J..r    MOV      r2,#0xafaf
        0x00018f76:    f020407e     .~@    BIC      r0,r0,#0xfe000000
        0x00018f7a:    f2c012af    ....    MOVT     r2,#0x1af
        0x00018f7e:    4290        .B      CMP      r0,r2
        0x00018f80:    d106        ..      BNE      0x18f90 ; am_hal_adc_interrupt_clear + 34
        0x00018f82:    f2482008    H..     MOV      r0,#0x8208
        0x00018f86:    f2c40003    ....    MOVT     r0,#0x4003
        0x00018f8a:    6001        .`      STR      r1,[r0,#0]
        0x00018f8c:    2000        .       MOVS     r0,#0
        0x00018f8e:    4770        pG      BX       lr
        0x00018f90:    2002        .       MOVS     r0,#2
        0x00018f92:    4770        pG      BX       lr
    am_hal_adc_interrupt_enable
        0x00018f94:    b188        ..      CBZ      r0,0x18fba ; am_hal_adc_interrupt_enable + 38
        0x00018f96:    6800        .h      LDR      r0,[r0,#0]
        0x00018f98:    f64a72af    J..r    MOV      r2,#0xafaf
        0x00018f9c:    f020407e     .~@    BIC      r0,r0,#0xfe000000
        0x00018fa0:    f2c012af    ....    MOVT     r2,#0x1af
        0x00018fa4:    4290        .B      CMP      r0,r2
        0x00018fa6:    d108        ..      BNE      0x18fba ; am_hal_adc_interrupt_enable + 38
        0x00018fa8:    f2482000    H..     MOVW     r0,#0x8200
        0x00018fac:    f2c40003    ....    MOVT     r0,#0x4003
        0x00018fb0:    6802        .h      LDR      r2,[r0,#0]
        0x00018fb2:    4311        .C      ORRS     r1,r1,r2
        0x00018fb4:    6001        .`      STR      r1,[r0,#0]
        0x00018fb6:    2000        .       MOVS     r0,#0
        0x00018fb8:    4770        pG      BX       lr
        0x00018fba:    2002        .       MOVS     r0,#2
        0x00018fbc:    4770        pG      BX       lr
    am_hal_adc_interrupt_status
        0x00018fbe:    b198        ..      CBZ      r0,0x18fe8 ; am_hal_adc_interrupt_status + 42
        0x00018fc0:    6800        .h      LDR      r0,[r0,#0]
        0x00018fc2:    f64a73af    J..s    MOV      r3,#0xafaf
        0x00018fc6:    f020407e     .~@    BIC      r0,r0,#0xfe000000
        0x00018fca:    f2c013af    ....    MOVT     r3,#0x1af
        0x00018fce:    4298        .B      CMP      r0,r3
        0x00018fd0:    d10a        ..      BNE      0x18fe8 ; am_hal_adc_interrupt_status + 42
        0x00018fd2:    f2482300    H..#    MOVW     r3,#0x8200
        0x00018fd6:    f2c40303    ....    MOVT     r3,#0x4003
        0x00018fda:    6858        Xh      LDR      r0,[r3,#4]
        0x00018fdc:    b10a        ..      CBZ      r2,0x18fe2 ; am_hal_adc_interrupt_status + 36
        0x00018fde:    681a        .h      LDR      r2,[r3,#0]
        0x00018fe0:    4010        .@      ANDS     r0,r0,r2
        0x00018fe2:    6008        .`      STR      r0,[r1,#0]
        0x00018fe4:    2000        .       MOVS     r0,#0
        0x00018fe6:    4770        pG      BX       lr
        0x00018fe8:    2002        .       MOVS     r0,#2
        0x00018fea:    4770        pG      BX       lr
    am_hal_adc_irtt_enable
        0x00018fec:    b570        p.      PUSH     {r4-r6,lr}
        0x00018fee:    b350        P.      CBZ      r0,0x19046 ; am_hal_adc_irtt_enable + 90
        0x00018ff0:    6801        .h      LDR      r1,[r0,#0]
        0x00018ff2:    f64a72af    J..r    MOV      r2,#0xafaf
        0x00018ff6:    f021417e    !.~A    BIC      r1,r1,#0xfe000000
        0x00018ffa:    f2c012af    ....    MOVT     r2,#0x1af
        0x00018ffe:    4291        .B      CMP      r1,r2
        0x00019000:    d121        !.      BNE      0x19046 ; am_hal_adc_irtt_enable + 90
        0x00019002:    f2482400    H..$    MOVW     r4,#0x8200
        0x00019006:    f64f6100    O..a    MOVW     r1,#0xfe00
        0x0001900a:    f2c40403    ....    MOVT     r4,#0x4003
        0x0001900e:    f6cf71ff    ...q    MOVT     r1,#0xffff
        0x00019012:    5861        aX      LDR      r1,[r4,r1]
        0x00019014:    07c9        ..      LSLS     r1,r1,#31
        0x00019016:    bf04        ..      ITT      EQ
        0x00019018:    2007        .       MOVEQ    r0,#7
        0x0001901a:    bd70        p.      POPEQ    {r4-r6,pc}
        0x0001901c:    2100        .!      MOVS     r1,#0
        0x0001901e:    6825        %h      LDR      r5,[r4,#0]
        0x00019020:    6021        !`      STR      r1,[r4,#0]
        0x00019022:    f64f6140    O.@a    MOV      r1,#0xfe40
        0x00019026:    f6cf71ff    ...q    MOVT     r1,#0xffff
        0x0001902a:    6866        fh      LDR      r6,[r4,#4]
        0x0001902c:    5862        bX      LDR      r2,[r4,r1]
        0x0001902e:    f0424200    B..B    ORR      r2,r2,#0x80000000
        0x00019032:    5062        bP      STR      r2,[r4,r1]
        0x00019034:    f7fff9c6    ....    BL       ForceFIFOpop ; 0x183c4
        0x00019038:    07b0        ..      LSLS     r0,r6,#30
        0x0001903a:    bf04        ..      ITT      EQ
        0x0001903c:    2003        .       MOVEQ    r0,#3
        0x0001903e:    60a0        .`      STREQ    r0,[r4,#8]
        0x00019040:    2000        .       MOVS     r0,#0
        0x00019042:    6025        %`      STR      r5,[r4,#0]
        0x00019044:    bd70        p.      POP      {r4-r6,pc}
        0x00019046:    2002        .       MOVS     r0,#2
        0x00019048:    bd70        p.      POP      {r4-r6,pc}
    am_hal_adc_power_control
        0x0001904a:    e92d41f0    -..A    PUSH     {r4-r8,lr}
        0x0001904e:    b398        ..      CBZ      r0,0x190b8 ; am_hal_adc_power_control + 110
        0x00019050:    4604        .F      MOV      r4,r0
        0x00019052:    6800        .h      LDR      r0,[r0,#0]
        0x00019054:    f64a73af    J..s    MOV      r3,#0xafaf
        0x00019058:    f020407e     .~@    BIC      r0,r0,#0xfe000000
        0x0001905c:    f2c013af    ....    MOVT     r3,#0x1af
        0x00019060:    4298        .B      CMP      r0,r3
        0x00019062:    d129        ).      BNE      0x190b8 ; am_hal_adc_power_control + 110
        0x00019064:    1e48        H.      SUBS     r0,r1,#1
        0x00019066:    2802        .(      CMP      r0,#2
        0x00019068:    d22a        *.      BCS      0x190c0 ; am_hal_adc_power_control + 118
        0x0001906a:    b302        ..      CBZ      r2,0x190ae ; am_hal_adc_power_control + 100
        0x0001906c:    f2480000    H...    MOVW     r0,#0x8000
        0x00019070:    f2c40003    ....    MOVT     r0,#0x4003
        0x00019074:    68c1        .h      LDR      r1,[r0,#0xc]
        0x00019076:    6161        aa      STR      r1,[r4,#0x14]
        0x00019078:    6901        .i      LDR      r1,[r0,#0x10]
        0x0001907a:    61a1        .a      STR      r1,[r4,#0x18]
        0x0001907c:    6941        Ai      LDR      r1,[r0,#0x14]
        0x0001907e:    61e1        .a      STR      r1,[r4,#0x1c]
        0x00019080:    6981        .i      LDR      r1,[r0,#0x18]
        0x00019082:    6221        !b      STR      r1,[r4,#0x20]
        0x00019084:    69c1        .i      LDR      r1,[r0,#0x1c]
        0x00019086:    6261        ab      STR      r1,[r4,#0x24]
        0x00019088:    6a01        .j      LDR      r1,[r0,#0x20]
        0x0001908a:    62a1        .b      STR      r1,[r4,#0x28]
        0x0001908c:    6a41        Aj      LDR      r1,[r0,#0x24]
        0x0001908e:    62e1        .b      STR      r1,[r4,#0x2c]
        0x00019090:    6a81        .j      LDR      r1,[r0,#0x28]
        0x00019092:    6321        !c      STR      r1,[r4,#0x30]
        0x00019094:    6c01        .l      LDR      r1,[r0,#0x40]
        0x00019096:    6361        ac      STR      r1,[r4,#0x34]
        0x00019098:    6ac1        .j      LDR      r1,[r0,#0x2c]
        0x0001909a:    63a1        .c      STR      r1,[r4,#0x38]
        0x0001909c:    6b01        .k      LDR      r1,[r0,#0x30]
        0x0001909e:    63e1        .c      STR      r1,[r4,#0x3c]
        0x000190a0:    f8d01200    ....    LDR      r1,[r0,#0x200]
        0x000190a4:    6421        !d      STR      r1,[r4,#0x40]
        0x000190a6:    6800        .h      LDR      r0,[r0,#0]
        0x000190a8:    6120         a      STR      r0,[r4,#0x10]
        0x000190aa:    2001        .       MOVS     r0,#1
        0x000190ac:    7320         s      STRB     r0,[r4,#0xc]
        0x000190ae:    200d        .       MOVS     r0,#0xd
        0x000190b0:    f001f88f    ....    BL       am_hal_pwrctrl_periph_disable ; 0x1a1d2
        0x000190b4:    2500        .%      MOVS     r5,#0
        0x000190b6:    e000        ..      B        0x190ba ; am_hal_adc_power_control + 112
        0x000190b8:    2502        .%      MOVS     r5,#2
        0x000190ba:    4628        (F      MOV      r0,r5
        0x000190bc:    e8bd81f0    ....    POP      {r4-r8,pc}
        0x000190c0:    bbc9        ..      CBNZ     r1,0x19136 ; am_hal_adc_power_control + 236
        0x000190c2:    b3d2        ..      CBZ      r2,0x1913a ; am_hal_adc_power_control + 240
        0x000190c4:    7b20         {      LDRB     r0,[r4,#0xc]
        0x000190c6:    b3e0        ..      CBZ      r0,0x19142 ; am_hal_adc_power_control + 248
        0x000190c8:    f2480600    H...    MOVW     r6,#0x8000
        0x000190cc:    200d        .       MOVS     r0,#0xd
        0x000190ce:    f2c40603    ....    MOVT     r6,#0x4003
        0x000190d2:    f001f909    ....    BL       am_hal_pwrctrl_periph_enable ; 0x1a2e8
        0x000190d6:    6960        `i      LDR      r0,[r4,#0x14]
        0x000190d8:    2500        .%      MOVS     r5,#0
        0x000190da:    60f0        .`      STR      r0,[r6,#0xc]
        0x000190dc:    69a0        .i      LDR      r0,[r4,#0x18]
        0x000190de:    6130        0a      STR      r0,[r6,#0x10]
        0x000190e0:    69e0        .i      LDR      r0,[r4,#0x1c]
        0x000190e2:    6170        pa      STR      r0,[r6,#0x14]
        0x000190e4:    6a20         j      LDR      r0,[r4,#0x20]
        0x000190e6:    61b0        .a      STR      r0,[r6,#0x18]
        0x000190e8:    6a60        `j      LDR      r0,[r4,#0x24]
        0x000190ea:    61f0        .a      STR      r0,[r6,#0x1c]
        0x000190ec:    6aa0        .j      LDR      r0,[r4,#0x28]
        0x000190ee:    6230        0b      STR      r0,[r6,#0x20]
        0x000190f0:    6ae0        .j      LDR      r0,[r4,#0x2c]
        0x000190f2:    6270        pb      STR      r0,[r6,#0x24]
        0x000190f4:    6b20         k      LDR      r0,[r4,#0x30]
        0x000190f6:    62b0        .b      STR      r0,[r6,#0x28]
        0x000190f8:    6b60        `k      LDR      r0,[r4,#0x34]
        0x000190fa:    6430        0d      STR      r0,[r6,#0x40]
        0x000190fc:    6ba0        .k      LDR      r0,[r4,#0x38]
        0x000190fe:    62f0        .b      STR      r0,[r6,#0x2c]
        0x00019100:    6be0        .k      LDR      r0,[r4,#0x3c]
        0x00019102:    6330        0c      STR      r0,[r6,#0x30]
        0x00019104:    f8c65200    ...R    STR      r5,[r6,#0x200]
        0x00019108:    f8d68200    ....    LDR      r8,[r6,#0x200]
        0x0001910c:    f8c65200    ...R    STR      r5,[r6,#0x200]
        0x00019110:    f8d67204    ...r    LDR      r7,[r6,#0x204]
        0x00019114:    6920         i      LDR      r0,[r4,#0x10]
        0x00019116:    6030        0`      STR      r0,[r6,#0]
        0x00019118:    4620         F      MOV      r0,r4
        0x0001911a:    f7fff953    ..S.    BL       ForceFIFOpop ; 0x183c4
        0x0001911e:    07b8        ..      LSLS     r0,r7,#30
        0x00019120:    bf04        ..      ITT      EQ
        0x00019122:    2003        .       MOVEQ    r0,#3
        0x00019124:    f8c60208    ....    STREQ    r0,[r6,#0x208]
        0x00019128:    f8c68200    ....    STR      r8,[r6,#0x200]
        0x0001912c:    6c20         l      LDR      r0,[r4,#0x40]
        0x0001912e:    f8c60200    ....    STR      r0,[r6,#0x200]
        0x00019132:    7325        %s      STRB     r5,[r4,#0xc]
        0x00019134:    e7c1        ..      B        0x190ba ; am_hal_adc_power_control + 112
        0x00019136:    2506        .%      MOVS     r5,#6
        0x00019138:    e7bf        ..      B        0x190ba ; am_hal_adc_power_control + 112
        0x0001913a:    200d        .       MOVS     r0,#0xd
        0x0001913c:    f001f8d4    ....    BL       am_hal_pwrctrl_periph_enable ; 0x1a2e8
        0x00019140:    e7b8        ..      B        0x190b4 ; am_hal_adc_power_control + 106
        0x00019142:    2507        .%      MOVS     r5,#7
        0x00019144:    e7b9        ..      B        0x190ba ; am_hal_adc_power_control + 112
        0x00019146:    0000        ..      MOVS     r0,r0
    am_hal_adc_samples_read
        0x00019148:    e92d4ff0    -..O    PUSH     {r4-r11,lr}
        0x0001914c:    b081        ..      SUB      sp,sp,#4
        0x0001914e:    2800        .(      CMP      r0,#0
        0x00019150:    f0008086    ....    BEQ.W    0x19260 ; am_hal_adc_samples_read + 280
        0x00019154:    6800        .h      LDR      r0,[r0,#0]
        0x00019156:    4689        .F      MOV      r9,r1
        0x00019158:    f64a71af    J..q    MOV      r1,#0xafaf
        0x0001915c:    f020407e     .~@    BIC      r0,r0,#0xfe000000
        0x00019160:    f2c011af    ....    MOVT     r1,#0x1af
        0x00019164:    4288        .B      CMP      r0,r1
        0x00019166:    d17b        {.      BNE      0x19260 ; am_hal_adc_samples_read + 280
        0x00019168:    9e0a        ..      LDR      r6,[sp,#0x28]
        0x0001916a:    2e00        ..      CMP      r6,#0
        0x0001916c:    d07c        |.      BEQ      0x19268 ; am_hal_adc_samples_read + 288
        0x0001916e:    f8d3b000    ....    LDR      r11,[r3,#0]
        0x00019172:    f2480a0c    H...    MOV      r10,#0x800c
        0x00019176:    f64f78ff    O..x    MOV      r8,#0xffff
        0x0001917a:    461c        .F      MOV      r4,r3
        0x0001917c:    4615        .F      MOV      r5,r2
        0x0001917e:    f2c40a03    ....    MOVT     r10,#0x4003
        0x00019182:    f2c0080f    ....    MOVT     r8,#0xf
        0x00019186:    2000        .       MOVS     r0,#0
        0x00019188:    2a00        .*      CMP      r2,#0
        0x0001918a:    6018        .`      STR      r0,[r3,#0]
        0x0001918c:    d06e        n.      BEQ      0x1926c ; am_hal_adc_samples_read + 292
        0x0001918e:    f8da0000    ....    LDR      r0,[r10,#0]
        0x00019192:    f8da1004    ....    LDR      r1,[r10,#4]
        0x00019196:    f4006070    ..p`    AND      r0,r0,#0xf00
        0x0001919a:    f4016170    ..pa    AND      r1,r1,#0xf00
        0x0001919e:    f5a06000    ...`    SUB      r0,r0,#0x800
        0x000191a2:    f5b16f00    ...o    CMP      r1,#0x800
        0x000191a6:    f8da1008    ....    LDR      r1,[r10,#8]
        0x000191aa:    fab0f080    ....    CLZ      r0,r0
        0x000191ae:    ea4f1050    O.P.    LSR      r0,r0,#5
        0x000191b2:    f4016170    ..pa    AND      r1,r1,#0xf00
        0x000191b6:    bf08        ..      IT       EQ
        0x000191b8:    3002        .0      ADDEQ    r0,#2
        0x000191ba:    f5b16f00    ...o    CMP      r1,#0x800
        0x000191be:    f8da100c    ....    LDR      r1,[r10,#0xc]
        0x000191c2:    bf08        ..      IT       EQ
        0x000191c4:    3004        .0      ADDEQ    r0,#4
        0x000191c6:    f4016170    ..pa    AND      r1,r1,#0xf00
        0x000191ca:    f5b16f00    ...o    CMP      r1,#0x800
        0x000191ce:    f8da1010    ....    LDR      r1,[r10,#0x10]
        0x000191d2:    bf08        ..      IT       EQ
        0x000191d4:    3008        .0      ADDEQ    r0,r0,#8
        0x000191d6:    f4016170    ..pa    AND      r1,r1,#0xf00
        0x000191da:    f5b16f00    ...o    CMP      r1,#0x800
        0x000191de:    f44f6100    O..a    MOV      r1,#0x800
        0x000191e2:    bf08        ..      IT       EQ
        0x000191e4:    2110        .!      MOVEQ    r1,#0x10
        0x000191e6:    f8da2014    ...     LDR      r2,[r10,#0x14]
        0x000191ea:    4308        .C      ORRS     r0,r0,r1
        0x000191ec:    f4026170    ..pa    AND      r1,r2,#0xf00
        0x000191f0:    f5b16f00    ...o    CMP      r1,#0x800
        0x000191f4:    f44f6100    O..a    MOV      r1,#0x800
        0x000191f8:    bf08        ..      IT       EQ
        0x000191fa:    2120         !      MOVEQ    r1,#0x20
        0x000191fc:    4308        .C      ORRS     r0,r0,r1
        0x000191fe:    f8da1018    ....    LDR      r1,[r10,#0x18]
        0x00019202:    f44f6200    O..b    MOV      r2,#0x800
        0x00019206:    f4016170    ..pa    AND      r1,r1,#0xf00
        0x0001920a:    f5b16f00    ...o    CMP      r1,#0x800
        0x0001920e:    f44f6100    O..a    MOV      r1,#0x800
        0x00019212:    bf08        ..      IT       EQ
        0x00019214:    2140        @!      MOVEQ    r1,#0x40
        0x00019216:    f8da301c    ...0    LDR      r3,[r10,#0x1c]
        0x0001921a:    4308        .C      ORRS     r0,r0,r1
        0x0001921c:    f4036170    ..pa    AND      r1,r3,#0xf00
        0x00019220:    f5b16f00    ...o    CMP      r1,#0x800
        0x00019224:    bf08        ..      IT       EQ
        0x00019226:    2280        ."      MOVEQ    r2,#0x80
        0x00019228:    ea400a02    @...    ORR      r10,r0,r2
        0x0001922c:    f04f0901    O...    MOV      r9,#1
        0x00019230:    f8550b04    U...    LDR      r0,[r5],#4
        0x00019234:    f3c07702    ...w    UBFX     r7,r0,#28,#3
        0x00019238:    fa2af107    *...    LSR      r1,r10,r7
        0x0001923c:    ea000008    ....    AND      r0,r0,r8
        0x00019240:    ea290101    )...    BIC      r1,r9,r1
        0x00019244:    f002fe5e    ..^.    BL       sample_correction_apply ; 0x1bf04
        0x00019248:    f3c0108d    ....    UBFX     r0,r0,#6,#14
        0x0001924c:    e9c60700    ....    STRD     r0,r7,[r6,#0]
        0x00019250:    6820         h      LDR      r0,[r4,#0]
        0x00019252:    3608        .6      ADDS     r6,r6,#8
        0x00019254:    3001        .0      ADDS     r0,#1
        0x00019256:    4558        XE      CMP      r0,r11
        0x00019258:    6020         `      STR      r0,[r4,#0]
        0x0001925a:    d3e9        ..      BCC      0x19230 ; am_hal_adc_samples_read + 232
        0x0001925c:    2000        .       MOVS     r0,#0
        0x0001925e:    e000        ..      B        0x19262 ; am_hal_adc_samples_read + 282
        0x00019260:    2002        .       MOVS     r0,#2
        0x00019262:    b001        ..      ADD      sp,sp,#4
        0x00019264:    e8bd8ff0    ....    POP      {r4-r11,pc}
        0x00019268:    2006        .       MOVS     r0,#6
        0x0001926a:    e7fa        ..      B        0x19262 ; am_hal_adc_samples_read + 282
        0x0001926c:    1d35        5.      ADDS     r5,r6,#4
        0x0001926e:    bf00        ..      NOP      
        0x00019270:    f8da0030    ..0.    LDR      r0,[r10,#0x30]
        0x00019274:    f3c07102    ...q    UBFX     r1,r0,#28,#3
        0x00019278:    f85a1021    Z.!.    LDR      r1,[r10,r1,LSL #2]
        0x0001927c:    f4016170    ..pa    AND      r1,r1,#0xf00
        0x00019280:    f5b16100    ...a    SUBS     r1,r1,#0x800
        0x00019284:    bf18        ..      IT       NE
        0x00019286:    2101        .!      MOVNE    r1,#1
        0x00019288:    f002fe3c    ..<.    BL       sample_correction_apply ; 0x1bf04
        0x0001928c:    f3c07102    ...q    UBFX     r1,r0,#28,#3
        0x00019290:    f3c0128d    ....    UBFX     r2,r0,#6,#14
        0x00019294:    f1b90f00    ....    CMP      r9,#0
        0x00019298:    bf18        ..      IT       NE
        0x0001929a:    ea000208    ....    ANDNE    r2,r0,r8
        0x0001929e:    f8452c04    E..,    STR      r2,[r5,#-4]
        0x000192a2:    6029        )`      STR      r1,[r5,#0]
        0x000192a4:    6821        !h      LDR      r1,[r4,#0]
        0x000192a6:    f0106f7f    ...o    TST      r0,#0xff00000
        0x000192aa:    f1010101    ....    ADD      r1,r1,#1
        0x000192ae:    f04f0000    O...    MOV      r0,#0
        0x000192b2:    6021        !`      STR      r1,[r4,#0]
        0x000192b4:    d0d5        ..      BEQ      0x19262 ; am_hal_adc_samples_read + 282
        0x000192b6:    4559        YE      CMP      r1,r11
        0x000192b8:    f1050508    ....    ADD      r5,r5,#8
        0x000192bc:    d3d8        ..      BCC      0x19270 ; am_hal_adc_samples_read + 296
        0x000192be:    e7d0        ..      B        0x19262 ; am_hal_adc_samples_read + 282
    am_hal_adc_sw_trigger
        0x000192c0:    b180        ..      CBZ      r0,0x192e4 ; am_hal_adc_sw_trigger + 36
        0x000192c2:    6800        .h      LDR      r0,[r0,#0]
        0x000192c4:    f64a71af    J..q    MOV      r1,#0xafaf
        0x000192c8:    f020407e     .~@    BIC      r0,r0,#0xfe000000
        0x000192cc:    f2c011af    ....    MOVT     r1,#0x1af
        0x000192d0:    4288        .B      CMP      r0,r1
        0x000192d2:    d107        ..      BNE      0x192e4 ; am_hal_adc_sw_trigger + 36
        0x000192d4:    f2480008    H...    MOV      r0,#0x8008
        0x000192d8:    f2c40003    ....    MOVT     r0,#0x4003
        0x000192dc:    2137        7!      MOVS     r1,#0x37
        0x000192de:    6001        .`      STR      r1,[r0,#0]
        0x000192e0:    2000        .       MOVS     r0,#0
        0x000192e2:    4770        pG      BX       lr
        0x000192e4:    2002        .       MOVS     r0,#2
        0x000192e6:    4770        pG      BX       lr
    am_hal_cachectrl_config
        0x000192e8:    b5b0        ..      PUSH     {r4,r5,r7,lr}
        0x000192ea:    b082        ..      SUB      sp,sp,#8
        0x000192ec:    4604        .F      MOV      r4,r0
        0x000192ee:    f000fb13    ....    BL       am_hal_interrupt_master_disable ; 0x19918
        0x000192f2:    9001        ..      STR      r0,[sp,#4]
        0x000192f4:    f04f4590    O..E    MOV      r5,#0x48000000
        0x000192f8:    6828        (h      LDR      r0,[r5,#0]
        0x000192fa:    f4207040     .@p    BIC      r0,r0,#0x300
        0x000192fe:    6028        (`      STR      r0,[r5,#0]
        0x00019300:    9801        ..      LDR      r0,[sp,#4]
        0x00019302:    f000fb11    ....    BL       am_hal_interrupt_master_set ; 0x19928
        0x00019306:    78a1        .x      LDRB     r1,[r4,#2]
        0x00019308:    7820         x      LDRB     r0,[r4,#0]
        0x0001930a:    7862        bx      LDRB     r2,[r4,#1]
        0x0001930c:    0049        I.      LSLS     r1,r1,#1
        0x0001930e:    b2c9        ..      UXTB     r1,r1
        0x00019310:    f0020203    ....    AND      r2,r2,#3
        0x00019314:    f3601107    `...    BFI      r1,r0,#4,#4
        0x00019318:    ea412002    A..     ORR      r0,r1,r2,LSL #8
        0x0001931c:    f4401080    @...    ORR      r0,r0,#0x100000
        0x00019320:    f4406180    @..a    ORR      r1,r0,#0x400
        0x00019324:    2000        .       MOVS     r0,#0
        0x00019326:    6029        )`      STR      r1,[r5,#0]
        0x00019328:    b002        ..      ADD      sp,sp,#8
        0x0001932a:    bdb0        ..      POP      {r4,r5,r7,pc}
    am_hal_cachectrl_enable
        0x0001932c:    f04f4090    O..@    MOV      r0,#0x48000000
        0x00019330:    6801        .h      LDR      r1,[r0,#0]
        0x00019332:    f0410101    A...    ORR      r1,r1,#1
        0x00019336:    6001        .`      STR      r1,[r0,#0]
        0x00019338:    2108        .!      MOVS     r1,#8
        0x0001933a:    f6c40100    ....    MOVT     r1,#0x4800
        0x0001933e:    6808        .h      LDR      r0,[r1,#0]
        0x00019340:    f0400201    @...    ORR      r2,r0,#1
        0x00019344:    2000        .       MOVS     r0,#0
        0x00019346:    600a        .`      STR      r2,[r1,#0]
        0x00019348:    4770        pG      BX       lr
    am_hal_daxi_config
        0x0001934a:    b5b0        ..      PUSH     {r4,r5,r7,lr}
        0x0001934c:    b082        ..      SUB      sp,sp,#8
        0x0001934e:    b128        (.      CBZ      r0,0x1935c ; am_hal_daxi_config + 18
        0x00019350:    4605        .F      MOV      r5,r0
        0x00019352:    7880        .x      LDRB     r0,[r0,#2]
        0x00019354:    b910        ..      CBNZ     r0,0x1935c ; am_hal_daxi_config + 18
        0x00019356:    7868        hx      LDRB     r0,[r5,#1]
        0x00019358:    2801        .(      CMP      r0,#1
        0x0001935a:    d903        ..      BLS      0x19364 ; am_hal_daxi_config + 26
        0x0001935c:    2406        .$      MOVS     r4,#6
        0x0001935e:    4620         F      MOV      r0,r4
        0x00019360:    b002        ..      ADD      sp,sp,#8
        0x00019362:    bdb0        ..      POP      {r4,r5,r7,pc}
        0x00019364:    f000fad8    ....    BL       am_hal_interrupt_master_disable ; 0x19918
        0x00019368:    9001        ..      STR      r0,[sp,#4]
        0x0001936a:    2002        .       MOVS     r0,#2
        0x0001936c:    2100        .!      MOVS     r1,#0
        0x0001936e:    2400        .$      MOVS     r4,#0
        0x00019370:    f000f816    ....    BL       am_hal_daxi_control ; 0x193a0
        0x00019374:    78a9        .x      LDRB     r1,[r5,#2]
        0x00019376:    786a        jx      LDRB     r2,[r5,#1]
        0x00019378:    7828        (x      LDRB     r0,[r5,#0]
        0x0001937a:    f0010101    ....    AND      r1,r1,#1
        0x0001937e:    f3622109    b..!    BFI      r1,r2,#8,#2
        0x00019382:    ea414000    A..@    ORR      r0,r1,r0,LSL #16
        0x00019386:    2150        P!      MOVS     r1,#0x50
        0x00019388:    f6c40100    ....    MOVT     r1,#0x4800
        0x0001938c:    6008        .`      STR      r0,[r1,#0]
        0x0001938e:    2000        .       MOVS     r0,#0
        0x00019390:    f2c470ff    ...p    MOVT     r0,#0x47ff
        0x00019394:    6800        .h      LDR      r0,[r0,#0]
        0x00019396:    9801        ..      LDR      r0,[sp,#4]
        0x00019398:    f000fac6    ....    BL       am_hal_interrupt_master_set ; 0x19928
        0x0001939c:    e7df        ..      B        0x1935e ; am_hal_daxi_config + 20
        0x0001939e:    0000        ..      MOVS     r0,r0
    am_hal_daxi_control
        0x000193a0:    b5b0        ..      PUSH     {r4,r5,r7,lr}
        0x000193a2:    b082        ..      SUB      sp,sp,#8
        0x000193a4:    2801        .(      CMP      r0,#1
        0x000193a6:    d062        b.      BEQ      0x1946e ; am_hal_daxi_control + 206
        0x000193a8:    2803        .(      CMP      r0,#3
        0x000193aa:    d06f        o.      BEQ      0x1948c ; am_hal_daxi_control + 236
        0x000193ac:    2802        .(      CMP      r0,#2
        0x000193ae:    f040809a    @...    BNE.W    0x194e6 ; am_hal_daxi_control + 326
        0x000193b2:    2454        T$      MOVS     r4,#0x54
        0x000193b4:    2500        .%      MOVS     r5,#0
        0x000193b6:    f6c40400    ....    MOVT     r4,#0x4800
        0x000193ba:    f2c475ff    ...u    MOVT     r5,#0x47ff
        0x000193be:    f000faab    ....    BL       am_hal_interrupt_master_disable ; 0x19918
        0x000193c2:    9001        ..      STR      r0,[sp,#4]
        0x000193c4:    f3bf8f4f    ..O.    DSB      
        0x000193c8:    6820         h      LDR      r0,[r4,#0]
        0x000193ca:    f6401154    @.T.    MOV      r1,#0x954
        0x000193ce:    f0400001    @...    ORR      r0,r0,#1
        0x000193d2:    6020         `      STR      r0,[r4,#0]
        0x000193d4:    6828        (h      LDR      r0,[r5,#0]
        0x000193d6:    6820         h      LDR      r0,[r4,#0]
        0x000193d8:    f2c10100    ....    MOVT     r1,#0x1000
        0x000193dc:    f0400002    @...    ORR      r0,r0,#2
        0x000193e0:    6020         `      STR      r0,[r4,#0]
        0x000193e2:    6828        (h      LDR      r0,[r5,#0]
        0x000193e4:    6808        .h      LDR      r0,[r1,#0]
        0x000193e6:    2800        .(      CMP      r0,#0
        0x000193e8:    d03d        =.      BEQ      0x19466 ; am_hal_daxi_control + 198
        0x000193ea:    f6401278    @.x.    MOV      r2,#0x978
        0x000193ee:    f2c10200    ....    MOVT     r2,#0x1000
        0x000193f2:    6812        .h      LDR      r2,[r2,#0]
        0x000193f4:    f6401374    @.t.    MOV      r3,#0x974
        0x000193f8:    f2c10300    ....    MOVT     r3,#0x1000
        0x000193fc:    6812        .h      LDR      r2,[r2,#0]
        0x000193fe:    681b        .h      LDR      r3,[r3,#0]
        0x00019400:    401a        .@      ANDS     r2,r2,r3
        0x00019402:    429a        .B      CMP      r2,r3
        0x00019404:    d12f        /.      BNE      0x19466 ; am_hal_daxi_control + 198
        0x00019406:    f2404298    @..B    MOVW     r2,#0x498
        0x0001940a:    f2c10200    ....    MOVT     r2,#0x1000
        0x0001940e:    6812        .h      LDR      r2,[r2,#0]
        0x00019410:    b1c2        ..      CBZ      r2,0x19444 ; am_hal_daxi_control + 164
        0x00019412:    2200        ."      MOVS     r2,#0
        0x00019414:    2300        .#      MOVS     r3,#0
        0x00019416:    bf00        ..      NOP      
        0x00019418:    50c2        .P      STR      r2,[r0,r3]
        0x0001941a:    3310        .3      ADDS     r3,r3,#0x10
        0x0001941c:    2b40        @+      CMP      r3,#0x40
        0x0001941e:    d1fb        ..      BNE      0x19418 ; am_hal_daxi_control + 120
        0x00019420:    f3bf8f4f    ..O.    DSB      
        0x00019424:    6820         h      LDR      r0,[r4,#0]
        0x00019426:    f0400001    @...    ORR      r0,r0,#1
        0x0001942a:    6020         `      STR      r0,[r4,#0]
        0x0001942c:    6828        (h      LDR      r0,[r5,#0]
        0x0001942e:    6820         h      LDR      r0,[r4,#0]
        0x00019430:    f0400002    @...    ORR      r0,r0,#2
        0x00019434:    6020         `      STR      r0,[r4,#0]
        0x00019436:    6828        (h      LDR      r0,[r5,#0]
        0x00019438:    6808        .h      LDR      r0,[r1,#0]
        0x0001943a:    2100        .!      MOVS     r1,#0
        0x0001943c:    5842        BX      LDR      r2,[r0,r1]
        0x0001943e:    3110        .1      ADDS     r1,r1,#0x10
        0x00019440:    2940        @)      CMP      r1,#0x40
        0x00019442:    d1fb        ..      BNE      0x1943c ; am_hal_daxi_control + 156
        0x00019444:    211e        .!      MOVS     r1,#0x1e
        0x00019446:    bf00        ..      NOP      
        0x00019448:    6802        .h      LDR      r2,[r0,#0]
        0x0001944a:    6802        .h      LDR      r2,[r0,#0]
        0x0001944c:    6802        .h      LDR      r2,[r0,#0]
        0x0001944e:    6802        .h      LDR      r2,[r0,#0]
        0x00019450:    6802        .h      LDR      r2,[r0,#0]
        0x00019452:    6802        .h      LDR      r2,[r0,#0]
        0x00019454:    3901        .9      SUBS     r1,#1
        0x00019456:    d1f7        ..      BNE      0x19448 ; am_hal_daxi_control + 168
        0x00019458:    f3bf8f4f    ..O.    DSB      
        0x0001945c:    6820         h      LDR      r0,[r4,#0]
        0x0001945e:    f0400002    @...    ORR      r0,r0,#2
        0x00019462:    6020         `      STR      r0,[r4,#0]
        0x00019464:    6828        (h      LDR      r0,[r5,#0]
        0x00019466:    9801        ..      LDR      r0,[sp,#4]
        0x00019468:    f000fa5e    ..^.    BL       am_hal_interrupt_master_set ; 0x19928
        0x0001946c:    e00c        ..      B        0x19488 ; am_hal_daxi_control + 232
        0x0001946e:    2054        T       MOVS     r0,#0x54
        0x00019470:    f3bf8f4f    ..O.    DSB      
        0x00019474:    f6c40000    ....    MOVT     r0,#0x4800
        0x00019478:    6801        .h      LDR      r1,[r0,#0]
        0x0001947a:    f0410102    A...    ORR      r1,r1,#2
        0x0001947e:    6001        .`      STR      r1,[r0,#0]
        0x00019480:    2000        .       MOVS     r0,#0
        0x00019482:    f2c470ff    ...p    MOVT     r0,#0x47ff
        0x00019486:    6800        .h      LDR      r0,[r0,#0]
        0x00019488:    2000        .       MOVS     r0,#0
        0x0001948a:    e02d        -.      B        0x194e8 ; am_hal_daxi_control + 328
        0x0001948c:    f04f0006    O...    MOV      r0,#6
        0x00019490:    b351        Q.      CBZ      r1,0x194e8 ; am_hal_daxi_control + 328
        0x00019492:    f011020f    ....    ANDS     r2,r1,#0xf
        0x00019496:    d127        '.      BNE      0x194e8 ; am_hal_daxi_control + 328
        0x00019498:    f24c63cc    L..c    MOV      r3,#0xc6cc
        0x0001949c:    f1010c40    ..@.    ADD      r12,r1,#0x40
        0x000194a0:    2000        .       MOVS     r0,#0
        0x000194a2:    f2c00301    ....    MOVT     r3,#1
        0x000194a6:    bf00        ..      NOP      
        0x000194a8:    581c        .X      LDR      r4,[r3,r0]
        0x000194aa:    428c        .B      CMP      r4,r1
        0x000194ac:    d804        ..      BHI      0x194b8 ; am_hal_daxi_control + 280
        0x000194ae:    181d        ..      ADDS     r5,r3,r0
        0x000194b0:    686a        jh      LDR      r2,[r5,#4]
        0x000194b2:    4422        "D      ADD      r2,r2,r4
        0x000194b4:    4594        .E      CMP      r12,r2
        0x000194b6:    d303        ..      BCC      0x194c0 ; am_hal_daxi_control + 288
        0x000194b8:    3010        .0      ADDS     r0,r0,#0x10
        0x000194ba:    2860        `(      CMP      r0,#0x60
        0x000194bc:    d1f4        ..      BNE      0x194a8 ; am_hal_daxi_control + 264
        0x000194be:    e012        ..      B        0x194e6 ; am_hal_daxi_control + 326
        0x000194c0:    f6401278    @.x.    MOV      r2,#0x978
        0x000194c4:    e9d53502    ...5    LDRD     r3,r5,[r5,#8]
        0x000194c8:    f2c10200    ....    MOVT     r2,#0x1000
        0x000194cc:    6013        .`      STR      r3,[r2,#0]
        0x000194ce:    f6401274    @.t.    MOV      r2,#0x974
        0x000194d2:    f2c10200    ....    MOVT     r2,#0x1000
        0x000194d6:    6015        .`      STR      r5,[r2,#0]
        0x000194d8:    f6401254    @.T.    MOV      r2,#0x954
        0x000194dc:    f2c10200    ....    MOVT     r2,#0x1000
        0x000194e0:    2860        `(      CMP      r0,#0x60
        0x000194e2:    6011        .`      STR      r1,[r2,#0]
        0x000194e4:    d1d0        ..      BNE      0x19488 ; am_hal_daxi_control + 232
        0x000194e6:    2006        .       MOVS     r0,#6
        0x000194e8:    b002        ..      ADD      sp,sp,#8
        0x000194ea:    bdb0        ..      POP      {r4,r5,r7,pc}
    am_hal_dcu_get
        0x000194ec:    b5b0        ..      PUSH     {r4,r5,r7,lr}
        0x000194ee:    b084        ..      SUB      sp,sp,#0x10
        0x000194f0:    f2410108    A...    MOV      r1,#0x1008
        0x000194f4:    f2c40102    ....    MOVT     r1,#0x4002
        0x000194f8:    6809        .h      LDR      r1,[r1,#0]
        0x000194fa:    02c9        ..      LSLS     r1,r1,#11
        0x000194fc:    d506        ..      BPL      0x1950c ; am_hal_dcu_get + 32
        0x000194fe:    f640217c    @.|!    MOV      r1,#0xa7c
        0x00019502:    f2c4010c    ....    MOVT     r1,#0x400c
        0x00019506:    6809        .h      LDR      r1,[r1,#0]
        0x00019508:    07c9        ..      LSLS     r1,r1,#31
        0x0001950a:    d101        ..      BNE      0x19510 ; am_hal_dcu_get + 36
        0x0001950c:    2007        .       MOVS     r0,#7
        0x0001950e:    e038        8.      B        0x19582 ; am_hal_dcu_get + 150
        0x00019510:    f24011c0    @...    MOVW     r1,#0x1c0
        0x00019514:    f2c10100    ....    MOVT     r1,#0x1000
        0x00019518:    6809        .h      LDR      r1,[r1,#0]
        0x0001951a:    f240439c    @..C    MOV      r3,#0x49c
        0x0001951e:    684a        Jh      LDR      r2,[r1,#4]
        0x00019520:    f2c10300    ....    MOVT     r3,#0x1000
        0x00019524:    9201        ..      STR      r2,[sp,#4]
        0x00019526:    6809        .h      LDR      r1,[r1,#0]
        0x00019528:    9102        ..      STR      r1,[sp,#8]
        0x0001952a:    681b        .h      LDR      r3,[r3,#0]
        0x0001952c:    fa21fc03    !...    LSR      r12,r1,r3
        0x00019530:    f1c30120    .. .    RSB      r1,r3,#0x20
        0x00019534:    fa02f101    ....    LSL      r1,r2,r1
        0x00019538:    ea4c0e01    L...    ORR      lr,r12,r1
        0x0001953c:    f1b30120    .. .    SUBS     r1,r3,#0x20
        0x00019540:    bf58        X.      IT       PL
        0x00019542:    fa22fe01    "...    LSRPL    lr,r2,r1
        0x00019546:    fa22f203    "...    LSR      r2,r2,r3
        0x0001954a:    f04f0300    O...    MOV      r3,#0
        0x0001954e:    f04f0c01    O...    MOV      r12,#1
        0x00019552:    f04f0100    O...    MOV      r1,#0
        0x00019556:    bf58        X.      IT       PL
        0x00019558:    2200        ."      MOVPL    r2,#0
        0x0001955a:    bf00        ..      NOP      
        0x0001955c:    f00e0407    ....    AND      r4,lr,#7
        0x00019560:    fa0cf503    ....    LSL      r5,r12,r3
        0x00019564:    f0940f05    ....    TEQ      r4,#5
        0x00019568:    bf08        ..      IT       EQ
        0x0001956a:    4329        )C      ORREQ    r1,r1,r5
        0x0001956c:    ea4f05de    O...    LSR      r5,lr,#3
        0x00019570:    3301        .3      ADDS     r3,#1
        0x00019572:    ea457e42    E.B~    ORR      lr,r5,r2,LSL #29
        0x00019576:    2b14        .+      CMP      r3,#0x14
        0x00019578:    ea4f02d2    O...    LSR      r2,r2,#3
        0x0001957c:    d1ee        ..      BNE      0x1955c ; am_hal_dcu_get + 112
        0x0001957e:    6001        .`      STR      r1,[r0,#0]
        0x00019580:    2000        .       MOVS     r0,#0
        0x00019582:    b004        ..      ADD      sp,sp,#0x10
        0x00019584:    bdb0        ..      POP      {r4,r5,r7,pc}
        0x00019586:    0000        ..      MOVS     r0,r0
    am_hal_dcu_update
        0x00019588:    e92d41f0    -..A    PUSH     {r4-r8,lr}
        0x0001958c:    b086        ..      SUB      sp,sp,#0x18
        0x0001958e:    f2410208    A...    MOV      r2,#0x1008
        0x00019592:    f2c40202    ....    MOVT     r2,#0x4002
        0x00019596:    6812        .h      LDR      r2,[r2,#0]
        0x00019598:    02d2        ..      LSLS     r2,r2,#11
        0x0001959a:    d53b        ;.      BPL      0x19614 ; am_hal_dcu_update + 140
        0x0001959c:    f6402c7c    @.|,    MOV      r12,#0xa7c
        0x000195a0:    f2c40c0c    ....    MOVT     r12,#0x400c
        0x000195a4:    f8dc2000    ...     LDR      r2,[r12,#0]
        0x000195a8:    07d2        ..      LSLS     r2,r2,#31
        0x000195aa:    f04f0207    O...    MOV      r2,#7
        0x000195ae:    d032        2.      BEQ      0x19616 ; am_hal_dcu_update + 142
        0x000195b0:    f240439c    @..C    MOV      r3,#0x49c
        0x000195b4:    f2c10300    ....    MOVT     r3,#0x1000
        0x000195b8:    f8d38000    ....    LDR      r8,[r3,#0]
        0x000195bc:    2500        .%      MOVS     r5,#0
        0x000195be:    2300        .#      MOVS     r3,#0
        0x000195c0:    f04f0e00    O...    MOV      lr,#0
        0x000195c4:    078e        ..      LSLS     r6,r1,#30
        0x000195c6:    d511        ..      BPL      0x195ec ; am_hal_dcu_update + 100
        0x000195c8:    eb080605    ....    ADD      r6,r8,r5
        0x000195cc:    f1c60420    .. .    RSB      r4,r6,#0x20
        0x000195d0:    f1b60720    .. .    SUBS     r7,r6,#0x20
        0x000195d4:    fa22f404    "...    LSR      r4,r2,r4
        0x000195d8:    fa02f606    ....    LSL      r6,r2,r6
        0x000195dc:    bf58        X.      IT       PL
        0x000195de:    fa02f407    ....    LSLPL    r4,r2,r7
        0x000195e2:    bf58        X.      IT       PL
        0x000195e4:    2600        .&      MOVPL    r6,#0
        0x000195e6:    ea4e0e04    N...    ORR      lr,lr,r4
        0x000195ea:    4333        3C      ORRS     r3,r3,r6
        0x000195ec:    3503        .5      ADDS     r5,#3
        0x000195ee:    2d3c        <-      CMP      r5,#0x3c
        0x000195f0:    ea4f0151    O.Q.    LSR      r1,r1,#1
        0x000195f4:    d1e6        ..      BNE      0x195c4 ; am_hal_dcu_update + 60
        0x000195f6:    f24011c4    @...    MOVW     r1,#0x1c4
        0x000195fa:    f2c10100    ....    MOVT     r1,#0x1000
        0x000195fe:    6809        .h      LDR      r1,[r1,#0]
        0x00019600:    684a        Jh      LDR      r2,[r1,#4]
        0x00019602:    9201        ..      STR      r2,[sp,#4]
        0x00019604:    6809        .h      LDR      r1,[r1,#0]
        0x00019606:    ea02020e    ....    AND      r2,r2,lr
        0x0001960a:    ea010403    ....    AND      r4,r1,r3
        0x0001960e:    4322        "C      ORRS     r2,r2,r4
        0x00019610:    9102        ..      STR      r1,[sp,#8]
        0x00019612:    d004        ..      BEQ      0x1961e ; am_hal_dcu_update + 150
        0x00019614:    2207        ."      MOVS     r2,#7
        0x00019616:    4610        .F      MOV      r0,r2
        0x00019618:    b006        ..      ADD      sp,sp,#0x18
        0x0001961a:    e8bd81f0    ....    POP      {r4-r8,pc}
        0x0001961e:    f24011c0    @...    MOVW     r1,#0x1c0
        0x00019622:    f2c10100    ....    MOVT     r1,#0x1000
        0x00019626:    6809        .h      LDR      r1,[r1,#0]
        0x00019628:    f2400520    @. .    MOVW     r5,#0x20
        0x0001962c:    684a        Jh      LDR      r2,[r1,#4]
        0x0001962e:    f2400618    @...    MOVW     r6,#0x18
        0x00019632:    9203        ..      STR      r2,[sp,#0xc]
        0x00019634:    680c        .h      LDR      r4,[r1,#0]
        0x00019636:    f2c10500    ....    MOVT     r5,#0x1000
        0x0001963a:    f2c10600    ....    MOVT     r6,#0x1000
        0x0001963e:    9404        ..      STR      r4,[sp,#0x10]
        0x00019640:    2800        .(      CMP      r0,#0
        0x00019642:    bf18        ..      IT       NE
        0x00019644:    462e        .F      MOVNE    r6,r5
        0x00019646:    e9d65000    ...P    LDRD     r5,r0,[r6,#0]
        0x0001964a:    439c        .C      BICS     r4,r4,r3
        0x0001964c:    ea22020e    "...    BIC      r2,r2,lr
        0x00019650:    402b        +@      ANDS     r3,r3,r5
        0x00019652:    ea00000e    ....    AND      r0,r0,lr
        0x00019656:    4310        .C      ORRS     r0,r0,r2
        0x00019658:    ea430204    C...    ORR      r2,r3,r4
        0x0001965c:    e9cd0203    ....    STRD     r0,r2,[sp,#0xc]
        0x00019660:    9803        ..      LDR      r0,[sp,#0xc]
        0x00019662:    6048        H`      STR      r0,[r1,#4]
        0x00019664:    9804        ..      LDR      r0,[sp,#0x10]
        0x00019666:    6008        .`      STR      r0,[r1,#0]
        0x00019668:    f8dc0000    ....    LDR      r0,[r12,#0]
        0x0001966c:    07c0        ..      LSLS     r0,r0,#31
        0x0001966e:    d0fb        ..      BEQ      0x19668 ; am_hal_dcu_update + 224
        0x00019670:    2200        ."      MOVS     r2,#0
        0x00019672:    e7d0        ..      B        0x19616 ; am_hal_dcu_update + 142
    am_hal_delay_us
        0x00019674:    f2410100    A...    MOVW     r1,#0x1000
        0x00019678:    f2c40102    ....    MOVT     r1,#0x4002
        0x0001967c:    6809        .h      LDR      r1,[r1,#0]
        0x0001967e:    2205        ."      MOVS     r2,#5
        0x00019680:    f0010118    ....    AND      r1,r1,#0x18
        0x00019684:    2910        .)      CMP      r1,#0x10
        0x00019686:    bf08        ..      IT       EQ
        0x00019688:    2206        ."      MOVEQ    r2,#6
        0x0001968a:    fa00f002    ....    LSL      r0,r0,r2
        0x0001968e:    f04f010f    O...    MOV      r1,#0xf
        0x00019692:    bf08        ..      IT       EQ
        0x00019694:    2115        .!      MOVEQ    r1,#0x15
        0x00019696:    4281        .B      CMP      r1,r0
        0x00019698:    bf28        (.      IT       CS
        0x0001969a:    4770        pG      BXCS     lr
        0x0001969c:    1a40        @.      SUBS     r0,r0,r1
        0x0001969e:    f24c7138    L.8q    MOV      r1,#0xc738
        0x000196a2:    f2c00101    ....    MOVT     r1,#1
        0x000196a6:    6a49        Ij      LDR      r1,[r1,#0x24]
        0x000196a8:    4708        .G      BX       r1
        0x000196aa:    0000        ..      MOVS     r0,r0
    am_hal_delay_us_status_change
        0x000196ac:    e92d43f0    -..C    PUSH     {r4-r9,lr}
        0x000196b0:    b081        ..      SUB      sp,sp,#4
        0x000196b2:    460d        .F      MOV      r5,r1
        0x000196b4:    6809        .h      LDR      r1,[r1,#0]
        0x000196b6:    4011        .@      ANDS     r1,r1,r2
        0x000196b8:    4299        .B      CMP      r1,r3
        0x000196ba:    d01b        ..      BEQ      0x196f4 ; am_hal_delay_us_status_change + 72
        0x000196bc:    f24c7138    L.8q    MOV      r1,#0xc738
        0x000196c0:    f2c00101    ....    MOVT     r1,#1
        0x000196c4:    6a4f        Oj      LDR      r7,[r1,#0x24]
        0x000196c6:    f2410900    A...    MOVW     r9,#0x1000
        0x000196ca:    4698        .F      MOV      r8,r3
        0x000196cc:    4616        .F      MOV      r6,r2
        0x000196ce:    1c44        D.      ADDS     r4,r0,#1
        0x000196d0:    f2c40902    ....    MOVT     r9,#0x4002
        0x000196d4:    3c01        .<      SUBS     r4,#1
        0x000196d6:    d00f        ..      BEQ      0x196f8 ; am_hal_delay_us_status_change + 76
        0x000196d8:    f8d90000    ....    LDR      r0,[r9,#0]
        0x000196dc:    f0000018    ....    AND      r0,r0,#0x18
        0x000196e0:    2810        .(      CMP      r0,#0x10
        0x000196e2:    f04f0011    O...    MOV      r0,#0x11
        0x000196e6:    bf08        ..      IT       EQ
        0x000196e8:    202b        +       MOVEQ    r0,#0x2b
        0x000196ea:    47b8        .G      BLX      r7
        0x000196ec:    6828        (h      LDR      r0,[r5,#0]
        0x000196ee:    4030        0@      ANDS     r0,r0,r6
        0x000196f0:    4540        @E      CMP      r0,r8
        0x000196f2:    d1ef        ..      BNE      0x196d4 ; am_hal_delay_us_status_change + 40
        0x000196f4:    2000        .       MOVS     r0,#0
        0x000196f6:    e000        ..      B        0x196fa ; am_hal_delay_us_status_change + 78
        0x000196f8:    2004        .       MOVS     r0,#4
        0x000196fa:    b001        ..      ADD      sp,sp,#4
        0x000196fc:    e8bd83f0    ....    POP      {r4-r9,pc}
    am_hal_delay_us_status_check
        0x00019700:    e92d47f0    -..G    PUSH     {r4-r10,lr}
        0x00019704:    4607        .F      MOV      r7,r0
        0x00019706:    f24c7038    L.8p    MOV      r0,#0xc738
        0x0001970a:    f2c00001    ....    MOVT     r0,#1
        0x0001970e:    f8dd8020    .. .    LDR      r8,[sp,#0x20]
        0x00019712:    6a44        Dj      LDR      r4,[r0,#0x24]
        0x00019714:    f2410a00    A...    MOVW     r10,#0x1000
        0x00019718:    4699        .F      MOV      r9,r3
        0x0001971a:    4615        .F      MOV      r5,r2
        0x0001971c:    460e        .F      MOV      r6,r1
        0x0001971e:    f2c40a02    ....    MOVT     r10,#0x4002
        0x00019722:    bf00        ..      NOP      
        0x00019724:    6830        0h      LDR      r0,[r6,#0]
        0x00019726:    f1b80f00    ....    CMP      r8,#0
        0x0001972a:    ea000005    ....    AND      r0,r0,r5
        0x0001972e:    d003        ..      BEQ      0x19738 ; am_hal_delay_us_status_check + 56
        0x00019730:    4548        HE      CMP      r0,r9
        0x00019732:    d103        ..      BNE      0x1973c ; am_hal_delay_us_status_check + 60
        0x00019734:    e00f        ..      B        0x19756 ; am_hal_delay_us_status_check + 86
        0x00019736:    bf00        ..      NOP      
        0x00019738:    4548        HE      CMP      r0,r9
        0x0001973a:    d10c        ..      BNE      0x19756 ; am_hal_delay_us_status_check + 86
        0x0001973c:    b177        w.      CBZ      r7,0x1975c ; am_hal_delay_us_status_check + 92
        0x0001973e:    f8da0000    ....    LDR      r0,[r10,#0]
        0x00019742:    3f01        .?      SUBS     r7,#1
        0x00019744:    f0000018    ....    AND      r0,r0,#0x18
        0x00019748:    2810        .(      CMP      r0,#0x10
        0x0001974a:    f04f0011    O...    MOV      r0,#0x11
        0x0001974e:    bf08        ..      IT       EQ
        0x00019750:    202b        +       MOVEQ    r0,#0x2b
        0x00019752:    47a0        .G      BLX      r4
        0x00019754:    e7e6        ..      B        0x19724 ; am_hal_delay_us_status_check + 36
        0x00019756:    2000        .       MOVS     r0,#0
        0x00019758:    e8bd87f0    ....    POP      {r4-r10,pc}
        0x0001975c:    2004        .       MOVS     r0,#4
        0x0001975e:    e8bd87f0    ....    POP      {r4-r10,pc}
    am_hal_fault_status_get
        0x00019762:    b1c8        ..      CBZ      r0,0x19798 ; am_hal_fault_status_get + 54
        0x00019764:    2180        .!      MOVS     r1,#0x80
        0x00019766:    f6c40100    ....    MOVT     r1,#0x4800
        0x0001976a:    68ca        .h      LDR      r2,[r1,#0xc]
        0x0001976c:    b2d3        ..      UXTB     r3,r2
        0x0001976e:    f0020201    ....    AND      r2,r2,#1
        0x00019772:    7002        .p      STRB     r2,[r0,#0]
        0x00019774:    f3c30240    ..@.    UBFX     r2,r3,#1,#1
        0x00019778:    7202        .r      STRB     r2,[r0,#8]
        0x0001977a:    f3c30280    ....    UBFX     r2,r3,#2,#1
        0x0001977e:    7402        .t      STRB     r2,[r0,#0x10]
        0x00019780:    684a        Jh      LDR      r2,[r1,#4]
        0x00019782:    60c2        .`      STR      r2,[r0,#0xc]
        0x00019784:    680a        .h      LDR      r2,[r1,#0]
        0x00019786:    6843        Ch      LDR      r3,[r0,#4]
        0x00019788:    431a        .C      ORRS     r2,r2,r3
        0x0001978a:    6042        B`      STR      r2,[r0,#4]
        0x0001978c:    6889        .h      LDR      r1,[r1,#8]
        0x0001978e:    6942        Bi      LDR      r2,[r0,#0x14]
        0x00019790:    4311        .C      ORRS     r1,r1,r2
        0x00019792:    6141        Aa      STR      r1,[r0,#0x14]
        0x00019794:    2000        .       MOVS     r0,#0
        0x00019796:    4770        pG      BX       lr
        0x00019798:    2006        .       MOVS     r0,#6
        0x0001979a:    4770        pG      BX       lr
    am_hal_gpio_pinconfig
        0x0001979c:    b081        ..      SUB      sp,sp,#4
        0x0001979e:    287f        .(      CMP      r0,#0x7f
        0x000197a0:    9100        ..      STR      r1,[sp,#0]
        0x000197a2:    d901        ..      BLS      0x197a8 ; am_hal_gpio_pinconfig + 12
        0x000197a4:    2005        .       MOVS     r0,#5
        0x000197a6:    e01c        ..      B        0x197e2 ; am_hal_gpio_pinconfig + 70
        0x000197a8:    0509        ..      LSLS     r1,r1,#20
        0x000197aa:    d508        ..      BPL      0x197be ; am_hal_gpio_pinconfig + 34
        0x000197ac:    0941        A.      LSRS     r1,r0,#5
        0x000197ae:    a20e        ..      ADR      r2,{pc}+0x3a ; 0x197e8
        0x000197b0:    f8521021    R.!.    LDR      r1,[r2,r1,LSL #2]
        0x000197b4:    f000021f    ....    AND      r2,r0,#0x1f
        0x000197b8:    40d1        .@      LSRS     r1,r1,r2
        0x000197ba:    07c9        ..      LSLS     r1,r1,#31
        0x000197bc:    d010        ..      BEQ      0x197e0 ; am_hal_gpio_pinconfig + 68
        0x000197be:    f2402100    @..!    MOVW     r1,#0x200
        0x000197c2:    f2c40101    ....    MOVT     r1,#0x4001
        0x000197c6:    2273        s"      MOVS     r2,#0x73
        0x000197c8:    600a        .`      STR      r2,[r1,#0]
        0x000197ca:    9a00        ..      LDR      r2,[sp,#0]
        0x000197cc:    f64f6300    O..c    MOVW     r3,#0xfe00
        0x000197d0:    eb010080    ....    ADD      r0,r1,r0,LSL #2
        0x000197d4:    f6cf73ff    ...s    MOVT     r3,#0xffff
        0x000197d8:    50c2        .P      STR      r2,[r0,r3]
        0x000197da:    2000        .       MOVS     r0,#0
        0x000197dc:    6008        .`      STR      r0,[r1,#0]
        0x000197de:    e000        ..      B        0x197e2 ; am_hal_gpio_pinconfig + 70
        0x000197e0:    2007        .       MOVS     r0,#7
        0x000197e2:    b001        ..      ADD      sp,sp,#4
        0x000197e4:    4770        pG      BX       lr
        0x000197e6:    bf00        ..      NOP      
    $d.2
    g_ui32DSpintbl
        0x000197e8:    8fc007e0    ....    DCD    2411726816
        0x000197ec:    e3fbffff    ....    DCD    3824943103
        0x000197f0:    01ffffff    ....    DCD    33554431
        0x000197f4:    00000000    ....    DCD    0
    $t.4
    am_hal_gpio_state_read
        0x000197f8:    f2402304    @..#    MOVW     r3,#0x204
        0x000197fc:    f2c40301    ....    MOVT     r3,#0x4001
        0x00019800:    b141        A.      CBZ      r1,0x19814 ; am_hal_gpio_state_read + 28
        0x00019802:    2902        .)      CMP      r1,#2
        0x00019804:    d005        ..      BEQ      0x19812 ; am_hal_gpio_state_read + 26
        0x00019806:    2901        .)      CMP      r1,#1
        0x00019808:    bf1c        ..      ITT      NE
        0x0001980a:    2006        .       MOVNE    r0,#6
        0x0001980c:    4770        pG      BXNE     lr
        0x0001980e:    3310        .3      ADDS     r3,r3,#0x10
        0x00019810:    e000        ..      B        0x19814 ; am_hal_gpio_state_read + 28
        0x00019812:    3340        @3      ADDS     r3,r3,#0x40
        0x00019814:    f3c01141    ..A.    UBFX     r1,r0,#5,#2
        0x00019818:    f8531021    S.!.    LDR      r1,[r3,r1,LSL #2]
        0x0001981c:    f000001f    ....    AND      r0,r0,#0x1f
        0x00019820:    fa21f000    !...    LSR      r0,r1,r0
        0x00019824:    f0000001    ....    AND      r0,r0,#1
        0x00019828:    6010        .`      STR      r0,[r2,#0]
        0x0001982a:    2000        .       MOVS     r0,#0
        0x0001982c:    4770        pG      BX       lr
        0x0001982e:    0000        ..      MOVS     r0,r0
    am_hal_gpio_state_write
        0x00019830:    b510        ..      PUSH     {r4,lr}
        0x00019832:    b082        ..      SUB      sp,sp,#8
        0x00019834:    2905        .)      CMP      r1,#5
        0x00019836:    d86c        l.      BHI      0x19912 ; am_hal_gpio_state_write + 226
        0x00019838:    4604        .F      MOV      r4,r0
        0x0001983a:    e8dff001    ....    TBB      [pc,r1]
    $d.6
        0x0001983e:    1203        ..      DCW    4611
        0x00019840:    54453621    !6ET    DCD    1413821985
    $t.7
        0x00019844:    f004001f    ....    AND      r0,r4,#0x1f
        0x00019848:    2101        .!      MOVS     r1,#1
        0x0001984a:    f2402214    @.."    MOVW     r2,#0x214
        0x0001984e:    fa01f000    ....    LSL      r0,r1,r0
        0x00019852:    f3c41141    ..A.    UBFX     r1,r4,#5,#2
        0x00019856:    f2c40201    ....    MOVT     r2,#0x4001
        0x0001985a:    eb020181    ....    ADD      r1,r2,r1,LSL #2
        0x0001985e:    6208        .b      STR      r0,[r1,#0x20]
        0x00019860:    e057        W.      B        0x19912 ; am_hal_gpio_state_write + 226
        0x00019862:    f004001f    ....    AND      r0,r4,#0x1f
        0x00019866:    2101        .!      MOVS     r1,#1
        0x00019868:    f2402214    @.."    MOVW     r2,#0x214
        0x0001986c:    fa01f000    ....    LSL      r0,r1,r0
        0x00019870:    f3c41141    ..A.    UBFX     r1,r4,#5,#2
        0x00019874:    f2c40201    ....    MOVT     r2,#0x4001
        0x00019878:    eb020181    ....    ADD      r1,r2,r1,LSL #2
        0x0001987c:    6108        .a      STR      r0,[r1,#0x10]
        0x0001987e:    e048        H.      B        0x19912 ; am_hal_gpio_state_write + 226
        0x00019880:    f000f84a    ..J.    BL       am_hal_interrupt_master_disable ; 0x19918
        0x00019884:    f2402314    @..#    MOVW     r3,#0x214
        0x00019888:    9001        ..      STR      r0,[sp,#4]
        0x0001988a:    f3c41241    ..A.    UBFX     r2,r4,#5,#2
        0x0001988e:    f2c40301    ....    MOVT     r3,#0x4001
        0x00019892:    f004001f    ....    AND      r0,r4,#0x1f
        0x00019896:    2101        .!      MOVS     r1,#1
        0x00019898:    f8534022    S."@    LDR      r4,[r3,r2,LSL #2]
        0x0001989c:    fa01f000    ....    LSL      r0,r1,r0
        0x000198a0:    4060        `@      EORS     r0,r0,r4
        0x000198a2:    f8430022    C.".    STR      r0,[r3,r2,LSL #2]
        0x000198a6:    9801        ..      LDR      r0,[sp,#4]
        0x000198a8:    e031        1.      B        0x1990e ; am_hal_gpio_state_write + 222
        0x000198aa:    f004001f    ....    AND      r0,r4,#0x1f
        0x000198ae:    2101        .!      MOVS     r1,#1
        0x000198b0:    f2402214    @.."    MOVW     r2,#0x214
        0x000198b4:    fa01f000    ....    LSL      r0,r1,r0
        0x000198b8:    f3c41141    ..A.    UBFX     r1,r4,#5,#2
        0x000198bc:    f2c40201    ....    MOVT     r2,#0x4001
        0x000198c0:    eb020181    ....    ADD      r1,r2,r1,LSL #2
        0x000198c4:    6508        .e      STR      r0,[r1,#0x50]
        0x000198c6:    e024        $.      B        0x19912 ; am_hal_gpio_state_write + 226
        0x000198c8:    f004001f    ....    AND      r0,r4,#0x1f
        0x000198cc:    2101        .!      MOVS     r1,#1
        0x000198ce:    f2402214    @.."    MOVW     r2,#0x214
        0x000198d2:    fa01f000    ....    LSL      r0,r1,r0
        0x000198d6:    f3c41141    ..A.    UBFX     r1,r4,#5,#2
        0x000198da:    f2c40201    ....    MOVT     r2,#0x4001
        0x000198de:    eb020181    ....    ADD      r1,r2,r1,LSL #2
        0x000198e2:    6408        .d      STR      r0,[r1,#0x40]
        0x000198e4:    e015        ..      B        0x19912 ; am_hal_gpio_state_write + 226
        0x000198e6:    f000f817    ....    BL       am_hal_interrupt_master_disable ; 0x19918
        0x000198ea:    f2402314    @..#    MOVW     r3,#0x214
        0x000198ee:    f3c41241    ..A.    UBFX     r2,r4,#5,#2
        0x000198f2:    f2c40301    ....    MOVT     r3,#0x4001
        0x000198f6:    9000        ..      STR      r0,[sp,#0]
        0x000198f8:    eb030282    ....    ADD      r2,r3,r2,LSL #2
        0x000198fc:    f004001f    ....    AND      r0,r4,#0x1f
        0x00019900:    2101        .!      MOVS     r1,#1
        0x00019902:    6b13        .k      LDR      r3,[r2,#0x30]
        0x00019904:    fa01f000    ....    LSL      r0,r1,r0
        0x00019908:    4058        X@      EORS     r0,r0,r3
        0x0001990a:    6310        .c      STR      r0,[r2,#0x30]
        0x0001990c:    9800        ..      LDR      r0,[sp,#0]
        0x0001990e:    f000f80b    ....    BL       am_hal_interrupt_master_set ; 0x19928
        0x00019912:    2000        .       MOVS     r0,#0
        0x00019914:    b002        ..      ADD      sp,sp,#8
        0x00019916:    bd10        ..      POP      {r4,pc}
    am_hal_interrupt_master_disable
        0x00019918:    f3ef8010    ....    MRS      r0,PRIMASK
        0x0001991c:    b672        r.      CPSID    i
        0x0001991e:    4770        pG      BX       lr
    am_hal_interrupt_master_enable
        0x00019920:    f3ef8010    ....    MRS      r0,PRIMASK
        0x00019924:    b662        b.      CPSIE    i
        0x00019926:    4770        pG      BX       lr
    am_hal_interrupt_master_set
        0x00019928:    f3808810    ....    MSR      PRIMASK,r0
        0x0001992c:    4770        pG      BX       lr
        0x0001992e:    0000        ..      MOVS     r0,r0
    am_hal_itm_enable
        0x00019930:    f64e50fc    N..P    MOV      r0,#0xedfc
        0x00019934:    f2ce0000    ....    MOVT     r0,#0xe000
        0x00019938:    6801        .h      LDR      r1,[r0,#0]
        0x0001993a:    f0417180    A..q    ORR      r1,r1,#0x1000000
        0x0001993e:    6001        .`      STR      r1,[r0,#0]
        0x00019940:    6801        .h      LDR      r1,[r0,#0]
        0x00019942:    01c9        ..      LSLS     r1,r1,#7
        0x00019944:    d5fc        ..      BPL      0x19940 ; am_hal_itm_enable + 16
        0x00019946:    f6406000    @..`    MOVW     r0,#0xe00
        0x0001994a:    f64c6155    L.Ua    MOV      r1,#0xce55
        0x0001994e:    f2ce0000    ....    MOVT     r0,#0xe000
        0x00019952:    f2cc51ac    ...Q    MOVT     r1,#0xc5ac
        0x00019956:    f8c011b0    ....    STR      r1,[r0,#0x1b0]
        0x0001995a:    210f        .!      MOVS     r1,#0xf
        0x0001995c:    6401        .d      STR      r1,[r0,#0x40]
        0x0001995e:    f04f31ff    O..1    MOV      r1,#0xffffffff
        0x00019962:    6001        .`      STR      r1,[r0,#0]
        0x00019964:    f2405111    @..Q    MOV      r1,#0x511
        0x00019968:    f2c00115    ....    MOVT     r1,#0x15
        0x0001996c:    f8c01080    ....    STR      r1,[r0,#0x80]
        0x00019970:    4770        pG      BX       lr
        0x00019972:    0000        ..      MOVS     r0,r0
    am_hal_itm_print
        0x00019974:    2100        .!      MOVS     r1,#0
        0x00019976:    bf00        ..      NOP      
        0x00019978:    5c42        B\      LDRB     r2,[r0,r1]
        0x0001997a:    3101        .1      ADDS     r1,#1
        0x0001997c:    2a00        .*      CMP      r2,#0
        0x0001997e:    d1fb        ..      BNE      0x19978 ; am_hal_itm_print + 4
        0x00019980:    3901        .9      SUBS     r1,#1
        0x00019982:    bf08        ..      IT       EQ
        0x00019984:    4770        pG      BXEQ     lr
        0x00019986:    f04f4260    O.`B    MOV      r2,#0xe0000000
        0x0001998a:    bf00        ..      NOP      
        0x0001998c:    f890c000    ....    LDRB     r12,[r0,#0]
        0x00019990:    6813        .h      LDR      r3,[r2,#0]
        0x00019992:    2b00        .+      CMP      r3,#0
        0x00019994:    d0fc        ..      BEQ      0x19990 ; am_hal_itm_print + 28
        0x00019996:    3001        .0      ADDS     r0,#1
        0x00019998:    3901        .9      SUBS     r1,#1
        0x0001999a:    f882c000    ....    STRB     r12,[r2,#0]
        0x0001999e:    d1f5        ..      BNE      0x1998c ; am_hal_itm_print + 24
        0x000199a0:    4770        pG      BX       lr
    am_hal_load_ui32
        0x000199a2:    f24c7138    L.8q    MOV      r1,#0xc738
        0x000199a6:    f2c00101    ....    MOVT     r1,#1
        0x000199aa:    6949        Ii      LDR      r1,[r1,#0x14]
        0x000199ac:    4708        .G      BX       r1
    am_hal_mcuctrl_status_get
        0x000199ae:    b318        ..      CBZ      r0,0x199f8 ; am_hal_mcuctrl_status_get + 74
        0x000199b0:    2120         !      MOVS     r1,#0x20
        0x000199b2:    f2c40102    ....    MOVT     r1,#0x4002
        0x000199b6:    680a        .h      LDR      r2,[r1,#0]
        0x000199b8:    2a00        .*      CMP      r2,#0
        0x000199ba:    bf18        ..      IT       NE
        0x000199bc:    2201        ."      MOVNE    r2,#1
        0x000199be:    7002        .p      STRB     r2,[r0,#0]
        0x000199c0:    f8d120ec    ...     LDR      r2,[r1,#0xec]
        0x000199c4:    f3c20240    ..@.    UBFX     r2,r2,#1,#1
        0x000199c8:    7042        Bp      STRB     r2,[r0,#1]
        0x000199ca:    f8d120f0    ...     LDR      r2,[r1,#0xf0]
        0x000199ce:    f0020201    ....    AND      r2,r2,#1
        0x000199d2:    7082        .p      STRB     r2,[r0,#2]
        0x000199d4:    f8d11198    ....    LDR      r1,[r1,#0x198]
        0x000199d8:    f0015240    ..@R    AND      r2,r1,#0x30000000
        0x000199dc:    f1b25200    ...R    SUBS     r2,r2,#0x20000000
        0x000199e0:    f0014140    ..@A    AND      r1,r1,#0xc0000000
        0x000199e4:    bf18        ..      IT       NE
        0x000199e6:    2201        ."      MOVNE    r2,#1
        0x000199e8:    f1b14100    ...A    SUBS     r1,r1,#0x80000000
        0x000199ec:    7102        .q      STRB     r2,[r0,#4]
        0x000199ee:    bf18        ..      IT       NE
        0x000199f0:    2101        .!      MOVNE    r1,#1
        0x000199f2:    70c1        .p      STRB     r1,[r0,#3]
        0x000199f4:    2000        .       MOVS     r0,#0
        0x000199f6:    4770        pG      BX       lr
        0x000199f8:    2006        .       MOVS     r0,#6
        0x000199fa:    4770        pG      BX       lr
    am_hal_mram_ds_init
        0x000199fc:    b580        ..      PUSH     {r7,lr}
        0x000199fe:    f24010cc    @...    MOVW     r0,#0x1cc
        0x00019a02:    f2c10000    ....    MOVT     r0,#0x1000
        0x00019a06:    6800        .h      LDR      r0,[r0,#0]
        0x00019a08:    4780        .G      BLX      r0
        0x00019a0a:    2000        .       MOVS     r0,#0
        0x00019a0c:    bd80        ..      POP      {r7,pc}
        0x00019a0e:    0000        ..      MOVS     r0,r0
    am_hal_mram_info_read
        0x00019a10:    e92d41f0    -..A    PUSH     {r4-r8,lr}
        0x00019a14:    b082        ..      SUB      sp,sp,#8
        0x00019a16:    461c        .F      MOV      r4,r3
        0x00019a18:    4615        .F      MOV      r5,r2
        0x00019a1a:    2801        .(      CMP      r0,#1
        0x00019a1c:    460e        .F      MOV      r6,r1
        0x00019a1e:    d00d        ..      BEQ      0x19a3c ; am_hal_mram_info_read + 44
        0x00019a20:    bbd8        ..      CBNZ     r0,0x19a9a ; am_hal_mram_info_read + 138
        0x00019a22:    2000        .       MOVS     r0,#0
        0x00019a24:    ebb02f56    ..V/    CMP      r0,r6,LSR #9
        0x00019a28:    f04f0702    O...    MOV      r7,#2
        0x00019a2c:    d136        6.      BNE      0x19a9c ; am_hal_mram_info_read + 140
        0x00019a2e:    19a8        ..      ADDS     r0,r5,r6
        0x00019a30:    f5b07f00    ....    CMP      r0,#0x200
        0x00019a34:    d832        2.      BHI      0x19a9c ; am_hal_mram_info_read + 140
        0x00019a36:    f04f4784    O..G    MOV      r7,#0x42000000
        0x00019a3a:    e00e        ..      B        0x19a5a ; am_hal_mram_info_read + 74
        0x00019a3c:    f5a66090    ...`    SUB      r0,r6,#0x480
        0x00019a40:    09c0        ..      LSRS     r0,r0,#7
        0x00019a42:    2802        .(      CMP      r0,#2
        0x00019a44:    f04f0702    O...    MOV      r7,#2
        0x00019a48:    d828        (.      BHI      0x19a9c ; am_hal_mram_info_read + 140
        0x00019a4a:    19a8        ..      ADDS     r0,r5,r6
        0x00019a4c:    f5b06fc0    ...o    CMP      r0,#0x600
        0x00019a50:    d824        $.      BHI      0x19a9c ; am_hal_mram_info_read + 140
        0x00019a52:    f2420700    B...    MOVW     r7,#0x2000
        0x00019a56:    f2c42700    ...'    MOVT     r7,#0x4200
        0x00019a5a:    f24018c8    @...    MOVW     r8,#0x1c8
        0x00019a5e:    f2c10800    ....    MOVT     r8,#0x1000
        0x00019a62:    f8d81000    ....    LDR      r1,[r8,#0]
        0x00019a66:    2001        .       MOVS     r0,#1
        0x00019a68:    4788        .G      BLX      r1
        0x00019a6a:    f7ffff55    ..U.    BL       am_hal_interrupt_master_disable ; 0x19918
        0x00019a6e:    9001        ..      STR      r0,[sp,#4]
        0x00019a70:    b155        U.      CBZ      r5,0x19a88 ; am_hal_mram_info_read + 120
        0x00019a72:    eb070086    ....    ADD      r0,r7,r6,LSL #2
        0x00019a76:    bf00        ..      NOP      
        0x00019a78:    1d06        ..      ADDS     r6,r0,#4
        0x00019a7a:    f7ffff92    ....    BL       am_hal_load_ui32 ; 0x199a2
        0x00019a7e:    f8440b04    D...    STR      r0,[r4],#4
        0x00019a82:    3d01        .=      SUBS     r5,#1
        0x00019a84:    4630        0F      MOV      r0,r6
        0x00019a86:    d1f7        ..      BNE      0x19a78 ; am_hal_mram_info_read + 104
        0x00019a88:    9801        ..      LDR      r0,[sp,#4]
        0x00019a8a:    f7ffff4d    ..M.    BL       am_hal_interrupt_master_set ; 0x19928
        0x00019a8e:    f8d81000    ....    LDR      r1,[r8,#0]
        0x00019a92:    2000        .       MOVS     r0,#0
        0x00019a94:    2700        .'      MOVS     r7,#0
        0x00019a96:    4788        .G      BLX      r1
        0x00019a98:    e000        ..      B        0x19a9c ; am_hal_mram_info_read + 140
        0x00019a9a:    2701        .'      MOVS     r7,#1
        0x00019a9c:    4638        8F      MOV      r0,r7
        0x00019a9e:    b002        ..      ADD      sp,sp,#8
        0x00019aa0:    e8bd81f0    ....    POP      {r4-r8,pc}
    am_hal_pwrctrl_control
        0x00019aa4:    e92d43f0    -..C    PUSH     {r4-r9,lr}
        0x00019aa8:    b089        ..      SUB      sp,sp,#0x24
        0x00019aaa:    2100        .!      MOVS     r1,#0
        0x00019aac:    2803        .(      CMP      r0,#3
        0x00019aae:    9102        ..      STR      r1,[sp,#8]
        0x00019ab0:    9101        ..      STR      r1,[sp,#4]
        0x00019ab2:    d873        s.      BHI      0x19b9c ; am_hal_pwrctrl_control + 248
        0x00019ab4:    e8dff000    ....    TBB      [pc,r0]
    $d.23
        0x00019ab8:    90817402    .t..    DCD    2424402946
    $t.24
        0x00019abc:    2544        D%      MOVS     r5,#0x44
        0x00019abe:    f2c40502    ....    MOVT     r5,#0x4002
        0x00019ac2:    f8d50334    ..4.    LDR      r0,[r5,#0x334]
        0x00019ac6:    210a        .!      MOVS     r1,#0xa
        0x00019ac8:    f02050f8     ..P    BIC      r0,r0,#0x1f000000
        0x00019acc:    f8c50334    ..4.    STR      r0,[r5,#0x334]
        0x00019ad0:    f8d50314    ....    LDR      r0,[r5,#0x314]
        0x00019ad4:    2600        .&      MOVS     r6,#0
        0x00019ad6:    f42000f8     ...    BIC      r0,r0,#0x7c0000
        0x00019ada:    f8c50314    ....    STR      r0,[r5,#0x314]
        0x00019ade:    f8d50300    ....    LDR      r0,[r5,#0x300]
        0x00019ae2:    f361601b    a..`    BFI      r0,r1,#24,#4
        0x00019ae6:    f8c50300    ....    STR      r0,[r5,#0x300]
        0x00019aea:    f8d50300    ....    LDR      r0,[r5,#0x300]
        0x00019aee:    f36120ce    a..     BFI      r0,r1,#11,#4
        0x00019af2:    f8c50300    ....    STR      r0,[r5,#0x300]
        0x00019af6:    f8d50314    ....    LDR      r0,[r5,#0x314]
        0x00019afa:    f44050f0    @..P    ORR      r0,r0,#0x1e00
        0x00019afe:    f8c50314    ....    STR      r0,[r5,#0x314]
        0x00019b02:    f8d50310    ....    LDR      r0,[r5,#0x310]
        0x00019b06:    f44010f0    @...    ORR      r0,r0,#0x1e0000
        0x00019b0a:    f8c50310    ....    STR      r0,[r5,#0x310]
        0x00019b0e:    f8d5031c    ....    LDR      r0,[r5,#0x31c]
        0x00019b12:    f0407070    @.pp    ORR      r0,r0,#0x3c00000
        0x00019b16:    f8c5031c    ....    STR      r0,[r5,#0x31c]
        0x00019b1a:    f8d5031c    ....    LDR      r0,[r5,#0x31c]
        0x00019b1e:    f44010f0    @...    ORR      r0,r0,#0x1e0000
        0x00019b22:    f8c5031c    ....    STR      r0,[r5,#0x31c]
        0x00019b26:    f8d50328    ..(.    LDR      r0,[r5,#0x328]
        0x00019b2a:    f8d5132c    ..,.    LDR      r1,[r5,#0x32c]
        0x00019b2e:    0e80        ..      LSRS     r0,r0,#26
        0x00019b30:    f360619f    `..a    BFI      r1,r0,#26,#6
        0x00019b34:    f8c5132c    ..,.    STR      r1,[r5,#0x32c]
        0x00019b38:    f8d5033c    ..<.    LDR      r0,[r5,#0x33c]
        0x00019b3c:    f24011bc    @...    MOVW     r1,#0x1bc
        0x00019b40:    f0404000    @..@    ORR      r0,r0,#0x80000000
        0x00019b44:    f8c5033c    ..<.    STR      r0,[r5,#0x33c]
        0x00019b48:    f8d5033c    ..<.    LDR      r0,[r5,#0x33c]
        0x00019b4c:    f2c10100    ....    MOVT     r1,#0x1000
        0x00019b50:    f0404080    @..@    ORR      r0,r0,#0x40000000
        0x00019b54:    f8c5033c    ..<.    STR      r0,[r5,#0x33c]
        0x00019b58:    f8d5032c    ..,.    LDR      r0,[r5,#0x32c]
        0x00019b5c:    f3c05005    ...P    UBFX     r0,r0,#20,#6
        0x00019b60:    6008        .`      STR      r0,[r1,#0]
        0x00019b62:    f8d5032c    ..,.    LDR      r0,[r5,#0x32c]
        0x00019b66:    2101        .!      MOVS     r1,#1
        0x00019b68:    f020707c     .|p    BIC      r0,r0,#0x3f00000
        0x00019b6c:    f8c5032c    ..,.    STR      r0,[r5,#0x32c]
        0x00019b70:    2007        .       MOVS     r0,#7
        0x00019b72:    f8c502f8    ....    STR      r0,[r5,#0x2f8]
        0x00019b76:    f8d502fc    ....    LDR      r0,[r5,#0x2fc]
        0x00019b7a:    f0207070     .pp    BIC      r0,r0,#0x3c00000
        0x00019b7e:    f8c502fc    ....    STR      r0,[r5,#0x2fc]
        0x00019b82:    f8d502fc    ....    LDR      r0,[r5,#0x2fc]
        0x00019b86:    f361108a    a...    BFI      r0,r1,#6,#5
        0x00019b8a:    f8c502fc    ....    STR      r0,[r5,#0x2fc]
        0x00019b8e:    a803        ..      ADD      r0,sp,#0xc
        0x00019b90:    9603        ..      STR      r6,[sp,#0xc]
        0x00019b92:    f7fefc65    ..e.    BL       TrimVersionGet ; 0x18460
        0x00019b96:    b348        H.      CBZ      r0,0x19bec ; am_hal_pwrctrl_control + 328
        0x00019b98:    4604        .F      MOV      r4,r0
        0x00019b9a:    e023        #.      B        0x19be4 ; am_hal_pwrctrl_control + 320
        0x00019b9c:    2406        .$      MOVS     r4,#6
        0x00019b9e:    e021        !.      B        0x19be4 ; am_hal_pwrctrl_control + 320
        0x00019ba0:    f2410008    A...    MOV      r0,#0x1008
        0x00019ba4:    f2c40002    ....    MOVT     r0,#0x4002
        0x00019ba8:    6800        .h      LDR      r0,[r0,#0]
        0x00019baa:    02c0        ..      LSLS     r0,r0,#11
        0x00019bac:    d512        ..      BPL      0x19bd4 ; am_hal_pwrctrl_control + 304
        0x00019bae:    2014        .       MOVS     r0,#0x14
        0x00019bb0:    f000fb0f    ....    BL       am_hal_pwrctrl_periph_disable ; 0x1a1d2
        0x00019bb4:    4604        .F      MOV      r4,r0
        0x00019bb6:    b9a8        ..      CBNZ     r0,0x19be4 ; am_hal_pwrctrl_control + 320
        0x00019bb8:    e00c        ..      B        0x19bd4 ; am_hal_pwrctrl_control + 304
        0x00019bba:    2044        D       MOVS     r0,#0x44
        0x00019bbc:    f2c40002    ....    MOVT     r0,#0x4002
        0x00019bc0:    f8d010e0    ....    LDR      r1,[r0,#0xe0]
        0x00019bc4:    2220         "      MOVS     r2,#0x20
        0x00019bc6:    f3620187    b...    BFI      r1,r2,#2,#6
        0x00019bca:    f8c010e0    ....    STR      r1,[r0,#0xe0]
        0x00019bce:    2101        .!      MOVS     r1,#1
        0x00019bd0:    f8c010dc    ....    STR      r1,[r0,#0xdc]
        0x00019bd4:    2400        .$      MOVS     r4,#0
        0x00019bd6:    e005        ..      B        0x19be4 ; am_hal_pwrctrl_control + 320
        0x00019bd8:    2044        D       MOVS     r0,#0x44
        0x00019bda:    f2c40002    ....    MOVT     r0,#0x4002
        0x00019bde:    2400        .$      MOVS     r4,#0
        0x00019be0:    f8c04fc0    ...O    STR      r4,[r0,#0xfc0]
        0x00019be4:    4620         F      MOV      r0,r4
        0x00019be6:    b009        ..      ADD      sp,sp,#0x24
        0x00019be8:    e8bd83f0    ....    POP      {r4-r9,pc}
        0x00019bec:    9803        ..      LDR      r0,[sp,#0xc]
        0x00019bee:    2805        .(      CMP      r0,#5
        0x00019bf0:    bf88        ..      IT       HI
        0x00019bf2:    2616        .&      MOVHI    r6,#0x16
        0x00019bf4:    2806        .(      CMP      r0,#6
        0x00019bf6:    d331        1.      BCC      0x19c5c ; am_hal_pwrctrl_control + 440
        0x00019bf8:    f24010b4    @...    MOVW     r0,#0x1b4
        0x00019bfc:    f2c10000    ....    MOVT     r0,#0x1000
        0x00019c00:    6801        .h      LDR      r1,[r0,#0]
        0x00019c02:    3101        .1      ADDS     r1,#1
        0x00019c04:    d12a        *.      BNE      0x19c5c ; am_hal_pwrctrl_control + 440
        0x00019c06:    f24041ee    @..A    MOV      r1,#0x4ee
        0x00019c0a:    f2c10100    ....    MOVT     r1,#0x1000
        0x00019c0e:    780a        .x      LDRB     r2,[r1,#0]
        0x00019c10:    b90a        ..      CBNZ     r2,0x19c16 ; am_hal_pwrctrl_control + 370
        0x00019c12:    2201        ."      MOVS     r2,#1
        0x00019c14:    700a        .p      STRB     r2,[r1,#0]
        0x00019c16:    6829        )h      LDR      r1,[r5,#0]
        0x00019c18:    f3c111c6    ....    UBFX     r1,r1,#7,#7
        0x00019c1c:    6001        .`      STR      r1,[r0,#0]
        0x00019c1e:    f8d51334    ..4.    LDR      r1,[r5,#0x334]
        0x00019c22:    f0414100    A..A    ORR      r1,r1,#0x80000000
        0x00019c26:    f8c51334    ..4.    STR      r1,[r5,#0x334]
        0x00019c2a:    6800        .h      LDR      r0,[r0,#0]
        0x00019c2c:    f086017f    ....    EOR      r1,r6,#0x7f
        0x00019c30:    1984        ..      ADDS     r4,r0,r6
        0x00019c32:    4288        .B      CMP      r0,r1
        0x00019c34:    6828        (h      LDR      r0,[r5,#0]
        0x00019c36:    bf88        ..      IT       HI
        0x00019c38:    247f        .$      MOVHI    r4,#0x7f
        0x00019c3a:    f3c010c6    ....    UBFX     r0,r0,#7,#7
        0x00019c3e:    42a0        .B      CMP      r0,r4
        0x00019c40:    d00c        ..      BEQ      0x19c5c ; am_hal_pwrctrl_control + 440
        0x00019c42:    f7fffe69    ..i.    BL       am_hal_interrupt_master_disable ; 0x19918
        0x00019c46:    9004        ..      STR      r0,[sp,#0x10]
        0x00019c48:    6828        (h      LDR      r0,[r5,#0]
        0x00019c4a:    f36410cd    d...    BFI      r0,r4,#7,#7
        0x00019c4e:    6028        (`      STR      r0,[r5,#0]
        0x00019c50:    2014        .       MOVS     r0,#0x14
        0x00019c52:    f7fffd0f    ....    BL       am_hal_delay_us ; 0x19674
        0x00019c56:    9804        ..      LDR      r0,[sp,#0x10]
        0x00019c58:    f7fffe66    ..f.    BL       am_hal_interrupt_master_set ; 0x19928
        0x00019c5c:    2001        .       MOVS     r0,#1
        0x00019c5e:    2100        .!      MOVS     r1,#0
        0x00019c60:    2200        ."      MOVS     r2,#0
        0x00019c62:    2400        .$      MOVS     r4,#0
        0x00019c64:    f7fefc18    ....    BL       VDDF_simobuck_boost ; 0x18498
        0x00019c68:    f2410008    A...    MOV      r0,#0x1008
        0x00019c6c:    f2c40002    ....    MOVT     r0,#0x4002
        0x00019c70:    f8d010f8    ....    LDR      r1,[r0,#0xf8]
        0x00019c74:    f0410101    A...    ORR      r1,r1,#1
        0x00019c78:    f8c010f8    ....    STR      r1,[r0,#0xf8]
        0x00019c7c:    f8d50334    ..4.    LDR      r0,[r5,#0x334]
        0x00019c80:    f0404000    @..@    ORR      r0,r0,#0x80000000
        0x00019c84:    f8c50334    ..4.    STR      r0,[r5,#0x334]
        0x00019c88:    f2413088    A..0    MOV      r0,#0x1388
        0x00019c8c:    f7fffcf2    ....    BL       am_hal_delay_us ; 0x19674
        0x00019c90:    a802        ..      ADD      r0,sp,#8
        0x00019c92:    2100        .!      MOVS     r1,#0
        0x00019c94:    f001fb28    ..(.    BL       buck_interval_check ; 0x1b2e8
        0x00019c98:    2800        .(      CMP      r0,#0
        0x00019c9a:    d1a3        ..      BNE      0x19be4 ; am_hal_pwrctrl_control + 320
        0x00019c9c:    a801        ..      ADD      r0,sp,#4
        0x00019c9e:    2101        .!      MOVS     r1,#1
        0x00019ca0:    f001fb22    ..".    BL       buck_interval_check ; 0x1b2e8
        0x00019ca4:    2800        .(      CMP      r0,#0
        0x00019ca6:    d195        ..      BNE      0x19bd4 ; am_hal_pwrctrl_control + 304
        0x00019ca8:    f001fbb9    ....    BL       buck_ldo_override_init ; 0x1b41e
        0x00019cac:    f64010c4    @...    MOV      r0,#0x9c4
        0x00019cb0:    f7fffce0    ....    BL       am_hal_delay_us ; 0x19674
        0x00019cb4:    ac04        ..      ADD      r4,sp,#0x10
        0x00019cb6:    f8dd8008    ....    LDR      r8,[sp,#8]
        0x00019cba:    4620         F      MOV      r0,r4
        0x00019cbc:    f000fd1f    ....    BL       am_hal_timer_default_config_set ; 0x1a6fe
        0x00019cc0:    f44f7007    O..p    MOV      r0,#0x21c
        0x00019cc4:    f8ad0010    ....    STRH     r0,[sp,#0x10]
        0x00019cc8:    200d        .       MOVS     r0,#0xd
        0x00019cca:    4621        !F      MOV      r1,r4
        0x00019ccc:    f002f980    ....    BL       timer_config_b1 ; 0x1bfd0
        0x00019cd0:    200d        .       MOVS     r0,#0xd
        0x00019cd2:    f000fd42    ..B.    BL       am_hal_timer_enable ; 0x1a75a
        0x00019cd6:    200d        .       MOVS     r0,#0xd
        0x00019cd8:    f000fdd9    ....    BL       am_hal_timer_read ; 0x1a88e
        0x00019cdc:    4604        .F      MOV      r4,r0
        0x00019cde:    4640        @F      MOV      r0,r8
        0x00019ce0:    f7fffcc8    ....    BL       am_hal_delay_us ; 0x19674
        0x00019ce4:    200d        .       MOVS     r0,#0xd
        0x00019ce6:    f000fdd2    ....    BL       am_hal_timer_read ; 0x1a88e
        0x00019cea:    4606        .F      MOV      r6,r0
        0x00019cec:    f24039ff    @..9    MOV      r9,#0x3ff
        0x00019cf0:    4627        'F      MOV      r7,r4
        0x00019cf2:    bf00        ..      NOP      
        0x00019cf4:    6bea        .k      LDR      r2,[r5,#0x3c]
        0x00019cf6:    42b4        .B      CMP      r4,r6
        0x00019cf8:    4611        .F      MOV      r1,r2
        0x00019cfa:    f36f219f    o..!    BFC      r1,#10,#22
        0x00019cfe:    d106        ..      BNE      0x19d0e ; am_hal_pwrctrl_control + 618
        0x00019d00:    4287        .B      CMP      r7,r0
        0x00019d02:    d11a        ..      BNE      0x19d3a ; am_hal_pwrctrl_control + 662
        0x00019d04:    2902        .)      CMP      r1,#2
        0x00019d06:    d318        ..      BCC      0x19d3a ; am_hal_pwrctrl_control + 662
        0x00019d08:    f04f30ff    O..0    MOV      r0,#0xffffffff
        0x00019d0c:    e004        ..      B        0x19d18 ; am_hal_pwrctrl_control + 628
        0x00019d0e:    4549        IE      CMP      r1,r9
        0x00019d10:    d01b        ..      BEQ      0x19d4a ; am_hal_pwrctrl_control + 678
        0x00019d12:    4287        .B      CMP      r7,r0
        0x00019d14:    d011        ..      BEQ      0x19d3a ; am_hal_pwrctrl_control + 662
        0x00019d16:    2001        .       MOVS     r0,#1
        0x00019d18:    6bea        .k      LDR      r2,[r5,#0x3c]
        0x00019d1a:    4408        .D      ADD      r0,r0,r1
        0x00019d1c:    ea220109    "...    BIC      r1,r2,r9
        0x00019d20:    4308        .C      ORRS     r0,r0,r1
        0x00019d22:    63e8        .c      STR      r0,[r5,#0x3c]
        0x00019d24:    200d        .       MOVS     r0,#0xd
        0x00019d26:    f000fdb2    ....    BL       am_hal_timer_read ; 0x1a88e
        0x00019d2a:    4607        .F      MOV      r7,r0
        0x00019d2c:    4640        @F      MOV      r0,r8
        0x00019d2e:    f7fffca1    ....    BL       am_hal_delay_us ; 0x19674
        0x00019d32:    200d        .       MOVS     r0,#0xd
        0x00019d34:    f000fdab    ....    BL       am_hal_timer_read ; 0x1a88e
        0x00019d38:    e7dc        ..      B        0x19cf4 ; am_hal_pwrctrl_control + 592
        0x00019d3a:    290e        .)      CMP      r1,#0xe
        0x00019d3c:    bf26        &.      ITTE     CS
        0x00019d3e:    f502707d    ..}p    ADDCS    r0,r2,#0x3f4
        0x00019d42:    f36f209f    o..     BFCCS    r0,#10,#22
        0x00019d46:    2001        .       MOVCC    r0,#1
        0x00019d48:    e001        ..      B        0x19d4e ; am_hal_pwrctrl_control + 682
        0x00019d4a:    f24030f3    @..0    MOV      r0,#0x3f3
        0x00019d4e:    6be9        .k      LDR      r1,[r5,#0x3c]
        0x00019d50:    f24032ff    @..2    MOV      r2,#0x3ff
        0x00019d54:    4391        .C      BICS     r1,r1,r2
        0x00019d56:    4408        .D      ADD      r0,r0,r1
        0x00019d58:    63e8        .c      STR      r0,[r5,#0x3c]
        0x00019d5a:    200d        .       MOVS     r0,#0xd
        0x00019d5c:    f000fca5    ....    BL       am_hal_timer_clear_stop ; 0x1a6aa
        0x00019d60:    200d        .       MOVS     r0,#0xd
        0x00019d62:    f000fcdc    ....    BL       am_hal_timer_disable ; 0x1a71e
        0x00019d66:    200d        .       MOVS     r0,#0xd
        0x00019d68:    f000fda4    ....    BL       am_hal_timer_reset_config ; 0x1a8b4
        0x00019d6c:    ac04        ..      ADD      r4,sp,#0x10
        0x00019d6e:    f8dd8004    ....    LDR      r8,[sp,#4]
        0x00019d72:    4620         F      MOV      r0,r4
        0x00019d74:    f000fcc3    ....    BL       am_hal_timer_default_config_set ; 0x1a6fe
        0x00019d78:    f240201d    @..     MOV      r0,#0x21d
        0x00019d7c:    f8ad0010    ....    STRH     r0,[sp,#0x10]
        0x00019d80:    200d        .       MOVS     r0,#0xd
        0x00019d82:    4621        !F      MOV      r1,r4
        0x00019d84:    f002f924    ..$.    BL       timer_config_b1 ; 0x1bfd0
        0x00019d88:    200d        .       MOVS     r0,#0xd
        0x00019d8a:    f000fce6    ....    BL       am_hal_timer_enable ; 0x1a75a
        0x00019d8e:    200d        .       MOVS     r0,#0xd
        0x00019d90:    f000fd7d    ..}.    BL       am_hal_timer_read ; 0x1a88e
        0x00019d94:    4604        .F      MOV      r4,r0
        0x00019d96:    4640        @F      MOV      r0,r8
        0x00019d98:    f7fffc6c    ..l.    BL       am_hal_delay_us ; 0x19674
        0x00019d9c:    200d        .       MOVS     r0,#0xd
        0x00019d9e:    f000fd76    ..v.    BL       am_hal_timer_read ; 0x1a88e
        0x00019da2:    f24019b0    @...    MOVW     r9,#0x1b0
        0x00019da6:    4606        .F      MOV      r6,r0
        0x00019da8:    f2c10900    ....    MOVT     r9,#0x1000
        0x00019dac:    4627        'F      MOV      r7,r4
        0x00019dae:    bf00        ..      NOP      
        0x00019db0:    6c6a        jl      LDR      r2,[r5,#0x44]
        0x00019db2:    f8d91000    ....    LDR      r1,[r9,#0]
        0x00019db6:    3101        .1      ADDS     r1,#1
        0x00019db8:    f002013f    ..?.    AND      r1,r2,#0x3f
        0x00019dbc:    bf08        ..      IT       EQ
        0x00019dbe:    f8c91000    ....    STREQ    r1,[r9,#0]
        0x00019dc2:    42b4        .B      CMP      r4,r6
        0x00019dc4:    d106        ..      BNE      0x19dd4 ; am_hal_pwrctrl_control + 816
        0x00019dc6:    4287        .B      CMP      r7,r0
        0x00019dc8:    d11a        ..      BNE      0x19e00 ; am_hal_pwrctrl_control + 860
        0x00019dca:    2902        .)      CMP      r1,#2
        0x00019dcc:    d318        ..      BCC      0x19e00 ; am_hal_pwrctrl_control + 860
        0x00019dce:    f04f30ff    O..0    MOV      r0,#0xffffffff
        0x00019dd2:    e004        ..      B        0x19dde ; am_hal_pwrctrl_control + 826
        0x00019dd4:    293f        ?)      CMP      r1,#0x3f
        0x00019dd6:    d01b        ..      BEQ      0x19e10 ; am_hal_pwrctrl_control + 876
        0x00019dd8:    4287        .B      CMP      r7,r0
        0x00019dda:    d011        ..      BEQ      0x19e00 ; am_hal_pwrctrl_control + 860
        0x00019ddc:    2001        .       MOVS     r0,#1
        0x00019dde:    6c6a        jl      LDR      r2,[r5,#0x44]
        0x00019de0:    4408        .D      ADD      r0,r0,r1
        0x00019de2:    f022013f    ".?.    BIC      r1,r2,#0x3f
        0x00019de6:    4308        .C      ORRS     r0,r0,r1
        0x00019de8:    6468        hd      STR      r0,[r5,#0x44]
        0x00019dea:    200d        .       MOVS     r0,#0xd
        0x00019dec:    f000fd4f    ..O.    BL       am_hal_timer_read ; 0x1a88e
        0x00019df0:    4607        .F      MOV      r7,r0
        0x00019df2:    4640        @F      MOV      r0,r8
        0x00019df4:    f7fffc3e    ..>.    BL       am_hal_delay_us ; 0x19674
        0x00019df8:    200d        .       MOVS     r0,#0xd
        0x00019dfa:    f000fd48    ..H.    BL       am_hal_timer_read ; 0x1a88e
        0x00019dfe:    e7d7        ..      B        0x19db0 ; am_hal_pwrctrl_control + 780
        0x00019e00:    2905        .)      CMP      r1,#5
        0x00019e02:    bf26        &.      ITTE     CS
        0x00019e04:    f102003d    ..=.    ADDCS    r0,r2,#0x3d
        0x00019e08:    f000003f    ..?.    ANDCS    r0,r0,#0x3f
        0x00019e0c:    2001        .       MOVCC    r0,#1
        0x00019e0e:    e000        ..      B        0x19e12 ; am_hal_pwrctrl_control + 878
        0x00019e10:    203c        <       MOVS     r0,#0x3c
        0x00019e12:    6c69        il      LDR      r1,[r5,#0x44]
        0x00019e14:    f021013f    !.?.    BIC      r1,r1,#0x3f
        0x00019e18:    4408        .D      ADD      r0,r0,r1
        0x00019e1a:    6468        hd      STR      r0,[r5,#0x44]
        0x00019e1c:    200d        .       MOVS     r0,#0xd
        0x00019e1e:    f000fc44    ..D.    BL       am_hal_timer_clear_stop ; 0x1a6aa
        0x00019e22:    200d        .       MOVS     r0,#0xd
        0x00019e24:    f000fc7b    ..{.    BL       am_hal_timer_disable ; 0x1a71e
        0x00019e28:    200d        .       MOVS     r0,#0xd
        0x00019e2a:    f000fd43    ..C.    BL       am_hal_timer_reset_config ; 0x1a8b4
        0x00019e2e:    e6d1        ..      B        0x19bd4 ; am_hal_pwrctrl_control + 304
    am_hal_pwrctrl_low_power_init
        0x00019e30:    b5b0        ..      PUSH     {r4,r5,r7,lr}
        0x00019e32:    f6452503    E..%    MOV      r5,#0x5a03
        0x00019e36:    2428        ($      MOVS     r4,#0x28
        0x00019e38:    f6cc5573    ..sU    MOVT     r5,#0xcd73
        0x00019e3c:    f2c40402    ....    MOVT     r4,#0x4002
        0x00019e40:    f7fffddc    ....    BL       am_hal_mram_ds_init ; 0x199fc
        0x00019e44:    f24c702c    L.,p    MOV      r0,#0xc72c
        0x00019e48:    f2c00001    ....    MOVT     r0,#1
        0x00019e4c:    f000f880    ....    BL       am_hal_pwrctrl_mcu_memory_config ; 0x19f50
        0x00019e50:    f24c7032    L.2p    MOV      r0,#0xc732
        0x00019e54:    f2c00001    ....    MOVT     r0,#1
        0x00019e58:    f000fa94    ....    BL       am_hal_pwrctrl_sram_config ; 0x1a384
        0x00019e5c:    f64000f8    @...    MOV      r0,#0x8f8
        0x00019e60:    f2c10000    ....    MOVT     r0,#0x1000
        0x00019e64:    6801        .h      LDR      r1,[r0,#0]
        0x00019e66:    42a9        .B      CMP      r1,r5
        0x00019e68:    d03a        :.      BEQ      0x19ee0 ; am_hal_pwrctrl_low_power_init + 176
        0x00019e6a:    f8d41314    ....    LDR      r1,[r4,#0x314]
        0x00019e6e:    6041        A`      STR      r1,[r0,#4]
        0x00019e70:    f8d41318    ....    LDR      r1,[r4,#0x318]
        0x00019e74:    6081        .`      STR      r1,[r0,#8]
        0x00019e76:    f8d4131c    ....    LDR      r1,[r4,#0x31c]
        0x00019e7a:    60c1        .`      STR      r1,[r0,#0xc]
        0x00019e7c:    f8d41324    ..$.    LDR      r1,[r4,#0x324]
        0x00019e80:    6101        .a      STR      r1,[r0,#0x10]
        0x00019e82:    f8d4132c    ..,.    LDR      r1,[r4,#0x32c]
        0x00019e86:    6141        Aa      STR      r1,[r0,#0x14]
        0x00019e88:    f8d41330    ..0.    LDR      r1,[r4,#0x330]
        0x00019e8c:    6181        .a      STR      r1,[r0,#0x18]
        0x00019e8e:    f8d41338    ..8.    LDR      r1,[r4,#0x338]
        0x00019e92:    61c1        .a      STR      r1,[r0,#0x1c]
        0x00019e94:    f8d41344    ..D.    LDR      r1,[r4,#0x344]
        0x00019e98:    6201        .b      STR      r1,[r0,#0x20]
        0x00019e9a:    f8d41348    ..H.    LDR      r1,[r4,#0x348]
        0x00019e9e:    6241        Ab      STR      r1,[r0,#0x24]
        0x00019ea0:    f8d41350    ..P.    LDR      r1,[r4,#0x350]
        0x00019ea4:    6281        .b      STR      r1,[r0,#0x28]
        0x00019ea6:    6da1        .m      LDR      r1,[r4,#0x58]
        0x00019ea8:    62c1        .b      STR      r1,[r0,#0x2c]
        0x00019eaa:    6e21        !n      LDR      r1,[r4,#0x60]
        0x00019eac:    6301        .c      STR      r1,[r0,#0x30]
        0x00019eae:    69e1        .i      LDR      r1,[r4,#0x1c]
        0x00019eb0:    6341        Ac      STR      r1,[r0,#0x34]
        0x00019eb2:    f8d41354    ..T.    LDR      r1,[r4,#0x354]
        0x00019eb6:    6381        .c      STR      r1,[r0,#0x38]
        0x00019eb8:    f8d41358    ..X.    LDR      r1,[r4,#0x358]
        0x00019ebc:    63c1        .c      STR      r1,[r0,#0x3c]
        0x00019ebe:    6ba1        .k      LDR      r1,[r4,#0x38]
        0x00019ec0:    6401        .d      STR      r1,[r0,#0x40]
        0x00019ec2:    6821        !h      LDR      r1,[r4,#0]
        0x00019ec4:    6441        Ad      STR      r1,[r0,#0x44]
        0x00019ec6:    f8d410fc    ....    LDR      r1,[r4,#0xfc]
        0x00019eca:    6481        .d      STR      r1,[r0,#0x48]
        0x00019ecc:    f8d410e0    ....    LDR      r1,[r4,#0xe0]
        0x00019ed0:    64c1        .d      STR      r1,[r0,#0x4c]
        0x00019ed2:    f240412c    @.,A    MOV      r1,#0x42c
        0x00019ed6:    f2c40102    ....    MOVT     r1,#0x4002
        0x00019eda:    6809        .h      LDR      r1,[r1,#0]
        0x00019edc:    6005        .`      STR      r5,[r0,#0]
        0x00019ede:    6501        .e      STR      r1,[r0,#0x50]
        0x00019ee0:    f2440544    D.D.    MOV      r5,#0x4044
        0x00019ee4:    f2c40500    ....    MOVT     r5,#0x4000
        0x00019ee8:    6828        (h      LDR      r0,[r5,#0]
        0x00019eea:    213e        >!      MOVS     r1,#0x3e
        0x00019eec:    f3614099    a..@    BFI      r0,r1,#18,#8
        0x00019ef0:    6028        (`      STR      r0,[r5,#0]
        0x00019ef2:    f2411040    A.@.    MOVW     r0,#0x1140
        0x00019ef6:    f2c40002    ....    MOVT     r0,#0x4002
        0x00019efa:    2100        .!      MOVS     r1,#0
        0x00019efc:    6001        .`      STR      r1,[r0,#0]
        0x00019efe:    6041        A`      STR      r1,[r0,#4]
        0x00019f00:    6081        .`      STR      r1,[r0,#8]
        0x00019f02:    60c1        .`      STR      r1,[r0,#0xc]
        0x00019f04:    6101        .a      STR      r1,[r0,#0x10]
        0x00019f06:    6141        Aa      STR      r1,[r0,#0x14]
        0x00019f08:    6181        .a      STR      r1,[r0,#0x18]
        0x00019f0a:    61c1        .a      STR      r1,[r0,#0x1c]
        0x00019f0c:    6201        .b      STR      r1,[r0,#0x20]
        0x00019f0e:    6241        Ab      STR      r1,[r0,#0x24]
        0x00019f10:    6281        .b      STR      r1,[r0,#0x28]
        0x00019f12:    62c1        .b      STR      r1,[r0,#0x2c]
        0x00019f14:    6301        .c      STR      r1,[r0,#0x30]
        0x00019f16:    6341        Ac      STR      r1,[r0,#0x34]
        0x00019f18:    6381        .c      STR      r1,[r0,#0x38]
        0x00019f1a:    63c1        .c      STR      r1,[r0,#0x3c]
        0x00019f1c:    6401        .d      STR      r1,[r0,#0x40]
        0x00019f1e:    6441        Ad      STR      r1,[r0,#0x44]
        0x00019f20:    6481        .d      STR      r1,[r0,#0x48]
        0x00019f22:    f24c4095    L..@    MOV      r0,#0xc495
        0x00019f26:    f2c00001    ....    MOVT     r0,#1
        0x00019f2a:    f7fffa0e    ....    BL       am_hal_daxi_config ; 0x1934a
        0x00019f2e:    2064        d       MOVS     r0,#0x64
        0x00019f30:    f7fffba0    ....    BL       am_hal_delay_us ; 0x19674
        0x00019f34:    6828        (h      LDR      r0,[r5,#0]
        0x00019f36:    f0400040    @.@.    ORR      r0,r0,#0x40
        0x00019f3a:    6028        (`      STR      r0,[r5,#0]
        0x00019f3c:    f8d40354    ..T.    LDR      r0,[r4,#0x354]
        0x00019f40:    f04060b0    @..`    ORR      r0,r0,#0x5800000
        0x00019f44:    f44001fd    @...    ORR      r1,r0,#0x7e8000
        0x00019f48:    2000        .       MOVS     r0,#0
        0x00019f4a:    f8c41354    ..T.    STR      r1,[r4,#0x354]
        0x00019f4e:    bdb0        ..      POP      {r4,r5,r7,pc}
    am_hal_pwrctrl_mcu_memory_config
        0x00019f50:    b570        p.      PUSH     {r4-r6,lr}
        0x00019f52:    b082        ..      SUB      sp,sp,#8
        0x00019f54:    4606        .F      MOV      r6,r0
        0x00019f56:    7800        .x      LDRB     r0,[r0,#0]
        0x00019f58:    f2410514    A...    MOV      r5,#0x1014
        0x00019f5c:    2802        .(      CMP      r0,#2
        0x00019f5e:    f2c40502    ....    MOVT     r5,#0x4002
        0x00019f62:    d006        ..      BEQ      0x19f72 ; am_hal_pwrctrl_mcu_memory_config + 34
        0x00019f64:    2801        .(      CMP      r0,#1
        0x00019f66:    d00c        ..      BEQ      0x19f82 ; am_hal_pwrctrl_mcu_memory_config + 50
        0x00019f68:    b998        ..      CBNZ     r0,0x19f92 ; am_hal_pwrctrl_mcu_memory_config + 66
        0x00019f6a:    6828        (h      LDR      r0,[r5,#0]
        0x00019f6c:    f0200010     ...    BIC      r0,r0,#0x10
        0x00019f70:    e00a        ..      B        0x19f88 ; am_hal_pwrctrl_mcu_memory_config + 56
        0x00019f72:    6828        (h      LDR      r0,[r5,#0]
        0x00019f74:    f0400010    @...    ORR      r0,r0,#0x10
        0x00019f78:    6028        (`      STR      r0,[r5,#0]
        0x00019f7a:    6828        (h      LDR      r0,[r5,#0]
        0x00019f7c:    f0400020    @. .    ORR      r0,r0,#0x20
        0x00019f80:    e006        ..      B        0x19f90 ; am_hal_pwrctrl_mcu_memory_config + 64
        0x00019f82:    6828        (h      LDR      r0,[r5,#0]
        0x00019f84:    f0400010    @...    ORR      r0,r0,#0x10
        0x00019f88:    6028        (`      STR      r0,[r5,#0]
        0x00019f8a:    6828        (h      LDR      r0,[r5,#0]
        0x00019f8c:    f0200020     . .    BIC      r0,r0,#0x20
        0x00019f90:    6028        (`      STR      r0,[r5,#0]
        0x00019f92:    78b0        .x      LDRB     r0,[r6,#2]
        0x00019f94:    6829        )h      LDR      r1,[r5,#0]
        0x00019f96:    2401        .$      MOVS     r4,#1
        0x00019f98:    f3600102    `...    BFI      r1,r0,#0,#3
        0x00019f9c:    6029        )`      STR      r1,[r5,#0]
        0x00019f9e:    7930        0y      LDRB     r0,[r6,#4]
        0x00019fa0:    6829        )h      LDR      r1,[r5,#0]
        0x00019fa2:    f000001f    ....    AND      r0,r0,#0x1f
        0x00019fa6:    f0210108    !...    BIC      r1,r1,#8
        0x00019faa:    ea4100c0    A...    ORR      r0,r1,r0,LSL #3
        0x00019fae:    6028        (`      STR      r0,[r5,#0]
        0x00019fb0:    4629        )F      MOV      r1,r5
        0x00019fb2:    f8513b04    Q..;    LDR      r3,[r1],#4
        0x00019fb6:    2005        .       MOVS     r0,#5
        0x00019fb8:    223f        ?"      MOVS     r2,#0x3f
        0x00019fba:    9400        ..      STR      r4,[sp,#0]
        0x00019fbc:    f7fffba0    ....    BL       am_hal_delay_us_status_check ; 0x19700
        0x00019fc0:    2800        .(      CMP      r0,#0
        0x00019fc2:    d132        2.      BNE      0x1a02a ; am_hal_pwrctrl_mcu_memory_config + 218
        0x00019fc4:    6868        hh      LDR      r0,[r5,#4]
        0x00019fc6:    6829        )h      LDR      r1,[r5,#0]
        0x00019fc8:    4048        H@      EORS     r0,r0,r1
        0x00019fca:    06c0        ..      LSLS     r0,r0,#27
        0x00019fcc:    d42c        ,.      BMI      0x1a028 ; am_hal_pwrctrl_mcu_memory_config + 216
        0x00019fce:    6868        hh      LDR      r0,[r5,#4]
        0x00019fd0:    6829        )h      LDR      r1,[r5,#0]
        0x00019fd2:    4048        H@      EORS     r0,r0,r1
        0x00019fd4:    0680        ..      LSLS     r0,r0,#26
        0x00019fd6:    d427        '.      BMI      0x1a028 ; am_hal_pwrctrl_mcu_memory_config + 216
        0x00019fd8:    6868        hh      LDR      r0,[r5,#4]
        0x00019fda:    6829        )h      LDR      r1,[r5,#0]
        0x00019fdc:    4048        H@      EORS     r0,r0,r1
        0x00019fde:    0740        @.      LSLS     r0,r0,#29
        0x00019fe0:    d122        ".      BNE      0x1a028 ; am_hal_pwrctrl_mcu_memory_config + 216
        0x00019fe2:    6868        hh      LDR      r0,[r5,#4]
        0x00019fe4:    6829        )h      LDR      r1,[r5,#0]
        0x00019fe6:    4048        H@      EORS     r0,r0,r1
        0x00019fe8:    0700        ..      LSLS     r0,r0,#28
        0x00019fea:    d41d        ..      BMI      0x1a028 ; am_hal_pwrctrl_mcu_memory_config + 216
        0x00019fec:    7870        px      LDRB     r0,[r6,#1]
        0x00019fee:    68a9        .h      LDR      r1,[r5,#8]
        0x00019ff0:    2800        .(      CMP      r0,#0
        0x00019ff2:    f0210110    !...    BIC      r1,r1,#0x10
        0x00019ff6:    bf08        ..      IT       EQ
        0x00019ff8:    3110        .1      ADDEQ    r1,r1,#0x10
        0x00019ffa:    60a9        .`      STR      r1,[r5,#8]
        0x00019ffc:    7970        py      LDRB     r0,[r6,#5]
        0x00019ffe:    68a9        .h      LDR      r1,[r5,#8]
        0x0001a000:    2800        .(      CMP      r0,#0
        0x0001a002:    f0210108    !...    BIC      r1,r1,#8
        0x0001a006:    bf08        ..      IT       EQ
        0x0001a008:    3108        .1      ADDEQ    r1,r1,#8
        0x0001a00a:    60a9        .`      STR      r1,[r5,#8]
        0x0001a00c:    78f1        .x      LDRB     r1,[r6,#3]
        0x0001a00e:    2000        .       MOVS     r0,#0
        0x0001a010:    2907        .)      CMP      r1,#7
        0x0001a012:    d80a        ..      BHI      0x1a02a ; am_hal_pwrctrl_mcu_memory_config + 218
        0x0001a014:    e8dff001    ....    TBB      [pc,r1]
    $d.5
        0x0001a018:    0e090b04    ....    DCD    235473668
        0x0001a01c:    13090909    ....    DCD    319359241
    $t.6
        0x0001a020:    68a8        .h      LDR      r0,[r5,#8]
        0x0001a022:    f0400007    @...    ORR      r0,r0,#7
        0x0001a026:    e00d        ..      B        0x1a044 ; am_hal_pwrctrl_mcu_memory_config + 244
        0x0001a028:    2001        .       MOVS     r0,#1
        0x0001a02a:    b002        ..      ADD      sp,sp,#8
        0x0001a02c:    bd70        p.      POP      {r4-r6,pc}
        0x0001a02e:    68a8        .h      LDR      r0,[r5,#8]
        0x0001a030:    2106        .!      MOVS     r1,#6
        0x0001a032:    e001        ..      B        0x1a038 ; am_hal_pwrctrl_mcu_memory_config + 232
        0x0001a034:    68a8        .h      LDR      r0,[r5,#8]
        0x0001a036:    2104        .!      MOVS     r1,#4
        0x0001a038:    f3610002    a...    BFI      r0,r1,#0,#3
        0x0001a03c:    e002        ..      B        0x1a044 ; am_hal_pwrctrl_mcu_memory_config + 244
        0x0001a03e:    68a8        .h      LDR      r0,[r5,#8]
        0x0001a040:    f0200007     ...    BIC      r0,r0,#7
        0x0001a044:    60a8        .`      STR      r0,[r5,#8]
        0x0001a046:    2000        .       MOVS     r0,#0
        0x0001a048:    e7ef        ..      B        0x1a02a ; am_hal_pwrctrl_mcu_memory_config + 218
        0x0001a04a:    0000        ..      MOVS     r0,r0
    am_hal_pwrctrl_mcu_mode_select
        0x0001a04c:    e92d41f0    -..A    PUSH     {r4-r8,lr}
        0x0001a050:    b082        ..      SUB      sp,sp,#8
        0x0001a052:    4604        .F      MOV      r4,r0
        0x0001a054:    3801        .8      SUBS     r0,#1
        0x0001a056:    2801        .(      CMP      r0,#1
        0x0001a058:    d814        ..      BHI      0x1a084 ; am_hal_pwrctrl_mcu_mode_select + 56
        0x0001a05a:    2c02        .,      CMP      r4,#2
        0x0001a05c:    d109        ..      BNE      0x1a072 ; am_hal_pwrctrl_mcu_mode_select + 38
        0x0001a05e:    f2410000    A...    MOVW     r0,#0x1000
        0x0001a062:    f2c40002    ....    MOVT     r0,#0x4002
        0x0001a066:    f8d00108    ....    LDR      r0,[r0,#0x108]
        0x0001a06a:    f0000030    ..0.    AND      r0,r0,#0x30
        0x0001a06e:    2830        0(      CMP      r0,#0x30
        0x0001a070:    d125        %.      BNE      0x1a0be ; am_hal_pwrctrl_mcu_mode_select + 114
        0x0001a072:    f2400030    @.0.    MOVW     r0,#0x30
        0x0001a076:    f2c10000    ....    MOVT     r0,#0x1000
        0x0001a07a:    7801        .x      LDRB     r1,[r0,#0]
        0x0001a07c:    42a1        .B      CMP      r1,r4
        0x0001a07e:    d103        ..      BNE      0x1a088 ; am_hal_pwrctrl_mcu_mode_select + 60
        0x0001a080:    2000        .       MOVS     r0,#0
        0x0001a082:    e0a3        ..      B        0x1a1cc ; am_hal_pwrctrl_mcu_mode_select + 384
        0x0001a084:    2006        .       MOVS     r0,#6
        0x0001a086:    e0a1        ..      B        0x1a1cc ; am_hal_pwrctrl_mcu_mode_select + 384
        0x0001a088:    f240080c    @...    MOVW     r8,#0xc
        0x0001a08c:    f2c40802    ....    MOVT     r8,#0x4002
        0x0001a090:    7004        .p      STRB     r4,[r0,#0]
        0x0001a092:    f8d80000    ....    LDR      r0,[r8,#0]
        0x0001a096:    b2c6        ..      UXTB     r6,r0
        0x0001a098:    2e21        !.      CMP      r6,#0x21
        0x0001a09a:    d118        ..      BNE      0x1a0ce ; am_hal_pwrctrl_mcu_mode_select + 130
        0x0001a09c:    f2440044    D.D.    MOV      r0,#0x4044
        0x0001a0a0:    f2c40000    ....    MOVT     r0,#0x4000
        0x0001a0a4:    6801        .h      LDR      r1,[r0,#0]
        0x0001a0a6:    2c02        .,      CMP      r4,#2
        0x0001a0a8:    d10b        ..      BNE      0x1a0c2 ; am_hal_pwrctrl_mcu_mode_select + 118
        0x0001a0aa:    f0410110    A...    ORR      r1,r1,#0x10
        0x0001a0ae:    6001        .`      STR      r1,[r0,#0]
        0x0001a0b0:    f8d80374    ..t.    LDR      r0,[r8,#0x374]
        0x0001a0b4:    f0407000    @..p    ORR      r0,r0,#0x2000000
        0x0001a0b8:    f8c80374    ..t.    STR      r0,[r8,#0x374]
        0x0001a0bc:    e004        ..      B        0x1a0c8 ; am_hal_pwrctrl_mcu_mode_select + 124
        0x0001a0be:    2007        .       MOVS     r0,#7
        0x0001a0c0:    e084        ..      B        0x1a1cc ; am_hal_pwrctrl_mcu_mode_select + 384
        0x0001a0c2:    f0410108    A...    ORR      r1,r1,#8
        0x0001a0c6:    6001        .`      STR      r1,[r0,#0]
        0x0001a0c8:    200a        .       MOVS     r0,#0xa
        0x0001a0ca:    f7fffad3    ....    BL       am_hal_delay_us ; 0x19674
        0x0001a0ce:    2c02        .,      CMP      r4,#2
        0x0001a0d0:    d12f        /.      BNE      0x1a132 ; am_hal_pwrctrl_mcu_mode_select + 230
        0x0001a0d2:    2001        .       MOVS     r0,#1
        0x0001a0d4:    2107        .!      MOVS     r1,#7
        0x0001a0d6:    2203        ."      MOVS     r2,#3
        0x0001a0d8:    2503        .%      MOVS     r5,#3
        0x0001a0da:    f7fef9dd    ....    BL       VDDF_simobuck_boost ; 0x18498
        0x0001a0de:    f24010b0    @...    MOVW     r0,#0x1b0
        0x0001a0e2:    f2c10000    ....    MOVT     r0,#0x1000
        0x0001a0e6:    f8d8107c    ..|.    LDR      r1,[r8,#0x7c]
        0x0001a0ea:    6802        .h      LDR      r2,[r0,#0]
        0x0001a0ec:    f001073f    ..?.    AND      r7,r1,#0x3f
        0x0001a0f0:    3201        .2      ADDS     r2,#1
        0x0001a0f2:    bf08        ..      IT       EQ
        0x0001a0f4:    6007        .`      STREQ    r7,[r0,#0]
        0x0001a0f6:    a801        ..      ADD      r0,sp,#4
        0x0001a0f8:    f7fef9b2    ....    BL       TrimVersionGet ; 0x18460
        0x0001a0fc:    9801        ..      LDR      r0,[sp,#4]
        0x0001a0fe:    2805        .(      CMP      r0,#5
        0x0001a100:    bf88        ..      IT       HI
        0x0001a102:    2507        .%      MOVHI    r5,#7
        0x0001a104:    f085003f    ..?.    EOR      r0,r5,#0x3f
        0x0001a108:    443d        =D      ADD      r5,r5,r7
        0x0001a10a:    4287        .B      CMP      r7,r0
        0x0001a10c:    bf88        ..      IT       HI
        0x0001a10e:    253f        ?%      MOVHI    r5,#0x3f
        0x0001a110:    42af        .B      CMP      r7,r5
        0x0001a112:    d00e        ..      BEQ      0x1a132 ; am_hal_pwrctrl_mcu_mode_select + 230
        0x0001a114:    f7fffc00    ....    BL       am_hal_interrupt_master_disable ; 0x19918
        0x0001a118:    9000        ..      STR      r0,[sp,#0]
        0x0001a11a:    f8d8007c    ..|.    LDR      r0,[r8,#0x7c]
        0x0001a11e:    f3650005    e...    BFI      r0,r5,#0,#6
        0x0001a122:    f8c8007c    ..|.    STR      r0,[r8,#0x7c]
        0x0001a126:    2014        .       MOVS     r0,#0x14
        0x0001a128:    f7fffaa4    ....    BL       am_hal_delay_us ; 0x19674
        0x0001a12c:    9800        ..      LDR      r0,[sp,#0]
        0x0001a12e:    f7fffbfb    ....    BL       am_hal_interrupt_master_set ; 0x19928
        0x0001a132:    f2410500    A...    MOVW     r5,#0x1000
        0x0001a136:    f2c40502    ....    MOVT     r5,#0x4002
        0x0001a13a:    4628        (F      MOV      r0,r5
        0x0001a13c:    f04f31ff    O..1    MOV      r1,#0xffffffff
        0x0001a140:    4622        "F      MOV      r2,r4
        0x0001a142:    230a        .#      MOVS     r3,#0xa
        0x0001a144:    f000fc3c    ..<.    BL       am_hal_util_write_and_wait ; 0x1a9c0
        0x0001a148:    2800        .(      CMP      r0,#0
        0x0001a14a:    d13f        ?.      BNE      0x1a1cc ; am_hal_pwrctrl_mcu_mode_select + 384
        0x0001a14c:    2705        .'      MOVS     r7,#5
        0x0001a14e:    bf00        ..      NOP      
        0x0001a150:    6828        (h      LDR      r0,[r5,#0]
        0x0001a152:    0740        @.      LSLS     r0,r0,#29
        0x0001a154:    d406        ..      BMI      0x1a164 ; am_hal_pwrctrl_mcu_mode_select + 280
        0x0001a156:    2001        .       MOVS     r0,#1
        0x0001a158:    f7fffa8c    ....    BL       am_hal_delay_us ; 0x19674
        0x0001a15c:    3f01        .?      SUBS     r7,#1
        0x0001a15e:    d1f7        ..      BNE      0x1a150 ; am_hal_pwrctrl_mcu_mode_select + 260
        0x0001a160:    2004        .       MOVS     r0,#4
        0x0001a162:    e033        3.      B        0x1a1cc ; am_hal_pwrctrl_mcu_mode_select + 384
        0x0001a164:    2c01        .,      CMP      r4,#1
        0x0001a166:    d119        ..      BNE      0x1a19c ; am_hal_pwrctrl_mcu_mode_select + 336
        0x0001a168:    f24011b0    @...    MOVW     r1,#0x1b0
        0x0001a16c:    f2c10100    ....    MOVT     r1,#0x1000
        0x0001a170:    f8d8207c    ..|     LDR      r2,[r8,#0x7c]
        0x0001a174:    6808        .h      LDR      r0,[r1,#0]
        0x0001a176:    f002023f    ..?.    AND      r2,r2,#0x3f
        0x0001a17a:    1c43        C.      ADDS     r3,r0,#1
        0x0001a17c:    d008        ..      BEQ      0x1a190 ; am_hal_pwrctrl_mcu_mode_select + 324
        0x0001a17e:    4282        .B      CMP      r2,r0
        0x0001a180:    d007        ..      BEQ      0x1a192 ; am_hal_pwrctrl_mcu_mode_select + 326
        0x0001a182:    f8d8107c    ..|.    LDR      r1,[r8,#0x7c]
        0x0001a186:    f3600105    `...    BFI      r1,r0,#0,#6
        0x0001a18a:    f8c8107c    ..|.    STR      r1,[r8,#0x7c]
        0x0001a18e:    e000        ..      B        0x1a192 ; am_hal_pwrctrl_mcu_mode_select + 326
        0x0001a190:    600a        .`      STR      r2,[r1,#0]
        0x0001a192:    2000        .       MOVS     r0,#0
        0x0001a194:    2100        .!      MOVS     r1,#0
        0x0001a196:    2200        ."      MOVS     r2,#0
        0x0001a198:    f7fef97e    ..~.    BL       VDDF_simobuck_boost ; 0x18498
        0x0001a19c:    2e21        !.      CMP      r6,#0x21
        0x0001a19e:    d10f        ..      BNE      0x1a1c0 ; am_hal_pwrctrl_mcu_mode_select + 372
        0x0001a1a0:    f2440044    D.D.    MOV      r0,#0x4044
        0x0001a1a4:    f2c40000    ....    MOVT     r0,#0x4000
        0x0001a1a8:    6801        .h      LDR      r1,[r0,#0]
        0x0001a1aa:    f06f0208    o...    MVN      r2,#8
        0x0001a1ae:    2c02        .,      CMP      r4,#2
        0x0001a1b0:    bf08        ..      IT       EQ
        0x0001a1b2:    f06f0210    o...    MVNEQ    r2,#0x10
        0x0001a1b6:    4011        .@      ANDS     r1,r1,r2
        0x0001a1b8:    6001        .`      STR      r1,[r0,#0]
        0x0001a1ba:    200a        .       MOVS     r0,#0xa
        0x0001a1bc:    f7fffa5a    ..Z.    BL       am_hal_delay_us ; 0x19674
        0x0001a1c0:    6828        (h      LDR      r0,[r5,#0]
        0x0001a1c2:    f3c000c1    ....    UBFX     r0,r0,#3,#2
        0x0001a1c6:    1b00        ..      SUBS     r0,r0,r4
        0x0001a1c8:    bf18        ..      IT       NE
        0x0001a1ca:    2001        .       MOVNE    r0,#1
        0x0001a1cc:    b002        ..      ADD      sp,sp,#8
        0x0001a1ce:    e8bd81f0    ....    POP      {r4-r8,pc}
    am_hal_pwrctrl_periph_disable
        0x0001a1d2:    e92d41f0    -..A    PUSH     {r4-r8,lr}
        0x0001a1d6:    b082        ..      SUB      sp,sp,#8
        0x0001a1d8:    2821        !(      CMP      r0,#0x21
        0x0001a1da:    d901        ..      BLS      0x1a1e0 ; am_hal_pwrctrl_periph_disable + 14
        0x0001a1dc:    2506        .%      MOVS     r5,#6
        0x0001a1de:    e07f        ..      B        0x1a2e0 ; am_hal_pwrctrl_periph_disable + 270
        0x0001a1e0:    f24c41a4    L..A    MOV      r1,#0xc4a4
        0x0001a1e4:    f2c00101    ....    MOVT     r1,#1
        0x0001a1e8:    eb011200    ....    ADD      r2,r1,r0,LSL #4
        0x0001a1ec:    e9d26402    ...d    LDRD     r6,r4,[r2,#8]
        0x0001a1f0:    2814        .(      CMP      r0,#0x14
        0x0001a1f2:    d136        6.      BNE      0x1a262 ; am_hal_pwrctrl_periph_disable + 144
        0x0001a1f4:    f64077e0    @..w    MOVW     r7,#0xfe0
        0x0001a1f8:    f2c4070c    ....    MOVT     r7,#0x400c
        0x0001a1fc:    6838        8h      LDR      r0,[r7,#0]
        0x0001a1fe:    28c0        .(      CMP      r0,#0xc0
        0x0001a200:    d11f        ..      BNE      0x1a242 ; am_hal_pwrctrl_periph_disable + 112
        0x0001a202:    f640287c    @.|(    MOV      r8,#0xa7c
        0x0001a206:    f2c4080c    ....    MOVT     r8,#0x400c
        0x0001a20a:    2064        d       MOVS     r0,#0x64
        0x0001a20c:    4641        AF      MOV      r1,r8
        0x0001a20e:    2201        ."      MOVS     r2,#1
        0x0001a210:    2301        .#      MOVS     r3,#1
        0x0001a212:    f7fffa4b    ..K.    BL       am_hal_delay_us_status_change ; 0x196ac
        0x0001a216:    4605        .F      MOV      r5,r0
        0x0001a218:    2800        .(      CMP      r0,#0
        0x0001a21a:    d161        a.      BNE      0x1a2e0 ; am_hal_pwrctrl_periph_disable + 270
        0x0001a21c:    f5076173    ..sa    ADD      r1,r7,#0xf30
        0x0001a220:    2064        d       MOVS     r0,#0x64
        0x0001a222:    2201        ."      MOVS     r2,#1
        0x0001a224:    2301        .#      MOVS     r3,#1
        0x0001a226:    f7fffa41    ..A.    BL       am_hal_delay_us_status_change ; 0x196ac
        0x0001a22a:    4605        .F      MOV      r5,r0
        0x0001a22c:    2800        .(      CMP      r0,#0
        0x0001a22e:    d157        W.      BNE      0x1a2e0 ; am_hal_pwrctrl_periph_disable + 270
        0x0001a230:    f8d80004    ....    LDR      r0,[r8,#4]
        0x0001a234:    f0400001    @...    ORR      r0,r0,#1
        0x0001a238:    f8c80004    ....    STR      r0,[r8,#4]
        0x0001a23c:    200f        .       MOVS     r0,#0xf
        0x0001a23e:    f7fffa19    ....    BL       am_hal_delay_us ; 0x19674
        0x0001a242:    f2410004    A...    MOV      r0,#0x1004
        0x0001a246:    f2c40002    ....    MOVT     r0,#0x4002
        0x0001a24a:    f44f1180    O...    MOV      r1,#0x100000
        0x0001a24e:    2200        ."      MOVS     r2,#0
        0x0001a250:    2310        .#      MOVS     r3,#0x10
        0x0001a252:    f000fbb5    ....    BL       am_hal_util_write_and_wait ; 0x1a9c0
        0x0001a256:    6830        0h      LDR      r0,[r6,#0]
        0x0001a258:    ea100504    ....    ANDS     r5,r0,r4
        0x0001a25c:    bf18        ..      IT       NE
        0x0001a25e:    2501        .%      MOVNE    r5,#1
        0x0001a260:    e03e        >.      B        0x1a2e0 ; am_hal_pwrctrl_periph_disable + 270
        0x0001a262:    0100        ..      LSLS     r0,r0,#4
        0x0001a264:    6855        Uh      LDR      r5,[r2,#4]
        0x0001a266:    580f        .X      LDR      r7,[r1,r0]
        0x0001a268:    f7fffb56    ..V.    BL       am_hal_interrupt_master_disable ; 0x19918
        0x0001a26c:    9001        ..      STR      r0,[sp,#4]
        0x0001a26e:    6838        8h      LDR      r0,[r7,#0]
        0x0001a270:    43a8        .C      BICS     r0,r0,r5
        0x0001a272:    6038        8`      STR      r0,[r7,#0]
        0x0001a274:    9801        ..      LDR      r0,[sp,#4]
        0x0001a276:    f7fffb57    ..W.    BL       am_hal_interrupt_master_set ; 0x19928
        0x0001a27a:    2500        .%      MOVS     r5,#0
        0x0001a27c:    2005        .       MOVS     r0,#5
        0x0001a27e:    4631        1F      MOV      r1,r6
        0x0001a280:    4622        "F      MOV      r2,r4
        0x0001a282:    4623        #F      MOV      r3,r4
        0x0001a284:    9500        ..      STR      r5,[sp,#0]
        0x0001a286:    f7fffa3b    ..;.    BL       am_hal_delay_us_status_check ; 0x19700
        0x0001a28a:    b348        H.      CBZ      r0,0x1a2e0 ; am_hal_pwrctrl_periph_disable + 270
        0x0001a28c:    f5b47ff0    ....    CMP      r4,#0x1e0
        0x0001a290:    f04f0500    O...    MOV      r5,#0
        0x0001a294:    db0b        ..      BLT      0x1a2ae ; am_hal_pwrctrl_periph_disable + 220
        0x0001a296:    d012        ..      BEQ      0x1a2be ; am_hal_pwrctrl_periph_disable + 236
        0x0001a298:    f5b43fe0    ...?    CMP      r4,#0x1c000
        0x0001a29c:    d015        ..      BEQ      0x1a2ca ; am_hal_pwrctrl_periph_disable + 248
        0x0001a29e:    f5b45ff0    ..._    CMP      r4,#0x1e00
        0x0001a2a2:    d11d        ..      BNE      0x1a2e0 ; am_hal_pwrctrl_periph_disable + 270
        0x0001a2a4:    6838        8h      LDR      r0,[r7,#0]
        0x0001a2a6:    f4105ff0    ..._    TST      r0,#0x1e00
        0x0001a2aa:    d117        ..      BNE      0x1a2dc ; am_hal_pwrctrl_periph_disable + 266
        0x0001a2ac:    e017        ..      B        0x1a2de ; am_hal_pwrctrl_periph_disable + 268
        0x0001a2ae:    2c1e        .,      CMP      r4,#0x1e
        0x0001a2b0:    d010        ..      BEQ      0x1a2d4 ; am_hal_pwrctrl_periph_disable + 258
        0x0001a2b2:    2cff        .,      CMP      r4,#0xff
        0x0001a2b4:    d114        ..      BNE      0x1a2e0 ; am_hal_pwrctrl_periph_disable + 270
        0x0001a2b6:    6838        8h      LDR      r0,[r7,#0]
        0x0001a2b8:    0600        ..      LSLS     r0,r0,#24
        0x0001a2ba:    d10f        ..      BNE      0x1a2dc ; am_hal_pwrctrl_periph_disable + 266
        0x0001a2bc:    e00f        ..      B        0x1a2de ; am_hal_pwrctrl_periph_disable + 268
        0x0001a2be:    6838        8h      LDR      r0,[r7,#0]
        0x0001a2c0:    f4107ff0    ....    TST      r0,#0x1e0
        0x0001a2c4:    bf18        ..      IT       NE
        0x0001a2c6:    6838        8h      LDRNE    r0,[r7,#0]
        0x0001a2c8:    e009        ..      B        0x1a2de ; am_hal_pwrctrl_periph_disable + 268
        0x0001a2ca:    6838        8h      LDR      r0,[r7,#0]
        0x0001a2cc:    f4103fe0    ...?    TST      r0,#0x1c000
        0x0001a2d0:    d104        ..      BNE      0x1a2dc ; am_hal_pwrctrl_periph_disable + 266
        0x0001a2d2:    e004        ..      B        0x1a2de ; am_hal_pwrctrl_periph_disable + 268
        0x0001a2d4:    6838        8h      LDR      r0,[r7,#0]
        0x0001a2d6:    f0100f1e    ....    TST      r0,#0x1e
        0x0001a2da:    d000        ..      BEQ      0x1a2de ; am_hal_pwrctrl_periph_disable + 268
        0x0001a2dc:    6838        8h      LDR      r0,[r7,#0]
        0x0001a2de:    2500        .%      MOVS     r5,#0
        0x0001a2e0:    4628        (F      MOV      r0,r5
        0x0001a2e2:    b002        ..      ADD      sp,sp,#8
        0x0001a2e4:    e8bd81f0    ....    POP      {r4-r8,pc}
    am_hal_pwrctrl_periph_enable
        0x0001a2e8:    e92d41f0    -..A    PUSH     {r4-r8,lr}
        0x0001a2ec:    b082        ..      SUB      sp,sp,#8
        0x0001a2ee:    2821        !(      CMP      r0,#0x21
        0x0001a2f0:    d901        ..      BLS      0x1a2f6 ; am_hal_pwrctrl_periph_enable + 14
        0x0001a2f2:    2006        .       MOVS     r0,#6
        0x0001a2f4:    e043        C.      B        0x1a37e ; am_hal_pwrctrl_periph_enable + 150
        0x0001a2f6:    4604        .F      MOV      r4,r0
        0x0001a2f8:    f24c40a4    L..@    MOV      r0,#0xc4a4
        0x0001a2fc:    f2c00001    ....    MOVT     r0,#1
        0x0001a300:    eb001104    ....    ADD      r1,r0,r4,LSL #4
        0x0001a304:    e9d18602    ....    LDRD     r8,r6,[r1,#8]
        0x0001a308:    2c14        .,      CMP      r4,#0x14
        0x0001a30a:    d10b        ..      BNE      0x1a324 ; am_hal_pwrctrl_periph_enable + 60
        0x0001a30c:    f2410004    A...    MOV      r0,#0x1004
        0x0001a310:    f2c40002    ....    MOVT     r0,#0x4002
        0x0001a314:    f44f1180    O...    MOV      r1,#0x100000
        0x0001a318:    f44f1280    O...    MOV      r2,#0x100000
        0x0001a31c:    2310        .#      MOVS     r3,#0x10
        0x0001a31e:    f000fb4f    ..O.    BL       am_hal_util_write_and_wait ; 0x1a9c0
        0x0001a322:    e016        ..      B        0x1a352 ; am_hal_pwrctrl_periph_enable + 106
        0x0001a324:    eb001104    ....    ADD      r1,r0,r4,LSL #4
        0x0001a328:    0122        ".      LSLS     r2,r4,#4
        0x0001a32a:    684f        Oh      LDR      r7,[r1,#4]
        0x0001a32c:    5885        .X      LDR      r5,[r0,r2]
        0x0001a32e:    f7fffaf3    ....    BL       am_hal_interrupt_master_disable ; 0x19918
        0x0001a332:    9001        ..      STR      r0,[sp,#4]
        0x0001a334:    6828        (h      LDR      r0,[r5,#0]
        0x0001a336:    4338        8C      ORRS     r0,r0,r7
        0x0001a338:    6028        (`      STR      r0,[r5,#0]
        0x0001a33a:    9801        ..      LDR      r0,[sp,#4]
        0x0001a33c:    f7fffaf4    ....    BL       am_hal_interrupt_master_set ; 0x19928
        0x0001a340:    2701        .'      MOVS     r7,#1
        0x0001a342:    2005        .       MOVS     r0,#5
        0x0001a344:    4641        AF      MOV      r1,r8
        0x0001a346:    4632        2F      MOV      r2,r6
        0x0001a348:    4633        3F      MOV      r3,r6
        0x0001a34a:    9700        ..      STR      r7,[sp,#0]
        0x0001a34c:    f7fff9d8    ....    BL       am_hal_delay_us_status_check ; 0x19700
        0x0001a350:    b9a8        ..      CBNZ     r0,0x1a37e ; am_hal_pwrctrl_periph_enable + 150
        0x0001a352:    f8d80000    ....    LDR      r0,[r8,#0]
        0x0001a356:    4030        0@      ANDS     r0,r0,r6
        0x0001a358:    fab0f080    ....    CLZ      r0,r0
        0x0001a35c:    ea4f1050    O.P.    LSR      r0,r0,#5
        0x0001a360:    d00d        ..      BEQ      0x1a37e ; am_hal_pwrctrl_periph_enable + 150
        0x0001a362:    2c14        .,      CMP      r4,#0x14
        0x0001a364:    d10b        ..      BNE      0x1a37e ; am_hal_pwrctrl_periph_enable + 150
        0x0001a366:    f6417110    A..q    MOV      r1,#0x1f10
        0x0001a36a:    f2c4010c    ....    MOVT     r1,#0x400c
        0x0001a36e:    2064        d       MOVS     r0,#0x64
        0x0001a370:    2201        ."      MOVS     r2,#1
        0x0001a372:    2301        .#      MOVS     r3,#1
        0x0001a374:    b002        ..      ADD      sp,sp,#8
        0x0001a376:    e8bd41f0    ...A    POP      {r4-r8,lr}
        0x0001a37a:    f7ffb997    ....    B        am_hal_delay_us_status_change ; 0x196ac
        0x0001a37e:    b002        ..      ADD      sp,sp,#8
        0x0001a380:    e8bd81f0    ....    POP      {r4-r8,pc}
    am_hal_pwrctrl_sram_config
        0x0001a384:    b570        p.      PUSH     {r4-r6,lr}
        0x0001a386:    b082        ..      SUB      sp,sp,#8
        0x0001a388:    f2410624    A.$.    MOV      r6,#0x1024
        0x0001a38c:    f2c40602    ....    MOVT     r6,#0x4002
        0x0001a390:    4604        .F      MOV      r4,r0
        0x0001a392:    7800        .x      LDRB     r0,[r0,#0]
        0x0001a394:    6831        1h      LDR      r1,[r6,#0]
        0x0001a396:    2501        .%      MOVS     r5,#1
        0x0001a398:    f3600101    `...    BFI      r1,r0,#0,#2
        0x0001a39c:    6031        1`      STR      r1,[r6,#0]
        0x0001a39e:    4631        1F      MOV      r1,r6
        0x0001a3a0:    f8513b04    Q..;    LDR      r3,[r1],#4
        0x0001a3a4:    2005        .       MOVS     r0,#5
        0x0001a3a6:    2203        ."      MOVS     r2,#3
        0x0001a3a8:    9500        ..      STR      r5,[sp,#0]
        0x0001a3aa:    f7fff9a9    ....    BL       am_hal_delay_us_status_check ; 0x19700
        0x0001a3ae:    2800        .(      CMP      r0,#0
        0x0001a3b0:    d13a        :.      BNE      0x1a428 ; am_hal_pwrctrl_sram_config + 164
        0x0001a3b2:    6870        ph      LDR      r0,[r6,#4]
        0x0001a3b4:    6831        1h      LDR      r1,[r6,#0]
        0x0001a3b6:    4048        H@      EORS     r0,r0,r1
        0x0001a3b8:    0780        ..      LSLS     r0,r0,#30
        0x0001a3ba:    d001        ..      BEQ      0x1a3c0 ; am_hal_pwrctrl_sram_config + 60
        0x0001a3bc:    2001        .       MOVS     r0,#1
        0x0001a3be:    e033        3.      B        0x1a428 ; am_hal_pwrctrl_sram_config + 164
        0x0001a3c0:    7860        `x      LDRB     r0,[r4,#1]
        0x0001a3c2:    68b1        .h      LDR      r1,[r6,#8]
        0x0001a3c4:    f3600183    `...    BFI      r1,r0,#2,#2
        0x0001a3c8:    60b1        .`      STR      r1,[r6,#8]
        0x0001a3ca:    78a0        .x      LDRB     r0,[r4,#2]
        0x0001a3cc:    68b1        .h      LDR      r1,[r6,#8]
        0x0001a3ce:    f0000003    ....    AND      r0,r0,#3
        0x0001a3d2:    f02101c0    !...    BIC      r1,r1,#0xc0
        0x0001a3d6:    ea411080    A...    ORR      r0,r1,r0,LSL #6
        0x0001a3da:    60b0        .`      STR      r0,[r6,#8]
        0x0001a3dc:    78e0        .x      LDRB     r0,[r4,#3]
        0x0001a3de:    68b1        .h      LDR      r1,[r6,#8]
        0x0001a3e0:    f0000003    ....    AND      r0,r0,#3
        0x0001a3e4:    f4217140    !.@q    BIC      r1,r1,#0x300
        0x0001a3e8:    ea412000    A..     ORR      r0,r1,r0,LSL #8
        0x0001a3ec:    60b0        .`      STR      r0,[r6,#8]
        0x0001a3ee:    7920         y      LDRB     r0,[r4,#4]
        0x0001a3f0:    68b1        .h      LDR      r1,[r6,#8]
        0x0001a3f2:    f3601105    `...    BFI      r1,r0,#4,#2
        0x0001a3f6:    60b1        .`      STR      r1,[r6,#8]
        0x0001a3f8:    7960        `y      LDRB     r0,[r4,#5]
        0x0001a3fa:    2803        .(      CMP      r0,#3
        0x0001a3fc:    d813        ..      BHI      0x1a426 ; am_hal_pwrctrl_sram_config + 162
        0x0001a3fe:    e8dff000    ....    TBB      [pc,r0]
    $d.9
        0x0001a402:    0602        ..      DCW    1538
        0x0001a404:    0e09        ..      DCW    3593
    $t.10
        0x0001a406:    68b0        .h      LDR      r0,[r6,#8]
        0x0001a408:    f0400003    @...    ORR      r0,r0,#3
        0x0001a40c:    e00a        ..      B        0x1a424 ; am_hal_pwrctrl_sram_config + 160
        0x0001a40e:    68b0        .h      LDR      r0,[r6,#8]
        0x0001a410:    2102        .!      MOVS     r1,#2
        0x0001a412:    e001        ..      B        0x1a418 ; am_hal_pwrctrl_sram_config + 148
        0x0001a414:    68b0        .h      LDR      r0,[r6,#8]
        0x0001a416:    2101        .!      MOVS     r1,#1
        0x0001a418:    f3610001    a...    BFI      r0,r1,#0,#2
        0x0001a41c:    e002        ..      B        0x1a424 ; am_hal_pwrctrl_sram_config + 160
        0x0001a41e:    68b0        .h      LDR      r0,[r6,#8]
        0x0001a420:    f0200003     ...    BIC      r0,r0,#3
        0x0001a424:    60b0        .`      STR      r0,[r6,#8]
        0x0001a426:    2000        .       MOVS     r0,#0
        0x0001a428:    b002        ..      ADD      sp,sp,#8
        0x0001a42a:    bd70        p.      POP      {r4-r6,pc}
    am_hal_rtc_osc_disable
        0x0001a42c:    f6440100    D...    MOVW     r1,#0x4800
        0x0001a430:    f2c40100    ....    MOVT     r1,#0x4000
        0x0001a434:    6808        .h      LDR      r0,[r1,#0]
        0x0001a436:    f0400210    @...    ORR      r2,r0,#0x10
        0x0001a43a:    2000        .       MOVS     r0,#0
        0x0001a43c:    600a        .`      STR      r2,[r1,#0]
        0x0001a43e:    4770        pG      BX       lr
    am_hal_sysctrl_fpu_enable
        0x0001a440:    f64e5088    N..P    MOV      r0,#0xed88
        0x0001a444:    f2ce0000    ....    MOVT     r0,#0xe000
        0x0001a448:    f44f0170    O.p.    MOV      r1,#0xf00000
        0x0001a44c:    6001        .`      STR      r1,[r0,#0]
        0x0001a44e:    4770        pG      BX       lr
    am_hal_sysctrl_fpu_stacking_enable
        0x0001a450:    b510        ..      PUSH     {r4,lr}
        0x0001a452:    b082        ..      SUB      sp,sp,#8
        0x0001a454:    4604        .F      MOV      r4,r0
        0x0001a456:    f7fffa5f    .._.    BL       am_hal_interrupt_master_disable ; 0x19918
        0x0001a45a:    9001        ..      STR      r0,[sp,#4]
        0x0001a45c:    f64e7034    N.4p    MOV      r0,#0xef34
        0x0001a460:    f2ce0000    ....    MOVT     r0,#0xe000
        0x0001a464:    6801        .h      LDR      r1,[r0,#0]
        0x0001a466:    f04f4200    O..B    MOV      r2,#0x80000000
        0x0001a46a:    f0214140    !.@A    BIC      r1,r1,#0xc0000000
        0x0001a46e:    2c00        .,      CMP      r4,#0
        0x0001a470:    bf18        ..      IT       NE
        0x0001a472:    f04f4240    O.@B    MOVNE    r2,#0xc0000000
        0x0001a476:    4411        .D      ADD      r1,r1,r2
        0x0001a478:    6001        .`      STR      r1,[r0,#0]
        0x0001a47a:    9801        ..      LDR      r0,[sp,#4]
        0x0001a47c:    b002        ..      ADD      sp,sp,#8
        0x0001a47e:    e8bd4010    ...@    POP      {r4,lr}
        0x0001a482:    f7ffba51    ..Q.    B        am_hal_interrupt_master_set ; 0x19928
        0x0001a486:    0000        ..      MOVS     r0,r0
    am_hal_sysctrl_sleep
        0x0001a488:    e92d47f0    -..G    PUSH     {r4-r10,lr}
        0x0001a48c:    b082        ..      SUB      sp,sp,#8
        0x0001a48e:    a901        ..      ADD      r1,sp,#4
        0x0001a490:    f1b15f80    ..._    CMP      r1,#0x10000000
        0x0001a494:    d32c        ,.      BCC      0x1a4f0 ; am_hal_sysctrl_sleep + 104
        0x0001a496:    4604        .F      MOV      r4,r0
        0x0001a498:    2000        .       MOVS     r0,#0
        0x0001a49a:    f2c10006    ....    MOVT     r0,#0x1006
        0x0001a49e:    4281        .B      CMP      r1,r0
        0x0001a4a0:    d226        &.      BCS      0x1a4f0 ; am_hal_sysctrl_sleep + 104
        0x0001a4a2:    f64e5810    N..X    MOV      r8,#0xed10
        0x0001a4a6:    f2410500    A...    MOVW     r5,#0x1000
        0x0001a4aa:    f2403670    @.p6    MOVW     r6,#0x370
        0x0001a4ae:    f2ce0800    ....    MOVT     r8,#0xe000
        0x0001a4b2:    f2c40502    ....    MOVT     r5,#0x4002
        0x0001a4b6:    f2c40602    ....    MOVT     r6,#0x4002
        0x0001a4ba:    f7fffa2d    ..-.    BL       am_hal_interrupt_master_disable ; 0x19918
        0x0001a4be:    9000        ..      STR      r0,[sp,#0]
        0x0001a4c0:    6829        )h      LDR      r1,[r5,#0]
        0x0001a4c2:    f8d50108    ....    LDR      r0,[r5,#0x108]
        0x0001a4c6:    f0010903    ....    AND      r9,r1,#3
        0x0001a4ca:    b194        ..      CBZ      r4,0x1a4f2 ; am_hal_sysctrl_sleep + 106
        0x0001a4cc:    f64f61e0    O..a    MOV      r1,#0xfee0
        0x0001a4d0:    f6cf71ff    ...q    MOVT     r1,#0xffff
        0x0001a4d4:    5871        qX      LDR      r1,[r6,r1]
        0x0001a4d6:    06c9        ..      LSLS     r1,r1,#27
        0x0001a4d8:    d40b        ..      BMI      0x1a4f2 ; am_hal_sysctrl_sleep + 106
        0x0001a4da:    68a9        .h      LDR      r1,[r5,#8]
        0x0001a4dc:    02c9        ..      LSLS     r1,r1,#11
        0x0001a4de:    bf44        D.      ITT      MI
        0x0001a4e0:    69e9        .i      LDRMI    r1,[r5,#0x1c]
        0x0001a4e2:    ea5f7101    _..q    LSLSMI   r1,r1,#28
        0x0001a4e6:    d40e        ..      BMI      0x1a506 ; am_hal_sysctrl_sleep + 126
        0x0001a4e8:    f04f0a00    O...    MOV      r10,#0
        0x0001a4ec:    e011        ..      B        0x1a512 ; am_hal_sysctrl_sleep + 138
        0x0001a4ee:    bf00        ..      NOP      
        0x0001a4f0:    e7fe        ..      B        0x1a4f0 ; am_hal_sysctrl_sleep + 104
        0x0001a4f2:    f8d80000    ....    LDR      r0,[r8,#0]
        0x0001a4f6:    f04f34ff    O..4    MOV      r4,#0xffffffff
        0x0001a4fa:    f0200004     ...    BIC      r0,r0,#4
        0x0001a4fe:    f04f0a00    O...    MOV      r10,#0
        0x0001a502:    2700        .'      MOVS     r7,#0
        0x0001a504:    e01c        ..      B        0x1a540 ; am_hal_sysctrl_sleep + 184
        0x0001a506:    69e9        .i      LDR      r1,[r5,#0x1c]
        0x0001a508:    f04f0a01    O...    MOV      r10,#1
        0x0001a50c:    f0210108    !...    BIC      r1,r1,#8
        0x0001a510:    61e9        .a      STR      r1,[r5,#0x1c]
        0x0001a512:    f1b90f02    ....    CMP      r9,#2
        0x0001a516:    f0000430    ..0.    AND      r4,r0,#0x30
        0x0001a51a:    d102        ..      BNE      0x1a522 ; am_hal_sysctrl_sleep + 154
        0x0001a51c:    2001        .       MOVS     r0,#1
        0x0001a51e:    f7fffd95    ....    BL       am_hal_pwrctrl_mcu_mode_select ; 0x1a04c
        0x0001a522:    2c30        0,      CMP      r4,#0x30
        0x0001a524:    d105        ..      BNE      0x1a532 ; am_hal_sysctrl_sleep + 170
        0x0001a526:    6928        (i      LDR      r0,[r5,#0x10]
        0x0001a528:    0540        @.      LSLS     r0,r0,#21
        0x0001a52a:    d402        ..      BMI      0x1a532 ; am_hal_sysctrl_sleep + 170
        0x0001a52c:    68a8        .h      LDR      r0,[r5,#8]
        0x0001a52e:    01c0        ..      LSLS     r0,r0,#7
        0x0001a530:    d059        Y.      BEQ      0x1a5e6 ; am_hal_sysctrl_sleep + 350
        0x0001a532:    2700        .'      MOVS     r7,#0
        0x0001a534:    f04f34ff    O..4    MOV      r4,#0xffffffff
        0x0001a538:    f8d80000    ....    LDR      r0,[r8,#0]
        0x0001a53c:    f0400004    @...    ORR      r0,r0,#4
        0x0001a540:    f8c80000    ....    STR      r0,[r8,#0]
        0x0001a544:    2002        .       MOVS     r0,#2
        0x0001a546:    2100        .!      MOVS     r1,#0
        0x0001a548:    f7feff2a    ..*.    BL       am_hal_daxi_control ; 0x193a0
        0x0001a54c:    bf30        0.      WFI      
        0x0001a54e:    f3bf8f6f    ..o.    ISB      
        0x0001a552:    b3af        ..      CBZ      r7,0x1a5c0 ; am_hal_sysctrl_sleep + 312
        0x0001a554:    2001        .       MOVS     r0,#1
        0x0001a556:    f000ff93    ....    BL       buck_ldo_update_override ; 0x1b480
        0x0001a55a:    f8d50100    ....    LDR      r0,[r5,#0x100]
        0x0001a55e:    f0200001     ...    BIC      r0,r0,#1
        0x0001a562:    f8c50100    ....    STR      r0,[r5,#0x100]
        0x0001a566:    2000        .       MOVS     r0,#0
        0x0001a568:    f000ff8a    ....    BL       buck_ldo_update_override ; 0x1b480
        0x0001a56c:    2014        .       MOVS     r0,#0x14
        0x0001a56e:    f7fff881    ....    BL       am_hal_delay_us ; 0x19674
        0x0001a572:    1c60        `.      ADDS     r0,r4,#1
        0x0001a574:    d007        ..      BEQ      0x1a586 ; am_hal_sysctrl_sleep + 254
        0x0001a576:    f64f40d4    O..@    MOV      r0,#0xfcd4
        0x0001a57a:    f6cf70ff    ...p    MOVT     r0,#0xffff
        0x0001a57e:    5831        1X      LDR      r1,[r6,r0]
        0x0001a580:    f36411cd    d...    BFI      r1,r4,#7,#7
        0x0001a584:    5031        1P      STR      r1,[r6,r0]
        0x0001a586:    f8d50100    ....    LDR      r0,[r5,#0x100]
        0x0001a58a:    f0400001    @...    ORR      r0,r0,#1
        0x0001a58e:    f8c50100    ....    STR      r0,[r5,#0x100]
        0x0001a592:    2001        .       MOVS     r0,#1
        0x0001a594:    f000ff74    ..t.    BL       buck_ldo_update_override ; 0x1b480
        0x0001a598:    6930        0i      LDR      r0,[r6,#0x10]
        0x0001a59a:    f24011bc    @...    MOVW     r1,#0x1bc
        0x0001a59e:    f0404000    @..@    ORR      r0,r0,#0x80000000
        0x0001a5a2:    6130        0a      STR      r0,[r6,#0x10]
        0x0001a5a4:    6930        0i      LDR      r0,[r6,#0x10]
        0x0001a5a6:    f2c10100    ....    MOVT     r1,#0x1000
        0x0001a5aa:    f0404080    @..@    ORR      r0,r0,#0x40000000
        0x0001a5ae:    6130        0a      STR      r0,[r6,#0x10]
        0x0001a5b0:    6830        0h      LDR      r0,[r6,#0]
        0x0001a5b2:    f3c05005    ...P    UBFX     r0,r0,#20,#6
        0x0001a5b6:    6008        .`      STR      r0,[r1,#0]
        0x0001a5b8:    6830        0h      LDR      r0,[r6,#0]
        0x0001a5ba:    f020707c     .|p    BIC      r0,r0,#0x3f00000
        0x0001a5be:    6030        0`      STR      r0,[r6,#0]
        0x0001a5c0:    f1ba0f00    ....    CMP      r10,#0
        0x0001a5c4:    d003        ..      BEQ      0x1a5ce ; am_hal_sysctrl_sleep + 326
        0x0001a5c6:    69e8        .i      LDR      r0,[r5,#0x1c]
        0x0001a5c8:    f0400008    @...    ORR      r0,r0,#8
        0x0001a5cc:    61e8        .a      STR      r0,[r5,#0x1c]
        0x0001a5ce:    f1b90f02    ....    CMP      r9,#2
        0x0001a5d2:    d102        ..      BNE      0x1a5da ; am_hal_sysctrl_sleep + 338
        0x0001a5d4:    2002        .       MOVS     r0,#2
        0x0001a5d6:    f7fffd39    ..9.    BL       am_hal_pwrctrl_mcu_mode_select ; 0x1a04c
        0x0001a5da:    9800        ..      LDR      r0,[sp,#0]
        0x0001a5dc:    f7fff9a4    ....    BL       am_hal_interrupt_master_set ; 0x19928
        0x0001a5e0:    b002        ..      ADD      sp,sp,#8
        0x0001a5e2:    e8bd87f0    ....    POP      {r4-r10,pc}
        0x0001a5e6:    f24040ee    @..@    MOV      r0,#0x4ee
        0x0001a5ea:    f2c10000    ....    MOVT     r0,#0x1000
        0x0001a5ee:    7800        .x      LDRB     r0,[r0,#0]
        0x0001a5f0:    b1b8        ..      CBZ      r0,0x1a622 ; am_hal_sysctrl_sleep + 410
        0x0001a5f2:    68b0        .h      LDR      r0,[r6,#8]
        0x0001a5f4:    f24012b4    @...    MOVW     r2,#0x1b4
        0x0001a5f8:    f0404000    @..@    ORR      r0,r0,#0x80000000
        0x0001a5fc:    60b0        .`      STR      r0,[r6,#8]
        0x0001a5fe:    f64f40d4    O..@    MOV      r0,#0xfcd4
        0x0001a602:    f6cf70ff    ...p    MOVT     r0,#0xffff
        0x0001a606:    f2c10200    ....    MOVT     r2,#0x1000
        0x0001a60a:    5831        1X      LDR      r1,[r6,r0]
        0x0001a60c:    6812        .h      LDR      r2,[r2,#0]
        0x0001a60e:    5833        3X      LDR      r3,[r6,r0]
        0x0001a610:    f3c114c6    ....    UBFX     r4,r1,#7,#7
        0x0001a614:    f36213cd    b...    BFI      r3,r2,#7,#7
        0x0001a618:    5033        3P      STR      r3,[r6,r0]
        0x0001a61a:    2001        .       MOVS     r0,#1
        0x0001a61c:    f7fff82a    ..*.    BL       am_hal_delay_us ; 0x19674
        0x0001a620:    e001        ..      B        0x1a626 ; am_hal_sysctrl_sleep + 414
        0x0001a622:    f04f34ff    O..4    MOV      r4,#0xffffffff
        0x0001a626:    f24010bc    @...    MOVW     r0,#0x1bc
        0x0001a62a:    f2c10000    ....    MOVT     r0,#0x1000
        0x0001a62e:    6800        .h      LDR      r0,[r0,#0]
        0x0001a630:    6831        1h      LDR      r1,[r6,#0]
        0x0001a632:    f3605119    `..Q    BFI      r1,r0,#20,#6
        0x0001a636:    6031        1`      STR      r1,[r6,#0]
        0x0001a638:    6930        0i      LDR      r0,[r6,#0x10]
        0x0001a63a:    f0204000     ..@    BIC      r0,r0,#0x80000000
        0x0001a63e:    6130        0a      STR      r0,[r6,#0x10]
        0x0001a640:    6930        0i      LDR      r0,[r6,#0x10]
        0x0001a642:    f0204080     ..@    BIC      r0,r0,#0x40000000
        0x0001a646:    6130        0a      STR      r0,[r6,#0x10]
        0x0001a648:    2000        .       MOVS     r0,#0
        0x0001a64a:    f000ff19    ....    BL       buck_ldo_update_override ; 0x1b480
        0x0001a64e:    2701        .'      MOVS     r7,#1
        0x0001a650:    e772        r.      B        0x1a538 ; am_hal_sysctrl_sleep + 176
    am_hal_timer_clear
        0x0001a652:    b510        ..      PUSH     {r4,lr}
        0x0001a654:    b082        ..      SUB      sp,sp,#8
        0x0001a656:    4604        .F      MOV      r4,r0
        0x0001a658:    f7fff95e    ..^.    BL       am_hal_interrupt_master_disable ; 0x19918
        0x0001a65c:    f2481104    H...    MOV      r1,#0x8104
        0x0001a660:    9001        ..      STR      r0,[sp,#4]
        0x0001a662:    f2c40100    ....    MOVT     r1,#0x4000
        0x0001a666:    2001        .       MOVS     r0,#1
        0x0001a668:    680a        .h      LDR      r2,[r1,#0]
        0x0001a66a:    40a0        .@      LSLS     r0,r0,r4
        0x0001a66c:    4382        .C      BICS     r2,r2,r0
        0x0001a66e:    600a        .`      STR      r2,[r1,#0]
        0x0001a670:    eb011244    ..D.    ADD      r2,r1,r4,LSL #5
        0x0001a674:    f8d230fc    ...0    LDR      r3,[r2,#0xfc]
        0x0001a678:    f0230301    #...    BIC      r3,r3,#1
        0x0001a67c:    f8c230fc    ...0    STR      r3,[r2,#0xfc]
        0x0001a680:    f8d230fc    ...0    LDR      r3,[r2,#0xfc]
        0x0001a684:    f0430302    C...    ORR      r3,r3,#2
        0x0001a688:    f8c230fc    ...0    STR      r3,[r2,#0xfc]
        0x0001a68c:    f8d230fc    ...0    LDR      r3,[r2,#0xfc]
        0x0001a690:    f0430301    C...    ORR      r3,r3,#1
        0x0001a694:    f8c230fc    ...0    STR      r3,[r2,#0xfc]
        0x0001a698:    680a        .h      LDR      r2,[r1,#0]
        0x0001a69a:    4310        .C      ORRS     r0,r0,r2
        0x0001a69c:    6008        .`      STR      r0,[r1,#0]
        0x0001a69e:    9801        ..      LDR      r0,[sp,#4]
        0x0001a6a0:    f7fff942    ..B.    BL       am_hal_interrupt_master_set ; 0x19928
        0x0001a6a4:    2000        .       MOVS     r0,#0
        0x0001a6a6:    b002        ..      ADD      sp,sp,#8
        0x0001a6a8:    bd10        ..      POP      {r4,pc}
    am_hal_timer_clear_stop
        0x0001a6aa:    b510        ..      PUSH     {r4,lr}
        0x0001a6ac:    b082        ..      SUB      sp,sp,#8
        0x0001a6ae:    4604        .F      MOV      r4,r0
        0x0001a6b0:    f7fff932    ..2.    BL       am_hal_interrupt_master_disable ; 0x19918
        0x0001a6b4:    f2481104    H...    MOV      r1,#0x8104
        0x0001a6b8:    9001        ..      STR      r0,[sp,#4]
        0x0001a6ba:    f2c40100    ....    MOVT     r1,#0x4000
        0x0001a6be:    2001        .       MOVS     r0,#1
        0x0001a6c0:    680a        .h      LDR      r2,[r1,#0]
        0x0001a6c2:    40a0        .@      LSLS     r0,r0,r4
        0x0001a6c4:    ea220000    "...    BIC      r0,r2,r0
        0x0001a6c8:    6008        .`      STR      r0,[r1,#0]
        0x0001a6ca:    eb011044    ..D.    ADD      r0,r1,r4,LSL #5
        0x0001a6ce:    f8d010fc    ....    LDR      r1,[r0,#0xfc]
        0x0001a6d2:    f0210101    !...    BIC      r1,r1,#1
        0x0001a6d6:    f8c010fc    ....    STR      r1,[r0,#0xfc]
        0x0001a6da:    f8d010fc    ....    LDR      r1,[r0,#0xfc]
        0x0001a6de:    f0410102    A...    ORR      r1,r1,#2
        0x0001a6e2:    f8c010fc    ....    STR      r1,[r0,#0xfc]
        0x0001a6e6:    f8d010fc    ....    LDR      r1,[r0,#0xfc]
        0x0001a6ea:    f0410101    A...    ORR      r1,r1,#1
        0x0001a6ee:    f8c010fc    ....    STR      r1,[r0,#0xfc]
        0x0001a6f2:    9801        ..      LDR      r0,[sp,#4]
        0x0001a6f4:    f7fff918    ....    BL       am_hal_interrupt_master_set ; 0x19928
        0x0001a6f8:    2000        .       MOVS     r0,#0
        0x0001a6fa:    b002        ..      ADD      sp,sp,#8
        0x0001a6fc:    bd10        ..      POP      {r4,pc}
    am_hal_timer_default_config_set
        0x0001a6fe:    4601        .F      MOV      r1,r0
        0x0001a700:    f2401001    @...    MOV      r0,#0x101
        0x0001a704:    8008        ..      STRH     r0,[r1,#0]
        0x0001a706:    f04f7080    O..p    MOV      r0,#0x1000000
        0x0001a70a:    f04f32ff    O..2    MOV      r2,#0xffffffff
        0x0001a70e:    f8c10002    ....    STR      r0,[r1,#2]
        0x0001a712:    2000        .       MOVS     r0,#0
        0x0001a714:    e9c10202    ....    STRD     r0,r2,[r1,#8]
        0x0001a718:    2000        .       MOVS     r0,#0
        0x0001a71a:    610a        .a      STR      r2,[r1,#0x10]
        0x0001a71c:    4770        pG      BX       lr
    am_hal_timer_disable
        0x0001a71e:    b510        ..      PUSH     {r4,lr}
        0x0001a720:    b082        ..      SUB      sp,sp,#8
        0x0001a722:    4604        .F      MOV      r4,r0
        0x0001a724:    f7fff8f8    ....    BL       am_hal_interrupt_master_disable ; 0x19918
        0x0001a728:    f2481104    H...    MOV      r1,#0x8104
        0x0001a72c:    9001        ..      STR      r0,[sp,#4]
        0x0001a72e:    f2c40100    ....    MOVT     r1,#0x4000
        0x0001a732:    2001        .       MOVS     r0,#1
        0x0001a734:    680a        .h      LDR      r2,[r1,#0]
        0x0001a736:    40a0        .@      LSLS     r0,r0,r4
        0x0001a738:    ea220000    "...    BIC      r0,r2,r0
        0x0001a73c:    6008        .`      STR      r0,[r1,#0]
        0x0001a73e:    eb011044    ..D.    ADD      r0,r1,r4,LSL #5
        0x0001a742:    f8d010fc    ....    LDR      r1,[r0,#0xfc]
        0x0001a746:    f0210101    !...    BIC      r1,r1,#1
        0x0001a74a:    f8c010fc    ....    STR      r1,[r0,#0xfc]
        0x0001a74e:    9801        ..      LDR      r0,[sp,#4]
        0x0001a750:    f7fff8ea    ....    BL       am_hal_interrupt_master_set ; 0x19928
        0x0001a754:    2000        .       MOVS     r0,#0
        0x0001a756:    b002        ..      ADD      sp,sp,#8
        0x0001a758:    bd10        ..      POP      {r4,pc}
    am_hal_timer_enable
        0x0001a75a:    b510        ..      PUSH     {r4,lr}
        0x0001a75c:    b082        ..      SUB      sp,sp,#8
        0x0001a75e:    4604        .F      MOV      r4,r0
        0x0001a760:    f7fff8da    ....    BL       am_hal_interrupt_master_disable ; 0x19918
        0x0001a764:    f2480110    H...    MOV      r1,#0x8010
        0x0001a768:    9001        ..      STR      r0,[sp,#4]
        0x0001a76a:    f2c40100    ....    MOVT     r1,#0x4000
        0x0001a76e:    2001        .       MOVS     r0,#1
        0x0001a770:    f8d120f4    ...     LDR      r2,[r1,#0xf4]
        0x0001a774:    40a0        .@      LSLS     r0,r0,r4
        0x0001a776:    4382        .C      BICS     r2,r2,r0
        0x0001a778:    f8c120f4    ...     STR      r2,[r1,#0xf4]
        0x0001a77c:    680a        .h      LDR      r2,[r1,#0]
        0x0001a77e:    4302        .C      ORRS     r2,r2,r0
        0x0001a780:    600a        .`      STR      r2,[r1,#0]
        0x0001a782:    eb011244    ..D.    ADD      r2,r1,r4,LSL #5
        0x0001a786:    f8d231f0    ...1    LDR      r3,[r2,#0x1f0]
        0x0001a78a:    f0430301    C...    ORR      r3,r3,#1
        0x0001a78e:    f8c231f0    ...1    STR      r3,[r2,#0x1f0]
        0x0001a792:    f8d120f4    ...     LDR      r2,[r1,#0xf4]
        0x0001a796:    4310        .C      ORRS     r0,r0,r2
        0x0001a798:    f8c100f4    ....    STR      r0,[r1,#0xf4]
        0x0001a79c:    9801        ..      LDR      r0,[sp,#4]
        0x0001a79e:    f7fff8c3    ....    BL       am_hal_interrupt_master_set ; 0x19928
        0x0001a7a2:    2000        .       MOVS     r0,#0
        0x0001a7a4:    b002        ..      ADD      sp,sp,#8
        0x0001a7a6:    bd10        ..      POP      {r4,pc}
    am_hal_timer_enable_sync
        0x0001a7a8:    b5b0        ..      PUSH     {r4,r5,r7,lr}
        0x0001a7aa:    b082        ..      SUB      sp,sp,#8
        0x0001a7ac:    f2480510    H...    MOV      r5,#0x8010
        0x0001a7b0:    4604        .F      MOV      r4,r0
        0x0001a7b2:    f2c40500    ....    MOVT     r5,#0x4000
        0x0001a7b6:    f7fff8af    ....    BL       am_hal_interrupt_master_disable ; 0x19918
        0x0001a7ba:    9001        ..      STR      r0,[sp,#4]
        0x0001a7bc:    6828        (h      LDR      r0,[r5,#0]
        0x0001a7be:    f04f0c01    O...    MOV      r12,#1
        0x0001a7c2:    ea200104     ...    BIC      r1,r0,r4
        0x0001a7c6:    4628        (F      MOV      r0,r5
        0x0001a7c8:    f8401910    @...    STR      r1,[r0],#-0x10
        0x0001a7cc:    2100        .!      MOVS     r1,#0
        0x0001a7ce:    bf00        ..      NOP      
        0x0001a7d0:    fa0cf301    ....    LSL      r3,r12,r1
        0x0001a7d4:    4223        #B      TST      r3,r4
        0x0001a7d6:    d00f        ..      BEQ      0x1a7f8 ; am_hal_timer_enable_sync + 80
        0x0001a7d8:    f8d520f4    ...     LDR      r2,[r5,#0xf4]
        0x0001a7dc:    439a        .C      BICS     r2,r2,r3
        0x0001a7de:    f8c520f4    ...     STR      r2,[r5,#0xf4]
        0x0001a7e2:    f8d02200    ..."    LDR      r2,[r0,#0x200]
        0x0001a7e6:    f0420201    B...    ORR      r2,r2,#1
        0x0001a7ea:    f8c02200    ..."    STR      r2,[r0,#0x200]
        0x0001a7ee:    f8d520f4    ...     LDR      r2,[r5,#0xf4]
        0x0001a7f2:    431a        .C      ORRS     r2,r2,r3
        0x0001a7f4:    f8c520f4    ...     STR      r2,[r5,#0xf4]
        0x0001a7f8:    3101        .1      ADDS     r1,#1
        0x0001a7fa:    2910        .)      CMP      r1,#0x10
        0x0001a7fc:    f1000020    .. .    ADD      r0,r0,#0x20
        0x0001a800:    d1e6        ..      BNE      0x1a7d0 ; am_hal_timer_enable_sync + 40
        0x0001a802:    6828        (h      LDR      r0,[r5,#0]
        0x0001a804:    4320         C      ORRS     r0,r0,r4
        0x0001a806:    6028        (`      STR      r0,[r5,#0]
        0x0001a808:    9801        ..      LDR      r0,[sp,#4]
        0x0001a80a:    f7fff88d    ....    BL       am_hal_interrupt_master_set ; 0x19928
        0x0001a80e:    2000        .       MOVS     r0,#0
        0x0001a810:    b002        ..      ADD      sp,sp,#8
        0x0001a812:    bdb0        ..      POP      {r4,r5,r7,pc}
    am_hal_timer_interrupt_clear
        0x0001a814:    f2480268    H.h.    MOV      r2,#0x8068
        0x0001a818:    4601        .F      MOV      r1,r0
        0x0001a81a:    f2c40200    ....    MOVT     r2,#0x4000
        0x0001a81e:    2000        .       MOVS     r0,#0
        0x0001a820:    6011        .`      STR      r1,[r2,#0]
        0x0001a822:    4770        pG      BX       lr
    am_hal_timer_interrupt_enable
        0x0001a824:    210c        .!      MOVS     r1,#0xc
        0x0001a826:    f2c40102    ....    MOVT     r1,#0x4002
        0x0001a82a:    6809        .h      LDR      r1,[r1,#0]
        0x0001a82c:    f00101fe    ....    AND      r1,r1,#0xfe
        0x0001a830:    2922        ")      CMP      r1,#0x22
        0x0001a832:    d316        ..      BCC      0x1a862 ; am_hal_timer_interrupt_enable + 62
        0x0001a834:    f2402c58    @.X,    MOVW     r12,#0x258
        0x0001a838:    2100        .!      MOVS     r1,#0
        0x0001a83a:    f2c10c00    ....    MOVT     r12,#0x1000
        0x0001a83e:    4603        .F      MOV      r3,r0
        0x0001a840:    07da        ..      LSLS     r2,r3,#31
        0x0001a842:    d003        ..      BEQ      0x1a84c ; am_hal_timer_interrupt_enable + 40
        0x0001a844:    eb0c0281    ....    ADD      r2,r12,r1,LSL #2
        0x0001a848:    7852        Rx      LDRB     r2,[r2,#1]
        0x0001a84a:    b19a        ..      CBZ      r2,0x1a874 ; am_hal_timer_interrupt_enable + 80
        0x0001a84c:    079a        ..      LSLS     r2,r3,#30
        0x0001a84e:    d503        ..      BPL      0x1a858 ; am_hal_timer_interrupt_enable + 52
        0x0001a850:    eb0c0281    ....    ADD      r2,r12,r1,LSL #2
        0x0001a854:    78d2        .x      LDRB     r2,[r2,#3]
        0x0001a856:    b16a        j.      CBZ      r2,0x1a874 ; am_hal_timer_interrupt_enable + 80
        0x0001a858:    3101        .1      ADDS     r1,#1
        0x0001a85a:    2910        .)      CMP      r1,#0x10
        0x0001a85c:    ea4f0393    O...    LSR      r3,r3,#2
        0x0001a860:    d1ee        ..      BNE      0x1a840 ; am_hal_timer_interrupt_enable + 28
        0x0001a862:    f2480160    H.`.    MOV      r1,#0x8060
        0x0001a866:    f2c40100    ....    MOVT     r1,#0x4000
        0x0001a86a:    680a        .h      LDR      r2,[r1,#0]
        0x0001a86c:    4310        .C      ORRS     r0,r0,r2
        0x0001a86e:    6008        .`      STR      r0,[r1,#0]
        0x0001a870:    2000        .       MOVS     r0,#0
        0x0001a872:    4770        pG      BX       lr
        0x0001a874:    2006        .       MOVS     r0,#6
        0x0001a876:    4770        pG      BX       lr
    am_hal_timer_interrupt_status_get
        0x0001a878:    f2480360    H.`.    MOV      r3,#0x8060
        0x0001a87c:    f2c40300    ....    MOVT     r3,#0x4000
        0x0001a880:    685a        Zh      LDR      r2,[r3,#4]
        0x0001a882:    b108        ..      CBZ      r0,0x1a888 ; am_hal_timer_interrupt_status_get + 16
        0x0001a884:    6818        .h      LDR      r0,[r3,#0]
        0x0001a886:    4002        .@      ANDS     r2,r2,r0
        0x0001a888:    2000        .       MOVS     r0,#0
        0x0001a88a:    600a        .`      STR      r2,[r1,#0]
        0x0001a88c:    4770        pG      BX       lr
    am_hal_timer_read
        0x0001a88e:    b580        ..      PUSH     {r7,lr}
        0x0001a890:    b084        ..      SUB      sp,sp,#0x10
        0x0001a892:    f2482104    H..!    MOV      r1,#0x8204
        0x0001a896:    f2c40100    ....    MOVT     r1,#0x4000
        0x0001a89a:    eb011040    ..@.    ADD      r0,r1,r0,LSL #5
        0x0001a89e:    a901        ..      ADD      r1,sp,#4
        0x0001a8a0:    f000f87c    ..|.    BL       am_hal_triple_read ; 0x1a99c
        0x0001a8a4:    e9dd1201    ....    LDRD     r1,r2,[sp,#4]
        0x0001a8a8:    9803        ..      LDR      r0,[sp,#0xc]
        0x0001a8aa:    4291        .B      CMP      r1,r2
        0x0001a8ac:    bf08        ..      IT       EQ
        0x0001a8ae:    4608        .F      MOVEQ    r0,r1
        0x0001a8b0:    b004        ..      ADD      sp,sp,#0x10
        0x0001a8b2:    bd80        ..      POP      {r7,pc}
    am_hal_timer_reset_config
        0x0001a8b4:    b5f0        ..      PUSH     {r4-r7,lr}
        0x0001a8b6:    b081        ..      SUB      sp,sp,#4
        0x0001a8b8:    f2480660    H.`.    MOV      r6,#0x8060
        0x0001a8bc:    f2c40600    ....    MOVT     r6,#0x4000
        0x0001a8c0:    4604        .F      MOV      r4,r0
        0x0001a8c2:    0040        @.      LSLS     r0,r0,#1
        0x0001a8c4:    2103        .!      MOVS     r1,#3
        0x0001a8c6:    6832        2h      LDR      r2,[r6,#0]
        0x0001a8c8:    fa01f700    ....    LSL      r7,r1,r0
        0x0001a8cc:    ea220007    "...    BIC      r0,r2,r7
        0x0001a8d0:    6030        0`      STR      r0,[r6,#0]
        0x0001a8d2:    2001        .       MOVS     r0,#1
        0x0001a8d4:    fa00f504    ....    LSL      r5,r0,r4
        0x0001a8d8:    4628        (F      MOV      r0,r5
        0x0001a8da:    f7ffff65    ..e.    BL       am_hal_timer_enable_sync ; 0x1a7a8
        0x0001a8de:    4620         F      MOV      r0,r4
        0x0001a8e0:    f7ffff1d    ....    BL       am_hal_timer_disable ; 0x1a71e
        0x0001a8e4:    f8d600a4    ....    LDR      r0,[r6,#0xa4]
        0x0001a8e8:    2100        .!      MOVS     r1,#0
        0x0001a8ea:    43a8        .C      BICS     r0,r0,r5
        0x0001a8ec:    f8c600a4    ....    STR      r0,[r6,#0xa4]
        0x0001a8f0:    eb061044    ..D.    ADD      r0,r6,r4,LSL #5
        0x0001a8f4:    f8c011a0    ....    STR      r1,[r0,#0x1a0]
        0x0001a8f8:    f8c011a4    ....    STR      r1,[r0,#0x1a4]
        0x0001a8fc:    f8c011a8    ....    STR      r1,[r0,#0x1a8]
        0x0001a900:    f8c011ac    ....    STR      r1,[r0,#0x1ac]
        0x0001a904:    f8c011b0    ....    STR      r1,[r0,#0x1b0]
        0x0001a908:    f8d600a4    ....    LDR      r0,[r6,#0xa4]
        0x0001a90c:    f2402258    @.X"    MOVW     r2,#0x258
        0x0001a910:    4328        (C      ORRS     r0,r0,r5
        0x0001a912:    f2c10200    ....    MOVT     r2,#0x1000
        0x0001a916:    f8c600a4    ....    STR      r0,[r6,#0xa4]
        0x0001a91a:    60b7        .`      STR      r7,[r6,#8]
        0x0001a91c:    2000        .       MOVS     r0,#0
        0x0001a91e:    f8421024    B.$.    STR      r1,[r2,r4,LSL #2]
        0x0001a922:    b001        ..      ADD      sp,sp,#4
        0x0001a924:    bdf0        ..      POP      {r4-r7,pc}
    am_hal_tpiu_enable
        0x0001a926:    b580        ..      PUSH     {r7,lr}
        0x0001a928:    f24a3280    J..2    MOV      r2,#0xa380
        0x0001a92c:    2104        .!      MOVS     r1,#4
        0x0001a92e:    f5a04361    ..aC    SUB      r3,r0,#0xe100
        0x0001a932:    f2c0021d    ....    MOVT     r2,#0x1d
        0x0001a936:    f2ce0104    ....    MOVT     r1,#0xe004
        0x0001a93a:    f04f0e00    O...    MOV      lr,#0
        0x0001a93e:    4293        .B      CMP      r3,r2
        0x0001a940:    f2436200    C..b    MOVW     r2,#0x3600
        0x0001a944:    f8c1e300    ....    STR      lr,[r1,#0x300]
        0x0001a948:    bf84        ..      ITT      HI
        0x0001a94a:    f2442040    D.@     MOVHI    r0,#0x4240
        0x0001a94e:    f2c0000f    ....    MOVTHI   r0,#0xf
        0x0001a952:    f2c0126e    ..n.    MOVT     r2,#0x16e
        0x0001a956:    fbb2f0f0    ....    UDIV     r0,r2,r0
        0x0001a95a:    f04f0c01    O...    MOV      r12,#1
        0x0001a95e:    3801        .8      SUBS     r0,#1
        0x0001a960:    b280        ..      UXTH     r0,r0
        0x0001a962:    f8c1c000    ....    STR      r12,[r1,#0]
        0x0001a966:    60c8        .`      STR      r0,[r1,#0xc]
        0x0001a968:    2002        .       MOVS     r0,#2
        0x0001a96a:    f8c100ec    ....    STR      r0,[r1,#0xec]
        0x0001a96e:    f6407000    @..p    MOVW     r0,#0xf00
        0x0001a972:    f2ce0004    ....    MOVT     r0,#0xe004
        0x0001a976:    f2402150    @.P!    MOVW     r1,#0x250
        0x0001a97a:    f8c0e000    ....    STR      lr,[r0,#0]
        0x0001a97e:    f2c40102    ....    MOVT     r1,#0x4002
        0x0001a982:    6808        .h      LDR      r0,[r1,#0]
        0x0001a984:    f36c0043    l.C.    BFI      r0,r12,#1,#3
        0x0001a988:    6008        .`      STR      r0,[r1,#0]
        0x0001a98a:    6808        .h      LDR      r0,[r1,#0]
        0x0001a98c:    f0400201    @...    ORR      r2,r0,#1
        0x0001a990:    2064        d       MOVS     r0,#0x64
        0x0001a992:    600a        .`      STR      r2,[r1,#0]
        0x0001a994:    e8bd4080    ...@    POP      {r7,lr}
        0x0001a998:    f7febe6c    ..l.    B        am_hal_delay_us ; 0x19674
    am_hal_triple_read
        0x0001a99c:    b510        ..      PUSH     {r4,lr}
        0x0001a99e:    468c        .F      MOV      r12,r1
        0x0001a9a0:    4686        .F      MOV      lr,r0
        0x0001a9a2:    b412        ..      PUSH     {r1,r4}
        0x0001a9a4:    f3ef8410    ....    MRS      r4,PRIMASK
        0x0001a9a8:    b672        r.      CPSID    i
        0x0001a9aa:    bf00        ..      NOP      
        0x0001a9ac:    6801        .h      LDR      r1,[r0,#0]
        0x0001a9ae:    6802        .h      LDR      r2,[r0,#0]
        0x0001a9b0:    6803        .h      LDR      r3,[r0,#0]
        0x0001a9b2:    f3848810    ....    MSR      PRIMASK,r4
        0x0001a9b6:    bc11        ..      POP      {r0,r4}
        0x0001a9b8:    6001        .`      STR      r1,[r0,#0]
        0x0001a9ba:    6042        B`      STR      r2,[r0,#4]
        0x0001a9bc:    6083        .`      STR      r3,[r0,#8]
        0x0001a9be:    bd10        ..      POP      {r4,pc}
    am_hal_util_write_and_wait
        0x0001a9c0:    e92d4ff0    -..O    PUSH     {r4-r11,lr}
        0x0001a9c4:    b087        ..      SUB      sp,sp,#0x1c
        0x0001a9c6:    461f        .F      MOV      r7,r3
        0x0001a9c8:    4614        .F      MOV      r4,r2
        0x0001a9ca:    460e        .F      MOV      r6,r1
        0x0001a9cc:    4680        .F      MOV      r8,r0
        0x0001a9ce:    f7feffa3    ....    BL       am_hal_interrupt_master_disable ; 0x19918
        0x0001a9d2:    ad02        ..      ADD      r5,sp,#8
        0x0001a9d4:    9001        ..      STR      r0,[sp,#4]
        0x0001a9d6:    4628        (F      MOV      r0,r5
        0x0001a9d8:    f7fffe91    ....    BL       am_hal_timer_default_config_set ; 0x1a6fe
        0x0001a9dc:    f6485080    H..P    MOV      r0,#0x8d80
        0x0001a9e0:    f2c0005b    ..[.    MOVT     r0,#0x5b
        0x0001a9e4:    f64d6183    M..a    MOV      r1,#0xde83
        0x0001a9e8:    4378        xC      MULS     r0,r7,r0
        0x0001a9ea:    f2c4311b    ...1    MOVT     r1,#0x431b
        0x0001a9ee:    fba00101    ....    UMULL    r0,r1,r0,r1
        0x0001a9f2:    2001        .       MOVS     r0,#1
        0x0001a9f4:    f88d0009    ....    STRB     r0,[sp,#9]
        0x0001a9f8:    f04f30ff    O..0    MOV      r0,#0xffffffff
        0x0001a9fc:    9005        ..      STR      r0,[sp,#0x14]
        0x0001a9fe:    2000        .       MOVS     r0,#0
        0x0001aa00:    9004        ..      STR      r0,[sp,#0x10]
        0x0001aa02:    0c88        ..      LSRS     r0,r1,#18
        0x0001aa04:    9006        ..      STR      r0,[sp,#0x18]
        0x0001aa06:    200d        .       MOVS     r0,#0xd
        0x0001aa08:    4629        )F      MOV      r1,r5
        0x0001aa0a:    f000ff4b    ..K.    BL       internal_timer_config ; 0x1b8a4
        0x0001aa0e:    4607        .F      MOV      r7,r0
        0x0001aa10:    2800        .(      CMP      r0,#0
        0x0001aa12:    d171        q.      BNE      0x1aaf8 ; am_hal_util_write_and_wait + 312
        0x0001aa14:    200d        .       MOVS     r0,#0xd
        0x0001aa16:    f7fffe1c    ....    BL       am_hal_timer_clear ; 0x1a652
        0x0001aa1a:    200d        .       MOVS     r0,#0xd
        0x0001aa1c:    f7fffe7f    ....    BL       am_hal_timer_disable ; 0x1a71e
        0x0001aa20:    f04f6000    O..`    MOV      r0,#0x8000000
        0x0001aa24:    f7fffef6    ....    BL       am_hal_timer_interrupt_clear ; 0x1a814
        0x0001aa28:    4607        .F      MOV      r7,r0
        0x0001aa2a:    2800        .(      CMP      r0,#0
        0x0001aa2c:    d164        d.      BNE      0x1aaf8 ; am_hal_util_write_and_wait + 312
        0x0001aa2e:    f04f6000    O..`    MOV      r0,#0x8000000
        0x0001aa32:    f7fffef7    ....    BL       am_hal_timer_interrupt_enable ; 0x1a824
        0x0001aa36:    4607        .F      MOV      r7,r0
        0x0001aa38:    2800        .(      CMP      r0,#0
        0x0001aa3a:    d15d        ].      BNE      0x1aaf8 ; am_hal_util_write_and_wait + 312
        0x0001aa3c:    f24e2a00    N..*    MOVW     r10,#0xe200
        0x0001aa40:    f2ce0a00    ....    MOVT     r10,#0xe000
        0x0001aa44:    2000        .       MOVS     r0,#0
        0x0001aa46:    f88a0250    ..P.    STRB     r0,[r10,#0x250]
        0x0001aa4a:    f44f3080    O..0    MOV      r0,#0x10000
        0x0001aa4e:    f64e570c    N..W    MOV      r7,#0xed0c
        0x0001aa52:    f84a0cf8    J...    STR      r0,[r10,#-0xf8]
        0x0001aa56:    f2ce0700    ....    MOVT     r7,#0xe000
        0x0001aa5a:    6838        8h      LDR      r0,[r7,#0]
        0x0001aa5c:    f3c02502    ...%    UBFX     r5,r0,#8,#3
        0x0001aa60:    2d07        .-      CMP      r5,#7
        0x0001aa62:    d101        ..      BNE      0x1aa68 ; am_hal_util_write_and_wait + 168
        0x0001aa64:    2701        .'      MOVS     r7,#1
        0x0001aa66:    e047        G.      B        0x1aaf8 ; am_hal_util_write_and_wait + 312
        0x0001aa68:    2002        .       MOVS     r0,#2
        0x0001aa6a:    2100        .!      MOVS     r1,#0
        0x0001aa6c:    f04f0b02    O...    MOV      r11,#2
        0x0001aa70:    f7fefc96    ....    BL       am_hal_daxi_control ; 0x193a0
        0x0001aa74:    2d05        .-      CMP      r5,#5
        0x0001aa76:    f3ef8911    ....    MRS      r9,BASEPRI
        0x0001aa7a:    bf34        4.      ITE      CC
        0x0001aa7c:    2020                MOVCC    r0,#0x20
        0x0001aa7e:    fa0bf005    ....    LSLCS    r0,r11,r5
        0x0001aa82:    f3808811    ....    MSR      BASEPRI,r0
        0x0001aa86:    1c70        p.      ADDS     r0,r6,#1
        0x0001aa88:    d003        ..      BEQ      0x1aa92 ; am_hal_util_write_and_wait + 210
        0x0001aa8a:    f8d80000    ....    LDR      r0,[r8,#0]
        0x0001aa8e:    43b0        .C      BICS     r0,r0,r6
        0x0001aa90:    4304        .C      ORRS     r4,r4,r0
        0x0001aa92:    200d        .       MOVS     r0,#0xd
        0x0001aa94:    f7fffddd    ....    BL       am_hal_timer_clear ; 0x1a652
        0x0001aa98:    6878        xh      LDR      r0,[r7,#4]
        0x0001aa9a:    4641        AF      MOV      r1,r8
        0x0001aa9c:    f0200004     ...    BIC      r0,r0,#4
        0x0001aaa0:    6078        x`      STR      r0,[r7,#4]
        0x0001aaa2:    f24010f0    @...    MOVW     r0,#0x1f0
        0x0001aaa6:    f2c10000    ....    MOVT     r0,#0x1000
        0x0001aaaa:    6802        .h      LDR      r2,[r0,#0]
        0x0001aaac:    4620         F      MOV      r0,r4
        0x0001aaae:    4790        .G      BLX      r2
        0x0001aab0:    200d        .       MOVS     r0,#0xd
        0x0001aab2:    f7fffe34    ..4.    BL       am_hal_timer_disable ; 0x1a71e
        0x0001aab6:    f04f6040    O.@`    MOV      r0,#0xc000000
        0x0001aaba:    f7fffeab    ....    BL       am_hal_timer_interrupt_clear ; 0x1a814
        0x0001aabe:    a902        ..      ADD      r1,sp,#8
        0x0001aac0:    2001        .       MOVS     r0,#1
        0x0001aac2:    f7fffed9    ....    BL       am_hal_timer_interrupt_status_get ; 0x1a878
        0x0001aac6:    f44f3080    O..0    MOV      r0,#0x10000
        0x0001aaca:    f8ca0088    ....    STR      r0,[r10,#0x88]
        0x0001aace:    9802        ..      LDR      r0,[sp,#8]
        0x0001aad0:    f06f6440    o.@d    MVN      r4,#0xc000000
        0x0001aad4:    4220         B      TST      r0,r4
        0x0001aad6:    d10c        ..      BNE      0x1aaf2 ; am_hal_util_write_and_wait + 306
        0x0001aad8:    f44f4580    O..E    MOV      r5,#0x4000
        0x0001aadc:    a902        ..      ADD      r1,sp,#8
        0x0001aade:    2001        .       MOVS     r0,#1
        0x0001aae0:    f8ca5080    ...P    STR      r5,[r10,#0x80]
        0x0001aae4:    f7fffec8    ....    BL       am_hal_timer_interrupt_status_get ; 0x1a878
        0x0001aae8:    9802        ..      LDR      r0,[sp,#8]
        0x0001aaea:    4220         B      TST      r0,r4
        0x0001aaec:    bf18        ..      IT       NE
        0x0001aaee:    f8ca5000    ...P    STRNE    r5,[r10,#0]
        0x0001aaf2:    f3898811    ....    MSR      BASEPRI,r9
        0x0001aaf6:    2700        .'      MOVS     r7,#0
        0x0001aaf8:    9801        ..      LDR      r0,[sp,#4]
        0x0001aafa:    f7feff15    ....    BL       am_hal_interrupt_master_set ; 0x19928
        0x0001aafe:    4638        8F      MOV      r0,r7
        0x0001ab00:    b007        ..      ADD      sp,sp,#0x1c
        0x0001ab02:    e8bd8ff0    ....    POP      {r4-r11,pc}
        0x0001ab06:    0000        ..      MOVS     r0,r0
    am_util_faultisr_collect_data
        0x0001ab08:    b580        ..      PUSH     {r7,lr}
        0x0001ab0a:    b096        ..      SUB      sp,sp,#0x58
        0x0001ab0c:    9015        ..      STR      r0,[sp,#0x54]
        0x0001ab0e:    2000        .       MOVS     r0,#0
        0x0001ab10:    9008        ..      STR      r0,[sp,#0x20]
        0x0001ab12:    9007        ..      STR      r0,[sp,#0x1c]
        0x0001ab14:    9006        ..      STR      r0,[sp,#0x18]
        0x0001ab16:    9005        ..      STR      r0,[sp,#0x14]
        0x0001ab18:    9004        ..      STR      r0,[sp,#0x10]
        0x0001ab1a:    9003        ..      STR      r0,[sp,#0xc]
        0x0001ab1c:    9002        ..      STR      r0,[sp,#8]
        0x0001ab1e:    9802        ..      LDR      r0,[sp,#8]
        0x0001ab20:    9013        ..      STR      r0,[sp,#0x4c]
        0x0001ab22:    f64e5028    N.(P    MOV      r0,#0xed28
        0x0001ab26:    f2ce0000    ....    MOVT     r0,#0xe000
        0x0001ab2a:    6800        .h      LDR      r0,[r0,#0]
        0x0001ab2c:    9013        ..      STR      r0,[sp,#0x4c]
        0x0001ab2e:    9813        ..      LDR      r0,[sp,#0x4c]
        0x0001ab30:    f88d0050    ..P.    STRB     r0,[sp,#0x50]
        0x0001ab34:    9813        ..      LDR      r0,[sp,#0x4c]
        0x0001ab36:    0a00        ..      LSRS     r0,r0,#8
        0x0001ab38:    f88d0051    ..Q.    STRB     r0,[sp,#0x51]
        0x0001ab3c:    9813        ..      LDR      r0,[sp,#0x4c]
        0x0001ab3e:    0c00        ..      LSRS     r0,r0,#16
        0x0001ab40:    f8ad0052    ..R.    STRH     r0,[sp,#0x52]
        0x0001ab44:    f64e5038    N.8P    MOV      r0,#0xed38
        0x0001ab48:    f2ce0000    ....    MOVT     r0,#0xe000
        0x0001ab4c:    6800        .h      LDR      r0,[r0,#0]
        0x0001ab4e:    9012        ..      STR      r0,[sp,#0x48]
        0x0001ab50:    9815        ..      LDR      r0,[sp,#0x54]
        0x0001ab52:    f000fbaf    ....    BL       am_valid_sp ; 0x1b2b4
        0x0001ab56:    b3d8        ..      CBZ      r0,0x1abd0 ; am_util_faultisr_collect_data + 200
        0x0001ab58:    e7ff        ..      B        0x1ab5a ; am_util_faultisr_collect_data + 82
        0x0001ab5a:    f89d0051    ..Q.    LDRB     r0,[sp,#0x51]
        0x0001ab5e:    0780        ..      LSLS     r0,r0,#30
        0x0001ab60:    2800        .(      CMP      r0,#0
        0x0001ab62:    d506        ..      BPL      0x1ab72 ; am_util_faultisr_collect_data + 106
        0x0001ab64:    e7ff        ..      B        0x1ab66 ; am_util_faultisr_collect_data + 94
        0x0001ab66:    9915        ..      LDR      r1,[sp,#0x54]
        0x0001ab68:    2006        .       MOVS     r0,#6
        0x0001ab6a:    f000fe97    ....    BL       getStackedReg ; 0x1b89c
        0x0001ab6e:    9001        ..      STR      r0,[sp,#4]
        0x0001ab70:    e003        ..      B        0x1ab7a ; am_util_faultisr_collect_data + 114
        0x0001ab72:    f04f30ff    O..0    MOV      r0,#0xffffffff
        0x0001ab76:    9001        ..      STR      r0,[sp,#4]
        0x0001ab78:    e7ff        ..      B        0x1ab7a ; am_util_faultisr_collect_data + 114
        0x0001ab7a:    9801        ..      LDR      r0,[sp,#4]
        0x0001ab7c:    9011        ..      STR      r0,[sp,#0x44]
        0x0001ab7e:    9915        ..      LDR      r1,[sp,#0x54]
        0x0001ab80:    2000        .       MOVS     r0,#0
        0x0001ab82:    f000fe8b    ....    BL       getStackedReg ; 0x1b89c
        0x0001ab86:    9009        ..      STR      r0,[sp,#0x24]
        0x0001ab88:    9915        ..      LDR      r1,[sp,#0x54]
        0x0001ab8a:    2001        .       MOVS     r0,#1
        0x0001ab8c:    f000fe86    ....    BL       getStackedReg ; 0x1b89c
        0x0001ab90:    900a        ..      STR      r0,[sp,#0x28]
        0x0001ab92:    9915        ..      LDR      r1,[sp,#0x54]
        0x0001ab94:    2002        .       MOVS     r0,#2
        0x0001ab96:    f000fe81    ....    BL       getStackedReg ; 0x1b89c
        0x0001ab9a:    900b        ..      STR      r0,[sp,#0x2c]
        0x0001ab9c:    9915        ..      LDR      r1,[sp,#0x54]
        0x0001ab9e:    2003        .       MOVS     r0,#3
        0x0001aba0:    f000fe7c    ..|.    BL       getStackedReg ; 0x1b89c
        0x0001aba4:    900c        ..      STR      r0,[sp,#0x30]
        0x0001aba6:    9915        ..      LDR      r1,[sp,#0x54]
        0x0001aba8:    2004        .       MOVS     r0,#4
        0x0001abaa:    f000fe77    ..w.    BL       getStackedReg ; 0x1b89c
        0x0001abae:    900d        ..      STR      r0,[sp,#0x34]
        0x0001abb0:    9915        ..      LDR      r1,[sp,#0x54]
        0x0001abb2:    2005        .       MOVS     r0,#5
        0x0001abb4:    f000fe72    ..r.    BL       getStackedReg ; 0x1b89c
        0x0001abb8:    900e        ..      STR      r0,[sp,#0x38]
        0x0001abba:    9915        ..      LDR      r1,[sp,#0x54]
        0x0001abbc:    2006        .       MOVS     r0,#6
        0x0001abbe:    f000fe6d    ..m.    BL       getStackedReg ; 0x1b89c
        0x0001abc2:    900f        ..      STR      r0,[sp,#0x3c]
        0x0001abc4:    9915        ..      LDR      r1,[sp,#0x54]
        0x0001abc6:    2007        .       MOVS     r0,#7
        0x0001abc8:    f000fe68    ..h.    BL       getStackedReg ; 0x1b89c
        0x0001abcc:    9010        ..      STR      r0,[sp,#0x40]
        0x0001abce:    e7ff        ..      B        0x1abd0 ; am_util_faultisr_collect_data + 200
        0x0001abd0:    a803        ..      ADD      r0,sp,#0xc
        0x0001abd2:    f7fefdc6    ....    BL       am_hal_fault_status_get ; 0x19762
        0x0001abd6:    2000        .       MOVS     r0,#0
        0x0001abd8:    9002        ..      STR      r0,[sp,#8]
        0x0001abda:    e7ff        ..      B        0x1abdc ; am_util_faultisr_collect_data + 212
        0x0001abdc:    e7fe        ..      B        0x1abdc ; am_util_faultisr_collect_data + 212
        0x0001abde:    0000        ..      MOVS     r0,r0
    am_util_stdio_printf
        0x0001abe0:    b083        ..      SUB      sp,sp,#0xc
        0x0001abe2:    b580        ..      PUSH     {r7,lr}
        0x0001abe4:    b085        ..      SUB      sp,sp,#0x14
        0x0001abe6:    9309        ..      STR      r3,[sp,#0x24]
        0x0001abe8:    9208        ..      STR      r2,[sp,#0x20]
        0x0001abea:    9107        ..      STR      r1,[sp,#0x1c]
        0x0001abec:    9003        ..      STR      r0,[sp,#0xc]
        0x0001abee:    f24040f4    @..@    MOV      r0,#0x4f4
        0x0001abf2:    f2c10000    ....    MOVT     r0,#0x1000
        0x0001abf6:    6800        .h      LDR      r0,[r0,#0]
        0x0001abf8:    b918        ..      CBNZ     r0,0x1ac02 ; am_util_stdio_printf + 34
        0x0001abfa:    e7ff        ..      B        0x1abfc ; am_util_stdio_printf + 28
        0x0001abfc:    2000        .       MOVS     r0,#0
        0x0001abfe:    9004        ..      STR      r0,[sp,#0x10]
        0x0001ac00:    e016        ..      B        0x1ac30 ; am_util_stdio_printf + 80
        0x0001ac02:    a807        ..      ADD      r0,sp,#0x1c
        0x0001ac04:    9001        ..      STR      r0,[sp,#4]
        0x0001ac06:    9903        ..      LDR      r1,[sp,#0xc]
        0x0001ac08:    9a01        ..      LDR      r2,[sp,#4]
        0x0001ac0a:    f24040f8    @..@    MOVW     r0,#0x4f8
        0x0001ac0e:    f2c10000    ....    MOVT     r0,#0x1000
        0x0001ac12:    9000        ..      STR      r0,[sp,#0]
        0x0001ac14:    f000f824    ..$.    BL       am_util_stdio_vsprintf ; 0x1ac60
        0x0001ac18:    4601        .F      MOV      r1,r0
        0x0001ac1a:    9800        ..      LDR      r0,[sp,#0]
        0x0001ac1c:    9102        ..      STR      r1,[sp,#8]
        0x0001ac1e:    f24041f4    @..A    MOV      r1,#0x4f4
        0x0001ac22:    f2c10100    ....    MOVT     r1,#0x1000
        0x0001ac26:    6809        .h      LDR      r1,[r1,#0]
        0x0001ac28:    4788        .G      BLX      r1
        0x0001ac2a:    9802        ..      LDR      r0,[sp,#8]
        0x0001ac2c:    9004        ..      STR      r0,[sp,#0x10]
        0x0001ac2e:    e7ff        ..      B        0x1ac30 ; am_util_stdio_printf + 80
        0x0001ac30:    9804        ..      LDR      r0,[sp,#0x10]
        0x0001ac32:    b005        ..      ADD      sp,sp,#0x14
        0x0001ac34:    e8bd4080    ...@    POP      {r7,lr}
        0x0001ac38:    b003        ..      ADD      sp,sp,#0xc
        0x0001ac3a:    4770        pG      BX       lr
    am_util_stdio_printf_init
        0x0001ac3c:    b081        ..      SUB      sp,sp,#4
        0x0001ac3e:    9000        ..      STR      r0,[sp,#0]
        0x0001ac40:    9800        ..      LDR      r0,[sp,#0]
        0x0001ac42:    f24041f4    @..A    MOV      r1,#0x4f4
        0x0001ac46:    f2c10100    ....    MOVT     r1,#0x1000
        0x0001ac4a:    6008        .`      STR      r0,[r1,#0]
        0x0001ac4c:    b001        ..      ADD      sp,sp,#4
        0x0001ac4e:    4770        pG      BX       lr
    am_util_stdio_terminal_clear
        0x0001ac50:    b580        ..      PUSH     {r7,lr}
        0x0001ac52:    f64c208c    L..     MOV      r0,#0xca8c
        0x0001ac56:    f2c00001    ....    MOVT     r0,#1
        0x0001ac5a:    f7ffffc1    ....    BL       am_util_stdio_printf ; 0x1abe0
        0x0001ac5e:    bd80        ..      POP      {r7,pc}
    am_util_stdio_vsprintf
        0x0001ac60:    b580        ..      PUSH     {r7,lr}
        0x0001ac62:    b09e        ..      SUB      sp,sp,#0x78
        0x0001ac64:    921d        ..      STR      r2,[sp,#0x74]
        0x0001ac66:    901c        ..      STR      r0,[sp,#0x70]
        0x0001ac68:    911b        ..      STR      r1,[sp,#0x6c]
        0x0001ac6a:    2000        .       MOVS     r0,#0
        0x0001ac6c:    9014        ..      STR      r0,[sp,#0x50]
        0x0001ac6e:    900e        ..      STR      r0,[sp,#0x38]
        0x0001ac70:    e7ff        ..      B        0x1ac72 ; am_util_stdio_vsprintf + 18
        0x0001ac72:    981b        ..      LDR      r0,[sp,#0x6c]
        0x0001ac74:    7800        .x      LDRB     r0,[r0,#0]
        0x0001ac76:    2800        .(      CMP      r0,#0
        0x0001ac78:    f0008312    ....    BEQ.W    0x1b2a0 ; am_util_stdio_vsprintf + 1600
        0x0001ac7c:    e7ff        ..      B        0x1ac7e ; am_util_stdio_vsprintf + 30
        0x0001ac7e:    2006        .       MOVS     r0,#6
        0x0001ac80:    9011        ..      STR      r0,[sp,#0x44]
        0x0001ac82:    981b        ..      LDR      r0,[sp,#0x6c]
        0x0001ac84:    7800        .x      LDRB     r0,[r0,#0]
        0x0001ac86:    2825        %(      CMP      r0,#0x25
        0x0001ac88:    d027        '.      BEQ      0x1acda ; am_util_stdio_vsprintf + 122
        0x0001ac8a:    e7ff        ..      B        0x1ac8c ; am_util_stdio_vsprintf + 44
        0x0001ac8c:    981c        ..      LDR      r0,[sp,#0x70]
        0x0001ac8e:    b1e8        ..      CBZ      r0,0x1accc ; am_util_stdio_vsprintf + 108
        0x0001ac90:    e7ff        ..      B        0x1ac92 ; am_util_stdio_vsprintf + 50
        0x0001ac92:    981b        ..      LDR      r0,[sp,#0x6c]
        0x0001ac94:    7800        .x      LDRB     r0,[r0,#0]
        0x0001ac96:    280a        .(      CMP      r0,#0xa
        0x0001ac98:    d111        ..      BNE      0x1acbe ; am_util_stdio_vsprintf + 94
        0x0001ac9a:    e7ff        ..      B        0x1ac9c ; am_util_stdio_vsprintf + 60
        0x0001ac9c:    f24040ed    @..@    MOV      r0,#0x4ed
        0x0001aca0:    f2c10000    ....    MOVT     r0,#0x1000
        0x0001aca4:    7800        .x      LDRB     r0,[r0,#0]
        0x0001aca6:    07c0        ..      LSLS     r0,r0,#31
        0x0001aca8:    b148        H.      CBZ      r0,0x1acbe ; am_util_stdio_vsprintf + 94
        0x0001acaa:    e7ff        ..      B        0x1acac ; am_util_stdio_vsprintf + 76
        0x0001acac:    991c        ..      LDR      r1,[sp,#0x70]
        0x0001acae:    1c48        H.      ADDS     r0,r1,#1
        0x0001acb0:    901c        ..      STR      r0,[sp,#0x70]
        0x0001acb2:    200d        .       MOVS     r0,#0xd
        0x0001acb4:    7008        .p      STRB     r0,[r1,#0]
        0x0001acb6:    9814        ..      LDR      r0,[sp,#0x50]
        0x0001acb8:    3001        .0      ADDS     r0,#1
        0x0001acba:    9014        ..      STR      r0,[sp,#0x50]
        0x0001acbc:    e7ff        ..      B        0x1acbe ; am_util_stdio_vsprintf + 94
        0x0001acbe:    981b        ..      LDR      r0,[sp,#0x6c]
        0x0001acc0:    7800        .x      LDRB     r0,[r0,#0]
        0x0001acc2:    991c        ..      LDR      r1,[sp,#0x70]
        0x0001acc4:    1c4a        J.      ADDS     r2,r1,#1
        0x0001acc6:    921c        ..      STR      r2,[sp,#0x70]
        0x0001acc8:    7008        .p      STRB     r0,[r1,#0]
        0x0001acca:    e7ff        ..      B        0x1accc ; am_util_stdio_vsprintf + 108
        0x0001accc:    981b        ..      LDR      r0,[sp,#0x6c]
        0x0001acce:    3001        .0      ADDS     r0,#1
        0x0001acd0:    901b        ..      STR      r0,[sp,#0x6c]
        0x0001acd2:    9814        ..      LDR      r0,[sp,#0x50]
        0x0001acd4:    3001        .0      ADDS     r0,#1
        0x0001acd6:    9014        ..      STR      r0,[sp,#0x50]
        0x0001acd8:    e7cb        ..      B        0x1ac72 ; am_util_stdio_vsprintf + 18
        0x0001acda:    981b        ..      LDR      r0,[sp,#0x6c]
        0x0001acdc:    3001        .0      ADDS     r0,#1
        0x0001acde:    901b        ..      STR      r0,[sp,#0x6c]
        0x0001ace0:    2000        .       MOVS     r0,#0
        0x0001ace2:    f88d0040    ..@.    STRB     r0,[sp,#0x40]
        0x0001ace6:    f88d0041    ..A.    STRB     r0,[sp,#0x41]
        0x0001acea:    2020                MOVS     r0,#0x20
        0x0001acec:    f88d0042    ..B.    STRB     r0,[sp,#0x42]
        0x0001acf0:    981b        ..      LDR      r0,[sp,#0x6c]
        0x0001acf2:    7800        .x      LDRB     r0,[r0,#0]
        0x0001acf4:    2830        0(      CMP      r0,#0x30
        0x0001acf6:    d107        ..      BNE      0x1ad08 ; am_util_stdio_vsprintf + 168
        0x0001acf8:    e7ff        ..      B        0x1acfa ; am_util_stdio_vsprintf + 154
        0x0001acfa:    2030        0       MOVS     r0,#0x30
        0x0001acfc:    f88d0042    ..B.    STRB     r0,[sp,#0x42]
        0x0001ad00:    981b        ..      LDR      r0,[sp,#0x6c]
        0x0001ad02:    3001        .0      ADDS     r0,#1
        0x0001ad04:    901b        ..      STR      r0,[sp,#0x6c]
        0x0001ad06:    e7ff        ..      B        0x1ad08 ; am_util_stdio_vsprintf + 168
        0x0001ad08:    981b        ..      LDR      r0,[sp,#0x6c]
        0x0001ad0a:    a915        ..      ADD      r1,sp,#0x54
        0x0001ad0c:    f000fbce    ....    BL       decstr_to_int ; 0x1b4ac
        0x0001ad10:    9013        ..      STR      r0,[sp,#0x4c]
        0x0001ad12:    9915        ..      LDR      r1,[sp,#0x54]
        0x0001ad14:    981b        ..      LDR      r0,[sp,#0x6c]
        0x0001ad16:    4408        .D      ADD      r0,r0,r1
        0x0001ad18:    901b        ..      STR      r0,[sp,#0x6c]
        0x0001ad1a:    981b        ..      LDR      r0,[sp,#0x6c]
        0x0001ad1c:    7800        .x      LDRB     r0,[r0,#0]
        0x0001ad1e:    2873        s(      CMP      r0,#0x73
        0x0001ad20:    d009        ..      BEQ      0x1ad36 ; am_util_stdio_vsprintf + 214
        0x0001ad22:    e7ff        ..      B        0x1ad24 ; am_util_stdio_vsprintf + 196
        0x0001ad24:    9813        ..      LDR      r0,[sp,#0x4c]
        0x0001ad26:    f1b03fff    ...?    CMP      r0,#0xffffffff
        0x0001ad2a:    dc04        ..      BGT      0x1ad36 ; am_util_stdio_vsprintf + 214
        0x0001ad2c:    e7ff        ..      B        0x1ad2e ; am_util_stdio_vsprintf + 206
        0x0001ad2e:    9813        ..      LDR      r0,[sp,#0x4c]
        0x0001ad30:    4240        @B      RSBS     r0,r0,#0
        0x0001ad32:    9013        ..      STR      r0,[sp,#0x4c]
        0x0001ad34:    e7ff        ..      B        0x1ad36 ; am_util_stdio_vsprintf + 214
        0x0001ad36:    981b        ..      LDR      r0,[sp,#0x6c]
        0x0001ad38:    7800        .x      LDRB     r0,[r0,#0]
        0x0001ad3a:    282e        .(      CMP      r0,#0x2e
        0x0001ad3c:    d10d        ..      BNE      0x1ad5a ; am_util_stdio_vsprintf + 250
        0x0001ad3e:    e7ff        ..      B        0x1ad40 ; am_util_stdio_vsprintf + 224
        0x0001ad40:    981b        ..      LDR      r0,[sp,#0x6c]
        0x0001ad42:    3001        .0      ADDS     r0,#1
        0x0001ad44:    901b        ..      STR      r0,[sp,#0x6c]
        0x0001ad46:    981b        ..      LDR      r0,[sp,#0x6c]
        0x0001ad48:    a915        ..      ADD      r1,sp,#0x54
        0x0001ad4a:    f000fbaf    ....    BL       decstr_to_int ; 0x1b4ac
        0x0001ad4e:    9011        ..      STR      r0,[sp,#0x44]
        0x0001ad50:    9915        ..      LDR      r1,[sp,#0x54]
        0x0001ad52:    981b        ..      LDR      r0,[sp,#0x6c]
        0x0001ad54:    4408        .D      ADD      r0,r0,r1
        0x0001ad56:    901b        ..      STR      r0,[sp,#0x6c]
        0x0001ad58:    e7ff        ..      B        0x1ad5a ; am_util_stdio_vsprintf + 250
        0x0001ad5a:    981b        ..      LDR      r0,[sp,#0x6c]
        0x0001ad5c:    7800        .x      LDRB     r0,[r0,#0]
        0x0001ad5e:    286c        l(      CMP      r0,#0x6c
        0x0001ad60:    d110        ..      BNE      0x1ad84 ; am_util_stdio_vsprintf + 292
        0x0001ad62:    e7ff        ..      B        0x1ad64 ; am_util_stdio_vsprintf + 260
        0x0001ad64:    981b        ..      LDR      r0,[sp,#0x6c]
        0x0001ad66:    3001        .0      ADDS     r0,#1
        0x0001ad68:    901b        ..      STR      r0,[sp,#0x6c]
        0x0001ad6a:    981b        ..      LDR      r0,[sp,#0x6c]
        0x0001ad6c:    7800        .x      LDRB     r0,[r0,#0]
        0x0001ad6e:    286c        l(      CMP      r0,#0x6c
        0x0001ad70:    d107        ..      BNE      0x1ad82 ; am_util_stdio_vsprintf + 290
        0x0001ad72:    e7ff        ..      B        0x1ad74 ; am_util_stdio_vsprintf + 276
        0x0001ad74:    981b        ..      LDR      r0,[sp,#0x6c]
        0x0001ad76:    3001        .0      ADDS     r0,#1
        0x0001ad78:    901b        ..      STR      r0,[sp,#0x6c]
        0x0001ad7a:    2001        .       MOVS     r0,#1
        0x0001ad7c:    f88d0040    ..@.    STRB     r0,[sp,#0x40]
        0x0001ad80:    e7ff        ..      B        0x1ad82 ; am_util_stdio_vsprintf + 290
        0x0001ad82:    e7ff        ..      B        0x1ad84 ; am_util_stdio_vsprintf + 292
        0x0001ad84:    981b        ..      LDR      r0,[sp,#0x6c]
        0x0001ad86:    7800        .x      LDRB     r0,[r0,#0]
        0x0001ad88:    3846        F8      SUBS     r0,r0,#0x46
        0x0001ad8a:    4601        .F      MOV      r1,r0
        0x0001ad8c:    910b        ..      STR      r1,[sp,#0x2c]
        0x0001ad8e:    2832        2(      CMP      r0,#0x32
        0x0001ad90:    f2008273    ..s.    BHI.W    0x1b27a ; am_util_stdio_vsprintf + 1562
        0x0001ad94:    990b        ..      LDR      r1,[sp,#0x2c]
        0x0001ad96:    e8dff011    ....    TBH      [pc,r1,LSL #1]
    $d.4
        0x0001ad9a:    0224        $.      DCW    548
        0x0001ad9c:    02700270    p.p.    DCD    40895088
        0x0001ada0:    02700270    p.p.    DCD    40895088
        0x0001ada4:    02700270    p.p.    DCD    40895088
        0x0001ada8:    02700270    p.p.    DCD    40895088
        0x0001adac:    02700270    p.p.    DCD    40895088
        0x0001adb0:    02700270    p.p.    DCD    40895088
        0x0001adb4:    02700270    p.p.    DCD    40895088
        0x0001adb8:    02700270    p.p.    DCD    40895088
        0x0001adbc:    00bf0270    p...    DCD    12518000
        0x0001adc0:    02700270    p.p.    DCD    40895088
        0x0001adc4:    02700270    p.p.    DCD    40895088
        0x0001adc8:    02700270    p.p.    DCD    40895088
        0x0001adcc:    02700270    p.p.    DCD    40895088
        0x0001add0:    02700270    p.p.    DCD    40895088
        0x0001add4:    016f0033    3.o.    DCD    24051763
        0x0001add8:    02240270    p.$.    DCD    35914352
        0x0001addc:    02700270    p.p.    DCD    40895088
        0x0001ade0:    0270016f    o.p.    DCD    40894831
        0x0001ade4:    02700270    p.p.    DCD    40895088
        0x0001ade8:    02700270    p.p.    DCD    40895088
        0x0001adec:    02700270    p.p.    DCD    40895088
        0x0001adf0:    02700270    p.p.    DCD    40895088
        0x0001adf4:    02700047    G.p.    DCD    40894535
        0x0001adf8:    02700119    ..p.    DCD    40894745
        0x0001adfc:    00bb0270    p...    DCD    12255856
    $t.5
        0x0001ae00:    981d        ..      LDR      r0,[sp,#0x74]
        0x0001ae02:    1d01        ..      ADDS     r1,r0,#4
        0x0001ae04:    911d        ..      STR      r1,[sp,#0x74]
        0x0001ae06:    6800        .h      LDR      r0,[r0,#0]
        0x0001ae08:    f88d0043    ..C.    STRB     r0,[sp,#0x43]
        0x0001ae0c:    981c        ..      LDR      r0,[sp,#0x70]
        0x0001ae0e:    b138        8.      CBZ      r0,0x1ae20 ; am_util_stdio_vsprintf + 448
        0x0001ae10:    e7ff        ..      B        0x1ae12 ; am_util_stdio_vsprintf + 434
        0x0001ae12:    f89d0043    ..C.    LDRB     r0,[sp,#0x43]
        0x0001ae16:    991c        ..      LDR      r1,[sp,#0x70]
        0x0001ae18:    1c4a        J.      ADDS     r2,r1,#1
        0x0001ae1a:    921c        ..      STR      r2,[sp,#0x70]
        0x0001ae1c:    7008        .p      STRB     r0,[r1,#0]
        0x0001ae1e:    e7ff        ..      B        0x1ae20 ; am_util_stdio_vsprintf + 448
        0x0001ae20:    9814        ..      LDR      r0,[sp,#0x50]
        0x0001ae22:    3001        .0      ADDS     r0,#1
        0x0001ae24:    9014        ..      STR      r0,[sp,#0x50]
        0x0001ae26:    e236        6.      B        0x1b296 ; am_util_stdio_vsprintf + 1590
        0x0001ae28:    981d        ..      LDR      r0,[sp,#0x74]
        0x0001ae2a:    1d01        ..      ADDS     r1,r0,#4
        0x0001ae2c:    911d        ..      STR      r1,[sp,#0x74]
        0x0001ae2e:    6800        .h      LDR      r0,[r0,#0]
        0x0001ae30:    901a        ..      STR      r0,[sp,#0x68]
        0x0001ae32:    981a        ..      LDR      r0,[sp,#0x68]
        0x0001ae34:    f001f8b0    ....    BL       simple_strlen ; 0x1bf98
        0x0001ae38:    900e        ..      STR      r0,[sp,#0x38]
        0x0001ae3a:    9813        ..      LDR      r0,[sp,#0x4c]
        0x0001ae3c:    2801        .(      CMP      r0,#1
        0x0001ae3e:    db25        %.      BLT      0x1ae8c ; am_util_stdio_vsprintf + 556
        0x0001ae40:    e7ff        ..      B        0x1ae42 ; am_util_stdio_vsprintf + 482
        0x0001ae42:    980e        ..      LDR      r0,[sp,#0x38]
        0x0001ae44:    9913        ..      LDR      r1,[sp,#0x4c]
        0x0001ae46:    4288        .B      CMP      r0,r1
        0x0001ae48:    d21f        ..      BCS      0x1ae8a ; am_util_stdio_vsprintf + 554
        0x0001ae4a:    e7ff        ..      B        0x1ae4c ; am_util_stdio_vsprintf + 492
        0x0001ae4c:    990e        ..      LDR      r1,[sp,#0x38]
        0x0001ae4e:    9813        ..      LDR      r0,[sp,#0x4c]
        0x0001ae50:    1a40        @.      SUBS     r0,r0,r1
        0x0001ae52:    9013        ..      STR      r0,[sp,#0x4c]
        0x0001ae54:    981c        ..      LDR      r0,[sp,#0x70]
        0x0001ae56:    f89d1042    ..B.    LDRB     r1,[sp,#0x42]
        0x0001ae5a:    9a13        ..      LDR      r2,[sp,#0x4c]
        0x0001ae5c:    f001f82a    ..*.    BL       padbuffer ; 0x1beb4
        0x0001ae60:    9013        ..      STR      r0,[sp,#0x4c]
        0x0001ae62:    981c        ..      LDR      r0,[sp,#0x70]
        0x0001ae64:    b118        ..      CBZ      r0,0x1ae6e ; am_util_stdio_vsprintf + 526
        0x0001ae66:    e7ff        ..      B        0x1ae68 ; am_util_stdio_vsprintf + 520
        0x0001ae68:    9813        ..      LDR      r0,[sp,#0x4c]
        0x0001ae6a:    900a        ..      STR      r0,[sp,#0x28]
        0x0001ae6c:    e002        ..      B        0x1ae74 ; am_util_stdio_vsprintf + 532
        0x0001ae6e:    2000        .       MOVS     r0,#0
        0x0001ae70:    900a        ..      STR      r0,[sp,#0x28]
        0x0001ae72:    e7ff        ..      B        0x1ae74 ; am_util_stdio_vsprintf + 532
        0x0001ae74:    990a        ..      LDR      r1,[sp,#0x28]
        0x0001ae76:    981c        ..      LDR      r0,[sp,#0x70]
        0x0001ae78:    4408        .D      ADD      r0,r0,r1
        0x0001ae7a:    901c        ..      STR      r0,[sp,#0x70]
        0x0001ae7c:    9913        ..      LDR      r1,[sp,#0x4c]
        0x0001ae7e:    9814        ..      LDR      r0,[sp,#0x50]
        0x0001ae80:    4408        .D      ADD      r0,r0,r1
        0x0001ae82:    9014        ..      STR      r0,[sp,#0x50]
        0x0001ae84:    2000        .       MOVS     r0,#0
        0x0001ae86:    9013        ..      STR      r0,[sp,#0x4c]
        0x0001ae88:    e7ff        ..      B        0x1ae8a ; am_util_stdio_vsprintf + 554
        0x0001ae8a:    e7ff        ..      B        0x1ae8c ; am_util_stdio_vsprintf + 556
        0x0001ae8c:    e7ff        ..      B        0x1ae8e ; am_util_stdio_vsprintf + 558
        0x0001ae8e:    981a        ..      LDR      r0,[sp,#0x68]
        0x0001ae90:    7800        .x      LDRB     r0,[r0,#0]
        0x0001ae92:    b188        ..      CBZ      r0,0x1aeb8 ; am_util_stdio_vsprintf + 600
        0x0001ae94:    e7ff        ..      B        0x1ae96 ; am_util_stdio_vsprintf + 566
        0x0001ae96:    981c        ..      LDR      r0,[sp,#0x70]
        0x0001ae98:    b138        8.      CBZ      r0,0x1aeaa ; am_util_stdio_vsprintf + 586
        0x0001ae9a:    e7ff        ..      B        0x1ae9c ; am_util_stdio_vsprintf + 572
        0x0001ae9c:    981a        ..      LDR      r0,[sp,#0x68]
        0x0001ae9e:    7800        .x      LDRB     r0,[r0,#0]
        0x0001aea0:    991c        ..      LDR      r1,[sp,#0x70]
        0x0001aea2:    1c4a        J.      ADDS     r2,r1,#1
        0x0001aea4:    921c        ..      STR      r2,[sp,#0x70]
        0x0001aea6:    7008        .p      STRB     r0,[r1,#0]
        0x0001aea8:    e7ff        ..      B        0x1aeaa ; am_util_stdio_vsprintf + 586
        0x0001aeaa:    981a        ..      LDR      r0,[sp,#0x68]
        0x0001aeac:    3001        .0      ADDS     r0,#1
        0x0001aeae:    901a        ..      STR      r0,[sp,#0x68]
        0x0001aeb0:    9814        ..      LDR      r0,[sp,#0x50]
        0x0001aeb2:    3001        .0      ADDS     r0,#1
        0x0001aeb4:    9014        ..      STR      r0,[sp,#0x50]
        0x0001aeb6:    e7ea        ..      B        0x1ae8e ; am_util_stdio_vsprintf + 558
        0x0001aeb8:    9813        ..      LDR      r0,[sp,#0x4c]
        0x0001aeba:    b340        @.      CBZ      r0,0x1af0e ; am_util_stdio_vsprintf + 686
        0x0001aebc:    e7ff        ..      B        0x1aebe ; am_util_stdio_vsprintf + 606
        0x0001aebe:    9813        ..      LDR      r0,[sp,#0x4c]
        0x0001aec0:    4240        @B      RSBS     r0,r0,#0
        0x0001aec2:    9013        ..      STR      r0,[sp,#0x4c]
        0x0001aec4:    980e        ..      LDR      r0,[sp,#0x38]
        0x0001aec6:    9913        ..      LDR      r1,[sp,#0x4c]
        0x0001aec8:    4288        .B      CMP      r0,r1
        0x0001aeca:    d21f        ..      BCS      0x1af0c ; am_util_stdio_vsprintf + 684
        0x0001aecc:    e7ff        ..      B        0x1aece ; am_util_stdio_vsprintf + 622
        0x0001aece:    990e        ..      LDR      r1,[sp,#0x38]
        0x0001aed0:    9813        ..      LDR      r0,[sp,#0x4c]
        0x0001aed2:    1a40        @.      SUBS     r0,r0,r1
        0x0001aed4:    9013        ..      STR      r0,[sp,#0x4c]
        0x0001aed6:    981c        ..      LDR      r0,[sp,#0x70]
        0x0001aed8:    f89d1042    ..B.    LDRB     r1,[sp,#0x42]
        0x0001aedc:    9a13        ..      LDR      r2,[sp,#0x4c]
        0x0001aede:    f000ffe9    ....    BL       padbuffer ; 0x1beb4
        0x0001aee2:    9013        ..      STR      r0,[sp,#0x4c]
        0x0001aee4:    981c        ..      LDR      r0,[sp,#0x70]
        0x0001aee6:    b118        ..      CBZ      r0,0x1aef0 ; am_util_stdio_vsprintf + 656
        0x0001aee8:    e7ff        ..      B        0x1aeea ; am_util_stdio_vsprintf + 650
        0x0001aeea:    9813        ..      LDR      r0,[sp,#0x4c]
        0x0001aeec:    9009        ..      STR      r0,[sp,#0x24]
        0x0001aeee:    e002        ..      B        0x1aef6 ; am_util_stdio_vsprintf + 662
        0x0001aef0:    2000        .       MOVS     r0,#0
        0x0001aef2:    9009        ..      STR      r0,[sp,#0x24]
        0x0001aef4:    e7ff        ..      B        0x1aef6 ; am_util_stdio_vsprintf + 662
        0x0001aef6:    9909        ..      LDR      r1,[sp,#0x24]
        0x0001aef8:    981c        ..      LDR      r0,[sp,#0x70]
        0x0001aefa:    4408        .D      ADD      r0,r0,r1
        0x0001aefc:    901c        ..      STR      r0,[sp,#0x70]
        0x0001aefe:    9913        ..      LDR      r1,[sp,#0x4c]
        0x0001af00:    9814        ..      LDR      r0,[sp,#0x50]
        0x0001af02:    4408        .D      ADD      r0,r0,r1
        0x0001af04:    9014        ..      STR      r0,[sp,#0x50]
        0x0001af06:    2000        .       MOVS     r0,#0
        0x0001af08:    9013        ..      STR      r0,[sp,#0x4c]
        0x0001af0a:    e7ff        ..      B        0x1af0c ; am_util_stdio_vsprintf + 684
        0x0001af0c:    e7ff        ..      B        0x1af0e ; am_util_stdio_vsprintf + 686
        0x0001af0e:    e1c2        ..      B        0x1b296 ; am_util_stdio_vsprintf + 1590
        0x0001af10:    2001        .       MOVS     r0,#1
        0x0001af12:    f88d0041    ..A.    STRB     r0,[sp,#0x41]
        0x0001af16:    e7ff        ..      B        0x1af18 ; am_util_stdio_vsprintf + 696
        0x0001af18:    f89d0040    ..@.    LDRB     r0,[sp,#0x40]
        0x0001af1c:    07c0        ..      LSLS     r0,r0,#31
        0x0001af1e:    b160        `.      CBZ      r0,0x1af3a ; am_util_stdio_vsprintf + 730
        0x0001af20:    e7ff        ..      B        0x1af22 ; am_util_stdio_vsprintf + 706
        0x0001af22:    981d        ..      LDR      r0,[sp,#0x74]
        0x0001af24:    3007        .0      ADDS     r0,#7
        0x0001af26:    f0200007     ...    BIC      r0,r0,#7
        0x0001af2a:    f1000108    ....    ADD      r1,r0,#8
        0x0001af2e:    911d        ..      STR      r1,[sp,#0x74]
        0x0001af30:    6801        .h      LDR      r1,[r0,#0]
        0x0001af32:    6840        @h      LDR      r0,[r0,#4]
        0x0001af34:    9107        ..      STR      r1,[sp,#0x1c]
        0x0001af36:    9008        ..      STR      r0,[sp,#0x20]
        0x0001af38:    e007        ..      B        0x1af4a ; am_util_stdio_vsprintf + 746
        0x0001af3a:    981d        ..      LDR      r0,[sp,#0x74]
        0x0001af3c:    1d01        ..      ADDS     r1,r0,#4
        0x0001af3e:    911d        ..      STR      r1,[sp,#0x74]
        0x0001af40:    6801        .h      LDR      r1,[r0,#0]
        0x0001af42:    2000        .       MOVS     r0,#0
        0x0001af44:    9107        ..      STR      r1,[sp,#0x1c]
        0x0001af46:    9008        ..      STR      r0,[sp,#0x20]
        0x0001af48:    e7ff        ..      B        0x1af4a ; am_util_stdio_vsprintf + 746
        0x0001af4a:    9907        ..      LDR      r1,[sp,#0x1c]
        0x0001af4c:    9808        ..      LDR      r0,[sp,#0x20]
        0x0001af4e:    9118        ..      STR      r1,[sp,#0x60]
        0x0001af50:    9019        ..      STR      r0,[sp,#0x64]
        0x0001af52:    9813        ..      LDR      r0,[sp,#0x4c]
        0x0001af54:    b318        ..      CBZ      r0,0x1af9e ; am_util_stdio_vsprintf + 830
        0x0001af56:    e7ff        ..      B        0x1af58 ; am_util_stdio_vsprintf + 760
        0x0001af58:    9818        ..      LDR      r0,[sp,#0x60]
        0x0001af5a:    9919        ..      LDR      r1,[sp,#0x64]
        0x0001af5c:    f000ff54    ..T.    BL       ndigits_in_hex ; 0x1be08
        0x0001af60:    4601        .F      MOV      r1,r0
        0x0001af62:    9813        ..      LDR      r0,[sp,#0x4c]
        0x0001af64:    1a40        @.      SUBS     r0,r0,r1
        0x0001af66:    9013        ..      STR      r0,[sp,#0x4c]
        0x0001af68:    981c        ..      LDR      r0,[sp,#0x70]
        0x0001af6a:    f89d1042    ..B.    LDRB     r1,[sp,#0x42]
        0x0001af6e:    9a13        ..      LDR      r2,[sp,#0x4c]
        0x0001af70:    f000ffa0    ....    BL       padbuffer ; 0x1beb4
        0x0001af74:    9013        ..      STR      r0,[sp,#0x4c]
        0x0001af76:    981c        ..      LDR      r0,[sp,#0x70]
        0x0001af78:    b118        ..      CBZ      r0,0x1af82 ; am_util_stdio_vsprintf + 802
        0x0001af7a:    e7ff        ..      B        0x1af7c ; am_util_stdio_vsprintf + 796
        0x0001af7c:    9813        ..      LDR      r0,[sp,#0x4c]
        0x0001af7e:    9006        ..      STR      r0,[sp,#0x18]
        0x0001af80:    e002        ..      B        0x1af88 ; am_util_stdio_vsprintf + 808
        0x0001af82:    2000        .       MOVS     r0,#0
        0x0001af84:    9006        ..      STR      r0,[sp,#0x18]
        0x0001af86:    e7ff        ..      B        0x1af88 ; am_util_stdio_vsprintf + 808
        0x0001af88:    9906        ..      LDR      r1,[sp,#0x18]
        0x0001af8a:    981c        ..      LDR      r0,[sp,#0x70]
        0x0001af8c:    4408        .D      ADD      r0,r0,r1
        0x0001af8e:    901c        ..      STR      r0,[sp,#0x70]
        0x0001af90:    9913        ..      LDR      r1,[sp,#0x4c]
        0x0001af92:    9814        ..      LDR      r0,[sp,#0x50]
        0x0001af94:    4408        .D      ADD      r0,r0,r1
        0x0001af96:    9014        ..      STR      r0,[sp,#0x50]
        0x0001af98:    2000        .       MOVS     r0,#0
        0x0001af9a:    9013        ..      STR      r0,[sp,#0x4c]
        0x0001af9c:    e7ff        ..      B        0x1af9e ; am_util_stdio_vsprintf + 830
        0x0001af9e:    9818        ..      LDR      r0,[sp,#0x60]
        0x0001afa0:    9919        ..      LDR      r1,[sp,#0x64]
        0x0001afa2:    9a1c        ..      LDR      r2,[sp,#0x70]
        0x0001afa4:    f89d3041    ..A0    LDRB     r3,[sp,#0x41]
        0x0001afa8:    f0030301    ....    AND      r3,r3,#1
        0x0001afac:    f001f8c4    ....    BL       uint64_to_hexstr ; 0x1c138
        0x0001afb0:    9012        ..      STR      r0,[sp,#0x48]
        0x0001afb2:    981c        ..      LDR      r0,[sp,#0x70]
        0x0001afb4:    b128        (.      CBZ      r0,0x1afc2 ; am_util_stdio_vsprintf + 866
        0x0001afb6:    e7ff        ..      B        0x1afb8 ; am_util_stdio_vsprintf + 856
        0x0001afb8:    9912        ..      LDR      r1,[sp,#0x48]
        0x0001afba:    981c        ..      LDR      r0,[sp,#0x70]
        0x0001afbc:    4408        .D      ADD      r0,r0,r1
        0x0001afbe:    901c        ..      STR      r0,[sp,#0x70]
        0x0001afc0:    e7ff        ..      B        0x1afc2 ; am_util_stdio_vsprintf + 866
        0x0001afc2:    9912        ..      LDR      r1,[sp,#0x48]
        0x0001afc4:    9814        ..      LDR      r0,[sp,#0x50]
        0x0001afc6:    4408        .D      ADD      r0,r0,r1
        0x0001afc8:    9014        ..      STR      r0,[sp,#0x50]
        0x0001afca:    e164        d.      B        0x1b296 ; am_util_stdio_vsprintf + 1590
        0x0001afcc:    f89d0040    ..@.    LDRB     r0,[sp,#0x40]
        0x0001afd0:    07c0        ..      LSLS     r0,r0,#31
        0x0001afd2:    b160        `.      CBZ      r0,0x1afee ; am_util_stdio_vsprintf + 910
        0x0001afd4:    e7ff        ..      B        0x1afd6 ; am_util_stdio_vsprintf + 886
        0x0001afd6:    981d        ..      LDR      r0,[sp,#0x74]
        0x0001afd8:    3007        .0      ADDS     r0,#7
        0x0001afda:    f0200007     ...    BIC      r0,r0,#7
        0x0001afde:    f1000108    ....    ADD      r1,r0,#8
        0x0001afe2:    911d        ..      STR      r1,[sp,#0x74]
        0x0001afe4:    6801        .h      LDR      r1,[r0,#0]
        0x0001afe6:    6840        @h      LDR      r0,[r0,#4]
        0x0001afe8:    9104        ..      STR      r1,[sp,#0x10]
        0x0001afea:    9005        ..      STR      r0,[sp,#0x14]
        0x0001afec:    e007        ..      B        0x1affe ; am_util_stdio_vsprintf + 926
        0x0001afee:    981d        ..      LDR      r0,[sp,#0x74]
        0x0001aff0:    1d01        ..      ADDS     r1,r0,#4
        0x0001aff2:    911d        ..      STR      r1,[sp,#0x74]
        0x0001aff4:    6801        .h      LDR      r1,[r0,#0]
        0x0001aff6:    2000        .       MOVS     r0,#0
        0x0001aff8:    9104        ..      STR      r1,[sp,#0x10]
        0x0001affa:    9005        ..      STR      r0,[sp,#0x14]
        0x0001affc:    e7ff        ..      B        0x1affe ; am_util_stdio_vsprintf + 926
        0x0001affe:    9904        ..      LDR      r1,[sp,#0x10]
        0x0001b000:    9805        ..      LDR      r0,[sp,#0x14]
        0x0001b002:    9118        ..      STR      r1,[sp,#0x60]
        0x0001b004:    9019        ..      STR      r0,[sp,#0x64]
        0x0001b006:    9813        ..      LDR      r0,[sp,#0x4c]
        0x0001b008:    b318        ..      CBZ      r0,0x1b052 ; am_util_stdio_vsprintf + 1010
        0x0001b00a:    e7ff        ..      B        0x1b00c ; am_util_stdio_vsprintf + 940
        0x0001b00c:    9818        ..      LDR      r0,[sp,#0x60]
        0x0001b00e:    9919        ..      LDR      r1,[sp,#0x64]
        0x0001b010:    f000ff32    ..2.    BL       ndigits_in_u64 ; 0x1be78
        0x0001b014:    4601        .F      MOV      r1,r0
        0x0001b016:    9813        ..      LDR      r0,[sp,#0x4c]
        0x0001b018:    1a40        @.      SUBS     r0,r0,r1
        0x0001b01a:    9013        ..      STR      r0,[sp,#0x4c]
        0x0001b01c:    981c        ..      LDR      r0,[sp,#0x70]
        0x0001b01e:    f89d1042    ..B.    LDRB     r1,[sp,#0x42]
        0x0001b022:    9a13        ..      LDR      r2,[sp,#0x4c]
        0x0001b024:    f000ff46    ..F.    BL       padbuffer ; 0x1beb4
        0x0001b028:    9013        ..      STR      r0,[sp,#0x4c]
        0x0001b02a:    981c        ..      LDR      r0,[sp,#0x70]
        0x0001b02c:    b118        ..      CBZ      r0,0x1b036 ; am_util_stdio_vsprintf + 982
        0x0001b02e:    e7ff        ..      B        0x1b030 ; am_util_stdio_vsprintf + 976
        0x0001b030:    9813        ..      LDR      r0,[sp,#0x4c]
        0x0001b032:    9003        ..      STR      r0,[sp,#0xc]
        0x0001b034:    e002        ..      B        0x1b03c ; am_util_stdio_vsprintf + 988
        0x0001b036:    2000        .       MOVS     r0,#0
        0x0001b038:    9003        ..      STR      r0,[sp,#0xc]
        0x0001b03a:    e7ff        ..      B        0x1b03c ; am_util_stdio_vsprintf + 988
        0x0001b03c:    9903        ..      LDR      r1,[sp,#0xc]
        0x0001b03e:    981c        ..      LDR      r0,[sp,#0x70]
        0x0001b040:    4408        .D      ADD      r0,r0,r1
        0x0001b042:    901c        ..      STR      r0,[sp,#0x70]
        0x0001b044:    9913        ..      LDR      r1,[sp,#0x4c]
        0x0001b046:    9814        ..      LDR      r0,[sp,#0x50]
        0x0001b048:    4408        .D      ADD      r0,r0,r1
        0x0001b04a:    9014        ..      STR      r0,[sp,#0x50]
        0x0001b04c:    2000        .       MOVS     r0,#0
        0x0001b04e:    9013        ..      STR      r0,[sp,#0x4c]
        0x0001b050:    e7ff        ..      B        0x1b052 ; am_util_stdio_vsprintf + 1010
        0x0001b052:    9818        ..      LDR      r0,[sp,#0x60]
        0x0001b054:    9919        ..      LDR      r1,[sp,#0x64]
        0x0001b056:    9a1c        ..      LDR      r2,[sp,#0x70]
        0x0001b058:    f001f8ce    ....    BL       uint64_to_str ; 0x1c1f8
        0x0001b05c:    9012        ..      STR      r0,[sp,#0x48]
        0x0001b05e:    981c        ..      LDR      r0,[sp,#0x70]
        0x0001b060:    b128        (.      CBZ      r0,0x1b06e ; am_util_stdio_vsprintf + 1038
        0x0001b062:    e7ff        ..      B        0x1b064 ; am_util_stdio_vsprintf + 1028
        0x0001b064:    9912        ..      LDR      r1,[sp,#0x48]
        0x0001b066:    981c        ..      LDR      r0,[sp,#0x70]
        0x0001b068:    4408        .D      ADD      r0,r0,r1
        0x0001b06a:    901c        ..      STR      r0,[sp,#0x70]
        0x0001b06c:    e7ff        ..      B        0x1b06e ; am_util_stdio_vsprintf + 1038
        0x0001b06e:    9912        ..      LDR      r1,[sp,#0x48]
        0x0001b070:    9814        ..      LDR      r0,[sp,#0x50]
        0x0001b072:    4408        .D      ADD      r0,r0,r1
        0x0001b074:    9014        ..      STR      r0,[sp,#0x50]
        0x0001b076:    e10e        ..      B        0x1b296 ; am_util_stdio_vsprintf + 1590
        0x0001b078:    f89d0040    ..@.    LDRB     r0,[sp,#0x40]
        0x0001b07c:    07c0        ..      LSLS     r0,r0,#31
        0x0001b07e:    b160        `.      CBZ      r0,0x1b09a ; am_util_stdio_vsprintf + 1082
        0x0001b080:    e7ff        ..      B        0x1b082 ; am_util_stdio_vsprintf + 1058
        0x0001b082:    981d        ..      LDR      r0,[sp,#0x74]
        0x0001b084:    3007        .0      ADDS     r0,#7
        0x0001b086:    f0200007     ...    BIC      r0,r0,#7
        0x0001b08a:    f1000108    ....    ADD      r1,r0,#8
        0x0001b08e:    911d        ..      STR      r1,[sp,#0x74]
        0x0001b090:    6801        .h      LDR      r1,[r0,#0]
        0x0001b092:    6840        @h      LDR      r0,[r0,#4]
        0x0001b094:    9101        ..      STR      r1,[sp,#4]
        0x0001b096:    9002        ..      STR      r0,[sp,#8]
        0x0001b098:    e007        ..      B        0x1b0aa ; am_util_stdio_vsprintf + 1098
        0x0001b09a:    981d        ..      LDR      r0,[sp,#0x74]
        0x0001b09c:    1d01        ..      ADDS     r1,r0,#4
        0x0001b09e:    911d        ..      STR      r1,[sp,#0x74]
        0x0001b0a0:    6801        .h      LDR      r1,[r0,#0]
        0x0001b0a2:    17c8        ..      ASRS     r0,r1,#31
        0x0001b0a4:    9101        ..      STR      r1,[sp,#4]
        0x0001b0a6:    9002        ..      STR      r0,[sp,#8]
        0x0001b0a8:    e7ff        ..      B        0x1b0aa ; am_util_stdio_vsprintf + 1098
        0x0001b0aa:    9901        ..      LDR      r1,[sp,#4]
        0x0001b0ac:    9802        ..      LDR      r0,[sp,#8]
        0x0001b0ae:    9116        ..      STR      r1,[sp,#0x58]
        0x0001b0b0:    9017        ..      STR      r0,[sp,#0x5c]
        0x0001b0b2:    9817        ..      LDR      r0,[sp,#0x5c]
        0x0001b0b4:    f1b03fff    ...?    CMP      r0,#0xffffffff
        0x0001b0b8:    dc0c        ..      BGT      0x1b0d4 ; am_util_stdio_vsprintf + 1140
        0x0001b0ba:    e7ff        ..      B        0x1b0bc ; am_util_stdio_vsprintf + 1116
        0x0001b0bc:    9816        ..      LDR      r0,[sp,#0x58]
        0x0001b0be:    9a17        ..      LDR      r2,[sp,#0x5c]
        0x0001b0c0:    4241        AB      RSBS     r1,r0,#0
        0x0001b0c2:    f04f0000    O...    MOV      r0,#0
        0x0001b0c6:    4190        .A      SBCS     r0,r0,r2
        0x0001b0c8:    9118        ..      STR      r1,[sp,#0x60]
        0x0001b0ca:    9019        ..      STR      r0,[sp,#0x64]
        0x0001b0cc:    2001        .       MOVS     r0,#1
        0x0001b0ce:    f88d003f    ..?.    STRB     r0,[sp,#0x3f]
        0x0001b0d2:    e007        ..      B        0x1b0e4 ; am_util_stdio_vsprintf + 1156
        0x0001b0d4:    9816        ..      LDR      r0,[sp,#0x58]
        0x0001b0d6:    9917        ..      LDR      r1,[sp,#0x5c]
        0x0001b0d8:    9119        ..      STR      r1,[sp,#0x64]
        0x0001b0da:    9018        ..      STR      r0,[sp,#0x60]
        0x0001b0dc:    2000        .       MOVS     r0,#0
        0x0001b0de:    f88d003f    ..?.    STRB     r0,[sp,#0x3f]
        0x0001b0e2:    e7ff        ..      B        0x1b0e4 ; am_util_stdio_vsprintf + 1156
        0x0001b0e4:    9813        ..      LDR      r0,[sp,#0x4c]
        0x0001b0e6:    2800        .(      CMP      r0,#0
        0x0001b0e8:    d055        U.      BEQ      0x1b196 ; am_util_stdio_vsprintf + 1334
        0x0001b0ea:    e7ff        ..      B        0x1b0ec ; am_util_stdio_vsprintf + 1164
        0x0001b0ec:    9818        ..      LDR      r0,[sp,#0x60]
        0x0001b0ee:    9919        ..      LDR      r1,[sp,#0x64]
        0x0001b0f0:    f000feaa    ....    BL       ndigits_in_i64 ; 0x1be48
        0x0001b0f4:    4601        .F      MOV      r1,r0
        0x0001b0f6:    9813        ..      LDR      r0,[sp,#0x4c]
        0x0001b0f8:    1a40        @.      SUBS     r0,r0,r1
        0x0001b0fa:    9013        ..      STR      r0,[sp,#0x4c]
        0x0001b0fc:    f89d003f    ..?.    LDRB     r0,[sp,#0x3f]
        0x0001b100:    07c0        ..      LSLS     r0,r0,#31
        0x0001b102:    b1b0        ..      CBZ      r0,0x1b132 ; am_util_stdio_vsprintf + 1234
        0x0001b104:    e7ff        ..      B        0x1b106 ; am_util_stdio_vsprintf + 1190
        0x0001b106:    9813        ..      LDR      r0,[sp,#0x4c]
        0x0001b108:    3801        .8      SUBS     r0,#1
        0x0001b10a:    9013        ..      STR      r0,[sp,#0x4c]
        0x0001b10c:    f89d0042    ..B.    LDRB     r0,[sp,#0x42]
        0x0001b110:    2830        0(      CMP      r0,#0x30
        0x0001b112:    d10d        ..      BNE      0x1b130 ; am_util_stdio_vsprintf + 1232
        0x0001b114:    e7ff        ..      B        0x1b116 ; am_util_stdio_vsprintf + 1206
        0x0001b116:    981c        ..      LDR      r0,[sp,#0x70]
        0x0001b118:    b130        0.      CBZ      r0,0x1b128 ; am_util_stdio_vsprintf + 1224
        0x0001b11a:    e7ff        ..      B        0x1b11c ; am_util_stdio_vsprintf + 1212
        0x0001b11c:    991c        ..      LDR      r1,[sp,#0x70]
        0x0001b11e:    1c48        H.      ADDS     r0,r1,#1
        0x0001b120:    901c        ..      STR      r0,[sp,#0x70]
        0x0001b122:    202d        -       MOVS     r0,#0x2d
        0x0001b124:    7008        .p      STRB     r0,[r1,#0]
        0x0001b126:    e7ff        ..      B        0x1b128 ; am_util_stdio_vsprintf + 1224
        0x0001b128:    9814        ..      LDR      r0,[sp,#0x50]
        0x0001b12a:    3001        .0      ADDS     r0,#1
        0x0001b12c:    9014        ..      STR      r0,[sp,#0x50]
        0x0001b12e:    e7ff        ..      B        0x1b130 ; am_util_stdio_vsprintf + 1232
        0x0001b130:    e7ff        ..      B        0x1b132 ; am_util_stdio_vsprintf + 1234
        0x0001b132:    981c        ..      LDR      r0,[sp,#0x70]
        0x0001b134:    f89d1042    ..B.    LDRB     r1,[sp,#0x42]
        0x0001b138:    9a13        ..      LDR      r2,[sp,#0x4c]
        0x0001b13a:    f000febb    ....    BL       padbuffer ; 0x1beb4
        0x0001b13e:    9013        ..      STR      r0,[sp,#0x4c]
        0x0001b140:    981c        ..      LDR      r0,[sp,#0x70]
        0x0001b142:    b118        ..      CBZ      r0,0x1b14c ; am_util_stdio_vsprintf + 1260
        0x0001b144:    e7ff        ..      B        0x1b146 ; am_util_stdio_vsprintf + 1254
        0x0001b146:    9813        ..      LDR      r0,[sp,#0x4c]
        0x0001b148:    9000        ..      STR      r0,[sp,#0]
        0x0001b14a:    e002        ..      B        0x1b152 ; am_util_stdio_vsprintf + 1266
        0x0001b14c:    2000        .       MOVS     r0,#0
        0x0001b14e:    9000        ..      STR      r0,[sp,#0]
        0x0001b150:    e7ff        ..      B        0x1b152 ; am_util_stdio_vsprintf + 1266
        0x0001b152:    9900        ..      LDR      r1,[sp,#0]
        0x0001b154:    981c        ..      LDR      r0,[sp,#0x70]
        0x0001b156:    4408        .D      ADD      r0,r0,r1
        0x0001b158:    901c        ..      STR      r0,[sp,#0x70]
        0x0001b15a:    9913        ..      LDR      r1,[sp,#0x4c]
        0x0001b15c:    9814        ..      LDR      r0,[sp,#0x50]
        0x0001b15e:    4408        .D      ADD      r0,r0,r1
        0x0001b160:    9014        ..      STR      r0,[sp,#0x50]
        0x0001b162:    2000        .       MOVS     r0,#0
        0x0001b164:    9013        ..      STR      r0,[sp,#0x4c]
        0x0001b166:    f89d003f    ..?.    LDRB     r0,[sp,#0x3f]
        0x0001b16a:    07c0        ..      LSLS     r0,r0,#31
        0x0001b16c:    b190        ..      CBZ      r0,0x1b194 ; am_util_stdio_vsprintf + 1332
        0x0001b16e:    e7ff        ..      B        0x1b170 ; am_util_stdio_vsprintf + 1296
        0x0001b170:    f89d0042    ..B.    LDRB     r0,[sp,#0x42]
        0x0001b174:    2820         (      CMP      r0,#0x20
        0x0001b176:    d10d        ..      BNE      0x1b194 ; am_util_stdio_vsprintf + 1332
        0x0001b178:    e7ff        ..      B        0x1b17a ; am_util_stdio_vsprintf + 1306
        0x0001b17a:    981c        ..      LDR      r0,[sp,#0x70]
        0x0001b17c:    b130        0.      CBZ      r0,0x1b18c ; am_util_stdio_vsprintf + 1324
        0x0001b17e:    e7ff        ..      B        0x1b180 ; am_util_stdio_vsprintf + 1312
        0x0001b180:    991c        ..      LDR      r1,[sp,#0x70]
        0x0001b182:    1c48        H.      ADDS     r0,r1,#1
        0x0001b184:    901c        ..      STR      r0,[sp,#0x70]
        0x0001b186:    202d        -       MOVS     r0,#0x2d
        0x0001b188:    7008        .p      STRB     r0,[r1,#0]
        0x0001b18a:    e7ff        ..      B        0x1b18c ; am_util_stdio_vsprintf + 1324
        0x0001b18c:    9814        ..      LDR      r0,[sp,#0x50]
        0x0001b18e:    3001        .0      ADDS     r0,#1
        0x0001b190:    9014        ..      STR      r0,[sp,#0x50]
        0x0001b192:    e7ff        ..      B        0x1b194 ; am_util_stdio_vsprintf + 1332
        0x0001b194:    e012        ..      B        0x1b1bc ; am_util_stdio_vsprintf + 1372
        0x0001b196:    f89d003f    ..?.    LDRB     r0,[sp,#0x3f]
        0x0001b19a:    07c0        ..      LSLS     r0,r0,#31
        0x0001b19c:    b168        h.      CBZ      r0,0x1b1ba ; am_util_stdio_vsprintf + 1370
        0x0001b19e:    e7ff        ..      B        0x1b1a0 ; am_util_stdio_vsprintf + 1344
        0x0001b1a0:    981c        ..      LDR      r0,[sp,#0x70]
        0x0001b1a2:    b130        0.      CBZ      r0,0x1b1b2 ; am_util_stdio_vsprintf + 1362
        0x0001b1a4:    e7ff        ..      B        0x1b1a6 ; am_util_stdio_vsprintf + 1350
        0x0001b1a6:    991c        ..      LDR      r1,[sp,#0x70]
        0x0001b1a8:    1c48        H.      ADDS     r0,r1,#1
        0x0001b1aa:    901c        ..      STR      r0,[sp,#0x70]
        0x0001b1ac:    202d        -       MOVS     r0,#0x2d
        0x0001b1ae:    7008        .p      STRB     r0,[r1,#0]
        0x0001b1b0:    e7ff        ..      B        0x1b1b2 ; am_util_stdio_vsprintf + 1362
        0x0001b1b2:    9814        ..      LDR      r0,[sp,#0x50]
        0x0001b1b4:    3001        .0      ADDS     r0,#1
        0x0001b1b6:    9014        ..      STR      r0,[sp,#0x50]
        0x0001b1b8:    e7ff        ..      B        0x1b1ba ; am_util_stdio_vsprintf + 1370
        0x0001b1ba:    e7ff        ..      B        0x1b1bc ; am_util_stdio_vsprintf + 1372
        0x0001b1bc:    9818        ..      LDR      r0,[sp,#0x60]
        0x0001b1be:    9919        ..      LDR      r1,[sp,#0x64]
        0x0001b1c0:    9a1c        ..      LDR      r2,[sp,#0x70]
        0x0001b1c2:    f001f819    ....    BL       uint64_to_str ; 0x1c1f8
        0x0001b1c6:    9012        ..      STR      r0,[sp,#0x48]
        0x0001b1c8:    981c        ..      LDR      r0,[sp,#0x70]
        0x0001b1ca:    b128        (.      CBZ      r0,0x1b1d8 ; am_util_stdio_vsprintf + 1400
        0x0001b1cc:    e7ff        ..      B        0x1b1ce ; am_util_stdio_vsprintf + 1390
        0x0001b1ce:    9912        ..      LDR      r1,[sp,#0x48]
        0x0001b1d0:    981c        ..      LDR      r0,[sp,#0x70]
        0x0001b1d2:    4408        .D      ADD      r0,r0,r1
        0x0001b1d4:    901c        ..      STR      r0,[sp,#0x70]
        0x0001b1d6:    e7ff        ..      B        0x1b1d8 ; am_util_stdio_vsprintf + 1400
        0x0001b1d8:    9912        ..      LDR      r1,[sp,#0x48]
        0x0001b1da:    9814        ..      LDR      r0,[sp,#0x50]
        0x0001b1dc:    4408        .D      ADD      r0,r0,r1
        0x0001b1de:    9014        ..      STR      r0,[sp,#0x50]
        0x0001b1e0:    e059        Y.      B        0x1b296 ; am_util_stdio_vsprintf + 1590
        0x0001b1e2:    981c        ..      LDR      r0,[sp,#0x70]
        0x0001b1e4:    2800        .(      CMP      r0,#0
        0x0001b1e6:    d047        G.      BEQ      0x1b278 ; am_util_stdio_vsprintf + 1560
        0x0001b1e8:    e7ff        ..      B        0x1b1ea ; am_util_stdio_vsprintf + 1418
        0x0001b1ea:    981d        ..      LDR      r0,[sp,#0x74]
        0x0001b1ec:    3007        .0      ADDS     r0,#7
        0x0001b1ee:    f0200007     ...    BIC      r0,r0,#7
        0x0001b1f2:    f1000108    ....    ADD      r1,r0,#8
        0x0001b1f6:    911d        ..      STR      r1,[sp,#0x74]
        0x0001b1f8:    ed900b00    ....    VLDR     d0,[r0,#0]
        0x0001b1fc:    ec510b10    Q...    VMOV     r0,r1,d0
        0x0001b200:    f001f83e    ..>.    BL       __aeabi_d2f ; 0x1c280
        0x0001b204:    900d        ..      STR      r0,[sp,#0x34]
        0x0001b206:    991c        ..      LDR      r1,[sp,#0x70]
        0x0001b208:    2014        .       MOVS     r0,#0x14
        0x0001b20a:    6008        .`      STR      r0,[r1,#0]
        0x0001b20c:    ed9d0a0d    ....    VLDR     s0,[sp,#0x34]
        0x0001b210:    981c        ..      LDR      r0,[sp,#0x70]
        0x0001b212:    9911        ..      LDR      r1,[sp,#0x44]
        0x0001b214:    f000fa2a    ..*.    BL       ftoa ; 0x1b66c
        0x0001b218:    9012        ..      STR      r0,[sp,#0x48]
        0x0001b21a:    9812        ..      LDR      r0,[sp,#0x48]
        0x0001b21c:    f1b03fff    ...?    CMP      r0,#0xffffffff
        0x0001b220:    dc21        !.      BGT      0x1b266 ; am_util_stdio_vsprintf + 1542
        0x0001b222:    e7ff        ..      B        0x1b224 ; am_util_stdio_vsprintf + 1476
        0x0001b224:    9812        ..      LDR      r0,[sp,#0x48]
        0x0001b226:    3001        .0      ADDS     r0,#1
        0x0001b228:    b930        0.      CBNZ     r0,0x1b238 ; am_util_stdio_vsprintf + 1496
        0x0001b22a:    e7ff        ..      B        0x1b22c ; am_util_stdio_vsprintf + 1484
        0x0001b22c:    f6426030    B.0`    MOV      r0,#0x2e30
        0x0001b230:    f2c00030    ..0.    MOVT     r0,#0x30
        0x0001b234:    900c        ..      STR      r0,[sp,#0x30]
        0x0001b236:    e010        ..      B        0x1b25a ; am_util_stdio_vsprintf + 1530
        0x0001b238:    9812        ..      LDR      r0,[sp,#0x48]
        0x0001b23a:    3002        .0      ADDS     r0,#2
        0x0001b23c:    b930        0.      CBNZ     r0,0x1b24c ; am_util_stdio_vsprintf + 1516
        0x0001b23e:    e7ff        ..      B        0x1b240 ; am_util_stdio_vsprintf + 1504
        0x0001b240:    f6426023    B.#`    MOV      r0,#0x2e23
        0x0001b244:    f2c00023    ..#.    MOVT     r0,#0x23
        0x0001b248:    900c        ..      STR      r0,[sp,#0x30]
        0x0001b24a:    e005        ..      B        0x1b258 ; am_util_stdio_vsprintf + 1528
        0x0001b24c:    f642603f    B.?`    MOV      r0,#0x2e3f
        0x0001b250:    f2c0003f    ..?.    MOVT     r0,#0x3f
        0x0001b254:    900c        ..      STR      r0,[sp,#0x30]
        0x0001b256:    e7ff        ..      B        0x1b258 ; am_util_stdio_vsprintf + 1528
        0x0001b258:    e7ff        ..      B        0x1b25a ; am_util_stdio_vsprintf + 1530
        0x0001b25a:    980c        ..      LDR      r0,[sp,#0x30]
        0x0001b25c:    991c        ..      LDR      r1,[sp,#0x70]
        0x0001b25e:    6008        .`      STR      r0,[r1,#0]
        0x0001b260:    2003        .       MOVS     r0,#3
        0x0001b262:    9012        ..      STR      r0,[sp,#0x48]
        0x0001b264:    e7ff        ..      B        0x1b266 ; am_util_stdio_vsprintf + 1542
        0x0001b266:    9912        ..      LDR      r1,[sp,#0x48]
        0x0001b268:    9814        ..      LDR      r0,[sp,#0x50]
        0x0001b26a:    4408        .D      ADD      r0,r0,r1
        0x0001b26c:    9014        ..      STR      r0,[sp,#0x50]
        0x0001b26e:    9912        ..      LDR      r1,[sp,#0x48]
        0x0001b270:    981c        ..      LDR      r0,[sp,#0x70]
        0x0001b272:    4408        .D      ADD      r0,r0,r1
        0x0001b274:    901c        ..      STR      r0,[sp,#0x70]
        0x0001b276:    e7ff        ..      B        0x1b278 ; am_util_stdio_vsprintf + 1560
        0x0001b278:    e00d        ..      B        0x1b296 ; am_util_stdio_vsprintf + 1590
        0x0001b27a:    981c        ..      LDR      r0,[sp,#0x70]
        0x0001b27c:    b138        8.      CBZ      r0,0x1b28e ; am_util_stdio_vsprintf + 1582
        0x0001b27e:    e7ff        ..      B        0x1b280 ; am_util_stdio_vsprintf + 1568
        0x0001b280:    981b        ..      LDR      r0,[sp,#0x6c]
        0x0001b282:    7800        .x      LDRB     r0,[r0,#0]
        0x0001b284:    991c        ..      LDR      r1,[sp,#0x70]
        0x0001b286:    1c4a        J.      ADDS     r2,r1,#1
        0x0001b288:    921c        ..      STR      r2,[sp,#0x70]
        0x0001b28a:    7008        .p      STRB     r0,[r1,#0]
        0x0001b28c:    e7ff        ..      B        0x1b28e ; am_util_stdio_vsprintf + 1582
        0x0001b28e:    9814        ..      LDR      r0,[sp,#0x50]
        0x0001b290:    3001        .0      ADDS     r0,#1
        0x0001b292:    9014        ..      STR      r0,[sp,#0x50]
        0x0001b294:    e7ff        ..      B        0x1b296 ; am_util_stdio_vsprintf + 1590
        0x0001b296:    981b        ..      LDR      r0,[sp,#0x6c]
        0x0001b298:    3001        .0      ADDS     r0,#1
        0x0001b29a:    901b        ..      STR      r0,[sp,#0x6c]
        0x0001b29c:    f7ffbce9    ....    B.W      0x1ac72 ; am_util_stdio_vsprintf + 18
        0x0001b2a0:    981c        ..      LDR      r0,[sp,#0x70]
        0x0001b2a2:    b120         .      CBZ      r0,0x1b2ae ; am_util_stdio_vsprintf + 1614
        0x0001b2a4:    e7ff        ..      B        0x1b2a6 ; am_util_stdio_vsprintf + 1606
        0x0001b2a6:    991c        ..      LDR      r1,[sp,#0x70]
        0x0001b2a8:    2000        .       MOVS     r0,#0
        0x0001b2aa:    7008        .p      STRB     r0,[r1,#0]
        0x0001b2ac:    e7ff        ..      B        0x1b2ae ; am_util_stdio_vsprintf + 1614
        0x0001b2ae:    9814        ..      LDR      r0,[sp,#0x50]
        0x0001b2b0:    b01e        ..      ADD      sp,sp,#0x78
        0x0001b2b2:    bd80        ..      POP      {r7,pc}
    am_valid_sp
        0x0001b2b4:    b082        ..      SUB      sp,sp,#8
        0x0001b2b6:    9001        ..      STR      r0,[sp,#4]
        0x0001b2b8:    9901        ..      LDR      r1,[sp,#4]
        0x0001b2ba:    2000        .       MOVS     r0,#0
        0x0001b2bc:    f1b15f80    ..._    CMP      r1,#0x10000000
        0x0001b2c0:    9000        ..      STR      r0,[sp,#0]
        0x0001b2c2:    d30b        ..      BCC      0x1b2dc ; am_valid_sp + 40
        0x0001b2c4:    e7ff        ..      B        0x1b2c6 ; am_valid_sp + 18
        0x0001b2c6:    9901        ..      LDR      r1,[sp,#4]
        0x0001b2c8:    f2480200    H...    MOVW     r2,#0x8000
        0x0001b2cc:    f2c1021d    ....    MOVT     r2,#0x101d
        0x0001b2d0:    2000        .       MOVS     r0,#0
        0x0001b2d2:    4291        .B      CMP      r1,r2
        0x0001b2d4:    bf38        8.      IT       CC
        0x0001b2d6:    2001        .       MOVCC    r0,#1
        0x0001b2d8:    9000        ..      STR      r0,[sp,#0]
        0x0001b2da:    e7ff        ..      B        0x1b2dc ; am_valid_sp + 40
        0x0001b2dc:    9800        ..      LDR      r0,[sp,#0]
        0x0001b2de:    f0000001    ....    AND      r0,r0,#1
        0x0001b2e2:    b002        ..      ADD      sp,sp,#8
        0x0001b2e4:    4770        pG      BX       lr
        0x0001b2e6:    0000        ..      MOVS     r0,r0
    buck_interval_check
        0x0001b2e8:    b5f0        ..      PUSH     {r4-r7,lr}
        0x0001b2ea:    b08b        ..      SUB      sp,sp,#0x2c
        0x0001b2ec:    2260        `"      MOVS     r2,#0x60
        0x0001b2ee:    f2c40202    ....    MOVT     r2,#0x4002
        0x0001b2f2:    4604        .F      MOV      r4,r0
        0x0001b2f4:    f8d20fa0    ....    LDR      r0,[r2,#0xfa0]
        0x0001b2f8:    b194        ..      CBZ      r4,0x1b320 ; buck_interval_check + 56
        0x0001b2fa:    2900        .)      CMP      r1,#0
        0x0001b2fc:    f2411100    A...    MOVW     r1,#0x1100
        0x0001b300:    f2c40102    ....    MOVT     r1,#0x4002
        0x0001b304:    6809        .h      LDR      r1,[r1,#0]
        0x0001b306:    f04f071d    O...    MOV      r7,#0x1d
        0x0001b30a:    bf08        ..      IT       EQ
        0x0001b30c:    271c        .'      MOVEQ    r7,#0x1c
        0x0001b30e:    07c9        ..      LSLS     r1,r1,#31
        0x0001b310:    d004        ..      BEQ      0x1b31c ; buck_interval_check + 52
        0x0001b312:    6811        .h      LDR      r1,[r2,#0]
        0x0001b314:    f24012ef    @...    MOV      r2,#0x1ef
        0x0001b318:    4211        .B      TST      r1,r2
        0x0001b31a:    d004        ..      BEQ      0x1b326 ; buck_interval_check + 62
        0x0001b31c:    2007        .       MOVS     r0,#7
        0x0001b31e:    e000        ..      B        0x1b322 ; buck_interval_check + 58
        0x0001b320:    2006        .       MOVS     r0,#6
        0x0001b322:    b00b        ..      ADD      sp,sp,#0x2c
        0x0001b324:    bdf0        ..      POP      {r4-r7,pc}
        0x0001b326:    f0000618    ....    AND      r6,r0,#0x18
        0x0001b32a:    200d        .       MOVS     r0,#0xd
        0x0001b32c:    f7fff9bd    ....    BL       am_hal_timer_clear_stop ; 0x1a6aa
        0x0001b330:    200d        .       MOVS     r0,#0xd
        0x0001b332:    f7fff9f4    ....    BL       am_hal_timer_disable ; 0x1a71e
        0x0001b336:    200d        .       MOVS     r0,#0xd
        0x0001b338:    f7fffabc    ....    BL       am_hal_timer_reset_config ; 0x1a8b4
        0x0001b33c:    ad06        ..      ADD      r5,sp,#0x18
        0x0001b33e:    4628        (F      MOV      r0,r5
        0x0001b340:    f7fff9dd    ....    BL       am_hal_timer_default_config_set ; 0x1a6fe
        0x0001b344:    2002        .       MOVS     r0,#2
        0x0001b346:    f88d0019    ....    STRB     r0,[sp,#0x19]
        0x0001b34a:    200d        .       MOVS     r0,#0xd
        0x0001b34c:    4629        )F      MOV      r1,r5
        0x0001b34e:    f88d7018    ...p    STRB     r7,[sp,#0x18]
        0x0001b352:    f000fe3d    ..=.    BL       timer_config_b1 ; 0x1bfd0
        0x0001b356:    2008        .       MOVS     r0,#8
        0x0001b358:    f7fff9a7    ....    BL       am_hal_timer_clear_stop ; 0x1a6aa
        0x0001b35c:    2008        .       MOVS     r0,#8
        0x0001b35e:    f7fff9de    ....    BL       am_hal_timer_disable ; 0x1a71e
        0x0001b362:    2008        .       MOVS     r0,#8
        0x0001b364:    f7fffaa6    ....    BL       am_hal_timer_reset_config ; 0x1a8b4
        0x0001b368:    ad01        ..      ADD      r5,sp,#4
        0x0001b36a:    4628        (F      MOV      r0,r5
        0x0001b36c:    f7fff9c7    ....    BL       am_hal_timer_default_config_set ; 0x1a6fe
        0x0001b370:    f2402001    @..     MOV      r0,#0x201
        0x0001b374:    f8ad0004    ....    STRH     r0,[sp,#4]
        0x0001b378:    2008        .       MOVS     r0,#8
        0x0001b37a:    4629        )F      MOV      r1,r5
        0x0001b37c:    f000fe28    ..(.    BL       timer_config_b1 ; 0x1bfd0
        0x0001b380:    f7fefaca    ....    BL       am_hal_interrupt_master_disable ; 0x19918
        0x0001b384:    9000        ..      STR      r0,[sp,#0]
        0x0001b386:    2008        .       MOVS     r0,#8
        0x0001b388:    f7fff9e7    ....    BL       am_hal_timer_enable ; 0x1a75a
        0x0001b38c:    200d        .       MOVS     r0,#0xd
        0x0001b38e:    f7fff9e4    ....    BL       am_hal_timer_enable ; 0x1a75a
        0x0001b392:    9800        ..      LDR      r0,[sp,#0]
        0x0001b394:    f7fefac8    ....    BL       am_hal_interrupt_master_set ; 0x19928
        0x0001b398:    f2427510    B..u    MOV      r5,#0x2710
        0x0001b39c:    2e10        ..      CMP      r6,#0x10
        0x0001b39e:    bf08        ..      IT       EQ
        0x0001b3a0:    f6446520    D. e    MOVEQ    r5,#0x4e20
        0x0001b3a4:    f7fefab8    ....    BL       am_hal_interrupt_master_disable ; 0x19918
        0x0001b3a8:    9000        ..      STR      r0,[sp,#0]
        0x0001b3aa:    200d        .       MOVS     r0,#0xd
        0x0001b3ac:    f7fffa6f    ..o.    BL       am_hal_timer_read ; 0x1a88e
        0x0001b3b0:    280a        .(      CMP      r0,#0xa
        0x0001b3b2:    d206        ..      BCS      0x1b3c2 ; buck_interval_check + 218
        0x0001b3b4:    9800        ..      LDR      r0,[sp,#0]
        0x0001b3b6:    f7fefab7    ....    BL       am_hal_interrupt_master_set ; 0x19928
        0x0001b3ba:    3d01        .=      SUBS     r5,#1
        0x0001b3bc:    d1f2        ..      BNE      0x1b3a4 ; buck_interval_check + 188
        0x0001b3be:    2500        .%      MOVS     r5,#0
        0x0001b3c0:    e007        ..      B        0x1b3d2 ; buck_interval_check + 234
        0x0001b3c2:    2008        .       MOVS     r0,#8
        0x0001b3c4:    f7fffa63    ..c.    BL       am_hal_timer_read ; 0x1a88e
        0x0001b3c8:    9900        ..      LDR      r1,[sp,#0]
        0x0001b3ca:    4605        .F      MOV      r5,r0
        0x0001b3cc:    4608        .F      MOV      r0,r1
        0x0001b3ce:    f7fefaab    ....    BL       am_hal_interrupt_master_set ; 0x19928
        0x0001b3d2:    200d        .       MOVS     r0,#0xd
        0x0001b3d4:    f7fff969    ..i.    BL       am_hal_timer_clear_stop ; 0x1a6aa
        0x0001b3d8:    200d        .       MOVS     r0,#0xd
        0x0001b3da:    f7fff9a0    ....    BL       am_hal_timer_disable ; 0x1a71e
        0x0001b3de:    200d        .       MOVS     r0,#0xd
        0x0001b3e0:    f7fffa68    ..h.    BL       am_hal_timer_reset_config ; 0x1a8b4
        0x0001b3e4:    2008        .       MOVS     r0,#8
        0x0001b3e6:    f7fff960    ..`.    BL       am_hal_timer_clear_stop ; 0x1a6aa
        0x0001b3ea:    2008        .       MOVS     r0,#8
        0x0001b3ec:    f7fff997    ....    BL       am_hal_timer_disable ; 0x1a71e
        0x0001b3f0:    2008        .       MOVS     r0,#8
        0x0001b3f2:    f7fffa5f    .._.    BL       am_hal_timer_reset_config ; 0x1a8b4
        0x0001b3f6:    b185        ..      CBZ      r5,0x1b41a ; buck_interval_check + 306
        0x0001b3f8:    f64a20ab    J..     MOV      r0,#0xaaab
        0x0001b3fc:    f6ca20aa    ...     MOVT     r0,#0xaaaa
        0x0001b400:    fba50100    ....    UMULL    r0,r1,r5,r0
        0x0001b404:    0888        ..      LSRS     r0,r1,#2
        0x0001b406:    f5b57f96    ....    CMP      r5,#0x12c
        0x0001b40a:    bf38        8.      IT       CC
        0x0001b40c:    2032        2       MOVCC    r0,#0x32
        0x0001b40e:    2896        .(      CMP      r0,#0x96
        0x0001b410:    bf28        (.      IT       CS
        0x0001b412:    2096        .       MOVCS    r0,#0x96
        0x0001b414:    6020         `      STR      r0,[r4,#0]
        0x0001b416:    2000        .       MOVS     r0,#0
        0x0001b418:    e783        ..      B        0x1b322 ; buck_interval_check + 58
        0x0001b41a:    2001        .       MOVS     r0,#1
        0x0001b41c:    e781        ..      B        0x1b322 ; buck_interval_check + 58
    buck_ldo_override_init
        0x0001b41e:    2060        `       MOVS     r0,#0x60
        0x0001b420:    f2c40002    ....    MOVT     r0,#0x4002
        0x0001b424:    6801        .h      LDR      r1,[r0,#0]
        0x0001b426:    2204        ."      MOVS     r2,#4
        0x0001b428:    f4413100    A..1    ORR      r1,r1,#0x20000
        0x0001b42c:    6001        .`      STR      r1,[r0,#0]
        0x0001b42e:    6801        .h      LDR      r1,[r0,#0]
        0x0001b430:    f4412180    A..!    ORR      r1,r1,#0x40000
        0x0001b434:    6001        .`      STR      r1,[r0,#0]
        0x0001b436:    6801        .h      LDR      r1,[r0,#0]
        0x0001b438:    f4412100    A..!    ORR      r1,r1,#0x80000
        0x0001b43c:    6001        .`      STR      r1,[r0,#0]
        0x0001b43e:    6801        .h      LDR      r1,[r0,#0]
        0x0001b440:    f4413180    A..1    ORR      r1,r1,#0x10000
        0x0001b444:    6001        .`      STR      r1,[r0,#0]
        0x0001b446:    6a01        .j      LDR      r1,[r0,#0x20]
        0x0001b448:    f362218d    b..!    BFI      r1,r2,#10,#4
        0x0001b44c:    6201        .b      STR      r1,[r0,#0x20]
        0x0001b44e:    6801        .h      LDR      r1,[r0,#0]
        0x0001b450:    f0210110    !...    BIC      r1,r1,#0x10
        0x0001b454:    6001        .`      STR      r1,[r0,#0]
        0x0001b456:    6801        .h      LDR      r1,[r0,#0]
        0x0001b458:    f041010e    A...    ORR      r1,r1,#0xe
        0x0001b45c:    6001        .`      STR      r1,[r0,#0]
        0x0001b45e:    6801        .h      LDR      r1,[r0,#0]
        0x0001b460:    f0410101    A...    ORR      r1,r1,#1
        0x0001b464:    6001        .`      STR      r1,[r0,#0]
        0x0001b466:    6801        .h      LDR      r1,[r0,#0]
        0x0001b468:    f4217100    !..q    BIC      r1,r1,#0x200
        0x0001b46c:    6001        .`      STR      r1,[r0,#0]
        0x0001b46e:    6801        .h      LDR      r1,[r0,#0]
        0x0001b470:    f44171e0    A..q    ORR      r1,r1,#0x1c0
        0x0001b474:    6001        .`      STR      r1,[r0,#0]
        0x0001b476:    6801        .h      LDR      r1,[r0,#0]
        0x0001b478:    f0410120    A. .    ORR      r1,r1,#0x20
        0x0001b47c:    6001        .`      STR      r1,[r0,#0]
        0x0001b47e:    4770        pG      BX       lr
    buck_ldo_update_override
        0x0001b480:    2160        `!      MOVS     r1,#0x60
        0x0001b482:    f2c40102    ....    MOVT     r1,#0x4002
        0x0001b486:    680a        .h      LDR      r2,[r1,#0]
        0x0001b488:    f4223280    "..2    BIC      r2,r2,#0x10000
        0x0001b48c:    f3604210    `..B    BFI      r2,r0,#16,#1
        0x0001b490:    600a        .`      STR      r2,[r1,#0]
        0x0001b492:    680a        .h      LDR      r2,[r1,#0]
        0x0001b494:    f0220201    "...    BIC      r2,r2,#1
        0x0001b498:    4402        .D      ADD      r2,r2,r0
        0x0001b49a:    600a        .`      STR      r2,[r1,#0]
        0x0001b49c:    680a        .h      LDR      r2,[r1,#0]
        0x0001b49e:    f0220220    ". .    BIC      r2,r2,#0x20
        0x0001b4a2:    f3601245    `.E.    BFI      r2,r0,#5,#1
        0x0001b4a6:    600a        .`      STR      r2,[r1,#0]
        0x0001b4a8:    4770        pG      BX       lr
        0x0001b4aa:    0000        ..      MOVS     r0,r0
    decstr_to_int
        0x0001b4ac:    b087        ..      SUB      sp,sp,#0x1c
        0x0001b4ae:    9006        ..      STR      r0,[sp,#0x18]
        0x0001b4b0:    9105        ..      STR      r1,[sp,#0x14]
        0x0001b4b2:    2000        .       MOVS     r0,#0
        0x0001b4b4:    f88d0013    ....    STRB     r0,[sp,#0x13]
        0x0001b4b8:    9003        ..      STR      r0,[sp,#0xc]
        0x0001b4ba:    9002        ..      STR      r0,[sp,#8]
        0x0001b4bc:    9806        ..      LDR      r0,[sp,#0x18]
        0x0001b4be:    7800        .x      LDRB     r0,[r0,#0]
        0x0001b4c0:    282d        -(      CMP      r0,#0x2d
        0x0001b4c2:    d10a        ..      BNE      0x1b4da ; decstr_to_int + 46
        0x0001b4c4:    e7ff        ..      B        0x1b4c6 ; decstr_to_int + 26
        0x0001b4c6:    2001        .       MOVS     r0,#1
        0x0001b4c8:    f88d0013    ....    STRB     r0,[sp,#0x13]
        0x0001b4cc:    9806        ..      LDR      r0,[sp,#0x18]
        0x0001b4ce:    3001        .0      ADDS     r0,#1
        0x0001b4d0:    9006        ..      STR      r0,[sp,#0x18]
        0x0001b4d2:    9802        ..      LDR      r0,[sp,#8]
        0x0001b4d4:    3001        .0      ADDS     r0,#1
        0x0001b4d6:    9002        ..      STR      r0,[sp,#8]
        0x0001b4d8:    e7ff        ..      B        0x1b4da ; decstr_to_int + 46
        0x0001b4da:    e7ff        ..      B        0x1b4dc ; decstr_to_int + 48
        0x0001b4dc:    9806        ..      LDR      r0,[sp,#0x18]
        0x0001b4de:    7801        .x      LDRB     r1,[r0,#0]
        0x0001b4e0:    2000        .       MOVS     r0,#0
        0x0001b4e2:    2930        0)      CMP      r1,#0x30
        0x0001b4e4:    9001        ..      STR      r0,[sp,#4]
        0x0001b4e6:    db08        ..      BLT      0x1b4fa ; decstr_to_int + 78
        0x0001b4e8:    e7ff        ..      B        0x1b4ea ; decstr_to_int + 62
        0x0001b4ea:    9806        ..      LDR      r0,[sp,#0x18]
        0x0001b4ec:    7801        .x      LDRB     r1,[r0,#0]
        0x0001b4ee:    2000        .       MOVS     r0,#0
        0x0001b4f0:    293a        :)      CMP      r1,#0x3a
        0x0001b4f2:    bfb8        ..      IT       LT
        0x0001b4f4:    2001        .       MOVLT    r0,#1
        0x0001b4f6:    9001        ..      STR      r0,[sp,#4]
        0x0001b4f8:    e7ff        ..      B        0x1b4fa ; decstr_to_int + 78
        0x0001b4fa:    9801        ..      LDR      r0,[sp,#4]
        0x0001b4fc:    07c0        ..      LSLS     r0,r0,#31
        0x0001b4fe:    b190        ..      CBZ      r0,0x1b526 ; decstr_to_int + 122
        0x0001b500:    e7ff        ..      B        0x1b502 ; decstr_to_int + 86
        0x0001b502:    9802        ..      LDR      r0,[sp,#8]
        0x0001b504:    3001        .0      ADDS     r0,#1
        0x0001b506:    9002        ..      STR      r0,[sp,#8]
        0x0001b508:    9803        ..      LDR      r0,[sp,#0xc]
        0x0001b50a:    eb000080    ....    ADD      r0,r0,r0,LSL #2
        0x0001b50e:    0040        @.      LSLS     r0,r0,#1
        0x0001b510:    9003        ..      STR      r0,[sp,#0xc]
        0x0001b512:    9806        ..      LDR      r0,[sp,#0x18]
        0x0001b514:    7800        .x      LDRB     r0,[r0,#0]
        0x0001b516:    9903        ..      LDR      r1,[sp,#0xc]
        0x0001b518:    4408        .D      ADD      r0,r0,r1
        0x0001b51a:    3830        08      SUBS     r0,r0,#0x30
        0x0001b51c:    9003        ..      STR      r0,[sp,#0xc]
        0x0001b51e:    9806        ..      LDR      r0,[sp,#0x18]
        0x0001b520:    3001        .0      ADDS     r0,#1
        0x0001b522:    9006        ..      STR      r0,[sp,#0x18]
        0x0001b524:    e7da        ..      B        0x1b4dc ; decstr_to_int + 48
        0x0001b526:    9805        ..      LDR      r0,[sp,#0x14]
        0x0001b528:    b120         .      CBZ      r0,0x1b534 ; decstr_to_int + 136
        0x0001b52a:    e7ff        ..      B        0x1b52c ; decstr_to_int + 128
        0x0001b52c:    9802        ..      LDR      r0,[sp,#8]
        0x0001b52e:    9905        ..      LDR      r1,[sp,#0x14]
        0x0001b530:    6008        .`      STR      r0,[r1,#0]
        0x0001b532:    e7ff        ..      B        0x1b534 ; decstr_to_int + 136
        0x0001b534:    f89d0013    ....    LDRB     r0,[sp,#0x13]
        0x0001b538:    07c0        ..      LSLS     r0,r0,#31
        0x0001b53a:    b120         .      CBZ      r0,0x1b546 ; decstr_to_int + 154
        0x0001b53c:    e7ff        ..      B        0x1b53e ; decstr_to_int + 146
        0x0001b53e:    9803        ..      LDR      r0,[sp,#0xc]
        0x0001b540:    4240        @B      RSBS     r0,r0,#0
        0x0001b542:    9000        ..      STR      r0,[sp,#0]
        0x0001b544:    e002        ..      B        0x1b54c ; decstr_to_int + 160
        0x0001b546:    9803        ..      LDR      r0,[sp,#0xc]
        0x0001b548:    9000        ..      STR      r0,[sp,#0]
        0x0001b54a:    e7ff        ..      B        0x1b54c ; decstr_to_int + 160
        0x0001b54c:    9800        ..      LDR      r0,[sp,#0]
        0x0001b54e:    b007        ..      ADD      sp,sp,#0x1c
        0x0001b550:    4770        pG      BX       lr
        0x0001b552:    0000        ..      MOVS     r0,r0
    divu64_10
        0x0001b554:    b08c        ..      SUB      sp,sp,#0x30
        0x0001b556:    9109        ..      STR      r1,[sp,#0x24]
        0x0001b558:    9008        ..      STR      r0,[sp,#0x20]
        0x0001b55a:    9809        ..      LDR      r0,[sp,#0x24]
        0x0001b55c:    2800        .(      CMP      r0,#0
        0x0001b55e:    d05b        [.      BEQ      0x1b618 ; divu64_10 + 196
        0x0001b560:    e7ff        ..      B        0x1b562 ; divu64_10 + 14
        0x0001b562:    9b08        ..      LDR      r3,[sp,#0x20]
        0x0001b564:    9a09        ..      LDR      r2,[sp,#0x24]
        0x0001b566:    ea5f0052    _.R.    LSRS.W   r0,r2,#1
        0x0001b56a:    ea4f0133    O.3.    RRX      r1,r3
        0x0001b56e:    089b        ..      LSRS     r3,r3,#2
        0x0001b570:    ea437382    C..s    ORR      r3,r3,r2,LSL #30
        0x0001b574:    18c9        ..      ADDS     r1,r1,r3
        0x0001b576:    eb400092    @...    ADC      r0,r0,r2,LSR #2
        0x0001b57a:    9106        ..      STR      r1,[sp,#0x18]
        0x0001b57c:    9007        ..      STR      r0,[sp,#0x1c]
        0x0001b57e:    9906        ..      LDR      r1,[sp,#0x18]
        0x0001b580:    9807        ..      LDR      r0,[sp,#0x1c]
        0x0001b582:    090a        ..      LSRS     r2,r1,#4
        0x0001b584:    ea427200    B..r    ORR      r2,r2,r0,LSL #28
        0x0001b588:    1889        ..      ADDS     r1,r1,r2
        0x0001b58a:    eb401010    @...    ADC      r0,r0,r0,LSR #4
        0x0001b58e:    9106        ..      STR      r1,[sp,#0x18]
        0x0001b590:    9007        ..      STR      r0,[sp,#0x1c]
        0x0001b592:    9906        ..      LDR      r1,[sp,#0x18]
        0x0001b594:    9807        ..      LDR      r0,[sp,#0x1c]
        0x0001b596:    0a0a        ..      LSRS     r2,r1,#8
        0x0001b598:    ea426200    B..b    ORR      r2,r2,r0,LSL #24
        0x0001b59c:    1889        ..      ADDS     r1,r1,r2
        0x0001b59e:    eb402010    @..     ADC      r0,r0,r0,LSR #8
        0x0001b5a2:    9106        ..      STR      r1,[sp,#0x18]
        0x0001b5a4:    9007        ..      STR      r0,[sp,#0x1c]
        0x0001b5a6:    9906        ..      LDR      r1,[sp,#0x18]
        0x0001b5a8:    9807        ..      LDR      r0,[sp,#0x1c]
        0x0001b5aa:    0c0a        ..      LSRS     r2,r1,#16
        0x0001b5ac:    ea424200    B..B    ORR      r2,r2,r0,LSL #16
        0x0001b5b0:    1889        ..      ADDS     r1,r1,r2
        0x0001b5b2:    eb404010    @..@    ADC      r0,r0,r0,LSR #16
        0x0001b5b6:    9106        ..      STR      r1,[sp,#0x18]
        0x0001b5b8:    9007        ..      STR      r0,[sp,#0x1c]
        0x0001b5ba:    9906        ..      LDR      r1,[sp,#0x18]
        0x0001b5bc:    9807        ..      LDR      r0,[sp,#0x1c]
        0x0001b5be:    1809        ..      ADDS     r1,r1,r0
        0x0001b5c0:    f1400000    @...    ADC      r0,r0,#0
        0x0001b5c4:    9106        ..      STR      r1,[sp,#0x18]
        0x0001b5c6:    9007        ..      STR      r0,[sp,#0x1c]
        0x0001b5c8:    9806        ..      LDR      r0,[sp,#0x18]
        0x0001b5ca:    9907        ..      LDR      r1,[sp,#0x1c]
        0x0001b5cc:    08c0        ..      LSRS     r0,r0,#3
        0x0001b5ce:    ea407041    @.Ap    ORR      r0,r0,r1,LSL #29
        0x0001b5d2:    08c9        ..      LSRS     r1,r1,#3
        0x0001b5d4:    9107        ..      STR      r1,[sp,#0x1c]
        0x0001b5d6:    9006        ..      STR      r0,[sp,#0x18]
        0x0001b5d8:    9908        ..      LDR      r1,[sp,#0x20]
        0x0001b5da:    9809        ..      LDR      r0,[sp,#0x24]
        0x0001b5dc:    9a06        ..      LDR      r2,[sp,#0x18]
        0x0001b5de:    f8ddc01c    ....    LDR      r12,[sp,#0x1c]
        0x0001b5e2:    230a        .#      MOVS     r3,#0xa
        0x0001b5e4:    fba23203    ...2    UMULL    r3,r2,r2,r3
        0x0001b5e8:    eb0c0c8c    ....    ADD      r12,r12,r12,LSL #2
        0x0001b5ec:    eb02024c    ..L.    ADD      r2,r2,r12,LSL #1
        0x0001b5f0:    1ac9        ..      SUBS     r1,r1,r3
        0x0001b5f2:    4190        .A      SBCS     r0,r0,r2
        0x0001b5f4:    9104        ..      STR      r1,[sp,#0x10]
        0x0001b5f6:    9005        ..      STR      r0,[sp,#0x14]
        0x0001b5f8:    9906        ..      LDR      r1,[sp,#0x18]
        0x0001b5fa:    9807        ..      LDR      r0,[sp,#0x1c]
        0x0001b5fc:    9b04        ..      LDR      r3,[sp,#0x10]
        0x0001b5fe:    9a05        ..      LDR      r2,[sp,#0x14]
        0x0001b600:    3306        .3      ADDS     r3,#6
        0x0001b602:    f1420200    B...    ADC      r2,r2,#0
        0x0001b606:    091b        ..      LSRS     r3,r3,#4
        0x0001b608:    ea437302    C..s    ORR      r3,r3,r2,LSL #28
        0x0001b60c:    18c9        ..      ADDS     r1,r1,r3
        0x0001b60e:    eb401012    @...    ADC      r0,r0,r2,LSR #4
        0x0001b612:    910a        ..      STR      r1,[sp,#0x28]
        0x0001b614:    900b        ..      STR      r0,[sp,#0x2c]
        0x0001b616:    e025        %.      B        0x1b664 ; divu64_10 + 272
        0x0001b618:    9808        ..      LDR      r0,[sp,#0x20]
        0x0001b61a:    9001        ..      STR      r0,[sp,#4]
        0x0001b61c:    9901        ..      LDR      r1,[sp,#4]
        0x0001b61e:    0848        H.      LSRS     r0,r1,#1
        0x0001b620:    eb000091    ....    ADD      r0,r0,r1,LSR #2
        0x0001b624:    9003        ..      STR      r0,[sp,#0xc]
        0x0001b626:    9803        ..      LDR      r0,[sp,#0xc]
        0x0001b628:    eb001010    ....    ADD      r0,r0,r0,LSR #4
        0x0001b62c:    9003        ..      STR      r0,[sp,#0xc]
        0x0001b62e:    9803        ..      LDR      r0,[sp,#0xc]
        0x0001b630:    eb002010    ...     ADD      r0,r0,r0,LSR #8
        0x0001b634:    9003        ..      STR      r0,[sp,#0xc]
        0x0001b636:    9803        ..      LDR      r0,[sp,#0xc]
        0x0001b638:    eb004010    ...@    ADD      r0,r0,r0,LSR #16
        0x0001b63c:    9003        ..      STR      r0,[sp,#0xc]
        0x0001b63e:    9803        ..      LDR      r0,[sp,#0xc]
        0x0001b640:    08c0        ..      LSRS     r0,r0,#3
        0x0001b642:    9003        ..      STR      r0,[sp,#0xc]
        0x0001b644:    9801        ..      LDR      r0,[sp,#4]
        0x0001b646:    9903        ..      LDR      r1,[sp,#0xc]
        0x0001b648:    eb010181    ....    ADD      r1,r1,r1,LSL #2
        0x0001b64c:    eba00041    ..A.    SUB      r0,r0,r1,LSL #1
        0x0001b650:    9002        ..      STR      r0,[sp,#8]
        0x0001b652:    9803        ..      LDR      r0,[sp,#0xc]
        0x0001b654:    9902        ..      LDR      r1,[sp,#8]
        0x0001b656:    3106        .1      ADDS     r1,#6
        0x0001b658:    eb001011    ....    ADD      r0,r0,r1,LSR #4
        0x0001b65c:    2100        .!      MOVS     r1,#0
        0x0001b65e:    910b        ..      STR      r1,[sp,#0x2c]
        0x0001b660:    900a        ..      STR      r0,[sp,#0x28]
        0x0001b662:    e7ff        ..      B        0x1b664 ; divu64_10 + 272
        0x0001b664:    980a        ..      LDR      r0,[sp,#0x28]
        0x0001b666:    990b        ..      LDR      r1,[sp,#0x2c]
        0x0001b668:    b00c        ..      ADD      sp,sp,#0x30
        0x0001b66a:    4770        pG      BX       lr
    ftoa
        0x0001b66c:    b580        ..      PUSH     {r7,lr}
        0x0001b66e:    b090        ..      SUB      sp,sp,#0x40
        0x0001b670:    ed8d0a0e    ....    VSTR     s0,[sp,#0x38]
        0x0001b674:    900d        ..      STR      r0,[sp,#0x34]
        0x0001b676:    910c        ..      STR      r1,[sp,#0x30]
        0x0001b678:    980d        ..      LDR      r0,[sp,#0x34]
        0x0001b67a:    6800        .h      LDR      r0,[r0,#0]
        0x0001b67c:    9009        ..      STR      r0,[sp,#0x24]
        0x0001b67e:    9809        ..      LDR      r0,[sp,#0x24]
        0x0001b680:    2803        .(      CMP      r0,#3
        0x0001b682:    dc04        ..      BGT      0x1b68e ; ftoa + 34
        0x0001b684:    e7ff        ..      B        0x1b686 ; ftoa + 26
        0x0001b686:    f06f0002    o...    MVN      r0,#2
        0x0001b68a:    900f        ..      STR      r0,[sp,#0x3c]
        0x0001b68c:    e103        ..      B        0x1b896 ; ftoa + 554
        0x0001b68e:    ed9d0a0e    ....    VLDR     s0,[sp,#0x38]
        0x0001b692:    eeb50a40    ..@.    VCMP.F32 s0,#0.0
        0x0001b696:    eef1fa10    ....    VMRS     APSR_nzcv,FPSCR
        0x0001b69a:    d109        ..      BNE      0x1b6b0 ; ftoa + 68
        0x0001b69c:    e7ff        ..      B        0x1b69e ; ftoa + 50
        0x0001b69e:    990d        ..      LDR      r1,[sp,#0x34]
        0x0001b6a0:    f6426030    B.0`    MOV      r0,#0x2e30
        0x0001b6a4:    f2c00030    ..0.    MOVT     r0,#0x30
        0x0001b6a8:    6008        .`      STR      r0,[r1,#0]
        0x0001b6aa:    2003        .       MOVS     r0,#3
        0x0001b6ac:    900f        ..      STR      r0,[sp,#0x3c]
        0x0001b6ae:    e0f2        ..      B        0x1b896 ; ftoa + 554
        0x0001b6b0:    980d        ..      LDR      r0,[sp,#0x34]
        0x0001b6b2:    9005        ..      STR      r0,[sp,#0x14]
        0x0001b6b4:    980e        ..      LDR      r0,[sp,#0x38]
        0x0001b6b6:    900b        ..      STR      r0,[sp,#0x2c]
        0x0001b6b8:    980b        ..      LDR      r0,[sp,#0x2c]
        0x0001b6ba:    0dc1        ..      LSRS     r1,r0,#23
        0x0001b6bc:    f06f007e    o.~.    MVN      r0,#0x7e
        0x0001b6c0:    fa50f081    P...    UXTAB    r0,r0,r1
        0x0001b6c4:    900a        ..      STR      r0,[sp,#0x28]
        0x0001b6c6:    980b        ..      LDR      r0,[sp,#0x2c]
        0x0001b6c8:    f4400000    @...    ORR      r0,r0,#0x800000
        0x0001b6cc:    f020407f     ..@    BIC      r0,r0,#0xff000000
        0x0001b6d0:    9008        ..      STR      r0,[sp,#0x20]
        0x0001b6d2:    2000        .       MOVS     r0,#0
        0x0001b6d4:    9006        ..      STR      r0,[sp,#0x18]
        0x0001b6d6:    9007        ..      STR      r0,[sp,#0x1c]
        0x0001b6d8:    980a        ..      LDR      r0,[sp,#0x28]
        0x0001b6da:    281f        .(      CMP      r0,#0x1f
        0x0001b6dc:    db04        ..      BLT      0x1b6e8 ; ftoa + 124
        0x0001b6de:    e7ff        ..      B        0x1b6e0 ; ftoa + 116
        0x0001b6e0:    f06f0001    o...    MVN      r0,#1
        0x0001b6e4:    900f        ..      STR      r0,[sp,#0x3c]
        0x0001b6e6:    e0d6        ..      B        0x1b896 ; ftoa + 554
        0x0001b6e8:    980a        ..      LDR      r0,[sp,#0x28]
        0x0001b6ea:    f1100f18    ....    CMN      r0,#0x18
        0x0001b6ee:    dc04        ..      BGT      0x1b6fa ; ftoa + 142
        0x0001b6f0:    e7ff        ..      B        0x1b6f2 ; ftoa + 134
        0x0001b6f2:    f04f30ff    O..0    MOV      r0,#0xffffffff
        0x0001b6f6:    900f        ..      STR      r0,[sp,#0x3c]
        0x0001b6f8:    e0cd        ..      B        0x1b896 ; ftoa + 554
        0x0001b6fa:    980a        ..      LDR      r0,[sp,#0x28]
        0x0001b6fc:    2817        .(      CMP      r0,#0x17
        0x0001b6fe:    db06        ..      BLT      0x1b70e ; ftoa + 162
        0x0001b700:    e7ff        ..      B        0x1b702 ; ftoa + 150
        0x0001b702:    9808        ..      LDR      r0,[sp,#0x20]
        0x0001b704:    990a        ..      LDR      r1,[sp,#0x28]
        0x0001b706:    3917        .9      SUBS     r1,r1,#0x17
        0x0001b708:    4088        .@      LSLS     r0,r0,r1
        0x0001b70a:    9007        ..      STR      r0,[sp,#0x1c]
        0x0001b70c:    e01a        ..      B        0x1b744 ; ftoa + 216
        0x0001b70e:    980a        ..      LDR      r0,[sp,#0x28]
        0x0001b710:    2800        .(      CMP      r0,#0
        0x0001b712:    d40e        ..      BMI      0x1b732 ; ftoa + 198
        0x0001b714:    e7ff        ..      B        0x1b716 ; ftoa + 170
        0x0001b716:    9808        ..      LDR      r0,[sp,#0x20]
        0x0001b718:    990a        ..      LDR      r1,[sp,#0x28]
        0x0001b71a:    f1c10117    ....    RSB      r1,r1,#0x17
        0x0001b71e:    4108        .A      ASRS     r0,r0,r1
        0x0001b720:    9007        ..      STR      r0,[sp,#0x1c]
        0x0001b722:    9808        ..      LDR      r0,[sp,#0x20]
        0x0001b724:    990a        ..      LDR      r1,[sp,#0x28]
        0x0001b726:    3101        .1      ADDS     r1,#1
        0x0001b728:    4088        .@      LSLS     r0,r0,r1
        0x0001b72a:    f020407f     ..@    BIC      r0,r0,#0xff000000
        0x0001b72e:    9006        ..      STR      r0,[sp,#0x18]
        0x0001b730:    e007        ..      B        0x1b742 ; ftoa + 214
        0x0001b732:    9808        ..      LDR      r0,[sp,#0x20]
        0x0001b734:    f020407f     ..@    BIC      r0,r0,#0xff000000
        0x0001b738:    990a        ..      LDR      r1,[sp,#0x28]
        0x0001b73a:    43c9        .C      MVNS     r1,r1
        0x0001b73c:    40c8        .@      LSRS     r0,r0,r1
        0x0001b73e:    9006        ..      STR      r0,[sp,#0x18]
        0x0001b740:    e7ff        ..      B        0x1b742 ; ftoa + 214
        0x0001b742:    e7ff        ..      B        0x1b744 ; ftoa + 216
        0x0001b744:    e7ff        ..      B        0x1b746 ; ftoa + 218
        0x0001b746:    e7ff        ..      B        0x1b748 ; ftoa + 220
        0x0001b748:    980b        ..      LDR      r0,[sp,#0x2c]
        0x0001b74a:    f1b03fff    ...?    CMP      r0,#0xffffffff
        0x0001b74e:    dc06        ..      BGT      0x1b75e ; ftoa + 242
        0x0001b750:    e7ff        ..      B        0x1b752 ; ftoa + 230
        0x0001b752:    990d        ..      LDR      r1,[sp,#0x34]
        0x0001b754:    1c48        H.      ADDS     r0,r1,#1
        0x0001b756:    900d        ..      STR      r0,[sp,#0x34]
        0x0001b758:    202d        -       MOVS     r0,#0x2d
        0x0001b75a:    7008        .p      STRB     r0,[r1,#0]
        0x0001b75c:    e7ff        ..      B        0x1b75e ; ftoa + 242
        0x0001b75e:    9807        ..      LDR      r0,[sp,#0x1c]
        0x0001b760:    b930        0.      CBNZ     r0,0x1b770 ; ftoa + 260
        0x0001b762:    e7ff        ..      B        0x1b764 ; ftoa + 248
        0x0001b764:    990d        ..      LDR      r1,[sp,#0x34]
        0x0001b766:    1c48        H.      ADDS     r0,r1,#1
        0x0001b768:    900d        ..      STR      r0,[sp,#0x34]
        0x0001b76a:    2030        0       MOVS     r0,#0x30
        0x0001b76c:    7008        .p      STRB     r0,[r1,#0]
        0x0001b76e:    e01f        ..      B        0x1b7b0 ; ftoa + 324
        0x0001b770:    9807        ..      LDR      r0,[sp,#0x1c]
        0x0001b772:    2801        .(      CMP      r0,#1
        0x0001b774:    db06        ..      BLT      0x1b784 ; ftoa + 280
        0x0001b776:    e7ff        ..      B        0x1b778 ; ftoa + 268
        0x0001b778:    9807        ..      LDR      r0,[sp,#0x1c]
        0x0001b77a:    17c1        ..      ASRS     r1,r0,#31
        0x0001b77c:    9a0d        ..      LDR      r2,[sp,#0x34]
        0x0001b77e:    f000fd3b    ..;.    BL       uint64_to_str ; 0x1c1f8
        0x0001b782:    e00b        ..      B        0x1b79c ; ftoa + 304
        0x0001b784:    990d        ..      LDR      r1,[sp,#0x34]
        0x0001b786:    1c48        H.      ADDS     r0,r1,#1
        0x0001b788:    900d        ..      STR      r0,[sp,#0x34]
        0x0001b78a:    202d        -       MOVS     r0,#0x2d
        0x0001b78c:    7008        .p      STRB     r0,[r1,#0]
        0x0001b78e:    9807        ..      LDR      r0,[sp,#0x1c]
        0x0001b790:    4240        @B      RSBS     r0,r0,#0
        0x0001b792:    17c1        ..      ASRS     r1,r0,#31
        0x0001b794:    9a0d        ..      LDR      r2,[sp,#0x34]
        0x0001b796:    f000fd2f    ../.    BL       uint64_to_str ; 0x1c1f8
        0x0001b79a:    e7ff        ..      B        0x1b79c ; ftoa + 304
        0x0001b79c:    e7ff        ..      B        0x1b79e ; ftoa + 306
        0x0001b79e:    980d        ..      LDR      r0,[sp,#0x34]
        0x0001b7a0:    7800        .x      LDRB     r0,[r0,#0]
        0x0001b7a2:    b120         .      CBZ      r0,0x1b7ae ; ftoa + 322
        0x0001b7a4:    e7ff        ..      B        0x1b7a6 ; ftoa + 314
        0x0001b7a6:    980d        ..      LDR      r0,[sp,#0x34]
        0x0001b7a8:    3001        .0      ADDS     r0,#1
        0x0001b7aa:    900d        ..      STR      r0,[sp,#0x34]
        0x0001b7ac:    e7f7        ..      B        0x1b79e ; ftoa + 306
        0x0001b7ae:    e7ff        ..      B        0x1b7b0 ; ftoa + 324
        0x0001b7b0:    990d        ..      LDR      r1,[sp,#0x34]
        0x0001b7b2:    1c48        H.      ADDS     r0,r1,#1
        0x0001b7b4:    900d        ..      STR      r0,[sp,#0x34]
        0x0001b7b6:    202e        .       MOVS     r0,#0x2e
        0x0001b7b8:    7008        .p      STRB     r0,[r1,#0]
        0x0001b7ba:    9806        ..      LDR      r0,[sp,#0x18]
        0x0001b7bc:    b930        0.      CBNZ     r0,0x1b7cc ; ftoa + 352
        0x0001b7be:    e7ff        ..      B        0x1b7c0 ; ftoa + 340
        0x0001b7c0:    990d        ..      LDR      r1,[sp,#0x34]
        0x0001b7c2:    1c48        H.      ADDS     r0,r1,#1
        0x0001b7c4:    900d        ..      STR      r0,[sp,#0x34]
        0x0001b7c6:    2030        0       MOVS     r0,#0x30
        0x0001b7c8:    7008        .p      STRB     r0,[r1,#0]
        0x0001b7ca:    e05c        \.      B        0x1b886 ; ftoa + 538
        0x0001b7cc:    9909        ..      LDR      r1,[sp,#0x24]
        0x0001b7ce:    980d        ..      LDR      r0,[sp,#0x34]
        0x0001b7d0:    9a05        ..      LDR      r2,[sp,#0x14]
        0x0001b7d2:    1a80        ..      SUBS     r0,r0,r2
        0x0001b7d4:    43c0        .C      MVNS     r0,r0
        0x0001b7d6:    4408        .D      ADD      r0,r0,r1
        0x0001b7d8:    9002        ..      STR      r0,[sp,#8]
        0x0001b7da:    9802        ..      LDR      r0,[sp,#8]
        0x0001b7dc:    990c        ..      LDR      r1,[sp,#0x30]
        0x0001b7de:    4288        .B      CMP      r0,r1
        0x0001b7e0:    dd03        ..      BLE      0x1b7ea ; ftoa + 382
        0x0001b7e2:    e7ff        ..      B        0x1b7e4 ; ftoa + 376
        0x0001b7e4:    980c        ..      LDR      r0,[sp,#0x30]
        0x0001b7e6:    9001        ..      STR      r0,[sp,#4]
        0x0001b7e8:    e002        ..      B        0x1b7f0 ; ftoa + 388
        0x0001b7ea:    9802        ..      LDR      r0,[sp,#8]
        0x0001b7ec:    9001        ..      STR      r0,[sp,#4]
        0x0001b7ee:    e7ff        ..      B        0x1b7f0 ; ftoa + 388
        0x0001b7f0:    9801        ..      LDR      r0,[sp,#4]
        0x0001b7f2:    9002        ..      STR      r0,[sp,#8]
        0x0001b7f4:    2000        .       MOVS     r0,#0
        0x0001b7f6:    9003        ..      STR      r0,[sp,#0xc]
        0x0001b7f8:    e7ff        ..      B        0x1b7fa ; ftoa + 398
        0x0001b7fa:    9803        ..      LDR      r0,[sp,#0xc]
        0x0001b7fc:    9902        ..      LDR      r1,[sp,#8]
        0x0001b7fe:    4288        .B      CMP      r0,r1
        0x0001b800:    da15        ..      BGE      0x1b82e ; ftoa + 450
        0x0001b802:    e7ff        ..      B        0x1b804 ; ftoa + 408
        0x0001b804:    9806        ..      LDR      r0,[sp,#0x18]
        0x0001b806:    eb000080    ....    ADD      r0,r0,r0,LSL #2
        0x0001b80a:    0040        @.      LSLS     r0,r0,#1
        0x0001b80c:    9006        ..      STR      r0,[sp,#0x18]
        0x0001b80e:    f89d001b    ....    LDRB     r0,[sp,#0x1b]
        0x0001b812:    3030        00      ADDS     r0,r0,#0x30
        0x0001b814:    990d        ..      LDR      r1,[sp,#0x34]
        0x0001b816:    1c4a        J.      ADDS     r2,r1,#1
        0x0001b818:    920d        ..      STR      r2,[sp,#0x34]
        0x0001b81a:    7008        .p      STRB     r0,[r1,#0]
        0x0001b81c:    9806        ..      LDR      r0,[sp,#0x18]
        0x0001b81e:    f020407f     ..@    BIC      r0,r0,#0xff000000
        0x0001b822:    9006        ..      STR      r0,[sp,#0x18]
        0x0001b824:    e7ff        ..      B        0x1b826 ; ftoa + 442
        0x0001b826:    9803        ..      LDR      r0,[sp,#0xc]
        0x0001b828:    3001        .0      ADDS     r0,#1
        0x0001b82a:    9003        ..      STR      r0,[sp,#0xc]
        0x0001b82c:    e7e5        ..      B        0x1b7fa ; ftoa + 398
        0x0001b82e:    9806        ..      LDR      r0,[sp,#0x18]
        0x0001b830:    eb000080    ....    ADD      r0,r0,r0,LSL #2
        0x0001b834:    f34050c7    @..P    SBFX     r0,r0,#23,#8
        0x0001b838:    2805        .(      CMP      r0,#5
        0x0001b83a:    db23        #.      BLT      0x1b884 ; ftoa + 536
        0x0001b83c:    e7ff        ..      B        0x1b83e ; ftoa + 466
        0x0001b83e:    980d        ..      LDR      r0,[sp,#0x34]
        0x0001b840:    3801        .8      SUBS     r0,#1
        0x0001b842:    9004        ..      STR      r0,[sp,#0x10]
        0x0001b844:    e7ff        ..      B        0x1b846 ; ftoa + 474
        0x0001b846:    9804        ..      LDR      r0,[sp,#0x10]
        0x0001b848:    9905        ..      LDR      r1,[sp,#0x14]
        0x0001b84a:    4288        .B      CMP      r0,r1
        0x0001b84c:    d319        ..      BCC      0x1b882 ; ftoa + 534
        0x0001b84e:    e7ff        ..      B        0x1b850 ; ftoa + 484
        0x0001b850:    9804        ..      LDR      r0,[sp,#0x10]
        0x0001b852:    7800        .x      LDRB     r0,[r0,#0]
        0x0001b854:    282e        .(      CMP      r0,#0x2e
        0x0001b856:    d101        ..      BNE      0x1b85c ; ftoa + 496
        0x0001b858:    e7ff        ..      B        0x1b85a ; ftoa + 494
        0x0001b85a:    e00e        ..      B        0x1b87a ; ftoa + 526
        0x0001b85c:    9804        ..      LDR      r0,[sp,#0x10]
        0x0001b85e:    7800        .x      LDRB     r0,[r0,#0]
        0x0001b860:    2839        9(      CMP      r0,#0x39
        0x0001b862:    d104        ..      BNE      0x1b86e ; ftoa + 514
        0x0001b864:    e7ff        ..      B        0x1b866 ; ftoa + 506
        0x0001b866:    9904        ..      LDR      r1,[sp,#0x10]
        0x0001b868:    2030        0       MOVS     r0,#0x30
        0x0001b86a:    7008        .p      STRB     r0,[r1,#0]
        0x0001b86c:    e004        ..      B        0x1b878 ; ftoa + 524
        0x0001b86e:    9904        ..      LDR      r1,[sp,#0x10]
        0x0001b870:    7808        .x      LDRB     r0,[r1,#0]
        0x0001b872:    3001        .0      ADDS     r0,#1
        0x0001b874:    7008        .p      STRB     r0,[r1,#0]
        0x0001b876:    e004        ..      B        0x1b882 ; ftoa + 534
        0x0001b878:    e7ff        ..      B        0x1b87a ; ftoa + 526
        0x0001b87a:    9804        ..      LDR      r0,[sp,#0x10]
        0x0001b87c:    3801        .8      SUBS     r0,#1
        0x0001b87e:    9004        ..      STR      r0,[sp,#0x10]
        0x0001b880:    e7e1        ..      B        0x1b846 ; ftoa + 474
        0x0001b882:    e7ff        ..      B        0x1b884 ; ftoa + 536
        0x0001b884:    e7ff        ..      B        0x1b886 ; ftoa + 538
        0x0001b886:    990d        ..      LDR      r1,[sp,#0x34]
        0x0001b888:    2000        .       MOVS     r0,#0
        0x0001b88a:    7008        .p      STRB     r0,[r1,#0]
        0x0001b88c:    980d        ..      LDR      r0,[sp,#0x34]
        0x0001b88e:    9905        ..      LDR      r1,[sp,#0x14]
        0x0001b890:    1a40        @.      SUBS     r0,r0,r1
        0x0001b892:    900f        ..      STR      r0,[sp,#0x3c]
        0x0001b894:    e7ff        ..      B        0x1b896 ; ftoa + 554
        0x0001b896:    980f        ..      LDR      r0,[sp,#0x3c]
        0x0001b898:    b010        ..      ADD      sp,sp,#0x40
        0x0001b89a:    bd80        ..      POP      {r7,pc}
    getStackedReg
        0x0001b89c:    0080        ..      LSLS     r0,r0,#2
        0x0001b89e:    1840        @.      ADDS     r0,r0,r1
        0x0001b8a0:    6800        .h      LDR      r0,[r0,#0]
        0x0001b8a2:    4770        pG      BX       lr
    internal_timer_config
        0x0001b8a4:    b580        ..      PUSH     {r7,lr}
        0x0001b8a6:    220c        ."      MOVS     r2,#0xc
        0x0001b8a8:    f2c40202    ....    MOVT     r2,#0x4002
        0x0001b8ac:    6813        .h      LDR      r3,[r2,#0]
        0x0001b8ae:    b2db        ..      UXTB     r3,r3
        0x0001b8b0:    2b21        !+      CMP      r3,#0x21
        0x0001b8b2:    d141        A.      BNE      0x1b938 ; internal_timer_config + 148
        0x0001b8b4:    780a        .x      LDRB     r2,[r1,#0]
        0x0001b8b6:    f891e001    ....    LDRB     lr,[r1,#1]
        0x0001b8ba:    78cb        .x      LDRB     r3,[r1,#3]
        0x0001b8bc:    f891c002    ....    LDRB     r12,[r1,#2]
        0x0001b8c0:    0212        ..      LSLS     r2,r2,#8
        0x0001b8c2:    f36e1207    n...    BFI      r2,lr,#4,#4
        0x0001b8c6:    f003031f    ....    AND      r3,r3,#0x1f
        0x0001b8ca:    ea4202c3    B...    ORR      r2,r2,r3,LSL #3
        0x0001b8ce:    f00c033f    ..?.    AND      r3,r12,#0x3f
        0x0001b8d2:    ea420c83    B...    ORR      r12,r2,r3,LSL #2
        0x0001b8d6:    790b        .y      LDRB     r3,[r1,#4]
        0x0001b8d8:    688a        .h      LDR      r2,[r1,#8]
        0x0001b8da:    f0030303    ....    AND      r3,r3,#3
        0x0001b8de:    ea4c6202    L..b    ORR      r2,r12,r2,LSL #24
        0x0001b8e2:    ea424c03    B..L    ORR      r12,r2,r3,LSL #16
        0x0001b8e6:    f2482200    H.."    MOVW     r2,#0x8200
        0x0001b8ea:    0140        @.      LSLS     r0,r0,#5
        0x0001b8ec:    f2c40200    ....    MOVT     r2,#0x4000
        0x0001b8f0:    f891e005    ....    LDRB     lr,[r1,#5]
        0x0001b8f4:    5813        .X      LDR      r3,[r2,r0]
        0x0001b8f6:    ea4f2e0e    O...    LSL      lr,lr,#8
        0x0001b8fa:    f0230301    #...    BIC      r3,r3,#1
        0x0001b8fe:    5013        .P      STR      r3,[r2,r0]
        0x0001b900:    f2482310    H..#    MOV      r3,#0x8210
        0x0001b904:    f2c40300    ....    MOVT     r3,#0x4000
        0x0001b908:    f842c000    B...    STR      r12,[r2,r0]
        0x0001b90c:    f843e000    C...    STR      lr,[r3,r0]
        0x0001b910:    f8d1c00c    ....    LDR      r12,[r1,#0xc]
        0x0001b914:    f2482308    H..#    MOV      r3,#0x8208
        0x0001b918:    f2c40300    ....    MOVT     r3,#0x4000
        0x0001b91c:    f843c000    C...    STR      r12,[r3,r0]
        0x0001b920:    6909        .i      LDR      r1,[r1,#0x10]
        0x0001b922:    f248230c    H..#    MOV      r3,#0x820c
        0x0001b926:    f2c40300    ....    MOVT     r3,#0x4000
        0x0001b92a:    5019        .P      STR      r1,[r3,r0]
        0x0001b92c:    5811        .X      LDR      r1,[r2,r0]
        0x0001b92e:    f0410102    A...    ORR      r1,r1,#2
        0x0001b932:    5011        .P      STR      r1,[r2,r0]
        0x0001b934:    2000        .       MOVS     r0,#0
        0x0001b936:    bd80        ..      POP      {r7,pc}
        0x0001b938:    6812        .h      LDR      r2,[r2,#0]
        0x0001b93a:    f00202fe    ....    AND      r2,r2,#0xfe
        0x0001b93e:    2a22        "*      CMP      r2,#0x22
        0x0001b940:    bf3c        <.      ITT      CC
        0x0001b942:    2001        .       MOVCC    r0,#1
        0x0001b944:    bd80        ..      POPCC    {r7,pc}
        0x0001b946:    280f        .(      CMP      r0,#0xf
        0x0001b948:    d80f        ..      BHI      0x1b96a ; internal_timer_config + 198
        0x0001b94a:    2201        ."      MOVS     r2,#1
        0x0001b94c:    4082        .@      LSLS     r2,r2,r0
        0x0001b94e:    f64d430a    M..C    MOV      r3,#0xdc0a
        0x0001b952:    421a        .B      TST      r2,r3
        0x0001b954:    bf1c        ..      ITT      NE
        0x0001b956:    2006        .       MOVNE    r0,#6
        0x0001b958:    bd80        ..      POPNE    {r7,pc}
        0x0001b95a:    f24233a0    B..3    MOV      r3,#0x23a0
        0x0001b95e:    421a        .B      TST      r2,r3
        0x0001b960:    d003        ..      BEQ      0x1b96a ; internal_timer_config + 198
        0x0001b962:    790a        .y      LDRB     r2,[r1,#4]
        0x0001b964:    b10a        ..      CBZ      r2,0x1b96a ; internal_timer_config + 198
        0x0001b966:    2007        .       MOVS     r0,#7
        0x0001b968:    bd80        ..      POP      {r7,pc}
        0x0001b96a:    e8bd4080    ...@    POP      {r7,lr}
        0x0001b96e:    f000bb2f    ../.    B.W      timer_config_b1 ; 0x1bfd0
        0x0001b972:    0000        ..      MOVS     r0,r0
    main
        0x0001b974:    b580        ..      PUSH     {r7,lr}
        0x0001b976:    b0a8        ..      SUB      sp,sp,#0xa0
        0x0001b978:    2000        .       MOVS     r0,#0
        0x0001b97a:    9012        ..      STR      r0,[sp,#0x48]
        0x0001b97c:    9027        '.      STR      r0,[sp,#0x9c]
        0x0001b97e:    f24510ec    E...    MOV      r0,#0x51ec
        0x0001b982:    f6c37098    ...p    MOVT     r0,#0x3f98
        0x0001b986:    9023        #.      STR      r0,[sp,#0x8c]
        0x0001b988:    2001        .       MOVS     r0,#1
        0x0001b98a:    900b        ..      STR      r0,[sp,#0x2c]
        0x0001b98c:    9018        ..      STR      r0,[sp,#0x60]
        0x0001b98e:    f24c4092    L..@    MOV      r0,#0xc492
        0x0001b992:    f2c00001    ....    MOVT     r0,#1
        0x0001b996:    f7fdfca7    ....    BL       am_hal_cachectrl_config ; 0x192e8
        0x0001b99a:    f7fdfcc7    ....    BL       am_hal_cachectrl_enable ; 0x1932c
        0x0001b99e:    f7fcff89    ....    BL       am_bsp_low_power_init ; 0x188b4
        0x0001b9a2:    f2400000    @...    MOVW     r0,#0
        0x0001b9a6:    f2c10000    ....    MOVT     r0,#0x1000
        0x0001b9aa:    2103        .!      MOVS     r1,#3
        0x0001b9ac:    f7fcff8e    ....    BL       am_devices_led_array_init ; 0x188cc
        0x0001b9b0:    f2400028    @.(.    MOVW     r0,#0x28
        0x0001b9b4:    f2c10000    ....    MOVT     r0,#0x1000
        0x0001b9b8:    6801        .h      LDR      r1,[r0,#0]
        0x0001b9ba:    2012        .       MOVS     r0,#0x12
        0x0001b9bc:    f7fdfeee    ....    BL       am_hal_gpio_pinconfig ; 0x1979c
        0x0001b9c0:    f7fcff3a    ..:.    BL       am_bsp_itm_printf_enable ; 0x18838
        0x0001b9c4:    f7fff944    ..D.    BL       am_util_stdio_terminal_clear ; 0x1ac50
        0x0001b9c8:    f64c00b8    L...    MOV      r0,#0xc8b8
        0x0001b9cc:    f2c00001    ....    MOVT     r0,#1
        0x0001b9d0:    f7fff906    ....    BL       am_util_stdio_printf ; 0x1abe0
        0x0001b9d4:    f7fefd34    ..4.    BL       am_hal_sysctrl_fpu_enable ; 0x1a440
        0x0001b9d8:    980b        ..      LDR      r0,[sp,#0x2c]
        0x0001b9da:    f7fefd39    ..9.    BL       am_hal_sysctrl_fpu_stacking_enable ; 0x1a450
        0x0001b9de:    f7fcfdff    ....    BL       adc_init ; 0x185e0
        0x0001b9e2:    2013        .       MOVS     r0,#0x13
        0x0001b9e4:    9011        ..      STR      r0,[sp,#0x44]
        0x0001b9e6:    2104        .!      MOVS     r1,#4
        0x0001b9e8:    f7fcfdd8    ....    BL       __NVIC_SetPriority ; 0x1859c
        0x0001b9ec:    9811        ..      LDR      r0,[sp,#0x44]
        0x0001b9ee:    f7fcfdbd    ....    BL       __NVIC_EnableIRQ ; 0x1856c
        0x0001b9f2:    f7fdff95    ....    BL       am_hal_interrupt_master_enable ; 0x19920
        0x0001b9f6:    f64c2030    L.0     MOV      r0,#0xca30
        0x0001b9fa:    f2c00001    ....    MOVT     r0,#1
        0x0001b9fe:    9010        ..      STR      r0,[sp,#0x40]
        0x0001ba00:    f7fff8ee    ....    BL       am_util_stdio_printf ; 0x1abe0
        0x0001ba04:    f64c10c3    L...    MOV      r0,#0xc9c3
        0x0001ba08:    f2c00001    ....    MOVT     r0,#1
        0x0001ba0c:    f2480100    H...    MOVW     r1,#0x8000
        0x0001ba10:    f2c40103    ....    MOVT     r1,#0x4003
        0x0001ba14:    910c        ..      STR      r1,[sp,#0x30]
        0x0001ba16:    f7fff8e3    ....    BL       am_util_stdio_printf ; 0x1abe0
        0x0001ba1a:    980c        ..      LDR      r0,[sp,#0x30]
        0x0001ba1c:    6801        .h      LDR      r1,[r0,#0]
        0x0001ba1e:    f64c100f    L...    MOV      r0,#0xc90f
        0x0001ba22:    f2c00001    ....    MOVT     r0,#1
        0x0001ba26:    f7fff8db    ....    BL       am_util_stdio_printf ; 0x1abe0
        0x0001ba2a:    f248000c    H...    MOV      r0,#0x800c
        0x0001ba2e:    f2c40003    ....    MOVT     r0,#0x4003
        0x0001ba32:    6801        .h      LDR      r1,[r0,#0]
        0x0001ba34:    f64c1023    L.#.    MOV      r0,#0xc923
        0x0001ba38:    f2c00001    ....    MOVT     r0,#1
        0x0001ba3c:    f7fff8d0    ....    BL       am_util_stdio_printf ; 0x1abe0
        0x0001ba40:    f2480010    H...    MOV      r0,#0x8010
        0x0001ba44:    f2c40003    ....    MOVT     r0,#0x4003
        0x0001ba48:    6801        .h      LDR      r1,[r0,#0]
        0x0001ba4a:    f64c1037    L.7.    MOV      r0,#0xc937
        0x0001ba4e:    f2c00001    ....    MOVT     r0,#1
        0x0001ba52:    f7fff8c5    ....    BL       am_util_stdio_printf ; 0x1abe0
        0x0001ba56:    f2480014    H...    MOV      r0,#0x8014
        0x0001ba5a:    f2c40003    ....    MOVT     r0,#0x4003
        0x0001ba5e:    6801        .h      LDR      r1,[r0,#0]
        0x0001ba60:    f64c104b    L.K.    MOV      r0,#0xc94b
        0x0001ba64:    f2c00001    ....    MOVT     r0,#1
        0x0001ba68:    f7fff8ba    ....    BL       am_util_stdio_printf ; 0x1abe0
        0x0001ba6c:    f2480018    H...    MOV      r0,#0x8018
        0x0001ba70:    f2c40003    ....    MOVT     r0,#0x4003
        0x0001ba74:    6801        .h      LDR      r1,[r0,#0]
        0x0001ba76:    f64c105f    L._.    MOV      r0,#0xc95f
        0x0001ba7a:    f2c00001    ....    MOVT     r0,#1
        0x0001ba7e:    f7fff8af    ....    BL       am_util_stdio_printf ; 0x1abe0
        0x0001ba82:    f248001c    H...    MOV      r0,#0x801c
        0x0001ba86:    f2c40003    ....    MOVT     r0,#0x4003
        0x0001ba8a:    6801        .h      LDR      r1,[r0,#0]
        0x0001ba8c:    f64c1073    L.s.    MOV      r0,#0xc973
        0x0001ba90:    f2c00001    ....    MOVT     r0,#1
        0x0001ba94:    f7fff8a4    ....    BL       am_util_stdio_printf ; 0x1abe0
        0x0001ba98:    f2480020    H. .    MOV      r0,#0x8020
        0x0001ba9c:    f2c40003    ....    MOVT     r0,#0x4003
        0x0001baa0:    6801        .h      LDR      r1,[r0,#0]
        0x0001baa2:    f64c1087    L...    MOV      r0,#0xc987
        0x0001baa6:    f2c00001    ....    MOVT     r0,#1
        0x0001baaa:    f7fff899    ....    BL       am_util_stdio_printf ; 0x1abe0
        0x0001baae:    f2480024    H.$.    MOV      r0,#0x8024
        0x0001bab2:    f2c40003    ....    MOVT     r0,#0x4003
        0x0001bab6:    6801        .h      LDR      r1,[r0,#0]
        0x0001bab8:    f64c109b    L...    MOV      r0,#0xc99b
        0x0001babc:    f2c00001    ....    MOVT     r0,#1
        0x0001bac0:    f7fff88e    ....    BL       am_util_stdio_printf ; 0x1abe0
        0x0001bac4:    f2480028    H.(.    MOV      r0,#0x8028
        0x0001bac8:    f2c40003    ....    MOVT     r0,#0x4003
        0x0001bacc:    6801        .h      LDR      r1,[r0,#0]
        0x0001bace:    f64c10af    L...    MOV      r0,#0xc9af
        0x0001bad2:    f2c00001    ....    MOVT     r0,#1
        0x0001bad6:    f7fff883    ....    BL       am_util_stdio_printf ; 0x1abe0
        0x0001bada:    9812        ..      LDR      r0,[sp,#0x48]
        0x0001badc:    901e        ..      STR      r0,[sp,#0x78]
        0x0001bade:    901d        ..      STR      r0,[sp,#0x74]
        0x0001bae0:    901c        ..      STR      r0,[sp,#0x70]
        0x0001bae2:    f64e1079    N.y.    MOV      r0,#0xe979
        0x0001bae6:    f2cc20f6    ...     MOVT     r0,#0xc2f6
        0x0001baea:    901f        ..      STR      r0,[sp,#0x7c]
        0x0001baec:    f24040a0    @..@    MOVW     r0,#0x4a0
        0x0001baf0:    f2c10000    ....    MOVT     r0,#0x1000
        0x0001baf4:    9013        ..      STR      r0,[sp,#0x4c]
        0x0001baf6:    6800        .h      LDR      r0,[r0,#0]
        0x0001baf8:    2102        .!      MOVS     r1,#2
        0x0001bafa:    aa1c        ..      ADD      r2,sp,#0x70
        0x0001bafc:    f7fdf8dc    ....    BL       am_hal_adc_control ; 0x18cb8
        0x0001bb00:    9810        ..      LDR      r0,[sp,#0x40]
        0x0001bb02:    991f        ..      LDR      r1,[sp,#0x7c]
        0x0001bb04:    2900        .)      CMP      r1,#0
        0x0001bb06:    bf18        ..      IT       NE
        0x0001bb08:    2101        .!      MOVNE    r1,#1
        0x0001bb0a:    f88d109b    ....    STRB     r1,[sp,#0x9b]
        0x0001bb0e:    f7fff867    ..g.    BL       am_util_stdio_printf ; 0x1abe0
        0x0001bb12:    ed9d0a1c    ....    VLDR     s0,[sp,#0x70]
        0x0001bb16:    ed8d0a0d    ....    VSTR     s0,[sp,#0x34]
        0x0001bb1a:    ee100a10    ....    VMOV     r0,s0
        0x0001bb1e:    f000fc35    ..5.    BL       __aeabi_f2d ; 0x1c38c
        0x0001bb22:    ed9d0a0d    ....    VLDR     s0,[sp,#0x34]
        0x0001bb26:    ec410b11    A...    VMOV     d1,r0,r1
        0x0001bb2a:    ed8d1b0e    ....    VSTR     d1,[sp,#0x38]
        0x0001bb2e:    ed9f1ab0    ....    VLDR     s2,[pc,#704] ; [0x1bdf0] = 0xc3889333
        0x0001bb32:    ee300a01    0...    VADD.F32 s0,s0,s2
        0x0001bb36:    ee100a10    ....    VMOV     r0,s0
        0x0001bb3a:    f000fc27    ..'.    BL       __aeabi_f2d ; 0x1c38c
        0x0001bb3e:    ed9d0b0e    ....    VLDR     d0,[sp,#0x38]
        0x0001bb42:    ec410b11    A...    VMOV     d1,r0,r1
        0x0001bb46:    4668        hF      MOV      r0,sp
        0x0001bb48:    ed801b00    ....    VSTR     d1,[r0,#0]
        0x0001bb4c:    ec532b10    S..+    VMOV     r2,r3,d0
        0x0001bb50:    f24c7084    L..p    MOV      r0,#0xc784
        0x0001bb54:    f2c00001    ....    MOVT     r0,#1
        0x0001bb58:    f7fff842    ..B.    BL       am_util_stdio_printf ; 0x1abe0
        0x0001bb5c:    981d        ..      LDR      r0,[sp,#0x74]
        0x0001bb5e:    f000fc15    ....    BL       __aeabi_f2d ; 0x1c38c
        0x0001bb62:    ec410b10    A...    VMOV     d0,r0,r1
        0x0001bb66:    ec532b10    S..+    VMOV     r2,r3,d0
        0x0001bb6a:    f64c201a    L..     MOV      r0,#0xca1a
        0x0001bb6e:    f2c00001    ....    MOVT     r0,#1
        0x0001bb72:    f7fff835    ..5.    BL       am_util_stdio_printf ; 0x1abe0
        0x0001bb76:    981e        ..      LDR      r0,[sp,#0x78]
        0x0001bb78:    f000fc08    ....    BL       __aeabi_f2d ; 0x1c38c
        0x0001bb7c:    ec410b10    A...    VMOV     d0,r0,r1
        0x0001bb80:    ec532b10    S..+    VMOV     r2,r3,d0
        0x0001bb84:    f64c2002    L..     MOV      r0,#0xca02
        0x0001bb88:    f2c00001    ....    MOVT     r0,#1
        0x0001bb8c:    f7fff828    ..(.    BL       am_util_stdio_printf ; 0x1abe0
        0x0001bb90:    f89d009b    ....    LDRB     r0,[sp,#0x9b]
        0x0001bb94:    07c2        ..      LSLS     r2,r0,#31
        0x0001bb96:    f64c206c    L.l     MOV      r0,#0xca6c
        0x0001bb9a:    f2c00001    ....    MOVT     r0,#1
        0x0001bb9e:    f64c2177    L.w!    MOV      r1,#0xca77
        0x0001bba2:    f2c00101    ....    MOVT     r1,#1
        0x0001bba6:    2a00        .*      CMP      r2,#0
        0x0001bba8:    bf18        ..      IT       NE
        0x0001bbaa:    4601        .F      MOVNE    r1,r0
        0x0001bbac:    f64c00e4    L...    MOV      r0,#0xc8e4
        0x0001bbb0:    f2c00001    ....    MOVT     r0,#1
        0x0001bbb4:    f7fff814    ....    BL       am_util_stdio_printf ; 0x1abe0
        0x0001bbb8:    9810        ..      LDR      r0,[sp,#0x40]
        0x0001bbba:    f7fff811    ....    BL       am_util_stdio_printf ; 0x1abe0
        0x0001bbbe:    9811        ..      LDR      r0,[sp,#0x44]
        0x0001bbc0:    f7fcfcd4    ....    BL       __NVIC_EnableIRQ ; 0x1856c
        0x0001bbc4:    f7fdfeac    ....    BL       am_hal_interrupt_master_enable ; 0x19920
        0x0001bbc8:    9813        ..      LDR      r0,[sp,#0x4c]
        0x0001bbca:    6800        .h      LDR      r0,[r0,#0]
        0x0001bbcc:    2108        .!      MOVS     r1,#8
        0x0001bbce:    f7fdf9e1    ....    BL       am_hal_adc_interrupt_enable ; 0x18f94
        0x0001bbd2:    9912        ..      LDR      r1,[sp,#0x48]
        0x0001bbd4:    9813        ..      LDR      r0,[sp,#0x4c]
        0x0001bbd6:    f6401250    @.P.    MOVW     r2,#0x950
        0x0001bbda:    f2c10200    ....    MOVT     r2,#0x1000
        0x0001bbde:    9214        ..      STR      r2,[sp,#0x50]
        0x0001bbe0:    6011        .`      STR      r1,[r2,#0]
        0x0001bbe2:    6800        .h      LDR      r0,[r0,#0]
        0x0001bbe4:    f7fdfb6c    ..l.    BL       am_hal_adc_sw_trigger ; 0x192c0
        0x0001bbe8:    9814        ..      LDR      r0,[sp,#0x50]
        0x0001bbea:    6800        .h      LDR      r0,[r0,#0]
        0x0001bbec:    9024        $.      STR      r0,[sp,#0x90]
        0x0001bbee:    e7ff        ..      B        0x1bbf0 ; main + 636
        0x0001bbf0:    9818        ..      LDR      r0,[sp,#0x60]
        0x0001bbf2:    b130        0.      CBZ      r0,0x1bc02 ; main + 654
        0x0001bbf4:    e7ff        ..      B        0x1bbf6 ; main + 642
        0x0001bbf6:    2012        .       MOVS     r0,#0x12
        0x0001bbf8:    2100        .!      MOVS     r1,#0
        0x0001bbfa:    aa18        ..      ADD      r2,sp,#0x60
        0x0001bbfc:    f7fdfdfc    ....    BL       am_hal_gpio_state_read ; 0x197f8
        0x0001bc00:    e7ff        ..      B        0x1bc02 ; main + 654
        0x0001bc02:    f6401050    @.P.    MOVW     r0,#0x950
        0x0001bc06:    f2c10000    ....    MOVT     r0,#0x1000
        0x0001bc0a:    6800        .h      LDR      r0,[r0,#0]
        0x0001bc0c:    9924        $.      LDR      r1,[sp,#0x90]
        0x0001bc0e:    f60131b8    ...1    ADD      r1,r1,#0xbb8
        0x0001bc12:    4288        .B      CMP      r0,r1
        0x0001bc14:    f24080d7    @...    BLS.W    0x1bdc6 ; main + 1106
        0x0001bc18:    e7ff        ..      B        0x1bc1a ; main + 678
        0x0001bc1a:    f6401050    @.P.    MOVW     r0,#0x950
        0x0001bc1e:    f2c10000    ....    MOVT     r0,#0x1000
        0x0001bc22:    6800        .h      LDR      r0,[r0,#0]
        0x0001bc24:    9024        $.      STR      r0,[sp,#0x90]
        0x0001bc26:    f640104e    @.N.    MOV      r0,#0x94e
        0x0001bc2a:    f2c10000    ....    MOVT     r0,#0x1000
        0x0001bc2e:    8801        ..      LDRH     r1,[r0,#0]
        0x0001bc30:    ee001a10    ....    VMOV     s0,r1
        0x0001bc34:    eeb80a40    ..@.    VCVT.F32.U32 s0,s0
        0x0001bc38:    ed9f1a6e    ..n.    VLDR     s2,[pc,#440] ; [0x1bdf4] = 0x3f9851ec
        0x0001bc3c:    ed8d1a0a    ....    VSTR     s2,[sp,#0x28]
        0x0001bc40:    ee200a01     ...    VMUL.F32 s0,s0,s2
        0x0001bc44:    ed9f1a6c    ..l.    VLDR     s2,[pc,#432] ; [0x1bdf8] = 0x45800000
        0x0001bc48:    ee800a01    ....    VDIV.F32 s0,s0,s2
        0x0001bc4c:    ed8d0a22    ..".    VSTR     s0,[sp,#0x88]
        0x0001bc50:    8800        ..      LDRH     r0,[r0,#0]
        0x0001bc52:    9009        ..      STR      r0,[sp,#0x24]
        0x0001bc54:    9822        ".      LDR      r0,[sp,#0x88]
        0x0001bc56:    f000fb99    ....    BL       __aeabi_f2d ; 0x1c38c
        0x0001bc5a:    460a        .F      MOV      r2,r1
        0x0001bc5c:    9909        ..      LDR      r1,[sp,#0x24]
        0x0001bc5e:    ec420b10    B...    VMOV     d0,r0,r2
        0x0001bc62:    ec532b10    S..+    VMOV     r2,r3,d0
        0x0001bc66:    f64c2054    L.T     MOV      r0,#0xca54
        0x0001bc6a:    f2c00001    ....    MOVT     r0,#1
        0x0001bc6e:    f7feffb7    ....    BL       am_util_stdio_printf ; 0x1abe0
        0x0001bc72:    ed9d1a0a    ....    VLDR     s2,[sp,#0x28]
        0x0001bc76:    f640104c    @.L.    MOV      r0,#0x94c
        0x0001bc7a:    f2c10000    ....    MOVT     r0,#0x1000
        0x0001bc7e:    8800        ..      LDRH     r0,[r0,#0]
        0x0001bc80:    ee000a10    ....    VMOV     s0,r0
        0x0001bc84:    eeb80a40    ..@.    VCVT.F32.U32 s0,s0
        0x0001bc88:    ee200a01     ...    VMUL.F32 s0,s0,s2
        0x0001bc8c:    ed9f1a5b    ..[.    VLDR     s2,[pc,#364] ; [0x1bdfc] = 0x44800000
        0x0001bc90:    ee800a01    ....    VDIV.F32 s0,s0,s2
        0x0001bc94:    ed8d0a21    ..!.    VSTR     s0,[sp,#0x84]
        0x0001bc98:    9821        !.      LDR      r0,[sp,#0x84]
        0x0001bc9a:    9015        ..      STR      r0,[sp,#0x54]
        0x0001bc9c:    2000        .       MOVS     r0,#0
        0x0001bc9e:    9016        ..      STR      r0,[sp,#0x58]
        0x0001bca0:    f64e1079    N.y.    MOV      r0,#0xe979
        0x0001bca4:    f2cc20f6    ...     MOVT     r0,#0xc2f6
        0x0001bca8:    9017        ..      STR      r0,[sp,#0x5c]
        0x0001bcaa:    f24040a0    @..@    MOVW     r0,#0x4a0
        0x0001bcae:    f2c10000    ....    MOVT     r0,#0x1000
        0x0001bcb2:    6800        .h      LDR      r0,[r0,#0]
        0x0001bcb4:    2101        .!      MOVS     r1,#1
        0x0001bcb6:    aa15        ..      ADD      r2,sp,#0x54
        0x0001bcb8:    f7fcfffe    ....    BL       am_hal_adc_control ; 0x18cb8
        0x0001bcbc:    901b        ..      STR      r0,[sp,#0x6c]
        0x0001bcbe:    981b        ..      LDR      r0,[sp,#0x6c]
        0x0001bcc0:    bb80        ..      CBNZ     r0,0x1bd24 ; main + 944
        0x0001bcc2:    e7ff        ..      B        0x1bcc4 ; main + 848
        0x0001bcc4:    9816        ..      LDR      r0,[sp,#0x58]
        0x0001bcc6:    9020         .      STR      r0,[sp,#0x80]
        0x0001bcc8:    ed9d0a20    .. .    VLDR     s0,[sp,#0x80]
        0x0001bccc:    ed9f1a4c    ..L.    VLDR     s2,[pc,#304] ; [0x1be00] = 0x3fe66666
        0x0001bcd0:    ee200a01     ...    VMUL.F32 s0,s0,s2
        0x0001bcd4:    ed9f1a4b    ..K.    VLDR     s2,[pc,#300] ; [0x1be04] = 0x42000000
        0x0001bcd8:    ee300a01    0...    VADD.F32 s0,s0,s2
        0x0001bcdc:    ed8d0a25    ..%.    VSTR     s0,[sp,#0x94]
        0x0001bce0:    f640104c    @.L.    MOV      r0,#0x94c
        0x0001bce4:    f2c10000    ....    MOVT     r0,#0x1000
        0x0001bce8:    8800        ..      LDRH     r0,[r0,#0]
        0x0001bcea:    9008        ..      STR      r0,[sp,#0x20]
        0x0001bcec:    9820         .      LDR      r0,[sp,#0x80]
        0x0001bcee:    f000fb4d    ..M.    BL       __aeabi_f2d ; 0x1c38c
        0x0001bcf2:    ec410b10    A...    VMOV     d0,r0,r1
        0x0001bcf6:    ed8d0b06    ....    VSTR     d0,[sp,#0x18]
        0x0001bcfa:    9825        %.      LDR      r0,[sp,#0x94]
        0x0001bcfc:    f000fb46    ..F.    BL       __aeabi_f2d ; 0x1c38c
        0x0001bd00:    ed9d0b06    ....    VLDR     d0,[sp,#0x18]
        0x0001bd04:    460a        .F      MOV      r2,r1
        0x0001bd06:    9908        ..      LDR      r1,[sp,#0x20]
        0x0001bd08:    ec420b11    B...    VMOV     d1,r0,r2
        0x0001bd0c:    4668        hF      MOV      r0,sp
        0x0001bd0e:    ed801b00    ....    VSTR     d1,[r0,#0]
        0x0001bd12:    ec532b10    S..+    VMOV     r2,r3,d0
        0x0001bd16:    f64c2032    L.2     MOV      r0,#0xca32
        0x0001bd1a:    f2c00001    ....    MOVT     r0,#1
        0x0001bd1e:    f7feff5f    .._.    BL       am_util_stdio_printf ; 0x1abe0
        0x0001bd22:    e007        ..      B        0x1bd34 ; main + 960
        0x0001bd24:    991b        ..      LDR      r1,[sp,#0x6c]
        0x0001bd26:    f64c10db    L...    MOV      r0,#0xc9db
        0x0001bd2a:    f2c00001    ....    MOVT     r0,#1
        0x0001bd2e:    f7feff57    ..W.    BL       am_util_stdio_printf ; 0x1abe0
        0x0001bd32:    e7ff        ..      B        0x1bd34 ; main + 960
        0x0001bd34:    f64c2030    L.0     MOV      r0,#0xca30
        0x0001bd38:    f2c00001    ....    MOVT     r0,#1
        0x0001bd3c:    f7feff50    ..P.    BL       am_util_stdio_printf ; 0x1abe0
        0x0001bd40:    9818        ..      LDR      r0,[sp,#0x60]
        0x0001bd42:    bba8        ..      CBNZ     r0,0x1bdb0 ; main + 1084
        0x0001bd44:    e7ff        ..      B        0x1bd46 ; main + 978
        0x0001bd46:    a819        ..      ADD      r0,sp,#0x64
        0x0001bd48:    f7fdfe31    ..1.    BL       am_hal_mcuctrl_status_get ; 0x199ae
        0x0001bd4c:    f89d0066    ..f.    LDRB     r0,[sp,#0x66]
        0x0001bd50:    07c0        ..      LSLS     r0,r0,#31
        0x0001bd52:    b1b0        ..      CBZ      r0,0x1bd82 ; main + 1038
        0x0001bd54:    e7ff        ..      B        0x1bd56 ; main + 994
        0x0001bd56:    f24c70a7    L..p    MOV      r0,#0xc7a7
        0x0001bd5a:    f2c00001    ....    MOVT     r0,#1
        0x0001bd5e:    f7feff3f    ..?.    BL       am_util_stdio_printf ; 0x1abe0
        0x0001bd62:    f2401110    @...    MOVW     r1,#0x110
        0x0001bd66:    f2c40102    ....    MOVT     r1,#0x4002
        0x0001bd6a:    6808        .h      LDR      r0,[r1,#0]
        0x0001bd6c:    f0200001     ...    BIC      r0,r0,#1
        0x0001bd70:    6008        .`      STR      r0,[r1,#0]
        0x0001bd72:    f2400000    @...    MOVW     r0,#0
        0x0001bd76:    f2c10000    ....    MOVT     r0,#0x1000
        0x0001bd7a:    2102        .!      MOVS     r1,#2
        0x0001bd7c:    f7fcfe6c    ..l.    BL       am_devices_led_on ; 0x18a58
        0x0001bd80:    e015        ..      B        0x1bdae ; main + 1082
        0x0001bd82:    f24c70d8    L..p    MOV      r0,#0xc7d8
        0x0001bd86:    f2c00001    ....    MOVT     r0,#1
        0x0001bd8a:    f7feff29    ..).    BL       am_util_stdio_printf ; 0x1abe0
        0x0001bd8e:    f2401110    @...    MOVW     r1,#0x110
        0x0001bd92:    f2c40102    ....    MOVT     r1,#0x4002
        0x0001bd96:    6808        .h      LDR      r0,[r1,#0]
        0x0001bd98:    f0400001    @...    ORR      r0,r0,#1
        0x0001bd9c:    6008        .`      STR      r0,[r1,#0]
        0x0001bd9e:    f2400000    @...    MOVW     r0,#0
        0x0001bda2:    f2c10000    ....    MOVT     r0,#0x1000
        0x0001bda6:    2102        .!      MOVS     r1,#2
        0x0001bda8:    f7fcfe10    ....    BL       am_devices_led_off ; 0x189cc
        0x0001bdac:    e7ff        ..      B        0x1bdae ; main + 1082
        0x0001bdae:    e7ff        ..      B        0x1bdb0 ; main + 1084
        0x0001bdb0:    e7ff        ..      B        0x1bdb2 ; main + 1086
        0x0001bdb2:    9818        ..      LDR      r0,[sp,#0x60]
        0x0001bdb4:    b930        0.      CBNZ     r0,0x1bdc4 ; main + 1104
        0x0001bdb6:    e7ff        ..      B        0x1bdb8 ; main + 1092
        0x0001bdb8:    2012        .       MOVS     r0,#0x12
        0x0001bdba:    2100        .!      MOVS     r1,#0
        0x0001bdbc:    aa18        ..      ADD      r2,sp,#0x60
        0x0001bdbe:    f7fdfd1b    ....    BL       am_hal_gpio_state_read ; 0x197f8
        0x0001bdc2:    e7f6        ..      B        0x1bdb2 ; main + 1086
        0x0001bdc4:    e7ff        ..      B        0x1bdc6 ; main + 1106
        0x0001bdc6:    f2400000    @...    MOVW     r0,#0
        0x0001bdca:    f2c10000    ....    MOVT     r0,#0x1000
        0x0001bdce:    9003        ..      STR      r0,[sp,#0xc]
        0x0001bdd0:    2100        .!      MOVS     r1,#0
        0x0001bdd2:    9104        ..      STR      r1,[sp,#0x10]
        0x0001bdd4:    f7fcfdfa    ....    BL       am_devices_led_off ; 0x189cc
        0x0001bdd8:    2001        .       MOVS     r0,#1
        0x0001bdda:    9005        ..      STR      r0,[sp,#0x14]
        0x0001bddc:    f7fefb54    ..T.    BL       am_hal_sysctrl_sleep ; 0x1a488
        0x0001bde0:    9803        ..      LDR      r0,[sp,#0xc]
        0x0001bde2:    9904        ..      LDR      r1,[sp,#0x10]
        0x0001bde4:    f7fcfe38    ..8.    BL       am_devices_led_on ; 0x18a58
        0x0001bde8:    9805        ..      LDR      r0,[sp,#0x14]
        0x0001bdea:    f7fefb4d    ..M.    BL       am_hal_sysctrl_sleep ; 0x1a488
        0x0001bdee:    e6ff        ..      B        0x1bbf0 ; main + 636
    $d.3
        0x0001bdf0:    c3889333    3...    DCD    3280507699
        0x0001bdf4:    3f9851ec    .Q.?    DCD    1066947052
        0x0001bdf8:    45800000    ...E    DCD    1166016512
        0x0001bdfc:    44800000    ...D    DCD    1149239296
        0x0001be00:    3fe66666    ff.?    DCD    1072064102
        0x0001be04:    42000000    ...B    DCD    1107296256
    $t.9
    ndigits_in_hex
        0x0001be08:    b084        ..      SUB      sp,sp,#0x10
        0x0001be0a:    9103        ..      STR      r1,[sp,#0xc]
        0x0001be0c:    9002        ..      STR      r0,[sp,#8]
        0x0001be0e:    9802        ..      LDR      r0,[sp,#8]
        0x0001be10:    9903        ..      LDR      r1,[sp,#0xc]
        0x0001be12:    4308        .C      ORRS     r0,r0,r1
        0x0001be14:    fab0f080    ....    CLZ      r0,r0
        0x0001be18:    0940        @.      LSRS     r0,r0,#5
        0x0001be1a:    9001        ..      STR      r0,[sp,#4]
        0x0001be1c:    e7ff        ..      B        0x1be1e ; ndigits_in_hex + 22
        0x0001be1e:    9802        ..      LDR      r0,[sp,#8]
        0x0001be20:    9903        ..      LDR      r1,[sp,#0xc]
        0x0001be22:    4308        .C      ORRS     r0,r0,r1
        0x0001be24:    b160        `.      CBZ      r0,0x1be40 ; ndigits_in_hex + 56
        0x0001be26:    e7ff        ..      B        0x1be28 ; ndigits_in_hex + 32
        0x0001be28:    9802        ..      LDR      r0,[sp,#8]
        0x0001be2a:    9903        ..      LDR      r1,[sp,#0xc]
        0x0001be2c:    0900        ..      LSRS     r0,r0,#4
        0x0001be2e:    ea407001    @..p    ORR      r0,r0,r1,LSL #28
        0x0001be32:    0909        ..      LSRS     r1,r1,#4
        0x0001be34:    9103        ..      STR      r1,[sp,#0xc]
        0x0001be36:    9002        ..      STR      r0,[sp,#8]
        0x0001be38:    9801        ..      LDR      r0,[sp,#4]
        0x0001be3a:    3001        .0      ADDS     r0,#1
        0x0001be3c:    9001        ..      STR      r0,[sp,#4]
        0x0001be3e:    e7ee        ..      B        0x1be1e ; ndigits_in_hex + 22
        0x0001be40:    9801        ..      LDR      r0,[sp,#4]
        0x0001be42:    b004        ..      ADD      sp,sp,#0x10
        0x0001be44:    4770        pG      BX       lr
        0x0001be46:    0000        ..      MOVS     r0,r0
    ndigits_in_i64
        0x0001be48:    b580        ..      PUSH     {r7,lr}
        0x0001be4a:    b082        ..      SUB      sp,sp,#8
        0x0001be4c:    9101        ..      STR      r1,[sp,#4]
        0x0001be4e:    9000        ..      STR      r0,[sp,#0]
        0x0001be50:    9801        ..      LDR      r0,[sp,#4]
        0x0001be52:    f1b03fff    ...?    CMP      r0,#0xffffffff
        0x0001be56:    dc09        ..      BGT      0x1be6c ; ndigits_in_i64 + 36
        0x0001be58:    e7ff        ..      B        0x1be5a ; ndigits_in_i64 + 18
        0x0001be5a:    9800        ..      LDR      r0,[sp,#0]
        0x0001be5c:    9a01        ..      LDR      r2,[sp,#4]
        0x0001be5e:    4241        AB      RSBS     r1,r0,#0
        0x0001be60:    f04f0000    O...    MOV      r0,#0
        0x0001be64:    4190        .A      SBCS     r0,r0,r2
        0x0001be66:    9100        ..      STR      r1,[sp,#0]
        0x0001be68:    9001        ..      STR      r0,[sp,#4]
        0x0001be6a:    e7ff        ..      B        0x1be6c ; ndigits_in_i64 + 36
        0x0001be6c:    9800        ..      LDR      r0,[sp,#0]
        0x0001be6e:    9901        ..      LDR      r1,[sp,#4]
        0x0001be70:    f000f802    ....    BL       ndigits_in_u64 ; 0x1be78
        0x0001be74:    b002        ..      ADD      sp,sp,#8
        0x0001be76:    bd80        ..      POP      {r7,pc}
    ndigits_in_u64
        0x0001be78:    b580        ..      PUSH     {r7,lr}
        0x0001be7a:    b084        ..      SUB      sp,sp,#0x10
        0x0001be7c:    9103        ..      STR      r1,[sp,#0xc]
        0x0001be7e:    9002        ..      STR      r0,[sp,#8]
        0x0001be80:    9802        ..      LDR      r0,[sp,#8]
        0x0001be82:    9903        ..      LDR      r1,[sp,#0xc]
        0x0001be84:    4308        .C      ORRS     r0,r0,r1
        0x0001be86:    fab0f080    ....    CLZ      r0,r0
        0x0001be8a:    0940        @.      LSRS     r0,r0,#5
        0x0001be8c:    9001        ..      STR      r0,[sp,#4]
        0x0001be8e:    e7ff        ..      B        0x1be90 ; ndigits_in_u64 + 24
        0x0001be90:    9802        ..      LDR      r0,[sp,#8]
        0x0001be92:    9903        ..      LDR      r1,[sp,#0xc]
        0x0001be94:    4308        .C      ORRS     r0,r0,r1
        0x0001be96:    b150        P.      CBZ      r0,0x1beae ; ndigits_in_u64 + 54
        0x0001be98:    e7ff        ..      B        0x1be9a ; ndigits_in_u64 + 34
        0x0001be9a:    9802        ..      LDR      r0,[sp,#8]
        0x0001be9c:    9903        ..      LDR      r1,[sp,#0xc]
        0x0001be9e:    f7fffb59    ..Y.    BL       divu64_10 ; 0x1b554
        0x0001bea2:    9103        ..      STR      r1,[sp,#0xc]
        0x0001bea4:    9002        ..      STR      r0,[sp,#8]
        0x0001bea6:    9801        ..      LDR      r0,[sp,#4]
        0x0001bea8:    3001        .0      ADDS     r0,#1
        0x0001beaa:    9001        ..      STR      r0,[sp,#4]
        0x0001beac:    e7f0        ..      B        0x1be90 ; ndigits_in_u64 + 24
        0x0001beae:    9801        ..      LDR      r0,[sp,#4]
        0x0001beb0:    b004        ..      ADD      sp,sp,#0x10
        0x0001beb2:    bd80        ..      POP      {r7,pc}
    padbuffer
        0x0001beb4:    b085        ..      SUB      sp,sp,#0x14
        0x0001beb6:    9003        ..      STR      r0,[sp,#0xc]
        0x0001beb8:    f88d100b    ....    STRB     r1,[sp,#0xb]
        0x0001bebc:    9201        ..      STR      r2,[sp,#4]
        0x0001bebe:    2000        .       MOVS     r0,#0
        0x0001bec0:    9000        ..      STR      r0,[sp,#0]
        0x0001bec2:    9801        ..      LDR      r0,[sp,#4]
        0x0001bec4:    2800        .(      CMP      r0,#0
        0x0001bec6:    dc03        ..      BGT      0x1bed0 ; padbuffer + 28
        0x0001bec8:    e7ff        ..      B        0x1beca ; padbuffer + 22
        0x0001beca:    9800        ..      LDR      r0,[sp,#0]
        0x0001becc:    9004        ..      STR      r0,[sp,#0x10]
        0x0001bece:    e016        ..      B        0x1befe ; padbuffer + 74
        0x0001bed0:    e7ff        ..      B        0x1bed2 ; padbuffer + 30
        0x0001bed2:    9801        ..      LDR      r0,[sp,#4]
        0x0001bed4:    1e41        A.      SUBS     r1,r0,#1
        0x0001bed6:    9101        ..      STR      r1,[sp,#4]
        0x0001bed8:    b170        p.      CBZ      r0,0x1bef8 ; padbuffer + 68
        0x0001beda:    e7ff        ..      B        0x1bedc ; padbuffer + 40
        0x0001bedc:    9803        ..      LDR      r0,[sp,#0xc]
        0x0001bede:    b138        8.      CBZ      r0,0x1bef0 ; padbuffer + 60
        0x0001bee0:    e7ff        ..      B        0x1bee2 ; padbuffer + 46
        0x0001bee2:    f89d000b    ....    LDRB     r0,[sp,#0xb]
        0x0001bee6:    9903        ..      LDR      r1,[sp,#0xc]
        0x0001bee8:    1c4a        J.      ADDS     r2,r1,#1
        0x0001beea:    9203        ..      STR      r2,[sp,#0xc]
        0x0001beec:    7008        .p      STRB     r0,[r1,#0]
        0x0001beee:    e7ff        ..      B        0x1bef0 ; padbuffer + 60
        0x0001bef0:    9800        ..      LDR      r0,[sp,#0]
        0x0001bef2:    3001        .0      ADDS     r0,#1
        0x0001bef4:    9000        ..      STR      r0,[sp,#0]
        0x0001bef6:    e7ec        ..      B        0x1bed2 ; padbuffer + 30
        0x0001bef8:    9800        ..      LDR      r0,[sp,#0]
        0x0001befa:    9004        ..      STR      r0,[sp,#0x10]
        0x0001befc:    e7ff        ..      B        0x1befe ; padbuffer + 74
        0x0001befe:    9804        ..      LDR      r0,[sp,#0x10]
        0x0001bf00:    b005        ..      ADD      sp,sp,#0x14
        0x0001bf02:    4770        pG      BX       lr
    sample_correction_apply
        0x0001bf04:    f24042ec    @..B    MOV      r2,#0x4ec
        0x0001bf08:    f2c10200    ....    MOVT     r2,#0x1000
        0x0001bf0c:    7812        .x      LDRB     r2,[r2,#0]
        0x0001bf0e:    b3ca        ..      CBZ      r2,0x1bf84 ; sample_correction_apply + 128
        0x0001bf10:    2900        .)      CMP      r1,#0
        0x0001bf12:    bf08        ..      IT       EQ
        0x0001bf14:    4770        pG      BXEQ     lr
        0x0001bf16:    f3c0118d    ....    UBFX     r1,r0,#6,#14
        0x0001bf1a:    f24042a6    @..B    MOV      r2,#0x4a6
        0x0001bf1e:    4351        QC      MULS     r1,r2,r1
        0x0001bf20:    0b09        ..      LSRS     r1,r1,#12
        0x0001bf22:    ee001a10    ....    VMOV     s0,r1
        0x0001bf26:    f6401158    @.X.    MOV      r1,#0x958
        0x0001bf2a:    f2c10100    ....    MOVT     r1,#0x1000
        0x0001bf2e:    ed911a01    ....    VLDR     s2,[r1,#4]
        0x0001bf32:    eeb72a00    ...*    VMOV.F32 s4,#1.00000000
        0x0001bf36:    eeb80a40    ..@.    VCVT.F32.U32 s0,s0
        0x0001bf3a:    ee321a41    2.A.    VSUB.F32 s2,s4,s2
        0x0001bf3e:    ee800a01    ....    VDIV.F32 s0,s0,s2
        0x0001bf42:    ed911a00    ....    VLDR     s2,[r1,#0]
        0x0001bf46:    ed9f2a10    ...*    VLDR     s4,[pc,#64] ; [0x1bf88] = 0xc47a0000
        0x0001bf4a:    f36f0013    o...    BFC      r0,#0,#20
        0x0001bf4e:    ee211a02    !...    VMUL.F32 s2,s2,s4
        0x0001bf52:    ed9f2a0f    ...*    VLDR     s4,[pc,#60] ; [0x1bf90] = 0x4494c000
        0x0001bf56:    ee300a01    0...    VADD.F32 s0,s0,s2
        0x0001bf5a:    ed9f1a0c    ....    VLDR     s2,[pc,#48] ; [0x1bf8c] = 0x45800000
        0x0001bf5e:    ee200a01     ...    VMUL.F32 s0,s0,s2
        0x0001bf62:    ee800a02    ....    VDIV.F32 s0,s0,s4
        0x0001bf66:    ed9f1a0b    ....    VLDR     s2,[pc,#44] ; [0x1bf94] = 0x457ff000
        0x0001bf6a:    eeb40a41    ..A.    VCMP.F32 s0,s2
        0x0001bf6e:    eef1fa10    ....    VMRS     APSR_nzcv,FPSCR
        0x0001bf72:    bfc8        ..      IT       GT
        0x0001bf74:    eeb00a41    ..A.    VMOVGT.F32 s0,s2
        0x0001bf78:    eebc0ac0    ....    VCVT.U32.F32 s0,s0
        0x0001bf7c:    ee101a10    ....    VMOV     r1,s0
        0x0001bf80:    f3611091    a...    BFI      r0,r1,#6,#12
        0x0001bf84:    4770        pG      BX       lr
        0x0001bf86:    bf00        ..      NOP      
    $d.22
        0x0001bf88:    c47a0000    ..z.    DCD    3296329728
        0x0001bf8c:    45800000    ...E    DCD    1166016512
        0x0001bf90:    4494c000    ...D    DCD    1150599168
        0x0001bf94:    457ff000    ...E    DCD    1166012416
    $t.7
    simple_strlen
        0x0001bf98:    b083        ..      SUB      sp,sp,#0xc
        0x0001bf9a:    9001        ..      STR      r0,[sp,#4]
        0x0001bf9c:    2000        .       MOVS     r0,#0
        0x0001bf9e:    9000        ..      STR      r0,[sp,#0]
        0x0001bfa0:    9801        ..      LDR      r0,[sp,#4]
        0x0001bfa2:    b918        ..      CBNZ     r0,0x1bfac ; simple_strlen + 20
        0x0001bfa4:    e7ff        ..      B        0x1bfa6 ; simple_strlen + 14
        0x0001bfa6:    9800        ..      LDR      r0,[sp,#0]
        0x0001bfa8:    9002        ..      STR      r0,[sp,#8]
        0x0001bfaa:    e00d        ..      B        0x1bfc8 ; simple_strlen + 48
        0x0001bfac:    e7ff        ..      B        0x1bfae ; simple_strlen + 22
        0x0001bfae:    9801        ..      LDR      r0,[sp,#4]
        0x0001bfb0:    1c41        A.      ADDS     r1,r0,#1
        0x0001bfb2:    9101        ..      STR      r1,[sp,#4]
        0x0001bfb4:    7800        .x      LDRB     r0,[r0,#0]
        0x0001bfb6:    b120         .      CBZ      r0,0x1bfc2 ; simple_strlen + 42
        0x0001bfb8:    e7ff        ..      B        0x1bfba ; simple_strlen + 34
        0x0001bfba:    9800        ..      LDR      r0,[sp,#0]
        0x0001bfbc:    3001        .0      ADDS     r0,#1
        0x0001bfbe:    9000        ..      STR      r0,[sp,#0]
        0x0001bfc0:    e7f5        ..      B        0x1bfae ; simple_strlen + 22
        0x0001bfc2:    9800        ..      LDR      r0,[sp,#0]
        0x0001bfc4:    9002        ..      STR      r0,[sp,#8]
        0x0001bfc6:    e7ff        ..      B        0x1bfc8 ; simple_strlen + 48
        0x0001bfc8:    9802        ..      LDR      r0,[sp,#8]
        0x0001bfca:    b003        ..      ADD      sp,sp,#0xc
        0x0001bfcc:    4770        pG      BX       lr
        0x0001bfce:    0000        ..      MOVS     r0,r0
    timer_config_b1
        0x0001bfd0:    e92d43f0    -..C    PUSH     {r4-r9,lr}
        0x0001bfd4:    f2402858    @.X(    MOVW     r8,#0x258
        0x0001bfd8:    f2c10800    ....    MOVT     r8,#0x1000
        0x0001bfdc:    eb080280    ....    ADD      r2,r8,r0,LSL #2
        0x0001bfe0:    2600        .&      MOVS     r6,#0
        0x0001bfe2:    4615        .F      MOV      r5,r2
        0x0001bfe4:    e9d13e02    ...>    LDRD     r3,lr,[r1,#8]
        0x0001bfe8:    f8d1c010    ....    LDR      r12,[r1,#0x10]
        0x0001bfec:    f8456b03    E..k    STR      r6,[r5],#3
        0x0001bff0:    784f        Ox      LDRB     r7,[r1,#1]
        0x0001bff2:    2f0e        ./      CMP      r7,#0xe
        0x0001bff4:    d832        2.      BHI      0x1c05c ; timer_config_b1 + 140
        0x0001bff6:    1c96        ..      ADDS     r6,r2,#2
        0x0001bff8:    2207        ."      MOVS     r2,#7
        0x0001bffa:    e8dff007    ....    TBB      [pc,r7]
    $d.1
        0x0001bffe:    1199        ..      DCW    4505
        0x0001c000:    2f082f08    ././    DCD    789065480
        0x0001c004:    2f2f2f99    .///    DCD    791621529
        0x0001c008:    211d2f2f    //.!    DCD    555560751
        0x0001c00c:    0099        ..      DCW    153
    $t.2
        0x0001c00e:    f04f3201    O..2    MOV      r2,#0x1010101
        0x0001c012:    2b00        .+      CMP      r3,#0
        0x0001c014:    f8482020    H.      STR      r2,[r8,r0,LSL #2]
        0x0001c018:    f0408089    @...    BNE.W    0x1c12e ; timer_config_b1 + 350
        0x0001c01c:    2300        .#      MOVS     r3,#0
        0x0001c01e:    e01d        ..      B        0x1c05c ; timer_config_b1 + 140
        0x0001c020:    2201        ."      MOVS     r2,#1
        0x0001c022:    f11e0701    ....    ADDS     r7,lr,#1
        0x0001c026:    702a        *p      STRB     r2,[r5,#0]
        0x0001c028:    7032        2p      STRB     r2,[r6,#0]
        0x0001c02a:    d107        ..      BNE      0x1c03c ; timer_config_b1 + 108
        0x0001c02c:    f11c0e01    ....    ADDS     lr,r12,#1
        0x0001c030:    bf28        (.      IT       CS
        0x0001c032:    f04f3eff    O..>    MOVCS    lr,#0xffffffff
        0x0001c036:    e011        ..      B        0x1c05c ; timer_config_b1 + 140
        0x0001c038:    2b20         +      CMP      r3,#0x20
        0x0001c03a:    d906        ..      BLS      0x1c04a ; timer_config_b1 + 122
        0x0001c03c:    2207        ."      MOVS     r2,#7
        0x0001c03e:    e077        w.      B        0x1c130 ; timer_config_b1 + 352
        0x0001c040:    f04f3201    O..2    MOV      r2,#0x1010101
        0x0001c044:    f8482020    H.      STR      r2,[r8,r0,LSL #2]
        0x0001c048:    e008        ..      B        0x1c05c ; timer_config_b1 + 140
        0x0001c04a:    2201        ."      MOVS     r2,#1
        0x0001c04c:    2b00        .+      CMP      r3,#0
        0x0001c04e:    469c        .F      MOV      r12,r3
        0x0001c050:    bf18        ..      IT       NE
        0x0001c052:    3301        .3      ADDNE    r3,#1
        0x0001c054:    f8082020    ..      STRB     r2,[r8,r0,LSL #2]
        0x0001c058:    702a        *p      STRB     r2,[r5,#0]
        0x0001c05a:    7032        2p      STRB     r2,[r6,#0]
        0x0001c05c:    780a        .x      LDRB     r2,[r1,#0]
        0x0001c05e:    f00204e0    ....    AND      r4,r2,#0xe0
        0x0001c062:    2c20         ,      CMP      r4,#0x20
        0x0001c064:    d10d        ..      BNE      0x1c082 ; timer_config_b1 + 178
        0x0001c066:    f1a20420    .. .    SUB      r4,r2,#0x20
        0x0001c06a:    07d2        ..      LSLS     r2,r2,#31
        0x0001c06c:    ea4f0264    O.d.    ASR      r2,r4,#1
        0x0001c070:    d102        ..      BNE      0x1c078 ; timer_config_b1 + 168
        0x0001c072:    f8182022    .."     LDRB     r2,[r8,r2,LSL #2]
        0x0001c076:    e002        ..      B        0x1c07e ; timer_config_b1 + 174
        0x0001c078:    eb080282    ....    ADD      r2,r8,r2,LSL #2
        0x0001c07c:    7892        .x      LDRB     r2,[r2,#2]
        0x0001c07e:    2a00        .*      CMP      r2,#0
        0x0001c080:    d055        U.      BEQ      0x1c12e ; timer_config_b1 + 350
        0x0001c082:    790a        .y      LDRB     r2,[r1,#4]
        0x0001c084:    b172        r.      CBZ      r2,0x1c0a4 ; timer_config_b1 + 212
        0x0001c086:    794a        Jy      LDRB     r2,[r1,#5]
        0x0001c088:    2a1f        .*      CMP      r2,#0x1f
        0x0001c08a:    d80b        ..      BHI      0x1c0a4 ; timer_config_b1 + 212
        0x0001c08c:    07d4        ..      LSLS     r4,r2,#31
        0x0001c08e:    ea4f0252    O.R.    LSR      r2,r2,#1
        0x0001c092:    d102        ..      BNE      0x1c09a ; timer_config_b1 + 202
        0x0001c094:    f8182022    .."     LDRB     r2,[r8,r2,LSL #2]
        0x0001c098:    e002        ..      B        0x1c0a0 ; timer_config_b1 + 208
        0x0001c09a:    eb080282    ....    ADD      r2,r8,r2,LSL #2
        0x0001c09e:    7892        .x      LDRB     r2,[r2,#2]
        0x0001c0a0:    2a00        .*      CMP      r2,#0
        0x0001c0a2:    d044        D.      BEQ      0x1c12e ; timer_config_b1 + 350
        0x0001c0a4:    f2481804    H...    MOV      r8,#0x8104
        0x0001c0a8:    f2c40800    ....    MOVT     r8,#0x4000
        0x0001c0ac:    2401        .$      MOVS     r4,#1
        0x0001c0ae:    f8d85000    ...P    LDR      r5,[r8,#0]
        0x0001c0b2:    fa04f900    ....    LSL      r9,r4,r0
        0x0001c0b6:    ea250509    %...    BIC      r5,r5,r9
        0x0001c0ba:    f8c85000    ...P    STR      r5,[r8,#0]
        0x0001c0be:    780d        .x      LDRB     r5,[r1,#0]
        0x0001c0c0:    784e        Nx      LDRB     r6,[r1,#1]
        0x0001c0c2:    78ca        .x      LDRB     r2,[r1,#3]
        0x0001c0c4:    022d        -.      LSLS     r5,r5,#8
        0x0001c0c6:    788f        .x      LDRB     r7,[r1,#2]
        0x0001c0c8:    f006060f    ....    AND      r6,r6,#0xf
        0x0001c0cc:    ea456303    E..c    ORR      r3,r5,r3,LSL #24
        0x0001c0d0:    f002021f    ....    AND      r2,r2,#0x1f
        0x0001c0d4:    790c        .y      LDRB     r4,[r1,#4]
        0x0001c0d6:    ea431306    C...    ORR      r3,r3,r6,LSL #4
        0x0001c0da:    eb081040    ..@.    ADD      r0,r8,r0,LSL #5
        0x0001c0de:    f007073f    ..?.    AND      r7,r7,#0x3f
        0x0001c0e2:    ea4302c2    C...    ORR      r2,r3,r2,LSL #3
        0x0001c0e6:    7949        Iy      LDRB     r1,[r1,#5]
        0x0001c0e8:    f8d030fc    ...0    LDR      r3,[r0,#0xfc]
        0x0001c0ec:    f0040403    ....    AND      r4,r4,#3
        0x0001c0f0:    ea420287    B...    ORR      r2,r2,r7,LSL #2
        0x0001c0f4:    ea424204    B..B    ORR      r2,r2,r4,LSL #16
        0x0001c0f8:    0209        ..      LSLS     r1,r1,#8
        0x0001c0fa:    f0230301    #...    BIC      r3,r3,#1
        0x0001c0fe:    f8c030fc    ...0    STR      r3,[r0,#0xfc]
        0x0001c102:    f8c020fc    ...     STR      r2,[r0,#0xfc]
        0x0001c106:    f8c0110c    ....    STR      r1,[r0,#0x10c]
        0x0001c10a:    f8c0e104    ....    STR      lr,[r0,#0x104]
        0x0001c10e:    f8c0c108    ....    STR      r12,[r0,#0x108]
        0x0001c112:    f8d010fc    ....    LDR      r1,[r0,#0xfc]
        0x0001c116:    2200        ."      MOVS     r2,#0
        0x0001c118:    f0410102    A...    ORR      r1,r1,#2
        0x0001c11c:    f8c010fc    ....    STR      r1,[r0,#0xfc]
        0x0001c120:    f8d80000    ....    LDR      r0,[r8,#0]
        0x0001c124:    ea400009    @...    ORR      r0,r0,r9
        0x0001c128:    f8c80000    ....    STR      r0,[r8,#0]
        0x0001c12c:    e000        ..      B        0x1c130 ; timer_config_b1 + 352
        0x0001c12e:    2206        ."      MOVS     r2,#6
        0x0001c130:    4610        .F      MOV      r0,r2
        0x0001c132:    e8bd83f0    ....    POP      {r4-r9,pc}
        0x0001c136:    0000        ..      MOVS     r0,r0
    uint64_to_hexstr
        0x0001c138:    b08c        ..      SUB      sp,sp,#0x30
        0x0001c13a:    910b        ..      STR      r1,[sp,#0x2c]
        0x0001c13c:    900a        ..      STR      r0,[sp,#0x28]
        0x0001c13e:    9209        ..      STR      r2,[sp,#0x24]
        0x0001c140:    f88d3023    ..#0    STRB     r3,[sp,#0x23]
        0x0001c144:    2000        .       MOVS     r0,#0
        0x0001c146:    9006        ..      STR      r0,[sp,#0x18]
        0x0001c148:    980a        ..      LDR      r0,[sp,#0x28]
        0x0001c14a:    990b        ..      LDR      r1,[sp,#0x2c]
        0x0001c14c:    4308        .C      ORRS     r0,r0,r1
        0x0001c14e:    b940        @.      CBNZ     r0,0x1c162 ; uint64_to_hexstr + 42
        0x0001c150:    e7ff        ..      B        0x1c152 ; uint64_to_hexstr + 26
        0x0001c152:    9a06        ..      LDR      r2,[sp,#0x18]
        0x0001c154:    1c50        P.      ADDS     r0,r2,#1
        0x0001c156:    9006        ..      STR      r0,[sp,#0x18]
        0x0001c158:    f10d0103    ....    ADD      r1,sp,#3
        0x0001c15c:    2030        0       MOVS     r0,#0x30
        0x0001c15e:    5488        .T      STRB     r0,[r1,r2]
        0x0001c160:    e7ff        ..      B        0x1c162 ; uint64_to_hexstr + 42
        0x0001c162:    e7ff        ..      B        0x1c164 ; uint64_to_hexstr + 44
        0x0001c164:    980a        ..      LDR      r0,[sp,#0x28]
        0x0001c166:    990b        ..      LDR      r1,[sp,#0x2c]
        0x0001c168:    4308        .C      ORRS     r0,r0,r1
        0x0001c16a:    b350        P.      CBZ      r0,0x1c1c2 ; uint64_to_hexstr + 138
        0x0001c16c:    e7ff        ..      B        0x1c16e ; uint64_to_hexstr + 54
        0x0001c16e:    f89d0028    ..(.    LDRB     r0,[sp,#0x28]
        0x0001c172:    f000000f    ....    AND      r0,r0,#0xf
        0x0001c176:    f88d0017    ....    STRB     r0,[sp,#0x17]
        0x0001c17a:    f89d0017    ....    LDRB     r0,[sp,#0x17]
        0x0001c17e:    280a        .(      CMP      r0,#0xa
        0x0001c180:    db0d        ..      BLT      0x1c19e ; uint64_to_hexstr + 102
        0x0001c182:    e7ff        ..      B        0x1c184 ; uint64_to_hexstr + 76
        0x0001c184:    f89d0023    ..#.    LDRB     r0,[sp,#0x23]
        0x0001c188:    07c0        ..      LSLS     r0,r0,#31
        0x0001c18a:    2107        .!      MOVS     r1,#7
        0x0001c18c:    2800        .(      CMP      r0,#0
        0x0001c18e:    bf18        ..      IT       NE
        0x0001c190:    2127        '!      MOVNE    r1,#0x27
        0x0001c192:    f89d0017    ....    LDRB     r0,[sp,#0x17]
        0x0001c196:    4408        .D      ADD      r0,r0,r1
        0x0001c198:    f88d0017    ....    STRB     r0,[sp,#0x17]
        0x0001c19c:    e7ff        ..      B        0x1c19e ; uint64_to_hexstr + 102
        0x0001c19e:    f89d0017    ....    LDRB     r0,[sp,#0x17]
        0x0001c1a2:    3030        00      ADDS     r0,r0,#0x30
        0x0001c1a4:    9a06        ..      LDR      r2,[sp,#0x18]
        0x0001c1a6:    1c51        Q.      ADDS     r1,r2,#1
        0x0001c1a8:    9106        ..      STR      r1,[sp,#0x18]
        0x0001c1aa:    f10d0103    ....    ADD      r1,sp,#3
        0x0001c1ae:    5488        .T      STRB     r0,[r1,r2]
        0x0001c1b0:    980a        ..      LDR      r0,[sp,#0x28]
        0x0001c1b2:    990b        ..      LDR      r1,[sp,#0x2c]
        0x0001c1b4:    0900        ..      LSRS     r0,r0,#4
        0x0001c1b6:    ea407001    @..p    ORR      r0,r0,r1,LSL #28
        0x0001c1ba:    0909        ..      LSRS     r1,r1,#4
        0x0001c1bc:    910b        ..      STR      r1,[sp,#0x2c]
        0x0001c1be:    900a        ..      STR      r0,[sp,#0x28]
        0x0001c1c0:    e7d0        ..      B        0x1c164 ; uint64_to_hexstr + 44
        0x0001c1c2:    9806        ..      LDR      r0,[sp,#0x18]
        0x0001c1c4:    9007        ..      STR      r0,[sp,#0x1c]
        0x0001c1c6:    9809        ..      LDR      r0,[sp,#0x24]
        0x0001c1c8:    b198        ..      CBZ      r0,0x1c1f2 ; uint64_to_hexstr + 186
        0x0001c1ca:    e7ff        ..      B        0x1c1cc ; uint64_to_hexstr + 148
        0x0001c1cc:    e7ff        ..      B        0x1c1ce ; uint64_to_hexstr + 150
        0x0001c1ce:    9806        ..      LDR      r0,[sp,#0x18]
        0x0001c1d0:    1e41        A.      SUBS     r1,r0,#1
        0x0001c1d2:    9106        ..      STR      r1,[sp,#0x18]
        0x0001c1d4:    b148        H.      CBZ      r0,0x1c1ea ; uint64_to_hexstr + 178
        0x0001c1d6:    e7ff        ..      B        0x1c1d8 ; uint64_to_hexstr + 160
        0x0001c1d8:    9906        ..      LDR      r1,[sp,#0x18]
        0x0001c1da:    f10d0003    ....    ADD      r0,sp,#3
        0x0001c1de:    5c40        @\      LDRB     r0,[r0,r1]
        0x0001c1e0:    9909        ..      LDR      r1,[sp,#0x24]
        0x0001c1e2:    1c4a        J.      ADDS     r2,r1,#1
        0x0001c1e4:    9209        ..      STR      r2,[sp,#0x24]
        0x0001c1e6:    7008        .p      STRB     r0,[r1,#0]
        0x0001c1e8:    e7f1        ..      B        0x1c1ce ; uint64_to_hexstr + 150
        0x0001c1ea:    9909        ..      LDR      r1,[sp,#0x24]
        0x0001c1ec:    2000        .       MOVS     r0,#0
        0x0001c1ee:    7008        .p      STRB     r0,[r1,#0]
        0x0001c1f0:    e7ff        ..      B        0x1c1f2 ; uint64_to_hexstr + 186
        0x0001c1f2:    9807        ..      LDR      r0,[sp,#0x1c]
        0x0001c1f4:    b00c        ..      ADD      sp,sp,#0x30
        0x0001c1f6:    4770        pG      BX       lr
    uint64_to_str
        0x0001c1f8:    b580        ..      PUSH     {r7,lr}
        0x0001c1fa:    b090        ..      SUB      sp,sp,#0x40
        0x0001c1fc:    910f        ..      STR      r1,[sp,#0x3c]
        0x0001c1fe:    900e        ..      STR      r0,[sp,#0x38]
        0x0001c200:    920d        ..      STR      r2,[sp,#0x34]
        0x0001c202:    2000        .       MOVS     r0,#0
        0x0001c204:    9005        ..      STR      r0,[sp,#0x14]
        0x0001c206:    9004        ..      STR      r0,[sp,#0x10]
        0x0001c208:    e7ff        ..      B        0x1c20a ; uint64_to_str + 18
        0x0001c20a:    980e        ..      LDR      r0,[sp,#0x38]
        0x0001c20c:    990f        ..      LDR      r1,[sp,#0x3c]
        0x0001c20e:    f7fff9a1    ....    BL       divu64_10 ; 0x1b554
        0x0001c212:    9101        ..      STR      r1,[sp,#4]
        0x0001c214:    9000        ..      STR      r0,[sp,#0]
        0x0001c216:    980e        ..      LDR      r0,[sp,#0x38]
        0x0001c218:    9900        ..      LDR      r1,[sp,#0]
        0x0001c21a:    eb010181    ....    ADD      r1,r1,r1,LSL #2
        0x0001c21e:    eba00041    ..A.    SUB      r0,r0,r1,LSL #1
        0x0001c222:    9003        ..      STR      r0,[sp,#0xc]
        0x0001c224:    9803        ..      LDR      r0,[sp,#0xc]
        0x0001c226:    3030        00      ADDS     r0,r0,#0x30
        0x0001c228:    9a05        ..      LDR      r2,[sp,#0x14]
        0x0001c22a:    1c51        Q.      ADDS     r1,r2,#1
        0x0001c22c:    9105        ..      STR      r1,[sp,#0x14]
        0x0001c22e:    f10d011b    ....    ADD      r1,sp,#0x1b
        0x0001c232:    5488        .T      STRB     r0,[r1,r2]
        0x0001c234:    9800        ..      LDR      r0,[sp,#0]
        0x0001c236:    9901        ..      LDR      r1,[sp,#4]
        0x0001c238:    910f        ..      STR      r1,[sp,#0x3c]
        0x0001c23a:    900e        ..      STR      r0,[sp,#0x38]
        0x0001c23c:    e7ff        ..      B        0x1c23e ; uint64_to_str + 70
        0x0001c23e:    980e        ..      LDR      r0,[sp,#0x38]
        0x0001c240:    990f        ..      LDR      r1,[sp,#0x3c]
        0x0001c242:    4308        .C      ORRS     r0,r0,r1
        0x0001c244:    2800        .(      CMP      r0,#0
        0x0001c246:    d1e0        ..      BNE      0x1c20a ; uint64_to_str + 18
        0x0001c248:    e7ff        ..      B        0x1c24a ; uint64_to_str + 82
        0x0001c24a:    9805        ..      LDR      r0,[sp,#0x14]
        0x0001c24c:    9004        ..      STR      r0,[sp,#0x10]
        0x0001c24e:    980d        ..      LDR      r0,[sp,#0x34]
        0x0001c250:    b198        ..      CBZ      r0,0x1c27a ; uint64_to_str + 130
        0x0001c252:    e7ff        ..      B        0x1c254 ; uint64_to_str + 92
        0x0001c254:    e7ff        ..      B        0x1c256 ; uint64_to_str + 94
        0x0001c256:    9805        ..      LDR      r0,[sp,#0x14]
        0x0001c258:    1e41        A.      SUBS     r1,r0,#1
        0x0001c25a:    9105        ..      STR      r1,[sp,#0x14]
        0x0001c25c:    b148        H.      CBZ      r0,0x1c272 ; uint64_to_str + 122
        0x0001c25e:    e7ff        ..      B        0x1c260 ; uint64_to_str + 104
        0x0001c260:    9905        ..      LDR      r1,[sp,#0x14]
        0x0001c262:    f10d001b    ....    ADD      r0,sp,#0x1b
        0x0001c266:    5c40        @\      LDRB     r0,[r0,r1]
        0x0001c268:    990d        ..      LDR      r1,[sp,#0x34]
        0x0001c26a:    1c4a        J.      ADDS     r2,r1,#1
        0x0001c26c:    920d        ..      STR      r2,[sp,#0x34]
        0x0001c26e:    7008        .p      STRB     r0,[r1,#0]
        0x0001c270:    e7f1        ..      B        0x1c256 ; uint64_to_str + 94
        0x0001c272:    990d        ..      LDR      r1,[sp,#0x34]
        0x0001c274:    2000        .       MOVS     r0,#0
        0x0001c276:    7008        .p      STRB     r0,[r1,#0]
        0x0001c278:    e7ff        ..      B        0x1c27a ; uint64_to_str + 130
        0x0001c27a:    9804        ..      LDR      r0,[sp,#0x10]
        0x0001c27c:    b010        ..      ADD      sp,sp,#0x40
        0x0001c27e:    bd80        ..      POP      {r7,pc}
    $t
    x$fpl$d2f
    $v0
    __aeabi_d2f
    _d2f
        0x0001c280:    f0214200    !..B    BIC      r2,r1,#0x80000000
        0x0001c284:    f0014300    ...C    AND      r3,r1,#0x80000000
        0x0001c288:    f1a25260    ..`R    SUB      r2,r2,#0x38000000
        0x0001c28c:    f5b21f80    ....    CMP      r2,#0x100000
        0x0001c290:    bf28        (.      IT       CS
        0x0001c292:    f1d26c7f    ...l    RSBSCS   r12,r2,#0xff00000
        0x0001c296:    d90b        ..      BLS      0x1c2b0 ; __aeabi_d2f + 48
        0x0001c298:    ea5f1c00    _...    LSLS     r12,r0,#4
        0x0001c29c:    ea4302c2    C...    ORR      r2,r3,r2,LSL #3
        0x0001c2a0:    eb427050    B.Pp    ADC      r0,r2,r0,LSR #29
        0x0001c2a4:    bf18        ..      IT       NE
        0x0001c2a6:    4770        pG      BXNE     lr
        0x0001c2a8:    bf28        (.      IT       CS
        0x0001c2aa:    f0200001     ...    BICCS    r0,r0,#1
        0x0001c2ae:    4770        pG      BX       lr
        0x0001c2b0:    f5b21f80    ....    CMP      r2,#0x100000
        0x0001c2b4:    bfbc        ..      ITT      LT
        0x0001c2b6:    4618        .F      MOVLT    r0,r3
        0x0001c2b8:    4770        pG      BXLT     lr
        0x0001c2ba:    ea4f0c41    O.A.    LSL      r12,r1,#1
        0x0001c2be:    f51c1f00    ....    CMN      r12,#0x200000
        0x0001c2c2:    d202        ..      BCS      0x1c2ca ; __aeabi_d2f + 74
        0x0001c2c4:    4608        .F      MOV      r0,r1
        0x0001c2c6:    f000b8df    ....    B.W      __fpl_fretinf ; 0x1c488
        0x0001c2ca:    b570        p.      PUSH     {r4-r6,lr}
        0x0001c2cc:    f000f809    ....    BL       __fpl_dnaninf ; 0x1c2e2
    $d
        0x0001c2d0:    89000000    ....    DCD    2298478592
    $t
        0x0001c2d4:    f7ffbff6    ....    B.W      0x1c2c4 ; __aeabi_d2f + 68
        0x0001c2d8:    f04f4000    O..@    MOV      r0,#0x80000000
        0x0001c2dc:    f5a00080    ....    SUB      r0,r0,#0x400000
        0x0001c2e0:    4770        pG      BX       lr
    x$fpl$dnaninf
    $v0
    __fpl_dnaninf
        0x0001c2e2:    f10e0e02    ....    ADD      lr,lr,#2
        0x0001c2e6:    f02e0e03    ....    BIC      lr,lr,#3
        0x0001c2ea:    f85e6b04    ^..k    LDR      r6,[lr],#4
        0x0001c2ee:    4236        6B      TST      r6,r6
        0x0001c2f0:    d405        ..      BMI      0x1c2fe ; __fpl_dnaninf + 28
        0x0001c2f2:    2a01        .*      CMP      r2,#1
        0x0001c2f4:    eb430503    C...    ADC      r5,r3,r3
        0x0001c2f8:    f5151f00    ....    CMN      r5,#0x200000
        0x0001c2fc:    d812        ..      BHI      0x1c324 ; __fpl_dnaninf + 66
        0x0001c2fe:    2801        .(      CMP      r0,#1
        0x0001c300:    eb410c01    A...    ADC      r12,r1,r1
        0x0001c304:    f51c1f00    ....    CMN      r12,#0x200000
        0x0001c308:    d80c        ..      BHI      0x1c324 ; __fpl_dnaninf + 66
        0x0001c30a:    d10e        ..      BNE      0x1c32a ; __fpl_dnaninf + 72
        0x0001c30c:    ea4f7cd1    O..|    LSR      r12,r1,#31
        0x0001c310:    eb0c0c4c    ..L.    ADD      r12,r12,r12,LSL #1
        0x0001c314:    f10c0c02    ....    ADD      r12,r12,#2
        0x0001c318:    f5151f00    ....    CMN      r5,#0x200000
        0x0001c31c:    bf08        ..      IT       EQ
        0x0001c31e:    eb4c7cd3    L..|    ADCEQ    r12,r12,r3,LSR #31
        0x0001c322:    e004        ..      B        0x1c32e ; __fpl_dnaninf + 76
        0x0001c324:    f04f0c08    O...    MOV      r12,#8
        0x0001c328:    e001        ..      B        0x1c32e ; __fpl_dnaninf + 76
        0x0001c32a:    ea4f7cd3    O..|    LSR      r12,r3,#31
        0x0001c32e:    eb0c054c    ..L.    ADD      r5,r12,r12,LSL #1
        0x0001c332:    fa26f605    &...    LSR      r6,r6,r5
        0x0001c336:    f0060607    ....    AND      r6,r6,#7
        0x0001c33a:    f1b60c04    ....    SUBS     r12,r6,#4
        0x0001c33e:    d206        ..      BCS      0x1c34e ; __fpl_dnaninf + 108
        0x0001c340:    eb0e0c86    ....    ADD      r12,lr,r6,LSL #2
        0x0001c344:    e8bd4070    ..p@    POP      {r4-r6,lr}
        0x0001c348:    f04c0c01    L...    ORR      r12,r12,#1
        0x0001c34c:    4760        `G      BX       r12
        0x0001c34e:    e8dff00c    ....    TBB      [pc,r12]
    $d
        0x0001c352:    0b09        ..      DCW    2825
        0x0001c354:    0202        ..      DCW    514
    $t
        0x0001c356:    f04f4100    O..A    MOV      r1,#0x80000000
        0x0001c35a:    f5a12100    ...!    SUB      r1,r1,#0x80000
        0x0001c35e:    f04f0000    O...    MOV      r0,#0
        0x0001c362:    bd70        p.      POP      {r4-r6,pc}
        0x0001c364:    4619        .F      MOV      r1,r3
        0x0001c366:    4610        .F      MOV      r0,r2
        0x0001c368:    2801        .(      CMP      r0,#1
        0x0001c36a:    eb510401    Q...    ADCS     r4,r1,r1
        0x0001c36e:    bf18        ..      IT       NE
        0x0001c370:    f5d41400    ....    RSBSNE   r4,r4,#0x200000
        0x0001c374:    bf84        ..      ITT      HI
        0x0001c376:    2000        .       MOVHI    r0,#0
        0x0001c378:    f0014100    ...A    ANDHI    r1,r1,#0x80000000
        0x0001c37c:    bd70        p.      POP      {r4-r6,pc}
    x$fpl$dretinf
    $v0
    __fpl_dretinf
        0x0001c37e:    0808        ..      LSRS     r0,r1,#32
        0x0001c380:    f5a01100    ....    SUB      r1,r0,#0x200000
        0x0001c384:    ea4f0131    O.1.    RRX      r1,r1
        0x0001c388:    4770        pG      BX       lr
        0x0001c38a:    0000        ..      MOVS     r0,r0
    x$fpl$f2d
    $v0
    __aeabi_f2d
    _f2d
        0x0001c38c:    0043        C.      LSLS     r3,r0,#1
        0x0001c38e:    ea4f0cd3    O...    LSR      r12,r3,#3
        0x0001c392:    ea4f0c3c    O.<.    RRX      r12,r12
        0x0001c396:    4043        C@      EORS     r3,r3,r0
        0x0001c398:    bf1f        ..      ITTTT    NE
        0x0001c39a:    0740        @.      LSLNE    r0,r0,#29
        0x0001c39c:    f10c5160    ..`Q    ADDNE    r1,r12,#0x38000000
        0x0001c3a0:    f0134ffe    ...O    TSTNE    r3,#0x7f000000
        0x0001c3a4:    4770        pG      BXNE     lr
        0x0001c3a6:    f01c6f00    ...o    TST      r12,#0x8000000
        0x0001c3aa:    d103        ..      BNE      0x1c3b4 ; __aeabi_f2d + 40
        0x0001c3ac:    f00c4100    ...A    AND      r1,r12,#0x80000000
        0x0001c3b0:    2000        .       MOVS     r0,#0
        0x0001c3b2:    4770        pG      BX       lr
        0x0001c3b4:    f00c4300    ...C    AND      r3,r12,#0x80000000
        0x0001c3b8:    ea437050    C.Pp    ORR      r0,r3,r0,LSR #29
        0x0001c3bc:    ea4000cc    @...    ORR      r0,r0,r12,LSL #3
        0x0001c3c0:    b510        ..      PUSH     {r4,lr}
        0x0001c3c2:    f000f80e    ....    BL       __fpl_fnaninf ; 0x1c3e2
        0x0001c3c6:    bf00        ..      NOP      
    $d
        0x0001c3c8:    92000000    ....    DCD    2449473536
    $t
        0x0001c3cc:    ea4f0100    O...    MOV.W    r1,r0
        0x0001c3d0:    f7ffbfd5    ....    B.W      __fpl_dretinf ; 0x1c37e
        0x0001c3d4:    f04f4100    O..A    MOV      r1,#0x80000000
        0x0001c3d8:    f5a12100    ...!    SUB      r1,r1,#0x80000
        0x0001c3dc:    f04f0000    O...    MOV      r0,#0
        0x0001c3e0:    4770        pG      BX       lr
    x$fpl$fnaninf
    $v0
    __fpl_fnaninf
        0x0001c3e2:    f10e0e02    ....    ADD      lr,lr,#2
        0x0001c3e6:    f02e0e03    ....    BIC      lr,lr,#3
        0x0001c3ea:    f85e4b04    ^..K    LDR      r4,[lr],#4
        0x0001c3ee:    4224        $B      TST      r4,r4
        0x0001c3f0:    d404        ..      BMI      0x1c3fc ; __fpl_fnaninf + 26
        0x0001c3f2:    ea4f0241    O.A.    LSL      r2,r1,#1
        0x0001c3f6:    f1b24f7f    ...O    CMP      r2,#0xff000000
        0x0001c3fa:    d811        ..      BHI      0x1c420 ; __fpl_fnaninf + 62
        0x0001c3fc:    ea4f0340    O.@.    LSL      r3,r0,#1
        0x0001c400:    f1b34f7f    ...O    CMP      r3,#0xff000000
        0x0001c404:    d80c        ..      BHI      0x1c420 ; __fpl_fnaninf + 62
        0x0001c406:    d10e        ..      BNE      0x1c426 ; __fpl_fnaninf + 68
        0x0001c408:    ea4f7cd0    O..|    LSR      r12,r0,#31
        0x0001c40c:    eb0c0c4c    ..L.    ADD      r12,r12,r12,LSL #1
        0x0001c410:    f10c0c02    ....    ADD      r12,r12,#2
        0x0001c414:    f1b24f7f    ...O    CMP      r2,#0xff000000
        0x0001c418:    bf08        ..      IT       EQ
        0x0001c41a:    eb4c7cd1    L..|    ADCEQ    r12,r12,r1,LSR #31
        0x0001c41e:    e004        ..      B        0x1c42a ; __fpl_fnaninf + 72
        0x0001c420:    f04f0c08    O...    MOV      r12,#8
        0x0001c424:    e001        ..      B        0x1c42a ; __fpl_fnaninf + 72
        0x0001c426:    ea4f7cd1    O..|    LSR      r12,r1,#31
        0x0001c42a:    eb0c034c    ..L.    ADD      r3,r12,r12,LSL #1
        0x0001c42e:    fa24f403    $...    LSR      r4,r4,r3
        0x0001c432:    f0040407    ....    AND      r4,r4,#7
        0x0001c436:    f1b40c04    ....    SUBS     r12,r4,#4
        0x0001c43a:    d206        ..      BCS      0x1c44a ; __fpl_fnaninf + 104
        0x0001c43c:    eb0e0c84    ....    ADD      r12,lr,r4,LSL #2
        0x0001c440:    e8bd4010    ...@    POP      {r4,lr}
        0x0001c444:    f04c0c01    L...    ORR      r12,r12,#1
        0x0001c448:    4760        `G      BX       r12
        0x0001c44a:    e8dff00c    ....    TBB      [pc,r12]
    $d
        0x0001c44e:    0807        ..      DCW    2055
        0x0001c450:    0202        ..      DCW    514
    $t
        0x0001c452:    f04f4000    O..@    MOV      r0,#0x80000000
        0x0001c456:    f5a00080    ....    SUB      r0,r0,#0x400000
        0x0001c45a:    bd10        ..      POP      {r4,pc}
        0x0001c45c:    4608        .F      MOV      r0,r1
        0x0001c45e:    0042        B.      LSLS     r2,r0,#1
        0x0001c460:    bf18        ..      IT       NE
        0x0001c462:    f1d27280    ...r    RSBSNE   r2,r2,#0x1000000
        0x0001c466:    bf88        ..      IT       HI
        0x0001c468:    f0004000    ...@    ANDHI    r0,r0,#0x80000000
        0x0001c46c:    bd10        ..      POP      {r4,pc}
    x$fpl$fpinit
    $v0
    _fp_init
        0x0001c46e:    eef10a10    ....    VMRS     r0,FPSCR
        0x0001c472:    f64f71ff    O..q    MOV      r1,#0xffff
        0x0001c476:    f2c031c0    ...1    MOVT     r1,#0x3c0
        0x0001c47a:    ea200001     ...    BIC      r0,r0,r1
        0x0001c47e:    f0407040    @.@p    ORR      r0,r0,#0x3000000
        0x0001c482:    eee10a10    ....    VMSR     FPSCR,r0
    __fplib_config_fpu_vfp
    __fplib_config_pureend_doubles
        0x0001c486:    4770        pG      BX       lr
    x$fpl$fretinf
    $v0
    __fpl_fretinf
        0x0001c488:    21ff        .!      MOVS     r1,#0xff
        0x0001c48a:    ea4150d0    A..P    ORR      r0,r1,r0,LSR #23
        0x0001c48e:    05c0        ..      LSLS     r0,r0,#23
        0x0001c490:    4770        pG      BX       lr
    $d.realdata
    x$fpl$usenofp
    __I$use$fp
    am_hal_cachectrl_defaults
        0x0001c492:    030e        ..      DCW    782
        0x0001c494:    00          .       DCB    0
    am_hal_daxi_defaults
        0x0001c495:    020000      ...     DCB    2,0,0
    am_hal_gpio_pincfg_opendrain
        0x0001c498:    00000283    ....    DCD    643
    am_hal_gpio_pincfg_output
        0x0001c49c:    00000183    ....    DCD    387
    am_hal_gpio_pincfg_tristate
        0x0001c4a0:    00000383    ....    DCD    899
    am_hal_pwrctrl_peripheral_control
        0x0001c4a4:    40021004    ...@    DCD    1073876996
        0x0001c4a8:    00000001    ....    DCD    1
        0x0001c4ac:    40021008    ...@    DCD    1073877000
        0x0001c4b0:    00000001    ....    DCD    1
        0x0001c4b4:    40021004    ...@    DCD    1073876996
        0x0001c4b8:    00000002    ....    DCD    2
        0x0001c4bc:    40021008    ...@    DCD    1073877000
        0x0001c4c0:    0000001e    ....    DCD    30
        0x0001c4c4:    40021004    ...@    DCD    1073876996
        0x0001c4c8:    00000004    ....    DCD    4
        0x0001c4cc:    40021008    ...@    DCD    1073877000
        0x0001c4d0:    0000001e    ....    DCD    30
        0x0001c4d4:    40021004    ...@    DCD    1073876996
        0x0001c4d8:    00000008    ....    DCD    8
        0x0001c4dc:    40021008    ...@    DCD    1073877000
        0x0001c4e0:    0000001e    ....    DCD    30
        0x0001c4e4:    40021004    ...@    DCD    1073876996
        0x0001c4e8:    00000010    ....    DCD    16
        0x0001c4ec:    40021008    ...@    DCD    1073877000
        0x0001c4f0:    0000001e    ....    DCD    30
        0x0001c4f4:    40021004    ...@    DCD    1073876996
        0x0001c4f8:    00000020     ...    DCD    32
        0x0001c4fc:    40021008    ...@    DCD    1073877000
        0x0001c500:    000001e0    ....    DCD    480
        0x0001c504:    40021004    ...@    DCD    1073876996
        0x0001c508:    00000040    @...    DCD    64
        0x0001c50c:    40021008    ...@    DCD    1073877000
        0x0001c510:    000001e0    ....    DCD    480
        0x0001c514:    40021004    ...@    DCD    1073876996
        0x0001c518:    00000080    ....    DCD    128
        0x0001c51c:    40021008    ...@    DCD    1073877000
        0x0001c520:    000001e0    ....    DCD    480
        0x0001c524:    40021004    ...@    DCD    1073876996
        0x0001c528:    00000100    ....    DCD    256
        0x0001c52c:    40021008    ...@    DCD    1073877000
        0x0001c530:    000001e0    ....    DCD    480
        0x0001c534:    40021004    ...@    DCD    1073876996
        0x0001c538:    00000200    ....    DCD    512
        0x0001c53c:    40021008    ...@    DCD    1073877000
        0x0001c540:    00001e00    ....    DCD    7680
        0x0001c544:    40021004    ...@    DCD    1073876996
        0x0001c548:    00000400    ....    DCD    1024
        0x0001c54c:    40021008    ...@    DCD    1073877000
        0x0001c550:    00001e00    ....    DCD    7680
        0x0001c554:    40021004    ...@    DCD    1073876996
        0x0001c558:    00000800    ....    DCD    2048
        0x0001c55c:    40021008    ...@    DCD    1073877000
        0x0001c560:    00001e00    ....    DCD    7680
        0x0001c564:    40021004    ...@    DCD    1073876996
        0x0001c568:    00001000    ....    DCD    4096
        0x0001c56c:    40021008    ...@    DCD    1073877000
        0x0001c570:    00001e00    ....    DCD    7680
        0x0001c574:    40021004    ...@    DCD    1073876996
        0x0001c578:    00002000    . ..    DCD    8192
        0x0001c57c:    40021008    ...@    DCD    1073877000
        0x0001c580:    00002000    . ..    DCD    8192
        0x0001c584:    40021004    ...@    DCD    1073876996
        0x0001c588:    00004000    .@..    DCD    16384
        0x0001c58c:    40021008    ...@    DCD    1073877000
        0x0001c590:    0001c000    ....    DCD    114688
        0x0001c594:    40021004    ...@    DCD    1073876996
        0x0001c598:    00008000    ....    DCD    32768
        0x0001c59c:    40021008    ...@    DCD    1073877000
        0x0001c5a0:    0001c000    ....    DCD    114688
        0x0001c5a4:    40021004    ...@    DCD    1073876996
        0x0001c5a8:    00010000    ....    DCD    65536
        0x0001c5ac:    40021008    ...@    DCD    1073877000
        0x0001c5b0:    0001c000    ....    DCD    114688
        0x0001c5b4:    40021004    ...@    DCD    1073876996
        0x0001c5b8:    00020000    ....    DCD    131072
        0x0001c5bc:    40021008    ...@    DCD    1073877000
        0x0001c5c0:    00020000    ....    DCD    131072
        0x0001c5c4:    40021004    ...@    DCD    1073876996
        0x0001c5c8:    00040000    ....    DCD    262144
        0x0001c5cc:    40021008    ...@    DCD    1073877000
        0x0001c5d0:    00040000    ....    DCD    262144
        0x0001c5d4:    40021004    ...@    DCD    1073876996
        0x0001c5d8:    00080000    ....    DCD    524288
        0x0001c5dc:    40021008    ...@    DCD    1073877000
        0x0001c5e0:    00080000    ....    DCD    524288
        0x0001c5e4:    40021004    ...@    DCD    1073876996
        0x0001c5e8:    00100000    ....    DCD    1048576
        0x0001c5ec:    40021008    ...@    DCD    1073877000
        0x0001c5f0:    00100000    ....    DCD    1048576
        0x0001c5f4:    40021004    ...@    DCD    1073876996
        0x0001c5f8:    00200000    .. .    DCD    2097152
        0x0001c5fc:    40021008    ...@    DCD    1073877000
        0x0001c600:    00200000    .. .    DCD    2097152
        0x0001c604:    40021004    ...@    DCD    1073876996
        0x0001c608:    00400000    ..@.    DCD    4194304
        0x0001c60c:    40021008    ...@    DCD    1073877000
        0x0001c610:    00400000    ..@.    DCD    4194304
        0x0001c614:    40021004    ...@    DCD    1073876996
        0x0001c618:    00800000    ....    DCD    8388608
        0x0001c61c:    40021008    ...@    DCD    1073877000
        0x0001c620:    00800000    ....    DCD    8388608
        0x0001c624:    40021004    ...@    DCD    1073876996
        0x0001c628:    01000000    ....    DCD    16777216
        0x0001c62c:    40021008    ...@    DCD    1073877000
        0x0001c630:    01000000    ....    DCD    16777216
        0x0001c634:    4002100c    ...@    DCD    1073877004
        0x0001c638:    00000001    ....    DCD    1
        0x0001c63c:    40021010    ...@    DCD    1073877008
        0x0001c640:    000000ff    ....    DCD    255
        0x0001c644:    4002100c    ...@    DCD    1073877004
        0x0001c648:    00000002    ....    DCD    2
        0x0001c64c:    40021010    ...@    DCD    1073877008
        0x0001c650:    000000ff    ....    DCD    255
        0x0001c654:    4002100c    ...@    DCD    1073877004
        0x0001c658:    00000004    ....    DCD    4
        0x0001c65c:    40021010    ...@    DCD    1073877008
        0x0001c660:    000000ff    ....    DCD    255
        0x0001c664:    4002100c    ...@    DCD    1073877004
        0x0001c668:    00000008    ....    DCD    8
        0x0001c66c:    40021010    ...@    DCD    1073877008
        0x0001c670:    000000ff    ....    DCD    255
        0x0001c674:    4002100c    ...@    DCD    1073877004
        0x0001c678:    00000010    ....    DCD    16
        0x0001c67c:    40021010    ...@    DCD    1073877008
        0x0001c680:    000000ff    ....    DCD    255
        0x0001c684:    4002100c    ...@    DCD    1073877004
        0x0001c688:    00000020     ...    DCD    32
        0x0001c68c:    40021010    ...@    DCD    1073877008
        0x0001c690:    000000ff    ....    DCD    255
        0x0001c694:    4002100c    ...@    DCD    1073877004
        0x0001c698:    00000040    @...    DCD    64
        0x0001c69c:    40021010    ...@    DCD    1073877008
        0x0001c6a0:    000000ff    ....    DCD    255
        0x0001c6a4:    4002100c    ...@    DCD    1073877004
        0x0001c6a8:    00000080    ....    DCD    128
        0x0001c6ac:    40021010    ...@    DCD    1073877008
        0x0001c6b0:    000000ff    ....    DCD    255
        0x0001c6b4:    4002100c    ...@    DCD    1073877004
        0x0001c6b8:    00000400    ....    DCD    1024
        0x0001c6bc:    40021010    ...@    DCD    1073877008
        0x0001c6c0:    00000400    ....    DCD    1024
    .L__const.adc_init.ADCIrttConfig
        0x0001c6c4:    00000401    ....    DCD    1025
        0x0001c6c8:    0000001e    ....    DCD    30
    gAxiMemRange
        0x0001c6cc:    10060000    ....    DCD    268828672
        0x0001c6d0:    00080000    ....    DCD    524288
        0x0001c6d4:    40021028    (..@    DCD    1073877032
        0x0001c6d8:    00000001    ....    DCD    1
        0x0001c6dc:    100e0000    ....    DCD    269352960
        0x0001c6e0:    00080000    ....    DCD    524288
        0x0001c6e4:    40021028    (..@    DCD    1073877032
        0x0001c6e8:    00000002    ....    DCD    2
        0x0001c6ec:    10160000    ....    DCD    269877248
        0x0001c6f0:    00020000    ....    DCD    131072
        0x0001c6f4:    4002105c    \..@    DCD    1073877084
        0x0001c6f8:    00000002    ....    DCD    2
        0x0001c6fc:    10180000    ....    DCD    270008320
        0x0001c700:    00040000    ....    DCD    262144
        0x0001c704:    4002105c    \..@    DCD    1073877084
        0x0001c708:    00000001    ....    DCD    1
        0x0001c70c:    101d0000    ....    DCD    270336000
        0x0001c710:    00008000    ....    DCD    32768
        0x0001c714:    4002107c    |..@    DCD    1073877116
        0x0001c718:    00000002    ....    DCD    2
        0x0001c71c:    101c0000    ....    DCD    270270464
        0x0001c720:    00010000    ....    DCD    65536
        0x0001c724:    4002107c    |..@    DCD    1073877116
        0x0001c728:    00000001    ....    DCD    1
    g_DefaultMcuMemCfg
        0x0001c72c:    07070102    ....    DCD    117899522
        0x0001c730:    0001        ..      DCW    1
    g_DefaultSRAMCfg
        0x0001c732:    0003        ..      DCW    3
        0x0001c734:    03000000    ....    DCD    50331648
    g_am_hal_bootrom_helper
        0x0001c738:    0800004d    M...    DCD    134217805
        0x0001c73c:    08000051    Q...    DCD    134217809
        0x0001c740:    08000055    U...    DCD    134217813
        0x0001c744:    08000059    Y...    DCD    134217817
        0x0001c748:    0800006d    m...    DCD    134217837
        0x0001c74c:    08000075    u...    DCD    134217845
        0x0001c750:    08000079    y...    DCD    134217849
        0x0001c754:    08000081    ....    DCD    134217857
        0x0001c758:    08000099    ....    DCD    134217881
        0x0001c75c:    0800009d    ....    DCD    134217885
    g_sADC_Cfg
        0x0001c760:    07000102    ....    DCD    117440770
        0x0001c764:    00010100    ....    DCD    65792
    __tagsym$$used.7
    sGlobalAccess
        0x0001c768:    0001cadc    ....    DCD    117468
        0x0001c76c:    0001cac8    ....    DCD    117448
        0x0001c770:    0001caa0    ....    DCD    117408
        0x0001c774:    0001cab4    ....    DCD    117428
        0x0001c778:    10060054    T...    DCD    268828756
        0x0001c77c:    10060068    h...    DCD    268828776
        0x0001c780:    1006007c    |...    DCD    268828796
    .L.str.16
        0x0001c784:    4d495254    TRIM    DCD    1296650836
        0x0001c788:    2044454d    MED     DCD    541345101
        0x0001c78c:    504d4554    TEMP    DCD    1347241300
        0x0001c790:    20202020            DCD    538976288
        0x0001c794:    2e25203d    = %.    DCD    774185021
        0x0001c798:    4b206633    3f K    DCD    1260414515
        0x0001c79c:    2e252820     (%.    DCD    774187040
        0x0001c7a0:    43206633    3f C    DCD    1126196787
        0x0001c7a4:    0a29        ).      DCW    2601
        0x0001c7a6:    00          .       DCB    0
    .L.str.25
        0x0001c7a7:    20                  DCB    32
        0x0001c7a8:    202a2a2a    ***     DCD    539634218
        0x0001c7ac:    74746142    Batt    DCD    1953784130
        0x0001c7b0:    20797265    ery     DCD    544830053
        0x0001c7b4:    64616f4c    Load    DCD    1684107084
        0x0001c7b8:    73655220     Res    DCD    1936020000
        0x0001c7bc:    6f747369    isto    DCD    1869902697
        0x0001c7c0:    61772072    r wa    DCD    1635197042
        0x0001c7c4:    6e6f2073    s on    DCD    1852776563
        0x0001c7c8:    7554202e    . Tu    DCD    1968447534
        0x0001c7cc:    6e696e72    rnin    DCD    1852403314
        0x0001c7d0:    464f2067    g OF    DCD    1179590759
        0x0001c7d4:    000a2e46    F...    DCD    667206
    .L.str.26
        0x0001c7d8:    2a2a2a20     ***    DCD    707406368
        0x0001c7dc:    74614220     Bat    DCD    1952530976
        0x0001c7e0:    79726574    tery    DCD    2037540212
        0x0001c7e4:    616f4c20     Loa    DCD    1634683936
        0x0001c7e8:    65522064    d Re    DCD    1699881060
        0x0001c7ec:    74736973    sist    DCD    1953720691
        0x0001c7f0:    7720726f    or w    DCD    1998615151
        0x0001c7f4:    6f207361    as o    DCD    1864397665
        0x0001c7f8:    202e6666    ff.     DCD    539911782
        0x0001c7fc:    6e727554    Turn    DCD    1852994900
        0x0001c800:    20676e69    ing     DCD    543649385
        0x0001c804:    0a2e4e4f    ON..    DCD    170806863
        0x0001c808:    00          .       DCB    0
    .L.str.3
        0x0001c809:    457272      Err     DCB    69,114,114
        0x0001c80c:    2d20726f    or -    DCD    757101167
        0x0001c810:    616e6520     ena    DCD    1634624800
        0x0001c814:    6e696c62    blin    DCD    1852402786
        0x0001c818:    44412067    g AD    DCD    1145118823
        0x0001c81c:    61662043    C fa    DCD    1634082883
        0x0001c820:    64656c69    iled    DCD    1684368489
        0x0001c824:    0a2e        ..      DCW    2606
        0x0001c826:    00          .       DCB    0
    .L.str.2
        0x0001c827:    61          a       DCB    97
        0x0001c828:    695f6364    dc_i    DCD    1767859044
        0x0001c82c:    2874696e    nit(    DCD    678717806
        0x0001c830:    72452029    ) Er    DCD    1917132841
        0x0001c834:    20726f72    ror     DCD    544370546
        0x0001c838:    6f63202d    - co    DCD    1868767277
        0x0001c83c:    6769666e    nfig    DCD    1734960750
        0x0001c840:    6e697275    urin    DCD    1852404341
        0x0001c844:    44412067    g AD    DCD    1145118823
        0x0001c848:    61662043    C fa    DCD    1634082883
        0x0001c84c:    64656c69    iled    DCD    1684368489
        0x0001c850:    0a2e        ..      DCW    2606
        0x0001c852:    00          .       DCB    0
    .L.str
        0x0001c853:    61          a       DCB    97
        0x0001c854:    695f6364    dc_i    DCD    1767859044
        0x0001c858:    2874696e    nit(    DCD    678717806
        0x0001c85c:    72452029    ) Er    DCD    1917132841
        0x0001c860:    20726f72    ror     DCD    544370546
        0x0001c864:    6572202d    - re    DCD    1701978157
        0x0001c868:    76726573    serv    DCD    1987208563
        0x0001c86c:    6f697461    atio    DCD    1869182049
        0x0001c870:    666f206e    n of    DCD    1718558830
        0x0001c874:    65687420     the    DCD    1701344288
        0x0001c878:    43444120     ADC    DCD    1128546592
        0x0001c87c:    736e6920     ins    DCD    1936615712
        0x0001c880:    636e6174    tanc    DCD    1668178292
        0x0001c884:    61662065    e fa    DCD    1634082917
        0x0001c888:    64656c69    iled    DCD    1684368489
        0x0001c88c:    0a2e        ..      DCW    2606
        0x0001c88e:    00          .       DCB    0
    .L.str.1
        0x0001c88f:    61          a       DCB    97
        0x0001c890:    695f6364    dc_i    DCD    1767859044
        0x0001c894:    2874696e    nit(    DCD    678717806
        0x0001c898:    72452029    ) Er    DCD    1917132841
        0x0001c89c:    20726f72    ror     DCD    544370546
        0x0001c8a0:    4441202d    - AD    DCD    1145118765
        0x0001c8a4:    6f702043    C po    DCD    1869619267
        0x0001c8a8:    20726577    wer     DCD    544367991
        0x0001c8ac:    66206e6f    on f    DCD    1713401455
        0x0001c8b0:    656c6961    aile    DCD    1701603681
        0x0001c8b4:    000a2e64    d...    DCD    667236
    .L.str.4
        0x0001c8b8:    20434441    ADC     DCD    541279297
        0x0001c8bc:    54414256    VBAT    DCD    1413562966
        0x0001c8c0:    6e612054    T an    DCD    1851859028
        0x0001c8c4:    65542064    d Te    DCD    1700012132
        0x0001c8c8:    7265706d    mper    DCD    1919250541
        0x0001c8cc:    72757461    atur    DCD    1920300129
        0x0001c8d0:    65532065    e Se    DCD    1699946597
        0x0001c8d4:    6e69736e    nsin    DCD    1852404590
        0x0001c8d8:    78452067    g Ex    DCD    2017796199
        0x0001c8dc:    6c706d61    ampl    DCD    1819307361
        0x0001c8e0:    000a2e65    e...    DCD    667237
    .L.str.19
        0x0001c8e4:    65746f4e    Note    DCD    1702129486
        0x0001c8e8:    74202d20     - t    DCD    1948265760
        0x0001c8ec:    65736568    hese    DCD    1702061416
        0x0001c8f0:    69727420     tri    DCD    1769108512
        0x0001c8f4:    6176206d    m va    DCD    1635131501
        0x0001c8f8:    7365756c    lues    DCD    1936029036
        0x0001c8fc:    65726120     are    DCD    1701994784
        0x0001c900:    73252720     '%s    DCD    1931814688
        0x0001c904:    61762027    ' va    DCD    1635131431
        0x0001c908:    7365756c    lues    DCD    1936029036
        0x0001c90c:    0a2e        ..      DCW    2606
        0x0001c90e:    00          .       DCB    0
    .L.str.7
        0x0001c90f:    41          A       DCB    65
        0x0001c910:    43204344    DC C    DCD    1126187844
        0x0001c914:    20204746    FG      DCD    538986310
        0x0001c918:    30203d20     = 0    DCD    807419168
        0x0001c91c:    38302578    x%08    DCD    942679416
        0x0001c920:    0a58        X.      DCW    2648
        0x0001c922:    00          .       DCB    0
    .L.str.8
        0x0001c923:    41          A       DCB    65
        0x0001c924:    53204344    DC S    DCD    1394623300
        0x0001c928:    30544f4c    LOT0    DCD    810831692
        0x0001c92c:    30203d20     = 0    DCD    807419168
        0x0001c930:    38302578    x%08    DCD    942679416
        0x0001c934:    0a58        X.      DCW    2648
        0x0001c936:    00          .       DCB    0
    .L.str.9
        0x0001c937:    41          A       DCB    65
        0x0001c938:    53204344    DC S    DCD    1394623300
        0x0001c93c:    31544f4c    LOT1    DCD    827608908
        0x0001c940:    30203d20     = 0    DCD    807419168
        0x0001c944:    38302578    x%08    DCD    942679416
        0x0001c948:    0a58        X.      DCW    2648
        0x0001c94a:    00          .       DCB    0
    .L.str.10
        0x0001c94b:    41          A       DCB    65
        0x0001c94c:    53204344    DC S    DCD    1394623300
        0x0001c950:    32544f4c    LOT2    DCD    844386124
        0x0001c954:    30203d20     = 0    DCD    807419168
        0x0001c958:    38302578    x%08    DCD    942679416
        0x0001c95c:    0a58        X.      DCW    2648
        0x0001c95e:    00          .       DCB    0
    .L.str.11
        0x0001c95f:    41          A       DCB    65
        0x0001c960:    53204344    DC S    DCD    1394623300
        0x0001c964:    33544f4c    LOT3    DCD    861163340
        0x0001c968:    30203d20     = 0    DCD    807419168
        0x0001c96c:    38302578    x%08    DCD    942679416
        0x0001c970:    0a58        X.      DCW    2648
        0x0001c972:    00          .       DCB    0
    .L.str.12
        0x0001c973:    41          A       DCB    65
        0x0001c974:    53204344    DC S    DCD    1394623300
        0x0001c978:    34544f4c    LOT4    DCD    877940556
        0x0001c97c:    30203d20     = 0    DCD    807419168
        0x0001c980:    38302578    x%08    DCD    942679416
        0x0001c984:    0a58        X.      DCW    2648
        0x0001c986:    00          .       DCB    0
    .L.str.13
        0x0001c987:    41          A       DCB    65
        0x0001c988:    53204344    DC S    DCD    1394623300
        0x0001c98c:    35544f4c    LOT5    DCD    894717772
        0x0001c990:    30203d20     = 0    DCD    807419168
        0x0001c994:    38302578    x%08    DCD    942679416
        0x0001c998:    0a58        X.      DCW    2648
        0x0001c99a:    00          .       DCB    0
    .L.str.14
        0x0001c99b:    41          A       DCB    65
        0x0001c99c:    53204344    DC S    DCD    1394623300
        0x0001c9a0:    36544f4c    LOT6    DCD    911494988
        0x0001c9a4:    30203d20     = 0    DCD    807419168
        0x0001c9a8:    38302578    x%08    DCD    942679416
        0x0001c9ac:    0a58        X.      DCW    2648
        0x0001c9ae:    00          .       DCB    0
    .L.str.15
        0x0001c9af:    41          A       DCB    65
        0x0001c9b0:    53204344    DC S    DCD    1394623300
        0x0001c9b4:    37544f4c    LOT7    DCD    928272204
        0x0001c9b8:    30203d20     = 0    DCD    807419168
        0x0001c9bc:    38302578    x%08    DCD    942679416
        0x0001c9c0:    0a58        X.      DCW    2648
        0x0001c9c2:    00          .       DCB    0
    .L.str.6
        0x0001c9c3:    41          A       DCB    65
        0x0001c9c4:    52204344    DC R    DCD    1377846084
        0x0001c9c8:    53494745    EGIS    DCD    1397311301
        0x0001c9cc:    53524554    TERS    DCD    1397900628
        0x0001c9d0:    30204020     @ 0    DCD    807419936
        0x0001c9d4:    38302578    x%08    DCD    942679416
        0x0001c9d8:    0a58        X.      DCW    2648
        0x0001c9da:    00          .       DCB    0
    .L.str.24
        0x0001c9db:    45          E       DCB    69
        0x0001c9dc:    726f7272    rror    DCD    1919906418
        0x0001c9e0:    6d61203a    : am    DCD    1835081786
        0x0001c9e4:    6c61685f    _hal    DCD    1818323039
        0x0001c9e8:    6364615f    _adc    DCD    1667522911
        0x0001c9ec:    6e6f635f    _con    DCD    1852793695
        0x0001c9f0:    6c6f7274    trol    DCD    1819243124
        0x0001c9f4:    74657220     ret    DCD    1952805408
        0x0001c9f8:    656e7275    urne    DCD    1701737077
        0x0001c9fc:    64252064    d %d    DCD    1680154724
        0x0001ca00:    000a        ..      DCW    10
    .L.str.18
        0x0001ca02:    5254        TR      DCW    21076
        0x0001ca04:    454d4d49    IMME    DCD    1162693961
        0x0001ca08:    664f2044    D Of    DCD    1716461636
        0x0001ca0c:    74657366    fset    DCD    1952805734
        0x0001ca10:    203d2020      =     DCD    540876832
        0x0001ca14:    66332e25    %.3f    DCD    1714630181
        0x0001ca18:    000a        ..      DCW    10
    .L.str.17
        0x0001ca1a:    5254        TR      DCW    21076
        0x0001ca1c:    454d4d49    IMME    DCD    1162693961
        0x0001ca20:    4f562044    D VO    DCD    1331044420
        0x0001ca24:    4741544c    LTAG    DCD    1195463756
        0x0001ca28:    203d2045    E =     DCD    540876869
        0x0001ca2c:    66332e25    %.3f    DCD    1714630181
    .L.str.5
        0x0001ca30:    000a        ..      DCW    10
    .L.str.23
        0x0001ca32:    202c        ,       DCW    8236
        0x0001ca34:    4d455420     TEM    DCD    1296389152
        0x0001ca38:    30282050    P (0    DCD    807936080
        0x0001ca3c:    34302578    x%04    DCD    875570552
        0x0001ca40:    3d202958    X) =    DCD    1025517912
        0x0001ca44:    322e2520     %.2    DCD    841884960
        0x0001ca48:    2c432066    f C,    DCD    742596710
        0x0001ca4c:    322e2520     %.2    DCD    841884960
        0x0001ca50:    00462066    f F.    DCD    4595814
    .L.str.22
        0x0001ca54:    54414256    VBAT    DCD    1413562966
        0x0001ca58:    30282054    T (0    DCD    807936084
        0x0001ca5c:    34302578    x%04    DCD    875570552
        0x0001ca60:    3d202958    X) =    DCD    1025517912
        0x0001ca64:    332e2520     %.3    DCD    858662176
        0x0001ca68:    00562066    f V.    DCD    5644390
    .L.str.20
        0x0001ca6c:    696c6163    cali    DCD    1768710499
        0x0001ca70:    74617262    brat    DCD    1952543330
        0x0001ca74:    6465        ed      DCW    25701
        0x0001ca76:    00          .       DCB    0
    .L.str.21
        0x0001ca77:    75          u       DCB    117
        0x0001ca78:    6c61636e    ncal    DCD    1818321774
        0x0001ca7c:    61726269    ibra    DCD    1634886249
        0x0001ca80:    20646574    ted     DCD    543450484
        0x0001ca84:    61666564    defa    DCD    1634100580
        0x0001ca88:    00746c75    ult.    DCD    7629941
    .L.str
        0x0001ca8c:    0a0a0a0a    ....    DCD    168430090
        0x0001ca90:    0a0a0a0a    ....    DCD    168430090
        0x0001ca94:    0a0a0a0a    ....    DCD    168430090
        0x0001ca98:    0a0a0a0a    ....    DCD    168430090
        0x0001ca9c:    00000a0a    ....    DCD    2570
    __tagsym$$used.1
    ui32DSP0Allowed
        0x0001caa0:    00000000    ....    DCD    0
        0x0001caa4:    00000000    ....    DCD    0
        0x0001caa8:    00000000    ....    DCD    0
        0x0001caac:    00000000    ....    DCD    0
        0x0001cab0:    00000000    ....    DCD    0
    __tagsym$$used.2
    ui32DSP1Allowed
        0x0001cab4:    00000000    ....    DCD    0
        0x0001cab8:    00000000    ....    DCD    0
        0x0001cabc:    00000000    ....    DCD    0
        0x0001cac0:    00000000    ....    DCD    0
        0x0001cac4:    00000000    ....    DCD    0
    __tagsym$$used.0
    ui32MCUAllowed
        0x0001cac8:    00000000    ....    DCD    0
        0x0001cacc:    00000000    ....    DCD    0
        0x0001cad0:    00000000    ....    DCD    0
        0x0001cad4:    00000000    ....    DCD    0
        0x0001cad8:    00000000    ....    DCD    0
    __tagsym$$used.3
    ui32SharedAccess
        0x0001cadc:    00000000    ....    DCD    0
        0x0001cae0:    00000000    ....    DCD    0
        0x0001cae4:    00000000    ....    DCD    0
        0x0001cae8:    00000000    ....    DCD    0
        0x0001caec:    00000000    ....    DCD    0
    Region$$Table$$Base
        0x0001caf0:    0001cb20     ...    DCD    117536
        0x0001caf4:    10000000    ....    DCD    268435456
        0x0001caf8:    000001f8    ....    DCD    504
        0x0001cafc:    00018270    p...    DCD    98928
        0x0001cb00:    0001cc48    H...    DCD    117832
        0x0001cb04:    10060000    ....    DCD    268828672
        0x0001cb08:    00000090    ....    DCD    144
        0x0001cb0c:    000182cc    ....    DCD    99020
        0x0001cb10:    0001cc48    H...    DCD    117832
        0x0001cb14:    100001f8    ....    DCD    268435960
        0x0001cb18:    00001788    ....    DCD    6024
        0x0001cb1c:    000182e8    ....    DCD    99048
    Region$$Table$$Limit

** Section #2 'MCU_TCM' (SHT_PROGBITS) [SHF_ALLOC + SHF_WRITE]
    Size   : 296 bytes (alignment 16)
    Address: 0x10000000

    Data section was compressed (Original size: 504 bytes)

    0x10000000:   5a 00 00 00 04 00 00 00 1e 00 00 00 04 00 00 00    Z...............
    0x10000010:   5b 00 00 00 04 00 00 00 92 24 01 80 20 01 00 00    [........$.. ...
    0x10000020:   6d db 02 40 d1 02 00 00 53 e0 00 00 00 04 00 00    m..@....S.......
    0x10000030:   01 00 00 00 44 f2 04 01 c4 f2 01 01 c3 22 4a 60    ....D........"J`
    0x10000040:   05 22 cb 6c 43 f0 10 03 cb 64 0a 65 01 23 cb 60    .".lC....d.e.#.`
    0x10000050:   00 22 0a 61 4a 61 8a 61 00 f0 0f 00 0b 68 43 f0    .".aJa.a.....hC.
    0x10000060:   08 03 0b 60 0a 68 22 f0 08 02 0a 60 09 22 0b 6d    ...`.h"....`.".m
    0x10000070:   62 f3 95 23 0b 65 06 22 0b 6d 62 f3 04 03 0b 65    b..#.e.".mb....e
    0x10000080:   0a 68 42 f0 08 02 0a 60 0b 68 23 f0 08 03 0b 60    .hB....`.h#....`
    0x10000090:   ca 6e 0b 68 23 f0 08 03 12 09 0b 60 40 ea 02 10    .n.h#......`@...
    0x100000a0:   c8 60 05 20 0a 6d 60 f3 04 02 0a 65 08 68 40 f0    .`. .m`....e.h@.
    0x100000b0:   08 00 08 60 0a 68 22 f0 08 02 0a 60 00 22 08 6d    ...`.h"....`.".m
    0x100000c0:   6f f3 95 20 08 65 ca 60 05 20 0a 6d 60 f3 04 02    o.. .e.`. .m`...
    0x100000d0:   0a 65 08 68 40 f0 08 00 08 60 0a 68 22 f0 08 02    .e.h@....`.h"...
    0x100000e0:   0a 60 00 22 c8 6c 20 f0 10 00 c8 64 4a 60 70 47    .`.".l ....dJ`pG
    0x100000f0:   44 f2 04 01 c4 f2 01 01 c3 20 48 60 05 20 ca 6c    D........ H`. .l
    0x10000100:   42 f0 10 02 ca 64 08 65 01 22 ca 60 00 20 08 61    B....d.e.".`. .a
    0x10000110:   48 61 88 61 0a 68 42 f0 08 02 0a 60 08 68 20 f0    Ha.a.hB....`.h .
    0x10000120:   08 00 08 60 09 20 0a 6d 60 f3 95 22 0a 65 06 20    ...`. .m`..".e. 
    0x10000130:   0a 6d 60 f3 04 02 0a 65 08 68 40 f0 08 00 08 60    .m`....e.h@....`
    0x10000140:   45 f6 a0 00 0a 68 22 f0 08 02 0a 60 c0 f2 10 00    E....h"....`....
    0x10000150:   ca 6e 02 f0 0f 02 02 43 ca 60 05 20 0a 6d 60 f3    .n.....C.`. .m`.
    0x10000160:   04 02 0a 65 08 68 40 f0 08 00 08 60 0a 68 22 f0    ...e.h@....`.h".
    0x10000170:   08 02 0a 60 00 22 08 6d 6f f3 95 20 08 65 ca 60    ...`.".mo.. .e.`
    0x10000180:   05 20 0a 6d 60 f3 04 02 0a 65 08 68 40 f0 08 00    . .m`....e.h@...
    0x10000190:   08 60 0a 68 22 f0 08 02 0a 60 00 22 c8 6c 20 f0    .`.h"....`.".l .
    0x100001a0:   10 00 c8 64 4a 60 00 20 70 47 00 00 ff ff ff ff    ...dJ`. pG......
    0x100001b0:   ff ff ff ff ff ff ff ff ff ff ff ff ff ff ff ff    ................
    0x100001c0:   08 1e 0c 40 18 1e 0c 40 35 00 00 10 f1 00 00 10    ...@...@5.......
    0x100001d0:   08 60 bf f3 4f 8f 30 bf bf f3 6f 8f 70 47 00 bf    .`..O.0...o.pG..
    0x100001e0:   00 00 00 00 00 00 00 00 00 00 00 00 00 00 00 00    ................
    0x100001f0:   d1 01 00 10 00 00 00 00                            ........


** Section #3 'MCU_TCM' (SHT_NOBITS) [SHF_ALLOC + SHF_WRITE]
    Size   : 6024 bytes (alignment 8)
    Address: 0x100001f8


** Section #4 'SHARED_SRAM' (SHT_PROGBITS) [SHF_ALLOC + SHF_WRITE]
    Size   : 144 bytes (alignment 4)
    Address: 0x10060000

    0x10060000:   68 c7 01 00 00 00 00 00 00 00 00 00 00 00 00 00    h...............
    0x10060010:   00 00 00 00 00 00 00 00 00 00 00 00 00 00 00 00    ................
    0x10060020:   00 00 00 00 00 00 00 00 00 00 00 00 00 00 00 00    ................
    0x10060030:   00 00 00 00 00 00 00 00 00 00 00 00 00 00 00 00    ................
    0x10060040:   00 00 00 00 00 00 00 00 00 00 00 00 00 00 00 00    ................
    0x10060050:   00 00 00 00 00 00 00 00 00 00 00 00 00 00 00 00    ................
    0x10060060:   00 00 00 00 00 00 00 00 00 00 00 00 00 00 00 00    ................
    0x10060070:   00 00 00 00 00 00 00 00 00 00 00 00 00 00 00 00    ................
    0x10060080:   00 00 00 00 00 00 00 00 00 00 00 00 00 00 00 00    ................


** Section #5 '.debug_abbrev' (SHT_PROGBITS)
    Size   : 1541 bytes


** Section #6 '.debug_frame' (SHT_PROGBITS)
    Size   : 6072 bytes


** Section #7 '.debug_info' (SHT_PROGBITS)
    Size   : 20769 bytes


** Section #8 '.debug_line' (SHT_PROGBITS)
    Size   : 7434 bytes


** Section #9 '.debug_str' (SHT_PROGBITS)
    Size   : 15659 bytes


** Section #10 '.debug_ranges' (SHT_PROGBITS)
    Size   : 328 bytes


** Section #11 '.symtab' (SHT_SYMTAB)
    Size   : 9376 bytes (alignment 4)
    String table #12 '.strtab'
    Last local symbol no. 294

    Symbol table .symtab (585 symbols, 294 local)

      #  Symbol Name                Value      Bind  Sec  Type  Vis  Size
    ========================================================================

      1  $d                         0x00018000   Lc    1   --   De 
      2  $t                         0x00018200   Lc    1   --   De 
      3  $d                         0x00018230   Lc    1   --   De 
      4  $t                         0x00018234   Lc    1   --   De 
      5  $d                         0x00018268   Lc    1   --   De 
      6  $t                         0x00018270   Lc    1   --   De 
      7  $d                         0x0001833a   Lc    1   --   De 
      8  $t                         0x00018348   Lc    1   --   De 
      9  $d                         0x000183b0   Lc    1   --   De 
     10  $t                         0x000183b4   Lc    1   --   De 
     11  $d                         0x000183bc   Lc    1   --   De 
     12  $t                         0x000183c0   Lc    1   --   De 
     13  $t.7                       0x000183c4   Lc    1   --   De 
     14  $d.4                       0x0001845c   Lc    1   --   De 
     15  $t.27                      0x00018460   Lc    1   --   De 
     16  $d.11                      0x00018cd6   Lc    1   --   De 
     17  $t.12                      0x00018cda   Lc    1   --   De 
     18  $d.13                      0x00018de8   Lc    1   --   De 
     19  $t.14                      0x00018df8   Lc    1   --   De 
     20  $d.2                       0x000197e8   Lc    1   --   De 
     21  $t.4                       0x000197f8   Lc    1   --   De 
     22  $d.6                       0x0001983e   Lc    1   --   De 
     23  $t.7                       0x00019844   Lc    1   --   De 
     24  $d.23                      0x00019ab8   Lc    1   --   De 
     25  $t.24                      0x00019abc   Lc    1   --   De 
     26  $d.5                       0x0001a018   Lc    1   --   De 
     27  $t.6                       0x0001a020   Lc    1   --   De 
     28  $d.9                       0x0001a402   Lc    1   --   De 
     29  $t.10                      0x0001a406   Lc    1   --   De 
     30  $d.4                       0x0001ad9a   Lc    1   --   De 
     31  $t.5                       0x0001ae00   Lc    1   --   De 
     32  $d.3                       0x0001bdf0   Lc    1   --   De 
     33  $t.9                       0x0001be08   Lc    1   --   De 
     34  $d.22                      0x0001bf88   Lc    1   --   De 
     35  $t.7                       0x0001bf98   Lc    1   --   De 
     36  $d.1                       0x0001bffe   Lc    1   --   De 
     37  $t.2                       0x0001c00e   Lc    1   --   De 
     38  $t                         0x0001c280   Lc    1   --   De 
     39  $d                         0x0001c2d0   Lc    1   --   De 
     40  $t                         0x0001c2d4   Lc    1   --   De 
     41  $d                         0x0001c352   Lc    1   --   De 
     42  $t                         0x0001c356   Lc    1   --   De 
     43  $d                         0x0001c3c8   Lc    1   --   De 
     44  $t                         0x0001c3cc   Lc    1   --   De 
     45  $d                         0x0001c44e   Lc    1   --   De 
     46  $t                         0x0001c452   Lc    1   --   De 
     47  $d.realdata                0x0001c492   Lc    1   --   De 
     48  $d.realdata                0x10000000   Lc    2   --   De 
     49  $d.realdata                0x10060000   Lc    4   --   De 
     50  adc_vbatt.c                0x00000000   Lc  Abs  File  De 
     51  __NVIC_SetPriority         0x0001859d   Lc    1  Code  De   0x42
     52  __NVIC_EnableIRQ           0x0001856d   Lc    1  Code  De   0x30
     53  g_ADCHandle                0x100004a0   Lc    3  Data  De   0x4
     54  .L.str.16                  0x0001c784   Lc    1  Data  De   0x23
     55  .L.str.25                  0x0001c7a7   Lc    1  Data  De   0x31
     56  .L.str.26                  0x0001c7d8   Lc    1  Data  De   0x31
     57  .L.str.3                   0x0001c809   Lc    1  Data  De   0x1e
     58  .L.str.2                   0x0001c827   Lc    1  Data  De   0x2c
     59  .L.str                     0x0001c853   Lc    1  Data  De   0x3c
     60  .L.str.1                   0x0001c88f   Lc    1  Data  De   0x29
     61  .L.str.4                   0x0001c8b8   Lc    1  Data  De   0x2c
     62  .L.str.19                  0x0001c8e4   Lc    1  Data  De   0x2b
     63  .L.str.7                   0x0001c90f   Lc    1  Data  De   0x14
     64  .L.str.8                   0x0001c923   Lc    1  Data  De   0x14
     65  .L.str.9                   0x0001c937   Lc    1  Data  De   0x14
     66  .L.str.10                  0x0001c94b   Lc    1  Data  De   0x14
     67  .L.str.11                  0x0001c95f   Lc    1  Data  De   0x14
     68  .L.str.12                  0x0001c973   Lc    1  Data  De   0x14
     69  .L.str.13                  0x0001c987   Lc    1  Data  De   0x14
     70  .L.str.14                  0x0001c99b   Lc    1  Data  De   0x14
     71  .L.str.15                  0x0001c9af   Lc    1  Data  De   0x14
     72  .L.str.6                   0x0001c9c3   Lc    1  Data  De   0x18
     73  .L.str.24                  0x0001c9db   Lc    1  Data  De   0x27
     74  .L.str.18                  0x0001ca02   Lc    1  Data  De   0x18
     75  .L.str.17                  0x0001ca1a   Lc    1  Data  De   0x18
     76  .L.str.5                   0x0001ca30   Lc    1  Data  De   0x2
     77  .L.str.23                  0x0001ca32   Lc    1  Data  De   0x22
     78  .L.str.22                  0x0001ca54   Lc    1  Data  De   0x18
     79  .L.str.20                  0x0001ca6c   Lc    1  Data  De   0xb
     80  .L.str.21                  0x0001ca77   Lc    1  Data  De   0x15
     81  g_sADC_Cfg                 0x0001c760   Lc    1  Data  De   0x7
     82  .L__const.adc_init.ADCIrttConfig
                                    0x0001c6c4   Lc    1  Data  De   0x8
     83  __tagsym$$used.0           0x10060004   Lc    4   --   De 
     84  am_resources.c             0x00000000   Lc  Abs  File  De 
     85  __tagsym$$used.0           0x0001cac8   Lc    1   --   De 
     86  __tagsym$$used.1           0x0001caa0   Lc    1   --   De 
     87  __tagsym$$used.2           0x0001cab4   Lc    1   --   De 
     88  __tagsym$$used.3           0x0001cadc   Lc    1   --   De 
     89  __tagsym$$used.4           0x10060054   Lc    4   --   De 
     90  __tagsym$$used.5           0x10060068   Lc    4   --   De 
     91  __tagsym$$used.6           0x1006007c   Lc    4   --   De 
     92  __tagsym$$used.7           0x0001c768   Lc    1   --   De 
     93  __tagsym$$used.8           0x10060000   Lc    4   --   De 
     94  am_devices_led.c           0x00000000   Lc  Abs  File  De 
     95  am_util_delay.c            0x00000000   Lc  Abs  File  De 
     96  am_util_faultisr.c         0x00000000   Lc  Abs  File  De 
     97  am_util_stdio.c            0x00000000   Lc  Abs  File  De 
     98  decstr_to_int              0x0001b4ad   Lc    1  Code  De   0xa6
     99  simple_strlen              0x0001bf99   Lc    1  Code  De   0x36
    100  padbuffer                  0x0001beb5   Lc    1  Code  De   0x50
    101  ndigits_in_hex             0x0001be09   Lc    1  Code  De   0x3e
    102  uint64_to_hexstr           0x0001c139   Lc    1  Code  De   0xc0
    103  ndigits_in_u64             0x0001be79   Lc    1  Code  De   0x3c
    104  uint64_to_str              0x0001c1f9   Lc    1  Code  De   0x88
    105  ndigits_in_i64             0x0001be49   Lc    1  Code  De   0x30
    106  ftoa                       0x0001b66d   Lc    1  Code  De   0x230
    107  divu64_10                  0x0001b555   Lc    1  Code  De   0x118
    108  g_bTxtXlate                0x100004ed   Lc    3  Data  De   0x1
    109  g_prfbuf                   0x100004f8   Lc    3  Data  De   0x400
    110  .L.str                     0x0001ca8c   Lc    1  Data  De   0x13
    111  ../keil6/startup_keil6.s   0x00000000   Lc  Abs  File  De 
    112  STACK                      0x10000980   Lc    3  Sect  De   0x1000
    113  StackMem                   0x10000980   Lc    3  Data  De 
    114  HEAP                       0x10000980   Lc    3  Sect  De 
    115  HeapMem                    0x10000980   Lc    3  Data  De 
    116  RESET                      0x00018000   Lc    1  Sect  De   0x234
    117  $v0                        0x00018200   Lc    1   --   De 
    118  am_cryptosec_isr           0x0001822f   Lc    1  Code  De 
    119  am_default_isr             0x0001822f   Lc    1  Code  De   0x2
    120  .text                      0x00018330   Lc    1  Sect  De   0x18
    121  $v0                        0x00018330   Lc    1   --   De 
    122  am_bsp.c                   0x00000000   Lc  Abs  File  De 
    123  g_ePrintInterface          0x100004ef   Lc    3  Data  De   0x1
    124  am_bsp_pins.c              0x00000000   Lc  Abs  File  De 
    125  am_hal_cachectrl.c         0x00000000   Lc  Abs  File  De 
    126  gAxiMemRange               0x0001c6cc   Lc    1  Data  De   0x60
    127  ui32AxiBufPwrStatReg       0x10000978   Lc    3  Data  De   0x4
    128  ui32AxiBufPwrStatMask      0x10000974   Lc    3  Data  De   0x4
    129  p64BAxiMem                 0x10000954   Lc    3  Data  De   0x4
    130  am_hal_fault.c             0x00000000   Lc  Abs  File  De 
    131  am_hal_interrupt.c         0x00000000   Lc  Abs  File  De 
    132  am_hal_mcuctrl.c           0x00000000   Lc  Abs  File  De 
    133  am_hal_sysctrl.c           0x00000000   Lc  Abs  File  De 
    134  am_hal_utils.c             0x00000000   Lc  Abs  File  De 
    135  am_hal_adc.c               0x00000000   Lc  Abs  File  De 
    136  ForceFIFOpop               0x000183c5   Lc    1  Code  De   0x76
    137  sample_correction_apply    0x0001bf05   Lc    1  Code  De   0x94
    138  priv_temp_trims            0x10000964   Lc    3  Data  De   0x10
    139  priv_correction_trims      0x10000958   Lc    3  Data  De   0xc
    140  g_fTempEqnTerms            0x100004f0   Lc    3  Data  De   0x4
    141  am_hal_gpio.c              0x00000000   Lc  Abs  File  De 
    142  g_ui32DSpintbl             0x000197e8   Lc    1   --   De 
    143  am_hal_bootrom_helper.c    0x00000000   Lc  Abs  File  De 
    144  am_hal_itm.c               0x00000000   Lc  Abs  File  De 
    145  am_hal_mram.c              0x00000000   Lc  Abs  File  De 
    146  g_program_mram_tmc_tcycrd  0x10000034   Lc    2  Data  De   0xbc
    147  g_recover_broken_mram_tmc_r_timer1
                                    0x100000f0   Lc    2  Data  De   0xbc
    148  am_hal_mspi.c              0x00000000   Lc  Abs  File  De 
    149  am_hal_rtc.c               0x00000000   Lc  Abs  File  De 
    150  am_hal_tpiu.c              0x00000000   Lc  Abs  File  De 
    151  am_hal_uart.c              0x00000000   Lc  Abs  File  De 
    152  am_hal_dcu.c               0x00000000   Lc  Abs  File  De 
    153  am_hal_pin.c               0x00000000   Lc  Abs  File  De 
    154  am_hal_pwrctrl.c           0x00000000   Lc  Abs  File  De 
    155  VDDF_simobuck_boost        0x00018499   Lc    1  Code  De   0xd4
    156  buck_interval_check        0x0001b2e9   Lc    1  Code  De   0x136
    157  TrimVersionGet             0x00018461   Lc    1  Code  De   0x38
    158  storeAndWFIRAM             0x100001d0   Lc    2  Data  De   0x20
    159  am_hal_cmdq.c              0x00000000   Lc  Abs  File  De 
    160  am_hal_queue.c             0x00000000   Lc  Abs  File  De 
    161  am_hal_timer.c             0x00000000   Lc  Abs  File  De 
    162  TimerFlags                 0x10000258   Lc    3  Data  De   0x40
    163  am_hal_global.c            0x00000000   Lc  Abs  File  De 
    164  dc.s                       0x00000000   Lc  Abs  File  De 
    165  ../clib/memcpset.s         0x00000000   Lc  Abs  File  De 
    166  ../clib/heapaux.c          0x00000000   Lc  Abs  File  De 
    167  .text                      0x00018348   Lc    1  Sect  De 
    168  ../clib/angel/startup.s    0x00000000   Lc  Abs  File  De 
    169  !!!main                    0x00018234   Lc    1  Sect  De   0x8
    170  ../clib/angel/handlers.s   0x00000000   Lc  Abs  File  De 
    171  !!handler_copy             0x000182cc   Lc    1  Sect  De   0x1a
    172  ../fplib/d2f.s             0x00000000   Lc  Abs  File  De 
    173  x$fpl$d2f                  0x0001c280   Lc    1  Sect  De   0x62
    174  $v0                        0x0001c280   Lc    1   --   De 
    175  ../fplib/f2d.s             0x00000000   Lc  Abs  File  De 
    176  x$fpl$f2d                  0x0001c38c   Lc    1  Sect  De   0x56
    177  $v0                        0x0001c38c   Lc    1   --   De 
    178  ../clib/angel/kernel.s     0x00000000   Lc  Abs  File  De 
    179  .ARM.Collect$$rtentry$$00000000
                                    0x00018310   Lc    1  Sect  De 
    180  ../clib/memcpset.s         0x00000000   Lc  Abs  File  De 
    181  ../fplib/dnaninf.s         0x00000000   Lc  Abs  File  De 
    182  x$fpl$dnaninf              0x0001c2e2   Lc    1  Sect  De   0x9c
    183  $v0                        0x0001c2e2   Lc    1   --   De 
    184  ../fplib/dretinf.s         0x00000000   Lc  Abs  File  De 
    185  x$fpl$dretinf              0x0001c37e   Lc    1  Sect  De   0xc
    186  $v0                        0x0001c37e   Lc    1   --   De 
    187  ../fplib/fnaninf.s         0x00000000   Lc  Abs  File  De 
    188  x$fpl$fnaninf              0x0001c3e2   Lc    1  Sect  De   0x8c
    189  $v0                        0x0001c3e2   Lc    1   --   De 
    190  ../fplib/fretinf.s         0x00000000   Lc  Abs  File  De 
    191  x$fpl$fretinf              0x0001c488   Lc    1  Sect  De   0xa
    192  $v0                        0x0001c488   Lc    1   --   De 
    193  ../fplib/usenofp.s         0x00000000   Lc  Abs  File  De 
    194  x$fpl$usenofp              0x0001c492   Lc    1  Sect  De 
    195  ../clib/angel/kernel.s     0x00000000   Lc  Abs  File  De 
    196  .ARM.Collect$$rtentry$$00000002
                                    0x00018310   Lc    1  Sect  De 
    197  .ARM.Collect$$rtentry$$00000009
                                    0x00018316   Lc    1  Sect  De 
    198  .ARM.Collect$$rtentry$$0000000A
                                    0x00018316   Lc    1  Sect  De   0x4
    199  .ARM.Collect$$rtentry$$0000000C
                                    0x0001831a   Lc    1  Sect  De 
    200  .ARM.Collect$$rtentry$$0000000D
                                    0x0001831a   Lc    1  Sect  De   0x8
    201  ../clib/angel/kernel.s     0x00000000   Lc  Abs  File  De 
    202  .ARM.Collect$$rtentry$$00000004
                                    0x00018310   Lc    1  Sect  De   0x6
    203  ../clib/angel/sys.s        0x00000000   Lc  Abs  File  De 
    204  .text                      0x0001834e   Lc    1  Sect  De   0x4a
    205  ../clib/stdlib.c           0x00000000   Lc  Abs  File  De 
    206  .text                      0x00018398   Lc    1  Sect  De 
    207  ../clib/angel/boardlib.s   0x00000000   Lc  Abs  File  De 
    208  ../clib/angel/boardlib.s   0x00000000   Lc  Abs  File  De 
    209  ../clib/angel/boardlib.s   0x00000000   Lc  Abs  File  De 
    210  ../clib/libinit.s          0x00000000   Lc  Abs  File  De 
    211  .ARM.Collect$$libinit$$00000000
                                    0x00018304   Lc    1  Sect  De   0x2
    212  ../clib/angel/sys.s        0x00000000   Lc  Abs  File  De 
    213  .text                      0x000183ac   Lc    1  Sect  De   0x8
    214  .bss                       0x100001f8   Lc    3  Sect  De   0x60
    215  ../clib/angel/kernel.s     0x00000000   Lc  Abs  File  De 
    216  .ARM.Collect$$rtexit$$00000000
                                    0x00018322   Lc    1  Sect  De   0x2
    217  ../clib/libinit.s          0x00000000   Lc  Abs  File  De 
    218  .ARM.Collect$$libinit$$00000001
                                    0x00018306   Lc    1  Sect  De   0x4
    219  .ARM.Collect$$libinit$$00000004
                                    0x0001830a   Lc    1  Sect  De 
    220  .ARM.Collect$$libinit$$0000000A
                                    0x0001830a   Lc    1  Sect  De 
    221  .ARM.Collect$$libinit$$0000000C
                                    0x0001830a   Lc    1  Sect  De 
    222  .ARM.Collect$$libinit$$0000000E
                                    0x0001830a   Lc    1  Sect  De 
    223  .ARM.Collect$$libinit$$00000011
                                    0x0001830a   Lc    1  Sect  De 
    224  .ARM.Collect$$libinit$$00000013
                                    0x0001830a   Lc    1  Sect  De 
    225  .ARM.Collect$$libinit$$00000015
                                    0x0001830a   Lc    1  Sect  De 
    226  .ARM.Collect$$libinit$$00000017
                                    0x0001830a   Lc    1  Sect  De 
    227  .ARM.Collect$$libinit$$00000019
                                    0x0001830a   Lc    1  Sect  De 
    228  .ARM.Collect$$libinit$$0000001B
                                    0x0001830a   Lc    1  Sect  De 
    229  .ARM.Collect$$libinit$$0000001D
                                    0x0001830a   Lc    1  Sect  De 
    230  .ARM.Collect$$libinit$$0000001F
                                    0x0001830a   Lc    1  Sect  De 
    231  .ARM.Collect$$libinit$$00000021
                                    0x0001830a   Lc    1  Sect  De 
    232  .ARM.Collect$$libinit$$00000023
                                    0x0001830a   Lc    1  Sect  De 
    233  .ARM.Collect$$libinit$$00000025
                                    0x0001830a   Lc    1  Sect  De 
    234  .ARM.Collect$$libinit$$0000002C
                                    0x0001830a   Lc    1  Sect  De 
    235  .ARM.Collect$$libinit$$0000002E
                                    0x0001830a   Lc    1  Sect  De 
    236  .ARM.Collect$$libinit$$00000030
                                    0x0001830a   Lc    1  Sect  De 
    237  .ARM.Collect$$libinit$$00000032
                                    0x0001830a   Lc    1  Sect  De 
    238  .ARM.Collect$$libinit$$00000033
                                    0x0001830a   Lc    1  Sect  De   0x2
    239  ../clib/angel/kernel.s     0x00000000   Lc  Abs  File  De 
    240  .ARM.Collect$$rtexit$$00000002
                                    0x00018324   Lc    1  Sect  De 
    241  .ARM.Collect$$rtexit$$00000003
                                    0x00018324   Lc    1  Sect  De   0x4
    242  .ARM.Collect$$rtexit$$00000004
                                    0x00018328   Lc    1  Sect  De   0x6
    243  ../clib/armsys.c           0x00000000   Lc  Abs  File  De 
    244  ../clib/armsys.c           0x00000000   Lc  Abs  File  De 
    245  ../fplib/fpinit.s          0x00000000   Lc  Abs  File  De 
    246  x$fpl$fpinit               0x0001c46e   Lc    1  Sect  De   0x1a
    247  $v0                        0x0001c46e   Lc    1   --   De 
    248  ../clib/angel/sysapp.c     0x00000000   Lc  Abs  File  De 
    249  .text                      0x000183b4   Lc    1  Sect  De 
    250  ../clib/angel/sysapp.c     0x00000000   Lc  Abs  File  De 
    251  ../clib/angel/boardlib.s   0x00000000   Lc  Abs  File  De 
    252  ../clib/armsys.c           0x00000000   Lc  Abs  File  De 
    253  ../clib/armsys.c           0x00000000   Lc  Abs  File  De 
    254  ../clib/libinit.s          0x00000000   Lc  Abs  File  De 
    255  .ARM.Collect$$libshutdown$$00000000
                                    0x0001830c   Lc    1  Sect  De   0x2
    256  ../clib/angel/sysapp.c     0x00000000   Lc  Abs  File  De 
    257  ../clib/angel/sysapp.c     0x00000000   Lc  Abs  File  De 
    258  ../clib/angel/sys.s        0x00000000   Lc  Abs  File  De 
    259  .text                      0x000183c0   Lc    1  Sect  De   0x2
    260  ../clib/angel/sys.s        0x00000000   Lc  Abs  File  De 
    261  .text                      0x000183c2   Lc    1  Sect  De 
    262  ../clib/heapalloc.c        0x00000000   Lc  Abs  File  De 
    263  ../clib/signal.c           0x00000000   Lc  Abs  File  De 
    264  ../clib/signal.c           0x00000000   Lc  Abs  File  De 
    265  ../clib/libinit.s          0x00000000   Lc  Abs  File  De 
    266  .ARM.Collect$$libshutdown$$00000002
                                    0x0001830e   Lc    1  Sect  De 
    267  .ARM.Collect$$libshutdown$$00000004
                                    0x0001830e   Lc    1  Sect  De 
    268  .ARM.Collect$$libshutdown$$00000007
                                    0x0001830e   Lc    1  Sect  De 
    269  .ARM.Collect$$libshutdown$$0000000A
                                    0x0001830e   Lc    1  Sect  De 
    270  .ARM.Collect$$libshutdown$$0000000C
                                    0x0001830e   Lc    1  Sect  De 
    271  .ARM.Collect$$libshutdown$$0000000F
                                    0x0001830e   Lc    1  Sect  De 
    272  .ARM.Collect$$libshutdown$$00000010
                                    0x0001830e   Lc    1  Sect  De   0x2
    273  ../clib/angel/rt.s         0x00000000   Lc  Abs  File  De 
    274  ../clib/signal.c           0x00000000   Lc  Abs  File  De 
    275  ../clib/signal.c           0x00000000   Lc  Abs  File  De 
    276  ../clib/signal.c           0x00000000   Lc  Abs  File  De 
    277  ../clib/signal.c           0x00000000   Lc  Abs  File  De 
    278  ../clib/angel/sysapp.c     0x00000000   Lc  Abs  File  De 
    279  ../clib/angel/sysapp.c     0x00000000   Lc  Abs  File  De 
    280  ../clib/signal.s           0x00000000   Lc  Abs  File  De 
    281  ../clib/signal.c           0x00000000   Lc  Abs  File  De 
    282  ../clib/signal.c           0x00000000   Lc  Abs  File  De 
    283  ../clib/signal.c           0x00000000   Lc  Abs  File  De 
    284  ../clib/signal.c           0x00000000   Lc  Abs  File  De 
    285  ../clib/signal.c           0x00000000   Lc  Abs  File  De 
    286  ../clib/signal.c           0x00000000   Lc  Abs  File  De 
    287  ../clib/signal.c           0x00000000   Lc  Abs  File  De 
    288  ../clib/signal.c           0x00000000   Lc  Abs  File  De 
    289  ../clib/angel/dczerorl2.s  0x00000000   Lc  Abs  File  De 
    290  !!dczerorl2                0x00018270   Lc    1  Sect  De   0x5a
    291  ../clib/angel/scatter.s    0x00000000   Lc  Abs  File  De 
    292  !!!scatter                 0x0001823c   Lc    1  Sect  De   0x34
    293  ../clib/angel/handlers.s   0x00000000   Lc  Abs  File  De 
    294  !!handler_zi               0x000182e8   Lc    1  Sect  De   0x1c
    295  BuildAttributes$$THM_ISAv4$E$P$D$K$B$S$7EM$VFPi3$EXTD16$VFPS$VFMA$PE$A:L22UL41UL21$X:L11$S22US41US21$IEEE1$IW$~IW$USESV6$~STKCKD$USESV7$~SHL$OSPACE$ROPI$EBA8$UX$STANDARDLIB$REQ8$PRES8$EABIv2
                                    0x00000000   Gb  Abs   --   Hi 
    296  __Vectors                  0x00018000   Gb    1  Data  Hi 
    297  __Patchable                0x00018190   Gb    1  Data  Hi 
    298  Reset_Handler              0x00018201   Wk    1  Code  Hi   0x1c
    299  NMI_Handler                0x0001821f   Wk    1  Code  Hi   0x2
    300  MemManage_Handler          0x00018221   Wk    1  Code  Hi   0x2
    301  BusFault_Handler           0x00018223   Wk    1  Code  Hi   0x2
    302  UsageFault_Handler         0x00018225   Wk    1  Code  Hi   0x2
    303  SVC_Handler                0x00018227   Wk    1  Code  Hi   0x2
    304  DebugMon_Handler           0x00018229   Wk    1  Code  Hi   0x2
    305  PendSV_Handler             0x0001822b   Wk    1  Code  Hi   0x2
    306  SysTick_Handler            0x0001822d   Wk    1  Code  Hi   0x2
    307  am_audadc0_isr             0x0001822f   Wk    1  Code  Hi 
    308  am_brownout_isr            0x0001822f   Wk    1  Code  Hi 
    309  am_cachecpu_isr            0x0001822f   Wk    1  Code  Hi 
    310  am_clkgen_isr              0x0001822f   Wk    1  Code  Hi 
    311  am_ctimer_isr              0x0001822f   Wk    1  Code  Hi 
    312  am_disp_isr                0x0001822f   Wk    1  Code  Hi 
    313  am_dsi_isr                 0x0001822f   Wk    1  Code  Hi 
    314  am_dspi2s0_isr             0x0001822f   Wk    1  Code  Hi 
    315  am_dspi2s1_isr             0x0001822f   Wk    1  Code  Hi 
    316  am_dspi2s2_isr             0x0001822f   Wk    1  Code  Hi 
    317  am_dspi2s3_isr             0x0001822f   Wk    1  Code  Hi 
    318  am_gpio0_001f_isr          0x0001822f   Wk    1  Code  Hi 
    319  am_gpio0_203f_isr          0x0001822f   Wk    1  Code  Hi 
    320  am_gpio0_405f_isr          0x0001822f   Wk    1  Code  Hi 
    321  am_gpio0_607f_isr          0x0001822f   Wk    1  Code  Hi 
    322  am_gpio1_001f_isr          0x0001822f   Wk    1  Code  Hi 
    323  am_gpio1_203f_isr          0x0001822f   Wk    1  Code  Hi 
    324  am_gpio1_405f_isr          0x0001822f   Wk    1  Code  Hi 
    325  am_gpio1_607f_isr          0x0001822f   Wk    1  Code  Hi 
    326  am_gpu_isr                 0x0001822f   Wk    1  Code  Hi 
    327  am_iomaster0_isr           0x0001822f   Wk    1  Code  Hi 
    328  am_iomaster1_isr           0x0001822f   Wk    1  Code  Hi 
    329  am_iomaster2_isr           0x0001822f   Wk    1  Code  Hi 
    330  am_iomaster3_isr           0x0001822f   Wk    1  Code  Hi 
    331  am_iomaster4_isr           0x0001822f   Wk    1  Code  Hi 
    332  am_iomaster5_isr           0x0001822f   Wk    1  Code  Hi 
    333  am_iomaster6_isr           0x0001822f   Wk    1  Code  Hi 
    334  am_iomaster7_isr           0x0001822f   Wk    1  Code  Hi 
    335  am_ioslave_acc_isr         0x0001822f   Wk    1  Code  Hi 
    336  am_ioslave_ios_isr         0x0001822f   Wk    1  Code  Hi 
    337  am_mspi0_isr               0x0001822f   Wk    1  Code  Hi 
    338  am_mspi1_isr               0x0001822f   Wk    1  Code  Hi 
    339  am_mspi2_isr               0x0001822f   Wk    1  Code  Hi 
    340  am_pdm0_isr                0x0001822f   Wk    1  Code  Hi 
    341  am_pdm1_isr                0x0001822f   Wk    1  Code  Hi 
    342  am_pdm2_isr                0x0001822f   Wk    1  Code  Hi 
    343  am_pdm3_isr                0x0001822f   Wk    1  Code  Hi 
    344  am_rtc_isr                 0x0001822f   Wk    1  Code  Hi 
    345  am_sdio_isr                0x0001822f   Wk    1  Code  Hi 
    346  am_stimer_cmpr0_isr        0x0001822f   Wk    1  Code  Hi 
    347  am_stimer_cmpr1_isr        0x0001822f   Wk    1  Code  Hi 
    348  am_stimer_cmpr2_isr        0x0001822f   Wk    1  Code  Hi 
    349  am_stimer_cmpr3_isr        0x0001822f   Wk    1  Code  Hi 
    350  am_stimer_cmpr4_isr        0x0001822f   Wk    1  Code  Hi 
    351  am_stimer_cmpr5_isr        0x0001822f   Wk    1  Code  Hi 
    352  am_stimer_cmpr6_isr        0x0001822f   Wk    1  Code  Hi 
    353  am_stimer_cmpr7_isr        0x0001822f   Wk    1  Code  Hi 
    354  am_stimerof_isr            0x0001822f   Wk    1  Code  Hi 
    355  am_timer00_isr             0x0001822f   Wk    1  Code  Hi 
    356  am_timer01_isr             0x0001822f   Wk    1  Code  Hi 
    357  am_timer02_isr             0x0001822f   Wk    1  Code  Hi 
    358  am_timer03_isr             0x0001822f   Wk    1  Code  Hi 
    359  am_timer04_isr             0x0001822f   Wk    1  Code  Hi 
    360  am_timer05_isr             0x0001822f   Wk    1  Code  Hi 
    361  am_timer06_isr             0x0001822f   Wk    1  Code  Hi 
    362  am_timer07_isr             0x0001822f   Wk    1  Code  Hi 
    363  am_timer08_isr             0x0001822f   Wk    1  Code  Hi 
    364  am_timer09_isr             0x0001822f   Wk    1  Code  Hi 
    365  am_timer10_isr             0x0001822f   Wk    1  Code  Hi 
    366  am_timer11_isr             0x0001822f   Wk    1  Code  Hi 
    367  am_timer12_isr             0x0001822f   Wk    1  Code  Hi 
    368  am_timer13_isr             0x0001822f   Wk    1  Code  Hi 
    369  am_timer14_isr             0x0001822f   Wk    1  Code  Hi 
    370  am_timer15_isr             0x0001822f   Wk    1  Code  Hi 
    371  am_uart1_isr               0x0001822f   Wk    1  Code  Hi 
    372  am_uart2_isr               0x0001822f   Wk    1  Code  Hi 
    373  am_uart3_isr               0x0001822f   Wk    1  Code  Hi 
    374  am_uart_isr                0x0001822f   Wk    1  Code  Hi 
    375  am_usb_isr                 0x0001822f   Wk    1  Code  Hi 
    376  am_vcomp_isr               0x0001822f   Wk    1  Code  Hi 
    377  am_watchdog_isr            0x0001822f   Wk    1  Code  Hi 
    378  __main                     0x00018235   Gb    1  Code  Hi   0x8
    379  __scatterload              0x0001823d   Gb    1  Code  Hi 
    380  __scatterload_rt2          0x0001823d   Gb    1  Code  Hi   0x2c
    381  __scatterload_rt2_thumb_only
                                    0x0001823d   Gb    1  Code  Hi 
    382  __scatterload_null         0x0001824b   Gb    1  Code  Hi 
    383  __decompress               0x00018271   Gb    1  Code  Hi   0x5a
    384  __decompress1              0x00018271   Gb    1  Code  Hi 
    385  __scatterload_copy         0x000182cd   Gb    1  Code  Hi   0x1a
    386  __scatterload_zeroinit     0x000182e9   Gb    1  Code  Hi   0x1c
    387  __rt_lib_init              0x00018305   Gb    1  Code  De 
    388  __rt_lib_init_fp_1         0x00018307   Gb    1  Code  Hi 
    389  __rt_lib_init_alloca_1     0x0001830b   Gb    1  Code  Hi 
    390  __rt_lib_init_argv_1       0x0001830b   Gb    1  Code  Hi 
    391  __rt_lib_init_atexit_1     0x0001830b   Gb    1  Code  Hi 
    392  __rt_lib_init_clock_1      0x0001830b   Gb    1  Code  Hi 
    393  __rt_lib_init_cpp_1        0x0001830b   Gb    1  Code  Hi 
    394  __rt_lib_init_exceptions_1 0x0001830b   Gb    1  Code  Hi 
    395  __rt_lib_init_fp_trap_1    0x0001830b   Gb    1  Code  Hi 
    396  __rt_lib_init_getenv_1     0x0001830b   Gb    1  Code  Hi 
    397  __rt_lib_init_heap_1       0x0001830b   Gb    1  Code  Hi 
    398  __rt_lib_init_lc_collate_1 0x0001830b   Gb    1  Code  Hi 
    399  __rt_lib_init_lc_ctype_1   0x0001830b   Gb    1  Code  Hi 
    400  __rt_lib_init_lc_monetary_1
                                    0x0001830b   Gb    1  Code  Hi 
    401  __rt_lib_init_lc_numeric_1 0x0001830b   Gb    1  Code  Hi 
    402  __rt_lib_init_lc_time_1    0x0001830b   Gb    1  Code  Hi 
    403  __rt_lib_init_preinit_1    0x0001830b   Gb    1  Code  Hi 
    404  __rt_lib_init_rand_1       0x0001830b   Gb    1  Code  Hi 
    405  __rt_lib_init_return       0x0001830b   Gb    1  Code  Hi 
    406  __rt_lib_init_signal_1     0x0001830b   Gb    1  Code  Hi 
    407  __rt_lib_init_stdio_1      0x0001830b   Gb    1  Code  Hi 
    408  __rt_lib_init_user_alloc_1 0x0001830b   Gb    1  Code  Hi 
    409  __rt_lib_shutdown          0x0001830d   Gb    1  Code  De 
    410  __rt_lib_shutdown_cpp_1    0x0001830f   Gb    1  Code  Hi 
    411  __rt_lib_shutdown_fp_trap_1
                                    0x0001830f   Gb    1  Code  Hi 
    412  __rt_lib_shutdown_heap_1   0x0001830f   Gb    1  Code  Hi 
    413  __rt_lib_shutdown_return   0x0001830f   Gb    1  Code  Hi 
    414  __rt_lib_shutdown_signal_1 0x0001830f   Gb    1  Code  Hi 
    415  __rt_lib_shutdown_stdio_1  0x0001830f   Gb    1  Code  Hi 
    416  __rt_lib_shutdown_user_alloc_1
                                    0x0001830f   Gb    1  Code  Hi 
    417  __rt_entry                 0x00018311   Gb    1  Code  Hi 
    418  __rt_entry_presh_1         0x00018311   Gb    1  Code  Hi 
    419  __rt_entry_sh              0x00018311   Gb    1  Code  Hi 
    420  __rt_entry_li              0x00018317   Gb    1  Code  Hi 
    421  __rt_entry_postsh_1        0x00018317   Gb    1  Code  Hi 
    422  __rt_entry_main            0x0001831b   Gb    1  Code  Hi 
    423  __rt_entry_postli_1        0x0001831b   Gb    1  Code  Hi 
    424  __rt_exit                  0x00018323   Gb    1  Code  De 
    425  __rt_exit_ls               0x00018325   Gb    1  Code  Hi 
    426  __rt_exit_prels_1          0x00018325   Gb    1  Code  Hi 
    427  __rt_exit_exit             0x00018329   Gb    1  Code  Hi 
    428  __user_initial_stackheap   0x00018331   Gb    1  Code  Hi   0xa
    429  __use_two_region_memory    0x00018349   Gb    1  Code  Hi   0x2
    430  __rt_heap_escrow$2region   0x0001834b   Gb    1  Code  De   0x2
    431  __rt_heap_expand$2region   0x0001834d   Gb    1  Code  De   0x2
    432  __user_setup_stackheap     0x0001834f   Gb    1  Code  De   0x4a
    433  exit                       0x00018399   Gb    1  Code  De   0x12
    434  __user_libspace            0x000183ad   Wk    1  Code  De   0x8
    435  __user_perproc_libspace    0x000183ad   Wk    1  Code  De 
    436  __user_perthread_libspace  0x000183ad   Wk    1  Code  De 
    437  _sys_exit                  0x000183b5   Gb    1  Code  De   0x8
    438  __I$use$semihosting        0x000183c1   Gb    1  Code  Hi 
    439  __use_no_semihosting_swi   0x000183c1   Gb    1  Code  Hi   0x2
    440  __semihosting_library_function
                                    0x000183c3   Gb    1  Code  Hi 
    441  HardFault_Handler          0x0001843d   Gb    1  Code  Hi   0x1e
    442  adc_init                   0x000185e1   Gb    1  Code  Hi   0x192
    443  am_adc_isr                 0x00018775   Gb    1  Code  Hi   0xc4
    444  am_bsp_itm_printf_enable   0x00018839   Gb    1  Code  Hi   0x7c
    445  am_bsp_low_power_init      0x000188b5   Gb    1  Code  Hi   0x16
    446  am_devices_led_array_init  0x000188cd   Gb    1  Code  Hi   0x42
    447  am_devices_led_init        0x00018911   Gb    1  Code  Hi   0xba
    448  am_devices_led_off         0x000189cd   Gb    1  Code  Hi   0x8a
    449  am_devices_led_on          0x00018a59   Gb    1  Code  Hi   0x8a
    450  am_devices_led_toggle      0x00018ae5   Gb    1  Code  Hi   0xac
    451  am_hal_adc_configure       0x00018b91   Gb    1  Code  Hi   0x76
    452  am_hal_adc_configure_irtt  0x00018c07   Gb    1  Code  Hi   0x32
    453  am_hal_adc_configure_slot  0x00018c39   Gb    1  Code  Hi   0x80
    454  am_hal_adc_control         0x00018cb9   Gb    1  Code  Hi   0x140
    455  am_hal_adc_enable          0x00018df9   Gb    1  Code  Hi   0x5c
    456  am_hal_adc_initialize      0x00018e55   Gb    1  Code  Hi   0x11a
    457  am_hal_adc_interrupt_clear 0x00018f6f   Gb    1  Code  Hi   0x26
    458  am_hal_adc_interrupt_enable
                                    0x00018f95   Gb    1  Code  Hi   0x2a
    459  am_hal_adc_interrupt_status
                                    0x00018fbf   Gb    1  Code  Hi   0x2e
    460  am_hal_adc_irtt_enable     0x00018fed   Gb    1  Code  Hi   0x5e
    461  am_hal_adc_power_control   0x0001904b   Gb    1  Code  Hi   0xfc
    462  am_hal_adc_samples_read    0x00019149   Gb    1  Code  Hi   0x178
    463  am_hal_adc_sw_trigger      0x000192c1   Gb    1  Code  Hi   0x28
    464  am_hal_cachectrl_config    0x000192e9   Gb    1  Code  Hi   0x44
    465  am_hal_cachectrl_enable    0x0001932d   Gb    1  Code  Hi   0x1e
    466  am_hal_daxi_config         0x0001934b   Gb    1  Code  Hi   0x54
    467  am_hal_daxi_control        0x000193a1   Gb    1  Code  Hi   0x14c
    468  am_hal_dcu_get             0x000194ed   Gb    1  Code  Hi   0x9a
    469  am_hal_dcu_update          0x00019589   Gb    1  Code  Hi   0xec
    470  am_hal_delay_us            0x00019675   Gb    1  Code  Hi   0x36
    471  am_hal_delay_us_status_change
                                    0x000196ad   Gb    1  Code  Hi   0x54
    472  am_hal_delay_us_status_check
                                    0x00019701   Gb    1  Code  Hi   0x62
    473  am_hal_fault_status_get    0x00019763   Gb    1  Code  Hi   0x3a
    474  am_hal_gpio_pinconfig      0x0001979d   Gb    1  Code  Hi   0x4c
    475  am_hal_gpio_state_read     0x000197f9   Gb    1  Code  Hi   0x36
    476  am_hal_gpio_state_write    0x00019831   Gb    1  Code  Hi   0xe8
    477  am_hal_interrupt_master_disable
                                    0x00019919   Gb    1  Code  Hi   0x8
    478  am_hal_interrupt_master_enable
                                    0x00019921   Gb    1  Code  Hi   0x8
    479  am_hal_interrupt_master_set
                                    0x00019929   Gb    1  Code  Hi   0x6
    480  am_hal_itm_enable          0x00019931   Gb    1  Code  Hi   0x42
    481  am_hal_itm_print           0x00019975   Gb    1  Code  Hi   0x2e
    482  am_hal_load_ui32           0x000199a3   Gb    1  Code  Hi   0xc
    483  am_hal_mcuctrl_status_get  0x000199af   Gb    1  Code  Hi   0x4e
    484  am_hal_mram_ds_init        0x000199fd   Gb    1  Code  Hi   0x12
    485  am_hal_mram_info_read      0x00019a11   Gb    1  Code  Hi   0x94
    486  am_hal_pwrctrl_control     0x00019aa5   Gb    1  Code  Hi   0x38c
    487  am_hal_pwrctrl_low_power_init
                                    0x00019e31   Gb    1  Code  Hi   0x120
    488  am_hal_pwrctrl_mcu_memory_config
                                    0x00019f51   Gb    1  Code  Hi   0xfa
    489  am_hal_pwrctrl_mcu_mode_select
                                    0x0001a04d   Gb    1  Code  Hi   0x186
    490  am_hal_pwrctrl_periph_disable
                                    0x0001a1d3   Gb    1  Code  Hi   0x116
    491  am_hal_pwrctrl_periph_enable
                                    0x0001a2e9   Gb    1  Code  Hi   0x9c
    492  am_hal_pwrctrl_sram_config 0x0001a385   Gb    1  Code  Hi   0xa8
    493  am_hal_rtc_osc_disable     0x0001a42d   Gb    1  Code  Hi   0x14
    494  am_hal_sysctrl_fpu_enable  0x0001a441   Gb    1  Code  Hi   0x10
    495  am_hal_sysctrl_fpu_stacking_enable
                                    0x0001a451   Gb    1  Code  Hi   0x36
    496  am_hal_sysctrl_sleep       0x0001a489   Gb    1  Code  Hi   0x1ca
    497  am_hal_timer_clear         0x0001a653   Gb    1  Code  Hi   0x58
    498  am_hal_timer_clear_stop    0x0001a6ab   Gb    1  Code  Hi   0x54
    499  am_hal_timer_default_config_set
                                    0x0001a6ff   Gb    1  Code  Hi   0x20
    500  am_hal_timer_disable       0x0001a71f   Gb    1  Code  Hi   0x3c
    501  am_hal_timer_enable        0x0001a75b   Gb    1  Code  Hi   0x4e
    502  am_hal_timer_enable_sync   0x0001a7a9   Gb    1  Code  Hi   0x6c
    503  am_hal_timer_interrupt_clear
                                    0x0001a815   Gb    1  Code  Hi   0x10
    504  am_hal_timer_interrupt_enable
                                    0x0001a825   Gb    1  Code  Hi   0x54
    505  am_hal_timer_interrupt_status_get
                                    0x0001a879   Gb    1  Code  Hi   0x16
    506  am_hal_timer_read          0x0001a88f   Gb    1  Code  Hi   0x26
    507  am_hal_timer_reset_config  0x0001a8b5   Gb    1  Code  Hi   0x72
    508  am_hal_tpiu_enable         0x0001a927   Gb    1  Code  Hi   0x76
    509  am_hal_triple_read         0x0001a99d   Gb    1  Code  Hi   0x24
    510  am_hal_util_write_and_wait 0x0001a9c1   Gb    1  Code  Hi   0x146
    511  am_util_faultisr_collect_data
                                    0x0001ab09   Gb    1  Code  Hi   0xd6
    512  am_util_stdio_printf       0x0001abe1   Gb    1  Code  Hi   0x5c
    513  am_util_stdio_printf_init  0x0001ac3d   Gb    1  Code  Hi   0x14
    514  am_util_stdio_terminal_clear
                                    0x0001ac51   Gb    1  Code  Hi   0x10
    515  am_util_stdio_vsprintf     0x0001ac61   Gb    1  Code  Hi   0x654
    516  am_valid_sp                0x0001b2b5   Gb    1  Code  Hi   0x32
    517  buck_ldo_override_init     0x0001b41f   Gb    1  Code  Hi   0x62
    518  buck_ldo_update_override   0x0001b481   Gb    1  Code  Hi   0x2a
    519  getStackedReg              0x0001b89d   Gb    1  Code  Hi   0x8
    520  internal_timer_config      0x0001b8a5   Gb    1  Code  Hi   0xce
    521  main                       0x0001b975   Gb    1  Code  Hi   0x494
    522  timer_config_b1            0x0001bfd1   Gb    1  Code  Hi   0x166
    523  __aeabi_d2f                0x0001c281   Gb    1  Code  De 
    524  _d2f                       0x0001c281   Gb    1  Code  De   0x62
    525  __fpl_dnaninf              0x0001c2e3   Gb    1  Code  De   0x9c
    526  __fpl_dretinf              0x0001c37f   Gb    1  Code  De   0xc
    527  __aeabi_f2d                0x0001c38d   Gb    1  Code  De 
    528  _f2d                       0x0001c38d   Gb    1  Code  De   0x56
    529  __fpl_fnaninf              0x0001c3e3   Gb    1  Code  De   0x8c
    530  _fp_init                   0x0001c46f   Gb    1  Code  De   0x1a
    531  __fplib_config_fpu_vfp     0x0001c487   Gb    1  Code  De 
    532  __fplib_config_pureend_doubles
                                    0x0001c487   Gb    1  Code  De 
    533  __fpl_fretinf              0x0001c489   Gb    1  Code  De   0xa
    534  __I$use$fp                 0x0001c492   Gb    1   --   De 
    535  am_hal_cachectrl_defaults  0x0001c492   Gb    1  Data  Hi   0x3
    536  am_hal_daxi_defaults       0x0001c495   Gb    1  Data  Hi   0x3
    537  am_hal_gpio_pincfg_opendrain
                                    0x0001c498   Gb    1  Data  Hi   0x4
    538  am_hal_gpio_pincfg_output  0x0001c49c   Gb    1  Data  Hi   0x4
    539  am_hal_gpio_pincfg_tristate
                                    0x0001c4a0   Gb    1  Data  Hi   0x4
    540  am_hal_pwrctrl_peripheral_control
                                    0x0001c4a4   Gb    1  Data  Hi   0x220
    541  g_DefaultMcuMemCfg         0x0001c72c   Gb    1  Data  Hi   0x6
    542  g_DefaultSRAMCfg           0x0001c732   Gb    1  Data  Hi   0x6
    543  g_am_hal_bootrom_helper    0x0001c738   Gb    1  Data  Hi   0x28
    544  sGlobalAccess              0x0001c768   Gb    1  Data  Hi   0x1c
    545  ui32DSP0Allowed            0x0001caa0   Gb    1  Data  Hi   0x14
    546  ui32DSP1Allowed            0x0001cab4   Gb    1  Data  Hi   0x14
    547  ui32MCUAllowed             0x0001cac8   Gb    1  Data  Hi   0x14
    548  ui32SharedAccess           0x0001cadc   Gb    1  Data  Hi   0x14
    549  Region$$Table$$Base        0x0001caf0   Gb    1   --   Hi 
    550  Region$$Table$$Limit       0x0001cb20   Gb    1   --   Hi 
    551  am_bsp_psLEDs              0x10000000   Gb    2  Data  Hi   0x18
    552  gDcuDisable                0x10000018   Gb    2  Data  Hi   0x8
    553  gDcuEnable                 0x10000020   Gb    2  Data  Hi   0x8
    554  g_AM_BSP_GPIO_BUTTON0      0x10000028   Gb    2  Data  Hi   0x4
    555  g_AM_BSP_GPIO_ITM_SWO      0x1000002c   Gb    2  Data  Hi   0x4
    556  g_eCurrPwrMode             0x10000030   Gb    2  Data  Hi   0x1
    557  g_ui32TrimVer              0x100001ac   Gb    2  Data  Hi   0x4
    558  g_ui32origMEMLDOActiveTrim 0x100001b0   Gb    2  Data  Hi   0x4
    559  g_ui32origSimobuckVDDCtrim 0x100001b4   Gb    2  Data  Hi   0x4
    560  g_ui32origSimobuckVDDFtrim 0x100001b8   Gb    2  Data  Hi   0x4
    561  g_ui32origSimobuckVDDStrim 0x100001bc   Gb    2  Data  Hi   0x4
    562  gpDcuEnable                0x100001c0   Gb    2  Data  Hi   0x4
    563  gpDcuLock                  0x100001c4   Gb    2  Data  Hi   0x4
    564  program_mram_tmc_tcycrd    0x100001c8   Gb    2  Data  Hi   0x4
    565  recover_broken_mram_tmc_r_timer1
                                    0x100001cc   Gb    2  Data  Hi   0x4
    566  storeAndWFIfuncRAM         0x100001f0   Gb    2  Data  Hi   0x4
    567  __libspace_start           0x100001f8   Gb    3  Data  De   0x60
    568  __temporary_stack_top$libspace
                                    0x10000258   Gb    3  Data  De 
    569  gFaultStack                0x10000298   Gb    3  Data  Hi   0x200
    570  gMspiXipState              0x10000498   Gb    3  Data  Hi   0x4
    571  gStartOff                  0x1000049c   Gb    3  Data  Hi   0x4
    572  g_ADCSlotsConfigured       0x100004a4   Gb    3  Data  Hi   0x4
    573  g_ADCState                 0x100004a8   Gb    3  Data  Hi   0x44
    574  g_bDoADCadjust             0x100004ec   Gb    3  Data  Hi   0x1
    575  g_bVDDCbuckboosted         0x100004ee   Gb    3  Data  Hi   0x1
    576  g_pfnCharPrint             0x100004f4   Gb    3  Data  Hi   0x4
    577  g_trim_reg_origvals        0x100008f8   Gb    3  Data  Hi   0x54
    578  g_ui16ADCTEMP_code         0x1000094c   Gb    3  Data  Hi   0x2
    579  g_ui16ADCVDD_code          0x1000094e   Gb    3  Data  Hi   0x2
    580  g_ui32SampleCount          0x10000950   Gb    3  Data  Hi   0x4
    581  psGlobalAccessPtr          0x10060000   Gb    4  Data  Hi   0x4
    582  axiScratchBuf              0x10060004   Gb    4  Data  Hi   0x50
    583  ui32MCUClaimed             0x10060054   Gb    4  Data  Hi   0x14
    584  ui32DSP0Claimed            0x10060068   Gb    4  Data  Hi   0x14
    585  ui32DSP1Claimed            0x1006007c   Gb    4  Data  Hi   0x14


** Section #12 '.strtab' (SHT_STRTAB)
    Size   : 9500 bytes

            #  Offset String
        ====================================

            1      1: $d
            2      4: $t
            3      7: $t.7
            4     12: $d.4
            5     17: $t.27
            6     23: $d.11
            7     29: $t.12
            8     35: $d.13
            9     41: $t.14
           10     47: $d.2
           11     52: $t.4
           12     57: $d.6
           13     62: $d.23
           14     68: $t.24
           15     74: $d.5
           16     79: $t.6
           17     84: $d.9
           18     89: $t.10
           19     95: $t.5
           20    100: $d.3
           21    105: $t.9
           22    110: $d.22
           23    116: $d.1
           24    121: $t.2
           25    126: $d.realdata
           26    138: adc_vbatt.c
           27    150: __NVIC_SetPriority
           28    169: __NVIC_EnableIRQ
           29    186: g_ADCHandle
           30    198: .L.str.16
           31    208: .L.str.25
           32    218: .L.str.26
           33    228: .L.str.3
           34    237: .L.str.2
           35    246: .L.str
           36    253: .L.str.1
           37    262: .L.str.4
           38    271: .L.str.19
           39    281: .L.str.7
           40    290: .L.str.8
           41    299: .L.str.9
           42    308: .L.str.10
           43    318: .L.str.11
           44    328: .L.str.12
           45    338: .L.str.13
           46    348: .L.str.14
           47    358: .L.str.15
           48    368: .L.str.6
           49    377: .L.str.24
           50    387: .L.str.18
           51    397: .L.str.17
           52    407: .L.str.5
           53    416: .L.str.23
           54    426: .L.str.22
           55    436: .L.str.20
           56    446: .L.str.21
           57    456: g_sADC_Cfg
           58    467: .L__const.adc_init.ADCIrttConfig
           59    500: __tagsym$$used.0
           60    517: am_resources.c
           61    532: __tagsym$$used.1
           62    549: __tagsym$$used.2
           63    566: __tagsym$$used.3
           64    583: __tagsym$$used.4
           65    600: __tagsym$$used.5
           66    617: __tagsym$$used.6
           67    634: __tagsym$$used.7
           68    651: __tagsym$$used.8
           69    668: am_devices_led.c
           70    685: am_util_delay.c
           71    701: am_util_faultisr.c
           72    720: am_util_stdio.c
           73    736: decstr_to_int
           74    750: simple_strlen
           75    764: padbuffer
           76    774: ndigits_in_hex
           77    789: uint64_to_hexstr
           78    806: ndigits_in_u64
           79    821: uint64_to_str
           80    835: ndigits_in_i64
           81    850: ftoa
           82    855: divu64_10
           83    865: g_bTxtXlate
           84    877: g_prfbuf
           85    886: ../keil6/startup_keil6.s
           86    911: STACK
           87    917: StackMem
           88    926: HEAP
           89    931: HeapMem
           90    939: RESET
           91    945: $v0
           92    949: am_cryptosec_isr
           93    966: am_default_isr
           94    981: .text
           95    987: am_bsp.c
           96    996: g_ePrintInterface
           97   1014: am_bsp_pins.c
           98   1028: am_hal_cachectrl.c
           99   1047: gAxiMemRange
          100   1060: ui32AxiBufPwrStatReg
          101   1081: ui32AxiBufPwrStatMask
          102   1103: p64BAxiMem
          103   1114: am_hal_fault.c
          104   1129: am_hal_interrupt.c
          105   1148: am_hal_mcuctrl.c
          106   1165: am_hal_sysctrl.c
          107   1182: am_hal_utils.c
          108   1197: am_hal_adc.c
          109   1210: ForceFIFOpop
          110   1223: sample_correction_apply
          111   1247: priv_temp_trims
          112   1263: priv_correction_trims
          113   1285: g_fTempEqnTerms
          114   1301: am_hal_gpio.c
          115   1315: g_ui32DSpintbl
          116   1330: am_hal_bootrom_helper.c
          117   1354: am_hal_itm.c
          118   1367: am_hal_mram.c
          119   1381: g_program_mram_tmc_tcycrd
          120   1407: g_recover_broken_mram_tmc_r_timer1
          121   1442: am_hal_mspi.c
          122   1456: am_hal_rtc.c
          123   1469: am_hal_tpiu.c
          124   1483: am_hal_uart.c
          125   1497: am_hal_dcu.c
          126   1510: am_hal_pin.c
          127   1523: am_hal_pwrctrl.c
          128   1540: VDDF_simobuck_boost
          129   1560: buck_interval_check
          130   1580: TrimVersionGet
          131   1595: storeAndWFIRAM
          132   1610: am_hal_cmdq.c
          133   1624: am_hal_queue.c
          134   1639: am_hal_timer.c
          135   1654: TimerFlags
          136   1665: am_hal_global.c
          137   1681: dc.s
          138   1686: ../clib/memcpset.s
          139   1705: ../clib/heapaux.c
          140   1723: ../clib/angel/startup.s
          141   1747: !!!main
          142   1755: ../clib/angel/handlers.s
          143   1780: !!handler_copy
          144   1795: ../fplib/d2f.s
          145   1810: x$fpl$d2f
          146   1820: ../fplib/f2d.s
          147   1835: x$fpl$f2d
          148   1845: ../clib/angel/kernel.s
          149   1868: .ARM.Collect$$rtentry$$00000000
          150   1900: ../fplib/dnaninf.s
          151   1919: x$fpl$dnaninf
          152   1933: ../fplib/dretinf.s
          153   1952: x$fpl$dretinf
          154   1966: ../fplib/fnaninf.s
          155   1985: x$fpl$fnaninf
          156   1999: ../fplib/fretinf.s
          157   2018: x$fpl$fretinf
          158   2032: ../fplib/usenofp.s
          159   2051: x$fpl$usenofp
          160   2065: .ARM.Collect$$rtentry$$00000002
          161   2097: .ARM.Collect$$rtentry$$00000009
          162   2129: .ARM.Collect$$rtentry$$0000000A
          163   2161: .ARM.Collect$$rtentry$$0000000C
          164   2193: .ARM.Collect$$rtentry$$0000000D
          165   2225: .ARM.Collect$$rtentry$$00000004
          166   2257: ../clib/angel/sys.s
          167   2277: ../clib/stdlib.c
          168   2294: ../clib/angel/boardlib.s
          169   2319: ../clib/libinit.s
          170   2337: .ARM.Collect$$libinit$$00000000
          171   2369: .bss
          172   2374: .ARM.Collect$$rtexit$$00000000
          173   2405: .ARM.Collect$$libinit$$00000001
          174   2437: .ARM.Collect$$libinit$$00000004
          175   2469: .ARM.Collect$$libinit$$0000000A
          176   2501: .ARM.Collect$$libinit$$0000000C
          177   2533: .ARM.Collect$$libinit$$0000000E
          178   2565: .ARM.Collect$$libinit$$00000011
          179   2597: .ARM.Collect$$libinit$$00000013
          180   2629: .ARM.Collect$$libinit$$00000015
          181   2661: .ARM.Collect$$libinit$$00000017
          182   2693: .ARM.Collect$$libinit$$00000019
          183   2725: .ARM.Collect$$libinit$$0000001B
          184   2757: .ARM.Collect$$libinit$$0000001D
          185   2789: .ARM.Collect$$libinit$$0000001F
          186   2821: .ARM.Collect$$libinit$$00000021
          187   2853: .ARM.Collect$$libinit$$00000023
          188   2885: .ARM.Collect$$libinit$$00000025
          189   2917: .ARM.Collect$$libinit$$0000002C
          190   2949: .ARM.Collect$$libinit$$0000002E
          191   2981: .ARM.Collect$$libinit$$00000030
          192   3013: .ARM.Collect$$libinit$$00000032
          193   3045: .ARM.Collect$$libinit$$00000033
          194   3077: .ARM.Collect$$rtexit$$00000002
          195   3108: .ARM.Collect$$rtexit$$00000003
          196   3139: .ARM.Collect$$rtexit$$00000004
          197   3170: ../clib/armsys.c
          198   3187: ../fplib/fpinit.s
          199   3205: x$fpl$fpinit
          200   3218: ../clib/angel/sysapp.c
          201   3241: .ARM.Collect$$libshutdown$$00000000
          202   3277: ../clib/heapalloc.c
          203   3297: ../clib/signal.c
          204   3314: .ARM.Collect$$libshutdown$$00000002
          205   3350: .ARM.Collect$$libshutdown$$00000004
          206   3386: .ARM.Collect$$libshutdown$$00000007
          207   3422: .ARM.Collect$$libshutdown$$0000000A
          208   3458: .ARM.Collect$$libshutdown$$0000000C
          209   3494: .ARM.Collect$$libshutdown$$0000000F
          210   3530: .ARM.Collect$$libshutdown$$00000010
          211   3566: ../clib/angel/rt.s
          212   3585: ../clib/signal.s
          213   3602: ../clib/angel/dczerorl2.s
          214   3628: !!dczerorl2
          215   3640: ../clib/angel/scatter.s
          216   3664: !!!scatter
          217   3675: !!handler_zi
          218   3688: BuildAttributes$$THM_ISAv4$E$P$D$K$B$S$7EM$VFPi3$EXTD16$VFPS$VFMA$PE$A:L22UL41UL21$X:L11$S22US41US21$IEEE1$IW$~IW$USESV6$~STKCKD$USESV7$~SHL$OSPACE$ROPI$EBA8$UX$STANDARDLIB$REQ8$PRES8$EABIv2
          219   3879: __Vectors
          220   3889: __Patchable
          221   3901: Reset_Handler
          222   3915: NMI_Handler
          223   3927: MemManage_Handler
          224   3945: BusFault_Handler
          225   3962: UsageFault_Handler
          226   3981: SVC_Handler
          227   3993: DebugMon_Handler
          228   4010: PendSV_Handler
          229   4025: SysTick_Handler
          230   4041: am_audadc0_isr
          231   4056: am_brownout_isr
          232   4072: am_cachecpu_isr
          233   4088: am_clkgen_isr
          234   4102: am_ctimer_isr
          235   4116: am_disp_isr
          236   4128: am_dsi_isr
          237   4139: am_dspi2s0_isr
          238   4154: am_dspi2s1_isr
          239   4169: am_dspi2s2_isr
          240   4184: am_dspi2s3_isr
          241   4199: am_gpio0_001f_isr
          242   4217: am_gpio0_203f_isr
          243   4235: am_gpio0_405f_isr
          244   4253: am_gpio0_607f_isr
          245   4271: am_gpio1_001f_isr
          246   4289: am_gpio1_203f_isr
          247   4307: am_gpio1_405f_isr
          248   4325: am_gpio1_607f_isr
          249   4343: am_gpu_isr
          250   4354: am_iomaster0_isr
          251   4371: am_iomaster1_isr
          252   4388: am_iomaster2_isr
          253   4405: am_iomaster3_isr
          254   4422: am_iomaster4_isr
          255   4439: am_iomaster5_isr
          256   4456: am_iomaster6_isr
          257   4473: am_iomaster7_isr
          258   4490: am_ioslave_acc_isr
          259   4509: am_ioslave_ios_isr
          260   4528: am_mspi0_isr
          261   4541: am_mspi1_isr
          262   4554: am_mspi2_isr
          263   4567: am_pdm0_isr
          264   4579: am_pdm1_isr
          265   4591: am_pdm2_isr
          266   4603: am_pdm3_isr
          267   4615: am_rtc_isr
          268   4626: am_sdio_isr
          269   4638: am_stimer_cmpr0_isr
          270   4658: am_stimer_cmpr1_isr
          271   4678: am_stimer_cmpr2_isr
          272   4698: am_stimer_cmpr3_isr
          273   4718: am_stimer_cmpr4_isr
          274   4738: am_stimer_cmpr5_isr
          275   4758: am_stimer_cmpr6_isr
          276   4778: am_stimer_cmpr7_isr
          277   4798: am_stimerof_isr
          278   4814: am_timer00_isr
          279   4829: am_timer01_isr
          280   4844: am_timer02_isr
          281   4859: am_timer03_isr
          282   4874: am_timer04_isr
          283   4889: am_timer05_isr
          284   4904: am_timer06_isr
          285   4919: am_timer07_isr
          286   4934: am_timer08_isr
          287   4949: am_timer09_isr
          288   4964: am_timer10_isr
          289   4979: am_timer11_isr
          290   4994: am_timer12_isr
          291   5009: am_timer13_isr
          292   5024: am_timer14_isr
          293   5039: am_timer15_isr
          294   5054: am_uart1_isr
          295   5067: am_uart2_isr
          296   5080: am_uart3_isr
          297   5093: am_uart_isr
          298   5105: am_usb_isr
          299   5116: am_vcomp_isr
          300   5129: am_watchdog_isr
          301   5145: __main
          302   5152: __scatterload
          303   5166: __scatterload_rt2
          304   5184: __scatterload_rt2_thumb_only
          305   5213: __scatterload_null
          306   5232: __decompress
          307   5245: __decompress1
          308   5259: __scatterload_copy
          309   5278: __scatterload_zeroinit
          310   5301: __rt_lib_init
          311   5315: __rt_lib_init_fp_1
          312   5334: __rt_lib_init_alloca_1
          313   5357: __rt_lib_init_argv_1
          314   5378: __rt_lib_init_atexit_1
          315   5401: __rt_lib_init_clock_1
          316   5423: __rt_lib_init_cpp_1
          317   5443: __rt_lib_init_exceptions_1
          318   5470: __rt_lib_init_fp_trap_1
          319   5494: __rt_lib_init_getenv_1
          320   5517: __rt_lib_init_heap_1
          321   5538: __rt_lib_init_lc_collate_1
          322   5565: __rt_lib_init_lc_ctype_1
          323   5590: __rt_lib_init_lc_monetary_1
          324   5618: __rt_lib_init_lc_numeric_1
          325   5645: __rt_lib_init_lc_time_1
          326   5669: __rt_lib_init_preinit_1
          327   5693: __rt_lib_init_rand_1
          328   5714: __rt_lib_init_return
          329   5735: __rt_lib_init_signal_1
          330   5758: __rt_lib_init_stdio_1
          331   5780: __rt_lib_init_user_alloc_1
          332   5807: __rt_lib_shutdown
          333   5825: __rt_lib_shutdown_cpp_1
          334   5849: __rt_lib_shutdown_fp_trap_1
          335   5877: __rt_lib_shutdown_heap_1
          336   5902: __rt_lib_shutdown_return
          337   5927: __rt_lib_shutdown_signal_1
          338   5954: __rt_lib_shutdown_stdio_1
          339   5980: __rt_lib_shutdown_user_alloc_1
          340   6011: __rt_entry
          341   6022: __rt_entry_presh_1
          342   6041: __rt_entry_sh
          343   6055: __rt_entry_li
          344   6069: __rt_entry_postsh_1
          345   6089: __rt_entry_main
          346   6105: __rt_entry_postli_1
          347   6125: __rt_exit
          348   6135: __rt_exit_ls
          349   6148: __rt_exit_prels_1
          350   6166: __rt_exit_exit
          351   6181: __user_initial_stackheap
          352   6206: __use_two_region_memory
          353   6230: __rt_heap_escrow$2region
          354   6255: __rt_heap_expand$2region
          355   6280: __user_setup_stackheap
          356   6303: exit
          357   6308: __user_libspace
          358   6324: __user_perproc_libspace
          359   6348: __user_perthread_libspace
          360   6374: _sys_exit
          361   6384: __I$use$semihosting
          362   6404: __use_no_semihosting_swi
          363   6429: __semihosting_library_function
          364   6460: HardFault_Handler
          365   6478: adc_init
          366   6487: am_adc_isr
          367   6498: am_bsp_itm_printf_enable
          368   6523: am_bsp_low_power_init
          369   6545: am_devices_led_array_init
          370   6571: am_devices_led_init
          371   6591: am_devices_led_off
          372   6610: am_devices_led_on
          373   6628: am_devices_led_toggle
          374   6650: am_hal_adc_configure
          375   6671: am_hal_adc_configure_irtt
          376   6697: am_hal_adc_configure_slot
          377   6723: am_hal_adc_control
          378   6742: am_hal_adc_enable
          379   6760: am_hal_adc_initialize
          380   6782: am_hal_adc_interrupt_clear
          381   6809: am_hal_adc_interrupt_enable
          382   6837: am_hal_adc_interrupt_status
          383   6865: am_hal_adc_irtt_enable
          384   6888: am_hal_adc_power_control
          385   6913: am_hal_adc_samples_read
          386   6937: am_hal_adc_sw_trigger
          387   6959: am_hal_cachectrl_config
          388   6983: am_hal_cachectrl_enable
          389   7007: am_hal_daxi_config
          390   7026: am_hal_daxi_control
          391   7046: am_hal_dcu_get
          392   7061: am_hal_dcu_update
          393   7079: am_hal_delay_us
          394   7095: am_hal_delay_us_status_change
          395   7125: am_hal_delay_us_status_check
          396   7154: am_hal_fault_status_get
          397   7178: am_hal_gpio_pinconfig
          398   7200: am_hal_gpio_state_read
          399   7223: am_hal_gpio_state_write
          400   7247: am_hal_interrupt_master_disable
          401   7279: am_hal_interrupt_master_enable
          402   7310: am_hal_interrupt_master_set
          403   7338: am_hal_itm_enable
          404   7356: am_hal_itm_print
          405   7373: am_hal_load_ui32
          406   7390: am_hal_mcuctrl_status_get
          407   7416: am_hal_mram_ds_init
          408   7436: am_hal_mram_info_read
          409   7458: am_hal_pwrctrl_control
          410   7481: am_hal_pwrctrl_low_power_init
          411   7511: am_hal_pwrctrl_mcu_memory_config
          412   7544: am_hal_pwrctrl_mcu_mode_select
          413   7575: am_hal_pwrctrl_periph_disable
          414   7605: am_hal_pwrctrl_periph_enable
          415   7634: am_hal_pwrctrl_sram_config
          416   7661: am_hal_rtc_osc_disable
          417   7684: am_hal_sysctrl_fpu_enable
          418   7710: am_hal_sysctrl_fpu_stacking_enable
          419   7745: am_hal_sysctrl_sleep
          420   7766: am_hal_timer_clear
          421   7785: am_hal_timer_clear_stop
          422   7809: am_hal_timer_default_config_set
          423   7841: am_hal_timer_disable
          424   7862: am_hal_timer_enable
          425   7882: am_hal_timer_enable_sync
          426   7907: am_hal_timer_interrupt_clear
          427   7936: am_hal_timer_interrupt_enable
          428   7966: am_hal_timer_interrupt_status_get
          429   8000: am_hal_timer_read
          430   8018: am_hal_timer_reset_config
          431   8044: am_hal_tpiu_enable
          432   8063: am_hal_triple_read
          433   8082: am_hal_util_write_and_wait
          434   8109: am_util_faultisr_collect_data
          435   8139: am_util_stdio_printf
          436   8160: am_util_stdio_printf_init
          437   8186: am_util_stdio_terminal_clear
          438   8215: am_util_stdio_vsprintf
          439   8238: am_valid_sp
          440   8250: buck_ldo_override_init
          441   8273: buck_ldo_update_override
          442   8298: getStackedReg
          443   8312: internal_timer_config
          444   8334: main
          445   8339: timer_config_b1
          446   8355: __aeabi_d2f
          447   8367: _d2f
          448   8372: __fpl_dnaninf
          449   8386: __fpl_dretinf
          450   8400: __aeabi_f2d
          451   8412: _f2d
          452   8417: __fpl_fnaninf
          453   8431: _fp_init
          454   8440: __fplib_config_fpu_vfp
          455   8463: __fplib_config_pureend_doubles
          456   8494: __fpl_fretinf
          457   8508: __I$use$fp
          458   8519: am_hal_cachectrl_defaults
          459   8545: am_hal_daxi_defaults
          460   8566: am_hal_gpio_pincfg_opendrain
          461   8595: am_hal_gpio_pincfg_output
          462   8621: am_hal_gpio_pincfg_tristate
          463   8649: am_hal_pwrctrl_peripheral_control
          464   8683: g_DefaultMcuMemCfg
          465   8702: g_DefaultSRAMCfg
          466   8719: g_am_hal_bootrom_helper
          467   8743: sGlobalAccess
          468   8757: ui32DSP0Allowed
          469   8773: ui32DSP1Allowed
          470   8789: ui32MCUAllowed
          471   8804: ui32SharedAccess
          472   8821: Region$$Table$$Base
          473   8841: Region$$Table$$Limit
          474   8862: am_bsp_psLEDs
          475   8876: gDcuDisable
          476   8888: gDcuEnable
          477   8899: g_AM_BSP_GPIO_BUTTON0
          478   8921: g_AM_BSP_GPIO_ITM_SWO
          479   8943: g_eCurrPwrMode
          480   8958: g_ui32TrimVer
          481   8972: g_ui32origMEMLDOActiveTrim
          482   8999: g_ui32origSimobuckVDDCtrim
          483   9026: g_ui32origSimobuckVDDFtrim
          484   9053: g_ui32origSimobuckVDDStrim
          485   9080: gpDcuEnable
          486   9092: gpDcuLock
          487   9102: program_mram_tmc_tcycrd
          488   9126: recover_broken_mram_tmc_r_timer1
          489   9159: storeAndWFIfuncRAM
          490   9178: __libspace_start
          491   9195: __temporary_stack_top$libspace
          492   9226: gFaultStack
          493   9238: gMspiXipState
          494   9252: gStartOff
          495   9262: g_ADCSlotsConfigured
          496   9283: g_ADCState
          497   9294: g_bDoADCadjust
          498   9309: g_bVDDCbuckboosted
          499   9328: g_pfnCharPrint
          500   9343: g_trim_reg_origvals
          501   9363: g_ui16ADCTEMP_code
          502   9382: g_ui16ADCVDD_code
          503   9400: g_ui32SampleCount
          504   9418: psGlobalAccessPtr
          505   9436: axiScratchBuf
          506   9450: ui32MCUClaimed
          507   9465: ui32DSP0Claimed
          508   9481: ui32DSP1Claimed
          509   9497: 
          510   9498: 
          511   9499: 


** Section #13 '.note' (SHT_NOTE)
    Size   : 32 bytes (alignment 4)


** Section #14 '.comment' (SHT_PROGBITS)
    Size   : 1604 bytes


** Section #15 '.shstrtab' (SHT_STRTAB)
    Size   : 148 bytes

            #  Offset String
        ====================================

            1      1: MCU_MRAM
            2     10: MCU_TCM
            3     18: SHARED_SRAM
            4     30: .debug_abbrev
            5     44: .debug_frame
            6     57: .debug_info
            7     69: .debug_line
            8     81: .debug_str
            9     92: .debug_ranges
           10    106: .symtab
           11    114: .strtab
           12    122: .note
           13    128: .comment
           14    137: .shstrtab
           15    147: 


