
========================================================================

** ELF Header Information

    File Name: bin\mspi_ds35x1ga_quad_example.axf

    Machine class: ELFCLASS32 (32-bit)
    Data encoding: ELFDATA2LSB (Little endian)
    Header version: EV_CURRENT (Current version)
    Operating System ABI: none
    ABI Version: 0
    File Type: ET_EXEC (Executable) (2)
    Machine: EM_ARM (ARM)

    Image Entry point: 0x00018235
    Flags: EF_ARM_HASENTRY + EF_ARM_ABI_FLOAT_HARD (0x05000402)

    ARM ELF revision: 5 (ABI version 2)

    Conforms to Hard float procedure-call standard

    Built with
    Component: ARM Compiler 5.06 update 6 (build 750) Tool: armasm [4d35ec]
    Component: ARM Compiler 5.06 update 6 (build 750) Tool: armlink [4d35ed]

    Header size: 52 bytes (0x34)
    Program header entry size: 32 bytes (0x20)
    Section header entry size: 40 bytes (0x28)

    Program header entries: 1
    Section header entries: 17

    Program header offset: 2069204 (0x001f92d4)
    Section header offset: 2069236 (0x001f92f4)

    Section header string table index: 16

========================================================================

** Program header #0 (PT_LOAD) [PF_X + PF_W + PF_R + PF_ARM_ENTRY]
    Size : 58208 bytes (32208 bytes in file)
    Virtual address: 0x00018000 (Alignment 8)


========================================================================

** Section #1 'MCU_MRAM' (SHT_PROGBITS) [SHF_ALLOC + SHF_EXECINSTR]
    Size   : 32024 bytes (alignment 4)
    Address: 0x00018000

    $d
    RESET
    __Vectors
        0x00018000:    10005dc8    .]..    DCD    268459464
        0x00018004:    00018201    ....    DCD    98817
        0x00018008:    0001821f    ....    DCD    98847
        0x0001800c:    00018331    1...    DCD    99121
        0x00018010:    00018221    !...    DCD    98849
        0x00018014:    00018223    #...    DCD    98851
        0x00018018:    00018225    %...    DCD    98853
        0x0001801c:    00000000    ....    DCD    0
        0x00018020:    00000000    ....    DCD    0
        0x00018024:    00000000    ....    DCD    0
        0x00018028:    00000000    ....    DCD    0
        0x0001802c:    00018227    '...    DCD    98855
        0x00018030:    00018229    )...    DCD    98857
        0x00018034:    00000000    ....    DCD    0
        0x00018038:    0001822b    +...    DCD    98859
        0x0001803c:    0001822d    -...    DCD    98861
        0x00018040:    0001822f    /...    DCD    98863
        0x00018044:    0001822f    /...    DCD    98863
        0x00018048:    0001822f    /...    DCD    98863
        0x0001804c:    0001822f    /...    DCD    98863
        0x00018050:    0001822f    /...    DCD    98863
        0x00018054:    0001822f    /...    DCD    98863
        0x00018058:    0001822f    /...    DCD    98863
        0x0001805c:    0001822f    /...    DCD    98863
        0x00018060:    0001822f    /...    DCD    98863
        0x00018064:    0001822f    /...    DCD    98863
        0x00018068:    0001822f    /...    DCD    98863
        0x0001806c:    0001822f    /...    DCD    98863
        0x00018070:    0001822f    /...    DCD    98863
        0x00018074:    0001822f    /...    DCD    98863
        0x00018078:    0001822f    /...    DCD    98863
        0x0001807c:    0001822f    /...    DCD    98863
        0x00018080:    0001822f    /...    DCD    98863
        0x00018084:    0001822f    /...    DCD    98863
        0x00018088:    0001822f    /...    DCD    98863
        0x0001808c:    0001822f    /...    DCD    98863
        0x00018090:    0001822f    /...    DCD    98863
        0x00018094:    0001822f    /...    DCD    98863
        0x00018098:    0001d365    e...    DCD    119653
        0x0001809c:    0001822f    /...    DCD    98863
        0x000180a0:    0001822f    /...    DCD    98863
        0x000180a4:    0001822f    /...    DCD    98863
        0x000180a8:    0001822f    /...    DCD    98863
        0x000180ac:    0001822f    /...    DCD    98863
        0x000180b0:    0001822f    /...    DCD    98863
        0x000180b4:    0001822f    /...    DCD    98863
        0x000180b8:    0001822f    /...    DCD    98863
        0x000180bc:    0001822f    /...    DCD    98863
        0x000180c0:    0001822f    /...    DCD    98863
        0x000180c4:    0001822f    /...    DCD    98863
        0x000180c8:    0001822f    /...    DCD    98863
        0x000180cc:    0001822f    /...    DCD    98863
        0x000180d0:    0001822f    /...    DCD    98863
        0x000180d4:    0001822f    /...    DCD    98863
        0x000180d8:    0001822f    /...    DCD    98863
        0x000180dc:    0001822f    /...    DCD    98863
        0x000180e0:    0001822f    /...    DCD    98863
        0x000180e4:    0001822f    /...    DCD    98863
        0x000180e8:    0001822f    /...    DCD    98863
        0x000180ec:    0001822f    /...    DCD    98863
        0x000180f0:    0001822f    /...    DCD    98863
        0x000180f4:    0001822f    /...    DCD    98863
        0x000180f8:    0001822f    /...    DCD    98863
        0x000180fc:    0001822f    /...    DCD    98863
        0x00018100:    0001822f    /...    DCD    98863
        0x00018104:    0001822f    /...    DCD    98863
        0x00018108:    0001822f    /...    DCD    98863
        0x0001810c:    0001822f    /...    DCD    98863
        0x00018110:    0001822f    /...    DCD    98863
        0x00018114:    0001822f    /...    DCD    98863
        0x00018118:    0001822f    /...    DCD    98863
        0x0001811c:    0001822f    /...    DCD    98863
        0x00018120:    0001822f    /...    DCD    98863
        0x00018124:    0001822f    /...    DCD    98863
        0x00018128:    0001822f    /...    DCD    98863
        0x0001812c:    0001822f    /...    DCD    98863
        0x00018130:    0001822f    /...    DCD    98863
        0x00018134:    0001822f    /...    DCD    98863
        0x00018138:    0001822f    /...    DCD    98863
        0x0001813c:    0001822f    /...    DCD    98863
        0x00018140:    0001822f    /...    DCD    98863
        0x00018144:    0001822f    /...    DCD    98863
        0x00018148:    0001822f    /...    DCD    98863
        0x0001814c:    0001822f    /...    DCD    98863
        0x00018150:    0001822f    /...    DCD    98863
        0x00018154:    0001822f    /...    DCD    98863
        0x00018158:    0001822f    /...    DCD    98863
        0x0001815c:    0001822f    /...    DCD    98863
        0x00018160:    0001822f    /...    DCD    98863
        0x00018164:    0001822f    /...    DCD    98863
        0x00018168:    0001822f    /...    DCD    98863
        0x0001816c:    0001822f    /...    DCD    98863
        0x00018170:    0001822f    /...    DCD    98863
        0x00018174:    0001822f    /...    DCD    98863
        0x00018178:    0001822f    /...    DCD    98863
        0x0001817c:    0001822f    /...    DCD    98863
        0x00018180:    0001822f    /...    DCD    98863
        0x00018184:    0001822f    /...    DCD    98863
        0x00018188:    0001822f    /...    DCD    98863
        0x0001818c:    0001822f    /...    DCD    98863
    __Patchable
        0x00018190:    00000000    ....    DCD    0
        0x00018194:    00000000    ....    DCD    0
        0x00018198:    00000000    ....    DCD    0
        0x0001819c:    00000000    ....    DCD    0
        0x000181a0:    00000000    ....    DCD    0
        0x000181a4:    00000000    ....    DCD    0
        0x000181a8:    00000000    ....    DCD    0
        0x000181ac:    00000000    ....    DCD    0
        0x000181b0:    00000000    ....    DCD    0
        0x000181b4:    00000000    ....    DCD    0
        0x000181b8:    00000000    ....    DCD    0
        0x000181bc:    00000000    ....    DCD    0
        0x000181c0:    00000000    ....    DCD    0
        0x000181c4:    00000000    ....    DCD    0
        0x000181c8:    00000000    ....    DCD    0
        0x000181cc:    00000000    ....    DCD    0
        0x000181d0:    00000000    ....    DCD    0
        0x000181d4:    00000000    ....    DCD    0
        0x000181d8:    00000000    ....    DCD    0
        0x000181dc:    00000000    ....    DCD    0
        0x000181e0:    00000000    ....    DCD    0
        0x000181e4:    00000000    ....    DCD    0
        0x000181e8:    00000000    ....    DCD    0
        0x000181ec:    00000000    ....    DCD    0
        0x000181f0:    00000000    ....    DCD    0
        0x000181f4:    00000000    ....    DCD    0
        0x000181f8:    00000000    ....    DCD    0
        0x000181fc:    00000000    ....    DCD    0
    $t
    $v0
    Reset_Handler
        0x00018200:    f64e5088    N..P    MOV      r0,#0xed88
        0x00018204:    f2ce0000    ....    MOVT     r0,#0xe000
        0x00018208:    6801        .h      LDR      r1,[r0,#0]
        0x0001820a:    f4410170    A.p.    ORR      r1,r1,#0xf00000
        0x0001820e:    6001        .`      STR      r1,[r0,#0]
        0x00018210:    f3bf8f4f    ..O.    DSB      
        0x00018214:    f3bf8f6f    ..o.    ISB      
        0x00018218:    4805        .H      LDR      r0,[pc,#20] ; [0x18230] = 0x18235
        0x0001821a:    4700        .G      BX       r0
        0x0001821c:    e7fe        ..      B        0x1821c ; Reset_Handler + 28
    NMI_Handler
        0x0001821e:    e7fe        ..      B        NMI_Handler ; 0x1821e
    MemManage_Handler
        0x00018220:    e7fe        ..      B        MemManage_Handler ; 0x18220
    BusFault_Handler
        0x00018222:    e7fe        ..      B        BusFault_Handler ; 0x18222
    UsageFault_Handler
        0x00018224:    e7fe        ..      B        UsageFault_Handler ; 0x18224
    SVC_Handler
        0x00018226:    e7fe        ..      B        SVC_Handler ; 0x18226
    DebugMon_Handler
        0x00018228:    e7fe        ..      B        DebugMon_Handler ; 0x18228
    PendSV_Handler
        0x0001822a:    e7fe        ..      B        PendSV_Handler ; 0x1822a
    SysTick_Handler
        0x0001822c:    e7fe        ..      B        SysTick_Handler ; 0x1822c
    am_cryptosec_isr
    am_default_isr
    am_adc_isr
    am_audadc0_isr
    am_brownout_isr
    am_cachecpu_isr
    am_clkgen_isr
    am_ctimer_isr
    am_disp_isr
    am_dsi_isr
    am_dspi2s0_isr
    am_dspi2s1_isr
    am_dspi2s2_isr
    am_dspi2s3_isr
    am_gpio0_001f_isr
    am_gpio0_203f_isr
    am_gpio0_405f_isr
    am_gpio0_607f_isr
    am_gpio1_001f_isr
    am_gpio1_203f_isr
    am_gpio1_405f_isr
    am_gpio1_607f_isr
    am_gpu_isr
    am_iomaster0_isr
    am_iomaster1_isr
    am_iomaster2_isr
    am_iomaster3_isr
    am_iomaster4_isr
    am_iomaster5_isr
    am_iomaster6_isr
    am_iomaster7_isr
    am_ioslave_acc_isr
    am_ioslave_ios_isr
    am_mspi0_isr
    am_mspi1_isr
    am_pdm0_isr
    am_pdm1_isr
    am_pdm2_isr
    am_pdm3_isr
    am_rtc_isr
    am_sdio_isr
    am_stimer_cmpr0_isr
    am_stimer_cmpr1_isr
    am_stimer_cmpr2_isr
    am_stimer_cmpr3_isr
    am_stimer_cmpr4_isr
    am_stimer_cmpr5_isr
    am_stimer_cmpr6_isr
    am_stimer_cmpr7_isr
    am_stimerof_isr
    am_timer00_isr
    am_timer01_isr
    am_timer02_isr
    am_timer03_isr
    am_timer04_isr
    am_timer05_isr
    am_timer06_isr
    am_timer07_isr
    am_timer08_isr
    am_timer09_isr
    am_timer10_isr
    am_timer11_isr
    am_timer12_isr
    am_timer13_isr
    am_timer14_isr
    am_timer15_isr
    am_uart1_isr
    am_uart2_isr
    am_uart3_isr
    am_uart_isr
    am_usb_isr
    am_vcomp_isr
    am_watchdog_isr
        0x0001822e:    e7fe        ..      B        am_cryptosec_isr ; 0x1822e
    $d
        0x00018230:    00018235    5...    DCD    98869
    $t
    !!!main
    __main
        0x00018234:    f000f802    ....    BL       __scatterload ; 0x1823c
        0x00018238:    f000f86a    ..j.    BL       __rt_entry ; 0x18310
    !!!scatter
    __scatterload
    __scatterload_rt2
    __scatterload_rt2_thumb_only
        0x0001823c:    a00a        ..      ADR      r0,{pc}+0x2c ; 0x18268
        0x0001823e:    e8900c00    ....    LDM      r0,{r10,r11}
        0x00018242:    4482        .D      ADD      r10,r10,r0
        0x00018244:    4483        .D      ADD      r11,r11,r0
        0x00018246:    f1aa0701    ....    SUB      r7,r10,#1
    __scatterload_null
        0x0001824a:    45da        .E      CMP      r10,r11
        0x0001824c:    d101        ..      BNE      0x18252 ; __scatterload_null + 8
        0x0001824e:    f000f85f    .._.    BL       __rt_entry ; 0x18310
        0x00018252:    f2af0e09    ....    ADR      lr,{pc}-7 ; 0x1824b
        0x00018256:    e8ba000f    ....    LDM      r10!,{r0-r3}
        0x0001825a:    f0130f01    ....    TST      r3,#1
        0x0001825e:    bf18        ..      IT       NE
        0x00018260:    1afb        ..      SUBNE    r3,r7,r3
        0x00018262:    f0430301    C...    ORR      r3,r3,#1
        0x00018266:    4718        .G      BX       r3
    $d
        0x00018268:    00007a80    .z..    DCD    31360
        0x0001826c:    00007ab0    .z..    DCD    31408
    $t
    !!dczerorl2
    __decompress
    __decompress1
        0x00018270:    440a        .D      ADD      r2,r2,r1
        0x00018272:    f04f0c00    O...    MOV      r12,#0
        0x00018276:    f8103b01    ...;    LDRB     r3,[r0],#1
        0x0001827a:    f0130407    ....    ANDS     r4,r3,#7
        0x0001827e:    bf08        ..      IT       EQ
        0x00018280:    f8104b01    ...K    LDRBEQ   r4,[r0],#1
        0x00018284:    111d        ..      ASRS     r5,r3,#4
        0x00018286:    bf08        ..      IT       EQ
        0x00018288:    f8105b01    ...[    LDRBEQ   r5,[r0],#1
        0x0001828c:    1e64        d.      SUBS     r4,r4,#1
        0x0001828e:    d005        ..      BEQ      0x1829c ; __decompress + 44
        0x00018290:    f8106b01    ...k    LDRB     r6,[r0],#1
        0x00018294:    1e64        d.      SUBS     r4,r4,#1
        0x00018296:    f8016b01    ...k    STRB     r6,[r1],#1
        0x0001829a:    d1f9        ..      BNE      0x18290 ; __decompress + 32
        0x0001829c:    f0130f08    ....    TST      r3,#8
        0x000182a0:    bf1e        ..      ITTT     NE
        0x000182a2:    f8104b01    ...K    LDRBNE   r4,[r0],#1
        0x000182a6:    1cad        ..      ADDNE    r5,r5,#2
        0x000182a8:    1b0c        ..      SUBNE    r4,r1,r4
        0x000182aa:    d109        ..      BNE      0x182c0 ; __decompress + 80
        0x000182ac:    1e6d        m.      SUBS     r5,r5,#1
        0x000182ae:    bf58        X.      IT       PL
        0x000182b0:    f801cb01    ....    STRBPL   r12,[r1],#1
        0x000182b4:    d5fa        ..      BPL      0x182ac ; __decompress + 60
        0x000182b6:    e005        ..      B        0x182c4 ; __decompress + 84
        0x000182b8:    f8146b01    ...k    LDRB     r6,[r4],#1
        0x000182bc:    f8016b01    ...k    STRB     r6,[r1],#1
        0x000182c0:    1e6d        m.      SUBS     r5,r5,#1
        0x000182c2:    d5f9        ..      BPL      0x182b8 ; __decompress + 72
        0x000182c4:    4291        .B      CMP      r1,r2
        0x000182c6:    d3d6        ..      BCC      0x18276 ; __decompress + 6
        0x000182c8:    4770        pG      BX       lr
        0x000182ca:    0000        ..      MOVS     r0,r0
    !!handler_copy
    __scatterload_copy
        0x000182cc:    3a10        .:      SUBS     r2,r2,#0x10
        0x000182ce:    bf24        $.      ITT      CS
        0x000182d0:    c878        x.      LDMCS    r0!,{r3-r6}
        0x000182d2:    c178        x.      STMCS    r1!,{r3-r6}
        0x000182d4:    d8fa        ..      BHI      __scatterload_copy ; 0x182cc
        0x000182d6:    0752        R.      LSLS     r2,r2,#29
        0x000182d8:    bf24        $.      ITT      CS
        0x000182da:    c830        0.      LDMCS    r0!,{r4,r5}
        0x000182dc:    c130        0.      STMCS    r1!,{r4,r5}
        0x000182de:    bf44        D.      ITT      MI
        0x000182e0:    6804        .h      LDRMI    r4,[r0,#0]
        0x000182e2:    600c        .`      STRMI    r4,[r1,#0]
        0x000182e4:    4770        pG      BX       lr
        0x000182e6:    0000        ..      MOVS     r0,r0
    !!handler_zi
    __scatterload_zeroinit
        0x000182e8:    2300        .#      MOVS     r3,#0
        0x000182ea:    2400        .$      MOVS     r4,#0
        0x000182ec:    2500        .%      MOVS     r5,#0
        0x000182ee:    2600        .&      MOVS     r6,#0
        0x000182f0:    3a10        .:      SUBS     r2,r2,#0x10
        0x000182f2:    bf28        (.      IT       CS
        0x000182f4:    c178        x.      STMCS    r1!,{r3-r6}
        0x000182f6:    d8fb        ..      BHI      0x182f0 ; __scatterload_zeroinit + 8
        0x000182f8:    0752        R.      LSLS     r2,r2,#29
        0x000182fa:    bf28        (.      IT       CS
        0x000182fc:    c130        0.      STMCS    r1!,{r4,r5}
        0x000182fe:    bf48        H.      IT       MI
        0x00018300:    600b        .`      STRMI    r3,[r1,#0]
        0x00018302:    4770        pG      BX       lr
    .ARM.Collect$$libinit$$00000000
    __rt_lib_init
        0x00018304:    b51f        ..      PUSH     {r0-r4,lr}
    .ARM.Collect$$libinit$$00000001
    __rt_lib_init_fp_1
        0x00018306:    f007f8d4    ....    BL       _fp_init ; 0x1f4b2
    .ARM.Collect$$libinit$$00000004
    .ARM.Collect$$libinit$$0000000A
    .ARM.Collect$$libinit$$0000000C
    .ARM.Collect$$libinit$$0000000E
    .ARM.Collect$$libinit$$00000011
    .ARM.Collect$$libinit$$00000013
    .ARM.Collect$$libinit$$00000015
    .ARM.Collect$$libinit$$00000017
    .ARM.Collect$$libinit$$00000019
    .ARM.Collect$$libinit$$0000001B
    .ARM.Collect$$libinit$$0000001D
    .ARM.Collect$$libinit$$0000001F
    .ARM.Collect$$libinit$$00000021
    .ARM.Collect$$libinit$$00000023
    .ARM.Collect$$libinit$$00000025
    .ARM.Collect$$libinit$$0000002C
    .ARM.Collect$$libinit$$0000002E
    .ARM.Collect$$libinit$$00000030
    .ARM.Collect$$libinit$$00000032
    .ARM.Collect$$libinit$$00000033
    __rt_lib_init_alloca_1
    __rt_lib_init_argv_1
    __rt_lib_init_atexit_1
    __rt_lib_init_clock_1
    __rt_lib_init_cpp_1
    __rt_lib_init_exceptions_1
    __rt_lib_init_fp_trap_1
    __rt_lib_init_getenv_1
    __rt_lib_init_heap_1
    __rt_lib_init_lc_collate_1
    __rt_lib_init_lc_ctype_1
    __rt_lib_init_lc_monetary_1
    __rt_lib_init_lc_numeric_1
    __rt_lib_init_lc_time_1
    __rt_lib_init_preinit_1
    __rt_lib_init_rand_1
    __rt_lib_init_return
    __rt_lib_init_signal_1
    __rt_lib_init_stdio_1
    __rt_lib_init_user_alloc_1
        0x0001830a:    bd1f        ..      POP      {r0-r4,pc}
    .ARM.Collect$$libshutdown$$00000000
    __rt_lib_shutdown
        0x0001830c:    b510        ..      PUSH     {r4,lr}
    .ARM.Collect$$libshutdown$$00000002
    .ARM.Collect$$libshutdown$$00000004
    .ARM.Collect$$libshutdown$$00000007
    .ARM.Collect$$libshutdown$$0000000A
    .ARM.Collect$$libshutdown$$0000000C
    .ARM.Collect$$libshutdown$$0000000F
    .ARM.Collect$$libshutdown$$00000010
    __rt_lib_shutdown_cpp_1
    __rt_lib_shutdown_fp_trap_1
    __rt_lib_shutdown_heap_1
    __rt_lib_shutdown_return
    __rt_lib_shutdown_signal_1
    __rt_lib_shutdown_stdio_1
    __rt_lib_shutdown_user_alloc_1
        0x0001830e:    bd10        ..      POP      {r4,pc}
    .ARM.Collect$$rtentry$$00000000
    .ARM.Collect$$rtentry$$00000002
    .ARM.Collect$$rtentry$$00000004
    __rt_entry
    __rt_entry_presh_1
    __rt_entry_sh
        0x00018310:    f000f92f    ../.    BL       __user_setup_stackheap ; 0x18572
        0x00018314:    4611        .F      MOV      r1,r2
    .ARM.Collect$$rtentry$$00000009
    .ARM.Collect$$rtentry$$0000000A
    __rt_entry_li
    __rt_entry_postsh_1
        0x00018316:    f7fffff5    ....    BL       __rt_lib_init ; 0x18304
    .ARM.Collect$$rtentry$$0000000C
    .ARM.Collect$$rtentry$$0000000D
    __rt_entry_main
    __rt_entry_postli_1
        0x0001831a:    f006f8e1    ....    BL       main ; 0x1e4e0
        0x0001831e:    f000f94d    ..M.    BL       exit ; 0x185bc
    .ARM.Collect$$rtexit$$00000000
    __rt_exit
        0x00018322:    b403        ..      PUSH     {r0,r1}
    .ARM.Collect$$rtexit$$00000002
    .ARM.Collect$$rtexit$$00000003
    __rt_exit_ls
    __rt_exit_prels_1
        0x00018324:    f7fffff2    ....    BL       __rt_lib_shutdown ; 0x1830c
    .ARM.Collect$$rtexit$$00000004
    __rt_exit_exit
        0x00018328:    bc03        ..      POP      {r0,r1}
        0x0001832a:    f000f955    ..U.    BL       _sys_exit ; 0x185d8
        0x0001832e:    0000        ..      MOVS     r0,r0
    .emb_text
    $v0
    HardFault_Handler
        0x00018330:    f01e0f04    ....    TST      lr,#4
        0x00018334:    bf0c        ..      ITE      EQ
        0x00018336:    f3ef8008    ....    MRSEQ    r0,MSP
        0x0001833a:    f3ef8009    ....    MRSNE    r0,PSP
        0x0001833e:    4904        .I      LDR      r1,[pc,#16] ; [0x18350] = 0x10001a70
        0x00018340:    f5017100    ...q    ADD      r1,r1,#0x200
        0x00018344:    f0210103    !...    BIC      r1,r1,#3
        0x00018348:    468d        .F      MOV      sp,r1
        0x0001834a:    f005b825    ..%.    B.W      am_util_faultisr_collect_data ; 0x1d398
        0x0001834e:    bf00        ..      NOP      
    $d
        0x00018350:    10001a70    p...    DCD    268442224
    $t
    getStackedReg
        0x00018354:    0080        ..      LSLS     r0,r0,#2
        0x00018356:    1840        @.      ADDS     r0,r0,r1
        0x00018358:    6800        .h      LDR      r0,[r0,#0]
        0x0001835a:    4770        pG      BX       lr
    .emb_text
    $v0
    am_hal_interrupt_master_enable
        0x0001835c:    f3ef8010    ....    MRS      r0,PRIMASK
        0x00018360:    b662        b.      CPSIE    i
        0x00018362:    4770        pG      BX       lr
    am_hal_interrupt_master_disable
        0x00018364:    f3ef8010    ....    MRS      r0,PRIMASK
        0x00018368:    b672        r.      CPSID    i
        0x0001836a:    4770        pG      BX       lr
    am_hal_interrupt_master_set
        0x0001836c:    f3808810    ....    MSR      PRIMASK,r0
        0x00018370:    4770        pG      BX       lr
        0x00018372:    0000        ..      MOVS     r0,r0
    .text
    $v0
    __user_initial_stackheap
        0x00018374:    4802        .H      LDR      r0,[pc,#8] ; [0x18380] = 0x10004dc8
        0x00018376:    4903        .I      LDR      r1,[pc,#12] ; [0x18384] = 0x10005dc8
        0x00018378:    4a01        .J      LDR      r2,[pc,#4] ; [0x18380] = 0x10004dc8
        0x0001837a:    4b03        .K      LDR      r3,[pc,#12] ; [0x18388] = 0x10004dc8
        0x0001837c:    4770        pG      BX       lr
    $d
        0x0001837e:    0000        ..      DCW    0
        0x00018380:    10004dc8    .M..    DCD    268455368
        0x00018384:    10005dc8    .]..    DCD    268459464
        0x00018388:    10004dc8    .M..    DCD    268455368
    $t
    .text
    __aeabi_llsl
    _ll_shift_l
        0x0001838c:    f1b20320    .. .    SUBS     r3,r2,#0x20
        0x00018390:    d50a        ..      BPL      0x183a8 ; __aeabi_llsl + 28
        0x00018392:    f1c20320    .. .    RSB      r3,r2,#0x20
        0x00018396:    fa01f102    ....    LSL      r1,r1,r2
        0x0001839a:    fa20f303     ...    LSR      r3,r0,r3
        0x0001839e:    fa00f002    ....    LSL      r0,r0,r2
        0x000183a2:    ea410103    A...    ORR      r1,r1,r3
        0x000183a6:    4770        pG      BX       lr
        0x000183a8:    fa00f103    ....    LSL      r1,r0,r3
        0x000183ac:    f04f0000    O...    MOV      r0,#0
        0x000183b0:    4770        pG      BX       lr
    .text
    __aeabi_llsr
    _ll_ushift_r
        0x000183b2:    f1b20320    .. .    SUBS     r3,r2,#0x20
        0x000183b6:    d50a        ..      BPL      0x183ce ; __aeabi_llsr + 28
        0x000183b8:    f1c20320    .. .    RSB      r3,r2,#0x20
        0x000183bc:    fa20f002     ...    LSR      r0,r0,r2
        0x000183c0:    fa01f303    ....    LSL      r3,r1,r3
        0x000183c4:    fa21f102    !...    LSR      r1,r1,r2
        0x000183c8:    ea400003    @...    ORR      r0,r0,r3
        0x000183cc:    4770        pG      BX       lr
        0x000183ce:    fa21f003    !...    LSR      r0,r1,r3
        0x000183d2:    f04f0100    O...    MOV      r1,#0
        0x000183d6:    4770        pG      BX       lr
    .text
    memcmp
        0x000183d8:    ea400301    @...    ORR      r3,r0,r1
        0x000183dc:    b510        ..      PUSH     {r4,lr}
        0x000183de:    079b        ..      LSLS     r3,r3,#30
        0x000183e0:    d10f        ..      BNE      0x18402 ; memcmp + 42
        0x000183e2:    2a04        .*      CMP      r2,#4
        0x000183e4:    d30d        ..      BCC      0x18402 ; memcmp + 42
        0x000183e6:    c810        ..      LDM      r0!,{r4}
        0x000183e8:    c908        ..      LDM      r1!,{r3}
        0x000183ea:    1f12        ..      SUBS     r2,r2,#4
        0x000183ec:    429c        .B      CMP      r4,r3
        0x000183ee:    d0f8        ..      BEQ      0x183e2 ; memcmp + 10
        0x000183f0:    ba20         .      REV      r0,r4
        0x000183f2:    ba19        ..      REV      r1,r3
        0x000183f4:    4288        .B      CMP      r0,r1
        0x000183f6:    d901        ..      BLS      0x183fc ; memcmp + 36
        0x000183f8:    2001        .       MOVS     r0,#1
        0x000183fa:    bd10        ..      POP      {r4,pc}
        0x000183fc:    f04f30ff    O..0    MOV      r0,#0xffffffff
        0x00018400:    bd10        ..      POP      {r4,pc}
        0x00018402:    b11a        ..      CBZ      r2,0x1840c ; memcmp + 52
        0x00018404:    07d3        ..      LSLS     r3,r2,#31
        0x00018406:    d003        ..      BEQ      0x18410 ; memcmp + 56
        0x00018408:    1c52        R.      ADDS     r2,r2,#1
        0x0001840a:    e007        ..      B        0x1841c ; memcmp + 68
        0x0001840c:    2000        .       MOVS     r0,#0
        0x0001840e:    bd10        ..      POP      {r4,pc}
        0x00018410:    f8103b01    ...;    LDRB     r3,[r0],#1
        0x00018414:    f8114b01    ...K    LDRB     r4,[r1],#1
        0x00018418:    1b1b        ..      SUBS     r3,r3,r4
        0x0001841a:    d107        ..      BNE      0x1842c ; memcmp + 84
        0x0001841c:    f8103b01    ...;    LDRB     r3,[r0],#1
        0x00018420:    f8114b01    ...K    LDRB     r4,[r1],#1
        0x00018424:    1b1b        ..      SUBS     r3,r3,r4
        0x00018426:    d101        ..      BNE      0x1842c ; memcmp + 84
        0x00018428:    1e92        ..      SUBS     r2,r2,#2
        0x0001842a:    d1f1        ..      BNE      0x18410 ; memcmp + 56
        0x0001842c:    4618        .F      MOV      r0,r3
        0x0001842e:    bd10        ..      POP      {r4,pc}
    .text
    __aeabi_memcpy
    __rt_memcpy
        0x00018430:    2a03        .*      CMP      r2,#3
        0x00018432:    f2408030    @.0.    BLS.W    _memcpy_lastbytes ; 0x18496
        0x00018436:    f0100c03    ....    ANDS     r12,r0,#3
        0x0001843a:    f0008015    ....    BEQ.W    0x18468 ; __aeabi_memcpy + 56
        0x0001843e:    f8113b01    ...;    LDRB     r3,[r1],#1
        0x00018442:    f1bc0f02    ....    CMP      r12,#2
        0x00018446:    4462        bD      ADD      r2,r2,r12
        0x00018448:    bf98        ..      IT       LS
        0x0001844a:    f811cb01    ....    LDRBLS   r12,[r1],#1
        0x0001844e:    f8003b01    ...;    STRB     r3,[r0],#1
        0x00018452:    bf38        8.      IT       CC
        0x00018454:    f8113b01    ...;    LDRBCC   r3,[r1],#1
        0x00018458:    f1a20204    ....    SUB      r2,r2,#4
        0x0001845c:    bf98        ..      IT       LS
        0x0001845e:    f800cb01    ....    STRBLS   r12,[r0],#1
        0x00018462:    bf38        8.      IT       CC
        0x00018464:    f8003b01    ...;    STRBCC   r3,[r0],#1
        0x00018468:    f0110303    ....    ANDS     r3,r1,#3
        0x0001846c:    f000804f    ..O.    BEQ.W    __aeabi_memcpy4 ; 0x1850e
        0x00018470:    3a08        .:      SUBS     r2,r2,#8
        0x00018472:    f0c08008    ....    BCC.W    0x18486 ; __aeabi_memcpy + 86
        0x00018476:    f8513b04    Q..;    LDR      r3,[r1],#4
        0x0001847a:    3a08        .:      SUBS     r2,r2,#8
        0x0001847c:    f851cb04    Q...    LDR      r12,[r1],#4
        0x00018480:    e8a01008    ....    STM      r0!,{r3,r12}
        0x00018484:    e7f5        ..      B        0x18472 ; __aeabi_memcpy + 66
        0x00018486:    1d12        ..      ADDS     r2,r2,#4
        0x00018488:    bf5c        \.      ITT      PL
        0x0001848a:    f8513b04    Q..;    LDRPL    r3,[r1],#4
        0x0001848e:    f8403b04    @..;    STRPL    r3,[r0],#4
        0x00018492:    f3af8000    ....    NOP.W    
    _memcpy_lastbytes
        0x00018496:    07d2        ..      LSLS     r2,r2,#31
        0x00018498:    bf24        $.      ITT      CS
        0x0001849a:    f8113b01    ...;    LDRBCS   r3,[r1],#1
        0x0001849e:    f811cb01    ....    LDRBCS   r12,[r1],#1
        0x000184a2:    bf48        H.      IT       MI
        0x000184a4:    f8112b01    ...+    LDRBMI   r2,[r1],#1
        0x000184a8:    bf24        $.      ITT      CS
        0x000184aa:    f8003b01    ...;    STRBCS   r3,[r0],#1
        0x000184ae:    f800cb01    ....    STRBCS   r12,[r0],#1
        0x000184b2:    bf48        H.      IT       MI
        0x000184b4:    f8002b01    ...+    STRBMI   r2,[r0],#1
        0x000184b8:    4770        pG      BX       lr
    .text
    __aeabi_memclr4
    __aeabi_memclr8
    __rt_memclr_w
        0x000184ba:    f04f0200    O...    MOV      r2,#0
    _memset_w
        0x000184be:    b500        ..      PUSH     {lr}
        0x000184c0:    4613        .F      MOV      r3,r2
        0x000184c2:    4694        .F      MOV      r12,r2
        0x000184c4:    4696        .F      MOV      lr,r2
        0x000184c6:    3920         9      SUBS     r1,r1,#0x20
        0x000184c8:    bf22        ".      ITTT     CS
        0x000184ca:    e8a0500c    ...P    STMCS    r0!,{r2,r3,r12,lr}
        0x000184ce:    e8a0500c    ...P    STMCS    r0!,{r2,r3,r12,lr}
        0x000184d2:    f1b10120    .. .    SUBSCS   r1,r1,#0x20
        0x000184d6:    f4bfaff7    ....    BCS.W    0x184c8 ; _memset_w + 10
        0x000184da:    0709        ..      LSLS     r1,r1,#28
        0x000184dc:    bf28        (.      IT       CS
        0x000184de:    e8a0500c    ...P    STMCS    r0!,{r2,r3,r12,lr}
        0x000184e2:    bf48        H.      IT       MI
        0x000184e4:    c00c        ..      STMMI    r0!,{r2,r3}
        0x000184e6:    f85deb04    ]...    POP      {lr}
        0x000184ea:    0089        ..      LSLS     r1,r1,#2
        0x000184ec:    bf28        (.      IT       CS
        0x000184ee:    f8402b04    @..+    STRCS    r2,[r0],#4
        0x000184f2:    bf08        ..      IT       EQ
        0x000184f4:    4770        pG      BXEQ     lr
        0x000184f6:    bf48        H.      IT       MI
        0x000184f8:    f8202b02     ..+    STRHMI   r2,[r0],#2
        0x000184fc:    f0114f80    ...O    TST      r1,#0x40000000
        0x00018500:    bf18        ..      IT       NE
        0x00018502:    f8002b01    ...+    STRBNE   r2,[r0],#1
        0x00018506:    4770        pG      BX       lr
    .text
    __use_two_region_memory
        0x00018508:    4770        pG      BX       lr
    __rt_heap_escrow$2region
        0x0001850a:    4770        pG      BX       lr
    __rt_heap_expand$2region
        0x0001850c:    4770        pG      BX       lr
    .text
    __aeabi_memcpy4
    __aeabi_memcpy8
    __rt_memcpy_w
        0x0001850e:    b510        ..      PUSH     {r4,lr}
        0x00018510:    3a20         :      SUBS     r2,r2,#0x20
        0x00018512:    f0c0800b    ....    BCC.W    0x1852c ; __aeabi_memcpy4 + 30
        0x00018516:    e8b15018    ...P    LDM      r1!,{r3,r4,r12,lr}
        0x0001851a:    3a20         :      SUBS     r2,r2,#0x20
        0x0001851c:    e8a05018    ...P    STM      r0!,{r3,r4,r12,lr}
        0x00018520:    e8b15018    ...P    LDM      r1!,{r3,r4,r12,lr}
        0x00018524:    e8a05018    ...P    STM      r0!,{r3,r4,r12,lr}
        0x00018528:    f4bfaff5    ....    BCS.W    0x18516 ; __aeabi_memcpy4 + 8
        0x0001852c:    ea5f7c02    _..|    LSLS     r12,r2,#28
        0x00018530:    bf24        $.      ITT      CS
        0x00018532:    e8b15018    ...P    LDMCS    r1!,{r3,r4,r12,lr}
        0x00018536:    e8a05018    ...P    STMCS    r0!,{r3,r4,r12,lr}
        0x0001853a:    bf44        D.      ITT      MI
        0x0001853c:    c918        ..      LDMMI    r1!,{r3,r4}
        0x0001853e:    c018        ..      STMMI    r0!,{r3,r4}
        0x00018540:    e8bd4010    ...@    POP      {r4,lr}
        0x00018544:    ea5f7c82    _..|    LSLS     r12,r2,#30
        0x00018548:    bf24        $.      ITT      CS
        0x0001854a:    f8513b04    Q..;    LDRCS    r3,[r1],#4
        0x0001854e:    f8403b04    @..;    STRCS    r3,[r0],#4
        0x00018552:    bf08        ..      IT       EQ
        0x00018554:    4770        pG      BXEQ     lr
    _memcpy_lastbytes_aligned
        0x00018556:    07d2        ..      LSLS     r2,r2,#31
        0x00018558:    bf28        (.      IT       CS
        0x0001855a:    f8313b02    1..;    LDRHCS   r3,[r1],#2
        0x0001855e:    bf48        H.      IT       MI
        0x00018560:    f8112b01    ...+    LDRBMI   r2,[r1],#1
        0x00018564:    bf28        (.      IT       CS
        0x00018566:    f8203b02     ..;    STRHCS   r3,[r0],#2
        0x0001856a:    bf48        H.      IT       MI
        0x0001856c:    f8002b01    ...+    STRBMI   r2,[r0],#1
        0x00018570:    4770        pG      BX       lr
    .text
    __user_setup_stackheap
        0x00018572:    4675        uF      MOV      r5,lr
        0x00018574:    f000f82c    ..,.    BL       __user_libspace ; 0x185d0
        0x00018578:    46ae        .F      MOV      lr,r5
        0x0001857a:    0005        ..      MOVS     r5,r0
        0x0001857c:    4669        iF      MOV      r1,sp
        0x0001857e:    4653        SF      MOV      r3,r10
        0x00018580:    f0200007     ...    BIC      r0,r0,#7
        0x00018584:    4685        .F      MOV      sp,r0
        0x00018586:    b018        ..      ADD      sp,sp,#0x60
        0x00018588:    b520         .      PUSH     {r5,lr}
        0x0001858a:    f7fffef3    ....    BL       __user_initial_stackheap ; 0x18374
        0x0001858e:    e8bd4020    .. @    POP      {r5,lr}
        0x00018592:    f04f0600    O...    MOV      r6,#0
        0x00018596:    f04f0700    O...    MOV      r7,#0
        0x0001859a:    f04f0800    O...    MOV      r8,#0
        0x0001859e:    f04f0b00    O...    MOV      r11,#0
        0x000185a2:    f0210107    !...    BIC      r1,r1,#7
        0x000185a6:    46ac        .F      MOV      r12,r5
        0x000185a8:    e8ac09c0    ....    STM      r12!,{r6-r8,r11}
        0x000185ac:    e8ac09c0    ....    STM      r12!,{r6-r8,r11}
        0x000185b0:    e8ac09c0    ....    STM      r12!,{r6-r8,r11}
        0x000185b4:    e8ac09c0    ....    STM      r12!,{r6-r8,r11}
        0x000185b8:    468d        .F      MOV      sp,r1
        0x000185ba:    4770        pG      BX       lr
    .text
    exit
        0x000185bc:    b510        ..      PUSH     {r4,lr}
        0x000185be:    4604        .F      MOV      r4,r0
        0x000185c0:    f3af8000    ....    NOP.W    
        0x000185c4:    4620         F      MOV      r0,r4
        0x000185c6:    e8bd4010    ...@    POP      {r4,lr}
        0x000185ca:    f7ffbeaa    ....    B.W      __rt_exit ; 0x18322
        0x000185ce:    0000        ..      MOVS     r0,r0
    .text
    __user_libspace
    __user_perproc_libspace
    __user_perthread_libspace
        0x000185d0:    4800        .H      LDR      r0,[pc,#0] ; [0x185d4] = 0x10004d64
        0x000185d2:    4770        pG      BX       lr
    $d
        0x000185d4:    10004d64    dM..    DCD    268455268
    $t
    .text
    _sys_exit
        0x000185d8:    4901        .I      LDR      r1,[pc,#4] ; [0x185e0] = 0x20026
        0x000185da:    2018        .       MOVS     r0,#0x18
        0x000185dc:    beab        ..      BKPT     #0xab
        0x000185de:    e7fe        ..      B        0x185de ; _sys_exit + 6
    $d
        0x000185e0:    00020026    &...    DCD    131110
    $t
    .text
    __I$use$semihosting
    __use_no_semihosting_swi
        0x000185e4:    4770        pG      BX       lr
    i.__ARM_common_memcpy4_5
    .text
    __ARM_common_memcpy4_5
    __semihosting_library_function
        0x000185e6:    680a        .h      LDR      r2,[r1,#0]
        0x000185e8:    6002        .`      STR      r2,[r0,#0]
        0x000185ea:    790b        .y      LDRB     r3,[r1,#4]
        0x000185ec:    7103        .q      STRB     r3,[r0,#4]
        0x000185ee:    4770        pG      BX       lr
    i.am_bsp_itm_printf_enable
    am_bsp_itm_printf_enable
        0x000185f0:    4817        .H      LDR      r0,[pc,#92] ; [0x18650] = 0x40021000
        0x000185f2:    b500        ..      PUSH     {lr}
        0x000185f4:    6880        .h      LDR      r0,[r0,#8]
        0x000185f6:    b083        ..      SUB      sp,sp,#0xc
        0x000185f8:    f4101f80    ....    TST      r0,#0x100000
        0x000185fc:    d010        ..      BEQ      0x18620 ; am_bsp_itm_printf_enable + 48
        0x000185fe:    4815        .H      LDR      r0,[pc,#84] ; [0x18654] = 0x400c0a7c
        0x00018600:    6800        .h      LDR      r0,[r0,#0]
        0x00018602:    f0100f01    ....    TST      r0,#1
        0x00018606:    d00b        ..      BEQ      0x18620 ; am_bsp_itm_printf_enable + 48
        0x00018608:    4668        hF      MOV      r0,sp
        0x0001860a:    f002f895    ....    BL       am_hal_dcu_get ; 0x1a738
        0x0001860e:    9800        ..      LDR      r0,[sp,#0]
        0x00018610:    f0100f10    ....    TST      r0,#0x10
        0x00018614:    d108        ..      BNE      0x18628 ; am_bsp_itm_printf_enable + 56
        0x00018616:    2110        .!      MOVS     r1,#0x10
        0x00018618:    2001        .       MOVS     r0,#1
        0x0001861a:    f002f8d5    ....    BL       am_hal_dcu_update ; 0x1a7c8
        0x0001861e:    b118        ..      CBZ      r0,0x18628 ; am_bsp_itm_printf_enable + 56
        0x00018620:    b003        ..      ADD      sp,sp,#0xc
        0x00018622:    f04f30ff    O..0    MOV      r0,#0xffffffff
        0x00018626:    bd00        ..      POP      {pc}
        0x00018628:    490b        .I      LDR      r1,[pc,#44] ; [0x18658] = 0x100000b8
        0x0001862a:    2001        .       MOVS     r0,#1
        0x0001862c:    7008        .p      STRB     r0,[r1,#0]
        0x0001862e:    f002fa3d    ..=.    BL       am_hal_itm_enable ; 0x1aaac
        0x00018632:    480a        .H      LDR      r0,[pc,#40] ; [0x1865c] = 0xf4240
        0x00018634:    f004fe60    ..`.    BL       am_hal_tpiu_enable ; 0x1d2f8
        0x00018638:    4809        .H      LDR      r0,[pc,#36] ; [0x18660] = 0x10000168
        0x0001863a:    6801        .h      LDR      r1,[r0,#0]
        0x0001863c:    9101        ..      STR      r1,[sp,#4]
        0x0001863e:    201c        .       MOVS     r0,#0x1c
        0x00018640:    f002f9d0    ....    BL       am_hal_gpio_pinconfig ; 0x1a9e4
        0x00018644:    4807        .H      LDR      r0,[pc,#28] ; [0x18664] = 0x1aaf5
        0x00018646:    f005f9e1    ....    BL       am_util_stdio_printf_init ; 0x1da0c
        0x0001864a:    b003        ..      ADD      sp,sp,#0xc
        0x0001864c:    2000        .       MOVS     r0,#0
        0x0001864e:    bd00        ..      POP      {pc}
    $d
        0x00018650:    40021000    ...@    DCD    1073876992
        0x00018654:    400c0a7c    |..@    DCD    1074530940
        0x00018658:    100000b8    ....    DCD    268435640
        0x0001865c:    000f4240    @B..    DCD    1000000
        0x00018660:    10000168    h...    DCD    268435816
        0x00018664:    0001aaf5    ....    DCD    109301
    $t
    i.am_bsp_low_power_init
    am_bsp_low_power_init
        0x00018668:    b510        ..      PUSH     {r4,lr}
        0x0001866a:    f004fb5f    .._.    BL       am_hal_pwrctrl_low_power_init ; 0x1cd2c
        0x0001866e:    2100        .!      MOVS     r1,#0
        0x00018670:    4608        .F      MOV      r0,r1
        0x00018672:    f004fa47    ..G.    BL       am_hal_pwrctrl_control ; 0x1cb04
        0x00018676:    e8bd4010    ...@    POP      {r4,lr}
        0x0001867a:    f004bdbf    ....    B.W      am_hal_rtc_osc_disable ; 0x1d1fc
        0x0001867e:    0000        ..      MOVS     r0,r0
    i.am_bsp_mspi_pins_enable
    am_bsp_mspi_pins_enable
        0x00018680:    b538        8.      PUSH     {r3-r5,lr}
        0x00018682:    460c        .F      MOV      r4,r1
        0x00018684:    49fd        .I      LDR      r1,[pc,#1012] ; [0x18a7c] = 0x100001e8
        0x00018686:    4dfe        .M      LDR      r5,[pc,#1016] ; [0x18a80] = 0x100001ec
        0x00018688:    b1a0        ..      CBZ      r0,0x186b4 ; am_bsp_mspi_pins_enable + 52
        0x0001868a:    2801        .(      CMP      r0,#1
        0x0001868c:    f0008179    ..y.    BEQ.W    0x18982 ; am_bsp_mspi_pins_enable + 770
        0x00018690:    2802        .(      CMP      r0,#2
        0x00018692:    bf18        ..      IT       NE
        0x00018694:    bd38        8.      POPNE    {r3-r5,pc}
        0x00018696:    2c14        .,      CMP      r4,#0x14
        0x00018698:    bf28        (.      IT       CS
        0x0001869a:    bd38        8.      POPCS    {r3-r5,pc}
        0x0001869c:    e8dff004    ....    TBB      [pc,r4]
    $d
        0x000186a0:    fcfcfdfe    ....    DCD    4244438526
        0x000186a4:    f8f9fafb    ....    DCD    4177132283
        0x000186a8:    fcfcf6f7    ....    DCD    4244436727
        0x000186ac:    fcfcfcfc    ....    DCD    4244438268
        0x000186b0:    fafbfafb    ....    DCD    4210817787
    $t
        0x000186b4:    2c13        .,      CMP      r4,#0x13
        0x000186b6:    bf28        (.      IT       CS
        0x000186b8:    bd38        8.      POPCS    {r3-r5,pc}
        0x000186ba:    e8dff004    ....    TBB      [pc,r4]
    $d
        0x000186be:    ed0a        ..      DCW    60682
        0x000186c0:    ed24eded    ..$.    DCD    3978620397
        0x000186c4:    ed88ed4a    J...    DCD    3985173834
        0x000186c8:    edededcc    ....    DCD    3991793100
        0x000186cc:    ed24eded    ..$.    DCD    3978620397
        0x000186d0:    0024        $.      DCW    36
    $t
        0x000186d2:    48ec        .H      LDR      r0,[pc,#944] ; [0x18a84] = 0x1000016c
        0x000186d4:    6801        .h      LDR      r1,[r0,#0]
        0x000186d6:    9100        ..      STR      r1,[sp,#0]
        0x000186d8:    2039        9       MOVS     r0,#0x39
        0x000186da:    f002f983    ....    BL       am_hal_gpio_pinconfig ; 0x1a9e4
        0x000186de:    48ea        .H      LDR      r0,[pc,#936] ; [0x18a88] = 0x10000170
        0x000186e0:    6801        .h      LDR      r1,[r0,#0]
        0x000186e2:    9100        ..      STR      r1,[sp,#0]
        0x000186e4:    2040        @       MOVS     r0,#0x40
        0x000186e6:    f002f97d    ..}.    BL       am_hal_gpio_pinconfig ; 0x1a9e4
        0x000186ea:    48e8        .H      LDR      r0,[pc,#928] ; [0x18a8c] = 0x10000174
        0x000186ec:    6801        .h      LDR      r1,[r0,#0]
        0x000186ee:    9100        ..      STR      r1,[sp,#0]
        0x000186f0:    2041        A       MOVS     r0,#0x41
        0x000186f2:    f002f977    ..w.    BL       am_hal_gpio_pinconfig ; 0x1a9e4
        0x000186f6:    48e6        .H      LDR      r0,[pc,#920] ; [0x18a90] = 0x100001b0
        0x000186f8:    6801        .h      LDR      r1,[r0,#0]
        0x000186fa:    9100        ..      STR      r1,[sp,#0]
        0x000186fc:    e8bd4038    ..8@    POP      {r3-r5,lr}
        0x00018700:    2048        H       MOVS     r0,#0x48
        0x00018702:    f002b96f    ..o.    B.W      am_hal_gpio_pinconfig ; 0x1a9e4
        0x00018706:    48df        .H      LDR      r0,[pc,#892] ; [0x18a84] = 0x1000016c
        0x00018708:    6801        .h      LDR      r1,[r0,#0]
        0x0001870a:    9100        ..      STR      r1,[sp,#0]
        0x0001870c:    2039        9       MOVS     r0,#0x39
        0x0001870e:    f002f969    ..i.    BL       am_hal_gpio_pinconfig ; 0x1a9e4
        0x00018712:    48dd        .H      LDR      r0,[pc,#884] ; [0x18a88] = 0x10000170
        0x00018714:    6801        .h      LDR      r1,[r0,#0]
        0x00018716:    9100        ..      STR      r1,[sp,#0]
        0x00018718:    2040        @       MOVS     r0,#0x40
        0x0001871a:    f002f963    ..c.    BL       am_hal_gpio_pinconfig ; 0x1a9e4
        0x0001871e:    48db        .H      LDR      r0,[pc,#876] ; [0x18a8c] = 0x10000174
        0x00018720:    6801        .h      LDR      r1,[r0,#0]
        0x00018722:    9100        ..      STR      r1,[sp,#0]
        0x00018724:    2041        A       MOVS     r0,#0x41
        0x00018726:    f002f95d    ..].    BL       am_hal_gpio_pinconfig ; 0x1a9e4
        0x0001872a:    48da        .H      LDR      r0,[pc,#872] ; [0x18a94] = 0x10000178
        0x0001872c:    6801        .h      LDR      r1,[r0,#0]
        0x0001872e:    9100        ..      STR      r1,[sp,#0]
        0x00018730:    2042        B       MOVS     r0,#0x42
        0x00018732:    f002f957    ..W.    BL       am_hal_gpio_pinconfig ; 0x1a9e4
        0x00018736:    48d8        .H      LDR      r0,[pc,#864] ; [0x18a98] = 0x1000017c
        0x00018738:    6801        .h      LDR      r1,[r0,#0]
        0x0001873a:    9100        ..      STR      r1,[sp,#0]
        0x0001873c:    2043        C       MOVS     r0,#0x43
        0x0001873e:    f002f951    ..Q.    BL       am_hal_gpio_pinconfig ; 0x1a9e4
        0x00018742:    48d3        .H      LDR      r0,[pc,#844] ; [0x18a90] = 0x100001b0
        0x00018744:    6801        .h      LDR      r1,[r0,#0]
        0x00018746:    9100        ..      STR      r1,[sp,#0]
        0x00018748:    e8bd4038    ..8@    POP      {r3-r5,lr}
        0x0001874c:    2048        H       MOVS     r0,#0x48
        0x0001874e:    f002b949    ..I.    B.W      am_hal_gpio_pinconfig ; 0x1a9e4
        0x00018752:    48cc        .H      LDR      r0,[pc,#816] ; [0x18a84] = 0x1000016c
        0x00018754:    6801        .h      LDR      r1,[r0,#0]
        0x00018756:    9100        ..      STR      r1,[sp,#0]
        0x00018758:    2039        9       MOVS     r0,#0x39
        0x0001875a:    f002f943    ..C.    BL       am_hal_gpio_pinconfig ; 0x1a9e4
        0x0001875e:    48ca        .H      LDR      r0,[pc,#808] ; [0x18a88] = 0x10000170
        0x00018760:    6801        .h      LDR      r1,[r0,#0]
        0x00018762:    9100        ..      STR      r1,[sp,#0]
        0x00018764:    2040        @       MOVS     r0,#0x40
        0x00018766:    f002f93d    ..=.    BL       am_hal_gpio_pinconfig ; 0x1a9e4
        0x0001876a:    48c8        .H      LDR      r0,[pc,#800] ; [0x18a8c] = 0x10000174
        0x0001876c:    6801        .h      LDR      r1,[r0,#0]
        0x0001876e:    9100        ..      STR      r1,[sp,#0]
        0x00018770:    2041        A       MOVS     r0,#0x41
        0x00018772:    f002f937    ..7.    BL       am_hal_gpio_pinconfig ; 0x1a9e4
        0x00018776:    48c7        .H      LDR      r0,[pc,#796] ; [0x18a94] = 0x10000178
        0x00018778:    6801        .h      LDR      r1,[r0,#0]
        0x0001877a:    9100        ..      STR      r1,[sp,#0]
        0x0001877c:    2042        B       MOVS     r0,#0x42
        0x0001877e:    f002f931    ..1.    BL       am_hal_gpio_pinconfig ; 0x1a9e4
        0x00018782:    48c5        .H      LDR      r0,[pc,#788] ; [0x18a98] = 0x1000017c
        0x00018784:    6801        .h      LDR      r1,[r0,#0]
        0x00018786:    9100        ..      STR      r1,[sp,#0]
        0x00018788:    2043        C       MOVS     r0,#0x43
        0x0001878a:    f002f92b    ..+.    BL       am_hal_gpio_pinconfig ; 0x1a9e4
        0x0001878e:    48c3        .H      LDR      r0,[pc,#780] ; [0x18a9c] = 0x10000180
        0x00018790:    6801        .h      LDR      r1,[r0,#0]
        0x00018792:    9100        ..      STR      r1,[sp,#0]
        0x00018794:    2044        D       MOVS     r0,#0x44
        0x00018796:    f002f925    ..%.    BL       am_hal_gpio_pinconfig ; 0x1a9e4
        0x0001879a:    48c1        .H      LDR      r0,[pc,#772] ; [0x18aa0] = 0x10000184
        0x0001879c:    6801        .h      LDR      r1,[r0,#0]
        0x0001879e:    9100        ..      STR      r1,[sp,#0]
        0x000187a0:    2045        E       MOVS     r0,#0x45
        0x000187a2:    f002f91f    ....    BL       am_hal_gpio_pinconfig ; 0x1a9e4
        0x000187a6:    48bf        .H      LDR      r0,[pc,#764] ; [0x18aa4] = 0x10000188
        0x000187a8:    6801        .h      LDR      r1,[r0,#0]
        0x000187aa:    9100        ..      STR      r1,[sp,#0]
        0x000187ac:    2046        F       MOVS     r0,#0x46
        0x000187ae:    f002f919    ....    BL       am_hal_gpio_pinconfig ; 0x1a9e4
        0x000187b2:    48bd        .H      LDR      r0,[pc,#756] ; [0x18aa8] = 0x1000018c
        0x000187b4:    6801        .h      LDR      r1,[r0,#0]
        0x000187b6:    9100        ..      STR      r1,[sp,#0]
        0x000187b8:    2047        G       MOVS     r0,#0x47
        0x000187ba:    f002f913    ....    BL       am_hal_gpio_pinconfig ; 0x1a9e4
        0x000187be:    48b4        .H      LDR      r0,[pc,#720] ; [0x18a90] = 0x100001b0
        0x000187c0:    6801        .h      LDR      r1,[r0,#0]
        0x000187c2:    9100        ..      STR      r1,[sp,#0]
        0x000187c4:    e8bd4038    ..8@    POP      {r3-r5,lr}
        0x000187c8:    2048        H       MOVS     r0,#0x48
        0x000187ca:    f002b90b    ....    B.W      am_hal_gpio_pinconfig ; 0x1a9e4
        0x000187ce:    48ad        .H      LDR      r0,[pc,#692] ; [0x18a84] = 0x1000016c
        0x000187d0:    6801        .h      LDR      r1,[r0,#0]
        0x000187d2:    9100        ..      STR      r1,[sp,#0]
        0x000187d4:    2039        9       MOVS     r0,#0x39
        0x000187d6:    f002f905    ....    BL       am_hal_gpio_pinconfig ; 0x1a9e4
        0x000187da:    48ab        .H      LDR      r0,[pc,#684] ; [0x18a88] = 0x10000170
        0x000187dc:    6801        .h      LDR      r1,[r0,#0]
        0x000187de:    9100        ..      STR      r1,[sp,#0]
        0x000187e0:    2040        @       MOVS     r0,#0x40
        0x000187e2:    f002f8ff    ....    BL       am_hal_gpio_pinconfig ; 0x1a9e4
        0x000187e6:    48a9        .H      LDR      r0,[pc,#676] ; [0x18a8c] = 0x10000174
        0x000187e8:    6801        .h      LDR      r1,[r0,#0]
        0x000187ea:    9100        ..      STR      r1,[sp,#0]
        0x000187ec:    2041        A       MOVS     r0,#0x41
        0x000187ee:    f002f8f9    ....    BL       am_hal_gpio_pinconfig ; 0x1a9e4
        0x000187f2:    48a8        .H      LDR      r0,[pc,#672] ; [0x18a94] = 0x10000178
        0x000187f4:    6801        .h      LDR      r1,[r0,#0]
        0x000187f6:    9100        ..      STR      r1,[sp,#0]
        0x000187f8:    2042        B       MOVS     r0,#0x42
        0x000187fa:    f002f8f3    ....    BL       am_hal_gpio_pinconfig ; 0x1a9e4
        0x000187fe:    48a6        .H      LDR      r0,[pc,#664] ; [0x18a98] = 0x1000017c
        0x00018800:    6801        .h      LDR      r1,[r0,#0]
        0x00018802:    9100        ..      STR      r1,[sp,#0]
        0x00018804:    2043        C       MOVS     r0,#0x43
        0x00018806:    f002f8ed    ....    BL       am_hal_gpio_pinconfig ; 0x1a9e4
        0x0001880a:    48a4        .H      LDR      r0,[pc,#656] ; [0x18a9c] = 0x10000180
        0x0001880c:    6801        .h      LDR      r1,[r0,#0]
        0x0001880e:    9100        ..      STR      r1,[sp,#0]
        0x00018810:    2044        D       MOVS     r0,#0x44
        0x00018812:    f002f8e7    ....    BL       am_hal_gpio_pinconfig ; 0x1a9e4
        0x00018816:    48a2        .H      LDR      r0,[pc,#648] ; [0x18aa0] = 0x10000184
        0x00018818:    6801        .h      LDR      r1,[r0,#0]
        0x0001881a:    9100        ..      STR      r1,[sp,#0]
        0x0001881c:    2045        E       MOVS     r0,#0x45
        0x0001881e:    f002f8e1    ....    BL       am_hal_gpio_pinconfig ; 0x1a9e4
        0x00018822:    48a0        .H      LDR      r0,[pc,#640] ; [0x18aa4] = 0x10000188
        0x00018824:    6801        .h      LDR      r1,[r0,#0]
        0x00018826:    9100        ..      STR      r1,[sp,#0]
        0x00018828:    2046        F       MOVS     r0,#0x46
        0x0001882a:    f002f8db    ....    BL       am_hal_gpio_pinconfig ; 0x1a9e4
        0x0001882e:    489e        .H      LDR      r0,[pc,#632] ; [0x18aa8] = 0x1000018c
        0x00018830:    6801        .h      LDR      r1,[r0,#0]
        0x00018832:    9100        ..      STR      r1,[sp,#0]
        0x00018834:    2047        G       MOVS     r0,#0x47
        0x00018836:    f002f8d5    ....    BL       am_hal_gpio_pinconfig ; 0x1a9e4
        0x0001883a:    4895        .H      LDR      r0,[pc,#596] ; [0x18a90] = 0x100001b0
        0x0001883c:    6801        .h      LDR      r1,[r0,#0]
        0x0001883e:    9100        ..      STR      r1,[sp,#0]
        0x00018840:    2048        H       MOVS     r0,#0x48
        0x00018842:    f002f8cf    ....    BL       am_hal_gpio_pinconfig ; 0x1a9e4
        0x00018846:    4899        .H      LDR      r0,[pc,#612] ; [0x18aac] = 0x100001b4
        0x00018848:    6801        .h      LDR      r1,[r0,#0]
        0x0001884a:    9100        ..      STR      r1,[sp,#0]
        0x0001884c:    e8bd4038    ..8@    POP      {r3-r5,lr}
        0x00018850:    2049        I       MOVS     r0,#0x49
        0x00018852:    f002b8c7    ....    B.W      am_hal_gpio_pinconfig ; 0x1a9e4
        0x00018856:    6809        .h      LDR      r1,[r1,#0]
        0x00018858:    9100        ..      STR      r1,[sp,#0]
        0x0001885a:    2022        "       MOVS     r0,#0x22
        0x0001885c:    f002f8c2    ....    BL       am_hal_gpio_pinconfig ; 0x1a9e4
        0x00018860:    6829        )h      LDR      r1,[r5,#0]
        0x00018862:    9100        ..      STR      r1,[sp,#0]
        0x00018864:    2023        #       MOVS     r0,#0x23
        0x00018866:    f002f8bd    ....    BL       am_hal_gpio_pinconfig ; 0x1a9e4
        0x0001886a:    2101        .!      MOVS     r1,#1
        0x0001886c:    2022        "       MOVS     r0,#0x22
        0x0001886e:    f002f8e3    ....    BL       am_hal_gpio_state_write ; 0x1aa38
        0x00018872:    2100        .!      MOVS     r1,#0
        0x00018874:    2023        #       MOVS     r0,#0x23
        0x00018876:    f002f8df    ....    BL       am_hal_gpio_state_write ; 0x1aa38
        0x0001887a:    4882        .H      LDR      r0,[pc,#520] ; [0x18a84] = 0x1000016c
        0x0001887c:    6801        .h      LDR      r1,[r0,#0]
        0x0001887e:    9100        ..      STR      r1,[sp,#0]
        0x00018880:    2039        9       MOVS     r0,#0x39
        0x00018882:    f002f8af    ....    BL       am_hal_gpio_pinconfig ; 0x1a9e4
        0x00018886:    4880        .H      LDR      r0,[pc,#512] ; [0x18a88] = 0x10000170
        0x00018888:    6801        .h      LDR      r1,[r0,#0]
        0x0001888a:    e008        ..      B        0x1889e ; am_bsp_mspi_pins_enable + 542
        0x0001888c:    e2da        ..      B        0x18e44 ; am_bsp_mspi_pins_enable + 1988
        0x0001888e:    e295        ..      B        0x18dbc ; am_bsp_mspi_pins_enable + 1852
        0x00018890:    e256        V.      B        0x18d40 ; am_bsp_mspi_pins_enable + 1728
        0x00018892:    e217        ..      B        0x18cc4 ; am_bsp_mspi_pins_enable + 1604
        0x00018894:    e1f0        ..      B        0x18c78 ; am_bsp_mspi_pins_enable + 1528
        0x00018896:    e1c9        ..      B        0x18c2c ; am_bsp_mspi_pins_enable + 1452
        0x00018898:    e188        ..      B        0x18bac ; am_bsp_mspi_pins_enable + 1324
        0x0001889a:    e1ad        ..      B        0x18bf8 ; am_bsp_mspi_pins_enable + 1400
        0x0001889c:    e192        ..      B        0x18bc4 ; am_bsp_mspi_pins_enable + 1348
        0x0001889e:    9100        ..      STR      r1,[sp,#0]
        0x000188a0:    2040        @       MOVS     r0,#0x40
        0x000188a2:    f002f89f    ....    BL       am_hal_gpio_pinconfig ; 0x1a9e4
        0x000188a6:    4879        yH      LDR      r0,[pc,#484] ; [0x18a8c] = 0x10000174
        0x000188a8:    6801        .h      LDR      r1,[r0,#0]
        0x000188aa:    9100        ..      STR      r1,[sp,#0]
        0x000188ac:    2041        A       MOVS     r0,#0x41
        0x000188ae:    f002f899    ....    BL       am_hal_gpio_pinconfig ; 0x1a9e4
        0x000188b2:    4878        xH      LDR      r0,[pc,#480] ; [0x18a94] = 0x10000178
        0x000188b4:    6801        .h      LDR      r1,[r0,#0]
        0x000188b6:    9100        ..      STR      r1,[sp,#0]
        0x000188b8:    2042        B       MOVS     r0,#0x42
        0x000188ba:    f002f893    ....    BL       am_hal_gpio_pinconfig ; 0x1a9e4
        0x000188be:    4876        vH      LDR      r0,[pc,#472] ; [0x18a98] = 0x1000017c
        0x000188c0:    6801        .h      LDR      r1,[r0,#0]
        0x000188c2:    9100        ..      STR      r1,[sp,#0]
        0x000188c4:    2043        C       MOVS     r0,#0x43
        0x000188c6:    f002f88d    ....    BL       am_hal_gpio_pinconfig ; 0x1a9e4
        0x000188ca:    4874        tH      LDR      r0,[pc,#464] ; [0x18a9c] = 0x10000180
        0x000188cc:    6801        .h      LDR      r1,[r0,#0]
        0x000188ce:    9100        ..      STR      r1,[sp,#0]
        0x000188d0:    2044        D       MOVS     r0,#0x44
        0x000188d2:    f002f887    ....    BL       am_hal_gpio_pinconfig ; 0x1a9e4
        0x000188d6:    4872        rH      LDR      r0,[pc,#456] ; [0x18aa0] = 0x10000184
        0x000188d8:    6801        .h      LDR      r1,[r0,#0]
        0x000188da:    9100        ..      STR      r1,[sp,#0]
        0x000188dc:    2045        E       MOVS     r0,#0x45
        0x000188de:    f002f881    ....    BL       am_hal_gpio_pinconfig ; 0x1a9e4
        0x000188e2:    4870        pH      LDR      r0,[pc,#448] ; [0x18aa4] = 0x10000188
        0x000188e4:    6801        .h      LDR      r1,[r0,#0]
        0x000188e6:    9100        ..      STR      r1,[sp,#0]
        0x000188e8:    2046        F       MOVS     r0,#0x46
        0x000188ea:    f002f87b    ..{.    BL       am_hal_gpio_pinconfig ; 0x1a9e4
        0x000188ee:    486e        nH      LDR      r0,[pc,#440] ; [0x18aa8] = 0x1000018c
        0x000188f0:    6801        .h      LDR      r1,[r0,#0]
        0x000188f2:    9100        ..      STR      r1,[sp,#0]
        0x000188f4:    2047        G       MOVS     r0,#0x47
        0x000188f6:    f002f875    ..u.    BL       am_hal_gpio_pinconfig ; 0x1a9e4
        0x000188fa:    486d        mH      LDR      r0,[pc,#436] ; [0x18ab0] = 0x10000190
        0x000188fc:    6801        .h      LDR      r1,[r0,#0]
        0x000188fe:    9100        ..      STR      r1,[sp,#0]
        0x00018900:    2025        %       MOVS     r0,#0x25
        0x00018902:    f002f86f    ..o.    BL       am_hal_gpio_pinconfig ; 0x1a9e4
        0x00018906:    486b        kH      LDR      r0,[pc,#428] ; [0x18ab4] = 0x10000194
        0x00018908:    6801        .h      LDR      r1,[r0,#0]
        0x0001890a:    9100        ..      STR      r1,[sp,#0]
        0x0001890c:    2026        &       MOVS     r0,#0x26
        0x0001890e:    f002f869    ..i.    BL       am_hal_gpio_pinconfig ; 0x1a9e4
        0x00018912:    4869        iH      LDR      r0,[pc,#420] ; [0x18ab8] = 0x10000198
        0x00018914:    6801        .h      LDR      r1,[r0,#0]
        0x00018916:    9100        ..      STR      r1,[sp,#0]
        0x00018918:    2027        '       MOVS     r0,#0x27
        0x0001891a:    f002f863    ..c.    BL       am_hal_gpio_pinconfig ; 0x1a9e4
        0x0001891e:    4867        gH      LDR      r0,[pc,#412] ; [0x18abc] = 0x1000019c
        0x00018920:    6801        .h      LDR      r1,[r0,#0]
        0x00018922:    9100        ..      STR      r1,[sp,#0]
        0x00018924:    2028        (       MOVS     r0,#0x28
        0x00018926:    f002f85d    ..].    BL       am_hal_gpio_pinconfig ; 0x1a9e4
        0x0001892a:    4865        eH      LDR      r0,[pc,#404] ; [0x18ac0] = 0x100001a0
        0x0001892c:    6801        .h      LDR      r1,[r0,#0]
        0x0001892e:    9100        ..      STR      r1,[sp,#0]
        0x00018930:    2029        )       MOVS     r0,#0x29
        0x00018932:    f002f857    ..W.    BL       am_hal_gpio_pinconfig ; 0x1a9e4
        0x00018936:    4863        cH      LDR      r0,[pc,#396] ; [0x18ac4] = 0x100001a4
        0x00018938:    6801        .h      LDR      r1,[r0,#0]
        0x0001893a:    9100        ..      STR      r1,[sp,#0]
        0x0001893c:    202a        *       MOVS     r0,#0x2a
        0x0001893e:    f002f851    ..Q.    BL       am_hal_gpio_pinconfig ; 0x1a9e4
        0x00018942:    4861        aH      LDR      r0,[pc,#388] ; [0x18ac8] = 0x100001a8
        0x00018944:    6801        .h      LDR      r1,[r0,#0]
        0x00018946:    9100        ..      STR      r1,[sp,#0]
        0x00018948:    202b        +       MOVS     r0,#0x2b
        0x0001894a:    f002f84b    ..K.    BL       am_hal_gpio_pinconfig ; 0x1a9e4
        0x0001894e:    485f        _H      LDR      r0,[pc,#380] ; [0x18acc] = 0x100001ac
        0x00018950:    6801        .h      LDR      r1,[r0,#0]
        0x00018952:    9100        ..      STR      r1,[sp,#0]
        0x00018954:    202c        ,       MOVS     r0,#0x2c
        0x00018956:    f002f845    ..E.    BL       am_hal_gpio_pinconfig ; 0x1a9e4
        0x0001895a:    484d        MH      LDR      r0,[pc,#308] ; [0x18a90] = 0x100001b0
        0x0001895c:    6801        .h      LDR      r1,[r0,#0]
        0x0001895e:    9100        ..      STR      r1,[sp,#0]
        0x00018960:    2048        H       MOVS     r0,#0x48
        0x00018962:    f002f83f    ..?.    BL       am_hal_gpio_pinconfig ; 0x1a9e4
        0x00018966:    4851        QH      LDR      r0,[pc,#324] ; [0x18aac] = 0x100001b4
        0x00018968:    6801        .h      LDR      r1,[r0,#0]
        0x0001896a:    9100        ..      STR      r1,[sp,#0]
        0x0001896c:    2049        I       MOVS     r0,#0x49
        0x0001896e:    f002f839    ..9.    BL       am_hal_gpio_pinconfig ; 0x1a9e4
        0x00018972:    4857        WH      LDR      r0,[pc,#348] ; [0x18ad0] = 0x100001b8
        0x00018974:    6801        .h      LDR      r1,[r0,#0]
        0x00018976:    9100        ..      STR      r1,[sp,#0]
        0x00018978:    e8bd4038    ..8@    POP      {r3-r5,lr}
        0x0001897c:    202d        -       MOVS     r0,#0x2d
        0x0001897e:    f002b831    ..1.    B.W      am_hal_gpio_pinconfig ; 0x1a9e4
        0x00018982:    6809        .h      LDR      r1,[r1,#0]
        0x00018984:    9100        ..      STR      r1,[sp,#0]
        0x00018986:    2022        "       MOVS     r0,#0x22
        0x00018988:    f002f82c    ..,.    BL       am_hal_gpio_pinconfig ; 0x1a9e4
        0x0001898c:    6829        )h      LDR      r1,[r5,#0]
        0x0001898e:    9100        ..      STR      r1,[sp,#0]
        0x00018990:    2023        #       MOVS     r0,#0x23
        0x00018992:    f002f827    ..'.    BL       am_hal_gpio_pinconfig ; 0x1a9e4
        0x00018996:    2100        .!      MOVS     r1,#0
        0x00018998:    2022        "       MOVS     r0,#0x22
        0x0001899a:    f002f84d    ..M.    BL       am_hal_gpio_state_write ; 0x1aa38
        0x0001899e:    2100        .!      MOVS     r1,#0
        0x000189a0:    2023        #       MOVS     r0,#0x23
        0x000189a2:    f002f849    ..I.    BL       am_hal_gpio_state_write ; 0x1aa38
        0x000189a6:    2c19        .,      CMP      r4,#0x19
        0x000189a8:    bf28        (.      IT       CS
        0x000189aa:    bd38        8.      POPCS    {r3-r5,pc}
        0x000189ac:    e8dff004    ....    TBB      [pc,r4]
    $d
        0x000189b0:    fefefe0d    ....    DCD    4278124045
        0x000189b4:    fe4dfe27    '.M.    DCD    4266524199
        0x000189b8:    fefefec4    ....    DCD    4278124228
        0x000189bc:    fefefefe    ....    DCD    4278124286
        0x000189c0:    fe27fe27    '.'.    DCD    4264033831
        0x000189c4:    fec4fefe    ....    DCD    4274323198
        0x000189c8:    00c4        ..      DCW    196
    $t
        0x000189ca:    4842        BH      LDR      r0,[pc,#264] ; [0x18ad4] = 0x100001bc
        0x000189cc:    6801        .h      LDR      r1,[r0,#0]
        0x000189ce:    9100        ..      STR      r1,[sp,#0]
        0x000189d0:    2038        8       MOVS     r0,#0x38
        0x000189d2:    f002f807    ....    BL       am_hal_gpio_pinconfig ; 0x1a9e4
        0x000189d6:    4840        @H      LDR      r0,[pc,#256] ; [0x18ad8] = 0x100001c0
        0x000189d8:    6801        .h      LDR      r1,[r0,#0]
        0x000189da:    9100        ..      STR      r1,[sp,#0]
        0x000189dc:    2025        %       MOVS     r0,#0x25
        0x000189de:    f002f801    ....    BL       am_hal_gpio_pinconfig ; 0x1a9e4
        0x000189e2:    483e        >H      LDR      r0,[pc,#248] ; [0x18adc] = 0x100001c4
        0x000189e4:    6801        .h      LDR      r1,[r0,#0]
        0x000189e6:    9100        ..      STR      r1,[sp,#0]
        0x000189e8:    2026        &       MOVS     r0,#0x26
        0x000189ea:    f001fffb    ....    BL       am_hal_gpio_pinconfig ; 0x1a9e4
        0x000189ee:    483c        <H      LDR      r0,[pc,#240] ; [0x18ae0] = 0x100001e0
        0x000189f0:    6801        .h      LDR      r1,[r0,#0]
        0x000189f2:    9100        ..      STR      r1,[sp,#0]
        0x000189f4:    e8bd4038    ..8@    POP      {r3-r5,lr}
        0x000189f8:    202d        -       MOVS     r0,#0x2d
        0x000189fa:    f001bff3    ....    B.W      am_hal_gpio_pinconfig ; 0x1a9e4
        0x000189fe:    4835        5H      LDR      r0,[pc,#212] ; [0x18ad4] = 0x100001bc
        0x00018a00:    6801        .h      LDR      r1,[r0,#0]
        0x00018a02:    9100        ..      STR      r1,[sp,#0]
        0x00018a04:    2038        8       MOVS     r0,#0x38
        0x00018a06:    f001ffed    ....    BL       am_hal_gpio_pinconfig ; 0x1a9e4
        0x00018a0a:    4833        3H      LDR      r0,[pc,#204] ; [0x18ad8] = 0x100001c0
        0x00018a0c:    6801        .h      LDR      r1,[r0,#0]
        0x00018a0e:    9100        ..      STR      r1,[sp,#0]
        0x00018a10:    2025        %       MOVS     r0,#0x25
        0x00018a12:    f001ffe7    ....    BL       am_hal_gpio_pinconfig ; 0x1a9e4
        0x00018a16:    4831        1H      LDR      r0,[pc,#196] ; [0x18adc] = 0x100001c4
        0x00018a18:    6801        .h      LDR      r1,[r0,#0]
        0x00018a1a:    9100        ..      STR      r1,[sp,#0]
        0x00018a1c:    2026        &       MOVS     r0,#0x26
        0x00018a1e:    f001ffe1    ....    BL       am_hal_gpio_pinconfig ; 0x1a9e4
        0x00018a22:    4830        0H      LDR      r0,[pc,#192] ; [0x18ae4] = 0x100001c8
        0x00018a24:    6801        .h      LDR      r1,[r0,#0]
        0x00018a26:    9100        ..      STR      r1,[sp,#0]
        0x00018a28:    2027        '       MOVS     r0,#0x27
        0x00018a2a:    f001ffdb    ....    BL       am_hal_gpio_pinconfig ; 0x1a9e4
        0x00018a2e:    482e        .H      LDR      r0,[pc,#184] ; [0x18ae8] = 0x100001cc
        0x00018a30:    6801        .h      LDR      r1,[r0,#0]
        0x00018a32:    9100        ..      STR      r1,[sp,#0]
        0x00018a34:    2028        (       MOVS     r0,#0x28
        0x00018a36:    f001ffd5    ....    BL       am_hal_gpio_pinconfig ; 0x1a9e4
        0x00018a3a:    4829        )H      LDR      r0,[pc,#164] ; [0x18ae0] = 0x100001e0
        0x00018a3c:    6801        .h      LDR      r1,[r0,#0]
        0x00018a3e:    9100        ..      STR      r1,[sp,#0]
        0x00018a40:    e8bd4038    ..8@    POP      {r3-r5,lr}
        0x00018a44:    202d        -       MOVS     r0,#0x2d
        0x00018a46:    f001bfcd    ....    B.W      am_hal_gpio_pinconfig ; 0x1a9e4
        0x00018a4a:    4822        "H      LDR      r0,[pc,#136] ; [0x18ad4] = 0x100001bc
        0x00018a4c:    6801        .h      LDR      r1,[r0,#0]
        0x00018a4e:    9100        ..      STR      r1,[sp,#0]
        0x00018a50:    2038        8       MOVS     r0,#0x38
        0x00018a52:    f001ffc7    ....    BL       am_hal_gpio_pinconfig ; 0x1a9e4
        0x00018a56:    4820         H      LDR      r0,[pc,#128] ; [0x18ad8] = 0x100001c0
        0x00018a58:    6801        .h      LDR      r1,[r0,#0]
        0x00018a5a:    9100        ..      STR      r1,[sp,#0]
        0x00018a5c:    2025        %       MOVS     r0,#0x25
        0x00018a5e:    f001ffc1    ....    BL       am_hal_gpio_pinconfig ; 0x1a9e4
        0x00018a62:    481e        .H      LDR      r0,[pc,#120] ; [0x18adc] = 0x100001c4
        0x00018a64:    6801        .h      LDR      r1,[r0,#0]
        0x00018a66:    9100        ..      STR      r1,[sp,#0]
        0x00018a68:    2026        &       MOVS     r0,#0x26
        0x00018a6a:    f001ffbb    ....    BL       am_hal_gpio_pinconfig ; 0x1a9e4
        0x00018a6e:    481d        .H      LDR      r0,[pc,#116] ; [0x18ae4] = 0x100001c8
        0x00018a70:    6801        .h      LDR      r1,[r0,#0]
        0x00018a72:    9100        ..      STR      r1,[sp,#0]
        0x00018a74:    2027        '       MOVS     r0,#0x27
        0x00018a76:    f001ffb5    ....    BL       am_hal_gpio_pinconfig ; 0x1a9e4
        0x00018a7a:    e037        7.      B        0x18aec ; am_bsp_mspi_pins_enable + 1132
    $d
        0x00018a7c:    100001e8    ....    DCD    268435944
        0x00018a80:    100001ec    ....    DCD    268435948
        0x00018a84:    1000016c    l...    DCD    268435820
        0x00018a88:    10000170    p...    DCD    268435824
        0x00018a8c:    10000174    t...    DCD    268435828
        0x00018a90:    100001b0    ....    DCD    268435888
        0x00018a94:    10000178    x...    DCD    268435832
        0x00018a98:    1000017c    |...    DCD    268435836
        0x00018a9c:    10000180    ....    DCD    268435840
        0x00018aa0:    10000184    ....    DCD    268435844
        0x00018aa4:    10000188    ....    DCD    268435848
        0x00018aa8:    1000018c    ....    DCD    268435852
        0x00018aac:    100001b4    ....    DCD    268435892
        0x00018ab0:    10000190    ....    DCD    268435856
        0x00018ab4:    10000194    ....    DCD    268435860
        0x00018ab8:    10000198    ....    DCD    268435864
        0x00018abc:    1000019c    ....    DCD    268435868
        0x00018ac0:    100001a0    ....    DCD    268435872
        0x00018ac4:    100001a4    ....    DCD    268435876
        0x00018ac8:    100001a8    ....    DCD    268435880
        0x00018acc:    100001ac    ....    DCD    268435884
        0x00018ad0:    100001b8    ....    DCD    268435896
        0x00018ad4:    100001bc    ....    DCD    268435900
        0x00018ad8:    100001c0    ....    DCD    268435904
        0x00018adc:    100001c4    ....    DCD    268435908
        0x00018ae0:    100001e0    ....    DCD    268435936
        0x00018ae4:    100001c8    ....    DCD    268435912
        0x00018ae8:    100001cc    ....    DCD    268435916
    $t
        0x00018aec:    48f8        .H      LDR      r0,[pc,#992] ; [0x18ed0] = 0x100001cc
        0x00018aee:    6801        .h      LDR      r1,[r0,#0]
        0x00018af0:    9100        ..      STR      r1,[sp,#0]
        0x00018af2:    2028        (       MOVS     r0,#0x28
        0x00018af4:    f001ff76    ..v.    BL       am_hal_gpio_pinconfig ; 0x1a9e4
        0x00018af8:    48f6        .H      LDR      r0,[pc,#984] ; [0x18ed4] = 0x100001d0
        0x00018afa:    6801        .h      LDR      r1,[r0,#0]
        0x00018afc:    9100        ..      STR      r1,[sp,#0]
        0x00018afe:    2029        )       MOVS     r0,#0x29
        0x00018b00:    f001ff70    ..p.    BL       am_hal_gpio_pinconfig ; 0x1a9e4
        0x00018b04:    48f4        .H      LDR      r0,[pc,#976] ; [0x18ed8] = 0x100001d4
        0x00018b06:    6801        .h      LDR      r1,[r0,#0]
        0x00018b08:    9100        ..      STR      r1,[sp,#0]
        0x00018b0a:    202a        *       MOVS     r0,#0x2a
        0x00018b0c:    f001ff6a    ..j.    BL       am_hal_gpio_pinconfig ; 0x1a9e4
        0x00018b10:    48f2        .H      LDR      r0,[pc,#968] ; [0x18edc] = 0x100001d8
        0x00018b12:    6801        .h      LDR      r1,[r0,#0]
        0x00018b14:    9100        ..      STR      r1,[sp,#0]
        0x00018b16:    202b        +       MOVS     r0,#0x2b
        0x00018b18:    f001ff64    ..d.    BL       am_hal_gpio_pinconfig ; 0x1a9e4
        0x00018b1c:    48f0        .H      LDR      r0,[pc,#960] ; [0x18ee0] = 0x100001dc
        0x00018b1e:    6801        .h      LDR      r1,[r0,#0]
        0x00018b20:    9100        ..      STR      r1,[sp,#0]
        0x00018b22:    202c        ,       MOVS     r0,#0x2c
        0x00018b24:    f001ff5e    ..^.    BL       am_hal_gpio_pinconfig ; 0x1a9e4
        0x00018b28:    48ee        .H      LDR      r0,[pc,#952] ; [0x18ee4] = 0x100001e0
        0x00018b2a:    6801        .h      LDR      r1,[r0,#0]
        0x00018b2c:    9100        ..      STR      r1,[sp,#0]
        0x00018b2e:    e8bd4038    ..8@    POP      {r3-r5,lr}
        0x00018b32:    202d        -       MOVS     r0,#0x2d
        0x00018b34:    f001bf56    ..V.    B.W      am_hal_gpio_pinconfig ; 0x1a9e4
        0x00018b38:    48eb        .H      LDR      r0,[pc,#940] ; [0x18ee8] = 0x100001bc
        0x00018b3a:    6801        .h      LDR      r1,[r0,#0]
        0x00018b3c:    9100        ..      STR      r1,[sp,#0]
        0x00018b3e:    2038        8       MOVS     r0,#0x38
        0x00018b40:    f001ff50    ..P.    BL       am_hal_gpio_pinconfig ; 0x1a9e4
        0x00018b44:    48e9        .H      LDR      r0,[pc,#932] ; [0x18eec] = 0x100001c0
        0x00018b46:    6801        .h      LDR      r1,[r0,#0]
        0x00018b48:    9100        ..      STR      r1,[sp,#0]
        0x00018b4a:    2025        %       MOVS     r0,#0x25
        0x00018b4c:    f001ff4a    ..J.    BL       am_hal_gpio_pinconfig ; 0x1a9e4
        0x00018b50:    48e7        .H      LDR      r0,[pc,#924] ; [0x18ef0] = 0x100001c4
        0x00018b52:    6801        .h      LDR      r1,[r0,#0]
        0x00018b54:    9100        ..      STR      r1,[sp,#0]
        0x00018b56:    2026        &       MOVS     r0,#0x26
        0x00018b58:    f001ff44    ..D.    BL       am_hal_gpio_pinconfig ; 0x1a9e4
        0x00018b5c:    48e5        .H      LDR      r0,[pc,#916] ; [0x18ef4] = 0x100001c8
        0x00018b5e:    6801        .h      LDR      r1,[r0,#0]
        0x00018b60:    9100        ..      STR      r1,[sp,#0]
        0x00018b62:    2027        '       MOVS     r0,#0x27
        0x00018b64:    f001ff3e    ..>.    BL       am_hal_gpio_pinconfig ; 0x1a9e4
        0x00018b68:    48d9        .H      LDR      r0,[pc,#868] ; [0x18ed0] = 0x100001cc
        0x00018b6a:    6801        .h      LDR      r1,[r0,#0]
        0x00018b6c:    9100        ..      STR      r1,[sp,#0]
        0x00018b6e:    2028        (       MOVS     r0,#0x28
        0x00018b70:    f001ff38    ..8.    BL       am_hal_gpio_pinconfig ; 0x1a9e4
        0x00018b74:    48d7        .H      LDR      r0,[pc,#860] ; [0x18ed4] = 0x100001d0
        0x00018b76:    6801        .h      LDR      r1,[r0,#0]
        0x00018b78:    9100        ..      STR      r1,[sp,#0]
        0x00018b7a:    2029        )       MOVS     r0,#0x29
        0x00018b7c:    f001ff32    ..2.    BL       am_hal_gpio_pinconfig ; 0x1a9e4
        0x00018b80:    48d5        .H      LDR      r0,[pc,#852] ; [0x18ed8] = 0x100001d4
        0x00018b82:    6801        .h      LDR      r1,[r0,#0]
        0x00018b84:    9100        ..      STR      r1,[sp,#0]
        0x00018b86:    202a        *       MOVS     r0,#0x2a
        0x00018b88:    f001ff2c    ..,.    BL       am_hal_gpio_pinconfig ; 0x1a9e4
        0x00018b8c:    48d3        .H      LDR      r0,[pc,#844] ; [0x18edc] = 0x100001d8
        0x00018b8e:    6801        .h      LDR      r1,[r0,#0]
        0x00018b90:    9100        ..      STR      r1,[sp,#0]
        0x00018b92:    202b        +       MOVS     r0,#0x2b
        0x00018b94:    f001ff26    ..&.    BL       am_hal_gpio_pinconfig ; 0x1a9e4
        0x00018b98:    48d1        .H      LDR      r0,[pc,#836] ; [0x18ee0] = 0x100001dc
        0x00018b9a:    6801        .h      LDR      r1,[r0,#0]
        0x00018b9c:    9100        ..      STR      r1,[sp,#0]
        0x00018b9e:    202c        ,       MOVS     r0,#0x2c
        0x00018ba0:    f001ff20    .. .    BL       am_hal_gpio_pinconfig ; 0x1a9e4
        0x00018ba4:    48cf        .H      LDR      r0,[pc,#828] ; [0x18ee4] = 0x100001e0
        0x00018ba6:    6801        .h      LDR      r1,[r0,#0]
        0x00018ba8:    9100        ..      STR      r1,[sp,#0]
        0x00018baa:    e000        ..      B        0x18bae ; am_bsp_mspi_pins_enable + 1326
        0x00018bac:    e18e        ..      B        0x18ecc ; am_bsp_mspi_pins_enable + 2124
        0x00018bae:    202d        -       MOVS     r0,#0x2d
        0x00018bb0:    f001ff18    ....    BL       am_hal_gpio_pinconfig ; 0x1a9e4
        0x00018bb4:    48d0        .H      LDR      r0,[pc,#832] ; [0x18ef8] = 0x100001e4
        0x00018bb6:    6801        .h      LDR      r1,[r0,#0]
        0x00018bb8:    9100        ..      STR      r1,[sp,#0]
        0x00018bba:    e8bd4038    ..8@    POP      {r3-r5,lr}
        0x00018bbe:    202e        .       MOVS     r0,#0x2e
        0x00018bc0:    f001bf10    ....    B.W      am_hal_gpio_pinconfig ; 0x1a9e4
        0x00018bc4:    48cd        .H      LDR      r0,[pc,#820] ; [0x18efc] = 0x10000138
        0x00018bc6:    6801        .h      LDR      r1,[r0,#0]
        0x00018bc8:    9100        ..      STR      r1,[sp,#0]
        0x00018bca:    2000        .       MOVS     r0,#0
        0x00018bcc:    f001ff0a    ....    BL       am_hal_gpio_pinconfig ; 0x1a9e4
        0x00018bd0:    48cb        .H      LDR      r0,[pc,#812] ; [0x18f00] = 0x10000140
        0x00018bd2:    6801        .h      LDR      r1,[r0,#0]
        0x00018bd4:    9100        ..      STR      r1,[sp,#0]
        0x00018bd6:    204a        J       MOVS     r0,#0x4a
        0x00018bd8:    f001ff04    ....    BL       am_hal_gpio_pinconfig ; 0x1a9e4
        0x00018bdc:    48c9        .H      LDR      r0,[pc,#804] ; [0x18f04] = 0x10000144
        0x00018bde:    6801        .h      LDR      r1,[r0,#0]
        0x00018be0:    9100        ..      STR      r1,[sp,#0]
        0x00018be2:    204b        K       MOVS     r0,#0x4b
        0x00018be4:    f001fefe    ....    BL       am_hal_gpio_pinconfig ; 0x1a9e4
        0x00018be8:    48c7        .H      LDR      r0,[pc,#796] ; [0x18f08] = 0x10000160
        0x00018bea:    6801        .h      LDR      r1,[r0,#0]
        0x00018bec:    9100        ..      STR      r1,[sp,#0]
        0x00018bee:    e8bd4038    ..8@    POP      {r3-r5,lr}
        0x00018bf2:    2052        R       MOVS     r0,#0x52
        0x00018bf4:    f001bef6    ....    B.W      am_hal_gpio_pinconfig ; 0x1a9e4
        0x00018bf8:    48c4        .H      LDR      r0,[pc,#784] ; [0x18f0c] = 0x1000013c
        0x00018bfa:    6801        .h      LDR      r1,[r0,#0]
        0x00018bfc:    9100        ..      STR      r1,[sp,#0]
        0x00018bfe:    2056        V       MOVS     r0,#0x56
        0x00018c00:    f001fef0    ....    BL       am_hal_gpio_pinconfig ; 0x1a9e4
        0x00018c04:    48be        .H      LDR      r0,[pc,#760] ; [0x18f00] = 0x10000140
        0x00018c06:    6801        .h      LDR      r1,[r0,#0]
        0x00018c08:    9100        ..      STR      r1,[sp,#0]
        0x00018c0a:    204a        J       MOVS     r0,#0x4a
        0x00018c0c:    f001feea    ....    BL       am_hal_gpio_pinconfig ; 0x1a9e4
        0x00018c10:    48bc        .H      LDR      r0,[pc,#752] ; [0x18f04] = 0x10000144
        0x00018c12:    6801        .h      LDR      r1,[r0,#0]
        0x00018c14:    9100        ..      STR      r1,[sp,#0]
        0x00018c16:    204b        K       MOVS     r0,#0x4b
        0x00018c18:    f001fee4    ....    BL       am_hal_gpio_pinconfig ; 0x1a9e4
        0x00018c1c:    48ba        .H      LDR      r0,[pc,#744] ; [0x18f08] = 0x10000160
        0x00018c1e:    6801        .h      LDR      r1,[r0,#0]
        0x00018c20:    9100        ..      STR      r1,[sp,#0]
        0x00018c22:    e8bd4038    ..8@    POP      {r3-r5,lr}
        0x00018c26:    2052        R       MOVS     r0,#0x52
        0x00018c28:    f001bedc    ....    B.W      am_hal_gpio_pinconfig ; 0x1a9e4
        0x00018c2c:    48b3        .H      LDR      r0,[pc,#716] ; [0x18efc] = 0x10000138
        0x00018c2e:    6801        .h      LDR      r1,[r0,#0]
        0x00018c30:    9100        ..      STR      r1,[sp,#0]
        0x00018c32:    2000        .       MOVS     r0,#0
        0x00018c34:    f001fed6    ....    BL       am_hal_gpio_pinconfig ; 0x1a9e4
        0x00018c38:    48b1        .H      LDR      r0,[pc,#708] ; [0x18f00] = 0x10000140
        0x00018c3a:    6801        .h      LDR      r1,[r0,#0]
        0x00018c3c:    9100        ..      STR      r1,[sp,#0]
        0x00018c3e:    204a        J       MOVS     r0,#0x4a
        0x00018c40:    f001fed0    ....    BL       am_hal_gpio_pinconfig ; 0x1a9e4
        0x00018c44:    48af        .H      LDR      r0,[pc,#700] ; [0x18f04] = 0x10000144
        0x00018c46:    6801        .h      LDR      r1,[r0,#0]
        0x00018c48:    9100        ..      STR      r1,[sp,#0]
        0x00018c4a:    204b        K       MOVS     r0,#0x4b
        0x00018c4c:    f001feca    ....    BL       am_hal_gpio_pinconfig ; 0x1a9e4
        0x00018c50:    48af        .H      LDR      r0,[pc,#700] ; [0x18f10] = 0x10000148
        0x00018c52:    6801        .h      LDR      r1,[r0,#0]
        0x00018c54:    9100        ..      STR      r1,[sp,#0]
        0x00018c56:    204c        L       MOVS     r0,#0x4c
        0x00018c58:    f001fec4    ....    BL       am_hal_gpio_pinconfig ; 0x1a9e4
        0x00018c5c:    48ad        .H      LDR      r0,[pc,#692] ; [0x18f14] = 0x1000014c
        0x00018c5e:    6801        .h      LDR      r1,[r0,#0]
        0x00018c60:    9100        ..      STR      r1,[sp,#0]
        0x00018c62:    204d        M       MOVS     r0,#0x4d
        0x00018c64:    f001febe    ....    BL       am_hal_gpio_pinconfig ; 0x1a9e4
        0x00018c68:    48a7        .H      LDR      r0,[pc,#668] ; [0x18f08] = 0x10000160
        0x00018c6a:    6801        .h      LDR      r1,[r0,#0]
        0x00018c6c:    9100        ..      STR      r1,[sp,#0]
        0x00018c6e:    e8bd4038    ..8@    POP      {r3-r5,lr}
        0x00018c72:    2052        R       MOVS     r0,#0x52
        0x00018c74:    f001beb6    ....    B.W      am_hal_gpio_pinconfig ; 0x1a9e4
        0x00018c78:    48a4        .H      LDR      r0,[pc,#656] ; [0x18f0c] = 0x1000013c
        0x00018c7a:    6801        .h      LDR      r1,[r0,#0]
        0x00018c7c:    9100        ..      STR      r1,[sp,#0]
        0x00018c7e:    2056        V       MOVS     r0,#0x56
        0x00018c80:    f001feb0    ....    BL       am_hal_gpio_pinconfig ; 0x1a9e4
        0x00018c84:    489e        .H      LDR      r0,[pc,#632] ; [0x18f00] = 0x10000140
        0x00018c86:    6801        .h      LDR      r1,[r0,#0]
        0x00018c88:    9100        ..      STR      r1,[sp,#0]
        0x00018c8a:    204a        J       MOVS     r0,#0x4a
        0x00018c8c:    f001feaa    ....    BL       am_hal_gpio_pinconfig ; 0x1a9e4
        0x00018c90:    489c        .H      LDR      r0,[pc,#624] ; [0x18f04] = 0x10000144
        0x00018c92:    6801        .h      LDR      r1,[r0,#0]
        0x00018c94:    9100        ..      STR      r1,[sp,#0]
        0x00018c96:    204b        K       MOVS     r0,#0x4b
        0x00018c98:    f001fea4    ....    BL       am_hal_gpio_pinconfig ; 0x1a9e4
        0x00018c9c:    489c        .H      LDR      r0,[pc,#624] ; [0x18f10] = 0x10000148
        0x00018c9e:    6801        .h      LDR      r1,[r0,#0]
        0x00018ca0:    9100        ..      STR      r1,[sp,#0]
        0x00018ca2:    204c        L       MOVS     r0,#0x4c
        0x00018ca4:    f001fe9e    ....    BL       am_hal_gpio_pinconfig ; 0x1a9e4
        0x00018ca8:    489a        .H      LDR      r0,[pc,#616] ; [0x18f14] = 0x1000014c
        0x00018caa:    6801        .h      LDR      r1,[r0,#0]
        0x00018cac:    9100        ..      STR      r1,[sp,#0]
        0x00018cae:    204d        M       MOVS     r0,#0x4d
        0x00018cb0:    f001fe98    ....    BL       am_hal_gpio_pinconfig ; 0x1a9e4
        0x00018cb4:    4894        .H      LDR      r0,[pc,#592] ; [0x18f08] = 0x10000160
        0x00018cb6:    6801        .h      LDR      r1,[r0,#0]
        0x00018cb8:    9100        ..      STR      r1,[sp,#0]
        0x00018cba:    e8bd4038    ..8@    POP      {r3-r5,lr}
        0x00018cbe:    2052        R       MOVS     r0,#0x52
        0x00018cc0:    f001be90    ....    B.W      am_hal_gpio_pinconfig ; 0x1a9e4
        0x00018cc4:    488d        .H      LDR      r0,[pc,#564] ; [0x18efc] = 0x10000138
        0x00018cc6:    6801        .h      LDR      r1,[r0,#0]
        0x00018cc8:    9100        ..      STR      r1,[sp,#0]
        0x00018cca:    2000        .       MOVS     r0,#0
        0x00018ccc:    f001fe8a    ....    BL       am_hal_gpio_pinconfig ; 0x1a9e4
        0x00018cd0:    488b        .H      LDR      r0,[pc,#556] ; [0x18f00] = 0x10000140
        0x00018cd2:    6801        .h      LDR      r1,[r0,#0]
        0x00018cd4:    9100        ..      STR      r1,[sp,#0]
        0x00018cd6:    204a        J       MOVS     r0,#0x4a
        0x00018cd8:    f001fe84    ....    BL       am_hal_gpio_pinconfig ; 0x1a9e4
        0x00018cdc:    4889        .H      LDR      r0,[pc,#548] ; [0x18f04] = 0x10000144
        0x00018cde:    6801        .h      LDR      r1,[r0,#0]
        0x00018ce0:    9100        ..      STR      r1,[sp,#0]
        0x00018ce2:    204b        K       MOVS     r0,#0x4b
        0x00018ce4:    f001fe7e    ..~.    BL       am_hal_gpio_pinconfig ; 0x1a9e4
        0x00018ce8:    4889        .H      LDR      r0,[pc,#548] ; [0x18f10] = 0x10000148
        0x00018cea:    6801        .h      LDR      r1,[r0,#0]
        0x00018cec:    9100        ..      STR      r1,[sp,#0]
        0x00018cee:    204c        L       MOVS     r0,#0x4c
        0x00018cf0:    f001fe78    ..x.    BL       am_hal_gpio_pinconfig ; 0x1a9e4
        0x00018cf4:    4887        .H      LDR      r0,[pc,#540] ; [0x18f14] = 0x1000014c
        0x00018cf6:    6801        .h      LDR      r1,[r0,#0]
        0x00018cf8:    9100        ..      STR      r1,[sp,#0]
        0x00018cfa:    204d        M       MOVS     r0,#0x4d
        0x00018cfc:    f001fe72    ..r.    BL       am_hal_gpio_pinconfig ; 0x1a9e4
        0x00018d00:    4885        .H      LDR      r0,[pc,#532] ; [0x18f18] = 0x10000150
        0x00018d02:    6801        .h      LDR      r1,[r0,#0]
        0x00018d04:    9100        ..      STR      r1,[sp,#0]
        0x00018d06:    204e        N       MOVS     r0,#0x4e
        0x00018d08:    f001fe6c    ..l.    BL       am_hal_gpio_pinconfig ; 0x1a9e4
        0x00018d0c:    4883        .H      LDR      r0,[pc,#524] ; [0x18f1c] = 0x10000154
        0x00018d0e:    6801        .h      LDR      r1,[r0,#0]
        0x00018d10:    9100        ..      STR      r1,[sp,#0]
        0x00018d12:    204f        O       MOVS     r0,#0x4f
        0x00018d14:    f001fe66    ..f.    BL       am_hal_gpio_pinconfig ; 0x1a9e4
        0x00018d18:    4881        .H      LDR      r0,[pc,#516] ; [0x18f20] = 0x10000158
        0x00018d1a:    6801        .h      LDR      r1,[r0,#0]
        0x00018d1c:    9100        ..      STR      r1,[sp,#0]
        0x00018d1e:    2050        P       MOVS     r0,#0x50
        0x00018d20:    f001fe60    ..`.    BL       am_hal_gpio_pinconfig ; 0x1a9e4
        0x00018d24:    487f        .H      LDR      r0,[pc,#508] ; [0x18f24] = 0x1000015c
        0x00018d26:    6801        .h      LDR      r1,[r0,#0]
        0x00018d28:    9100        ..      STR      r1,[sp,#0]
        0x00018d2a:    2051        Q       MOVS     r0,#0x51
        0x00018d2c:    f001fe5a    ..Z.    BL       am_hal_gpio_pinconfig ; 0x1a9e4
        0x00018d30:    4875        uH      LDR      r0,[pc,#468] ; [0x18f08] = 0x10000160
        0x00018d32:    6801        .h      LDR      r1,[r0,#0]
        0x00018d34:    9100        ..      STR      r1,[sp,#0]
        0x00018d36:    e8bd4038    ..8@    POP      {r3-r5,lr}
        0x00018d3a:    2052        R       MOVS     r0,#0x52
        0x00018d3c:    f001be52    ..R.    B.W      am_hal_gpio_pinconfig ; 0x1a9e4
        0x00018d40:    4872        rH      LDR      r0,[pc,#456] ; [0x18f0c] = 0x1000013c
        0x00018d42:    6801        .h      LDR      r1,[r0,#0]
        0x00018d44:    9100        ..      STR      r1,[sp,#0]
        0x00018d46:    2056        V       MOVS     r0,#0x56
        0x00018d48:    f001fe4c    ..L.    BL       am_hal_gpio_pinconfig ; 0x1a9e4
        0x00018d4c:    486c        lH      LDR      r0,[pc,#432] ; [0x18f00] = 0x10000140
        0x00018d4e:    6801        .h      LDR      r1,[r0,#0]
        0x00018d50:    9100        ..      STR      r1,[sp,#0]
        0x00018d52:    204a        J       MOVS     r0,#0x4a
        0x00018d54:    f001fe46    ..F.    BL       am_hal_gpio_pinconfig ; 0x1a9e4
        0x00018d58:    486a        jH      LDR      r0,[pc,#424] ; [0x18f04] = 0x10000144
        0x00018d5a:    6801        .h      LDR      r1,[r0,#0]
        0x00018d5c:    9100        ..      STR      r1,[sp,#0]
        0x00018d5e:    204b        K       MOVS     r0,#0x4b
        0x00018d60:    f001fe40    ..@.    BL       am_hal_gpio_pinconfig ; 0x1a9e4
        0x00018d64:    486a        jH      LDR      r0,[pc,#424] ; [0x18f10] = 0x10000148
        0x00018d66:    6801        .h      LDR      r1,[r0,#0]
        0x00018d68:    9100        ..      STR      r1,[sp,#0]
        0x00018d6a:    204c        L       MOVS     r0,#0x4c
        0x00018d6c:    f001fe3a    ..:.    BL       am_hal_gpio_pinconfig ; 0x1a9e4
        0x00018d70:    4868        hH      LDR      r0,[pc,#416] ; [0x18f14] = 0x1000014c
        0x00018d72:    6801        .h      LDR      r1,[r0,#0]
        0x00018d74:    9100        ..      STR      r1,[sp,#0]
        0x00018d76:    204d        M       MOVS     r0,#0x4d
        0x00018d78:    f001fe34    ..4.    BL       am_hal_gpio_pinconfig ; 0x1a9e4
        0x00018d7c:    4866        fH      LDR      r0,[pc,#408] ; [0x18f18] = 0x10000150
        0x00018d7e:    6801        .h      LDR      r1,[r0,#0]
        0x00018d80:    9100        ..      STR      r1,[sp,#0]
        0x00018d82:    204e        N       MOVS     r0,#0x4e
        0x00018d84:    f001fe2e    ....    BL       am_hal_gpio_pinconfig ; 0x1a9e4
        0x00018d88:    4864        dH      LDR      r0,[pc,#400] ; [0x18f1c] = 0x10000154
        0x00018d8a:    6801        .h      LDR      r1,[r0,#0]
        0x00018d8c:    9100        ..      STR      r1,[sp,#0]
        0x00018d8e:    204f        O       MOVS     r0,#0x4f
        0x00018d90:    f001fe28    ..(.    BL       am_hal_gpio_pinconfig ; 0x1a9e4
        0x00018d94:    4862        bH      LDR      r0,[pc,#392] ; [0x18f20] = 0x10000158
        0x00018d96:    6801        .h      LDR      r1,[r0,#0]
        0x00018d98:    9100        ..      STR      r1,[sp,#0]
        0x00018d9a:    2050        P       MOVS     r0,#0x50
        0x00018d9c:    f001fe22    ..".    BL       am_hal_gpio_pinconfig ; 0x1a9e4
        0x00018da0:    4860        `H      LDR      r0,[pc,#384] ; [0x18f24] = 0x1000015c
        0x00018da2:    6801        .h      LDR      r1,[r0,#0]
        0x00018da4:    9100        ..      STR      r1,[sp,#0]
        0x00018da6:    2051        Q       MOVS     r0,#0x51
        0x00018da8:    f001fe1c    ....    BL       am_hal_gpio_pinconfig ; 0x1a9e4
        0x00018dac:    4856        VH      LDR      r0,[pc,#344] ; [0x18f08] = 0x10000160
        0x00018dae:    6801        .h      LDR      r1,[r0,#0]
        0x00018db0:    9100        ..      STR      r1,[sp,#0]
        0x00018db2:    e8bd4038    ..8@    POP      {r3-r5,lr}
        0x00018db6:    2052        R       MOVS     r0,#0x52
        0x00018db8:    f001be14    ....    B.W      am_hal_gpio_pinconfig ; 0x1a9e4
        0x00018dbc:    484f        OH      LDR      r0,[pc,#316] ; [0x18efc] = 0x10000138
        0x00018dbe:    6801        .h      LDR      r1,[r0,#0]
        0x00018dc0:    9100        ..      STR      r1,[sp,#0]
        0x00018dc2:    2000        .       MOVS     r0,#0
        0x00018dc4:    f001fe0e    ....    BL       am_hal_gpio_pinconfig ; 0x1a9e4
        0x00018dc8:    484d        MH      LDR      r0,[pc,#308] ; [0x18f00] = 0x10000140
        0x00018dca:    6801        .h      LDR      r1,[r0,#0]
        0x00018dcc:    9100        ..      STR      r1,[sp,#0]
        0x00018dce:    204a        J       MOVS     r0,#0x4a
        0x00018dd0:    f001fe08    ....    BL       am_hal_gpio_pinconfig ; 0x1a9e4
        0x00018dd4:    484b        KH      LDR      r0,[pc,#300] ; [0x18f04] = 0x10000144
        0x00018dd6:    6801        .h      LDR      r1,[r0,#0]
        0x00018dd8:    9100        ..      STR      r1,[sp,#0]
        0x00018dda:    204b        K       MOVS     r0,#0x4b
        0x00018ddc:    f001fe02    ....    BL       am_hal_gpio_pinconfig ; 0x1a9e4
        0x00018de0:    484b        KH      LDR      r0,[pc,#300] ; [0x18f10] = 0x10000148
        0x00018de2:    6801        .h      LDR      r1,[r0,#0]
        0x00018de4:    9100        ..      STR      r1,[sp,#0]
        0x00018de6:    204c        L       MOVS     r0,#0x4c
        0x00018de8:    f001fdfc    ....    BL       am_hal_gpio_pinconfig ; 0x1a9e4
        0x00018dec:    4849        IH      LDR      r0,[pc,#292] ; [0x18f14] = 0x1000014c
        0x00018dee:    6801        .h      LDR      r1,[r0,#0]
        0x00018df0:    9100        ..      STR      r1,[sp,#0]
        0x00018df2:    204d        M       MOVS     r0,#0x4d
        0x00018df4:    f001fdf6    ....    BL       am_hal_gpio_pinconfig ; 0x1a9e4
        0x00018df8:    4847        GH      LDR      r0,[pc,#284] ; [0x18f18] = 0x10000150
        0x00018dfa:    6801        .h      LDR      r1,[r0,#0]
        0x00018dfc:    9100        ..      STR      r1,[sp,#0]
        0x00018dfe:    204e        N       MOVS     r0,#0x4e
        0x00018e00:    f001fdf0    ....    BL       am_hal_gpio_pinconfig ; 0x1a9e4
        0x00018e04:    4845        EH      LDR      r0,[pc,#276] ; [0x18f1c] = 0x10000154
        0x00018e06:    6801        .h      LDR      r1,[r0,#0]
        0x00018e08:    9100        ..      STR      r1,[sp,#0]
        0x00018e0a:    204f        O       MOVS     r0,#0x4f
        0x00018e0c:    f001fdea    ....    BL       am_hal_gpio_pinconfig ; 0x1a9e4
        0x00018e10:    4843        CH      LDR      r0,[pc,#268] ; [0x18f20] = 0x10000158
        0x00018e12:    6801        .h      LDR      r1,[r0,#0]
        0x00018e14:    9100        ..      STR      r1,[sp,#0]
        0x00018e16:    2050        P       MOVS     r0,#0x50
        0x00018e18:    f001fde4    ....    BL       am_hal_gpio_pinconfig ; 0x1a9e4
        0x00018e1c:    4841        AH      LDR      r0,[pc,#260] ; [0x18f24] = 0x1000015c
        0x00018e1e:    6801        .h      LDR      r1,[r0,#0]
        0x00018e20:    9100        ..      STR      r1,[sp,#0]
        0x00018e22:    2051        Q       MOVS     r0,#0x51
        0x00018e24:    f001fdde    ....    BL       am_hal_gpio_pinconfig ; 0x1a9e4
        0x00018e28:    4837        7H      LDR      r0,[pc,#220] ; [0x18f08] = 0x10000160
        0x00018e2a:    6801        .h      LDR      r1,[r0,#0]
        0x00018e2c:    9100        ..      STR      r1,[sp,#0]
        0x00018e2e:    2052        R       MOVS     r0,#0x52
        0x00018e30:    f001fdd8    ....    BL       am_hal_gpio_pinconfig ; 0x1a9e4
        0x00018e34:    483c        <H      LDR      r0,[pc,#240] ; [0x18f28] = 0x10000164
        0x00018e36:    6801        .h      LDR      r1,[r0,#0]
        0x00018e38:    9100        ..      STR      r1,[sp,#0]
        0x00018e3a:    e8bd4038    ..8@    POP      {r3-r5,lr}
        0x00018e3e:    2053        S       MOVS     r0,#0x53
        0x00018e40:    f001bdd0    ....    B.W      am_hal_gpio_pinconfig ; 0x1a9e4
        0x00018e44:    4831        1H      LDR      r0,[pc,#196] ; [0x18f0c] = 0x1000013c
        0x00018e46:    6801        .h      LDR      r1,[r0,#0]
        0x00018e48:    9100        ..      STR      r1,[sp,#0]
        0x00018e4a:    2056        V       MOVS     r0,#0x56
        0x00018e4c:    f001fdca    ....    BL       am_hal_gpio_pinconfig ; 0x1a9e4
        0x00018e50:    482b        +H      LDR      r0,[pc,#172] ; [0x18f00] = 0x10000140
        0x00018e52:    6801        .h      LDR      r1,[r0,#0]
        0x00018e54:    9100        ..      STR      r1,[sp,#0]
        0x00018e56:    204a        J       MOVS     r0,#0x4a
        0x00018e58:    f001fdc4    ....    BL       am_hal_gpio_pinconfig ; 0x1a9e4
        0x00018e5c:    4829        )H      LDR      r0,[pc,#164] ; [0x18f04] = 0x10000144
        0x00018e5e:    6801        .h      LDR      r1,[r0,#0]
        0x00018e60:    9100        ..      STR      r1,[sp,#0]
        0x00018e62:    204b        K       MOVS     r0,#0x4b
        0x00018e64:    f001fdbe    ....    BL       am_hal_gpio_pinconfig ; 0x1a9e4
        0x00018e68:    4829        )H      LDR      r0,[pc,#164] ; [0x18f10] = 0x10000148
        0x00018e6a:    6801        .h      LDR      r1,[r0,#0]
        0x00018e6c:    9100        ..      STR      r1,[sp,#0]
        0x00018e6e:    204c        L       MOVS     r0,#0x4c
        0x00018e70:    f001fdb8    ....    BL       am_hal_gpio_pinconfig ; 0x1a9e4
        0x00018e74:    4827        'H      LDR      r0,[pc,#156] ; [0x18f14] = 0x1000014c
        0x00018e76:    6801        .h      LDR      r1,[r0,#0]
        0x00018e78:    9100        ..      STR      r1,[sp,#0]
        0x00018e7a:    204d        M       MOVS     r0,#0x4d
        0x00018e7c:    f001fdb2    ....    BL       am_hal_gpio_pinconfig ; 0x1a9e4
        0x00018e80:    4825        %H      LDR      r0,[pc,#148] ; [0x18f18] = 0x10000150
        0x00018e82:    6801        .h      LDR      r1,[r0,#0]
        0x00018e84:    9100        ..      STR      r1,[sp,#0]
        0x00018e86:    204e        N       MOVS     r0,#0x4e
        0x00018e88:    f001fdac    ....    BL       am_hal_gpio_pinconfig ; 0x1a9e4
        0x00018e8c:    4823        #H      LDR      r0,[pc,#140] ; [0x18f1c] = 0x10000154
        0x00018e8e:    6801        .h      LDR      r1,[r0,#0]
        0x00018e90:    9100        ..      STR      r1,[sp,#0]
        0x00018e92:    204f        O       MOVS     r0,#0x4f
        0x00018e94:    f001fda6    ....    BL       am_hal_gpio_pinconfig ; 0x1a9e4
        0x00018e98:    4821        !H      LDR      r0,[pc,#132] ; [0x18f20] = 0x10000158
        0x00018e9a:    6801        .h      LDR      r1,[r0,#0]
        0x00018e9c:    9100        ..      STR      r1,[sp,#0]
        0x00018e9e:    2050        P       MOVS     r0,#0x50
        0x00018ea0:    f001fda0    ....    BL       am_hal_gpio_pinconfig ; 0x1a9e4
        0x00018ea4:    481f        .H      LDR      r0,[pc,#124] ; [0x18f24] = 0x1000015c
        0x00018ea6:    6801        .h      LDR      r1,[r0,#0]
        0x00018ea8:    9100        ..      STR      r1,[sp,#0]
        0x00018eaa:    2051        Q       MOVS     r0,#0x51
        0x00018eac:    f001fd9a    ....    BL       am_hal_gpio_pinconfig ; 0x1a9e4
        0x00018eb0:    4815        .H      LDR      r0,[pc,#84] ; [0x18f08] = 0x10000160
        0x00018eb2:    6801        .h      LDR      r1,[r0,#0]
        0x00018eb4:    9100        ..      STR      r1,[sp,#0]
        0x00018eb6:    2052        R       MOVS     r0,#0x52
        0x00018eb8:    f001fd94    ....    BL       am_hal_gpio_pinconfig ; 0x1a9e4
        0x00018ebc:    481a        .H      LDR      r0,[pc,#104] ; [0x18f28] = 0x10000164
        0x00018ebe:    6801        .h      LDR      r1,[r0,#0]
        0x00018ec0:    9100        ..      STR      r1,[sp,#0]
        0x00018ec2:    e8bd4038    ..8@    POP      {r3-r5,lr}
        0x00018ec6:    2053        S       MOVS     r0,#0x53
        0x00018ec8:    f001bd8c    ....    B.W      am_hal_gpio_pinconfig ; 0x1a9e4
        0x00018ecc:    bd38        8.      POP      {r3-r5,pc}
    $d
        0x00018ece:    0000        ..      DCW    0
        0x00018ed0:    100001cc    ....    DCD    268435916
        0x00018ed4:    100001d0    ....    DCD    268435920
        0x00018ed8:    100001d4    ....    DCD    268435924
        0x00018edc:    100001d8    ....    DCD    268435928
        0x00018ee0:    100001dc    ....    DCD    268435932
        0x00018ee4:    100001e0    ....    DCD    268435936
        0x00018ee8:    100001bc    ....    DCD    268435900
        0x00018eec:    100001c0    ....    DCD    268435904
        0x00018ef0:    100001c4    ....    DCD    268435908
        0x00018ef4:    100001c8    ....    DCD    268435912
        0x00018ef8:    100001e4    ....    DCD    268435940
        0x00018efc:    10000138    8...    DCD    268435768
        0x00018f00:    10000140    @...    DCD    268435776
        0x00018f04:    10000144    D...    DCD    268435780
        0x00018f08:    10000160    `...    DCD    268435808
        0x00018f0c:    1000013c    <...    DCD    268435772
        0x00018f10:    10000148    H...    DCD    268435784
        0x00018f14:    1000014c    L...    DCD    268435788
        0x00018f18:    10000150    P...    DCD    268435792
        0x00018f1c:    10000154    T...    DCD    268435796
        0x00018f20:    10000158    X...    DCD    268435800
        0x00018f24:    1000015c    \...    DCD    268435804
        0x00018f28:    10000164    d...    DCD    268435812
    $t
    i.am_device_deinit_flash
    am_device_deinit_flash
        0x00018f2c:    4601        .F      MOV      r1,r0
        0x00018f2e:    2000        .       MOVS     r0,#0
        0x00018f30:    4770        pG      BX       lr
        0x00018f32:    0000        ..      MOVS     r0,r0
    i.am_device_init_flash
    am_device_init_flash
        0x00018f34:    b57c        |.      PUSH     {r2-r6,lr}
        0x00018f36:    4604        .F      MOV      r4,r0
        0x00018f38:    2500        .%      MOVS     r5,#0
        0x00018f3a:    2000        .       MOVS     r0,#0
        0x00018f3c:    9001        ..      STR      r0,[sp,#4]
        0x00018f3e:    ab01        ..      ADD      r3,sp,#4
        0x00018f40:    22a0        ."      MOVS     r2,#0xa0
        0x00018f42:    4629        )F      MOV      r1,r5
        0x00018f44:    4620         F      MOV      r0,r4
        0x00018f46:    f001f861    ..a.    BL       am_devices_mspi_ds35x1ga_write_status ; 0x1a00c
        0x00018f4a:    b108        ..      CBZ      r0,0x18f50 ; am_device_init_flash + 28
        0x00018f4c:    2001        .       MOVS     r0,#1
        0x00018f4e:    bd7c        |.      POP      {r2-r6,pc}
        0x00018f50:    4669        iF      MOV      r1,sp
        0x00018f52:    4620         F      MOV      r0,r4
        0x00018f54:    f000fa36    ..6.    BL       am_devices_mspi_ds35x1ga_id ; 0x193c4
        0x00018f58:    b110        ..      CBZ      r0,0x18f60 ; am_device_init_flash + 44
        0x00018f5a:    a007        ..      ADR      r0,{pc}+0x1e ; 0x18f78
        0x00018f5c:    f004fd38    ..8.    BL       am_util_stdio_printf ; 0x1d9d0
        0x00018f60:    2511        .%      MOVS     r5,#0x11
        0x00018f62:    ab01        ..      ADD      r3,sp,#4
        0x00018f64:    22b0        ."      MOVS     r2,#0xb0
        0x00018f66:    4629        )F      MOV      r1,r5
        0x00018f68:    4620         F      MOV      r0,r4
        0x00018f6a:    f001f84f    ..O.    BL       am_devices_mspi_ds35x1ga_write_status ; 0x1a00c
        0x00018f6e:    b108        ..      CBZ      r0,0x18f74 ; am_device_init_flash + 64
        0x00018f70:    2001        .       MOVS     r0,#1
        0x00018f72:    e7ec        ..      B        0x18f4e ; am_device_init_flash + 26
        0x00018f74:    2000        .       MOVS     r0,#0
        0x00018f76:    e7ea        ..      B        0x18f4e ; am_device_init_flash + 26
    $d
        0x00018f78:    444e414e    NAND    DCD    1145979214
        0x00018f7c:    616c6620     fla    DCD    1634493984
        0x00018f80:    49206873    sh I    DCD    1226860659
        0x00018f84:    73692044    D is    DCD    1936269380
        0x00018f88:    73696d20     mis    DCD    1936289056
        0x00018f8c:    6374616d    matc    DCD    1668571501
        0x00018f90:    0a0d2068    h ..    DCD    168632424
        0x00018f94:    00000000    ....    DCD    0
    $t
    i.am_devices_mspi_device_reconfigure
    am_devices_mspi_device_reconfigure
        0x00018f98:    e92d41f0    -..A    PUSH     {r4-r8,lr}
        0x00018f9c:    4605        .F      MOV      r5,r0
        0x00018f9e:    460f        .F      MOV      r7,r1
        0x00018fa0:    462c        ,F      MOV      r4,r5
        0x00018fa2:    6860        `h      LDR      r0,[r4,#4]
        0x00018fa4:    f003f804    ....    BL       am_hal_mspi_disable ; 0x1bfb0
        0x00018fa8:    4606        .F      MOV      r6,r0
        0x00018faa:    b12e        ..      CBZ      r6,0x18fb8 ; am_devices_mspi_device_reconfigure + 32
        0x00018fac:    a010        ..      ADR      r0,{pc}+0x44 ; 0x18ff0
        0x00018fae:    f004fd0f    ....    BL       am_util_stdio_printf ; 0x1d9d0
        0x00018fb2:    2001        .       MOVS     r0,#1
        0x00018fb4:    e8bd81f0    ....    POP      {r4-r8,pc}
        0x00018fb8:    4639        9F      MOV      r1,r7
        0x00018fba:    6860        `h      LDR      r0,[r4,#4]
        0x00018fbc:    f002feec    ....    BL       am_hal_mspi_device_configure ; 0x1bd98
        0x00018fc0:    4606        .F      MOV      r6,r0
        0x00018fc2:    b126        &.      CBZ      r6,0x18fce ; am_devices_mspi_device_reconfigure + 54
        0x00018fc4:    a012        ..      ADR      r0,{pc}+0x4c ; 0x19010
        0x00018fc6:    f004fd03    ....    BL       am_util_stdio_printf ; 0x1d9d0
        0x00018fca:    2001        .       MOVS     r0,#1
        0x00018fcc:    e7f2        ..      B        0x18fb4 ; am_devices_mspi_device_reconfigure + 28
        0x00018fce:    6860        `h      LDR      r0,[r4,#4]
        0x00018fd0:    f003f83e    ..>.    BL       am_hal_mspi_enable ; 0x1c050
        0x00018fd4:    4606        .F      MOV      r6,r0
        0x00018fd6:    b126        &.      CBZ      r6,0x18fe2 ; am_devices_mspi_device_reconfigure + 74
        0x00018fd8:    a00d        ..      ADR      r0,{pc}+0x38 ; 0x19010
        0x00018fda:    f004fcf9    ....    BL       am_util_stdio_printf ; 0x1d9d0
        0x00018fde:    2001        .       MOVS     r0,#1
        0x00018fe0:    e7e8        ..      B        0x18fb4 ; am_devices_mspi_device_reconfigure + 28
        0x00018fe2:    7a39        9z      LDRB     r1,[r7,#8]
        0x00018fe4:    6820         h      LDR      r0,[r4,#0]
        0x00018fe6:    f7fffb4b    ..K.    BL       am_bsp_mspi_pins_enable ; 0x18680
        0x00018fea:    2000        .       MOVS     r0,#0
        0x00018fec:    e7e2        ..      B        0x18fb4 ; am_devices_mspi_device_reconfigure + 28
    $d
        0x00018fee:    0000        ..      DCW    0
        0x00018ff0:    6f727245    Erro    DCD    1869771333
        0x00018ff4:    202d2072    r -     DCD    539828338
        0x00018ff8:    6c696146    Fail    DCD    1818845510
        0x00018ffc:    74206465    ed t    DCD    1948279909
        0x00019000:    6964206f    o di    DCD    1768169583
        0x00019004:    656c6273    sble    DCD    1701601907
        0x00019008:    70736d20     msp    DCD    1886612768
        0x0001900c:    000a2e69    i...    DCD    667241
        0x00019010:    6f727245    Erro    DCD    1869771333
        0x00019014:    202d2072    r -     DCD    539828338
        0x00019018:    6c696146    Fail    DCD    1818845510
        0x0001901c:    74206465    ed t    DCD    1948279909
        0x00019020:    6f63206f    o co    DCD    1868767343
        0x00019024:    6769666e    nfig    DCD    1734960750
        0x00019028:    20657275    ure     DCD    543519349
        0x0001902c:    6970736d    mspi    DCD    1768977261
        0x00019030:    00000a2e    ....    DCD    2606
    $t
    i.am_devices_mspi_ds35x1ga_apply_sdr_timing
    am_devices_mspi_ds35x1ga_apply_sdr_timing
        0x00019034:    b57c        |.      PUSH     {r2-r6,lr}
        0x00019036:    4605        .F      MOV      r5,r0
        0x00019038:    460c        .F      MOV      r4,r1
        0x0001903a:    462e        .F      MOV      r6,r5
        0x0001903c:    4917        .I      LDR      r1,[pc,#92] ; [0x1909c] = 0x1f7cc
        0x0001903e:    c903        ..      LDM      r1,{r0,r1}
        0x00019040:    e9cd0100    ....    STRD     r0,r1,[sp,#0]
        0x00019044:    7820         x      LDRB     r0,[r4,#0]
        0x00019046:    f88d0000    ....    STRB     r0,[sp,#0]
        0x0001904a:    7860        `x      LDRB     r0,[r4,#1]
        0x0001904c:    f88d0001    ....    STRB     r0,[sp,#1]
        0x00019050:    78a0        .x      LDRB     r0,[r4,#2]
        0x00019052:    f88d0002    ....    STRB     r0,[sp,#2]
        0x00019056:    78e0        .x      LDRB     r0,[r4,#3]
        0x00019058:    f88d0003    ....    STRB     r0,[sp,#3]
        0x0001905c:    7920         y      LDRB     r0,[r4,#4]
        0x0001905e:    f88d0004    ....    STRB     r0,[sp,#4]
        0x00019062:    7960        `y      LDRB     r0,[r4,#5]
        0x00019064:    f88d0005    ....    STRB     r0,[sp,#5]
        0x00019068:    480d        .H      LDR      r0,[pc,#52] ; [0x190a0] = 0x100000a6
        0x0001906a:    7800        .x      LDRB     r0,[r0,#0]
        0x0001906c:    b978        x.      CBNZ     r0,0x1908e ; am_devices_mspi_ds35x1ga_apply_sdr_timing + 90
        0x0001906e:    2001        .       MOVS     r0,#1
        0x00019070:    490b        .I      LDR      r1,[pc,#44] ; [0x190a0] = 0x100000a6
        0x00019072:    7008        .p      STRB     r0,[r1,#0]
        0x00019074:    7820         x      LDRB     r0,[r4,#0]
        0x00019076:    490b        .I      LDR      r1,[pc,#44] ; [0x190a4] = 0x100000a7
        0x00019078:    7008        .p      STRB     r0,[r1,#0]
        0x0001907a:    7860        `x      LDRB     r0,[r4,#1]
        0x0001907c:    7048        Hp      STRB     r0,[r1,#1]
        0x0001907e:    78a0        .x      LDRB     r0,[r4,#2]
        0x00019080:    7088        .p      STRB     r0,[r1,#2]
        0x00019082:    78e0        .x      LDRB     r0,[r4,#3]
        0x00019084:    70c8        .p      STRB     r0,[r1,#3]
        0x00019086:    7920         y      LDRB     r0,[r4,#4]
        0x00019088:    7108        .q      STRB     r0,[r1,#4]
        0x0001908a:    7960        `y      LDRB     r0,[r4,#5]
        0x0001908c:    7148        Hq      STRB     r0,[r1,#5]
        0x0001908e:    466a        jF      MOV      r2,sp
        0x00019090:    210d        .!      MOVS     r1,#0xd
        0x00019092:    6870        ph      LDR      r0,[r6,#4]
        0x00019094:    f001ffac    ....    BL       am_hal_mspi_control ; 0x1aff0
        0x00019098:    bd7c        |.      POP      {r2-r6,pc}
    $d
        0x0001909a:    0000        ..      DCW    0
        0x0001909c:    0001f7cc    ....    DCD    128972
        0x000190a0:    100000a6    ....    DCD    268435622
        0x000190a4:    100000a7    ....    DCD    268435623
    $t
    i.am_devices_mspi_ds35x1ga_block_erase
    am_devices_mspi_ds35x1ga_block_erase
        0x000190a8:    b5fe        ..      PUSH     {r1-r7,lr}
        0x000190aa:    4606        .F      MOV      r6,r0
        0x000190ac:    460c        .F      MOV      r4,r1
        0x000190ae:    f5b46f80    ...o    CMP      r4,#0x400
        0x000190b2:    d301        ..      BCC      0x190b8 ; am_devices_mspi_ds35x1ga_block_erase + 16
        0x000190b4:    2001        .       MOVS     r0,#1
        0x000190b6:    bdfe        ..      POP      {r1-r7,pc}
        0x000190b8:    4630        0F      MOV      r0,r6
        0x000190ba:    f000f959    ..Y.    BL       am_devices_mspi_ds35x1ga_enter_command_mode ; 0x19370
        0x000190be:    2000        .       MOVS     r0,#0
        0x000190c0:    9000        ..      STR      r0,[sp,#0]
        0x000190c2:    4603        .F      MOV      r3,r0
        0x000190c4:    4602        .F      MOV      r2,r0
        0x000190c6:    2106        .!      MOVS     r1,#6
        0x000190c8:    9001        ..      STR      r0,[sp,#4]
        0x000190ca:    4630        0F      MOV      r0,r6
        0x000190cc:    f000f898    ....    BL       am_devices_mspi_ds35x1ga_command_write ; 0x19200
        0x000190d0:    9002        ..      STR      r0,[sp,#8]
        0x000190d2:    9802        ..      LDR      r0,[sp,#8]
        0x000190d4:    b108        ..      CBZ      r0,0x190da ; am_devices_mspi_ds35x1ga_block_erase + 50
        0x000190d6:    2001        .       MOVS     r0,#1
        0x000190d8:    e7ed        ..      B        0x190b6 ; am_devices_mspi_ds35x1ga_block_erase + 14
        0x000190da:    2000        .       MOVS     r0,#0
        0x000190dc:    9000        ..      STR      r0,[sp,#0]
        0x000190de:    01a3        ..      LSLS     r3,r4,#6
        0x000190e0:    2201        ."      MOVS     r2,#1
        0x000190e2:    21d8        .!      MOVS     r1,#0xd8
        0x000190e4:    9001        ..      STR      r0,[sp,#4]
        0x000190e6:    4630        0F      MOV      r0,r6
        0x000190e8:    f000f88a    ....    BL       am_devices_mspi_ds35x1ga_command_write ; 0x19200
        0x000190ec:    9002        ..      STR      r0,[sp,#8]
        0x000190ee:    9802        ..      LDR      r0,[sp,#8]
        0x000190f0:    b108        ..      CBZ      r0,0x190f6 ; am_devices_mspi_ds35x1ga_block_erase + 78
        0x000190f2:    2001        .       MOVS     r0,#1
        0x000190f4:    e7df        ..      B        0x190b6 ; am_devices_mspi_ds35x1ga_block_erase + 14
        0x000190f6:    2500        .%      MOVS     r5,#0
        0x000190f8:    e024        $.      B        0x19144 ; am_devices_mspi_ds35x1ga_block_erase + 156
        0x000190fa:    aa02        ..      ADD      r2,sp,#8
        0x000190fc:    21c0        .!      MOVS     r1,#0xc0
        0x000190fe:    4630        0F      MOV      r0,r6
        0x00019100:    f000fc3a    ..:.    BL       am_devices_mspi_ds35x1ga_read_status ; 0x19978
        0x00019104:    b9d0        ..      CBNZ     r0,0x1913c ; am_devices_mspi_ds35x1ga_block_erase + 148
        0x00019106:    9802        ..      LDR      r0,[sp,#8]
        0x00019108:    f0000004    ....    AND      r0,r0,#4
        0x0001910c:    2804        .(      CMP      r0,#4
        0x0001910e:    d015        ..      BEQ      0x1913c ; am_devices_mspi_ds35x1ga_block_erase + 148
        0x00019110:    9802        ..      LDR      r0,[sp,#8]
        0x00019112:    f0000001    ....    AND      r0,r0,#1
        0x00019116:    b988        ..      CBNZ     r0,0x1913c ; am_devices_mspi_ds35x1ga_block_erase + 148
        0x00019118:    2000        .       MOVS     r0,#0
        0x0001911a:    9000        ..      STR      r0,[sp,#0]
        0x0001911c:    4603        .F      MOV      r3,r0
        0x0001911e:    4602        .F      MOV      r2,r0
        0x00019120:    2104        .!      MOVS     r1,#4
        0x00019122:    9001        ..      STR      r0,[sp,#4]
        0x00019124:    4630        0F      MOV      r0,r6
        0x00019126:    f000f86b    ..k.    BL       am_devices_mspi_ds35x1ga_command_write ; 0x19200
        0x0001912a:    9002        ..      STR      r0,[sp,#8]
        0x0001912c:    9802        ..      LDR      r0,[sp,#8]
        0x0001912e:    b120         .      CBZ      r0,0x1913a ; am_devices_mspi_ds35x1ga_block_erase + 146
        0x00019130:    4630        0F      MOV      r0,r6
        0x00019132:    f000f932    ..2.    BL       am_devices_mspi_ds35x1ga_exit_command_mode ; 0x1939a
        0x00019136:    2001        .       MOVS     r0,#1
        0x00019138:    e7bd        ..      B        0x190b6 ; am_devices_mspi_ds35x1ga_block_erase + 14
        0x0001913a:    e006        ..      B        0x1914a ; am_devices_mspi_ds35x1ga_block_erase + 162
        0x0001913c:    2001        .       MOVS     r0,#1
        0x0001913e:    f004f925    ..%.    BL       am_util_delay_us ; 0x1d38c
        0x00019142:    1c6d        m.      ADDS     r5,r5,#1
        0x00019144:    4804        .H      LDR      r0,[pc,#16] ; [0x19158] = 0xf4240
        0x00019146:    4285        .B      CMP      r5,r0
        0x00019148:    d3d7        ..      BCC      0x190fa ; am_devices_mspi_ds35x1ga_block_erase + 82
        0x0001914a:    bf00        ..      NOP      
        0x0001914c:    4630        0F      MOV      r0,r6
        0x0001914e:    f000f924    ..$.    BL       am_devices_mspi_ds35x1ga_exit_command_mode ; 0x1939a
        0x00019152:    2000        .       MOVS     r0,#0
        0x00019154:    e7af        ..      B        0x190b6 ; am_devices_mspi_ds35x1ga_block_erase + 14
    $d
        0x00019156:    0000        ..      DCW    0
        0x00019158:    000f4240    @B..    DCD    1000000
    $t
    i.am_devices_mspi_ds35x1ga_command_read
    am_devices_mspi_ds35x1ga_command_read
        0x0001915c:    e92d4ff0    -..O    PUSH     {r4-r11,lr}
        0x00019160:    b087        ..      SUB      sp,sp,#0x1c
        0x00019162:    4607        .F      MOV      r7,r0
        0x00019164:    460d        .F      MOV      r5,r1
        0x00019166:    4690        .F      MOV      r8,r2
        0x00019168:    4699        .F      MOV      r9,r3
        0x0001916a:    e9ddab10    ....    LDRD     r10,r11,[sp,#0x40]
        0x0001916e:    463c        <F      MOV      r4,r7
        0x00019170:    2118        .!      MOVS     r1,#0x18
        0x00019172:    a801        ..      ADD      r0,sp,#4
        0x00019174:    f7fff9a1    ....    BL       __aeabi_memclr4 ; 0x184ba
        0x00019178:    2000        .       MOVS     r0,#0
        0x0001917a:    f88d000a    ....    STRB     r0,[sp,#0xa]
        0x0001917e:    f88d800b    ....    STRB     r8,[sp,#0xb]
        0x00019182:    f8cd900c    ....    STR      r9,[sp,#0xc]
        0x00019186:    2001        .       MOVS     r0,#1
        0x00019188:    f88d0010    ....    STRB     r0,[sp,#0x10]
        0x0001918c:    f8ad5012    ...P    STRH     r5,[sp,#0x12]
        0x00019190:    2d0f        .-      CMP      r5,#0xf
        0x00019192:    d10c        ..      BNE      0x191ae ; am_devices_mspi_ds35x1ga_command_read + 82
        0x00019194:    2000        .       MOVS     r0,#0
        0x00019196:    f88d0000    ....    STRB     r0,[sp,#0]
        0x0001919a:    2020                MOVS     r0,#0x20
        0x0001919c:    5d00        .]      LDRB     r0,[r0,r4]
        0x0001919e:    f88d0001    ....    STRB     r0,[sp,#1]
        0x000191a2:    466a        jF      MOV      r2,sp
        0x000191a4:    211f        .!      MOVS     r1,#0x1f
        0x000191a6:    6860        `h      LDR      r0,[r4,#4]
        0x000191a8:    f001ff22    ..".    BL       am_hal_mspi_control ; 0x1aff0
        0x000191ac:    bf00        ..      NOP      
        0x000191ae:    f8cdb004    ....    STR      r11,[sp,#4]
        0x000191b2:    f8cda018    ....    STR      r10,[sp,#0x18]
        0x000191b6:    2000        .       MOVS     r0,#0
        0x000191b8:    f88d0009    ....    STRB     r0,[sp,#9]
        0x000191bc:    f88d0015    ....    STRB     r0,[sp,#0x15]
        0x000191c0:    f88d0016    ....    STRB     r0,[sp,#0x16]
        0x000191c4:    4a0d        .J      LDR      r2,[pc,#52] ; [0x191fc] = 0xf4240
        0x000191c6:    a901        ..      ADD      r1,sp,#4
        0x000191c8:    6860        `h      LDR      r0,[r4,#4]
        0x000191ca:    f001fd7b    ..{.    BL       am_hal_mspi_blocking_transfer ; 0x1acc4
        0x000191ce:    4606        .F      MOV      r6,r0
        0x000191d0:    2d0f        .-      CMP      r5,#0xf
        0x000191d2:    d10c        ..      BNE      0x191ee ; am_devices_mspi_ds35x1ga_command_read + 146
        0x000191d4:    7fe0        ..      LDRB     r0,[r4,#0x1f]
        0x000191d6:    f88d0000    ....    STRB     r0,[sp,#0]
        0x000191da:    2020                MOVS     r0,#0x20
        0x000191dc:    5d00        .]      LDRB     r0,[r0,r4]
        0x000191de:    f88d0001    ....    STRB     r0,[sp,#1]
        0x000191e2:    466a        jF      MOV      r2,sp
        0x000191e4:    211f        .!      MOVS     r1,#0x1f
        0x000191e6:    6860        `h      LDR      r0,[r4,#4]
        0x000191e8:    f001ff02    ....    BL       am_hal_mspi_control ; 0x1aff0
        0x000191ec:    bf00        ..      NOP      
        0x000191ee:    b11e        ..      CBZ      r6,0x191f8 ; am_devices_mspi_ds35x1ga_command_read + 156
        0x000191f0:    4630        0F      MOV      r0,r6
        0x000191f2:    b007        ..      ADD      sp,sp,#0x1c
        0x000191f4:    e8bd8ff0    ....    POP      {r4-r11,pc}
        0x000191f8:    4630        0F      MOV      r0,r6
        0x000191fa:    e7fa        ..      B        0x191f2 ; am_devices_mspi_ds35x1ga_command_read + 150
    $d
        0x000191fc:    000f4240    @B..    DCD    1000000
    $t
    i.am_devices_mspi_ds35x1ga_command_write
    am_devices_mspi_ds35x1ga_command_write
        0x00019200:    e92d4ff0    -..O    PUSH     {r4-r11,lr}
        0x00019204:    b087        ..      SUB      sp,sp,#0x1c
        0x00019206:    4607        .F      MOV      r7,r0
        0x00019208:    460c        .F      MOV      r4,r1
        0x0001920a:    4690        .F      MOV      r8,r2
        0x0001920c:    4699        .F      MOV      r9,r3
        0x0001920e:    e9ddab10    ....    LDRD     r10,r11,[sp,#0x40]
        0x00019212:    463d        =F      MOV      r5,r7
        0x00019214:    2118        .!      MOVS     r1,#0x18
        0x00019216:    a801        ..      ADD      r0,sp,#4
        0x00019218:    f7fff94f    ..O.    BL       __aeabi_memclr4 ; 0x184ba
        0x0001921c:    f8cdb004    ....    STR      r11,[sp,#4]
        0x00019220:    2001        .       MOVS     r0,#1
        0x00019222:    f88d000a    ....    STRB     r0,[sp,#0xa]
        0x00019226:    f88d800b    ....    STRB     r8,[sp,#0xb]
        0x0001922a:    f8cd900c    ....    STR      r9,[sp,#0xc]
        0x0001922e:    f88d0010    ....    STRB     r0,[sp,#0x10]
        0x00019232:    f8ad4012    ...@    STRH     r4,[sp,#0x12]
        0x00019236:    2000        .       MOVS     r0,#0
        0x00019238:    f88d0014    ....    STRB     r0,[sp,#0x14]
        0x0001923c:    f8cda018    ....    STR      r10,[sp,#0x18]
        0x00019240:    f88d0009    ....    STRB     r0,[sp,#9]
        0x00019244:    f88d0015    ....    STRB     r0,[sp,#0x15]
        0x00019248:    f88d0016    ....    STRB     r0,[sp,#0x16]
        0x0001924c:    2c10        .,      CMP      r4,#0x10
        0x0001924e:    d005        ..      BEQ      0x1925c ; am_devices_mspi_ds35x1ga_command_write + 92
        0x00019250:    2c13        .,      CMP      r4,#0x13
        0x00019252:    d003        ..      BEQ      0x1925c ; am_devices_mspi_ds35x1ga_command_write + 92
        0x00019254:    2cd8        .,      CMP      r4,#0xd8
        0x00019256:    d001        ..      BEQ      0x1925c ; am_devices_mspi_ds35x1ga_command_write + 92
        0x00019258:    2c1f        .,      CMP      r4,#0x1f
        0x0001925a:    d112        ..      BNE      0x19282 ; am_devices_mspi_ds35x1ga_command_write + 130
        0x0001925c:    2c1f        .,      CMP      r4,#0x1f
        0x0001925e:    d103        ..      BNE      0x19268 ; am_devices_mspi_ds35x1ga_command_write + 104
        0x00019260:    2000        .       MOVS     r0,#0
        0x00019262:    f88d0000    ....    STRB     r0,[sp,#0]
        0x00019266:    e002        ..      B        0x1926e ; am_devices_mspi_ds35x1ga_command_write + 110
        0x00019268:    2002        .       MOVS     r0,#2
        0x0001926a:    f88d0000    ....    STRB     r0,[sp,#0]
        0x0001926e:    2020                MOVS     r0,#0x20
        0x00019270:    5d40        @]      LDRB     r0,[r0,r5]
        0x00019272:    f88d0001    ....    STRB     r0,[sp,#1]
        0x00019276:    466a        jF      MOV      r2,sp
        0x00019278:    211f        .!      MOVS     r1,#0x1f
        0x0001927a:    6868        hh      LDR      r0,[r5,#4]
        0x0001927c:    f001feb8    ....    BL       am_hal_mspi_control ; 0x1aff0
        0x00019280:    bf00        ..      NOP      
        0x00019282:    4a11        .J      LDR      r2,[pc,#68] ; [0x192c8] = 0xf4240
        0x00019284:    a901        ..      ADD      r1,sp,#4
        0x00019286:    6868        hh      LDR      r0,[r5,#4]
        0x00019288:    f001fd1c    ....    BL       am_hal_mspi_blocking_transfer ; 0x1acc4
        0x0001928c:    4606        .F      MOV      r6,r0
        0x0001928e:    2c10        .,      CMP      r4,#0x10
        0x00019290:    d005        ..      BEQ      0x1929e ; am_devices_mspi_ds35x1ga_command_write + 158
        0x00019292:    2c13        .,      CMP      r4,#0x13
        0x00019294:    d003        ..      BEQ      0x1929e ; am_devices_mspi_ds35x1ga_command_write + 158
        0x00019296:    2cd8        .,      CMP      r4,#0xd8
        0x00019298:    d001        ..      BEQ      0x1929e ; am_devices_mspi_ds35x1ga_command_write + 158
        0x0001929a:    2c1f        .,      CMP      r4,#0x1f
        0x0001929c:    d10c        ..      BNE      0x192b8 ; am_devices_mspi_ds35x1ga_command_write + 184
        0x0001929e:    7fe8        ..      LDRB     r0,[r5,#0x1f]
        0x000192a0:    f88d0000    ....    STRB     r0,[sp,#0]
        0x000192a4:    2020                MOVS     r0,#0x20
        0x000192a6:    5d40        @]      LDRB     r0,[r0,r5]
        0x000192a8:    f88d0001    ....    STRB     r0,[sp,#1]
        0x000192ac:    466a        jF      MOV      r2,sp
        0x000192ae:    211f        .!      MOVS     r1,#0x1f
        0x000192b0:    6868        hh      LDR      r0,[r5,#4]
        0x000192b2:    f001fe9d    ....    BL       am_hal_mspi_control ; 0x1aff0
        0x000192b6:    bf00        ..      NOP      
        0x000192b8:    b11e        ..      CBZ      r6,0x192c2 ; am_devices_mspi_ds35x1ga_command_write + 194
        0x000192ba:    4630        0F      MOV      r0,r6
        0x000192bc:    b007        ..      ADD      sp,sp,#0x1c
        0x000192be:    e8bd8ff0    ....    POP      {r4-r11,pc}
        0x000192c2:    4630        0F      MOV      r0,r6
        0x000192c4:    e7fa        ..      B        0x192bc ; am_devices_mspi_ds35x1ga_command_write + 188
    $d
        0x000192c6:    0000        ..      DCW    0
        0x000192c8:    000f4240    @B..    DCD    1000000
    $t
    i.am_devices_mspi_ds35x1ga_deinit
    am_devices_mspi_ds35x1ga_deinit
        0x000192cc:    b570        p.      PUSH     {r4-r6,lr}
        0x000192ce:    4606        .F      MOV      r6,r0
        0x000192d0:    4634        4F      MOV      r4,r6
        0x000192d2:    4630        0F      MOV      r0,r6
        0x000192d4:    f7fffe2a    ..*.    BL       am_device_deinit_flash ; 0x18f2c
        0x000192d8:    4605        .F      MOV      r5,r0
        0x000192da:    b10d        ..      CBZ      r5,0x192e0 ; am_devices_mspi_ds35x1ga_deinit + 20
        0x000192dc:    2001        .       MOVS     r0,#1
        0x000192de:    bd70        p.      POP      {r4-r6,pc}
        0x000192e0:    4630        0F      MOV      r0,r6
        0x000192e2:    f000fb73    ..s.    BL       am_devices_mspi_ds35x1ga_reset ; 0x199cc
        0x000192e6:    b108        ..      CBZ      r0,0x192ec ; am_devices_mspi_ds35x1ga_deinit + 32
        0x000192e8:    2001        .       MOVS     r0,#1
        0x000192ea:    e7f8        ..      B        0x192de ; am_devices_mspi_ds35x1ga_deinit + 18
        0x000192ec:    f04f31ff    O..1    MOV      r1,#0xffffffff
        0x000192f0:    6860        `h      LDR      r0,[r4,#4]
        0x000192f2:    f002ff4b    ..K.    BL       am_hal_mspi_interrupt_disable ; 0x1c18c
        0x000192f6:    4605        .F      MOV      r5,r0
        0x000192f8:    b10d        ..      CBZ      r5,0x192fe ; am_devices_mspi_ds35x1ga_deinit + 50
        0x000192fa:    2001        .       MOVS     r0,#1
        0x000192fc:    e7ef        ..      B        0x192de ; am_devices_mspi_ds35x1ga_deinit + 18
        0x000192fe:    f04f31ff    O..1    MOV      r1,#0xffffffff
        0x00019302:    6860        `h      LDR      r0,[r4,#4]
        0x00019304:    f002ff28    ..(.    BL       am_hal_mspi_interrupt_clear ; 0x1c158
        0x00019308:    4605        .F      MOV      r5,r0
        0x0001930a:    b10d        ..      CBZ      r5,0x19310 ; am_devices_mspi_ds35x1ga_deinit + 68
        0x0001930c:    2001        .       MOVS     r0,#1
        0x0001930e:    e7e6        ..      B        0x192de ; am_devices_mspi_ds35x1ga_deinit + 18
        0x00019310:    6860        `h      LDR      r0,[r4,#4]
        0x00019312:    f002fe4d    ..M.    BL       am_hal_mspi_disable ; 0x1bfb0
        0x00019316:    4605        .F      MOV      r5,r0
        0x00019318:    b10d        ..      CBZ      r5,0x1931e ; am_devices_mspi_ds35x1ga_deinit + 82
        0x0001931a:    2001        .       MOVS     r0,#1
        0x0001931c:    e7df        ..      B        0x192de ; am_devices_mspi_ds35x1ga_deinit + 18
        0x0001931e:    2200        ."      MOVS     r2,#0
        0x00019320:    2102        .!      MOVS     r1,#2
        0x00019322:    6860        `h      LDR      r0,[r4,#4]
        0x00019324:    f003f9ae    ....    BL       am_hal_mspi_power_control ; 0x1c684
        0x00019328:    b120         .      CBZ      r0,0x19334 ; am_devices_mspi_ds35x1ga_deinit + 104
        0x0001932a:    a008        ..      ADR      r0,{pc}+0x22 ; 0x1934c
        0x0001932c:    f004fb50    ..P.    BL       am_util_stdio_printf ; 0x1d9d0
        0x00019330:    2001        .       MOVS     r0,#1
        0x00019332:    e7d4        ..      B        0x192de ; am_devices_mspi_ds35x1ga_deinit + 18
        0x00019334:    6860        `h      LDR      r0,[r4,#4]
        0x00019336:    f002fcd7    ....    BL       am_hal_mspi_deinitialize ; 0x1bce8
        0x0001933a:    4605        .F      MOV      r5,r0
        0x0001933c:    b10d        ..      CBZ      r5,0x19342 ; am_devices_mspi_ds35x1ga_deinit + 118
        0x0001933e:    2001        .       MOVS     r0,#1
        0x00019340:    e7cd        ..      B        0x192de ; am_devices_mspi_ds35x1ga_deinit + 18
        0x00019342:    2000        .       MOVS     r0,#0
        0x00019344:    f8840034    ..4.    STRB     r0,[r4,#0x34]
        0x00019348:    bf00        ..      NOP      
        0x0001934a:    e7c8        ..      B        0x192de ; am_devices_mspi_ds35x1ga_deinit + 18
    $d
        0x0001934c:    6f727245    Erro    DCD    1869771333
        0x00019350:    202d2072    r -     DCD    539828338
        0x00019354:    6c696146    Fail    DCD    1818845510
        0x00019358:    74206465    ed t    DCD    1948279909
        0x0001935c:    6f70206f    o po    DCD    1869619311
        0x00019360:    20726577    wer     DCD    544367991
        0x00019364:    4d206e6f    on M    DCD    1293971055
        0x00019368:    2e495053    SPI.    DCD    776556627
        0x0001936c:    0000000a    ....    DCD    10
    $t
    i.am_devices_mspi_ds35x1ga_enter_command_mode
    am_devices_mspi_ds35x1ga_enter_command_mode
        0x00019370:    b570        p.      PUSH     {r4-r6,lr}
        0x00019372:    4605        .F      MOV      r5,r0
        0x00019374:    462c        ,F      MOV      r4,r5
        0x00019376:    7c21        !|      LDRB     r1,[r4,#0x10]
        0x00019378:    2026        &       MOVS     r0,#0x26
        0x0001937a:    5d00        .]      LDRB     r0,[r0,r4]
        0x0001937c:    4281        .B      CMP      r1,r0
        0x0001937e:    d104        ..      BNE      0x1938a ; am_devices_mspi_ds35x1ga_enter_command_mode + 26
        0x00019380:    7ce1        .|      LDRB     r1,[r4,#0x13]
        0x00019382:    2029        )       MOVS     r0,#0x29
        0x00019384:    5d00        .]      LDRB     r0,[r0,r4]
        0x00019386:    4281        .B      CMP      r1,r0
        0x00019388:    d005        ..      BEQ      0x19396 ; am_devices_mspi_ds35x1ga_enter_command_mode + 38
        0x0001938a:    f104011e    ....    ADD      r1,r4,#0x1e
        0x0001938e:    4620         F      MOV      r0,r4
        0x00019390:    f7fffe02    ....    BL       am_devices_mspi_device_reconfigure ; 0x18f98
        0x00019394:    bd70        p.      POP      {r4-r6,pc}
        0x00019396:    2000        .       MOVS     r0,#0
        0x00019398:    e7fc        ..      B        0x19394 ; am_devices_mspi_ds35x1ga_enter_command_mode + 36
    i.am_devices_mspi_ds35x1ga_exit_command_mode
    am_devices_mspi_ds35x1ga_exit_command_mode
        0x0001939a:    b570        p.      PUSH     {r4-r6,lr}
        0x0001939c:    4605        .F      MOV      r5,r0
        0x0001939e:    462c        ,F      MOV      r4,r5
        0x000193a0:    7c21        !|      LDRB     r1,[r4,#0x10]
        0x000193a2:    2026        &       MOVS     r0,#0x26
        0x000193a4:    5d00        .]      LDRB     r0,[r0,r4]
        0x000193a6:    4281        .B      CMP      r1,r0
        0x000193a8:    d104        ..      BNE      0x193b4 ; am_devices_mspi_ds35x1ga_exit_command_mode + 26
        0x000193aa:    7ce1        .|      LDRB     r1,[r4,#0x13]
        0x000193ac:    2029        )       MOVS     r0,#0x29
        0x000193ae:    5d00        .]      LDRB     r0,[r0,r4]
        0x000193b0:    4281        .B      CMP      r1,r0
        0x000193b2:    d005        ..      BEQ      0x193c0 ; am_devices_mspi_ds35x1ga_exit_command_mode + 38
        0x000193b4:    f1040108    ....    ADD      r1,r4,#8
        0x000193b8:    4620         F      MOV      r0,r4
        0x000193ba:    f7fffded    ....    BL       am_devices_mspi_device_reconfigure ; 0x18f98
        0x000193be:    bd70        p.      POP      {r4-r6,pc}
        0x000193c0:    2000        .       MOVS     r0,#0
        0x000193c2:    e7fc        ..      B        0x193be ; am_devices_mspi_ds35x1ga_exit_command_mode + 36
    i.am_devices_mspi_ds35x1ga_id
    am_devices_mspi_ds35x1ga_id
        0x000193c4:    b5fe        ..      PUSH     {r1-r7,lr}
        0x000193c6:    4605        .F      MOV      r5,r0
        0x000193c8:    460c        .F      MOV      r4,r1
        0x000193ca:    4628        (F      MOV      r0,r5
        0x000193cc:    f7ffffd0    ....    BL       am_devices_mspi_ds35x1ga_enter_command_mode ; 0x19370
        0x000193d0:    2003        .       MOVS     r0,#3
        0x000193d2:    a902        ..      ADD      r1,sp,#8
        0x000193d4:    2300        .#      MOVS     r3,#0
        0x000193d6:    461a        .F      MOV      r2,r3
        0x000193d8:    e9cd1000    ....    STRD     r1,r0,[sp,#0]
        0x000193dc:    219f        .!      MOVS     r1,#0x9f
        0x000193de:    4628        (F      MOV      r0,r5
        0x000193e0:    f7fffebc    ....    BL       am_devices_mspi_ds35x1ga_command_read ; 0x1915c
        0x000193e4:    4606        .F      MOV      r6,r0
        0x000193e6:    f89d000a    ....    LDRB     r0,[sp,#0xa]
        0x000193ea:    f89d1009    ....    LDRB     r1,[sp,#9]
        0x000193ee:    ea402001    @..     ORR      r0,r0,r1,LSL #8
        0x000193f2:    6020         `      STR      r0,[r4,#0]
        0x000193f4:    8820         .      LDRH     r0,[r4,#0]
        0x000193f6:    f400407f    ...@    AND      r0,r0,#0xff00
        0x000193fa:    f5b04f65    ..eO    CMP      r0,#0xe500
        0x000193fe:    d105        ..      BNE      0x1940c ; am_devices_mspi_ds35x1ga_id + 72
        0x00019400:    b926        &.      CBNZ     r6,0x1940c ; am_devices_mspi_ds35x1ga_id + 72
        0x00019402:    4628        (F      MOV      r0,r5
        0x00019404:    f7ffffc9    ....    BL       am_devices_mspi_ds35x1ga_exit_command_mode ; 0x1939a
        0x00019408:    2000        .       MOVS     r0,#0
        0x0001940a:    bdfe        ..      POP      {r1-r7,pc}
        0x0001940c:    4628        (F      MOV      r0,r5
        0x0001940e:    f7ffffc4    ....    BL       am_devices_mspi_ds35x1ga_exit_command_mode ; 0x1939a
        0x00019412:    2001        .       MOVS     r0,#1
        0x00019414:    e7f9        ..      B        0x1940a ; am_devices_mspi_ds35x1ga_id + 70
        0x00019416:    0000        ..      MOVS     r0,r0
    i.am_devices_mspi_ds35x1ga_init
    am_devices_mspi_ds35x1ga_init
        0x00019418:    e92d5fff    -.._    PUSH     {r0-r12,lr}
        0x0001941c:    4681        .F      MOV      r9,r0
        0x0001941e:    460d        .F      MOV      r5,r1
        0x00019420:    4692        .F      MOV      r10,r2
        0x00019422:    469b        .F      MOV      r11,r3
        0x00019424:    2400        .$      MOVS     r4,#0
        0x00019426:    f1b90f03    ....    CMP      r9,#3
        0x0001942a:    d200        ..      BCS      0x1942e ; am_devices_mspi_ds35x1ga_init + 22
        0x0001942c:    b91d        ..      CBNZ     r5,0x19436 ; am_devices_mspi_ds35x1ga_init + 30
        0x0001942e:    2001        .       MOVS     r0,#1
        0x00019430:    b004        ..      ADD      sp,sp,#0x10
        0x00019432:    e8bd9ff0    ....    POP      {r4-r12,pc}
        0x00019436:    2400        .$      MOVS     r4,#0
        0x00019438:    e00f        ..      B        0x1945a ; am_devices_mspi_ds35x1ga_init + 66
        0x0001943a:    ebc400c4    ....    RSB      r0,r4,r4,LSL #3
        0x0001943e:    49a3        .I      LDR      r1,[pc,#652] ; [0x196cc] = 0x1000207c
        0x00019440:    eb0100c0    ....    ADD      r0,r1,r0,LSL #3
        0x00019444:    f8900034    ..4.    LDRB     r0,[r0,#0x34]
        0x00019448:    b930        0.      CBNZ     r0,0x19458 ; am_devices_mspi_ds35x1ga_init + 64
        0x0001944a:    ebc400c4    ....    RSB      r0,r4,r4,LSL #3
        0x0001944e:    eb0100c0    ....    ADD      r0,r1,r0,LSL #3
        0x00019452:    f1000708    ....    ADD      r7,r0,#8
        0x00019456:    e002        ..      B        0x1945e ; am_devices_mspi_ds35x1ga_init + 70
        0x00019458:    1c64        d.      ADDS     r4,r4,#1
        0x0001945a:    2c00        .,      CMP      r4,#0
        0x0001945c:    d0ed        ..      BEQ      0x1943a ; am_devices_mspi_ds35x1ga_init + 34
        0x0001945e:    bf00        ..      NOP      
        0x00019460:    2c01        .,      CMP      r4,#1
        0x00019462:    d101        ..      BNE      0x19468 ; am_devices_mspi_ds35x1ga_init + 80
        0x00019464:    2001        .       MOVS     r0,#1
        0x00019466:    e7e3        ..      B        0x19430 ; am_devices_mspi_ds35x1ga_init + 24
        0x00019468:    f04f0800    O...    MOV      r8,#0
        0x0001946c:    e012        ..      B        0x19494 ; am_devices_mspi_ds35x1ga_init + 124
        0x0001946e:    7828        (x      LDRB     r0,[r5,#0]
        0x00019470:    4997        .I      LDR      r1,[pc,#604] ; [0x196d0] = 0x10000080
        0x00019472:    f8111038    ..8.    LDRB     r1,[r1,r8,LSL #3]
        0x00019476:    4288        .B      CMP      r0,r1
        0x00019478:    d10a        ..      BNE      0x19490 ; am_devices_mspi_ds35x1ga_init + 120
        0x0001947a:    4895        .H      LDR      r0,[pc,#596] ; [0x196d0] = 0x10000080
        0x0001947c:    eb0000c8    ....    ADD      r0,r0,r8,LSL #3
        0x00019480:    2216        ."      MOVS     r2,#0x16
        0x00019482:    6841        Ah      LDR      r1,[r0,#4]
        0x00019484:    4638        8F      MOV      r0,r7
        0x00019486:    f7feffd3    ....    BL       __aeabi_memcpy ; 0x18430
        0x0001948a:    7868        hx      LDRB     r0,[r5,#1]
        0x0001948c:    72f8        .r      STRB     r0,[r7,#0xb]
        0x0001948e:    e004        ..      B        0x1949a ; am_devices_mspi_ds35x1ga_init + 130
        0x00019490:    f1080801    ....    ADD      r8,r8,#1
        0x00019494:    f1b80f04    ....    CMP      r8,#4
        0x00019498:    d3e9        ..      BCC      0x1946e ; am_devices_mspi_ds35x1ga_init + 86
        0x0001949a:    bf00        ..      NOP      
        0x0001949c:    f001fa7a    ..z.    BL       am_hal_fault_capture_enable ; 0x1a994
        0x000194a0:    7a38        8z      LDRB     r0,[r7,#8]
        0x000194a2:    b130        0.      CBZ      r0,0x194b2 ; am_devices_mspi_ds35x1ga_init + 154
        0x000194a4:    2801        .(      CMP      r0,#1
        0x000194a6:    d050        P.      BEQ      0x1954a ; am_devices_mspi_ds35x1ga_init + 306
        0x000194a8:    2810        .(      CMP      r0,#0x10
        0x000194aa:    d003        ..      BEQ      0x194b4 ; am_devices_mspi_ds35x1ga_init + 156
        0x000194ac:    2811        .(      CMP      r0,#0x11
        0x000194ae:    d17c        |.      BNE      0x195aa ; am_devices_mspi_ds35x1ga_init + 402
        0x000194b0:    e04c        L.      B        0x1954c ; am_devices_mspi_ds35x1ga_init + 308
        0x000194b2:    bf00        ..      NOP      
        0x000194b4:    ebc401c4    ....    RSB      r1,r4,r4,LSL #3
        0x000194b8:    4a84        .J      LDR      r2,[pc,#528] ; [0x196cc] = 0x1000207c
        0x000194ba:    eb0201c1    ....    ADD      r1,r2,r1,LSL #3
        0x000194be:    f101001e    ....    ADD      r0,r1,#0x1e
        0x000194c2:    2216        ."      MOVS     r2,#0x16
        0x000194c4:    4983        .I      LDR      r1,[pc,#524] ; [0x196d4] = 0x10000028
        0x000194c6:    f7feffb3    ....    BL       __aeabi_memcpy ; 0x18430
        0x000194ca:    a903        ..      ADD      r1,sp,#0xc
        0x000194cc:    4648        HF      MOV      r0,r9
        0x000194ce:    f002fe19    ....    BL       am_hal_mspi_initialize ; 0x1c104
        0x000194d2:    b120         .      CBZ      r0,0x194de ; am_devices_mspi_ds35x1ga_init + 198
        0x000194d4:    a080        ..      ADR      r0,{pc}+0x204 ; 0x196d8
        0x000194d6:    f004fa7b    ..{.    BL       am_util_stdio_printf ; 0x1d9d0
        0x000194da:    2001        .       MOVS     r0,#1
        0x000194dc:    e7a8        ..      B        0x19430 ; am_devices_mspi_ds35x1ga_init + 24
        0x000194de:    2200        ."      MOVS     r2,#0
        0x000194e0:    4611        .F      MOV      r1,r2
        0x000194e2:    9803        ..      LDR      r0,[sp,#0xc]
        0x000194e4:    f003f8ce    ....    BL       am_hal_mspi_power_control ; 0x1c684
        0x000194e8:    b120         .      CBZ      r0,0x194f4 ; am_devices_mspi_ds35x1ga_init + 220
        0x000194ea:    a084        ..      ADR      r0,{pc}+0x212 ; 0x196fc
        0x000194ec:    f004fa70    ..p.    BL       am_util_stdio_printf ; 0x1d9d0
        0x000194f0:    2001        .       MOVS     r0,#1
        0x000194f2:    e79d        ..      B        0x19430 ; am_devices_mspi_ds35x1ga_init + 24
        0x000194f4:    4a8a        .J      LDR      r2,[pc,#552] ; [0x19720] = 0x10002070
        0x000194f6:    ca07        ..      LDM      r2,{r0-r2}
        0x000194f8:    e88d0007    ....    STM      sp,{r0-r2}
        0x000194fc:    68a8        .h      LDR      r0,[r5,#8]
        0x000194fe:    9000        ..      STR      r0,[sp,#0]
        0x00019500:    6868        hh      LDR      r0,[r5,#4]
        0x00019502:    9001        ..      STR      r0,[sp,#4]
        0x00019504:    4669        iF      MOV      r1,sp
        0x00019506:    9803        ..      LDR      r0,[sp,#0xc]
        0x00019508:    f001fcfe    ....    BL       am_hal_mspi_configure ; 0x1af08
        0x0001950c:    b120         .      CBZ      r0,0x19518 ; am_devices_mspi_ds35x1ga_init + 256
        0x0001950e:    a085        ..      ADR      r0,{pc}+0x216 ; 0x19724
        0x00019510:    f004fa5e    ..^.    BL       am_util_stdio_printf ; 0x1d9d0
        0x00019514:    2001        .       MOVS     r0,#1
        0x00019516:    e78b        ..      B        0x19430 ; am_devices_mspi_ds35x1ga_init + 24
        0x00019518:    496e        nI      LDR      r1,[pc,#440] ; [0x196d4] = 0x10000028
        0x0001951a:    9803        ..      LDR      r0,[sp,#0xc]
        0x0001951c:    f002fc3c    ..<.    BL       am_hal_mspi_device_configure ; 0x1bd98
        0x00019520:    b120         .      CBZ      r0,0x1952c ; am_devices_mspi_ds35x1ga_init + 276
        0x00019522:    a08b        ..      ADR      r0,{pc}+0x22e ; 0x19750
        0x00019524:    f004fa54    ..T.    BL       am_util_stdio_printf ; 0x1d9d0
        0x00019528:    2001        .       MOVS     r0,#1
        0x0001952a:    e781        ..      B        0x19430 ; am_devices_mspi_ds35x1ga_init + 24
        0x0001952c:    9803        ..      LDR      r0,[sp,#0xc]
        0x0001952e:    f002fd8f    ....    BL       am_hal_mspi_enable ; 0x1c050
        0x00019532:    b120         .      CBZ      r0,0x1953e ; am_devices_mspi_ds35x1ga_init + 294
        0x00019534:    a08f        ..      ADR      r0,{pc}+0x240 ; 0x19774
        0x00019536:    f004fa4b    ..K.    BL       am_util_stdio_printf ; 0x1d9d0
        0x0001953a:    2001        .       MOVS     r0,#1
        0x0001953c:    e778        x.      B        0x19430 ; am_devices_mspi_ds35x1ga_init + 24
        0x0001953e:    4865        eH      LDR      r0,[pc,#404] ; [0x196d4] = 0x10000028
        0x00019540:    7a01        .z      LDRB     r1,[r0,#8]
        0x00019542:    4648        HF      MOV      r0,r9
        0x00019544:    f7fff89c    ....    BL       am_bsp_mspi_pins_enable ; 0x18680
        0x00019548:    e04f        O.      B        0x195ea ; am_devices_mspi_ds35x1ga_init + 466
        0x0001954a:    bf00        ..      NOP      
        0x0001954c:    ebc401c4    ....    RSB      r1,r4,r4,LSL #3
        0x00019550:    4a5e        ^J      LDR      r2,[pc,#376] ; [0x196cc] = 0x1000207c
        0x00019552:    eb0201c1    ....    ADD      r1,r2,r1,LSL #3
        0x00019556:    f101001e    ....    ADD      r0,r1,#0x1e
        0x0001955a:    2216        ."      MOVS     r2,#0x16
        0x0001955c:    498d        .I      LDR      r1,[pc,#564] ; [0x19794] = 0x1000003e
        0x0001955e:    f7feff67    ..g.    BL       __aeabi_memcpy ; 0x18430
        0x00019562:    a903        ..      ADD      r1,sp,#0xc
        0x00019564:    4648        HF      MOV      r0,r9
        0x00019566:    f002fdcd    ....    BL       am_hal_mspi_initialize ; 0x1c104
        0x0001956a:    b120         .      CBZ      r0,0x19576 ; am_devices_mspi_ds35x1ga_init + 350
        0x0001956c:    a05a        Z.      ADR      r0,{pc}+0x16c ; 0x196d8
        0x0001956e:    f004fa2f    ../.    BL       am_util_stdio_printf ; 0x1d9d0
        0x00019572:    2001        .       MOVS     r0,#1
        0x00019574:    e75c        \.      B        0x19430 ; am_devices_mspi_ds35x1ga_init + 24
        0x00019576:    2200        ."      MOVS     r2,#0
        0x00019578:    4611        .F      MOV      r1,r2
        0x0001957a:    9803        ..      LDR      r0,[sp,#0xc]
        0x0001957c:    f003f882    ....    BL       am_hal_mspi_power_control ; 0x1c684
        0x00019580:    b120         .      CBZ      r0,0x1958c ; am_devices_mspi_ds35x1ga_init + 372
        0x00019582:    a05e        ^.      ADR      r0,{pc}+0x17a ; 0x196fc
        0x00019584:    f004fa24    ..$.    BL       am_util_stdio_printf ; 0x1d9d0
        0x00019588:    2001        .       MOVS     r0,#1
        0x0001958a:    e751        Q.      B        0x19430 ; am_devices_mspi_ds35x1ga_init + 24
        0x0001958c:    4a64        dJ      LDR      r2,[pc,#400] ; [0x19720] = 0x10002070
        0x0001958e:    ca07        ..      LDM      r2,{r0-r2}
        0x00019590:    e88d0007    ....    STM      sp,{r0-r2}
        0x00019594:    68a8        .h      LDR      r0,[r5,#8]
        0x00019596:    9000        ..      STR      r0,[sp,#0]
        0x00019598:    6868        hh      LDR      r0,[r5,#4]
        0x0001959a:    9001        ..      STR      r0,[sp,#4]
        0x0001959c:    4669        iF      MOV      r1,sp
        0x0001959e:    9803        ..      LDR      r0,[sp,#0xc]
        0x000195a0:    f001fcb2    ....    BL       am_hal_mspi_configure ; 0x1af08
        0x000195a4:    b130        0.      CBZ      r0,0x195b4 ; am_devices_mspi_ds35x1ga_init + 412
        0x000195a6:    a05f        _.      ADR      r0,{pc}+0x17e ; 0x19724
        0x000195a8:    e000        ..      B        0x195ac ; am_devices_mspi_ds35x1ga_init + 404
        0x000195aa:    e01c        ..      B        0x195e6 ; am_devices_mspi_ds35x1ga_init + 462
        0x000195ac:    f004fa10    ....    BL       am_util_stdio_printf ; 0x1d9d0
        0x000195b0:    2001        .       MOVS     r0,#1
        0x000195b2:    e73d        =.      B        0x19430 ; am_devices_mspi_ds35x1ga_init + 24
        0x000195b4:    4977        wI      LDR      r1,[pc,#476] ; [0x19794] = 0x1000003e
        0x000195b6:    9803        ..      LDR      r0,[sp,#0xc]
        0x000195b8:    f002fbee    ....    BL       am_hal_mspi_device_configure ; 0x1bd98
        0x000195bc:    b120         .      CBZ      r0,0x195c8 ; am_devices_mspi_ds35x1ga_init + 432
        0x000195be:    a064        d.      ADR      r0,{pc}+0x192 ; 0x19750
        0x000195c0:    f004fa06    ....    BL       am_util_stdio_printf ; 0x1d9d0
        0x000195c4:    2001        .       MOVS     r0,#1
        0x000195c6:    e733        3.      B        0x19430 ; am_devices_mspi_ds35x1ga_init + 24
        0x000195c8:    9803        ..      LDR      r0,[sp,#0xc]
        0x000195ca:    f002fd41    ..A.    BL       am_hal_mspi_enable ; 0x1c050
        0x000195ce:    b120         .      CBZ      r0,0x195da ; am_devices_mspi_ds35x1ga_init + 450
        0x000195d0:    a068        h.      ADR      r0,{pc}+0x1a4 ; 0x19774
        0x000195d2:    f004f9fd    ....    BL       am_util_stdio_printf ; 0x1d9d0
        0x000195d6:    2001        .       MOVS     r0,#1
        0x000195d8:    e72a        *.      B        0x19430 ; am_devices_mspi_ds35x1ga_init + 24
        0x000195da:    486e        nH      LDR      r0,[pc,#440] ; [0x19794] = 0x1000003e
        0x000195dc:    7a01        .z      LDRB     r1,[r0,#8]
        0x000195de:    4648        HF      MOV      r0,r9
        0x000195e0:    f7fff84e    ..N.    BL       am_bsp_mspi_pins_enable ; 0x18680
        0x000195e4:    e001        ..      B        0x195ea ; am_devices_mspi_ds35x1ga_init + 466
        0x000195e6:    2001        .       MOVS     r0,#1
        0x000195e8:    e722        ".      B        0x19430 ; am_devices_mspi_ds35x1ga_init + 24
        0x000195ea:    bf00        ..      NOP      
        0x000195ec:    ebc401c4    ....    RSB      r1,r4,r4,LSL #3
        0x000195f0:    4a36        6J      LDR      r2,[pc,#216] ; [0x196cc] = 0x1000207c
        0x000195f2:    eb0201c1    ....    ADD      r1,r2,r1,LSL #3
        0x000195f6:    9803        ..      LDR      r0,[sp,#0xc]
        0x000195f8:    6048        H`      STR      r0,[r1,#4]
        0x000195fa:    ebc400c4    ....    RSB      r0,r4,r4,LSL #3
        0x000195fe:    4611        .F      MOV      r1,r2
        0x00019600:    f8419030    A.0.    STR      r9,[r1,r0,LSL #3]
        0x00019604:    ebc401c4    ....    RSB      r1,r4,r4,LSL #3
        0x00019608:    eb0200c1    ....    ADD      r0,r2,r1,LSL #3
        0x0001960c:    f000f9de    ....    BL       am_devices_mspi_ds35x1ga_reset ; 0x199cc
        0x00019610:    b120         .      CBZ      r0,0x1961c ; am_devices_mspi_ds35x1ga_init + 516
        0x00019612:    a061        a.      ADR      r0,{pc}+0x186 ; 0x19798
        0x00019614:    f004f9dc    ....    BL       am_util_stdio_printf ; 0x1d9d0
        0x00019618:    2001        .       MOVS     r0,#1
        0x0001961a:    e709        ..      B        0x19430 ; am_devices_mspi_ds35x1ga_init + 24
        0x0001961c:    ebc401c4    ....    RSB      r1,r4,r4,LSL #3
        0x00019620:    4a2a        *J      LDR      r2,[pc,#168] ; [0x196cc] = 0x1000207c
        0x00019622:    eb0200c1    ....    ADD      r0,r2,r1,LSL #3
        0x00019626:    f7fffc85    ....    BL       am_device_init_flash ; 0x18f34
        0x0001962a:    4606        .F      MOV      r6,r0
        0x0001962c:    b126        &.      CBZ      r6,0x19638 ; am_devices_mspi_ds35x1ga_init + 544
        0x0001962e:    a063        c.      ADR      r0,{pc}+0x18e ; 0x197bc
        0x00019630:    f004f9ce    ....    BL       am_util_stdio_printf ; 0x1d9d0
        0x00019634:    2001        .       MOVS     r0,#1
        0x00019636:    e6fb        ..      B        0x19430 ; am_devices_mspi_ds35x1ga_init + 24
        0x00019638:    9803        ..      LDR      r0,[sp,#0xc]
        0x0001963a:    f002fcb9    ....    BL       am_hal_mspi_disable ; 0x1bfb0
        0x0001963e:    4606        .F      MOV      r6,r0
        0x00019640:    b126        &.      CBZ      r6,0x1964c ; am_devices_mspi_ds35x1ga_init + 564
        0x00019642:    a06b        k.      ADR      r0,{pc}+0x1ae ; 0x197f0
        0x00019644:    f004f9c4    ....    BL       am_util_stdio_printf ; 0x1d9d0
        0x00019648:    2001        .       MOVS     r0,#1
        0x0001964a:    e6f1        ..      B        0x19430 ; am_devices_mspi_ds35x1ga_init + 24
        0x0001964c:    4639        9F      MOV      r1,r7
        0x0001964e:    9803        ..      LDR      r0,[sp,#0xc]
        0x00019650:    f002fba2    ....    BL       am_hal_mspi_device_configure ; 0x1bd98
        0x00019654:    4606        .F      MOV      r6,r0
        0x00019656:    b126        &.      CBZ      r6,0x19662 ; am_devices_mspi_ds35x1ga_init + 586
        0x00019658:    a06d        m.      ADR      r0,{pc}+0x1b8 ; 0x19810
        0x0001965a:    f004f9b9    ....    BL       am_util_stdio_printf ; 0x1d9d0
        0x0001965e:    2001        .       MOVS     r0,#1
        0x00019660:    e6e6        ..      B        0x19430 ; am_devices_mspi_ds35x1ga_init + 24
        0x00019662:    9803        ..      LDR      r0,[sp,#0xc]
        0x00019664:    f002fcf4    ....    BL       am_hal_mspi_enable ; 0x1c050
        0x00019668:    4606        .F      MOV      r6,r0
        0x0001966a:    b126        &.      CBZ      r6,0x19676 ; am_devices_mspi_ds35x1ga_init + 606
        0x0001966c:    a068        h.      ADR      r0,{pc}+0x1a4 ; 0x19810
        0x0001966e:    f004f9af    ....    BL       am_util_stdio_printf ; 0x1d9d0
        0x00019672:    2001        .       MOVS     r0,#1
        0x00019674:    e6dc        ..      B        0x19430 ; am_devices_mspi_ds35x1ga_init + 24
        0x00019676:    7a39        9z      LDRB     r1,[r7,#8]
        0x00019678:    4648        HF      MOV      r0,r9
        0x0001967a:    f7fff801    ....    BL       am_bsp_mspi_pins_enable ; 0x18680
        0x0001967e:    f44f51d4    O..Q    MOV      r1,#0x1a80
        0x00019682:    9803        ..      LDR      r0,[sp,#0xc]
        0x00019684:    f002fd68    ..h.    BL       am_hal_mspi_interrupt_clear ; 0x1c158
        0x00019688:    4606        .F      MOV      r6,r0
        0x0001968a:    b10e        ..      CBZ      r6,0x19690 ; am_devices_mspi_ds35x1ga_init + 632
        0x0001968c:    2001        .       MOVS     r0,#1
        0x0001968e:    e6cf        ..      B        0x19430 ; am_devices_mspi_ds35x1ga_init + 24
        0x00019690:    f44f51d4    O..Q    MOV      r1,#0x1a80
        0x00019694:    9803        ..      LDR      r0,[sp,#0xc]
        0x00019696:    f002fd97    ....    BL       am_hal_mspi_interrupt_enable ; 0x1c1c8
        0x0001969a:    4606        .F      MOV      r6,r0
        0x0001969c:    b10e        ..      CBZ      r6,0x196a2 ; am_devices_mspi_ds35x1ga_init + 650
        0x0001969e:    2001        .       MOVS     r0,#1
        0x000196a0:    e6c6        ..      B        0x19430 ; am_devices_mspi_ds35x1ga_init + 24
        0x000196a2:    2001        .       MOVS     r0,#1
        0x000196a4:    ebc401c4    ....    RSB      r1,r4,r4,LSL #3
        0x000196a8:    4a08        .J      LDR      r2,[pc,#32] ; [0x196cc] = 0x1000207c
        0x000196aa:    eb0201c1    ....    ADD      r1,r2,r1,LSL #3
        0x000196ae:    f8810034    ..4.    STRB     r0,[r1,#0x34]
        0x000196b2:    9803        ..      LDR      r0,[sp,#0xc]
        0x000196b4:    f8cb0000    ....    STR      r0,[r11,#0]
        0x000196b8:    ebc400c4    ....    RSB      r0,r4,r4,LSL #3
        0x000196bc:    4611        .F      MOV      r1,r2
        0x000196be:    eb0100c0    ....    ADD      r0,r1,r0,LSL #3
        0x000196c2:    f8ca0000    ....    STR      r0,[r10,#0]
        0x000196c6:    2000        .       MOVS     r0,#0
        0x000196c8:    e6b2        ..      B        0x19430 ; am_devices_mspi_ds35x1ga_init + 24
    $d
        0x000196ca:    0000        ..      DCW    0
        0x000196cc:    1000207c    | ..    DCD    268443772
        0x000196d0:    10000080    ....    DCD    268435584
        0x000196d4:    10000028    (...    DCD    268435496
        0x000196d8:    6f727245    Erro    DCD    1869771333
        0x000196dc:    202d2072    r -     DCD    539828338
        0x000196e0:    6c696146    Fail    DCD    1818845510
        0x000196e4:    74206465    ed t    DCD    1948279909
        0x000196e8:    6e69206f    o in    DCD    1852383343
        0x000196ec:    61697469    itia    DCD    1634301033
        0x000196f0:    657a696c    lize    DCD    1702521196
        0x000196f4:    50534d20     MSP    DCD    1347636512
        0x000196f8:    000a2e49    I...    DCD    667209
        0x000196fc:    6f727245    Erro    DCD    1869771333
        0x00019700:    202d2072    r -     DCD    539828338
        0x00019704:    6c696146    Fail    DCD    1818845510
        0x00019708:    74206465    ed t    DCD    1948279909
        0x0001970c:    6f70206f    o po    DCD    1869619311
        0x00019710:    20726577    wer     DCD    544367991
        0x00019714:    4d206e6f    on M    DCD    1293971055
        0x00019718:    2e495053    SPI.    DCD    776556627
        0x0001971c:    0000000a    ....    DCD    10
        0x00019720:    10002070    p ..    DCD    268443760
        0x00019724:    6f727245    Erro    DCD    1869771333
        0x00019728:    202d2072    r -     DCD    539828338
        0x0001972c:    6c696146    Fail    DCD    1818845510
        0x00019730:    74206465    ed t    DCD    1948279909
        0x00019734:    6f63206f    o co    DCD    1868767343
        0x00019738:    6769666e    nfig    DCD    1734960750
        0x0001973c:    20657275    ure     DCD    543519349
        0x00019740:    4950534d    MSPI    DCD    1230000973
        0x00019744:    76656420     dev    DCD    1986356256
        0x00019748:    2e656369    ice.    DCD    778396521
        0x0001974c:    0000000a    ....    DCD    10
        0x00019750:    6f727245    Erro    DCD    1869771333
        0x00019754:    202d2072    r -     DCD    539828338
        0x00019758:    6c696146    Fail    DCD    1818845510
        0x0001975c:    74206465    ed t    DCD    1948279909
        0x00019760:    6f63206f    o co    DCD    1868767343
        0x00019764:    6769666e    nfig    DCD    1734960750
        0x00019768:    20657275    ure     DCD    543519349
        0x0001976c:    4950534d    MSPI    DCD    1230000973
        0x00019770:    00000a2e    ....    DCD    2606
        0x00019774:    6f727245    Erro    DCD    1869771333
        0x00019778:    202d2072    r -     DCD    539828338
        0x0001977c:    6c696146    Fail    DCD    1818845510
        0x00019780:    74206465    ed t    DCD    1948279909
        0x00019784:    6e65206f    o en    DCD    1852121199
        0x00019788:    656c6261    able    DCD    1701601889
        0x0001978c:    50534d20     MSP    DCD    1347636512
        0x00019790:    000a2e49    I...    DCD    667209
        0x00019794:    1000003e    >...    DCD    268435518
        0x00019798:    6f727245    Erro    DCD    1869771333
        0x0001979c:    202d2072    r -     DCD    539828338
        0x000197a0:    6c696146    Fail    DCD    1818845510
        0x000197a4:    74206465    ed t    DCD    1948279909
        0x000197a8:    6572206f    o re    DCD    1701978223
        0x000197ac:    20746573    set     DCD    544499059
        0x000197b0:    34337364    ds34    DCD    875787108
        0x000197b4:    61673178    x1ga    DCD    1634152824
        0x000197b8:    00000a2e    ....    DCD    2606
        0x000197bc:    6f727245    Erro    DCD    1869771333
        0x000197c0:    202d2072    r -     DCD    539828338
        0x000197c4:    6c696146    Fail    DCD    1818845510
        0x000197c8:    74206465    ed t    DCD    1948279909
        0x000197cc:    6e69206f    o in    DCD    1852383343
        0x000197d0:    61697469    itia    DCD    1634301033
        0x000197d4:    657a696c    lize    DCD    1702521196
        0x000197d8:    6e616e20     nan    DCD    1851878944
        0x000197dc:    6c662064    d fl    DCD    1818632292
        0x000197e0:    20687361    ash     DCD    543716193
        0x000197e4:    34337364    ds34    DCD    875787108
        0x000197e8:    61673178    x1ga    DCD    1634152824
        0x000197ec:    00000a2e    ....    DCD    2606
        0x000197f0:    6f727245    Erro    DCD    1869771333
        0x000197f4:    202d2072    r -     DCD    539828338
        0x000197f8:    6c696146    Fail    DCD    1818845510
        0x000197fc:    74206465    ed t    DCD    1948279909
        0x00019800:    6964206f    o di    DCD    1768169583
        0x00019804:    656c6273    sble    DCD    1701601907
        0x00019808:    70736d20     msp    DCD    1886612768
        0x0001980c:    000a2e69    i...    DCD    667241
        0x00019810:    6f727245    Erro    DCD    1869771333
        0x00019814:    202d2072    r -     DCD    539828338
        0x00019818:    6c696146    Fail    DCD    1818845510
        0x0001981c:    74206465    ed t    DCD    1948279909
        0x00019820:    6f63206f    o co    DCD    1868767343
        0x00019824:    6769666e    nfig    DCD    1734960750
        0x00019828:    20657275    ure     DCD    543519349
        0x0001982c:    6970736d    mspi    DCD    1768977261
        0x00019830:    00000a2e    ....    DCD    2606
    $t
    i.am_devices_mspi_ds35x1ga_read
    am_devices_mspi_ds35x1ga_read
        0x00019834:    e92d4ff0    -..O    PUSH     {r4-r11,lr}
        0x00019838:    b08b        ..      SUB      sp,sp,#0x2c
        0x0001983a:    4606        .F      MOV      r6,r0
        0x0001983c:    460d        .F      MOV      r5,r1
        0x0001983e:    4617        .F      MOV      r7,r2
        0x00019840:    4698        .F      MOV      r8,r3
        0x00019842:    f8ddb050    ..P.    LDR      r11,[sp,#0x50]
        0x00019846:    9c16        ..      LDR      r4,[sp,#0x58]
        0x00019848:    46b1        .F      MOV      r9,r6
        0x0001984a:    f5b53f80    ...?    CMP      r5,#0x10000
        0x0001984e:    d303        ..      BCC      0x19858 ; am_devices_mspi_ds35x1ga_read + 36
        0x00019850:    2001        .       MOVS     r0,#1
        0x00019852:    b00b        ..      ADD      sp,sp,#0x2c
        0x00019854:    e8bd8ff0    ....    POP      {r4-r11,pc}
        0x00019858:    4630        0F      MOV      r0,r6
        0x0001985a:    f7fffd89    ....    BL       am_devices_mspi_ds35x1ga_enter_command_mode ; 0x19370
        0x0001985e:    2000        .       MOVS     r0,#0
        0x00019860:    9000        ..      STR      r0,[sp,#0]
        0x00019862:    462b        +F      MOV      r3,r5
        0x00019864:    2201        ."      MOVS     r2,#1
        0x00019866:    2113        .!      MOVS     r1,#0x13
        0x00019868:    9001        ..      STR      r0,[sp,#4]
        0x0001986a:    4630        0F      MOV      r0,r6
        0x0001986c:    f7fffcc8    ....    BL       am_devices_mspi_ds35x1ga_command_write ; 0x19200
        0x00019870:    9004        ..      STR      r0,[sp,#0x10]
        0x00019872:    9804        ..      LDR      r0,[sp,#0x10]
        0x00019874:    b108        ..      CBZ      r0,0x1987a ; am_devices_mspi_ds35x1ga_read + 70
        0x00019876:    2001        .       MOVS     r0,#1
        0x00019878:    e7eb        ..      B        0x19852 ; am_devices_mspi_ds35x1ga_read + 30
        0x0001987a:    aa04        ..      ADD      r2,sp,#0x10
        0x0001987c:    21c0        .!      MOVS     r1,#0xc0
        0x0001987e:    4630        0F      MOV      r0,r6
        0x00019880:    f000f87a    ..z.    BL       am_devices_mspi_ds35x1ga_read_status ; 0x19978
        0x00019884:    b108        ..      CBZ      r0,0x1988a ; am_devices_mspi_ds35x1ga_read + 86
        0x00019886:    2001        .       MOVS     r0,#1
        0x00019888:    e7e3        ..      B        0x19852 ; am_devices_mspi_ds35x1ga_read + 30
        0x0001988a:    9804        ..      LDR      r0,[sp,#0x10]
        0x0001988c:    f0000030    ..0.    AND      r0,r0,#0x30
        0x00019890:    b130        0.      CBZ      r0,0x198a0 ; am_devices_mspi_ds35x1ga_read + 108
        0x00019892:    2810        .(      CMP      r0,#0x10
        0x00019894:    d007        ..      BEQ      0x198a6 ; am_devices_mspi_ds35x1ga_read + 114
        0x00019896:    2820         (      CMP      r0,#0x20
        0x00019898:    d009        ..      BEQ      0x198ae ; am_devices_mspi_ds35x1ga_read + 122
        0x0001989a:    2830        0(      CMP      r0,#0x30
        0x0001989c:    d10a        ..      BNE      0x198b4 ; am_devices_mspi_ds35x1ga_read + 128
        0x0001989e:    e003        ..      B        0x198a8 ; am_devices_mspi_ds35x1ga_read + 116
        0x000198a0:    2000        .       MOVS     r0,#0
        0x000198a2:    7020         p      STRB     r0,[r4,#0]
        0x000198a4:    e009        ..      B        0x198ba ; am_devices_mspi_ds35x1ga_read + 134
        0x000198a6:    bf00        ..      NOP      
        0x000198a8:    2001        .       MOVS     r0,#1
        0x000198aa:    7020         p      STRB     r0,[r4,#0]
        0x000198ac:    e005        ..      B        0x198ba ; am_devices_mspi_ds35x1ga_read + 134
        0x000198ae:    2002        .       MOVS     r0,#2
        0x000198b0:    7020         p      STRB     r0,[r4,#0]
        0x000198b2:    e002        ..      B        0x198ba ; am_devices_mspi_ds35x1ga_read + 134
        0x000198b4:    20ff        .       MOVS     r0,#0xff
        0x000198b6:    7020         p      STRB     r0,[r4,#0]
        0x000198b8:    bf00        ..      NOP      
        0x000198ba:    bf00        ..      NOP      
        0x000198bc:    4630        0F      MOV      r0,r6
        0x000198be:    f7fffd6c    ..l.    BL       am_devices_mspi_ds35x1ga_exit_command_mode ; 0x1939a
        0x000198c2:    4827        'H      LDR      r0,[pc,#156] ; [0x19960] = 0x100000a6
        0x000198c4:    7800        .x      LDRB     r0,[r0,#0]
        0x000198c6:    2801        .(      CMP      r0,#1
        0x000198c8:    d10a        ..      BNE      0x198e0 ; am_devices_mspi_ds35x1ga_read + 172
        0x000198ca:    4a26        &J      LDR      r2,[pc,#152] ; [0x19964] = 0x100000a7
        0x000198cc:    210d        .!      MOVS     r1,#0xd
        0x000198ce:    f8d90004    ....    LDR      r0,[r9,#4]
        0x000198d2:    f001fb8d    ....    BL       am_hal_mspi_control ; 0x1aff0
        0x000198d6:    9004        ..      STR      r0,[sp,#0x10]
        0x000198d8:    9804        ..      LDR      r0,[sp,#0x10]
        0x000198da:    b108        ..      CBZ      r0,0x198e0 ; am_devices_mspi_ds35x1ga_read + 172
        0x000198dc:    2001        .       MOVS     r0,#1
        0x000198de:    e7b8        ..      B        0x19852 ; am_devices_mspi_ds35x1ga_read + 30
        0x000198e0:    2001        .       MOVS     r0,#1
        0x000198e2:    f88d0014    ....    STRB     r0,[sp,#0x14]
        0x000198e6:    2000        .       MOVS     r0,#0
        0x000198e8:    f88d0015    ....    STRB     r0,[sp,#0x15]
        0x000198ec:    f44f6004    O..`    MOV      r0,#0x840
        0x000198f0:    9006        ..      STR      r0,[sp,#0x18]
        0x000198f2:    2000        .       MOVS     r0,#0
        0x000198f4:    9007        ..      STR      r0,[sp,#0x1c]
        0x000198f6:    481c        .H      LDR      r0,[pc,#112] ; [0x19968] = 0x10060040
        0x000198f8:    9008        ..      STR      r0,[sp,#0x20]
        0x000198fa:    2000        .       MOVS     r0,#0
        0x000198fc:    9009        ..      STR      r0,[sp,#0x24]
        0x000198fe:    900a        ..      STR      r0,[sp,#0x28]
        0x00019900:    9003        ..      STR      r0,[sp,#0xc]
        0x00019902:    a803        ..      ADD      r0,sp,#0xc
        0x00019904:    9000        ..      STR      r0,[sp,#0]
        0x00019906:    4b19        .K      LDR      r3,[pc,#100] ; [0x1996c] = 0x1f031
        0x00019908:    2201        ."      MOVS     r2,#1
        0x0001990a:    a905        ..      ADD      r1,sp,#0x14
        0x0001990c:    f8d90004    ....    LDR      r0,[r9,#4]
        0x00019910:    f002fdfa    ....    BL       am_hal_mspi_nonblocking_transfer ; 0x1c508
        0x00019914:    9004        ..      STR      r0,[sp,#0x10]
        0x00019916:    9804        ..      LDR      r0,[sp,#0x10]
        0x00019918:    b108        ..      CBZ      r0,0x1991e ; am_devices_mspi_ds35x1ga_read + 234
        0x0001991a:    2001        .       MOVS     r0,#1
        0x0001991c:    e799        ..      B        0x19852 ; am_devices_mspi_ds35x1ga_read + 30
        0x0001991e:    f04f0a00    O...    MOV      r10,#0
        0x00019922:    e008        ..      B        0x19936 ; am_devices_mspi_ds35x1ga_read + 258
        0x00019924:    f89d000c    ....    LDRB     r0,[sp,#0xc]
        0x00019928:    b100        ..      CBZ      r0,0x1992c ; am_devices_mspi_ds35x1ga_read + 248
        0x0001992a:    e007        ..      B        0x1993c ; am_devices_mspi_ds35x1ga_read + 264
        0x0001992c:    2001        .       MOVS     r0,#1
        0x0001992e:    f003fd2d    ..-.    BL       am_util_delay_us ; 0x1d38c
        0x00019932:    f10a0a01    ....    ADD      r10,r10,#1
        0x00019936:    480e        .H      LDR      r0,[pc,#56] ; [0x19970] = 0xf4240
        0x00019938:    4582        .E      CMP      r10,r0
        0x0001993a:    d3f3        ..      BCC      0x19924 ; am_devices_mspi_ds35x1ga_read + 240
        0x0001993c:    bf00        ..      NOP      
        0x0001993e:    f89d000c    ....    LDRB     r0,[sp,#0xc]
        0x00019942:    b908        ..      CBNZ     r0,0x19948 ; am_devices_mspi_ds35x1ga_read + 276
        0x00019944:    2001        .       MOVS     r0,#1
        0x00019946:    e784        ..      B        0x19852 ; am_devices_mspi_ds35x1ga_read + 30
        0x00019948:    4642        BF      MOV      r2,r8
        0x0001994a:    4907        .I      LDR      r1,[pc,#28] ; [0x19968] = 0x10060040
        0x0001994c:    4638        8F      MOV      r0,r7
        0x0001994e:    f7fefd6f    ..o.    BL       __aeabi_memcpy ; 0x18430
        0x00019952:    4908        .I      LDR      r1,[pc,#32] ; [0x19974] = 0x10060840
        0x00019954:    4658        XF      MOV      r0,r11
        0x00019956:    9a15        ..      LDR      r2,[sp,#0x54]
        0x00019958:    f7fefd6a    ..j.    BL       __aeabi_memcpy ; 0x18430
        0x0001995c:    2000        .       MOVS     r0,#0
        0x0001995e:    e778        x.      B        0x19852 ; am_devices_mspi_ds35x1ga_read + 30
    $d
        0x00019960:    100000a6    ....    DCD    268435622
        0x00019964:    100000a7    ....    DCD    268435623
        0x00019968:    10060040    @...    DCD    268828736
        0x0001996c:    0001f031    1...    DCD    127025
        0x00019970:    000f4240    @B..    DCD    1000000
        0x00019974:    10060840    @...    DCD    268830784
    $t
    i.am_devices_mspi_ds35x1ga_read_status
    am_devices_mspi_ds35x1ga_read_status
        0x00019978:    b5fe        ..      PUSH     {r1-r7,lr}
        0x0001997a:    4607        .F      MOV      r7,r0
        0x0001997c:    460d        .F      MOV      r5,r1
        0x0001997e:    4614        .F      MOV      r4,r2
        0x00019980:    2001        .       MOVS     r0,#1
        0x00019982:    9002        ..      STR      r0,[sp,#8]
        0x00019984:    2600        .&      MOVS     r6,#0
        0x00019986:    e017        ..      B        0x199b8 ; am_devices_mspi_ds35x1ga_read_status + 64
        0x00019988:    2001        .       MOVS     r0,#1
        0x0001998a:    a902        ..      ADD      r1,sp,#8
        0x0001998c:    462b        +F      MOV      r3,r5
        0x0001998e:    4602        .F      MOV      r2,r0
        0x00019990:    e9cd1000    ....    STRD     r1,r0,[sp,#0]
        0x00019994:    210f        .!      MOVS     r1,#0xf
        0x00019996:    4638        8F      MOV      r0,r7
        0x00019998:    f7fffbe0    ....    BL       am_devices_mspi_ds35x1ga_command_read ; 0x1915c
        0x0001999c:    f89d0008    ....    LDRB     r0,[sp,#8]
        0x000199a0:    f0000001    ....    AND      r0,r0,#1
        0x000199a4:    b920         .      CBNZ     r0,0x199b0 ; am_devices_mspi_ds35x1ga_read_status + 56
        0x000199a6:    f89d0008    ....    LDRB     r0,[sp,#8]
        0x000199aa:    7020         p      STRB     r0,[r4,#0]
        0x000199ac:    2000        .       MOVS     r0,#0
        0x000199ae:    bdfe        ..      POP      {r1-r7,pc}
        0x000199b0:    200a        .       MOVS     r0,#0xa
        0x000199b2:    f003fceb    ....    BL       am_util_delay_us ; 0x1d38c
        0x000199b6:    1c76        v.      ADDS     r6,r6,#1
        0x000199b8:    4803        .H      LDR      r0,[pc,#12] ; [0x199c8] = 0xf4240
        0x000199ba:    4286        .B      CMP      r6,r0
        0x000199bc:    d3e4        ..      BCC      0x19988 ; am_devices_mspi_ds35x1ga_read_status + 16
        0x000199be:    f89d0008    ....    LDRB     r0,[sp,#8]
        0x000199c2:    7020         p      STRB     r0,[r4,#0]
        0x000199c4:    2001        .       MOVS     r0,#1
        0x000199c6:    e7f2        ..      B        0x199ae ; am_devices_mspi_ds35x1ga_read_status + 54
    $d
        0x000199c8:    000f4240    @B..    DCD    1000000
    $t
    i.am_devices_mspi_ds35x1ga_reset
    am_devices_mspi_ds35x1ga_reset
        0x000199cc:    b53e        >.      PUSH     {r1-r5,lr}
        0x000199ce:    4604        .F      MOV      r4,r0
        0x000199d0:    2000        .       MOVS     r0,#0
        0x000199d2:    9002        ..      STR      r0,[sp,#8]
        0x000199d4:    9000        ..      STR      r0,[sp,#0]
        0x000199d6:    4603        .F      MOV      r3,r0
        0x000199d8:    4602        .F      MOV      r2,r0
        0x000199da:    21ff        .!      MOVS     r1,#0xff
        0x000199dc:    9001        ..      STR      r0,[sp,#4]
        0x000199de:    4620         F      MOV      r0,r4
        0x000199e0:    f7fffc0e    ....    BL       am_devices_mspi_ds35x1ga_command_write ; 0x19200
        0x000199e4:    b108        ..      CBZ      r0,0x199ea ; am_devices_mspi_ds35x1ga_reset + 30
        0x000199e6:    2001        .       MOVS     r0,#1
        0x000199e8:    bd3e        >.      POP      {r1-r5,pc}
        0x000199ea:    aa02        ..      ADD      r2,sp,#8
        0x000199ec:    21c0        .!      MOVS     r1,#0xc0
        0x000199ee:    4620         F      MOV      r0,r4
        0x000199f0:    f7ffffc2    ....    BL       am_devices_mspi_ds35x1ga_read_status ; 0x19978
        0x000199f4:    b108        ..      CBZ      r0,0x199fa ; am_devices_mspi_ds35x1ga_reset + 46
        0x000199f6:    2001        .       MOVS     r0,#1
        0x000199f8:    e7f6        ..      B        0x199e8 ; am_devices_mspi_ds35x1ga_reset + 28
        0x000199fa:    2000        .       MOVS     r0,#0
        0x000199fc:    e7f4        ..      B        0x199e8 ; am_devices_mspi_ds35x1ga_reset + 28
        0x000199fe:    0000        ..      MOVS     r0,r0
    i.am_devices_mspi_ds35x1ga_sdr_init_timing_check
    am_devices_mspi_ds35x1ga_sdr_init_timing_check
        0x00019a00:    e92d4ff7    -..O    PUSH     {r0-r2,r4-r11,lr}
        0x00019a04:    f5ad7d0a    ...}    SUB      sp,sp,#0x228
        0x00019a08:    4614        .F      MOV      r4,r2
        0x00019a0a:    f04f0b43    O.C.    MOV      r11,#0x43
        0x00019a0e:    f44f7106    O..q    MOV      r1,#0x218
        0x00019a12:    a802        ..      ADD      r0,sp,#8
        0x00019a14:    f7fefd51    ..Q.    BL       __aeabi_memclr4 ; 0x184ba
        0x00019a18:    4868        hH      LDR      r0,[pc,#416] ; [0x19bbc] = 0x100000a6
        0x00019a1a:    7800        .x      LDRB     r0,[r0,#0]
        0x00019a1c:    9001        ..      STR      r0,[sp,#4]
        0x00019a1e:    9801        ..      LDR      r0,[sp,#4]
        0x00019a20:    2801        .(      CMP      r0,#1
        0x00019a22:    d102        ..      BNE      0x19a2a ; am_devices_mspi_ds35x1ga_sdr_init_timing_check + 42
        0x00019a24:    2000        .       MOVS     r0,#0
        0x00019a26:    4965        eI      LDR      r1,[pc,#404] ; [0x19bbc] = 0x100000a6
        0x00019a28:    7008        .p      STRB     r0,[r1,#0]
        0x00019a2a:    ab88        ..      ADD      r3,sp,#0x220
        0x00019a2c:    aa89        ..      ADD      r2,sp,#0x224
        0x00019a2e:    998b        ..      LDR      r1,[sp,#0x22c]
        0x00019a30:    988a        ..      LDR      r0,[sp,#0x228]
        0x00019a32:    f7fffcf1    ....    BL       am_devices_mspi_ds35x1ga_init ; 0x19418
        0x00019a36:    4607        .F      MOV      r7,r0
        0x00019a38:    b127        '.      CBZ      r7,0x19a44 ; am_devices_mspi_ds35x1ga_sdr_init_timing_check + 68
        0x00019a3a:    4638        8F      MOV      r0,r7
        0x00019a3c:    f50d7d0d    ...}    ADD      sp,sp,#0x234
        0x00019a40:    e8bd8ff0    ....    POP      {r4-r11,pc}
        0x00019a44:    2500        .%      MOVS     r5,#0
        0x00019a46:    e055        U.      B        0x19af4 ; am_devices_mspi_ds35x1ga_sdr_init_timing_check + 244
        0x00019a48:    eb050045    ..E.    ADD      r0,r5,r5,LSL #1
        0x00019a4c:    495c        \I      LDR      r1,[pc,#368] ; [0x19bc0] = 0x1f637
        0x00019a4e:    f8110010    ....    LDRB     r0,[r1,r0,LSL #1]
        0x00019a52:    495c        \I      LDR      r1,[pc,#368] ; [0x19bc4] = 0x100000ad
        0x00019a54:    7008        .p      STRB     r0,[r1,#0]
        0x00019a56:    eb050045    ..E.    ADD      r0,r5,r5,LSL #1
        0x00019a5a:    4959        YI      LDR      r1,[pc,#356] ; [0x19bc0] = 0x1f637
        0x00019a5c:    eb010040    ..@.    ADD      r0,r1,r0,LSL #1
        0x00019a60:    7840        @x      LDRB     r0,[r0,#1]
        0x00019a62:    4958        XI      LDR      r1,[pc,#352] ; [0x19bc4] = 0x100000ad
        0x00019a64:    7048        Hp      STRB     r0,[r1,#1]
        0x00019a66:    eb050045    ..E.    ADD      r0,r5,r5,LSL #1
        0x00019a6a:    4955        UI      LDR      r1,[pc,#340] ; [0x19bc0] = 0x1f637
        0x00019a6c:    eb010040    ..@.    ADD      r0,r1,r0,LSL #1
        0x00019a70:    7880        .x      LDRB     r0,[r0,#2]
        0x00019a72:    4954        TI      LDR      r1,[pc,#336] ; [0x19bc4] = 0x100000ad
        0x00019a74:    7088        .p      STRB     r0,[r1,#2]
        0x00019a76:    eb050045    ..E.    ADD      r0,r5,r5,LSL #1
        0x00019a7a:    4951        QI      LDR      r1,[pc,#324] ; [0x19bc0] = 0x1f637
        0x00019a7c:    eb010040    ..@.    ADD      r0,r1,r0,LSL #1
        0x00019a80:    78c0        .x      LDRB     r0,[r0,#3]
        0x00019a82:    4950        PI      LDR      r1,[pc,#320] ; [0x19bc4] = 0x100000ad
        0x00019a84:    70c8        .p      STRB     r0,[r1,#3]
        0x00019a86:    eb050045    ..E.    ADD      r0,r5,r5,LSL #1
        0x00019a8a:    494d        MI      LDR      r1,[pc,#308] ; [0x19bc0] = 0x1f637
        0x00019a8c:    eb010040    ..@.    ADD      r0,r1,r0,LSL #1
        0x00019a90:    7940        @y      LDRB     r0,[r0,#5]
        0x00019a92:    494c        LI      LDR      r1,[pc,#304] ; [0x19bc4] = 0x100000ad
        0x00019a94:    7148        Hq      STRB     r0,[r1,#5]
        0x00019a96:    2100        .!      MOVS     r1,#0
        0x00019a98:    9889        ..      LDR      r0,[sp,#0x224]
        0x00019a9a:    f7fffb05    ....    BL       am_devices_mspi_ds35x1ga_block_erase ; 0x190a8
        0x00019a9e:    4607        .F      MOV      r7,r0
        0x00019aa0:    b10f        ..      CBZ      r7,0x19aa6 ; am_devices_mspi_ds35x1ga_sdr_init_timing_check + 166
        0x00019aa2:    2001        .       MOVS     r0,#1
        0x00019aa4:    e7ca        ..      B        0x19a3c ; am_devices_mspi_ds35x1ga_sdr_init_timing_check + 60
        0x00019aa6:    f04f0800    O...    MOV      r8,#0
        0x00019aaa:    e01e        ..      B        0x19aea ; am_devices_mspi_ds35x1ga_sdr_init_timing_check + 234
        0x00019aac:    4845        EH      LDR      r0,[pc,#276] ; [0x19bc4] = 0x100000ad
        0x00019aae:    f8808004    ....    STRB     r8,[r0,#4]
        0x00019ab2:    4602        .F      MOV      r2,r0
        0x00019ab4:    210d        .!      MOVS     r1,#0xd
        0x00019ab6:    9888        ..      LDR      r0,[sp,#0x220]
        0x00019ab8:    f001fa9a    ....    BL       am_hal_mspi_control ; 0x1aff0
        0x00019abc:    4607        .F      MOV      r7,r0
        0x00019abe:    b10f        ..      CBZ      r7,0x19ac4 ; am_devices_mspi_ds35x1ga_sdr_init_timing_check + 196
        0x00019ac0:    2001        .       MOVS     r0,#1
        0x00019ac2:    e7bb        ..      B        0x19a3c ; am_devices_mspi_ds35x1ga_sdr_init_timing_check + 60
        0x00019ac4:    2110        .!      MOVS     r1,#0x10
        0x00019ac6:    9889        ..      LDR      r0,[sp,#0x224]
        0x00019ac8:    f004fc12    ....    BL       flash_check ; 0x1e2f0
        0x00019acc:    b148        H.      CBZ      r0,0x19ae2 ; am_devices_mspi_ds35x1ga_sdr_init_timing_check + 226
        0x00019ace:    a802        ..      ADD      r0,sp,#8
        0x00019ad0:    f8500025    P.%.    LDR      r0,[r0,r5,LSL #2]
        0x00019ad4:    2101        .!      MOVS     r1,#1
        0x00019ad6:    fa01f108    ....    LSL      r1,r1,r8
        0x00019ada:    4308        .C      ORRS     r0,r0,r1
        0x00019adc:    a902        ..      ADD      r1,sp,#8
        0x00019ade:    f8410025    A.%.    STR      r0,[r1,r5,LSL #2]
        0x00019ae2:    f1080001    ....    ADD      r0,r8,#1
        0x00019ae6:    f00008ff    ....    AND      r8,r0,#0xff
        0x00019aea:    f1b80f20    .. .    CMP      r8,#0x20
        0x00019aee:    dbdd        ..      BLT      0x19aac ; am_devices_mspi_ds35x1ga_sdr_init_timing_check + 172
        0x00019af0:    1c68        h.      ADDS     r0,r5,#1
        0x00019af2:    b2c5        ..      UXTB     r5,r0
        0x00019af4:    455d        ]E      CMP      r5,r11
        0x00019af6:    d3a7        ..      BCC      0x19a48 ; am_devices_mspi_ds35x1ga_sdr_init_timing_check + 72
        0x00019af8:    2600        .&      MOVS     r6,#0
        0x00019afa:    46b1        .F      MOV      r9,r6
        0x00019afc:    46b2        .F      MOV      r10,r6
        0x00019afe:    2500        .%      MOVS     r5,#0
        0x00019b00:    e00a        ..      B        0x19b18 ; am_devices_mspi_ds35x1ga_sdr_init_timing_check + 280
        0x00019b02:    a902        ..      ADD      r1,sp,#8
        0x00019b04:    eb010085    ....    ADD      r0,r1,r5,LSL #2
        0x00019b08:    f004fac6    ....    BL       count_consecutive_ones ; 0x1e098
        0x00019b0c:    4682        .F      MOV      r10,r0
        0x00019b0e:    45ca        .E      CMP      r10,r9
        0x00019b10:    d901        ..      BLS      0x19b16 ; am_devices_mspi_ds35x1ga_sdr_init_timing_check + 278
        0x00019b12:    46d1        .F      MOV      r9,r10
        0x00019b14:    462e        .F      MOV      r6,r5
        0x00019b16:    1c6d        m.      ADDS     r5,r5,#1
        0x00019b18:    455d        ]E      CMP      r5,r11
        0x00019b1a:    d3f2        ..      BCC      0x19b02 ; am_devices_mspi_ds35x1ga_sdr_init_timing_check + 258
        0x00019b1c:    a902        ..      ADD      r1,sp,#8
        0x00019b1e:    eb010086    ....    ADD      r0,r1,r6,LSL #2
        0x00019b22:    f004fba2    ....    BL       find_mid_point ; 0x1e26a
        0x00019b26:    9000        ..      STR      r0,[sp,#0]
        0x00019b28:    9889        ..      LDR      r0,[sp,#0x224]
        0x00019b2a:    f7fffbcf    ....    BL       am_devices_mspi_ds35x1ga_deinit ; 0x192cc
        0x00019b2e:    4a26        &J      LDR      r2,[pc,#152] ; [0x19bc8] = 0x1f634
        0x00019b30:    998a        ..      LDR      r1,[sp,#0x228]
        0x00019b32:    5650        PV      LDRSB    r0,[r2,r1]
        0x00019b34:    2800        .(      CMP      r0,#0
        0x00019b36:    db07        ..      BLT      0x19b48 ; am_devices_mspi_ds35x1ga_sdr_init_timing_check + 328
        0x00019b38:    f000021f    ....    AND      r2,r0,#0x1f
        0x00019b3c:    2101        .!      MOVS     r1,#1
        0x00019b3e:    4091        .@      LSLS     r1,r1,r2
        0x00019b40:    4a22        "J      LDR      r2,[pc,#136] ; [0x19bcc] = 0xe000e280
        0x00019b42:    0943        C.      LSRS     r3,r0,#5
        0x00019b44:    f8421023    B.#.    STR      r1,[r2,r3,LSL #2]
        0x00019b48:    bf00        ..      NOP      
        0x00019b4a:    f1b90f08    ....    CMP      r9,#8
        0x00019b4e:    d213        ..      BCS      0x19b78 ; am_devices_mspi_ds35x1ga_sdr_init_timing_check + 376
        0x00019b50:    481f        .H      LDR      r0,[pc,#124] ; [0x19bd0] = 0x100000a0
        0x00019b52:    7800        .x      LDRB     r0,[r0,#0]
        0x00019b54:    7020         p      STRB     r0,[r4,#0]
        0x00019b56:    481e        .H      LDR      r0,[pc,#120] ; [0x19bd0] = 0x100000a0
        0x00019b58:    7840        @x      LDRB     r0,[r0,#1]
        0x00019b5a:    7060        `p      STRB     r0,[r4,#1]
        0x00019b5c:    481c        .H      LDR      r0,[pc,#112] ; [0x19bd0] = 0x100000a0
        0x00019b5e:    7880        .x      LDRB     r0,[r0,#2]
        0x00019b60:    70a0        .p      STRB     r0,[r4,#2]
        0x00019b62:    481b        .H      LDR      r0,[pc,#108] ; [0x19bd0] = 0x100000a0
        0x00019b64:    78c0        .x      LDRB     r0,[r0,#3]
        0x00019b66:    70e0        .p      STRB     r0,[r4,#3]
        0x00019b68:    4819        .H      LDR      r0,[pc,#100] ; [0x19bd0] = 0x100000a0
        0x00019b6a:    7900        .y      LDRB     r0,[r0,#4]
        0x00019b6c:    7120         q      STRB     r0,[r4,#4]
        0x00019b6e:    4818        .H      LDR      r0,[pc,#96] ; [0x19bd0] = 0x100000a0
        0x00019b70:    7940        @y      LDRB     r0,[r0,#5]
        0x00019b72:    7160        `q      STRB     r0,[r4,#5]
        0x00019b74:    2001        .       MOVS     r0,#1
        0x00019b76:    e761        a.      B        0x19a3c ; am_devices_mspi_ds35x1ga_sdr_init_timing_check + 60
        0x00019b78:    9800        ..      LDR      r0,[sp,#0]
        0x00019b7a:    7120         q      STRB     r0,[r4,#4]
        0x00019b7c:    eb060046    ..F.    ADD      r0,r6,r6,LSL #1
        0x00019b80:    490f        .I      LDR      r1,[pc,#60] ; [0x19bc0] = 0x1f637
        0x00019b82:    f8110010    ....    LDRB     r0,[r1,r0,LSL #1]
        0x00019b86:    7020         p      STRB     r0,[r4,#0]
        0x00019b88:    eb060046    ..F.    ADD      r0,r6,r6,LSL #1
        0x00019b8c:    eb010040    ..@.    ADD      r0,r1,r0,LSL #1
        0x00019b90:    7840        @x      LDRB     r0,[r0,#1]
        0x00019b92:    7060        `p      STRB     r0,[r4,#1]
        0x00019b94:    eb060046    ..F.    ADD      r0,r6,r6,LSL #1
        0x00019b98:    eb010040    ..@.    ADD      r0,r1,r0,LSL #1
        0x00019b9c:    7880        .x      LDRB     r0,[r0,#2]
        0x00019b9e:    70a0        .p      STRB     r0,[r4,#2]
        0x00019ba0:    eb060046    ..F.    ADD      r0,r6,r6,LSL #1
        0x00019ba4:    eb010040    ..@.    ADD      r0,r1,r0,LSL #1
        0x00019ba8:    78c0        .x      LDRB     r0,[r0,#3]
        0x00019baa:    70e0        .p      STRB     r0,[r4,#3]
        0x00019bac:    eb060046    ..F.    ADD      r0,r6,r6,LSL #1
        0x00019bb0:    eb010040    ..@.    ADD      r0,r1,r0,LSL #1
        0x00019bb4:    7940        @y      LDRB     r0,[r0,#5]
        0x00019bb6:    7160        `q      STRB     r0,[r4,#5]
        0x00019bb8:    2000        .       MOVS     r0,#0
        0x00019bba:    e73f        ?.      B        0x19a3c ; am_devices_mspi_ds35x1ga_sdr_init_timing_check + 60
    $d
        0x00019bbc:    100000a6    ....    DCD    268435622
        0x00019bc0:    0001f637    7...    DCD    128567
        0x00019bc4:    100000ad    ....    DCD    268435629
        0x00019bc8:    0001f634    4...    DCD    128564
        0x00019bcc:    e000e280    ....    DCD    3758154368
        0x00019bd0:    100000a0    ....    DCD    268435616
    $t
    i.am_devices_mspi_ds35x1ga_timing_check_read
    am_devices_mspi_ds35x1ga_timing_check_read
        0x00019bd4:    e92d4ff0    -..O    PUSH     {r4-r11,lr}
        0x00019bd8:    b08b        ..      SUB      sp,sp,#0x2c
        0x00019bda:    4607        .F      MOV      r7,r0
        0x00019bdc:    460e        .F      MOV      r6,r1
        0x00019bde:    4690        .F      MOV      r8,r2
        0x00019be0:    4699        .F      MOV      r9,r3
        0x00019be2:    f8ddb050    ..P.    LDR      r11,[sp,#0x50]
        0x00019be6:    9d16        ..      LDR      r5,[sp,#0x58]
        0x00019be8:    463c        <F      MOV      r4,r7
        0x00019bea:    f5b63f80    ...?    CMP      r6,#0x10000
        0x00019bee:    d303        ..      BCC      0x19bf8 ; am_devices_mspi_ds35x1ga_timing_check_read + 36
        0x00019bf0:    2001        .       MOVS     r0,#1
        0x00019bf2:    b00b        ..      ADD      sp,sp,#0x2c
        0x00019bf4:    e8bd8ff0    ....    POP      {r4-r11,pc}
        0x00019bf8:    4638        8F      MOV      r0,r7
        0x00019bfa:    f7fffbb9    ....    BL       am_devices_mspi_ds35x1ga_enter_command_mode ; 0x19370
        0x00019bfe:    2000        .       MOVS     r0,#0
        0x00019c00:    9000        ..      STR      r0,[sp,#0]
        0x00019c02:    4633        3F      MOV      r3,r6
        0x00019c04:    2201        ."      MOVS     r2,#1
        0x00019c06:    2113        .!      MOVS     r1,#0x13
        0x00019c08:    9001        ..      STR      r0,[sp,#4]
        0x00019c0a:    4638        8F      MOV      r0,r7
        0x00019c0c:    f7fffaf8    ....    BL       am_devices_mspi_ds35x1ga_command_write ; 0x19200
        0x00019c10:    9004        ..      STR      r0,[sp,#0x10]
        0x00019c12:    9804        ..      LDR      r0,[sp,#0x10]
        0x00019c14:    b108        ..      CBZ      r0,0x19c1a ; am_devices_mspi_ds35x1ga_timing_check_read + 70
        0x00019c16:    2001        .       MOVS     r0,#1
        0x00019c18:    e7eb        ..      B        0x19bf2 ; am_devices_mspi_ds35x1ga_timing_check_read + 30
        0x00019c1a:    aa04        ..      ADD      r2,sp,#0x10
        0x00019c1c:    21c0        .!      MOVS     r1,#0xc0
        0x00019c1e:    4638        8F      MOV      r0,r7
        0x00019c20:    f7fffeaa    ....    BL       am_devices_mspi_ds35x1ga_read_status ; 0x19978
        0x00019c24:    b108        ..      CBZ      r0,0x19c2a ; am_devices_mspi_ds35x1ga_timing_check_read + 86
        0x00019c26:    2001        .       MOVS     r0,#1
        0x00019c28:    e7e3        ..      B        0x19bf2 ; am_devices_mspi_ds35x1ga_timing_check_read + 30
        0x00019c2a:    9804        ..      LDR      r0,[sp,#0x10]
        0x00019c2c:    f0000030    ..0.    AND      r0,r0,#0x30
        0x00019c30:    b130        0.      CBZ      r0,0x19c40 ; am_devices_mspi_ds35x1ga_timing_check_read + 108
        0x00019c32:    2810        .(      CMP      r0,#0x10
        0x00019c34:    d007        ..      BEQ      0x19c46 ; am_devices_mspi_ds35x1ga_timing_check_read + 114
        0x00019c36:    2820         (      CMP      r0,#0x20
        0x00019c38:    d009        ..      BEQ      0x19c4e ; am_devices_mspi_ds35x1ga_timing_check_read + 122
        0x00019c3a:    2830        0(      CMP      r0,#0x30
        0x00019c3c:    d10a        ..      BNE      0x19c54 ; am_devices_mspi_ds35x1ga_timing_check_read + 128
        0x00019c3e:    e003        ..      B        0x19c48 ; am_devices_mspi_ds35x1ga_timing_check_read + 116
        0x00019c40:    2000        .       MOVS     r0,#0
        0x00019c42:    7028        (p      STRB     r0,[r5,#0]
        0x00019c44:    e009        ..      B        0x19c5a ; am_devices_mspi_ds35x1ga_timing_check_read + 134
        0x00019c46:    bf00        ..      NOP      
        0x00019c48:    2001        .       MOVS     r0,#1
        0x00019c4a:    7028        (p      STRB     r0,[r5,#0]
        0x00019c4c:    e005        ..      B        0x19c5a ; am_devices_mspi_ds35x1ga_timing_check_read + 134
        0x00019c4e:    2002        .       MOVS     r0,#2
        0x00019c50:    7028        (p      STRB     r0,[r5,#0]
        0x00019c52:    e002        ..      B        0x19c5a ; am_devices_mspi_ds35x1ga_timing_check_read + 134
        0x00019c54:    20ff        .       MOVS     r0,#0xff
        0x00019c56:    7028        (p      STRB     r0,[r5,#0]
        0x00019c58:    bf00        ..      NOP      
        0x00019c5a:    bf00        ..      NOP      
        0x00019c5c:    4638        8F      MOV      r0,r7
        0x00019c5e:    f7fffb9c    ....    BL       am_devices_mspi_ds35x1ga_exit_command_mode ; 0x1939a
        0x00019c62:    6860        `h      LDR      r0,[r4,#4]
        0x00019c64:    210d        .!      MOVS     r1,#0xd
        0x00019c66:    9a17        ..      LDR      r2,[sp,#0x5c]
        0x00019c68:    f001f9c2    ....    BL       am_hal_mspi_control ; 0x1aff0
        0x00019c6c:    2001        .       MOVS     r0,#1
        0x00019c6e:    f88d0014    ....    STRB     r0,[sp,#0x14]
        0x00019c72:    2000        .       MOVS     r0,#0
        0x00019c74:    f88d0015    ....    STRB     r0,[sp,#0x15]
        0x00019c78:    f44f6004    O..`    MOV      r0,#0x840
        0x00019c7c:    9006        ..      STR      r0,[sp,#0x18]
        0x00019c7e:    2000        .       MOVS     r0,#0
        0x00019c80:    9007        ..      STR      r0,[sp,#0x1c]
        0x00019c82:    4820         H      LDR      r0,[pc,#128] ; [0x19d04] = 0x10060040
        0x00019c84:    9008        ..      STR      r0,[sp,#0x20]
        0x00019c86:    2000        .       MOVS     r0,#0
        0x00019c88:    9009        ..      STR      r0,[sp,#0x24]
        0x00019c8a:    900a        ..      STR      r0,[sp,#0x28]
        0x00019c8c:    9003        ..      STR      r0,[sp,#0xc]
        0x00019c8e:    a803        ..      ADD      r0,sp,#0xc
        0x00019c90:    9000        ..      STR      r0,[sp,#0]
        0x00019c92:    4b1d        .K      LDR      r3,[pc,#116] ; [0x19d08] = 0x1f031
        0x00019c94:    2201        ."      MOVS     r2,#1
        0x00019c96:    a905        ..      ADD      r1,sp,#0x14
        0x00019c98:    6860        `h      LDR      r0,[r4,#4]
        0x00019c9a:    f002fc35    ..5.    BL       am_hal_mspi_nonblocking_transfer ; 0x1c508
        0x00019c9e:    9004        ..      STR      r0,[sp,#0x10]
        0x00019ca0:    9804        ..      LDR      r0,[sp,#0x10]
        0x00019ca2:    b108        ..      CBZ      r0,0x19ca8 ; am_devices_mspi_ds35x1ga_timing_check_read + 212
        0x00019ca4:    2001        .       MOVS     r0,#1
        0x00019ca6:    e7a4        ..      B        0x19bf2 ; am_devices_mspi_ds35x1ga_timing_check_read + 30
        0x00019ca8:    f04f0a00    O...    MOV      r10,#0
        0x00019cac:    e015        ..      B        0x19cda ; am_devices_mspi_ds35x1ga_timing_check_read + 262
        0x00019cae:    2200        ."      MOVS     r2,#0
        0x00019cb0:    a904        ..      ADD      r1,sp,#0x10
        0x00019cb2:    6860        `h      LDR      r0,[r4,#4]
        0x00019cb4:    f002fc04    ....    BL       am_hal_mspi_interrupt_status_get ; 0x1c4c0
        0x00019cb8:    6860        `h      LDR      r0,[r4,#4]
        0x00019cba:    9904        ..      LDR      r1,[sp,#0x10]
        0x00019cbc:    f002fa4c    ..L.    BL       am_hal_mspi_interrupt_clear ; 0x1c158
        0x00019cc0:    6860        `h      LDR      r0,[r4,#4]
        0x00019cc2:    9904        ..      LDR      r1,[sp,#0x10]
        0x00019cc4:    f002fa9c    ....    BL       am_hal_mspi_interrupt_service ; 0x1c200
        0x00019cc8:    f89d000c    ....    LDRB     r0,[sp,#0xc]
        0x00019ccc:    b100        ..      CBZ      r0,0x19cd0 ; am_devices_mspi_ds35x1ga_timing_check_read + 252
        0x00019cce:    e007        ..      B        0x19ce0 ; am_devices_mspi_ds35x1ga_timing_check_read + 268
        0x00019cd0:    2001        .       MOVS     r0,#1
        0x00019cd2:    f003fb5b    ..[.    BL       am_util_delay_us ; 0x1d38c
        0x00019cd6:    f10a0a01    ....    ADD      r10,r10,#1
        0x00019cda:    480c        .H      LDR      r0,[pc,#48] ; [0x19d0c] = 0xf4240
        0x00019cdc:    4582        .E      CMP      r10,r0
        0x00019cde:    d3e6        ..      BCC      0x19cae ; am_devices_mspi_ds35x1ga_timing_check_read + 218
        0x00019ce0:    bf00        ..      NOP      
        0x00019ce2:    f89d000c    ....    LDRB     r0,[sp,#0xc]
        0x00019ce6:    b908        ..      CBNZ     r0,0x19cec ; am_devices_mspi_ds35x1ga_timing_check_read + 280
        0x00019ce8:    2001        .       MOVS     r0,#1
        0x00019cea:    e782        ..      B        0x19bf2 ; am_devices_mspi_ds35x1ga_timing_check_read + 30
        0x00019cec:    464a        JF      MOV      r2,r9
        0x00019cee:    4905        .I      LDR      r1,[pc,#20] ; [0x19d04] = 0x10060040
        0x00019cf0:    4640        @F      MOV      r0,r8
        0x00019cf2:    f7fefb9d    ....    BL       __aeabi_memcpy ; 0x18430
        0x00019cf6:    4906        .I      LDR      r1,[pc,#24] ; [0x19d10] = 0x10060840
        0x00019cf8:    4658        XF      MOV      r0,r11
        0x00019cfa:    9a15        ..      LDR      r2,[sp,#0x54]
        0x00019cfc:    f7fefb98    ....    BL       __aeabi_memcpy ; 0x18430
        0x00019d00:    2000        .       MOVS     r0,#0
        0x00019d02:    e776        v.      B        0x19bf2 ; am_devices_mspi_ds35x1ga_timing_check_read + 30
    $d
        0x00019d04:    10060040    @...    DCD    268828736
        0x00019d08:    0001f031    1...    DCD    127025
        0x00019d0c:    000f4240    @B..    DCD    1000000
        0x00019d10:    10060840    @...    DCD    268830784
    $t
    i.am_devices_mspi_ds35x1ga_timing_check_write
    am_devices_mspi_ds35x1ga_timing_check_write
        0x00019d14:    e92d4ff0    -..O    PUSH     {r4-r11,lr}
        0x00019d18:    b08b        ..      SUB      sp,sp,#0x2c
        0x00019d1a:    4606        .F      MOV      r6,r0
        0x00019d1c:    460d        .F      MOV      r5,r1
        0x00019d1e:    4617        .F      MOV      r7,r2
        0x00019d20:    4698        .F      MOV      r8,r3
        0x00019d22:    e9ddab14    ....    LDRD     r10,r11,[sp,#0x50]
        0x00019d26:    4634        4F      MOV      r4,r6
        0x00019d28:    f5b53f80    ...?    CMP      r5,#0x10000
        0x00019d2c:    d303        ..      BCC      0x19d36 ; am_devices_mspi_ds35x1ga_timing_check_write + 34
        0x00019d2e:    2001        .       MOVS     r0,#1
        0x00019d30:    b00b        ..      ADD      sp,sp,#0x2c
        0x00019d32:    e8bd8ff0    ....    POP      {r4-r11,pc}
        0x00019d36:    4630        0F      MOV      r0,r6
        0x00019d38:    f7fffb1a    ....    BL       am_devices_mspi_ds35x1ga_enter_command_mode ; 0x19370
        0x00019d3c:    2000        .       MOVS     r0,#0
        0x00019d3e:    9000        ..      STR      r0,[sp,#0]
        0x00019d40:    4603        .F      MOV      r3,r0
        0x00019d42:    4602        .F      MOV      r2,r0
        0x00019d44:    2106        .!      MOVS     r1,#6
        0x00019d46:    9001        ..      STR      r0,[sp,#4]
        0x00019d48:    4630        0F      MOV      r0,r6
        0x00019d4a:    f7fffa59    ..Y.    BL       am_devices_mspi_ds35x1ga_command_write ; 0x19200
        0x00019d4e:    9004        ..      STR      r0,[sp,#0x10]
        0x00019d50:    9804        ..      LDR      r0,[sp,#0x10]
        0x00019d52:    b108        ..      CBZ      r0,0x19d58 ; am_devices_mspi_ds35x1ga_timing_check_write + 68
        0x00019d54:    2001        .       MOVS     r0,#1
        0x00019d56:    e7eb        ..      B        0x19d30 ; am_devices_mspi_ds35x1ga_timing_check_write + 28
        0x00019d58:    4630        0F      MOV      r0,r6
        0x00019d5a:    f7fffb1e    ....    BL       am_devices_mspi_ds35x1ga_exit_command_mode ; 0x1939a
        0x00019d5e:    4630        0F      MOV      r0,r6
        0x00019d60:    f000f89a    ....    BL       am_devices_mspi_ds35x1ga_tx_enter_ad4_mode ; 0x19e98
        0x00019d64:    9004        ..      STR      r0,[sp,#0x10]
        0x00019d66:    9804        ..      LDR      r0,[sp,#0x10]
        0x00019d68:    b108        ..      CBZ      r0,0x19d6e ; am_devices_mspi_ds35x1ga_timing_check_write + 90
        0x00019d6a:    2001        .       MOVS     r0,#1
        0x00019d6c:    e7e0        ..      B        0x19d30 ; am_devices_mspi_ds35x1ga_timing_check_write + 28
        0x00019d6e:    6860        `h      LDR      r0,[r4,#4]
        0x00019d70:    210d        .!      MOVS     r1,#0xd
        0x00019d72:    9a16        ..      LDR      r2,[sp,#0x58]
        0x00019d74:    f001f93c    ..<.    BL       am_hal_mspi_control ; 0x1aff0
        0x00019d78:    6860        `h      LDR      r0,[r4,#4]
        0x00019d7a:    210d        .!      MOVS     r1,#0xd
        0x00019d7c:    9a16        ..      LDR      r2,[sp,#0x58]
        0x00019d7e:    f001f937    ..7.    BL       am_hal_mspi_control ; 0x1aff0
        0x00019d82:    4642        BF      MOV      r2,r8
        0x00019d84:    4639        9F      MOV      r1,r7
        0x00019d86:    4840        @H      LDR      r0,[pc,#256] ; [0x19e88] = 0x10060040
        0x00019d88:    f7fefb52    ..R.    BL       __aeabi_memcpy ; 0x18430
        0x00019d8c:    465a        ZF      MOV      r2,r11
        0x00019d8e:    4651        QF      MOV      r1,r10
        0x00019d90:    483e        >H      LDR      r0,[pc,#248] ; [0x19e8c] = 0x10060840
        0x00019d92:    f7fefb4d    ..M.    BL       __aeabi_memcpy ; 0x18430
        0x00019d96:    f44f6004    O..`    MOV      r0,#0x840
        0x00019d9a:    9006        ..      STR      r0,[sp,#0x18]
        0x00019d9c:    2001        .       MOVS     r0,#1
        0x00019d9e:    f88d0014    ....    STRB     r0,[sp,#0x14]
        0x00019da2:    f88d0015    ....    STRB     r0,[sp,#0x15]
        0x00019da6:    2000        .       MOVS     r0,#0
        0x00019da8:    9007        ..      STR      r0,[sp,#0x1c]
        0x00019daa:    4837        7H      LDR      r0,[pc,#220] ; [0x19e88] = 0x10060040
        0x00019dac:    9008        ..      STR      r0,[sp,#0x20]
        0x00019dae:    2000        .       MOVS     r0,#0
        0x00019db0:    9009        ..      STR      r0,[sp,#0x24]
        0x00019db2:    900a        ..      STR      r0,[sp,#0x28]
        0x00019db4:    9003        ..      STR      r0,[sp,#0xc]
        0x00019db6:    a803        ..      ADD      r0,sp,#0xc
        0x00019db8:    9000        ..      STR      r0,[sp,#0]
        0x00019dba:    4b35        5K      LDR      r3,[pc,#212] ; [0x19e90] = 0x1f031
        0x00019dbc:    2201        ."      MOVS     r2,#1
        0x00019dbe:    a905        ..      ADD      r1,sp,#0x14
        0x00019dc0:    6860        `h      LDR      r0,[r4,#4]
        0x00019dc2:    f002fba1    ....    BL       am_hal_mspi_nonblocking_transfer ; 0x1c508
        0x00019dc6:    9004        ..      STR      r0,[sp,#0x10]
        0x00019dc8:    9804        ..      LDR      r0,[sp,#0x10]
        0x00019dca:    b108        ..      CBZ      r0,0x19dd0 ; am_devices_mspi_ds35x1ga_timing_check_write + 188
        0x00019dcc:    2001        .       MOVS     r0,#1
        0x00019dce:    e7af        ..      B        0x19d30 ; am_devices_mspi_ds35x1ga_timing_check_write + 28
        0x00019dd0:    f04f0900    O...    MOV      r9,#0
        0x00019dd4:    e04d        M.      B        0x19e72 ; am_devices_mspi_ds35x1ga_timing_check_write + 350
        0x00019dd6:    2200        ."      MOVS     r2,#0
        0x00019dd8:    a904        ..      ADD      r1,sp,#0x10
        0x00019dda:    6860        `h      LDR      r0,[r4,#4]
        0x00019ddc:    f002fb70    ..p.    BL       am_hal_mspi_interrupt_status_get ; 0x1c4c0
        0x00019de0:    6860        `h      LDR      r0,[r4,#4]
        0x00019de2:    9904        ..      LDR      r1,[sp,#0x10]
        0x00019de4:    f002f9b8    ....    BL       am_hal_mspi_interrupt_clear ; 0x1c158
        0x00019de8:    6860        `h      LDR      r0,[r4,#4]
        0x00019dea:    9904        ..      LDR      r1,[sp,#0x10]
        0x00019dec:    f002fa08    ....    BL       am_hal_mspi_interrupt_service ; 0x1c200
        0x00019df0:    f89d000c    ....    LDRB     r0,[sp,#0xc]
        0x00019df4:    b398        ..      CBZ      r0,0x19e5e ; am_devices_mspi_ds35x1ga_timing_check_write + 330
        0x00019df6:    4630        0F      MOV      r0,r6
        0x00019df8:    f7fffaba    ....    BL       am_devices_mspi_ds35x1ga_enter_command_mode ; 0x19370
        0x00019dfc:    2000        .       MOVS     r0,#0
        0x00019dfe:    9000        ..      STR      r0,[sp,#0]
        0x00019e00:    462b        +F      MOV      r3,r5
        0x00019e02:    2201        ."      MOVS     r2,#1
        0x00019e04:    2110        .!      MOVS     r1,#0x10
        0x00019e06:    9001        ..      STR      r0,[sp,#4]
        0x00019e08:    4630        0F      MOV      r0,r6
        0x00019e0a:    f7fff9f9    ....    BL       am_devices_mspi_ds35x1ga_command_write ; 0x19200
        0x00019e0e:    9004        ..      STR      r0,[sp,#0x10]
        0x00019e10:    9804        ..      LDR      r0,[sp,#0x10]
        0x00019e12:    b120         .      CBZ      r0,0x19e1e ; am_devices_mspi_ds35x1ga_timing_check_write + 266
        0x00019e14:    4630        0F      MOV      r0,r6
        0x00019e16:    f7fffac0    ....    BL       am_devices_mspi_ds35x1ga_exit_command_mode ; 0x1939a
        0x00019e1a:    2001        .       MOVS     r0,#1
        0x00019e1c:    e788        ..      B        0x19d30 ; am_devices_mspi_ds35x1ga_timing_check_write + 28
        0x00019e1e:    aa04        ..      ADD      r2,sp,#0x10
        0x00019e20:    21c0        .!      MOVS     r1,#0xc0
        0x00019e22:    4630        0F      MOV      r0,r6
        0x00019e24:    f7fffda8    ....    BL       am_devices_mspi_ds35x1ga_read_status ; 0x19978
        0x00019e28:    b9d8        ..      CBNZ     r0,0x19e62 ; am_devices_mspi_ds35x1ga_timing_check_write + 334
        0x00019e2a:    9804        ..      LDR      r0,[sp,#0x10]
        0x00019e2c:    f0000008    ....    AND      r0,r0,#8
        0x00019e30:    2808        .(      CMP      r0,#8
        0x00019e32:    d016        ..      BEQ      0x19e62 ; am_devices_mspi_ds35x1ga_timing_check_write + 334
        0x00019e34:    9804        ..      LDR      r0,[sp,#0x10]
        0x00019e36:    f0000001    ....    AND      r0,r0,#1
        0x00019e3a:    b990        ..      CBNZ     r0,0x19e62 ; am_devices_mspi_ds35x1ga_timing_check_write + 334
        0x00019e3c:    2000        .       MOVS     r0,#0
        0x00019e3e:    9000        ..      STR      r0,[sp,#0]
        0x00019e40:    4603        .F      MOV      r3,r0
        0x00019e42:    4602        .F      MOV      r2,r0
        0x00019e44:    2104        .!      MOVS     r1,#4
        0x00019e46:    9001        ..      STR      r0,[sp,#4]
        0x00019e48:    4630        0F      MOV      r0,r6
        0x00019e4a:    f7fff9d9    ....    BL       am_devices_mspi_ds35x1ga_command_write ; 0x19200
        0x00019e4e:    9004        ..      STR      r0,[sp,#0x10]
        0x00019e50:    9804        ..      LDR      r0,[sp,#0x10]
        0x00019e52:    b128        (.      CBZ      r0,0x19e60 ; am_devices_mspi_ds35x1ga_timing_check_write + 332
        0x00019e54:    4630        0F      MOV      r0,r6
        0x00019e56:    f7fffaa0    ....    BL       am_devices_mspi_ds35x1ga_exit_command_mode ; 0x1939a
        0x00019e5a:    2001        .       MOVS     r0,#1
        0x00019e5c:    e768        h.      B        0x19d30 ; am_devices_mspi_ds35x1ga_timing_check_write + 28
        0x00019e5e:    e003        ..      B        0x19e68 ; am_devices_mspi_ds35x1ga_timing_check_write + 340
        0x00019e60:    e00a        ..      B        0x19e78 ; am_devices_mspi_ds35x1ga_timing_check_write + 356
        0x00019e62:    4630        0F      MOV      r0,r6
        0x00019e64:    f7fffa99    ....    BL       am_devices_mspi_ds35x1ga_exit_command_mode ; 0x1939a
        0x00019e68:    2001        .       MOVS     r0,#1
        0x00019e6a:    f003fa8f    ....    BL       am_util_delay_us ; 0x1d38c
        0x00019e6e:    f1090901    ....    ADD      r9,r9,#1
        0x00019e72:    4808        .H      LDR      r0,[pc,#32] ; [0x19e94] = 0xf4240
        0x00019e74:    4581        .E      CMP      r9,r0
        0x00019e76:    d3ae        ..      BCC      0x19dd6 ; am_devices_mspi_ds35x1ga_timing_check_write + 194
        0x00019e78:    bf00        ..      NOP      
        0x00019e7a:    f89d000c    ....    LDRB     r0,[sp,#0xc]
        0x00019e7e:    b908        ..      CBNZ     r0,0x19e84 ; am_devices_mspi_ds35x1ga_timing_check_write + 368
        0x00019e80:    2001        .       MOVS     r0,#1
        0x00019e82:    e755        U.      B        0x19d30 ; am_devices_mspi_ds35x1ga_timing_check_write + 28
        0x00019e84:    2000        .       MOVS     r0,#0
        0x00019e86:    e753        S.      B        0x19d30 ; am_devices_mspi_ds35x1ga_timing_check_write + 28
    $d
        0x00019e88:    10060040    @...    DCD    268828736
        0x00019e8c:    10060840    @...    DCD    268830784
        0x00019e90:    0001f031    1...    DCD    127025
        0x00019e94:    000f4240    @B..    DCD    1000000
    $t
    i.am_devices_mspi_ds35x1ga_tx_enter_ad4_mode
    am_devices_mspi_ds35x1ga_tx_enter_ad4_mode
        0x00019e98:    b570        p.      PUSH     {r4-r6,lr}
        0x00019e9a:    4604        .F      MOV      r4,r0
        0x00019e9c:    4625        %F      MOV      r5,r4
        0x00019e9e:    7c29        )|      LDRB     r1,[r5,#0x10]
        0x00019ea0:    2026        &       MOVS     r0,#0x26
        0x00019ea2:    5d40        @]      LDRB     r0,[r0,r5]
        0x00019ea4:    4281        .B      CMP      r1,r0
        0x00019ea6:    d101        ..      BNE      0x19eac ; am_devices_mspi_ds35x1ga_tx_enter_ad4_mode + 20
        0x00019ea8:    2000        .       MOVS     r0,#0
        0x00019eaa:    bd70        p.      POP      {r4-r6,pc}
        0x00019eac:    f1050208    ....    ADD      r2,r5,#8
        0x00019eb0:    2120         !      MOVS     r1,#0x20
        0x00019eb2:    6868        hh      LDR      r0,[r5,#4]
        0x00019eb4:    f001f89c    ....    BL       am_hal_mspi_control ; 0x1aff0
        0x00019eb8:    4606        .F      MOV      r6,r0
        0x00019eba:    b10e        ..      CBZ      r6,0x19ec0 ; am_devices_mspi_ds35x1ga_tx_enter_ad4_mode + 40
        0x00019ebc:    2001        .       MOVS     r0,#1
        0x00019ebe:    e7f4        ..      B        0x19eaa ; am_devices_mspi_ds35x1ga_tx_enter_ad4_mode + 18
        0x00019ec0:    2000        .       MOVS     r0,#0
        0x00019ec2:    e7f2        ..      B        0x19eaa ; am_devices_mspi_ds35x1ga_tx_enter_ad4_mode + 18
    i.am_devices_mspi_ds35x1ga_write
    am_devices_mspi_ds35x1ga_write
        0x00019ec4:    e92d4ff0    -..O    PUSH     {r4-r11,lr}
        0x00019ec8:    b08b        ..      SUB      sp,sp,#0x2c
        0x00019eca:    4605        .F      MOV      r5,r0
        0x00019ecc:    460c        .F      MOV      r4,r1
        0x00019ece:    4616        .F      MOV      r6,r2
        0x00019ed0:    461f        .F      MOV      r7,r3
        0x00019ed2:    e9dd9a14    ....    LDRD     r9,r10,[sp,#0x50]
        0x00019ed6:    46ab        .F      MOV      r11,r5
        0x00019ed8:    f5b43f80    ...?    CMP      r4,#0x10000
        0x00019edc:    d303        ..      BCC      0x19ee6 ; am_devices_mspi_ds35x1ga_write + 34
        0x00019ede:    2001        .       MOVS     r0,#1
        0x00019ee0:    b00b        ..      ADD      sp,sp,#0x2c
        0x00019ee2:    e8bd8ff0    ....    POP      {r4-r11,pc}
        0x00019ee6:    4628        (F      MOV      r0,r5
        0x00019ee8:    f7fffa42    ..B.    BL       am_devices_mspi_ds35x1ga_enter_command_mode ; 0x19370
        0x00019eec:    2000        .       MOVS     r0,#0
        0x00019eee:    9000        ..      STR      r0,[sp,#0]
        0x00019ef0:    4603        .F      MOV      r3,r0
        0x00019ef2:    4602        .F      MOV      r2,r0
        0x00019ef4:    2106        .!      MOVS     r1,#6
        0x00019ef6:    9001        ..      STR      r0,[sp,#4]
        0x00019ef8:    4628        (F      MOV      r0,r5
        0x00019efa:    f7fff981    ....    BL       am_devices_mspi_ds35x1ga_command_write ; 0x19200
        0x00019efe:    9004        ..      STR      r0,[sp,#0x10]
        0x00019f00:    9804        ..      LDR      r0,[sp,#0x10]
        0x00019f02:    b108        ..      CBZ      r0,0x19f08 ; am_devices_mspi_ds35x1ga_write + 68
        0x00019f04:    2001        .       MOVS     r0,#1
        0x00019f06:    e7eb        ..      B        0x19ee0 ; am_devices_mspi_ds35x1ga_write + 28
        0x00019f08:    4628        (F      MOV      r0,r5
        0x00019f0a:    f7fffa46    ..F.    BL       am_devices_mspi_ds35x1ga_exit_command_mode ; 0x1939a
        0x00019f0e:    463a        :F      MOV      r2,r7
        0x00019f10:    4631        1F      MOV      r1,r6
        0x00019f12:    483a        :H      LDR      r0,[pc,#232] ; [0x19ffc] = 0x10060040
        0x00019f14:    f7fefa8c    ....    BL       __aeabi_memcpy ; 0x18430
        0x00019f18:    4652        RF      MOV      r2,r10
        0x00019f1a:    4649        IF      MOV      r1,r9
        0x00019f1c:    4838        8H      LDR      r0,[pc,#224] ; [0x1a000] = 0x10060840
        0x00019f1e:    f7fefa87    ....    BL       __aeabi_memcpy ; 0x18430
        0x00019f22:    f44f6004    O..`    MOV      r0,#0x840
        0x00019f26:    9006        ..      STR      r0,[sp,#0x18]
        0x00019f28:    2001        .       MOVS     r0,#1
        0x00019f2a:    f88d0014    ....    STRB     r0,[sp,#0x14]
        0x00019f2e:    f88d0015    ....    STRB     r0,[sp,#0x15]
        0x00019f32:    2000        .       MOVS     r0,#0
        0x00019f34:    9007        ..      STR      r0,[sp,#0x1c]
        0x00019f36:    4831        1H      LDR      r0,[pc,#196] ; [0x19ffc] = 0x10060040
        0x00019f38:    9008        ..      STR      r0,[sp,#0x20]
        0x00019f3a:    2000        .       MOVS     r0,#0
        0x00019f3c:    9009        ..      STR      r0,[sp,#0x24]
        0x00019f3e:    900a        ..      STR      r0,[sp,#0x28]
        0x00019f40:    9003        ..      STR      r0,[sp,#0xc]
        0x00019f42:    a803        ..      ADD      r0,sp,#0xc
        0x00019f44:    9000        ..      STR      r0,[sp,#0]
        0x00019f46:    4b2f        /K      LDR      r3,[pc,#188] ; [0x1a004] = 0x1f031
        0x00019f48:    2201        ."      MOVS     r2,#1
        0x00019f4a:    a905        ..      ADD      r1,sp,#0x14
        0x00019f4c:    f8db0004    ....    LDR      r0,[r11,#4]
        0x00019f50:    f002fada    ....    BL       am_hal_mspi_nonblocking_transfer ; 0x1c508
        0x00019f54:    9004        ..      STR      r0,[sp,#0x10]
        0x00019f56:    9804        ..      LDR      r0,[sp,#0x10]
        0x00019f58:    b108        ..      CBZ      r0,0x19f5e ; am_devices_mspi_ds35x1ga_write + 154
        0x00019f5a:    2001        .       MOVS     r0,#1
        0x00019f5c:    e7c0        ..      B        0x19ee0 ; am_devices_mspi_ds35x1ga_write + 28
        0x00019f5e:    f04f0800    O...    MOV      r8,#0
        0x00019f62:    e040        @.      B        0x19fe6 ; am_devices_mspi_ds35x1ga_write + 290
        0x00019f64:    f89d000c    ....    LDRB     r0,[sp,#0xc]
        0x00019f68:    b398        ..      CBZ      r0,0x19fd2 ; am_devices_mspi_ds35x1ga_write + 270
        0x00019f6a:    4628        (F      MOV      r0,r5
        0x00019f6c:    f7fffa00    ....    BL       am_devices_mspi_ds35x1ga_enter_command_mode ; 0x19370
        0x00019f70:    2000        .       MOVS     r0,#0
        0x00019f72:    9000        ..      STR      r0,[sp,#0]
        0x00019f74:    4623        #F      MOV      r3,r4
        0x00019f76:    2201        ."      MOVS     r2,#1
        0x00019f78:    2110        .!      MOVS     r1,#0x10
        0x00019f7a:    9001        ..      STR      r0,[sp,#4]
        0x00019f7c:    4628        (F      MOV      r0,r5
        0x00019f7e:    f7fff93f    ..?.    BL       am_devices_mspi_ds35x1ga_command_write ; 0x19200
        0x00019f82:    9004        ..      STR      r0,[sp,#0x10]
        0x00019f84:    9804        ..      LDR      r0,[sp,#0x10]
        0x00019f86:    b120         .      CBZ      r0,0x19f92 ; am_devices_mspi_ds35x1ga_write + 206
        0x00019f88:    4628        (F      MOV      r0,r5
        0x00019f8a:    f7fffa06    ....    BL       am_devices_mspi_ds35x1ga_exit_command_mode ; 0x1939a
        0x00019f8e:    2001        .       MOVS     r0,#1
        0x00019f90:    e7a6        ..      B        0x19ee0 ; am_devices_mspi_ds35x1ga_write + 28
        0x00019f92:    aa04        ..      ADD      r2,sp,#0x10
        0x00019f94:    21c0        .!      MOVS     r1,#0xc0
        0x00019f96:    4628        (F      MOV      r0,r5
        0x00019f98:    f7fffcee    ....    BL       am_devices_mspi_ds35x1ga_read_status ; 0x19978
        0x00019f9c:    b9d8        ..      CBNZ     r0,0x19fd6 ; am_devices_mspi_ds35x1ga_write + 274
        0x00019f9e:    9804        ..      LDR      r0,[sp,#0x10]
        0x00019fa0:    f0000008    ....    AND      r0,r0,#8
        0x00019fa4:    2808        .(      CMP      r0,#8
        0x00019fa6:    d016        ..      BEQ      0x19fd6 ; am_devices_mspi_ds35x1ga_write + 274
        0x00019fa8:    9804        ..      LDR      r0,[sp,#0x10]
        0x00019faa:    f0000001    ....    AND      r0,r0,#1
        0x00019fae:    b990        ..      CBNZ     r0,0x19fd6 ; am_devices_mspi_ds35x1ga_write + 274
        0x00019fb0:    2000        .       MOVS     r0,#0
        0x00019fb2:    9000        ..      STR      r0,[sp,#0]
        0x00019fb4:    4603        .F      MOV      r3,r0
        0x00019fb6:    4602        .F      MOV      r2,r0
        0x00019fb8:    2104        .!      MOVS     r1,#4
        0x00019fba:    9001        ..      STR      r0,[sp,#4]
        0x00019fbc:    4628        (F      MOV      r0,r5
        0x00019fbe:    f7fff91f    ....    BL       am_devices_mspi_ds35x1ga_command_write ; 0x19200
        0x00019fc2:    9004        ..      STR      r0,[sp,#0x10]
        0x00019fc4:    9804        ..      LDR      r0,[sp,#0x10]
        0x00019fc6:    b128        (.      CBZ      r0,0x19fd4 ; am_devices_mspi_ds35x1ga_write + 272
        0x00019fc8:    4628        (F      MOV      r0,r5
        0x00019fca:    f7fff9e6    ....    BL       am_devices_mspi_ds35x1ga_exit_command_mode ; 0x1939a
        0x00019fce:    2001        .       MOVS     r0,#1
        0x00019fd0:    e786        ..      B        0x19ee0 ; am_devices_mspi_ds35x1ga_write + 28
        0x00019fd2:    e003        ..      B        0x19fdc ; am_devices_mspi_ds35x1ga_write + 280
        0x00019fd4:    e00a        ..      B        0x19fec ; am_devices_mspi_ds35x1ga_write + 296
        0x00019fd6:    4628        (F      MOV      r0,r5
        0x00019fd8:    f7fff9df    ....    BL       am_devices_mspi_ds35x1ga_exit_command_mode ; 0x1939a
        0x00019fdc:    2001        .       MOVS     r0,#1
        0x00019fde:    f003f9d5    ....    BL       am_util_delay_us ; 0x1d38c
        0x00019fe2:    f1080801    ....    ADD      r8,r8,#1
        0x00019fe6:    4808        .H      LDR      r0,[pc,#32] ; [0x1a008] = 0xf4240
        0x00019fe8:    4580        .E      CMP      r8,r0
        0x00019fea:    d3bb        ..      BCC      0x19f64 ; am_devices_mspi_ds35x1ga_write + 160
        0x00019fec:    bf00        ..      NOP      
        0x00019fee:    f89d000c    ....    LDRB     r0,[sp,#0xc]
        0x00019ff2:    b908        ..      CBNZ     r0,0x19ff8 ; am_devices_mspi_ds35x1ga_write + 308
        0x00019ff4:    2001        .       MOVS     r0,#1
        0x00019ff6:    e773        s.      B        0x19ee0 ; am_devices_mspi_ds35x1ga_write + 28
        0x00019ff8:    2000        .       MOVS     r0,#0
        0x00019ffa:    e771        q.      B        0x19ee0 ; am_devices_mspi_ds35x1ga_write + 28
    $d
        0x00019ffc:    10060040    @...    DCD    268828736
        0x0001a000:    10060840    @...    DCD    268830784
        0x0001a004:    0001f031    1...    DCD    127025
        0x0001a008:    000f4240    @B..    DCD    1000000
    $t
    i.am_devices_mspi_ds35x1ga_write_status
    am_devices_mspi_ds35x1ga_write_status
        0x0001a00c:    b57f        ..      PUSH     {r0-r6,lr}
        0x0001a00e:    b084        ..      SUB      sp,sp,#0x10
        0x0001a010:    4606        .F      MOV      r6,r0
        0x0001a012:    4614        .F      MOV      r4,r2
        0x0001a014:    461d        .F      MOV      r5,r3
        0x0001a016:    2000        .       MOVS     r0,#0
        0x0001a018:    9003        ..      STR      r0,[sp,#0xc]
        0x0001a01a:    2001        .       MOVS     r0,#1
        0x0001a01c:    a905        ..      ADD      r1,sp,#0x14
        0x0001a01e:    4623        #F      MOV      r3,r4
        0x0001a020:    4602        .F      MOV      r2,r0
        0x0001a022:    e9cd1000    ....    STRD     r1,r0,[sp,#0]
        0x0001a026:    211f        .!      MOVS     r1,#0x1f
        0x0001a028:    4630        0F      MOV      r0,r6
        0x0001a02a:    f7fff8e9    ....    BL       am_devices_mspi_ds35x1ga_command_write ; 0x19200
        0x0001a02e:    b110        ..      CBZ      r0,0x1a036 ; am_devices_mspi_ds35x1ga_write_status + 42
        0x0001a030:    2001        .       MOVS     r0,#1
        0x0001a032:    b008        ..      ADD      sp,sp,#0x20
        0x0001a034:    bd70        p.      POP      {r4-r6,pc}
        0x0001a036:    2001        .       MOVS     r0,#1
        0x0001a038:    a903        ..      ADD      r1,sp,#0xc
        0x0001a03a:    4623        #F      MOV      r3,r4
        0x0001a03c:    4602        .F      MOV      r2,r0
        0x0001a03e:    e9cd1000    ....    STRD     r1,r0,[sp,#0]
        0x0001a042:    210f        .!      MOVS     r1,#0xf
        0x0001a044:    4630        0F      MOV      r0,r6
        0x0001a046:    f7fff889    ....    BL       am_devices_mspi_ds35x1ga_command_read ; 0x1915c
        0x0001a04a:    b108        ..      CBZ      r0,0x1a050 ; am_devices_mspi_ds35x1ga_write_status + 68
        0x0001a04c:    2001        .       MOVS     r0,#1
        0x0001a04e:    e7f0        ..      B        0x1a032 ; am_devices_mspi_ds35x1ga_write_status + 38
        0x0001a050:    f89d000c    ....    LDRB     r0,[sp,#0xc]
        0x0001a054:    7028        (p      STRB     r0,[r5,#0]
        0x0001a056:    2000        .       MOVS     r0,#0
        0x0001a058:    e7eb        ..      B        0x1a032 ; am_devices_mspi_ds35x1ga_write_status + 38
    i.am_hal_cachectrl_config
    am_hal_cachectrl_config
        0x0001a05a:    b538        8.      PUSH     {r3-r5,lr}
        0x0001a05c:    4604        .F      MOV      r4,r0
        0x0001a05e:    f7fef981    ....    BL       am_hal_interrupt_master_disable ; 0x18364
        0x0001a062:    f04f4590    O..E    MOV      r5,#0x48000000
        0x0001a066:    9000        ..      STR      r0,[sp,#0]
        0x0001a068:    6828        (h      LDR      r0,[r5,#0]
        0x0001a06a:    f4207040     .@p    BIC      r0,r0,#0x300
        0x0001a06e:    6028        (`      STR      r0,[r5,#0]
        0x0001a070:    9800        ..      LDR      r0,[sp,#0]
        0x0001a072:    f7fef97b    ..{.    BL       am_hal_interrupt_master_set ; 0x1836c
        0x0001a076:    78a0        .x      LDRB     r0,[r4,#2]
        0x0001a078:    2102        .!      MOVS     r1,#2
        0x0001a07a:    ea010040    ..@.    AND      r0,r1,r0,LSL #1
        0x0001a07e:    7821        !x      LDRB     r1,[r4,#0]
        0x0001a080:    22f0        ."      MOVS     r2,#0xf0
        0x0001a082:    ea021101    ....    AND      r1,r2,r1,LSL #4
        0x0001a086:    4308        .C      ORRS     r0,r0,r1
        0x0001a088:    7861        ax      LDRB     r1,[r4,#1]
        0x0001a08a:    f44f7240    O.@r    MOV      r2,#0x300
        0x0001a08e:    ea022101    ...!    AND      r1,r2,r1,LSL #8
        0x0001a092:    4308        .C      ORRS     r0,r0,r1
        0x0001a094:    f4406080    @..`    ORR      r0,r0,#0x400
        0x0001a098:    f4401080    @...    ORR      r0,r0,#0x100000
        0x0001a09c:    6028        (`      STR      r0,[r5,#0]
        0x0001a09e:    2000        .       MOVS     r0,#0
        0x0001a0a0:    bd38        8.      POP      {r3-r5,pc}
    i.am_hal_cachectrl_enable
    am_hal_cachectrl_enable
        0x0001a0a2:    f04f4090    O..@    MOV      r0,#0x48000000
        0x0001a0a6:    6801        .h      LDR      r1,[r0,#0]
        0x0001a0a8:    f0410101    A...    ORR      r1,r1,#1
        0x0001a0ac:    6001        .`      STR      r1,[r0,#0]
        0x0001a0ae:    6881        .h      LDR      r1,[r0,#8]
        0x0001a0b0:    f0410101    A...    ORR      r1,r1,#1
        0x0001a0b4:    6081        .`      STR      r1,[r0,#8]
        0x0001a0b6:    2000        .       MOVS     r0,#0
        0x0001a0b8:    4770        pG      BX       lr
        0x0001a0ba:    0000        ..      MOVS     r0,r0
    i.am_hal_cmdq_alloc_block
    am_hal_cmdq_alloc_block
        0x0001a0bc:    b5f8        ..      PUSH     {r3-r7,lr}
        0x0001a0be:    461e        .F      MOV      r6,r3
        0x0001a0c0:    4617        .F      MOV      r7,r2
        0x0001a0c2:    460d        .F      MOV      r5,r1
        0x0001a0c4:    1e04        ..      SUBS     r4,r0,#0
        0x0001a0c6:    bf1c        ..      ITT      NE
        0x0001a0c8:    6820         h      LDRNE    r0,[r4,#0]
        0x0001a0ca:    f0107f80    ....    TSTNE    r0,#0x1000000
        0x0001a0ce:    d004        ..      BEQ      0x1a0da ; am_hal_cmdq_alloc_block + 30
        0x0001a0d0:    492c        ,I      LDR      r1,[pc,#176] ; [0x1a184] = 0xcdcdcd
        0x0001a0d2:    f020407f     ..@    BIC      r0,r0,#0xff000000
        0x0001a0d6:    4288        .B      CMP      r0,r1
        0x0001a0d8:    d001        ..      BEQ      0x1a0de ; am_hal_cmdq_alloc_block + 34
        0x0001a0da:    2002        .       MOVS     r0,#2
        0x0001a0dc:    bdf8        ..      POP      {r3-r7,pc}
        0x0001a0de:    2f00        ./      CMP      r7,#0
        0x0001a0e0:    bf12        ..      ITEE     NE
        0x0001a0e2:    2e00        ..      CMPNE    r6,#0
        0x0001a0e4:    2006        .       MOVEQ    r0,#6
        0x0001a0e6:    bdf8        ..      POPEQ    {r3-r7,pc}
        0x0001a0e8:    e9d40104    ....    LDRD     r0,r1,[r4,#0x10]
        0x0001a0ec:    4288        .B      CMP      r0,r1
        0x0001a0ee:    bf1c        ..      ITT      NE
        0x0001a0f0:    2007        .       MOVNE    r0,#7
        0x0001a0f2:    bdf8        ..      POPNE    {r3-r7,pc}
        0x0001a0f4:    f7fef936    ..6.    BL       am_hal_interrupt_master_disable ; 0x18364
        0x0001a0f8:    9000        ..      STR      r0,[sp,#0]
        0x0001a0fa:    6a60        `j      LDR      r0,[r4,#0x24]
        0x0001a0fc:    6880        .h      LDR      r0,[r0,#8]
        0x0001a0fe:    6800        .h      LDR      r0,[r0,#0]
        0x0001a100:    6a21        !j      LDR      r1,[r4,#0x20]
        0x0001a102:    b2c0        ..      UXTB     r0,r0
        0x0001a104:    f02101ff    !...    BIC      r1,r1,#0xff
        0x0001a108:    4308        .C      ORRS     r0,r0,r1
        0x0001a10a:    61e0        .a      STR      r0,[r4,#0x1c]
        0x0001a10c:    6a21        !j      LDR      r1,[r4,#0x20]
        0x0001a10e:    1a09        ..      SUBS     r1,r1,r0
        0x0001a110:    bf44        D.      ITT      MI
        0x0001a112:    f5a07080    ...p    SUBMI    r0,r0,#0x100
        0x0001a116:    61e0        .a      STRMI    r0,[r4,#0x1c]
        0x0001a118:    6a60        `j      LDR      r0,[r4,#0x24]
        0x0001a11a:    6840        @h      LDR      r0,[r0,#4]
        0x0001a11c:    6800        .h      LDR      r0,[r0,#0]
        0x0001a11e:    60e0        .`      STR      r0,[r4,#0xc]
        0x0001a120:    9800        ..      LDR      r0,[sp,#0]
        0x0001a122:    f7fef923    ..#.    BL       am_hal_interrupt_master_set ; 0x1836c
        0x0001a126:    e9d40107    ....    LDRD     r0,r1,[r4,#0x1c]
        0x0001a12a:    1a40        @.      SUBS     r0,r0,r1
        0x0001a12c:    f1100ffe    ....    CMN      r0,#0xfe
        0x0001a130:    d41c        ..      BMI      0x1a16c ; am_hal_cmdq_alloc_block + 176
        0x0001a132:    e9d42003    ...     LDRD     r2,r0,[r4,#0xc]
        0x0001a136:    2108        .!      MOVS     r1,#8
        0x0001a138:    eb0101c5    ....    ADD      r1,r1,r5,LSL #3
        0x0001a13c:    4290        .B      CMP      r0,r2
        0x0001a13e:    d312        ..      BCC      0x1a166 ; am_hal_cmdq_alloc_block + 170
        0x0001a140:    2310        .#      MOVS     r3,#0x10
        0x0001a142:    eb0303c5    ....    ADD      r3,r3,r5,LSL #3
        0x0001a146:    f8d4c008    ....    LDR      r12,[r4,#8]
        0x0001a14a:    4403        .D      ADD      r3,r3,r0
        0x0001a14c:    4563        cE      CMP      r3,r12
        0x0001a14e:    d90f        ..      BLS      0x1a170 ; am_hal_cmdq_alloc_block + 180
        0x0001a150:    6863        ch      LDR      r3,[r4,#4]
        0x0001a152:    4419        .D      ADD      r1,r1,r3
        0x0001a154:    428a        .B      CMP      r2,r1
        0x0001a156:    d909        ..      BLS      0x1a16c ; am_hal_cmdq_alloc_block + 176
        0x0001a158:    6a61        aj      LDR      r1,[r4,#0x24]
        0x0001a15a:    6849        Ih      LDR      r1,[r1,#4]
        0x0001a15c:    6001        .`      STR      r1,[r0,#0]
        0x0001a15e:    6861        ah      LDR      r1,[r4,#4]
        0x0001a160:    6041        A`      STR      r1,[r0,#4]
        0x0001a162:    6860        `h      LDR      r0,[r4,#4]
        0x0001a164:    e004        ..      B        0x1a170 ; am_hal_cmdq_alloc_block + 180
        0x0001a166:    4401        .D      ADD      r1,r1,r0
        0x0001a168:    4291        .B      CMP      r1,r2
        0x0001a16a:    d301        ..      BCC      0x1a170 ; am_hal_cmdq_alloc_block + 180
        0x0001a16c:    2005        .       MOVS     r0,#5
        0x0001a16e:    bdf8        ..      POP      {r3-r7,pc}
        0x0001a170:    6038        8`      STR      r0,[r7,#0]
        0x0001a172:    6a21        !j      LDR      r1,[r4,#0x20]
        0x0001a174:    eb0000c5    ....    ADD      r0,r0,r5,LSL #3
        0x0001a178:    1c49        I.      ADDS     r1,r1,#1
        0x0001a17a:    6221        !b      STR      r1,[r4,#0x20]
        0x0001a17c:    6031        1`      STR      r1,[r6,#0]
        0x0001a17e:    6160        `a      STR      r0,[r4,#0x14]
        0x0001a180:    2000        .       MOVS     r0,#0
        0x0001a182:    bdf8        ..      POP      {r3-r7,pc}
    $d
        0x0001a184:    00cdcdcd    ....    DCD    13487565
    $t
    i.am_hal_cmdq_disable
    am_hal_cmdq_disable
        0x0001a188:    2800        .(      CMP      r0,#0
        0x0001a18a:    bf1c        ..      ITT      NE
        0x0001a18c:    6801        .h      LDRNE    r1,[r0,#0]
        0x0001a18e:    f0117f80    ....    TSTNE    r1,#0x1000000
        0x0001a192:    d004        ..      BEQ      0x1a19e ; am_hal_cmdq_disable + 22
        0x0001a194:    4b0b        .K      LDR      r3,[pc,#44] ; [0x1a1c4] = 0xcdcdcd
        0x0001a196:    f021427f    !..B    BIC      r2,r1,#0xff000000
        0x0001a19a:    429a        .B      CMP      r2,r3
        0x0001a19c:    d001        ..      BEQ      0x1a1a2 ; am_hal_cmdq_disable + 26
        0x0001a19e:    2002        .       MOVS     r0,#2
        0x0001a1a0:    4770        pG      BX       lr
        0x0001a1a2:    f0117f00    ....    TST      r1,#0x2000000
        0x0001a1a6:    bf04        ..      ITT      EQ
        0x0001a1a8:    2000        .       MOVEQ    r0,#0
        0x0001a1aa:    4770        pG      BXEQ     lr
        0x0001a1ac:    6a41        Aj      LDR      r1,[r0,#0x24]
        0x0001a1ae:    6809        .h      LDR      r1,[r1,#0]
        0x0001a1b0:    680a        .h      LDR      r2,[r1,#0]
        0x0001a1b2:    f0220201    "...    BIC      r2,r2,#1
        0x0001a1b6:    600a        .`      STR      r2,[r1,#0]
        0x0001a1b8:    6801        .h      LDR      r1,[r0,#0]
        0x0001a1ba:    f0217100    !..q    BIC      r1,r1,#0x2000000
        0x0001a1be:    6001        .`      STR      r1,[r0,#0]
        0x0001a1c0:    2000        .       MOVS     r0,#0
        0x0001a1c2:    4770        pG      BX       lr
    $d
        0x0001a1c4:    00cdcdcd    ....    DCD    13487565
    $t
    i.am_hal_cmdq_enable
    am_hal_cmdq_enable
        0x0001a1c8:    b510        ..      PUSH     {r4,lr}
        0x0001a1ca:    1e04        ..      SUBS     r4,r0,#0
        0x0001a1cc:    bf1c        ..      ITT      NE
        0x0001a1ce:    6820         h      LDRNE    r0,[r4,#0]
        0x0001a1d0:    f0107f80    ....    TSTNE    r0,#0x1000000
        0x0001a1d4:    d004        ..      BEQ      0x1a1e0 ; am_hal_cmdq_enable + 24
        0x0001a1d6:    4a10        .J      LDR      r2,[pc,#64] ; [0x1a218] = 0xcdcdcd
        0x0001a1d8:    f020417f     ..A    BIC      r1,r0,#0xff000000
        0x0001a1dc:    4291        .B      CMP      r1,r2
        0x0001a1de:    d001        ..      BEQ      0x1a1e4 ; am_hal_cmdq_enable + 28
        0x0001a1e0:    2002        .       MOVS     r0,#2
        0x0001a1e2:    bd10        ..      POP      {r4,pc}
        0x0001a1e4:    f0107f00    ....    TST      r0,#0x2000000
        0x0001a1e8:    bf1c        ..      ITT      NE
        0x0001a1ea:    2000        .       MOVNE    r0,#0
        0x0001a1ec:    bd10        ..      POPNE    {r4,pc}
        0x0001a1ee:    490b        .I      LDR      r1,[pc,#44] ; [0x1a21c] = 0x10060000
        0x0001a1f0:    68a0        .h      LDR      r0,[r4,#8]
        0x0001a1f2:    4288        .B      CMP      r0,r1
        0x0001a1f4:    d303        ..      BCC      0x1a1fe ; am_hal_cmdq_enable + 54
        0x0001a1f6:    2100        .!      MOVS     r1,#0
        0x0001a1f8:    2001        .       MOVS     r0,#1
        0x0001a1fa:    f000fa5d    ..].    BL       am_hal_daxi_control ; 0x1a6b8
        0x0001a1fe:    6a60        `j      LDR      r0,[r4,#0x24]
        0x0001a200:    6800        .h      LDR      r0,[r0,#0]
        0x0001a202:    6801        .h      LDR      r1,[r0,#0]
        0x0001a204:    f0410101    A...    ORR      r1,r1,#1
        0x0001a208:    6001        .`      STR      r1,[r0,#0]
        0x0001a20a:    6820         h      LDR      r0,[r4,#0]
        0x0001a20c:    f0407000    @..p    ORR      r0,r0,#0x2000000
        0x0001a210:    6020         `      STR      r0,[r4,#0]
        0x0001a212:    2000        .       MOVS     r0,#0
        0x0001a214:    bd10        ..      POP      {r4,pc}
    $d
        0x0001a216:    0000        ..      DCW    0
        0x0001a218:    00cdcdcd    ....    DCD    13487565
        0x0001a21c:    10060000    ....    DCD    268828672
    $t
    i.am_hal_cmdq_error_resume
    am_hal_cmdq_error_resume
        0x0001a220:    2800        .(      CMP      r0,#0
        0x0001a222:    bf1c        ..      ITT      NE
        0x0001a224:    6801        .h      LDRNE    r1,[r0,#0]
        0x0001a226:    f0117f80    ....    TSTNE    r1,#0x1000000
        0x0001a22a:    d004        ..      BEQ      0x1a236 ; am_hal_cmdq_error_resume + 22
        0x0001a22c:    4b18        .K      LDR      r3,[pc,#96] ; [0x1a290] = 0xcdcdcd
        0x0001a22e:    f021427f    !..B    BIC      r2,r1,#0xff000000
        0x0001a232:    429a        .B      CMP      r2,r3
        0x0001a234:    d001        ..      BEQ      0x1a23a ; am_hal_cmdq_error_resume + 26
        0x0001a236:    2002        .       MOVS     r0,#2
        0x0001a238:    4770        pG      BX       lr
        0x0001a23a:    f0117f00    ....    TST      r1,#0x2000000
        0x0001a23e:    bf04        ..      ITT      EQ
        0x0001a240:    2000        .       MOVEQ    r0,#0
        0x0001a242:    4770        pG      BXEQ     lr
        0x0001a244:    6a41        Aj      LDR      r1,[r0,#0x24]
        0x0001a246:    6809        .h      LDR      r1,[r1,#0]
        0x0001a248:    680a        .h      LDR      r2,[r1,#0]
        0x0001a24a:    f0220201    "...    BIC      r2,r2,#1
        0x0001a24e:    600a        .`      STR      r2,[r1,#0]
        0x0001a250:    6a42        Bj      LDR      r2,[r0,#0x24]
        0x0001a252:    6853        Sh      LDR      r3,[r2,#4]
        0x0001a254:    6819        .h      LDR      r1,[r3,#0]
        0x0001a256:    6892        .h      LDR      r2,[r2,#8]
        0x0001a258:    f8d1c000    ....    LDR      r12,[r1,#0]
        0x0001a25c:    f02c0c01    ,...    BIC      r12,r12,#1
        0x0001a260:    4594        .E      CMP      r12,r2
        0x0001a262:    d00b        ..      BEQ      0x1a27c ; am_hal_cmdq_error_resume + 92
        0x0001a264:    f8d1c000    ....    LDR      r12,[r1,#0]
        0x0001a268:    459c        .E      CMP      r12,r3
        0x0001a26a:    bf0c        ..      ITE      EQ
        0x0001a26c:    6849        Ih      LDREQ    r1,[r1,#4]
        0x0001a26e:    3108        .1      ADDNE    r1,r1,#8
        0x0001a270:    f8d1c000    ....    LDR      r12,[r1,#0]
        0x0001a274:    f02c0c01    ,...    BIC      r12,r12,#1
        0x0001a278:    4594        .E      CMP      r12,r2
        0x0001a27a:    d1f3        ..      BNE      0x1a264 ; am_hal_cmdq_error_resume + 68
        0x0001a27c:    600a        .`      STR      r2,[r1,#0]
        0x0001a27e:    6a42        Bj      LDR      r2,[r0,#0x24]
        0x0001a280:    6852        Rh      LDR      r2,[r2,#4]
        0x0001a282:    6011        .`      STR      r1,[r2,#0]
        0x0001a284:    6801        .h      LDR      r1,[r0,#0]
        0x0001a286:    f0217100    !..q    BIC      r1,r1,#0x2000000
        0x0001a28a:    6001        .`      STR      r1,[r0,#0]
        0x0001a28c:    2000        .       MOVS     r0,#0
        0x0001a28e:    4770        pG      BX       lr
    $d
        0x0001a290:    00cdcdcd    ....    DCD    13487565
    $t
    i.am_hal_cmdq_get_status
    am_hal_cmdq_get_status
        0x0001a294:    b538        8.      PUSH     {r3-r5,lr}
        0x0001a296:    460d        .F      MOV      r5,r1
        0x0001a298:    1e04        ..      SUBS     r4,r0,#0
        0x0001a29a:    bf1c        ..      ITT      NE
        0x0001a29c:    6820         h      LDRNE    r0,[r4,#0]
        0x0001a29e:    f0107f80    ....    TSTNE    r0,#0x1000000
        0x0001a2a2:    d004        ..      BEQ      0x1a2ae ; am_hal_cmdq_get_status + 26
        0x0001a2a4:    4923        #I      LDR      r1,[pc,#140] ; [0x1a334] = 0xcdcdcd
        0x0001a2a6:    f020407f     ..@    BIC      r0,r0,#0xff000000
        0x0001a2aa:    4288        .B      CMP      r0,r1
        0x0001a2ac:    d001        ..      BEQ      0x1a2b2 ; am_hal_cmdq_get_status + 30
        0x0001a2ae:    2002        .       MOVS     r0,#2
        0x0001a2b0:    bd38        8.      POP      {r3-r5,pc}
        0x0001a2b2:    2d00        .-      CMP      r5,#0
        0x0001a2b4:    bf04        ..      ITT      EQ
        0x0001a2b6:    2006        .       MOVEQ    r0,#6
        0x0001a2b8:    bd38        8.      POPEQ    {r3-r5,pc}
        0x0001a2ba:    f7fef853    ..S.    BL       am_hal_interrupt_master_disable ; 0x18364
        0x0001a2be:    9000        ..      STR      r0,[sp,#0]
        0x0001a2c0:    6a60        `j      LDR      r0,[r4,#0x24]
        0x0001a2c2:    6880        .h      LDR      r0,[r0,#8]
        0x0001a2c4:    6800        .h      LDR      r0,[r0,#0]
        0x0001a2c6:    6a21        !j      LDR      r1,[r4,#0x20]
        0x0001a2c8:    b2c0        ..      UXTB     r0,r0
        0x0001a2ca:    f02101ff    !...    BIC      r1,r1,#0xff
        0x0001a2ce:    4308        .C      ORRS     r0,r0,r1
        0x0001a2d0:    61e0        .a      STR      r0,[r4,#0x1c]
        0x0001a2d2:    6a21        !j      LDR      r1,[r4,#0x20]
        0x0001a2d4:    1a09        ..      SUBS     r1,r1,r0
        0x0001a2d6:    bf44        D.      ITT      MI
        0x0001a2d8:    f5a07080    ...p    SUBMI    r0,r0,#0x100
        0x0001a2dc:    61e0        .a      STRMI    r0,[r4,#0x1c]
        0x0001a2de:    6a60        `j      LDR      r0,[r4,#0x24]
        0x0001a2e0:    6840        @h      LDR      r0,[r0,#4]
        0x0001a2e2:    6800        .h      LDR      r0,[r0,#0]
        0x0001a2e4:    60e0        .`      STR      r0,[r4,#0xc]
        0x0001a2e6:    9800        ..      LDR      r0,[sp,#0]
        0x0001a2e8:    f7fef840    ..@.    BL       am_hal_interrupt_master_set ; 0x1836c
        0x0001a2ec:    69e0        .i      LDR      r0,[r4,#0x1c]
        0x0001a2ee:    6028        (`      STR      r0,[r5,#0]
        0x0001a2f0:    6a20         j      LDR      r0,[r4,#0x20]
        0x0001a2f2:    60a8        .`      STR      r0,[r5,#8]
        0x0001a2f4:    e9d40104    ....    LDRD     r0,r1,[r4,#0x10]
        0x0001a2f8:    4281        .B      CMP      r1,r0
        0x0001a2fa:    bf14        ..      ITE      NE
        0x0001a2fc:    2001        .       MOVNE    r0,#1
        0x0001a2fe:    2000        .       MOVEQ    r0,#0
        0x0001a300:    6a21        !j      LDR      r1,[r4,#0x20]
        0x0001a302:    1a08        ..      SUBS     r0,r1,r0
        0x0001a304:    6068        h`      STR      r0,[r5,#4]
        0x0001a306:    6a61        aj      LDR      r1,[r4,#0x24]
        0x0001a308:    6988        .i      LDR      r0,[r1,#0x18]
        0x0001a30a:    6800        .h      LDR      r0,[r0,#0]
        0x0001a30c:    69c9        .i      LDR      r1,[r1,#0x1c]
        0x0001a30e:    4001        .@      ANDS     r1,r1,r0
        0x0001a310:    bf18        ..      IT       NE
        0x0001a312:    2101        .!      MOVNE    r1,#1
        0x0001a314:    7329        )s      STRB     r1,[r5,#0xc]
        0x0001a316:    6a61        aj      LDR      r1,[r4,#0x24]
        0x0001a318:    6a49        Ij      LDR      r1,[r1,#0x24]
        0x0001a31a:    4001        .@      ANDS     r1,r1,r0
        0x0001a31c:    bf18        ..      IT       NE
        0x0001a31e:    2101        .!      MOVNE    r1,#1
        0x0001a320:    7369        is      STRB     r1,[r5,#0xd]
        0x0001a322:    6a61        aj      LDR      r1,[r4,#0x24]
        0x0001a324:    6a09        .j      LDR      r1,[r1,#0x20]
        0x0001a326:    4008        .@      ANDS     r0,r0,r1
        0x0001a328:    bf18        ..      IT       NE
        0x0001a32a:    2001        .       MOVNE    r0,#1
        0x0001a32c:    73a8        .s      STRB     r0,[r5,#0xe]
        0x0001a32e:    2000        .       MOVS     r0,#0
        0x0001a330:    bd38        8.      POP      {r3-r5,pc}
    $d
        0x0001a332:    0000        ..      DCW    0
        0x0001a334:    00cdcdcd    ....    DCD    13487565
    $t
    i.am_hal_cmdq_init
    am_hal_cmdq_init
        0x0001a338:    280b        .(      CMP      r0,#0xb
        0x0001a33a:    bf24        $.      ITT      CS
        0x0001a33c:    2005        .       MOVCS    r0,#5
        0x0001a33e:    4770        pG      BXCS     lr
        0x0001a340:    2900        .)      CMP      r1,#0
        0x0001a342:    bf1e        ..      ITTT     NE
        0x0001a344:    684b        Kh      LDRNE    r3,[r1,#4]
        0x0001a346:    2b00        .+      CMPNE    r3,#0
        0x0001a348:    2a00        .*      CMPNE    r2,#0
        0x0001a34a:    d004        ..      BEQ      0x1a356 ; am_hal_cmdq_init + 30
        0x0001a34c:    f8d1c000    ....    LDR      r12,[r1,#0]
        0x0001a350:    f1bc0f02    ....    CMP      r12,#2
        0x0001a354:    d201        ..      BCS      0x1a35a ; am_hal_cmdq_init + 34
        0x0001a356:    2006        .       MOVS     r0,#6
        0x0001a358:    4770        pG      BX       lr
        0x0001a35a:    b430        0.      PUSH     {r4,r5}
        0x0001a35c:    eb000340    ..@.    ADD      r3,r0,r0,LSL #1
        0x0001a360:    4c2e        .L      LDR      r4,[pc,#184] ; [0x1a41c] = 0x10004b80
        0x0001a362:    eb0303c0    ....    ADD      r3,r3,r0,LSL #3
        0x0001a366:    f8545023    T.#P    LDR      r5,[r4,r3,LSL #2]
        0x0001a36a:    f0157f80    ....    TST      r5,#0x1000000
        0x0001a36e:    bf1e        ..      ITTT     NE
        0x0001a370:    2007        .       MOVNE    r0,#7
        0x0001a372:    bc30        0.      POPNE    {r4,r5}
        0x0001a374:    4770        pG      BXNE     lr
        0x0001a376:    eb040383    ....    ADD      r3,r4,r3,LSL #2
        0x0001a37a:    ea4f0ccc    O...    LSL      r12,r12,#3
        0x0001a37e:    f8c3c018    ....    STR      r12,[r3,#0x18]
        0x0001a382:    f8d1c004    ....    LDR      r12,[r1,#4]
        0x0001a386:    f8c3c004    ....    STR      r12,[r3,#4]
        0x0001a38a:    f8c3c00c    ....    STR      r12,[r3,#0xc]
        0x0001a38e:    f8c3c014    ....    STR      r12,[r3,#0x14]
        0x0001a392:    f8c3c010    ....    STR      r12,[r3,#0x10]
        0x0001a396:    e9d14c00    ...L    LDRD     r4,r12,[r1,#0]
        0x0001a39a:    eb0c0cc4    ....    ADD      r12,r12,r4,LSL #3
        0x0001a39e:    f8c3c008    ....    STR      r12,[r3,#8]
        0x0001a3a2:    f8d3c000    ....    LDR      r12,[r3,#0]
        0x0001a3a6:    4c1e        .L      LDR      r4,[pc,#120] ; [0x1a420] = 0xcdcdcd
        0x0001a3a8:    f02c7c00    ,..|    BIC      r12,r12,#0x2000000
        0x0001a3ac:    f04c7c80    L..|    ORR      r12,r12,#0x1000000
        0x0001a3b0:    f3640c17    d...    BFI      r12,r4,#0,#24
        0x0001a3b4:    f8c3c000    ....    STR      r12,[r3,#0]
        0x0001a3b8:    f8dfc068    ..h.    LDR      r12,[pc,#104] ; [0x1a424] = 0x1f81c
        0x0001a3bc:    eb000080    ....    ADD      r0,r0,r0,LSL #2
        0x0001a3c0:    eb0c00c0    ....    ADD      r0,r12,r0,LSL #3
        0x0001a3c4:    6258        Xb      STR      r0,[r3,#0x24]
        0x0001a3c6:    2000        .       MOVS     r0,#0
        0x0001a3c8:    61d8        .a      STR      r0,[r3,#0x1c]
        0x0001a3ca:    6218        .b      STR      r0,[r3,#0x20]
        0x0001a3cc:    f8d3c024    ..$.    LDR      r12,[r3,#0x24]
        0x0001a3d0:    f8dcc008    ....    LDR      r12,[r12,#8]
        0x0001a3d4:    f8cc0000    ....    STR      r0,[r12,#0]
        0x0001a3d8:    f8d3c024    ..$.    LDR      r12,[r3,#0x24]
        0x0001a3dc:    f8dcc00c    ....    LDR      r12,[r12,#0xc]
        0x0001a3e0:    f8cc0000    ....    STR      r0,[r12,#0]
        0x0001a3e4:    6a58        Xj      LDR      r0,[r3,#0x24]
        0x0001a3e6:    f8d0c010    ....    LDR      r12,[r0,#0x10]
        0x0001a3ea:    f8dc4000    ...@    LDR      r4,[r12,#0]
        0x0001a3ee:    6940        @i      LDR      r0,[r0,#0x14]
        0x0001a3f0:    4320         C      ORRS     r0,r0,r4
        0x0001a3f2:    f8cc0000    ....    STR      r0,[r12,#0]
        0x0001a3f6:    f8d3c024    ..$.    LDR      r12,[r3,#0x24]
        0x0001a3fa:    6848        Hh      LDR      r0,[r1,#4]
        0x0001a3fc:    f8dcc004    ....    LDR      r12,[r12,#4]
        0x0001a400:    f8cc0000    ....    STR      r0,[r12,#0]
        0x0001a404:    7a08        .z      LDRB     r0,[r1,#8]
        0x0001a406:    2102        .!      MOVS     r1,#2
        0x0001a408:    ea010040    ..@.    AND      r0,r1,r0,LSL #1
        0x0001a40c:    6a59        Yj      LDR      r1,[r3,#0x24]
        0x0001a40e:    6809        .h      LDR      r1,[r1,#0]
        0x0001a410:    6008        .`      STR      r0,[r1,#0]
        0x0001a412:    6013        .`      STR      r3,[r2,#0]
        0x0001a414:    bc30        0.      POP      {r4,r5}
        0x0001a416:    2000        .       MOVS     r0,#0
        0x0001a418:    4770        pG      BX       lr
    $d
        0x0001a41a:    0000        ..      DCW    0
        0x0001a41c:    10004b80    .K..    DCD    268454784
        0x0001a420:    00cdcdcd    ....    DCD    13487565
        0x0001a424:    0001f81c    ....    DCD    129052
    $t
    i.am_hal_cmdq_post_block
    am_hal_cmdq_post_block
        0x0001a428:    b510        ..      PUSH     {r4,lr}
        0x0001a42a:    1e04        ..      SUBS     r4,r0,#0
        0x0001a42c:    bf1c        ..      ITT      NE
        0x0001a42e:    6820         h      LDRNE    r0,[r4,#0]
        0x0001a430:    f0107f80    ....    TSTNE    r0,#0x1000000
        0x0001a434:    d004        ..      BEQ      0x1a440 ; am_hal_cmdq_post_block + 24
        0x0001a436:    4a13        .J      LDR      r2,[pc,#76] ; [0x1a484] = 0xcdcdcd
        0x0001a438:    f020407f     ..@    BIC      r0,r0,#0xff000000
        0x0001a43c:    4290        .B      CMP      r0,r2
        0x0001a43e:    d001        ..      BEQ      0x1a444 ; am_hal_cmdq_post_block + 28
        0x0001a440:    2002        .       MOVS     r0,#2
        0x0001a442:    bd10        ..      POP      {r4,pc}
        0x0001a444:    e9d42004    ...     LDRD     r2,r0,[r4,#0x10]
        0x0001a448:    4282        .B      CMP      r2,r0
        0x0001a44a:    bf04        ..      ITT      EQ
        0x0001a44c:    2007        .       MOVEQ    r0,#7
        0x0001a44e:    bd10        ..      POPEQ    {r4,pc}
        0x0001a450:    6a62        bj      LDR      r2,[r4,#0x24]
        0x0001a452:    6892        .h      LDR      r2,[r2,#8]
        0x0001a454:    4311        .C      ORRS     r1,r1,r2
        0x0001a456:    f8401b04    @...    STR      r1,[r0],#4
        0x0001a45a:    6a21        !j      LDR      r1,[r4,#0x20]
        0x0001a45c:    f8401b04    @...    STR      r1,[r0],#4
        0x0001a460:    6160        `a      STR      r0,[r4,#0x14]
        0x0001a462:    6120         a      STR      r0,[r4,#0x10]
        0x0001a464:    4908        .I      LDR      r1,[pc,#32] ; [0x1a488] = 0x10060000
        0x0001a466:    68a0        .h      LDR      r0,[r4,#8]
        0x0001a468:    4288        .B      CMP      r0,r1
        0x0001a46a:    d303        ..      BCC      0x1a474 ; am_hal_cmdq_post_block + 76
        0x0001a46c:    2100        .!      MOVS     r1,#0
        0x0001a46e:    2001        .       MOVS     r0,#1
        0x0001a470:    f000f922    ..".    BL       am_hal_daxi_control ; 0x1a6b8
        0x0001a474:    6a61        aj      LDR      r1,[r4,#0x24]
        0x0001a476:    f8940020    .. .    LDRB     r0,[r4,#0x20]
        0x0001a47a:    68c9        .h      LDR      r1,[r1,#0xc]
        0x0001a47c:    6008        .`      STR      r0,[r1,#0]
        0x0001a47e:    2000        .       MOVS     r0,#0
        0x0001a480:    bd10        ..      POP      {r4,pc}
    $d
        0x0001a482:    0000        ..      DCW    0
        0x0001a484:    00cdcdcd    ....    DCD    13487565
        0x0001a488:    10060000    ....    DCD    268828672
    $t
    i.am_hal_cmdq_post_loop_block
    am_hal_cmdq_post_loop_block
        0x0001a48c:    b510        ..      PUSH     {r4,lr}
        0x0001a48e:    1e04        ..      SUBS     r4,r0,#0
        0x0001a490:    bf1c        ..      ITT      NE
        0x0001a492:    6820         h      LDRNE    r0,[r4,#0]
        0x0001a494:    f0107f80    ....    TSTNE    r0,#0x1000000
        0x0001a498:    d004        ..      BEQ      0x1a4a4 ; am_hal_cmdq_post_loop_block + 24
        0x0001a49a:    4a16        .J      LDR      r2,[pc,#88] ; [0x1a4f4] = 0xcdcdcd
        0x0001a49c:    f020407f     ..@    BIC      r0,r0,#0xff000000
        0x0001a4a0:    4290        .B      CMP      r0,r2
        0x0001a4a2:    d001        ..      BEQ      0x1a4a8 ; am_hal_cmdq_post_loop_block + 28
        0x0001a4a4:    2002        .       MOVS     r0,#2
        0x0001a4a6:    bd10        ..      POP      {r4,pc}
        0x0001a4a8:    e9d42004    ...     LDRD     r2,r0,[r4,#0x10]
        0x0001a4ac:    4282        .B      CMP      r2,r0
        0x0001a4ae:    bf04        ..      ITT      EQ
        0x0001a4b0:    2007        .       MOVEQ    r0,#7
        0x0001a4b2:    bd10        ..      POPEQ    {r4,pc}
        0x0001a4b4:    6a62        bj      LDR      r2,[r4,#0x24]
        0x0001a4b6:    6892        .h      LDR      r2,[r2,#8]
        0x0001a4b8:    f8402b04    @..+    STR      r2,[r0],#4
        0x0001a4bc:    2200        ."      MOVS     r2,#0
        0x0001a4be:    f8402b04    @..+    STR      r2,[r0],#4
        0x0001a4c2:    6a62        bj      LDR      r2,[r4,#0x24]
        0x0001a4c4:    6852        Rh      LDR      r2,[r2,#4]
        0x0001a4c6:    4311        .C      ORRS     r1,r1,r2
        0x0001a4c8:    f8401b04    @...    STR      r1,[r0],#4
        0x0001a4cc:    6861        ah      LDR      r1,[r4,#4]
        0x0001a4ce:    f8401b04    @...    STR      r1,[r0],#4
        0x0001a4d2:    6160        `a      STR      r0,[r4,#0x14]
        0x0001a4d4:    6120         a      STR      r0,[r4,#0x10]
        0x0001a4d6:    4908        .I      LDR      r1,[pc,#32] ; [0x1a4f8] = 0x10060000
        0x0001a4d8:    68a0        .h      LDR      r0,[r4,#8]
        0x0001a4da:    4288        .B      CMP      r0,r1
        0x0001a4dc:    d303        ..      BCC      0x1a4e6 ; am_hal_cmdq_post_loop_block + 90
        0x0001a4de:    2100        .!      MOVS     r1,#0
        0x0001a4e0:    2001        .       MOVS     r0,#1
        0x0001a4e2:    f000f8e9    ....    BL       am_hal_daxi_control ; 0x1a6b8
        0x0001a4e6:    6a61        aj      LDR      r1,[r4,#0x24]
        0x0001a4e8:    f8940020    .. .    LDRB     r0,[r4,#0x20]
        0x0001a4ec:    68c9        .h      LDR      r1,[r1,#0xc]
        0x0001a4ee:    6008        .`      STR      r0,[r1,#0]
        0x0001a4f0:    2000        .       MOVS     r0,#0
        0x0001a4f2:    bd10        ..      POP      {r4,pc}
    $d
        0x0001a4f4:    00cdcdcd    ....    DCD    13487565
        0x0001a4f8:    10060000    ....    DCD    268828672
    $t
    i.am_hal_cmdq_release_block
    am_hal_cmdq_release_block
        0x0001a4fc:    2800        .(      CMP      r0,#0
        0x0001a4fe:    bf1c        ..      ITT      NE
        0x0001a500:    6801        .h      LDRNE    r1,[r0,#0]
        0x0001a502:    f0117f80    ....    TSTNE    r1,#0x1000000
        0x0001a506:    d004        ..      BEQ      0x1a512 ; am_hal_cmdq_release_block + 22
        0x0001a508:    4a09        .J      LDR      r2,[pc,#36] ; [0x1a530] = 0xcdcdcd
        0x0001a50a:    f021417f    !..A    BIC      r1,r1,#0xff000000
        0x0001a50e:    4291        .B      CMP      r1,r2
        0x0001a510:    d001        ..      BEQ      0x1a516 ; am_hal_cmdq_release_block + 26
        0x0001a512:    2002        .       MOVS     r0,#2
        0x0001a514:    4770        pG      BX       lr
        0x0001a516:    e9d01204    ....    LDRD     r1,r2,[r0,#0x10]
        0x0001a51a:    4291        .B      CMP      r1,r2
        0x0001a51c:    bf04        ..      ITT      EQ
        0x0001a51e:    2007        .       MOVEQ    r0,#7
        0x0001a520:    4770        pG      BXEQ     lr
        0x0001a522:    6141        Aa      STR      r1,[r0,#0x14]
        0x0001a524:    6a01        .j      LDR      r1,[r0,#0x20]
        0x0001a526:    1e49        I.      SUBS     r1,r1,#1
        0x0001a528:    6201        .b      STR      r1,[r0,#0x20]
        0x0001a52a:    2000        .       MOVS     r0,#0
        0x0001a52c:    4770        pG      BX       lr
    $d
        0x0001a52e:    0000        ..      DCW    0
        0x0001a530:    00cdcdcd    ....    DCD    13487565
    $t
    i.am_hal_cmdq_reset
    am_hal_cmdq_reset
        0x0001a534:    2800        .(      CMP      r0,#0
        0x0001a536:    bf1c        ..      ITT      NE
        0x0001a538:    6801        .h      LDRNE    r1,[r0,#0]
        0x0001a53a:    f0117f80    ....    TSTNE    r1,#0x1000000
        0x0001a53e:    d004        ..      BEQ      0x1a54a ; am_hal_cmdq_reset + 22
        0x0001a540:    4b14        .K      LDR      r3,[pc,#80] ; [0x1a594] = 0xcdcdcd
        0x0001a542:    f021427f    !..B    BIC      r2,r1,#0xff000000
        0x0001a546:    429a        .B      CMP      r2,r3
        0x0001a548:    d001        ..      BEQ      0x1a54e ; am_hal_cmdq_reset + 26
        0x0001a54a:    2002        .       MOVS     r0,#2
        0x0001a54c:    4770        pG      BX       lr
        0x0001a54e:    f0117f00    ....    TST      r1,#0x2000000
        0x0001a552:    bf1c        ..      ITT      NE
        0x0001a554:    2007        .       MOVNE    r0,#7
        0x0001a556:    4770        pG      BXNE     lr
        0x0001a558:    6a41        Aj      LDR      r1,[r0,#0x24]
        0x0001a55a:    6809        .h      LDR      r1,[r1,#0]
        0x0001a55c:    680a        .h      LDR      r2,[r1,#0]
        0x0001a55e:    f0220201    "...    BIC      r2,r2,#1
        0x0001a562:    600a        .`      STR      r2,[r1,#0]
        0x0001a564:    6841        Ah      LDR      r1,[r0,#4]
        0x0001a566:    60c1        .`      STR      r1,[r0,#0xc]
        0x0001a568:    6141        Aa      STR      r1,[r0,#0x14]
        0x0001a56a:    6101        .a      STR      r1,[r0,#0x10]
        0x0001a56c:    2100        .!      MOVS     r1,#0
        0x0001a56e:    61c1        .a      STR      r1,[r0,#0x1c]
        0x0001a570:    6201        .b      STR      r1,[r0,#0x20]
        0x0001a572:    6a42        Bj      LDR      r2,[r0,#0x24]
        0x0001a574:    6892        .h      LDR      r2,[r2,#8]
        0x0001a576:    6011        .`      STR      r1,[r2,#0]
        0x0001a578:    6a42        Bj      LDR      r2,[r0,#0x24]
        0x0001a57a:    68d2        .h      LDR      r2,[r2,#0xc]
        0x0001a57c:    6011        .`      STR      r1,[r2,#0]
        0x0001a57e:    6a42        Bj      LDR      r2,[r0,#0x24]
        0x0001a580:    6841        Ah      LDR      r1,[r0,#4]
        0x0001a582:    6852        Rh      LDR      r2,[r2,#4]
        0x0001a584:    6011        .`      STR      r1,[r2,#0]
        0x0001a586:    6801        .h      LDR      r1,[r0,#0]
        0x0001a588:    f0217100    !..q    BIC      r1,r1,#0x2000000
        0x0001a58c:    6001        .`      STR      r1,[r0,#0]
        0x0001a58e:    2000        .       MOVS     r0,#0
        0x0001a590:    4770        pG      BX       lr
    $d
        0x0001a592:    0000        ..      DCW    0
        0x0001a594:    00cdcdcd    ....    DCD    13487565
    $t
    i.am_hal_cmdq_term
    am_hal_cmdq_term
        0x0001a598:    b538        8.      PUSH     {r3-r5,lr}
        0x0001a59a:    460d        .F      MOV      r5,r1
        0x0001a59c:    1e04        ..      SUBS     r4,r0,#0
        0x0001a59e:    bf1c        ..      ITT      NE
        0x0001a5a0:    6820         h      LDRNE    r0,[r4,#0]
        0x0001a5a2:    f0107f80    ....    TSTNE    r0,#0x1000000
        0x0001a5a6:    d004        ..      BEQ      0x1a5b2 ; am_hal_cmdq_term + 26
        0x0001a5a8:    491c        .I      LDR      r1,[pc,#112] ; [0x1a61c] = 0xcdcdcd
        0x0001a5aa:    f020407f     ..@    BIC      r0,r0,#0xff000000
        0x0001a5ae:    4288        .B      CMP      r0,r1
        0x0001a5b0:    d001        ..      BEQ      0x1a5b6 ; am_hal_cmdq_term + 30
        0x0001a5b2:    2002        .       MOVS     r0,#2
        0x0001a5b4:    bd38        8.      POP      {r3-r5,pc}
        0x0001a5b6:    f7fdfed5    ....    BL       am_hal_interrupt_master_disable ; 0x18364
        0x0001a5ba:    9000        ..      STR      r0,[sp,#0]
        0x0001a5bc:    6a60        `j      LDR      r0,[r4,#0x24]
        0x0001a5be:    6880        .h      LDR      r0,[r0,#8]
        0x0001a5c0:    6800        .h      LDR      r0,[r0,#0]
        0x0001a5c2:    6a21        !j      LDR      r1,[r4,#0x20]
        0x0001a5c4:    b2c0        ..      UXTB     r0,r0
        0x0001a5c6:    f02101ff    !...    BIC      r1,r1,#0xff
        0x0001a5ca:    4308        .C      ORRS     r0,r0,r1
        0x0001a5cc:    61e0        .a      STR      r0,[r4,#0x1c]
        0x0001a5ce:    6a21        !j      LDR      r1,[r4,#0x20]
        0x0001a5d0:    1a09        ..      SUBS     r1,r1,r0
        0x0001a5d2:    bf44        D.      ITT      MI
        0x0001a5d4:    f5a07080    ...p    SUBMI    r0,r0,#0x100
        0x0001a5d8:    61e0        .a      STRMI    r0,[r4,#0x1c]
        0x0001a5da:    6a60        `j      LDR      r0,[r4,#0x24]
        0x0001a5dc:    6840        @h      LDR      r0,[r0,#4]
        0x0001a5de:    6800        .h      LDR      r0,[r0,#0]
        0x0001a5e0:    60e0        .`      STR      r0,[r4,#0xc]
        0x0001a5e2:    9800        ..      LDR      r0,[sp,#0]
        0x0001a5e4:    f7fdfec2    ....    BL       am_hal_interrupt_master_set ; 0x1836c
        0x0001a5e8:    b92d        -.      CBNZ     r5,0x1a5f6 ; am_hal_cmdq_term + 94
        0x0001a5ea:    e9d40107    ....    LDRD     r0,r1,[r4,#0x1c]
        0x0001a5ee:    4288        .B      CMP      r0,r1
        0x0001a5f0:    bf1c        ..      ITT      NE
        0x0001a5f2:    2003        .       MOVNE    r0,#3
        0x0001a5f4:    bd38        8.      POPNE    {r3-r5,pc}
        0x0001a5f6:    6820         h      LDR      r0,[r4,#0]
        0x0001a5f8:    f0207080     ..p    BIC      r0,r0,#0x1000000
        0x0001a5fc:    6020         `      STR      r0,[r4,#0]
        0x0001a5fe:    6a60        `j      LDR      r0,[r4,#0x24]
        0x0001a600:    6800        .h      LDR      r0,[r0,#0]
        0x0001a602:    6801        .h      LDR      r1,[r0,#0]
        0x0001a604:    f0210101    !...    BIC      r1,r1,#1
        0x0001a608:    6001        .`      STR      r1,[r0,#0]
        0x0001a60a:    6a60        `j      LDR      r0,[r4,#0x24]
        0x0001a60c:    6901        .i      LDR      r1,[r0,#0x10]
        0x0001a60e:    680a        .h      LDR      r2,[r1,#0]
        0x0001a610:    6940        @i      LDR      r0,[r0,#0x14]
        0x0001a612:    ea220000    "...    BIC      r0,r2,r0
        0x0001a616:    6008        .`      STR      r0,[r1,#0]
        0x0001a618:    2000        .       MOVS     r0,#0
        0x0001a61a:    bd38        8.      POP      {r3-r5,pc}
    $d
        0x0001a61c:    00cdcdcd    ....    DCD    13487565
    $t
    i.am_hal_daxi_config
    am_hal_daxi_config
        0x0001a620:    b570        p.      PUSH     {r4-r6,lr}
        0x0001a622:    b082        ..      SUB      sp,sp,#8
        0x0001a624:    4605        .F      MOV      r5,r0
        0x0001a626:    f7fdfe9d    ....    BL       am_hal_interrupt_master_disable ; 0x18364
        0x0001a62a:    9000        ..      STR      r0,[sp,#0]
        0x0001a62c:    f7fdfe9a    ....    BL       am_hal_interrupt_master_disable ; 0x18364
        0x0001a630:    f04f4490    O..D    MOV      r4,#0x48000000
        0x0001a634:    9001        ..      STR      r0,[sp,#4]
        0x0001a636:    6d20         m      LDR      r0,[r4,#0x50]
        0x0001a638:    4e1d        .N      LDR      r6,[pc,#116] ; [0x1a6b0] = 0x47ff0000
        0x0001a63a:    f0100f04    ....    TST      r0,#4
        0x0001a63e:    d10b        ..      BNE      0x1a658 ; am_hal_daxi_config + 56
        0x0001a640:    f3bf8f4f    ..O.    DSB      
        0x0001a644:    6d60        `m      LDR      r0,[r4,#0x54]
        0x0001a646:    f0400001    @...    ORR      r0,r0,#1
        0x0001a64a:    6560        `e      STR      r0,[r4,#0x54]
        0x0001a64c:    6830        0h      LDR      r0,[r6,#0]
        0x0001a64e:    6d60        `m      LDR      r0,[r4,#0x54]
        0x0001a650:    f0400002    @...    ORR      r0,r0,#2
        0x0001a654:    6560        `e      STR      r0,[r4,#0x54]
        0x0001a656:    6830        0h      LDR      r0,[r6,#0]
        0x0001a658:    6d60        `m      LDR      r0,[r4,#0x54]
        0x0001a65a:    f0100f04    ....    TST      r0,#4
        0x0001a65e:    d0fb        ..      BEQ      0x1a658 ; am_hal_daxi_config + 56
        0x0001a660:    9801        ..      LDR      r0,[sp,#4]
        0x0001a662:    f7fdfe83    ....    BL       am_hal_interrupt_master_set ; 0x1836c
        0x0001a666:    2d00        .-      CMP      r5,#0
        0x0001a668:    bf04        ..      ITT      EQ
        0x0001a66a:    2006        .       MOVEQ    r0,#6
        0x0001a66c:    6520         e      STREQ    r0,[r4,#0x50]
        0x0001a66e:    d018        ..      BEQ      0x1a6a2 ; am_hal_daxi_config + 130
        0x0001a670:    7928        (y      LDRB     r0,[r5,#4]
        0x0001a672:    7869        ix      LDRB     r1,[r5,#1]
        0x0001a674:    2202        ."      MOVS     r2,#2
        0x0001a676:    f0000001    ....    AND      r0,r0,#1
        0x0001a67a:    ea020141    ..A.    AND      r1,r2,r1,LSL #1
        0x0001a67e:    4308        .C      ORRS     r0,r0,r1
        0x0001a680:    78e9        .x      LDRB     r1,[r5,#3]
        0x0001a682:    f44f6270    O.pb    MOV      r2,#0xf00
        0x0001a686:    ea022101    ...!    AND      r1,r2,r1,LSL #8
        0x0001a68a:    4308        .C      ORRS     r0,r0,r1
        0x0001a68c:    78a9        .x      LDRB     r1,[r5,#2]
        0x0001a68e:    f44f12f8    O...    MOV      r2,#0x1f0000
        0x0001a692:    ea024101    ...A    AND      r1,r2,r1,LSL #16
        0x0001a696:    4308        .C      ORRS     r0,r0,r1
        0x0001a698:    6520         e      STR      r0,[r4,#0x50]
        0x0001a69a:    4629        )F      MOV      r1,r5
        0x0001a69c:    4805        .H      LDR      r0,[pc,#20] ; [0x1a6b4] = 0x100000b3
        0x0001a69e:    f7fdffa2    ....    BL       __ARM_common_memcpy4_5 ; 0x185e6
        0x0001a6a2:    6830        0h      LDR      r0,[r6,#0]
        0x0001a6a4:    9800        ..      LDR      r0,[sp,#0]
        0x0001a6a6:    f7fdfe61    ..a.    BL       am_hal_interrupt_master_set ; 0x1836c
        0x0001a6aa:    b002        ..      ADD      sp,sp,#8
        0x0001a6ac:    2000        .       MOVS     r0,#0
        0x0001a6ae:    bd70        p.      POP      {r4-r6,pc}
    $d
        0x0001a6b0:    47ff0000    ...G    DCD    1207894016
        0x0001a6b4:    100000b3    ....    DCD    268435635
    $t
    i.am_hal_daxi_control
    am_hal_daxi_control
        0x0001a6b8:    b538        8.      PUSH     {r3-r5,lr}
        0x0001a6ba:    4d1d        .M      LDR      r5,[pc,#116] ; [0x1a730] = 0x47ff0000
        0x0001a6bc:    f04f4490    O..D    MOV      r4,#0x48000000
        0x0001a6c0:    b348        H.      CBZ      r0,0x1a716 ; am_hal_daxi_control + 94
        0x0001a6c2:    2801        .(      CMP      r0,#1
        0x0001a6c4:    d00c        ..      BEQ      0x1a6e0 ; am_hal_daxi_control + 40
        0x0001a6c6:    2802        .(      CMP      r0,#2
        0x0001a6c8:    bf08        ..      IT       EQ
        0x0001a6ca:    2000        .       MOVEQ    r0,#0
        0x0001a6cc:    d004        ..      BEQ      0x1a6d8 ; am_hal_daxi_control + 32
        0x0001a6ce:    2803        .(      CMP      r0,#3
        0x0001a6d0:    bf16        ..      ITET     NE
        0x0001a6d2:    2006        .       MOVNE    r0,#6
        0x0001a6d4:    4817        .H      LDREQ    r0,[pc,#92] ; [0x1a734] = 0x100000b3
        0x0001a6d6:    bd38        8.      POPNE    {r3-r5,pc}
        0x0001a6d8:    f7ffffa2    ....    BL       am_hal_daxi_config ; 0x1a620
        0x0001a6dc:    2000        .       MOVS     r0,#0
        0x0001a6de:    bd38        8.      POP      {r3-r5,pc}
        0x0001a6e0:    f7fdfe40    ..@.    BL       am_hal_interrupt_master_disable ; 0x18364
        0x0001a6e4:    9000        ..      STR      r0,[sp,#0]
        0x0001a6e6:    6d20         m      LDR      r0,[r4,#0x50]
        0x0001a6e8:    f0100f04    ....    TST      r0,#4
        0x0001a6ec:    d10b        ..      BNE      0x1a706 ; am_hal_daxi_control + 78
        0x0001a6ee:    f3bf8f4f    ..O.    DSB      
        0x0001a6f2:    6d60        `m      LDR      r0,[r4,#0x54]
        0x0001a6f4:    f0400001    @...    ORR      r0,r0,#1
        0x0001a6f8:    6560        `e      STR      r0,[r4,#0x54]
        0x0001a6fa:    6828        (h      LDR      r0,[r5,#0]
        0x0001a6fc:    6d60        `m      LDR      r0,[r4,#0x54]
        0x0001a6fe:    f0400002    @...    ORR      r0,r0,#2
        0x0001a702:    6560        `e      STR      r0,[r4,#0x54]
        0x0001a704:    6828        (h      LDR      r0,[r5,#0]
        0x0001a706:    6d60        `m      LDR      r0,[r4,#0x54]
        0x0001a708:    f0100f04    ....    TST      r0,#4
        0x0001a70c:    d0fb        ..      BEQ      0x1a706 ; am_hal_daxi_control + 78
        0x0001a70e:    9800        ..      LDR      r0,[sp,#0]
        0x0001a710:    f7fdfe2c    ..,.    BL       am_hal_interrupt_master_set ; 0x1836c
        0x0001a714:    e7e2        ..      B        0x1a6dc ; am_hal_daxi_control + 36
        0x0001a716:    6d20         m      LDR      r0,[r4,#0x50]
        0x0001a718:    f0100f04    ....    TST      r0,#4
        0x0001a71c:    d1de        ..      BNE      0x1a6dc ; am_hal_daxi_control + 36
        0x0001a71e:    f3bf8f4f    ..O.    DSB      
        0x0001a722:    6d60        `m      LDR      r0,[r4,#0x54]
        0x0001a724:    f0400002    @...    ORR      r0,r0,#2
        0x0001a728:    6560        `e      STR      r0,[r4,#0x54]
        0x0001a72a:    6828        (h      LDR      r0,[r5,#0]
        0x0001a72c:    e7d6        ..      B        0x1a6dc ; am_hal_daxi_control + 36
    $d
        0x0001a72e:    0000        ..      DCW    0
        0x0001a730:    47ff0000    ...G    DCD    1207894016
        0x0001a734:    100000b3    ....    DCD    268435635
    $t
    i.am_hal_dcu_get
    am_hal_dcu_get
        0x0001a738:    e92d43f0    -..C    PUSH     {r4-r9,lr}
        0x0001a73c:    4680        .F      MOV      r8,r0
        0x0001a73e:    481f        .H      LDR      r0,[pc,#124] ; [0x1a7bc] = 0x40021000
        0x0001a740:    b083        ..      SUB      sp,sp,#0xc
        0x0001a742:    6880        .h      LDR      r0,[r0,#8]
        0x0001a744:    f4101f80    ....    TST      r0,#0x100000
        0x0001a748:    d023        #.      BEQ      0x1a792 ; am_hal_dcu_get + 90
        0x0001a74a:    481d        .H      LDR      r0,[pc,#116] ; [0x1a7c0] = 0x400c0a7c
        0x0001a74c:    6800        .h      LDR      r0,[r0,#0]
        0x0001a74e:    f0100f01    ....    TST      r0,#1
        0x0001a752:    d01e        ..      BEQ      0x1a792 ; am_hal_dcu_get + 90
        0x0001a754:    f8df906c    ..l.    LDR      r9,[pc,#108] ; [0x1a7c4] = 0x100000d8
        0x0001a758:    4668        hF      MOV      r0,sp
        0x0001a75a:    2202        ."      MOVS     r2,#2
        0x0001a75c:    f8d91004    ....    LDR      r1,[r9,#4]
        0x0001a760:    f003fc86    ....    BL       copy_words ; 0x1e070
        0x0001a764:    e9dd0100    ....    LDRD     r0,r1,[sp,#0]
        0x0001a768:    2400        .$      MOVS     r4,#0
        0x0001a76a:    4627        'F      MOV      r7,r4
        0x0001a76c:    2605        .&      MOVS     r6,#5
        0x0001a76e:    4625        %F      MOV      r5,r4
        0x0001a770:    f8d92000    ...     LDR      r2,[r9,#0]
        0x0001a774:    f7fdfe1d    ....    BL       __aeabi_llsr ; 0x183b2
        0x0001a778:    2214        ."      MOVS     r2,#0x14
        0x0001a77a:    f04f0c01    O...    MOV      r12,#1
        0x0001a77e:    bf00        ..      NOP      
        0x0001a780:    f0000307    ....    AND      r3,r0,#7
        0x0001a784:    4073        s@      EORS     r3,r3,r6
        0x0001a786:    ea840904    ....    EOR      r9,r4,r4
        0x0001a78a:    ea530309    S...    ORRS     r3,r3,r9
        0x0001a78e:    d109        ..      BNE      0x1a7a4 ; am_hal_dcu_get + 108
        0x0001a790:    e003        ..      B        0x1a79a ; am_hal_dcu_get + 98
        0x0001a792:    b003        ..      ADD      sp,sp,#0xc
        0x0001a794:    2007        .       MOVS     r0,#7
        0x0001a796:    e8bd83f0    ....    POP      {r4-r9,pc}
        0x0001a79a:    f1c20314    ....    RSB      r3,r2,#0x14
        0x0001a79e:    fa0cf303    ....    LSL      r3,r12,r3
        0x0001a7a2:    431d        .C      ORRS     r5,r5,r3
        0x0001a7a4:    08c0        ..      LSRS     r0,r0,#3
        0x0001a7a6:    ea407041    @.Ap    ORR      r0,r0,r1,LSL #29
        0x0001a7aa:    08c9        ..      LSRS     r1,r1,#3
        0x0001a7ac:    1e52        R.      SUBS     r2,r2,#1
        0x0001a7ae:    d1e7        ..      BNE      0x1a780 ; am_hal_dcu_get + 72
        0x0001a7b0:    f8c85000    ...P    STR      r5,[r8,#0]
        0x0001a7b4:    b003        ..      ADD      sp,sp,#0xc
        0x0001a7b6:    4638        8F      MOV      r0,r7
        0x0001a7b8:    e8bd83f0    ....    POP      {r4-r9,pc}
    $d
        0x0001a7bc:    40021000    ...@    DCD    1073876992
        0x0001a7c0:    400c0a7c    |..@    DCD    1074530940
        0x0001a7c4:    100000d8    ....    DCD    268435672
    $t
    i.am_hal_dcu_update
    am_hal_dcu_update
        0x0001a7c8:    e92d4ff0    -..O    PUSH     {r4-r11,lr}
        0x0001a7cc:    4681        .F      MOV      r9,r0
        0x0001a7ce:    4834        4H      LDR      r0,[pc,#208] ; [0x1a8a0] = 0x40021000
        0x0001a7d0:    b085        ..      SUB      sp,sp,#0x14
        0x0001a7d2:    6880        .h      LDR      r0,[r0,#8]
        0x0001a7d4:    f4101f80    ....    TST      r0,#0x100000
        0x0001a7d8:    d02a        *.      BEQ      0x1a830 ; am_hal_dcu_update + 104
        0x0001a7da:    f8dfa0c8    ....    LDR      r10,[pc,#200] ; [0x1a8a4] = 0x400c0a7c
        0x0001a7de:    f8da0000    ....    LDR      r0,[r10,#0]
        0x0001a7e2:    f0100f01    ....    TST      r0,#1
        0x0001a7e6:    d023        #.      BEQ      0x1a830 ; am_hal_dcu_update + 104
        0x0001a7e8:    f8df80bc    ....    LDR      r8,[pc,#188] ; [0x1a8a8] = 0x100000d8
        0x0001a7ec:    2700        .'      MOVS     r7,#0
        0x0001a7ee:    084d        M.      LSRS     r5,r1,#1
        0x0001a7f0:    f8d8b000    ....    LDR      r11,[r8,#0]
        0x0001a7f4:    463e        >F      MOV      r6,r7
        0x0001a7f6:    2414        .$      MOVS     r4,#0x14
        0x0001a7f8:    f0150f01    ....    TST      r5,#1
        0x0001a7fc:    d006        ..      BEQ      0x1a80c ; am_hal_dcu_update + 68
        0x0001a7fe:    465a        ZF      MOV      r2,r11
        0x0001a800:    2007        .       MOVS     r0,#7
        0x0001a802:    2100        .!      MOVS     r1,#0
        0x0001a804:    f7fdfdc2    ....    BL       __aeabi_llsl ; 0x1838c
        0x0001a808:    4307        .C      ORRS     r7,r7,r0
        0x0001a80a:    430e        .C      ORRS     r6,r6,r1
        0x0001a80c:    086d        m.      LSRS     r5,r5,#1
        0x0001a80e:    1e64        d.      SUBS     r4,r4,#1
        0x0001a810:    f10b0b03    ....    ADD      r11,r11,#3
        0x0001a814:    2c00        .,      CMP      r4,#0
        0x0001a816:    dcef        ..      BGT      0x1a7f8 ; am_hal_dcu_update + 48
        0x0001a818:    2202        ."      MOVS     r2,#2
        0x0001a81a:    a802        ..      ADD      r0,sp,#8
        0x0001a81c:    f8d81008    ....    LDR      r1,[r8,#8]
        0x0001a820:    f003fc26    ..&.    BL       copy_words ; 0x1e070
        0x0001a824:    e9dd1002    ....    LDRD     r1,r0,[sp,#8]
        0x0001a828:    4039        9@      ANDS     r1,r1,r7
        0x0001a82a:    4030        0@      ANDS     r0,r0,r6
        0x0001a82c:    4308        .C      ORRS     r0,r0,r1
        0x0001a82e:    d003        ..      BEQ      0x1a838 ; am_hal_dcu_update + 112
        0x0001a830:    b005        ..      ADD      sp,sp,#0x14
        0x0001a832:    2007        .       MOVS     r0,#7
        0x0001a834:    e8bd8ff0    ....    POP      {r4-r11,pc}
        0x0001a838:    2202        ."      MOVS     r2,#2
        0x0001a83a:    4668        hF      MOV      r0,sp
        0x0001a83c:    f8d81004    ....    LDR      r1,[r8,#4]
        0x0001a840:    f003fc16    ....    BL       copy_words ; 0x1e070
        0x0001a844:    f1b90f00    ....    CMP      r9,#0
        0x0001a848:    d00d        ..      BEQ      0x1a866 ; am_hal_dcu_update + 158
        0x0001a84a:    e9dd1000    ....    LDRD     r1,r0,[sp,#0]
        0x0001a84e:    ea210207    !...    BIC      r2,r1,r7
        0x0001a852:    e9d83104    ...1    LDRD     r3,r1,[r8,#0x10]
        0x0001a856:    403b        ;@      ANDS     r3,r3,r7
        0x0001a858:    43b0        .C      BICS     r0,r0,r6
        0x0001a85a:    4031        1@      ANDS     r1,r1,r6
        0x0001a85c:    431a        .C      ORRS     r2,r2,r3
        0x0001a85e:    4308        .C      ORRS     r0,r0,r1
        0x0001a860:    e9cd2000    ...     STRD     r2,r0,[sp,#0]
        0x0001a864:    e00c        ..      B        0x1a880 ; am_hal_dcu_update + 184
        0x0001a866:    e9dd0100    ....    LDRD     r0,r1,[sp,#0]
        0x0001a86a:    ea210206    !...    BIC      r2,r1,r6
        0x0001a86e:    e9d83106    ...1    LDRD     r3,r1,[r8,#0x18]
        0x0001a872:    43b8        .C      BICS     r0,r0,r7
        0x0001a874:    403b        ;@      ANDS     r3,r3,r7
        0x0001a876:    4031        1@      ANDS     r1,r1,r6
        0x0001a878:    4318        .C      ORRS     r0,r0,r3
        0x0001a87a:    4311        .C      ORRS     r1,r1,r2
        0x0001a87c:    e9cd0100    ....    STRD     r0,r1,[sp,#0]
        0x0001a880:    2202        ."      MOVS     r2,#2
        0x0001a882:    4669        iF      MOV      r1,sp
        0x0001a884:    f8d80004    ....    LDR      r0,[r8,#4]
        0x0001a888:    f003fbf2    ....    BL       copy_words ; 0x1e070
        0x0001a88c:    f8da0000    ....    LDR      r0,[r10,#0]
        0x0001a890:    f0100f01    ....    TST      r0,#1
        0x0001a894:    d0fa        ..      BEQ      0x1a88c ; am_hal_dcu_update + 196
        0x0001a896:    b005        ..      ADD      sp,sp,#0x14
        0x0001a898:    2000        .       MOVS     r0,#0
        0x0001a89a:    e8bd8ff0    ....    POP      {r4-r11,pc}
    $d
        0x0001a89e:    0000        ..      DCW    0
        0x0001a8a0:    40021000    ...@    DCD    1073876992
        0x0001a8a4:    400c0a7c    |..@    DCD    1074530940
        0x0001a8a8:    100000d8    ....    DCD    268435672
    $t
    i.am_hal_delay_us
    am_hal_delay_us
        0x0001a8ac:    4908        .I      LDR      r1,[pc,#32] ; [0x1a8d0] = 0x40021000
        0x0001a8ae:    0140        @.      LSLS     r0,r0,#5
        0x0001a8b0:    6809        .h      LDR      r1,[r1,#0]
        0x0001a8b2:    f3c101c1    ....    UBFX     r1,r1,#3,#2
        0x0001a8b6:    2902        .)      CMP      r1,#2
        0x0001a8b8:    bf06        ..      ITTE     EQ
        0x0001a8ba:    0040        @.      LSLEQ    r0,r0,#1
        0x0001a8bc:    2115        .!      MOVEQ    r1,#0x15
        0x0001a8be:    210f        .!      MOVNE    r1,#0xf
        0x0001a8c0:    4288        .B      CMP      r0,r1
        0x0001a8c2:    bf98        ..      IT       LS
        0x0001a8c4:    4770        pG      BXLS     lr
        0x0001a8c6:    1a40        @.      SUBS     r0,r0,r1
        0x0001a8c8:    4902        .I      LDR      r1,[pc,#8] ; [0x1a8d4] = 0x1f7f4
        0x0001a8ca:    6a49        Ij      LDR      r1,[r1,#0x24]
        0x0001a8cc:    4708        .G      BX       r1
    $d
        0x0001a8ce:    0000        ..      DCW    0
        0x0001a8d0:    40021000    ...@    DCD    1073876992
        0x0001a8d4:    0001f7f4    ....    DCD    129012
    $t
    i.am_hal_delay_us_status_change
    am_hal_delay_us_status_change
        0x0001a8d8:    e92d47f0    -..G    PUSH     {r4-r10,lr}
        0x0001a8dc:    f8df8048    ..H.    LDR      r8,[pc,#72] ; [0x1a928] = 0x40021000
        0x0001a8e0:    f8df9048    ..H.    LDR      r9,[pc,#72] ; [0x1a92c] = 0x1f7f4
        0x0001a8e4:    461d        .F      MOV      r5,r3
        0x0001a8e6:    4616        .F      MOV      r6,r2
        0x0001a8e8:    460f        .F      MOV      r7,r1
        0x0001a8ea:    4604        .F      MOV      r4,r0
        0x0001a8ec:    6838        8h      LDR      r0,[r7,#0]
        0x0001a8ee:    4030        0@      ANDS     r0,r0,r6
        0x0001a8f0:    42a8        .B      CMP      r0,r5
        0x0001a8f2:    d102        ..      BNE      0x1a8fa ; am_hal_delay_us_status_change + 34
        0x0001a8f4:    2000        .       MOVS     r0,#0
        0x0001a8f6:    e8bd87f0    ....    POP      {r4-r10,pc}
        0x0001a8fa:    1e64        d.      SUBS     r4,r4,#1
        0x0001a8fc:    d311        ..      BCC      0x1a922 ; am_hal_delay_us_status_change + 74
        0x0001a8fe:    f8d81000    ....    LDR      r1,[r8,#0]
        0x0001a902:    2020                MOVS     r0,#0x20
        0x0001a904:    f3c101c1    ....    UBFX     r1,r1,#3,#2
        0x0001a908:    2902        .)      CMP      r1,#2
        0x0001a90a:    bf06        ..      ITTE     EQ
        0x0001a90c:    2040        @       MOVEQ    r0,#0x40
        0x0001a90e:    f04f0c15    O...    MOVEQ    r12,#0x15
        0x0001a912:    f04f0c0f    O...    MOVNE    r12,#0xf
        0x0001a916:    eba0000c    ....    SUB      r0,r0,r12
        0x0001a91a:    f8d91024    ..$.    LDR      r1,[r9,#0x24]
        0x0001a91e:    4788        .G      BLX      r1
        0x0001a920:    e7e4        ..      B        0x1a8ec ; am_hal_delay_us_status_change + 20
        0x0001a922:    2004        .       MOVS     r0,#4
        0x0001a924:    e8bd87f0    ....    POP      {r4-r10,pc}
    $d
        0x0001a928:    40021000    ...@    DCD    1073876992
        0x0001a92c:    0001f7f4    ....    DCD    129012
    $t
    i.am_hal_delay_us_status_check
    am_hal_delay_us_status_check
        0x0001a930:    e92d47f0    -..G    PUSH     {r4-r10,lr}
        0x0001a934:    f8df9054    ..T.    LDR      r9,[pc,#84] ; [0x1a98c] = 0x40021000
        0x0001a938:    f8dfa054    ..T.    LDR      r10,[pc,#84] ; [0x1a990] = 0x1f7f4
        0x0001a93c:    f8dd8020    .. .    LDR      r8,[sp,#0x20]
        0x0001a940:    461c        .F      MOV      r4,r3
        0x0001a942:    4615        .F      MOV      r5,r2
        0x0001a944:    460e        .F      MOV      r6,r1
        0x0001a946:    4607        .F      MOV      r7,r0
        0x0001a948:    6830        0h      LDR      r0,[r6,#0]
        0x0001a94a:    f1b80f00    ....    CMP      r8,#0
        0x0001a94e:    ea000005    ....    AND      r0,r0,r5
        0x0001a952:    d002        ..      BEQ      0x1a95a ; am_hal_delay_us_status_check + 42
        0x0001a954:    42a0        .B      CMP      r0,r4
        0x0001a956:    d002        ..      BEQ      0x1a95e ; am_hal_delay_us_status_check + 46
        0x0001a958:    e004        ..      B        0x1a964 ; am_hal_delay_us_status_check + 52
        0x0001a95a:    42a0        .B      CMP      r0,r4
        0x0001a95c:    d002        ..      BEQ      0x1a964 ; am_hal_delay_us_status_check + 52
        0x0001a95e:    2000        .       MOVS     r0,#0
        0x0001a960:    e8bd87f0    ....    POP      {r4-r10,pc}
        0x0001a964:    1e7f        ..      SUBS     r7,r7,#1
        0x0001a966:    d30e        ..      BCC      0x1a986 ; am_hal_delay_us_status_check + 86
        0x0001a968:    f8d91000    ....    LDR      r1,[r9,#0]
        0x0001a96c:    2020                MOVS     r0,#0x20
        0x0001a96e:    f3c101c1    ....    UBFX     r1,r1,#3,#2
        0x0001a972:    2902        .)      CMP      r1,#2
        0x0001a974:    bf06        ..      ITTE     EQ
        0x0001a976:    2040        @       MOVEQ    r0,#0x40
        0x0001a978:    2115        .!      MOVEQ    r1,#0x15
        0x0001a97a:    210f        .!      MOVNE    r1,#0xf
        0x0001a97c:    1a40        @.      SUBS     r0,r0,r1
        0x0001a97e:    f8da1024    ..$.    LDR      r1,[r10,#0x24]
        0x0001a982:    4788        .G      BLX      r1
        0x0001a984:    e7e0        ..      B        0x1a948 ; am_hal_delay_us_status_check + 24
        0x0001a986:    2004        .       MOVS     r0,#4
        0x0001a988:    e8bd87f0    ....    POP      {r4-r10,pc}
    $d
        0x0001a98c:    40021000    ...@    DCD    1073876992
        0x0001a990:    0001f7f4    ....    DCD    129012
    $t
    i.am_hal_fault_capture_enable
    am_hal_fault_capture_enable
        0x0001a994:    f04f4090    O..@    MOV      r0,#0x48000000
        0x0001a998:    f8501f90    P...    LDR      r1,[r0,#0x90]!
        0x0001a99c:    f0410101    A...    ORR      r1,r1,#1
        0x0001a9a0:    6001        .`      STR      r1,[r0,#0]
        0x0001a9a2:    2000        .       MOVS     r0,#0
        0x0001a9a4:    4770        pG      BX       lr
    i.am_hal_fault_status_get
    am_hal_fault_status_get
        0x0001a9a6:    2800        .(      CMP      r0,#0
        0x0001a9a8:    bf04        ..      ITT      EQ
        0x0001a9aa:    2006        .       MOVEQ    r0,#6
        0x0001a9ac:    4770        pG      BXEQ     lr
        0x0001a9ae:    f04f4190    O..A    MOV      r1,#0x48000000
        0x0001a9b2:    f8d1208c    ...     LDR      r2,[r1,#0x8c]
        0x0001a9b6:    f0020301    ....    AND      r3,r2,#1
        0x0001a9ba:    7003        .p      STRB     r3,[r0,#0]
        0x0001a9bc:    f3c20340    ..@.    UBFX     r3,r2,#1,#1
        0x0001a9c0:    7203        .r      STRB     r3,[r0,#8]
        0x0001a9c2:    f3c20280    ....    UBFX     r2,r2,#2,#1
        0x0001a9c6:    7402        .t      STRB     r2,[r0,#0x10]
        0x0001a9c8:    f8d12084    ...     LDR      r2,[r1,#0x84]
        0x0001a9cc:    60c2        .`      STR      r2,[r0,#0xc]
        0x0001a9ce:    6842        Bh      LDR      r2,[r0,#4]
        0x0001a9d0:    f8513f80    Q..?    LDR      r3,[r1,#0x80]!
        0x0001a9d4:    431a        .C      ORRS     r2,r2,r3
        0x0001a9d6:    6042        B`      STR      r2,[r0,#4]
        0x0001a9d8:    6942        Bi      LDR      r2,[r0,#0x14]
        0x0001a9da:    6889        .h      LDR      r1,[r1,#8]
        0x0001a9dc:    4311        .C      ORRS     r1,r1,r2
        0x0001a9de:    6141        Aa      STR      r1,[r0,#0x14]
        0x0001a9e0:    2000        .       MOVS     r0,#0
        0x0001a9e2:    4770        pG      BX       lr
    i.am_hal_gpio_pinconfig
    am_hal_gpio_pinconfig
        0x0001a9e4:    b403        ..      PUSH     {r0,r1}
        0x0001a9e6:    4912        .I      LDR      r1,[pc,#72] ; [0x1aa30] = 0x40010000
        0x0001a9e8:    2880        .(      CMP      r0,#0x80
        0x0001a9ea:    bf22        ".      ITTT     CS
        0x0001a9ec:    2005        .       MOVCS    r0,#5
        0x0001a9ee:    b002        ..      ADDCS    sp,sp,#8
        0x0001a9f0:    4770        pG      BXCS     lr
        0x0001a9f2:    9a01        ..      LDR      r2,[sp,#4]
        0x0001a9f4:    f3c22281    ..."    UBFX     r2,r2,#10,#2
        0x0001a9f8:    2a01        .*      CMP      r2,#1
        0x0001a9fa:    d90e        ..      BLS      0x1aa1a ; am_hal_gpio_pinconfig + 54
        0x0001a9fc:    4b0d        .K      LDR      r3,[pc,#52] ; [0x1aa34] = 0x1f9d4
        0x0001a9fe:    0942        B.      LSRS     r2,r0,#5
        0x0001aa00:    f04f0c01    O...    MOV      r12,#1
        0x0001aa04:    f8532022    S."     LDR      r2,[r3,r2,LSL #2]
        0x0001aa08:    f000031f    ....    AND      r3,r0,#0x1f
        0x0001aa0c:    fa0cf303    ....    LSL      r3,r12,r3
        0x0001aa10:    421a        .B      TST      r2,r3
        0x0001aa12:    bf02        ..      ITTT     EQ
        0x0001aa14:    2007        .       MOVEQ    r0,#7
        0x0001aa16:    b002        ..      ADDEQ    sp,sp,#8
        0x0001aa18:    4770        pG      BXEQ     lr
        0x0001aa1a:    2273        s"      MOVS     r2,#0x73
        0x0001aa1c:    f8c12200    ..."    STR      r2,[r1,#0x200]
        0x0001aa20:    9a01        ..      LDR      r2,[sp,#4]
        0x0001aa22:    f8412020    A.      STR      r2,[r1,r0,LSL #2]
        0x0001aa26:    2000        .       MOVS     r0,#0
        0x0001aa28:    f8c10200    ....    STR      r0,[r1,#0x200]
        0x0001aa2c:    b002        ..      ADD      sp,sp,#8
        0x0001aa2e:    4770        pG      BX       lr
    $d
        0x0001aa30:    40010000    ...@    DCD    1073807360
        0x0001aa34:    0001f9d4    ....    DCD    129492
    $t
    i.am_hal_gpio_state_write
    am_hal_gpio_state_write
        0x0001aa38:    b538        8.      PUSH     {r3-r5,lr}
        0x0001aa3a:    f000021f    ....    AND      r2,r0,#0x1f
        0x0001aa3e:    2301        .#      MOVS     r3,#1
        0x0001aa40:    fa03f502    ....    LSL      r5,r3,r2
        0x0001aa44:    f3c01041    ..A.    UBFX     r0,r0,#5,#2
        0x0001aa48:    0080        ..      LSLS     r0,r0,#2
        0x0001aa4a:    f1004480    ...D    ADD      r4,r0,#0x40000000
        0x0001aa4e:    f5043480    ...4    ADD      r4,r4,#0x10000
        0x0001aa52:    2906        .)      CMP      r1,#6
        0x0001aa54:    d227        '.      BCS      0x1aaa6 ; am_hal_gpio_state_write + 110
        0x0001aa56:    e8dff001    ....    TBB      [pc,r1]
    $d
        0x0001aa5a:    0603        ..      DCW    1539
        0x0001aa5c:    1b181509    ....    DCD    454563081
    $t
        0x0001aa60:    f8c45234    ..4R    STR      r5,[r4,#0x234]
        0x0001aa64:    e01f        ..      B        0x1aaa6 ; am_hal_gpio_state_write + 110
        0x0001aa66:    f8c45224    ..$R    STR      r5,[r4,#0x224]
        0x0001aa6a:    e01c        ..      B        0x1aaa6 ; am_hal_gpio_state_write + 110
        0x0001aa6c:    f7fdfc7a    ..z.    BL       am_hal_interrupt_master_disable ; 0x18364
        0x0001aa70:    9000        ..      STR      r0,[sp,#0]
        0x0001aa72:    f8d40214    ....    LDR      r0,[r4,#0x214]
        0x0001aa76:    4068        h@      EORS     r0,r0,r5
        0x0001aa78:    f8c40214    ....    STR      r0,[r4,#0x214]
        0x0001aa7c:    9800        ..      LDR      r0,[sp,#0]
        0x0001aa7e:    f7fdfc75    ..u.    BL       am_hal_interrupt_master_set ; 0x1836c
        0x0001aa82:    e010        ..      B        0x1aaa6 ; am_hal_gpio_state_write + 110
        0x0001aa84:    f8c45264    ..dR    STR      r5,[r4,#0x264]
        0x0001aa88:    e00d        ..      B        0x1aaa6 ; am_hal_gpio_state_write + 110
        0x0001aa8a:    f8c45254    ..TR    STR      r5,[r4,#0x254]
        0x0001aa8e:    e00a        ..      B        0x1aaa6 ; am_hal_gpio_state_write + 110
        0x0001aa90:    f7fdfc68    ..h.    BL       am_hal_interrupt_master_disable ; 0x18364
        0x0001aa94:    9000        ..      STR      r0,[sp,#0]
        0x0001aa96:    f8d40244    ..D.    LDR      r0,[r4,#0x244]
        0x0001aa9a:    4068        h@      EORS     r0,r0,r5
        0x0001aa9c:    f8c40244    ..D.    STR      r0,[r4,#0x244]
        0x0001aaa0:    9800        ..      LDR      r0,[sp,#0]
        0x0001aaa2:    f7fdfc63    ..c.    BL       am_hal_interrupt_master_set ; 0x1836c
        0x0001aaa6:    2000        .       MOVS     r0,#0
        0x0001aaa8:    bd38        8.      POP      {r3-r5,pc}
        0x0001aaaa:    0000        ..      MOVS     r0,r0
    i.am_hal_itm_enable
    am_hal_itm_enable
        0x0001aaac:    480a        .H      LDR      r0,[pc,#40] ; [0x1aad8] = 0xe000edfc
        0x0001aaae:    6801        .h      LDR      r1,[r0,#0]
        0x0001aab0:    f0417180    A..q    ORR      r1,r1,#0x1000000
        0x0001aab4:    6001        .`      STR      r1,[r0,#0]
        0x0001aab6:    6801        .h      LDR      r1,[r0,#0]
        0x0001aab8:    f0117f80    ....    TST      r1,#0x1000000
        0x0001aabc:    d0fb        ..      BEQ      0x1aab6 ; am_hal_itm_enable + 10
        0x0001aabe:    4908        .I      LDR      r1,[pc,#32] ; [0x1aae0] = 0xe0000fb0
        0x0001aac0:    4806        .H      LDR      r0,[pc,#24] ; [0x1aadc] = 0xc5acce55
        0x0001aac2:    6008        .`      STR      r0,[r1,#0]
        0x0001aac4:    4907        .I      LDR      r1,[pc,#28] ; [0x1aae4] = 0xe0000e40
        0x0001aac6:    200f        .       MOVS     r0,#0xf
        0x0001aac8:    6008        .`      STR      r0,[r1,#0]
        0x0001aaca:    1748        H.      ASRS     r0,r1,#29
        0x0001aacc:    4906        .I      LDR      r1,[pc,#24] ; [0x1aae8] = 0xe0000e00
        0x0001aace:    6008        .`      STR      r0,[r1,#0]
        0x0001aad0:    4907        .I      LDR      r1,[pc,#28] ; [0x1aaf0] = 0xe0000e80
        0x0001aad2:    4806        .H      LDR      r0,[pc,#24] ; [0x1aaec] = 0x150511
        0x0001aad4:    6008        .`      STR      r0,[r1,#0]
        0x0001aad6:    4770        pG      BX       lr
    $d
        0x0001aad8:    e000edfc    ....    DCD    3758157308
        0x0001aadc:    c5acce55    U...    DCD    3316436565
        0x0001aae0:    e0000fb0    ....    DCD    3758100400
        0x0001aae4:    e0000e40    @...    DCD    3758100032
        0x0001aae8:    e0000e00    ....    DCD    3758099968
        0x0001aaec:    00150511    ....    DCD    1377553
        0x0001aaf0:    e0000e80    ....    DCD    3758100096
    $t
    i.am_hal_itm_print
    am_hal_itm_print
        0x0001aaf4:    7802        .x      LDRB     r2,[r0,#0]
        0x0001aaf6:    2100        .!      MOVS     r1,#0
        0x0001aaf8:    2a00        .*      CMP      r2,#0
        0x0001aafa:    bf08        ..      IT       EQ
        0x0001aafc:    4770        pG      BXEQ     lr
        0x0001aafe:    1c49        I.      ADDS     r1,r1,#1
        0x0001ab00:    5c42        B\      LDRB     r2,[r0,r1]
        0x0001ab02:    2a00        .*      CMP      r2,#0
        0x0001ab04:    d1fb        ..      BNE      0x1aafe ; am_hal_itm_print + 10
        0x0001ab06:    2900        .)      CMP      r1,#0
        0x0001ab08:    bf08        ..      IT       EQ
        0x0001ab0a:    4770        pG      BXEQ     lr
        0x0001ab0c:    f810cb01    ....    LDRB     r12,[r0],#1
        0x0001ab10:    f04f4260    O.`B    MOV      r2,#0xe0000000
        0x0001ab14:    6813        .h      LDR      r3,[r2,#0]
        0x0001ab16:    2b00        .+      CMP      r3,#0
        0x0001ab18:    d0fc        ..      BEQ      0x1ab14 ; am_hal_itm_print + 32
        0x0001ab1a:    f882c000    ....    STRB     r12,[r2,#0]
        0x0001ab1e:    1e49        I.      SUBS     r1,r1,#1
        0x0001ab20:    d1f4        ..      BNE      0x1ab0c ; am_hal_itm_print + 24
        0x0001ab22:    4770        pG      BX       lr
    i.am_hal_mcuctrl_info_get
    am_hal_mcuctrl_info_get
        0x0001ab24:    b119        ..      CBZ      r1,0x1ab2e ; am_hal_mcuctrl_info_get + 10
        0x0001ab26:    4a42        BJ      LDR      r2,[pc,#264] ; [0x1ac30] = 0x40020000
        0x0001ab28:    b118        ..      CBZ      r0,0x1ab32 ; am_hal_mcuctrl_info_get + 14
        0x0001ab2a:    2801        .(      CMP      r0,#1
        0x0001ab2c:    d020         .      BEQ      0x1ab70 ; am_hal_mcuctrl_info_get + 76
        0x0001ab2e:    2006        .       MOVS     r0,#6
        0x0001ab30:    4770        pG      BX       lr
        0x0001ab32:    2000        .       MOVS     r0,#0
        0x0001ab34:    7008        .p      STRB     r0,[r1,#0]
        0x0001ab36:    6950        Pi      LDR      r0,[r2,#0x14]
        0x0001ab38:    f0000003    ....    AND      r0,r0,#3
        0x0001ab3c:    7048        Hp      STRB     r0,[r1,#1]
        0x0001ab3e:    6950        Pi      LDR      r0,[r2,#0x14]
        0x0001ab40:    f3c00081    ....    UBFX     r0,r0,#2,#2
        0x0001ab44:    7088        .p      STRB     r0,[r1,#2]
        0x0001ab46:    6950        Pi      LDR      r0,[r2,#0x14]
        0x0001ab48:    f3c01080    ....    UBFX     r0,r0,#6,#1
        0x0001ab4c:    70c8        .p      STRB     r0,[r1,#3]
        0x0001ab4e:    6950        Pi      LDR      r0,[r2,#0x14]
        0x0001ab50:    f3c010c0    ....    UBFX     r0,r0,#7,#1
        0x0001ab54:    7108        .q      STRB     r0,[r1,#4]
        0x0001ab56:    6950        Pi      LDR      r0,[r2,#0x14]
        0x0001ab58:    f3c02000    ...     UBFX     r0,r0,#8,#1
        0x0001ab5c:    7148        Hq      STRB     r0,[r1,#5]
        0x0001ab5e:    6950        Pi      LDR      r0,[r2,#0x14]
        0x0001ab60:    f3c02040    ..@     UBFX     r0,r0,#9,#1
        0x0001ab64:    7188        .q      STRB     r0,[r1,#6]
        0x0001ab66:    6950        Pi      LDR      r0,[r2,#0x14]
        0x0001ab68:    f3c02080    ...     UBFX     r0,r0,#10,#1
        0x0001ab6c:    71c8        .q      STRB     r0,[r1,#7]
        0x0001ab6e:    e05d        ].      B        0x1ac2c ; am_hal_mcuctrl_info_get + 264
        0x0001ab70:    6810        .h      LDR      r0,[r2,#0]
        0x0001ab72:    6008        .`      STR      r0,[r1,#0]
        0x0001ab74:    6850        Ph      LDR      r0,[r2,#4]
        0x0001ab76:    6048        H`      STR      r0,[r1,#4]
        0x0001ab78:    6890        .h      LDR      r0,[r2,#8]
        0x0001ab7a:    6088        .`      STR      r0,[r1,#8]
        0x0001ab7c:    68d0        .h      LDR      r0,[r2,#0xc]
        0x0001ab7e:    60c8        .`      STR      r0,[r1,#0xc]
        0x0001ab80:    6910        .i      LDR      r0,[r2,#0x10]
        0x0001ab82:    6108        .a      STR      r0,[r1,#0x10]
        0x0001ab84:    6950        Pi      LDR      r0,[r2,#0x14]
        0x0001ab86:    6148        Ha      STR      r0,[r1,#0x14]
        0x0001ab88:    2001        .       MOVS     r0,#1
        0x0001ab8a:    6188        .a      STR      r0,[r1,#0x18]
        0x0001ab8c:    6950        Pi      LDR      r0,[r2,#0x14]
        0x0001ab8e:    4b29        )K      LDR      r3,[pc,#164] ; [0x1ac34] = 0x1f7da
        0x0001ab90:    f3c00081    ....    UBFX     r0,r0,#2,#2
        0x0001ab94:    f8330010    3...    LDRH     r0,[r3,r0,LSL #1]
        0x0001ab98:    0280        ..      LSLS     r0,r0,#10
        0x0001ab9a:    6288        .b      STR      r0,[r1,#0x28]
        0x0001ab9c:    f44f20c0    O..     MOV      r0,#0x60000
        0x0001aba0:    6208        .b      STR      r0,[r1,#0x20]
        0x0001aba2:    6950        Pi      LDR      r0,[r2,#0x14]
        0x0001aba4:    6952        Ri      LDR      r2,[r2,#0x14]
        0x0001aba6:    f0000303    ....    AND      r3,r0,#3
        0x0001abaa:    4823        #H      LDR      r0,[pc,#140] ; [0x1ac38] = 0x1f7e2
        0x0001abac:    f8303023    0.#0    LDRH     r3,[r0,r3,LSL #2]
        0x0001abb0:    f0020203    ....    AND      r2,r2,#3
        0x0001abb4:    eb000082    ....    ADD      r0,r0,r2,LSL #2
        0x0001abb8:    8840        @.      LDRH     r0,[r0,#2]
        0x0001abba:    4418        .D      ADD      r0,r0,r3
        0x0001abbc:    0280        ..      LSLS     r0,r0,#10
        0x0001abbe:    6248        Hb      STR      r0,[r1,#0x24]
        0x0001abc0:    481e        .H      LDR      r0,[pc,#120] ; [0x1ac3c] = 0xf0000fe0
        0x0001abc2:    6800        .h      LDR      r0,[r0,#0]
        0x0001abc4:    4a1e        .J      LDR      r2,[pc,#120] ; [0x1ac40] = 0xf0000fe4
        0x0001abc6:    b2c0        ..      UXTB     r0,r0
        0x0001abc8:    62c8        .b      STR      r0,[r1,#0x2c]
        0x0001abca:    6813        .h      LDR      r3,[r2,#0]
        0x0001abcc:    f003030f    ....    AND      r3,r3,#0xf
        0x0001abd0:    ea402003    @..     ORR      r0,r0,r3,LSL #8
        0x0001abd4:    62c8        .b      STR      r0,[r1,#0x2c]
        0x0001abd6:    6810        .h      LDR      r0,[r2,#0]
        0x0001abd8:    1d12        ..      ADDS     r2,r2,#4
        0x0001abda:    f3c01003    ....    UBFX     r0,r0,#4,#4
        0x0001abde:    6308        .c      STR      r0,[r1,#0x30]
        0x0001abe0:    6813        .h      LDR      r3,[r2,#0]
        0x0001abe2:    f003030f    ....    AND      r3,r3,#0xf
        0x0001abe6:    ea401003    @...    ORR      r0,r0,r3,LSL #4
        0x0001abea:    6308        .c      STR      r0,[r1,#0x30]
        0x0001abec:    6810        .h      LDR      r0,[r2,#0]
        0x0001abee:    f3c01003    ....    UBFX     r0,r0,#4,#4
        0x0001abf2:    0100        ..      LSLS     r0,r0,#4
        0x0001abf4:    1d12        ..      ADDS     r2,r2,#4
        0x0001abf6:    6348        Hc      STR      r0,[r1,#0x34]
        0x0001abf8:    6812        .h      LDR      r2,[r2,#0]
        0x0001abfa:    f3c21203    ....    UBFX     r2,r2,#4,#4
        0x0001abfe:    4310        .C      ORRS     r0,r0,r2
        0x0001ac00:    6348        Hc      STR      r0,[r1,#0x34]
        0x0001ac02:    4810        .H      LDR      r0,[pc,#64] ; [0x1ac44] = 0xf0000ffc
        0x0001ac04:    6800        .h      LDR      r0,[r0,#0]
        0x0001ac06:    4a10        .J      LDR      r2,[pc,#64] ; [0x1ac48] = 0xf0000ff8
        0x0001ac08:    0600        ..      LSLS     r0,r0,#24
        0x0001ac0a:    6388        .c      STR      r0,[r1,#0x38]
        0x0001ac0c:    6812        .h      LDR      r2,[r2,#0]
        0x0001ac0e:    b2d2        ..      UXTB     r2,r2
        0x0001ac10:    ea404002    @..@    ORR      r0,r0,r2,LSL #16
        0x0001ac14:    4a0d        .J      LDR      r2,[pc,#52] ; [0x1ac4c] = 0xf0000ff4
        0x0001ac16:    6388        .c      STR      r0,[r1,#0x38]
        0x0001ac18:    6812        .h      LDR      r2,[r2,#0]
        0x0001ac1a:    b2d2        ..      UXTB     r2,r2
        0x0001ac1c:    ea402002    @..     ORR      r0,r0,r2,LSL #8
        0x0001ac20:    4a0b        .J      LDR      r2,[pc,#44] ; [0x1ac50] = 0xf0000ff0
        0x0001ac22:    6388        .c      STR      r0,[r1,#0x38]
        0x0001ac24:    6812        .h      LDR      r2,[r2,#0]
        0x0001ac26:    b2d2        ..      UXTB     r2,r2
        0x0001ac28:    4310        .C      ORRS     r0,r0,r2
        0x0001ac2a:    6388        .c      STR      r0,[r1,#0x38]
        0x0001ac2c:    2000        .       MOVS     r0,#0
        0x0001ac2e:    4770        pG      BX       lr
    $d
        0x0001ac30:    40020000    ...@    DCD    1073872896
        0x0001ac34:    0001f7da    ....    DCD    128986
        0x0001ac38:    0001f7e2    ....    DCD    128994
        0x0001ac3c:    f0000fe0    ....    DCD    4026535904
        0x0001ac40:    f0000fe4    ....    DCD    4026535908
        0x0001ac44:    f0000ffc    ....    DCD    4026535932
        0x0001ac48:    f0000ff8    ....    DCD    4026535928
        0x0001ac4c:    f0000ff4    ....    DCD    4026535924
        0x0001ac50:    f0000ff0    ....    DCD    4026535920
    $t
    i.am_hal_mram_info_read
    am_hal_mram_info_read
        0x0001ac54:    b410        ..      PUSH     {r4}
        0x0001ac56:    0004        ..      MOVS     r4,r0
        0x0001ac58:    f04f0000    O...    MOV      r0,#0
        0x0001ac5c:    eb010c02    ....    ADD      r12,r1,r2
        0x0001ac60:    d012        ..      BEQ      0x1ac88 ; am_hal_mram_info_read + 52
        0x0001ac62:    2c01        .,      CMP      r4,#1
        0x0001ac64:    bf1e        ..      ITTT     NE
        0x0001ac66:    2001        .       MOVNE    r0,#1
        0x0001ac68:    bc10        ..      POPNE    {r4}
        0x0001ac6a:    4770        pG      BXNE     lr
        0x0001ac6c:    f5a16490    ...d    SUB      r4,r1,#0x480
        0x0001ac70:    f5b47fc0    ....    CMP      r4,#0x180
        0x0001ac74:    d205        ..      BCS      0x1ac82 ; am_hal_mram_info_read + 46
        0x0001ac76:    f5bc6fc0    ...o    CMP      r12,#0x600
        0x0001ac7a:    bf98        ..      IT       LS
        0x0001ac7c:    f8dfc040    ..@.    LDRLS    r12,[pc,#64] ; [0x1acc0] = 0x42002000
        0x0001ac80:    d90b        ..      BLS      0x1ac9a ; am_hal_mram_info_read + 70
        0x0001ac82:    bc10        ..      POP      {r4}
        0x0001ac84:    2002        .       MOVS     r0,#2
        0x0001ac86:    4770        pG      BX       lr
        0x0001ac88:    f5b17f00    ....    CMP      r1,#0x200
        0x0001ac8c:    d2f9        ..      BCS      0x1ac82 ; am_hal_mram_info_read + 46
        0x0001ac8e:    f5bc7f00    ....    CMP      r12,#0x200
        0x0001ac92:    bf98        ..      IT       LS
        0x0001ac94:    f04f4c84    O..L    MOVLS    r12,#0x42000000
        0x0001ac98:    d8f3        ..      BHI      0x1ac82 ; am_hal_mram_info_read + 46
        0x0001ac9a:    eb0c0181    ....    ADD      r1,r12,r1,LSL #2
        0x0001ac9e:    f04f0c00    O...    MOV      r12,#0
        0x0001aca2:    2a00        .*      CMP      r2,#0
        0x0001aca4:    bf9c        ..      ITT      LS
        0x0001aca6:    bc10        ..      POPLS    {r4}
        0x0001aca8:    4770        pG      BXLS     lr
        0x0001acaa:    bf00        ..      NOP      
        0x0001acac:    f8514b04    Q..K    LDR      r4,[r1],#4
        0x0001acb0:    f10c0c01    ....    ADD      r12,r12,#1
        0x0001acb4:    f8434b04    C..K    STR      r4,[r3],#4
        0x0001acb8:    4562        bE      CMP      r2,r12
        0x0001acba:    d8f7        ..      BHI      0x1acac ; am_hal_mram_info_read + 88
        0x0001acbc:    bc10        ..      POP      {r4}
        0x0001acbe:    4770        pG      BX       lr
    $d
        0x0001acc0:    42002000    . .B    DCD    1107304448
    $t
    i.am_hal_mspi_blocking_transfer
    am_hal_mspi_blocking_transfer
        0x0001acc4:    e92d4ff7    -..O    PUSH     {r0-r2,r4-r11,lr}
        0x0001acc8:    b084        ..      SUB      sp,sp,#0x10
        0x0001acca:    1e02        ..      SUBS     r2,r0,#0
        0x0001accc:    f04f0300    O...    MOV      r3,#0
        0x0001acd0:    bf1c        ..      ITT      NE
        0x0001acd2:    6810        .h      LDRNE    r0,[r2,#0]
        0x0001acd4:    f0107f80    ....    TSTNE    r0,#0x1000000
        0x0001acd8:    d005        ..      BEQ      0x1ace6 ; am_hal_mspi_blocking_transfer + 34
        0x0001acda:    f8dfc21c    ....    LDR      r12,[pc,#540] ; [0x1aef8] = 0xbebebe
        0x0001acde:    f020407f     ..@    BIC      r0,r0,#0xff000000
        0x0001ace2:    4560        `E      CMP      r0,r12
        0x0001ace4:    d003        ..      BEQ      0x1acee ; am_hal_mspi_blocking_transfer + 42
        0x0001ace6:    b007        ..      ADD      sp,sp,#0x1c
        0x0001ace8:    2002        .       MOVS     r0,#2
        0x0001acea:    e8bd8ff0    ....    POP      {r4-r11,pc}
        0x0001acee:    7a90        .z      LDRB     r0,[r2,#0xa]
        0x0001acf0:    280a        .(      CMP      r0,#0xa
        0x0001acf2:    bf18        ..      IT       NE
        0x0001acf4:    280b        .(      CMPNE    r0,#0xb
        0x0001acf6:    d103        ..      BNE      0x1ad00 ; am_hal_mspi_blocking_transfer + 60
        0x0001acf8:    7a08        .z      LDRB     r0,[r1,#8]
        0x0001acfa:    f0100f03    ....    TST      r0,#3
        0x0001acfe:    d164        d.      BNE      0x1adca ; am_hal_mspi_blocking_transfer + 262
        0x0001ad00:    7c88        .|      LDRB     r0,[r1,#0x12]
        0x0001ad02:    2800        .(      CMP      r0,#0
        0x0001ad04:    d161        a.      BNE      0x1adca ; am_hal_mspi_blocking_transfer + 262
        0x0001ad06:    6a10        .j      LDR      r0,[r2,#0x20]
        0x0001ad08:    6855        Uh      LDR      r5,[r2,#4]
        0x0001ad0a:    2800        .(      CMP      r0,#0
        0x0001ad0c:    bf04        ..      ITT      EQ
        0x0001ad0e:    f8d20840    ..@.    LDREQ    r0,[r2,#0x840]
        0x0001ad12:    2800        .(      CMPEQ    r0,#0
        0x0001ad14:    d159        Y.      BNE      0x1adca ; am_hal_mspi_blocking_transfer + 262
        0x0001ad16:    f892082c    ..,.    LDRB     r0,[r2,#0x82c]
        0x0001ad1a:    2802        .(      CMP      r0,#2
        0x0001ad1c:    d055        U.      BEQ      0x1adca ; am_hal_mspi_blocking_transfer + 262
        0x0001ad1e:    8808        ..      LDRH     r0,[r1,#0]
        0x0001ad20:    f44f7c00    O..|    MOV      r12,#0x200
        0x0001ad24:    ea434000    C..@    ORR      r0,r3,r0,LSL #16
        0x0001ad28:    790b        .y      LDRB     r3,[r1,#4]
        0x0001ad2a:    ea0c2343    ..C#    AND      r3,r12,r3,LSL #9
        0x0001ad2e:    4318        .C      ORRS     r0,r0,r3
        0x0001ad30:    798b        .y      LDRB     r3,[r1,#6]
        0x0001ad32:    f04f0c80    O...    MOV      r12,#0x80
        0x0001ad36:    ea0c13c3    ....    AND      r3,r12,r3,LSL #7
        0x0001ad3a:    4318        .C      ORRS     r0,r0,r3
        0x0001ad3c:    7b0b        .{      LDRB     r3,[r1,#0xc]
        0x0001ad3e:    b153        S.      CBZ      r3,0x1ad56 ; am_hal_mspi_blocking_transfer + 146
        0x0001ad40:    ea4f3c05    O..<    LSL      r12,r5,#12
        0x0001ad44:    f10c4c80    ...L    ADD      r12,r12,#0x40000000
        0x0001ad48:    f50c2cc0    ...,    ADD      r12,r12,#0x60000
        0x0001ad4c:    89cb        ..      LDRH     r3,[r1,#0xe]
        0x0001ad4e:    f0400040    @.@.    ORR      r0,r0,#0x40
        0x0001ad52:    f8cc300c    ...0    STR      r3,[r12,#0xc]
        0x0001ad56:    79cb        .y      LDRB     r3,[r1,#7]
        0x0001ad58:    b153        S.      CBZ      r3,0x1ad70 ; am_hal_mspi_blocking_transfer + 172
        0x0001ad5a:    ea4f3c05    O..<    LSL      r12,r5,#12
        0x0001ad5e:    f10c4c80    ...L    ADD      r12,r12,#0x40000000
        0x0001ad62:    f50c2cc0    ...,    ADD      r12,r12,#0x60000
        0x0001ad66:    688b        .h      LDR      r3,[r1,#8]
        0x0001ad68:    f0400020    @. .    ORR      r0,r0,#0x20
        0x0001ad6c:    f8cc3008    ...0    STR      r3,[r12,#8]
        0x0001ad70:    7c0b        .|      LDRB     r3,[r1,#0x10]
        0x0001ad72:    2b00        .+      CMP      r3,#0
        0x0001ad74:    bf18        ..      IT       NE
        0x0001ad76:    f4406080    @..`    ORRNE    r0,r0,#0x400
        0x0001ad7a:    7b53        S{      LDRB     r3,[r2,#0xd]
        0x0001ad7c:    f44f7c80    O..|    MOV      r12,#0x100
        0x0001ad80:    ea0c2303    ...#    AND      r3,r12,r3,LSL #8
        0x0001ad84:    4318        .C      ORRS     r0,r0,r3
        0x0001ad86:    7c4b        K|      LDRB     r3,[r1,#0x11]
        0x0001ad88:    f44f5c80    O..\    MOV      r12,#0x1000
        0x0001ad8c:    ea0c3303    ...3    AND      r3,r12,r3,LSL #12
        0x0001ad90:    4318        .C      ORRS     r0,r0,r3
        0x0001ad92:    794b        Ky      LDRB     r3,[r1,#5]
        0x0001ad94:    2b00        .+      CMP      r3,#0
        0x0001ad96:    bf18        ..      IT       NE
        0x0001ad98:    f4406000    @..`    ORRNE    r0,r0,#0x800
        0x0001ad9c:    f0400001    @...    ORR      r0,r0,#1
        0x0001ada0:    032b        +.      LSLS     r3,r5,#12
        0x0001ada2:    f1034680    ...F    ADD      r6,r3,#0x40000000
        0x0001ada6:    f50626c0    ...&    ADD      r6,r6,#0x60000
        0x0001adaa:    f8d63200    ...2    LDR      r3,[r6,#0x200]
        0x0001adae:    9301        ..      STR      r3,[sp,#4]
        0x0001adb0:    2300        .#      MOVS     r3,#0
        0x0001adb2:    f8c63200    ...2    STR      r3,[r6,#0x200]
        0x0001adb6:    1e5b        [.      SUBS     r3,r3,#1
        0x0001adb8:    f8c63208    ...2    STR      r3,[r6,#0x208]
        0x0001adbc:    6030        0`      STR      r0,[r6,#0]
        0x0001adbe:    798b        .y      LDRB     r3,[r1,#6]
        0x0001adc0:    2005        .       MOVS     r0,#5
        0x0001adc2:    b133        3.      CBZ      r3,0x1add2 ; am_hal_mspi_blocking_transfer + 270
        0x0001adc4:    2b01        .+      CMP      r3,#1
        0x0001adc6:    d05a        Z.      BEQ      0x1ae7e ; am_hal_mspi_blocking_transfer + 442
        0x0001adc8:    e08b        ..      B        0x1aee2 ; am_hal_mspi_blocking_transfer + 542
        0x0001adca:    b007        ..      ADD      sp,sp,#0x1c
        0x0001adcc:    2007        .       MOVS     r0,#7
        0x0001adce:    e8bd8ff0    ....    POP      {r4-r11,pc}
        0x0001add2:    f8d1a014    ....    LDR      r10,[r1,#0x14]
        0x0001add6:    6809        .h      LDR      r1,[r1,#0]
        0x0001add8:    6912        .i      LDR      r2,[r2,#0x10]
        0x0001adda:    9202        ..      STR      r2,[sp,#8]
        0x0001addc:    2d03        .-      CMP      r5,#3
        0x0001adde:    d276        v.      BCS      0x1aece ; am_hal_mspi_blocking_transfer + 522
        0x0001ade0:    ea5f0891    _...    LSRS     r8,r1,#2
        0x0001ade4:    f1c80000    ....    RSB      r0,r8,#0
        0x0001ade8:    eb010980    ....    ADD      r9,r1,r0,LSL #2
        0x0001adec:    f04f0400    O...    MOV      r4,#0
        0x0001adf0:    d018        ..      BEQ      0x1ae24 ; am_hal_mspi_blocking_transfer + 352
        0x0001adf2:    4842        BH      LDR      r0,[pc,#264] ; [0x1aefc] = 0x4006001c
        0x0001adf4:    eb003705    ...7    ADD      r7,r0,r5,LSL #12
        0x0001adf8:    0328        (.      LSLS     r0,r5,#12
        0x0001adfa:    f1004b80    ...K    ADD      r11,r0,#0x40000000
        0x0001adfe:    f50b2bc0    ...+    ADD      r11,r11,#0x60000
        0x0001ae02:    2000        .       MOVS     r0,#0
        0x0001ae04:    4603        .F      MOV      r3,r0
        0x0001ae06:    9000        ..      STR      r0,[sp,#0]
        0x0001ae08:    4639        9F      MOV      r1,r7
        0x0001ae0a:    223f        ?"      MOVS     r2,#0x3f
        0x0001ae0c:    9802        ..      LDR      r0,[sp,#8]
        0x0001ae0e:    f7fffd8f    ....    BL       am_hal_delay_us_status_check ; 0x1a930
        0x0001ae12:    2800        .(      CMP      r0,#0
        0x0001ae14:    d15b        [.      BNE      0x1aece ; am_hal_mspi_blocking_transfer + 522
        0x0001ae16:    f8db0014    ....    LDR      r0,[r11,#0x14]
        0x0001ae1a:    f84a0024    J.$.    STR      r0,[r10,r4,LSL #2]
        0x0001ae1e:    1c64        d.      ADDS     r4,r4,#1
        0x0001ae20:    4544        DE      CMP      r4,r8
        0x0001ae22:    d3ee        ..      BCC      0x1ae02 ; am_hal_mspi_blocking_transfer + 318
        0x0001ae24:    f1b90f00    ....    CMP      r9,#0
        0x0001ae28:    d05b        [.      BEQ      0x1aee2 ; am_hal_mspi_blocking_transfer + 542
        0x0001ae2a:    2000        .       MOVS     r0,#0
        0x0001ae2c:    9000        ..      STR      r0,[sp,#0]
        0x0001ae2e:    4833        3H      LDR      r0,[pc,#204] ; [0x1aefc] = 0x4006001c
        0x0001ae30:    2300        .#      MOVS     r3,#0
        0x0001ae32:    eb003105    ...1    ADD      r1,r0,r5,LSL #12
        0x0001ae36:    223f        ?"      MOVS     r2,#0x3f
        0x0001ae38:    9802        ..      LDR      r0,[sp,#8]
        0x0001ae3a:    f7fffd79    ..y.    BL       am_hal_delay_us_status_check ; 0x1a930
        0x0001ae3e:    bbe8        ..      CBNZ     r0,0x1aebc ; am_hal_mspi_blocking_transfer + 504
        0x0001ae40:    0328        (.      LSLS     r0,r5,#12
        0x0001ae42:    f1004080    ...@    ADD      r0,r0,#0x40000000
        0x0001ae46:    f50020c0    ...     ADD      r0,r0,#0x60000
        0x0001ae4a:    6940        @i      LDR      r0,[r0,#0x14]
        0x0001ae4c:    9003        ..      STR      r0,[sp,#0xc]
        0x0001ae4e:    eb0a0084    ....    ADD      r0,r10,r4,LSL #2
        0x0001ae52:    1e41        A.      SUBS     r1,r0,#1
        0x0001ae54:    f10d020b    ....    ADD      r2,sp,#0xb
        0x0001ae58:    f0190f01    ....    TST      r9,#1
        0x0001ae5c:    d003        ..      BEQ      0x1ae66 ; am_hal_mspi_blocking_transfer + 418
        0x0001ae5e:    f8120f01    ....    LDRB     r0,[r2,#1]!
        0x0001ae62:    f8010f01    ....    STRB     r0,[r1,#1]!
        0x0001ae66:    ea5f0059    _.Y.    LSRS     r0,r9,#1
        0x0001ae6a:    d03a        :.      BEQ      0x1aee2 ; am_hal_mspi_blocking_transfer + 542
        0x0001ae6c:    7853        Sx      LDRB     r3,[r2,#1]
        0x0001ae6e:    704b        Kp      STRB     r3,[r1,#1]
        0x0001ae70:    f8123f02    ...?    LDRB     r3,[r2,#2]!
        0x0001ae74:    f8013f02    ...?    STRB     r3,[r1,#2]!
        0x0001ae78:    1e40        @.      SUBS     r0,r0,#1
        0x0001ae7a:    d1f7        ..      BNE      0x1ae6c ; am_hal_mspi_blocking_transfer + 424
        0x0001ae7c:    e031        1.      B        0x1aee2 ; am_hal_mspi_blocking_transfer + 542
        0x0001ae7e:    f8d1a014    ....    LDR      r10,[r1,#0x14]
        0x0001ae82:    f8d18000    ....    LDR      r8,[r1,#0]
        0x0001ae86:    6911        .i      LDR      r1,[r2,#0x10]
        0x0001ae88:    9102        ..      STR      r1,[sp,#8]
        0x0001ae8a:    2d03        .-      CMP      r5,#3
        0x0001ae8c:    d21f        ..      BCS      0x1aece ; am_hal_mspi_blocking_transfer + 522
        0x0001ae8e:    2400        .$      MOVS     r4,#0
        0x0001ae90:    f1b80f00    ....    CMP      r8,#0
        0x0001ae94:    d925        %.      BLS      0x1aee2 ; am_hal_mspi_blocking_transfer + 542
        0x0001ae96:    0328        (.      LSLS     r0,r5,#12
        0x0001ae98:    4919        .I      LDR      r1,[pc,#100] ; [0x1af00] = 0x40060018
        0x0001ae9a:    f1004980    ...I    ADD      r9,r0,#0x40000000
        0x0001ae9e:    46a3        .F      MOV      r11,r4
        0x0001aea0:    f50929c0    ...)    ADD      r9,r9,#0x60000
        0x0001aea4:    eb013705    ...7    ADD      r7,r1,r5,LSL #12
        0x0001aea8:    f85a0024    Z.$.    LDR      r0,[r10,r4,LSL #2]
        0x0001aeac:    f8c90010    ....    STR      r0,[r9,#0x10]
        0x0001aeb0:    2310        .#      MOVS     r3,#0x10
        0x0001aeb2:    4639        9F      MOV      r1,r7
        0x0001aeb4:    223f        ?"      MOVS     r2,#0x3f
        0x0001aeb6:    f8cdb000    ....    STR      r11,[sp,#0]
        0x0001aeba:    e000        ..      B        0x1aebe ; am_hal_mspi_blocking_transfer + 506
        0x0001aebc:    e007        ..      B        0x1aece ; am_hal_mspi_blocking_transfer + 522
        0x0001aebe:    9802        ..      LDR      r0,[sp,#8]
        0x0001aec0:    f7fffd36    ..6.    BL       am_hal_delay_us_status_check ; 0x1a930
        0x0001aec4:    1c64        d.      ADDS     r4,r4,#1
        0x0001aec6:    ebb80f84    ....    CMP      r8,r4,LSL #2
        0x0001aeca:    d8ed        ..      BHI      0x1aea8 ; am_hal_mspi_blocking_transfer + 484
        0x0001aecc:    b148        H.      CBZ      r0,0x1aee2 ; am_hal_mspi_blocking_transfer + 542
        0x0001aece:    f04f31ff    O..1    MOV      r1,#0xffffffff
        0x0001aed2:    f8c61208    ....    STR      r1,[r6,#0x208]
        0x0001aed6:    9901        ..      LDR      r1,[sp,#4]
        0x0001aed8:    f8c61200    ....    STR      r1,[r6,#0x200]
        0x0001aedc:    b007        ..      ADD      sp,sp,#0x1c
        0x0001aede:    e8bd8ff0    ....    POP      {r4-r11,pc}
        0x0001aee2:    2001        .       MOVS     r0,#1
        0x0001aee4:    9000        ..      STR      r0,[sp,#0]
        0x0001aee6:    4807        .H      LDR      r0,[pc,#28] ; [0x1af04] = 0x40060000
        0x0001aee8:    2302        .#      MOVS     r3,#2
        0x0001aeea:    eb003105    ...1    ADD      r1,r0,r5,LSL #12
        0x0001aeee:    461a        .F      MOV      r2,r3
        0x0001aef0:    9806        ..      LDR      r0,[sp,#0x18]
        0x0001aef2:    f7fffd1d    ....    BL       am_hal_delay_us_status_check ; 0x1a930
        0x0001aef6:    e7ea        ..      B        0x1aece ; am_hal_mspi_blocking_transfer + 522
    $d
        0x0001aef8:    00bebebe    ....    DCD    12500670
        0x0001aefc:    4006001c    ...@    DCD    1074135068
        0x0001af00:    40060018    ...@    DCD    1074135064
        0x0001af04:    40060000    ...@    DCD    1074135040
    $t
    i.am_hal_mspi_configure
    am_hal_mspi_configure
        0x0001af08:    b410        ..      PUSH     {r4}
        0x0001af0a:    6843        Ch      LDR      r3,[r0,#4]
        0x0001af0c:    2800        .(      CMP      r0,#0
        0x0001af0e:    bf1c        ..      ITT      NE
        0x0001af10:    6802        .h      LDRNE    r2,[r0,#0]
        0x0001af12:    f0127f80    ....    TSTNE    r2,#0x1000000
        0x0001af16:    d004        ..      BEQ      0x1af22 ; am_hal_mspi_configure + 26
        0x0001af18:    4c31        1L      LDR      r4,[pc,#196] ; [0x1afe0] = 0xbebebe
        0x0001af1a:    f0224c7f    "..L    BIC      r12,r2,#0xff000000
        0x0001af1e:    45a4        .E      CMP      r12,r4
        0x0001af20:    d002        ..      BEQ      0x1af28 ; am_hal_mspi_configure + 32
        0x0001af22:    bc10        ..      POP      {r4}
        0x0001af24:    2002        .       MOVS     r0,#2
        0x0001af26:    4770        pG      BX       lr
        0x0001af28:    f0127f00    ....    TST      r2,#0x2000000
        0x0001af2c:    bf1e        ..      ITTT     NE
        0x0001af2e:    2007        .       MOVNE    r0,#7
        0x0001af30:    bc10        ..      POPNE    {r4}
        0x0001af32:    4770        pG      BXNE     lr
        0x0001af34:    031a        ..      LSLS     r2,r3,#12
        0x0001af36:    f1024280    ...B    ADD      r2,r2,#0x40000000
        0x0001af3a:    f50222c0    ..."    ADD      r2,r2,#0x60000
        0x0001af3e:    f8d2c090    ....    LDR      r12,[r2,#0x90]
        0x0001af42:    f02c0c01    ,...    BIC      r12,r12,#1
        0x0001af46:    f8c2c090    ....    STR      r12,[r2,#0x90]
        0x0001af4a:    f04f0c00    O...    MOV      r12,#0
        0x0001af4e:    f8c2c09c    ....    STR      r12,[r2,#0x9c]
        0x0001af52:    f8c2c080    ....    STR      r12,[r2,#0x80]
        0x0001af56:    eb031243    ..C.    ADD      r2,r3,r3,LSL #5
        0x0001af5a:    eb021302    ....    ADD      r3,r2,r2,LSL #4
        0x0001af5e:    4a21        !J      LDR      r2,[pc,#132] ; [0x1afe4] = 0x10003134
        0x0001af60:    f8d1c004    ....    LDR      r12,[r1,#4]
        0x0001af64:    eb020283    ....    ADD      r2,r2,r3,LSL #2
        0x0001af68:    f8c2c018    ....    STR      r12,[r2,#0x18]
        0x0001af6c:    680b        .h      LDR      r3,[r1,#0]
        0x0001af6e:    6153        Sa      STR      r3,[r2,#0x14]
        0x0001af70:    6983        .i      LDR      r3,[r0,#0x18]
        0x0001af72:    b363        c.      CBZ      r3,0x1afce ; am_hal_mspi_configure + 198
        0x0001af74:    f8d0c014    ....    LDR      r12,[r0,#0x14]
        0x0001af78:    eb03038c    ....    ADD      r3,r3,r12,LSL #2
        0x0001af7c:    f8dfc068    ..h.    LDR      r12,[pc,#104] ; [0x1afe8] = 0x10060000
        0x0001af80:    4563        cE      CMP      r3,r12
        0x0001af82:    bf2c        ,.      ITE      CS
        0x0001af84:    2300        .#      MOVCS    r3,#0
        0x0001af86:    2301        .#      MOVCC    r3,#1
        0x0001af88:    f88038c0    ...8    STRB     r3,[r0,#0x8c0]
        0x0001af8c:    b97b        {.      CBNZ     r3,0x1afae ; am_hal_mspi_configure + 166
        0x0001af8e:    f8d0c018    ....    LDR      r12,[r0,#0x18]
        0x0001af92:    6944        Di      LDR      r4,[r0,#0x14]
        0x0001af94:    f10c030f    ....    ADD      r3,r12,#0xf
        0x0001af98:    f023030f    #...    BIC      r3,r3,#0xf
        0x0001af9c:    f00c0c0f    ....    AND      r12,r12,#0xf
        0x0001afa0:    ebcc0c84    ....    RSB      r12,r12,r4,LSL #2
        0x0001afa4:    6183        .a      STR      r3,[r0,#0x18]
        0x0001afa6:    ea4f131c    O...    LSR      r3,r12,#4
        0x0001afaa:    009b        ..      LSLS     r3,r3,#2
        0x0001afac:    6143        Ca      STR      r3,[r0,#0x14]
        0x0001afae:    6940        @i      LDR      r0,[r0,#0x14]
        0x0001afb0:    4b0e        .K      LDR      r3,[pc,#56] ; [0x1afec] = 0x38e38e39
        0x0001afb2:    0080        ..      LSLS     r0,r0,#2
        0x0001afb4:    3820         8      SUBS     r0,r0,#0x20
        0x0001afb6:    fba33000    ...0    UMULL    r3,r0,r3,r0
        0x0001afba:    0900        ..      LSRS     r0,r0,#4
        0x0001afbc:    f8c20858    ..X.    STR      r0,[r2,#0x858]
        0x0001afc0:    f5b07f80    ....    CMP      r0,#0x100
        0x0001afc4:    bf88        ..      IT       HI
        0x0001afc6:    f44f7080    O..p    MOVHI    r0,#0x100
        0x0001afca:    f8c20858    ..X.    STR      r0,[r2,#0x858]
        0x0001afce:    7a08        .z      LDRB     r0,[r1,#8]
        0x0001afd0:    7250        Pr      STRB     r0,[r2,#9]
        0x0001afd2:    2001        .       MOVS     r0,#1
        0x0001afd4:    7210        .r      STRB     r0,[r2,#8]
        0x0001afd6:    201a        .       MOVS     r0,#0x1a
        0x0001afd8:    7290        .r      STRB     r0,[r2,#0xa]
        0x0001afda:    bc10        ..      POP      {r4}
        0x0001afdc:    2000        .       MOVS     r0,#0
        0x0001afde:    4770        pG      BX       lr
    $d
        0x0001afe0:    00bebebe    ....    DCD    12500670
        0x0001afe4:    10003134    41..    DCD    268448052
        0x0001afe8:    10060000    ....    DCD    268828672
        0x0001afec:    38e38e39    9..8    DCD    954437177
    $t
    i.am_hal_mspi_control
    am_hal_mspi_control
        0x0001aff0:    e92d43f0    -..C    PUSH     {r4-r9,lr}
        0x0001aff4:    b083        ..      SUB      sp,sp,#0xc
        0x0001aff6:    0004        ..      MOVS     r4,r0
        0x0001aff8:    f04f0600    O...    MOV      r6,#0
        0x0001affc:    bf1c        ..      ITT      NE
        0x0001affe:    6820         h      LDRNE    r0,[r4,#0]
        0x0001b000:    f0107f80    ....    TSTNE    r0,#0x1000000
        0x0001b004:    d004        ..      BEQ      0x1b010 ; am_hal_mspi_control + 32
        0x0001b006:    f020437f     ..C    BIC      r3,r0,#0xff000000
        0x0001b00a:    48fe        .H      LDR      r0,[pc,#1016] ; [0x1b404] = 0xbebebe
        0x0001b00c:    4283        .B      CMP      r3,r0
        0x0001b00e:    d003        ..      BEQ      0x1b018 ; am_hal_mspi_control + 40
        0x0001b010:    b003        ..      ADD      sp,sp,#0xc
        0x0001b012:    2002        .       MOVS     r0,#2
        0x0001b014:    e8bd83f0    ....    POP      {r4-r9,pc}
        0x0001b018:    2921        !)      CMP      r1,#0x21
        0x0001b01a:    f200865c    ..\.    BHI.W    0x1bcd6 ; am_hal_mspi_control + 3302
        0x0001b01e:    7a20         z      LDRB     r0,[r4,#8]
        0x0001b020:    2800        .(      CMP      r0,#0
        0x0001b022:    f0008563    ..c.    BEQ.W    0x1baec ; am_hal_mspi_control + 2812
        0x0001b026:    6865        eh      LDR      r5,[r4,#4]
        0x0001b028:    2921        !)      CMP      r1,#0x21
        0x0001b02a:    f0808654    ..T.    BCS.W    0x1bcd6 ; am_hal_mspi_control + 3302
        0x0001b02e:    e8dff001    ....    TBB      [pc,r1]
    $d
        0x0001b032:    1e11        ..      DCW    7697
        0x0001b034:    6156402f    /@Va    DCD    1633042479
        0x0001b038:    9283766c    lv..    DCD    2458089068
        0x0001b03c:    fcfda99c    ....    DCD    4244482460
        0x0001b040:    f8f9fafb    ....    DCD    4177132283
        0x0001b044:    f4f5f6f7    ....    DCD    4109760247
        0x0001b048:    f0f1f2f3    ....    DCD    4042388211
        0x0001b04c:    ecedeeef    ....    DCD    3975016175
        0x0001b050:    00e9eaeb    ....    DCD    15330027
    $t
        0x0001b054:    2a00        .*      CMP      r2,#0
        0x0001b056:    f000863e    ..>.    BEQ.W    0x1bcd6 ; am_hal_mspi_control + 3302
        0x0001b05a:    0328        (.      LSLS     r0,r5,#12
        0x0001b05c:    f1004080    ...@    ADD      r0,r0,#0x40000000
        0x0001b060:    f50020c0    ...     ADD      r0,r0,#0x60000
        0x0001b064:    7812        .x      LDRB     r2,[r2,#0]
        0x0001b066:    6b01        .k      LDR      r1,[r0,#0x30]
        0x0001b068:    f3620100    b...    BFI      r1,r2,#0,#1
        0x0001b06c:    e034        4.      B        0x1b0d8 ; am_hal_mspi_control + 232
        0x0001b06e:    2a00        .*      CMP      r2,#0
        0x0001b070:    f0008631    ..1.    BEQ.W    0x1bcd6 ; am_hal_mspi_control + 3302
        0x0001b074:    49e4        .I      LDR      r1,[pc,#912] ; [0x1b408] = 0xe0e0e0
        0x0001b076:    6810        .h      LDR      r0,[r2,#0]
        0x0001b078:    4208        .B      TST      r0,r1
        0x0001b07a:    f040862c    @.,.    BNE.W    0x1bcd6 ; am_hal_mspi_control + 3302
        0x0001b07e:    0329        ).      LSLS     r1,r5,#12
        0x0001b080:    f1014180    ...A    ADD      r1,r1,#0x40000000
        0x0001b084:    f50121c0    ...!    ADD      r1,r1,#0x60000
        0x0001b088:    f8c102b4    ....    STR      r0,[r1,#0x2b4]
        0x0001b08c:    f000be20    .. .    B.W      0x1bcd0 ; am_hal_mspi_control + 3296
        0x0001b090:    2a00        .*      CMP      r2,#0
        0x0001b092:    bf1c        ..      ITT      NE
        0x0001b094:    6811        .h      LDRNE    r1,[r2,#0]
        0x0001b096:    2908        .)      CMPNE    r1,#8
        0x0001b098:    f080861d    ....    BCS.W    0x1bcd6 ; am_hal_mspi_control + 3302
        0x0001b09c:    0328        (.      LSLS     r0,r5,#12
        0x0001b09e:    f1004080    ...@    ADD      r0,r0,#0x40000000
        0x0001b0a2:    f50020c0    ...     ADD      r0,r0,#0x60000
        0x0001b0a6:    6b02        .k      LDR      r2,[r0,#0x30]
        0x0001b0a8:    f3611207    a...    BFI      r2,r1,#4,#4
        0x0001b0ac:    6302        .c      STR      r2,[r0,#0x30]
        0x0001b0ae:    f000be0f    ....    B.W      0x1bcd0 ; am_hal_mspi_control + 3296
        0x0001b0b2:    2a00        .*      CMP      r2,#0
        0x0001b0b4:    f000860f    ....    BEQ.W    0x1bcd6 ; am_hal_mspi_control + 3302
        0x0001b0b8:    6810        .h      LDR      r0,[r2,#0]
        0x0001b0ba:    2803        .(      CMP      r0,#3
        0x0001b0bc:    d302        ..      BCC      0x1b0c4 ; am_hal_mspi_control + 212
        0x0001b0be:    2807        .(      CMP      r0,#7
        0x0001b0c0:    f0408609    @...    BNE.W    0x1bcd6 ; am_hal_mspi_control + 3302
        0x0001b0c4:    f1000208    ....    ADD      r2,r0,#8
        0x0001b0c8:    0328        (.      LSLS     r0,r5,#12
        0x0001b0ca:    f1004080    ...@    ADD      r0,r0,#0x40000000
        0x0001b0ce:    f50020c0    ...     ADD      r0,r0,#0x60000
        0x0001b0d2:    6b01        .k      LDR      r1,[r0,#0x30]
        0x0001b0d4:    f3621107    b...    BFI      r1,r2,#4,#4
        0x0001b0d8:    6301        .c      STR      r1,[r0,#0x30]
        0x0001b0da:    f000bdf9    ....    B.W      0x1bcd0 ; am_hal_mspi_control + 3296
        0x0001b0de:    0328        (.      LSLS     r0,r5,#12
        0x0001b0e0:    f1004080    ...@    ADD      r0,r0,#0x40000000
        0x0001b0e4:    f50020c0    ...     ADD      r0,r0,#0x60000
        0x0001b0e8:    f8d01090    ....    LDR      r1,[r0,#0x90]
        0x0001b0ec:    f4215180    !..Q    BIC      r1,r1,#0x1000
        0x0001b0f0:    f000bdec    ....    B.W      0x1bccc ; am_hal_mspi_control + 3292
        0x0001b0f4:    0328        (.      LSLS     r0,r5,#12
        0x0001b0f6:    f1004080    ...@    ADD      r0,r0,#0x40000000
        0x0001b0fa:    f50020c0    ...     ADD      r0,r0,#0x60000
        0x0001b0fe:    f8d01090    ....    LDR      r1,[r0,#0x90]
        0x0001b102:    f4415180    A..Q    ORR      r1,r1,#0x1000
        0x0001b106:    f000bde1    ....    B.W      0x1bccc ; am_hal_mspi_control + 3292
        0x0001b10a:    0328        (.      LSLS     r0,r5,#12
        0x0001b10c:    f1004080    ...@    ADD      r0,r0,#0x40000000
        0x0001b110:    f50020c0    ...     ADD      r0,r0,#0x60000
        0x0001b114:    f8d0109c    ....    LDR      r1,[r0,#0x9c]
        0x0001b118:    f0214100    !..A    BIC      r1,r1,#0x80000000
        0x0001b11c:    e008        ..      B        0x1b130 ; am_hal_mspi_control + 320
        0x0001b11e:    0328        (.      LSLS     r0,r5,#12
        0x0001b120:    f1004080    ...@    ADD      r0,r0,#0x40000000
        0x0001b124:    f50020c0    ...     ADD      r0,r0,#0x60000
        0x0001b128:    f8d0109c    ....    LDR      r1,[r0,#0x9c]
        0x0001b12c:    f0414100    A..A    ORR      r1,r1,#0x80000000
        0x0001b130:    f8c0109c    ....    STR      r1,[r0,#0x9c]
        0x0001b134:    f000bdcc    ....    B.W      0x1bcd0 ; am_hal_mspi_control + 3296
        0x0001b138:    2a00        .*      CMP      r2,#0
        0x0001b13a:    f00085cc    ....    BEQ.W    0x1bcd6 ; am_hal_mspi_control + 3302
        0x0001b13e:    0328        (.      LSLS     r0,r5,#12
        0x0001b140:    f1004080    ...@    ADD      r0,r0,#0x40000000
        0x0001b144:    f50020c0    ...     ADD      r0,r0,#0x60000
        0x0001b148:    7812        .x      LDRB     r2,[r2,#0]
        0x0001b14a:    f8d01090    ....    LDR      r1,[r0,#0x90]
        0x0001b14e:    f3620183    b...    BFI      r1,r2,#2,#2
        0x0001b152:    f000bdbb    ....    B.W      0x1bccc ; am_hal_mspi_control + 3292
        0x0001b156:    0328        (.      LSLS     r0,r5,#12
        0x0001b158:    f1004080    ...@    ADD      r0,r0,#0x40000000
        0x0001b15c:    f50020c0    ...     ADD      r0,r0,#0x60000
        0x0001b160:    f8d01088    ....    LDR      r1,[r0,#0x88]
        0x0001b164:    f0210101    !...    BIC      r1,r1,#1
        0x0001b168:    e008        ..      B        0x1b17c ; am_hal_mspi_control + 396
        0x0001b16a:    0328        (.      LSLS     r0,r5,#12
        0x0001b16c:    f1004080    ...@    ADD      r0,r0,#0x40000000
        0x0001b170:    f50020c0    ...     ADD      r0,r0,#0x60000
        0x0001b174:    f8d01088    ....    LDR      r1,[r0,#0x88]
        0x0001b178:    f0410101    A...    ORR      r1,r1,#1
        0x0001b17c:    f8c01088    ....    STR      r1,[r0,#0x88]
        0x0001b180:    f000bda6    ....    B.W      0x1bcd0 ; am_hal_mspi_control + 3296
        0x0001b184:    2000        .       MOVS     r0,#0
        0x0001b186:    2a00        .*      CMP      r2,#0
        0x0001b188:    f00085a5    ....    BEQ.W    0x1bcd6 ; am_hal_mspi_control + 3302
        0x0001b18c:    0329        ).      LSLS     r1,r5,#12
        0x0001b18e:    f1014180    ...A    ADD      r1,r1,#0x40000000
        0x0001b192:    f50121c0    ...!    ADD      r1,r1,#0x60000
        0x0001b196:    f892c000    ....    LDRB     r12,[r2,#0]
        0x0001b19a:    f8d13088    ...0    LDR      r3,[r1,#0x88]
        0x0001b19e:    f36c0382    l...    BFI      r3,r12,#2,#1
        0x0001b1a2:    f8c13088    ...0    STR      r3,[r1,#0x88]
        0x0001b1a6:    f892c001    ....    LDRB     r12,[r2,#1]
        0x0001b1aa:    f8d13088    ...0    LDR      r3,[r1,#0x88]
        0x0001b1ae:    f36c03c3    l...    BFI      r3,r12,#3,#1
        0x0001b1b2:    f8c13088    ...0    STR      r3,[r1,#0x88]
        0x0001b1b6:    f892c002    ....    LDRB     r12,[r2,#2]
        0x0001b1ba:    f8d13088    ...0    LDR      r3,[r1,#0x88]
        0x0001b1be:    f36c1304    l...    BFI      r3,r12,#4,#1
        0x0001b1c2:    f8c13088    ...0    STR      r3,[r1,#0x88]
        0x0001b1c6:    f892c003    ....    LDRB     r12,[r2,#3]
        0x0001b1ca:    f8d13088    ...0    LDR      r3,[r1,#0x88]
        0x0001b1ce:    f36c1349    l.I.    BFI      r3,r12,#5,#5
        0x0001b1d2:    f8c13088    ...0    STR      r3,[r1,#0x88]
        0x0001b1d6:    f892c004    ....    LDRB     r12,[r2,#4]
        0x0001b1da:    f8d13088    ...0    LDR      r3,[r1,#0x88]
        0x0001b1de:    f36c238e    l..#    BFI      r3,r12,#10,#5
        0x0001b1e2:    f8c13088    ...0    STR      r3,[r1,#0x88]
        0x0001b1e6:    f892c005    ....    LDRB     r12,[r2,#5]
        0x0001b1ea:    f8d13088    ...0    LDR      r3,[r1,#0x88]
        0x0001b1ee:    f36c33d3    l..3    BFI      r3,r12,#15,#5
        0x0001b1f2:    f8c13088    ...0    STR      r3,[r1,#0x88]
        0x0001b1f6:    f892c006    ....    LDRB     r12,[r2,#6]
        0x0001b1fa:    f8d13088    ...0    LDR      r3,[r1,#0x88]
        0x0001b1fe:    f36c5314    l..S    BFI      r3,r12,#20,#1
        0x0001b202:    e014        ..      B        0x1b22e ; am_hal_mspi_control + 574
        0x0001b204:    e3fd        ..      B        0x1ba02 ; am_hal_mspi_control + 2578
        0x0001b206:    e3fd        ..      B        0x1ba04 ; am_hal_mspi_control + 2580
        0x0001b208:    e3fd        ..      B        0x1ba06 ; am_hal_mspi_control + 2582
        0x0001b20a:    e3fd        ..      B        0x1ba08 ; am_hal_mspi_control + 2584
        0x0001b20c:    e3fd        ..      B        0x1ba0a ; am_hal_mspi_control + 2586
        0x0001b20e:    e3fd        ..      B        0x1ba0c ; am_hal_mspi_control + 2588
        0x0001b210:    e32b        +.      B        0x1b86a ; am_hal_mspi_control + 2170
        0x0001b212:    e2b5        ..      B        0x1b780 ; am_hal_mspi_control + 1936
        0x0001b214:    e2ab        ..      B        0x1b76e ; am_hal_mspi_control + 1918
        0x0001b216:    e25f        _.      B        0x1b6d8 ; am_hal_mspi_control + 1768
        0x0001b218:    e1cb        ..      B        0x1b5b2 ; am_hal_mspi_control + 1474
        0x0001b21a:    e1be        ..      B        0x1b59a ; am_hal_mspi_control + 1450
        0x0001b21c:    e15c        \.      B        0x1b4d8 ; am_hal_mspi_control + 1256
        0x0001b21e:    e148        H.      B        0x1b4b2 ; am_hal_mspi_control + 1218
        0x0001b220:    e136        6.      B        0x1b490 ; am_hal_mspi_control + 1184
        0x0001b222:    e12a        *.      B        0x1b47a ; am_hal_mspi_control + 1162
        0x0001b224:    e0a9        ..      B        0x1b37a ; am_hal_mspi_control + 906
        0x0001b226:    e103        ..      B        0x1b430 ; am_hal_mspi_control + 1088
        0x0001b228:    e0b6        ..      B        0x1b398 ; am_hal_mspi_control + 936
        0x0001b22a:    e06b        k.      B        0x1b304 ; am_hal_mspi_control + 788
        0x0001b22c:    e01a        ..      B        0x1b264 ; am_hal_mspi_control + 628
        0x0001b22e:    f8c13088    ...0    STR      r3,[r1,#0x88]
        0x0001b232:    f892c007    ....    LDRB     r12,[r2,#7]
        0x0001b236:    f8d13088    ...0    LDR      r3,[r1,#0x88]
        0x0001b23a:    f36c5359    l.YS    BFI      r3,r12,#21,#5
        0x0001b23e:    f8c13088    ...0    STR      r3,[r1,#0x88]
        0x0001b242:    7a13        .z      LDRB     r3,[r2,#8]
        0x0001b244:    f8d1c088    ....    LDR      r12,[r1,#0x88]
        0x0001b248:    f3636c9e    c..l    BFI      r12,r3,#26,#5
        0x0001b24c:    f8c1c088    ....    STR      r12,[r1,#0x88]
        0x0001b250:    7a52        Rz      LDRB     r2,[r2,#9]
        0x0001b252:    f8d13088    ...0    LDR      r3,[r1,#0x88]
        0x0001b256:    f36273df    b..s    BFI      r3,r2,#31,#1
        0x0001b25a:    f8c13088    ...0    STR      r3,[r1,#0x88]
        0x0001b25e:    b003        ..      ADD      sp,sp,#0xc
        0x0001b260:    e8bd83f0    ....    POP      {r4-r9,pc}
        0x0001b264:    2a00        .*      CMP      r2,#0
        0x0001b266:    f0008536    ..6.    BEQ.W    0x1bcd6 ; am_hal_mspi_control + 3302
        0x0001b26a:    0328        (.      LSLS     r0,r5,#12
        0x0001b26c:    f1004080    ...@    ADD      r0,r0,#0x40000000
        0x0001b270:    f50020c0    ...     ADD      r0,r0,#0x60000
        0x0001b274:    7a53        Sz      LDRB     r3,[r2,#9]
        0x0001b276:    f8d0108c    ....    LDR      r1,[r0,#0x8c]
        0x0001b27a:    f3630103    c...    BFI      r1,r3,#0,#4
        0x0001b27e:    f8c0108c    ....    STR      r1,[r0,#0x8c]
        0x0001b282:    7a13        .z      LDRB     r3,[r2,#8]
        0x0001b284:    f8d0108c    ....    LDR      r1,[r0,#0x8c]
        0x0001b288:    f3631104    c...    BFI      r1,r3,#4,#1
        0x0001b28c:    f8c0108c    ....    STR      r1,[r0,#0x8c]
        0x0001b290:    79d3        .y      LDRB     r3,[r2,#7]
        0x0001b292:    f8d0108c    ....    LDR      r1,[r0,#0x8c]
        0x0001b296:    f3631145    c.E.    BFI      r1,r3,#5,#1
        0x0001b29a:    f8c0108c    ....    STR      r1,[r0,#0x8c]
        0x0001b29e:    7993        .y      LDRB     r3,[r2,#6]
        0x0001b2a0:    f8d0108c    ....    LDR      r1,[r0,#0x8c]
        0x0001b2a4:    f36311c7    c...    BFI      r1,r3,#7,#1
        0x0001b2a8:    f8c0108c    ....    STR      r1,[r0,#0x8c]
        0x0001b2ac:    7953        Sy      LDRB     r3,[r2,#5]
        0x0001b2ae:    f8d0108c    ....    LDR      r1,[r0,#0x8c]
        0x0001b2b2:    f3632108    c..!    BFI      r1,r3,#8,#1
        0x0001b2b6:    f8c0108c    ....    STR      r1,[r0,#0x8c]
        0x0001b2ba:    7913        .y      LDRB     r3,[r2,#4]
        0x0001b2bc:    f8d0108c    ....    LDR      r1,[r0,#0x8c]
        0x0001b2c0:    f363214a    c.J!    BFI      r1,r3,#9,#2
        0x0001b2c4:    f8c0108c    ....    STR      r1,[r0,#0x8c]
        0x0001b2c8:    78d3        .x      LDRB     r3,[r2,#3]
        0x0001b2ca:    f8d0108c    ....    LDR      r1,[r0,#0x8c]
        0x0001b2ce:    f36321cb    c..!    BFI      r1,r3,#11,#1
        0x0001b2d2:    f8c0108c    ....    STR      r1,[r0,#0x8c]
        0x0001b2d6:    7893        .x      LDRB     r3,[r2,#2]
        0x0001b2d8:    f8d0108c    ....    LDR      r1,[r0,#0x8c]
        0x0001b2dc:    f363310c    c..1    BFI      r1,r3,#12,#1
        0x0001b2e0:    f8c0108c    ....    STR      r1,[r0,#0x8c]
        0x0001b2e4:    7853        Sx      LDRB     r3,[r2,#1]
        0x0001b2e6:    f8d0108c    ....    LDR      r1,[r0,#0x8c]
        0x0001b2ea:    f363314d    c.M1    BFI      r1,r3,#13,#1
        0x0001b2ee:    f8c0108c    ....    STR      r1,[r0,#0x8c]
        0x0001b2f2:    7812        .x      LDRB     r2,[r2,#0]
        0x0001b2f4:    f8d0108c    ....    LDR      r1,[r0,#0x8c]
        0x0001b2f8:    f3623190    b..1    BFI      r1,r2,#14,#3
        0x0001b2fc:    f8c0108c    ....    STR      r1,[r0,#0x8c]
        0x0001b300:    f000bce6    ....    B.W      0x1bcd0 ; am_hal_mspi_control + 3296
        0x0001b304:    2a00        .*      CMP      r2,#0
        0x0001b306:    f00084e6    ....    BEQ.W    0x1bcd6 ; am_hal_mspi_control + 3302
        0x0001b30a:    0328        (.      LSLS     r0,r5,#12
        0x0001b30c:    f1004080    ...@    ADD      r0,r0,#0x40000000
        0x0001b310:    f50020c0    ...     ADD      r0,r0,#0x60000
        0x0001b314:    7813        .x      LDRB     r3,[r2,#0]
        0x0001b316:    f8d01084    ....    LDR      r1,[r0,#0x84]
        0x0001b31a:    f3636118    c..a    BFI      r1,r3,#24,#1
        0x0001b31e:    f8c01084    ....    STR      r1,[r0,#0x84]
        0x0001b322:    7853        Sx      LDRB     r3,[r2,#1]
        0x0001b324:    f8d01084    ....    LDR      r1,[r0,#0x84]
        0x0001b328:    f36351d7    c..Q    BFI      r1,r3,#23,#1
        0x0001b32c:    f8c01084    ....    STR      r1,[r0,#0x84]
        0x0001b330:    7893        .x      LDRB     r3,[r2,#2]
        0x0001b332:    f8d01084    ....    LDR      r1,[r0,#0x84]
        0x0001b336:    f3635196    c..Q    BFI      r1,r3,#22,#1
        0x0001b33a:    f8c01084    ....    STR      r1,[r0,#0x84]
        0x0001b33e:    7953        Sy      LDRB     r3,[r2,#5]
        0x0001b340:    f8d01084    ....    LDR      r1,[r0,#0x84]
        0x0001b344:    f363210d    c..!    BFI      r1,r3,#8,#6
        0x0001b348:    f8c01084    ....    STR      r1,[r0,#0x84]
        0x0001b34c:    7953        Sy      LDRB     r3,[r2,#5]
        0x0001b34e:    f8d01090    ....    LDR      r1,[r0,#0x90]
        0x0001b352:    f3633193    c..1    BFI      r1,r3,#14,#6
        0x0001b356:    f8c01090    ....    STR      r1,[r0,#0x90]
        0x0001b35a:    78d3        .x      LDRB     r3,[r2,#3]
        0x0001b35c:    f8d01088    ....    LDR      r1,[r0,#0x88]
        0x0001b360:    f3631149    c.I.    BFI      r1,r3,#5,#5
        0x0001b364:    f8c01088    ....    STR      r1,[r0,#0x88]
        0x0001b368:    7912        .y      LDRB     r2,[r2,#4]
        0x0001b36a:    f8d01088    ....    LDR      r1,[r0,#0x88]
        0x0001b36e:    f362218e    b..!    BFI      r1,r2,#10,#5
        0x0001b372:    f8c01088    ....    STR      r1,[r0,#0x88]
        0x0001b376:    f000bcab    ....    B.W      0x1bcd0 ; am_hal_mspi_control + 3296
        0x0001b37a:    2100        .!      MOVS     r1,#0
        0x0001b37c:    2001        .       MOVS     r0,#1
        0x0001b37e:    f7fff99b    ....    BL       am_hal_daxi_control ; 0x1a6b8
        0x0001b382:    0328        (.      LSLS     r0,r5,#12
        0x0001b384:    f1004080    ...@    ADD      r0,r0,#0x40000000
        0x0001b388:    f50020c0    ...     ADD      r0,r0,#0x60000
        0x0001b38c:    f8d01090    ....    LDR      r1,[r0,#0x90]
        0x0001b390:    f0210101    !...    BIC      r1,r1,#1
        0x0001b394:    f000bc9a    ....    B.W      0x1bccc ; am_hal_mspi_control + 3292
        0x0001b398:    b125        %.      CBZ      r5,0x1b3a4 ; am_hal_mspi_control + 948
        0x0001b39a:    2d01        .-      CMP      r5,#1
        0x0001b39c:    d00a        ..      BEQ      0x1b3b4 ; am_hal_mspi_control + 964
        0x0001b39e:    2d02        .-      CMP      r5,#2
        0x0001b3a0:    d010        ..      BEQ      0x1b3c4 ; am_hal_mspi_control + 980
        0x0001b3a2:    e016        ..      B        0x1b3d2 ; am_hal_mspi_control + 994
        0x0001b3a4:    6890        .h      LDR      r0,[r2,#8]
        0x0001b3a6:    f1a050a0    ...P    SUB      r0,r0,#0x14000000
        0x0001b3aa:    f1b06f80    ...o    CMP      r0,#0x4000000
        0x0001b3ae:    f080838c    ....    BCS.W    0x1baca ; am_hal_mspi_control + 2778
        0x0001b3b2:    e00e        ..      B        0x1b3d2 ; am_hal_mspi_control + 994
        0x0001b3b4:    6890        .h      LDR      r0,[r2,#8]
        0x0001b3b6:    f1a050c0    ...P    SUB      r0,r0,#0x18000000
        0x0001b3ba:    f1b06f80    ...o    CMP      r0,#0x4000000
        0x0001b3be:    f0808384    ....    BCS.W    0x1baca ; am_hal_mspi_control + 2778
        0x0001b3c2:    e006        ..      B        0x1b3d2 ; am_hal_mspi_control + 994
        0x0001b3c4:    6890        .h      LDR      r0,[r2,#8]
        0x0001b3c6:    f1a050e0    ...P    SUB      r0,r0,#0x1c000000
        0x0001b3ca:    f1b06f80    ...o    CMP      r0,#0x4000000
        0x0001b3ce:    f080837c    ..|.    BCS.W    0x1baca ; am_hal_mspi_control + 2778
        0x0001b3d2:    490e        .I      LDR      r1,[pc,#56] ; [0x1b40c] = 0x3ff0000
        0x0001b3d4:    6890        .h      LDR      r0,[r2,#8]
        0x0001b3d6:    2310        .#      MOVS     r3,#0x10
        0x0001b3d8:    4008        .@      ANDS     r0,r0,r1
        0x0001b3da:    7b11        .{      LDRB     r1,[r2,#0xc]
        0x0001b3dc:    ea031101    ....    AND      r1,r3,r1,LSL #4
        0x0001b3e0:    4308        .C      ORRS     r0,r0,r1
        0x0001b3e2:    7b51        Q{      LDRB     r1,[r2,#0xd]
        0x0001b3e4:    f001010f    ....    AND      r1,r1,#0xf
        0x0001b3e8:    ea410300    A...    ORR      r3,r1,r0
        0x0001b3ec:    6810        .h      LDR      r0,[r2,#0]
        0x0001b3ee:    ea4f4c10    O..L    LSR      r12,r0,#16
        0x0001b3f2:    0328        (.      LSLS     r0,r5,#12
        0x0001b3f4:    f1004080    ...@    ADD      r0,r0,#0x40000000
        0x0001b3f8:    f50020c0    ...     ADD      r0,r0,#0x60000
        0x0001b3fc:    f8d0109c    ....    LDR      r1,[r0,#0x9c]
        0x0001b400:    e006        ..      B        0x1b410 ; am_hal_mspi_control + 1056
    $d
        0x0001b402:    0000        ..      DCW    0
        0x0001b404:    00bebebe    ....    DCD    12500670
        0x0001b408:    00e0e0e0    ....    DCD    14737632
        0x0001b40c:    03ff0000    ....    DCD    67043328
    $t
        0x0001b410:    f36c0109    l...    BFI      r1,r12,#0,#10
        0x0001b414:    f8c0109c    ....    STR      r1,[r0,#0x9c]
        0x0001b418:    6851        Qh      LDR      r1,[r2,#4]
        0x0001b41a:    0c0a        ..      LSRS     r2,r1,#16
        0x0001b41c:    f8d0109c    ....    LDR      r1,[r0,#0x9c]
        0x0001b420:    f3624119    b..A    BFI      r1,r2,#16,#10
        0x0001b424:    f8c0109c    ....    STR      r1,[r0,#0x9c]
        0x0001b428:    f8c03080    ...0    STR      r3,[r0,#0x80]
        0x0001b42c:    f000bc50    ..P.    B.W      0x1bcd0 ; am_hal_mspi_control + 3296
        0x0001b430:    2a00        .*      CMP      r2,#0
        0x0001b432:    f0008450    ..P.    BEQ.W    0x1bcd6 ; am_hal_mspi_control + 3302
        0x0001b436:    7990        .y      LDRB     r0,[r2,#6]
        0x0001b438:    f44f1100    O...    MOV      r1,#0x200000
        0x0001b43c:    ea015040    ..@P    AND      r0,r1,r0,LSL #21
        0x0001b440:    79d1        .y      LDRB     r1,[r2,#7]
        0x0001b442:    f44f4380    O..C    MOV      r3,#0x4000
        0x0001b446:    ea033181    ...1    AND      r1,r3,r1,LSL #14
        0x0001b44a:    4308        .C      ORRS     r0,r0,r1
        0x0001b44c:    7a11        .z      LDRB     r1,[r2,#8]
        0x0001b44e:    105b        [.      ASRS     r3,r3,#1
        0x0001b450:    ea033141    ..A1    AND      r1,r3,r1,LSL #13
        0x0001b454:    4308        .C      ORRS     r0,r0,r1
        0x0001b456:    7951        Qy      LDRB     r1,[r2,#5]
        0x0001b458:    105b        [.      ASRS     r3,r3,#1
        0x0001b45a:    ea033101    ...1    AND      r1,r3,r1,LSL #12
        0x0001b45e:    4308        .C      ORRS     r0,r0,r1
        0x0001b460:    8811        ..      LDRH     r1,[r2,#0]
        0x0001b462:    f3c1010b    ....    UBFX     r1,r1,#0,#12
        0x0001b466:    4308        .C      ORRS     r0,r0,r1
        0x0001b468:    0329        ).      LSLS     r1,r5,#12
        0x0001b46a:    f1014180    ...A    ADD      r1,r1,#0x40000000
        0x0001b46e:    f50121c0    ...!    ADD      r1,r1,#0x60000
        0x0001b472:    f8c100a0    ....    STR      r0,[r1,#0xa0]
        0x0001b476:    f000bc2b    ..+.    B.W      0x1bcd0 ; am_hal_mspi_control + 3296
        0x0001b47a:    0328        (.      LSLS     r0,r5,#12
        0x0001b47c:    f1004080    ...@    ADD      r0,r0,#0x40000000
        0x0001b480:    f50020c0    ...     ADD      r0,r0,#0x60000
        0x0001b484:    f8d01090    ....    LDR      r1,[r0,#0x90]
        0x0001b488:    f0410101    A...    ORR      r1,r1,#1
        0x0001b48c:    f000bc1e    ....    B.W      0x1bccc ; am_hal_mspi_control + 3292
        0x0001b490:    0328        (.      LSLS     r0,r5,#12
        0x0001b492:    f1004080    ...@    ADD      r0,r0,#0x40000000
        0x0001b496:    f50020c0    ...     ADD      r0,r0,#0x60000
        0x0001b49a:    6801        .h      LDR      r1,[r0,#0]
        0x0001b49c:    f4417180    A..q    ORR      r1,r1,#0x100
        0x0001b4a0:    6001        .`      STR      r1,[r0,#0]
        0x0001b4a2:    f8d01090    ....    LDR      r1,[r0,#0x90]
        0x0001b4a6:    f0410110    A...    ORR      r1,r1,#0x10
        0x0001b4aa:    f8c01090    ....    STR      r1,[r0,#0x90]
        0x0001b4ae:    2001        .       MOVS     r0,#1
        0x0001b4b0:    e00f        ..      B        0x1b4d2 ; am_hal_mspi_control + 1250
        0x0001b4b2:    0328        (.      LSLS     r0,r5,#12
        0x0001b4b4:    f1004080    ...@    ADD      r0,r0,#0x40000000
        0x0001b4b8:    f50020c0    ...     ADD      r0,r0,#0x60000
        0x0001b4bc:    6801        .h      LDR      r1,[r0,#0]
        0x0001b4be:    f4217180    !..q    BIC      r1,r1,#0x100
        0x0001b4c2:    6001        .`      STR      r1,[r0,#0]
        0x0001b4c4:    f8d01090    ....    LDR      r1,[r0,#0x90]
        0x0001b4c8:    f0210110    !...    BIC      r1,r1,#0x10
        0x0001b4cc:    f8c01090    ....    STR      r1,[r0,#0x90]
        0x0001b4d0:    2000        .       MOVS     r0,#0
        0x0001b4d2:    7360        `s      STRB     r0,[r4,#0xd]
        0x0001b4d4:    f000bbfc    ....    B.W      0x1bcd0 ; am_hal_mspi_control + 3296
        0x0001b4d8:    2a00        .*      CMP      r2,#0
        0x0001b4da:    bf1c        ..      ITT      NE
        0x0001b4dc:    7811        .x      LDRBNE   r1,[r2,#0]
        0x0001b4de:    72e1        .r      STRBNE   r1,[r4,#0xb]
        0x0001b4e0:    f00083f9    ....    BEQ.W    0x1bcd6 ; am_hal_mspi_control + 3302
        0x0001b4e4:    6860        `h      LDR      r0,[r4,#4]
        0x0001b4e6:    291a        .)      CMP      r1,#0x1a
        0x0001b4e8:    d218        ..      BCS      0x1b51c ; am_hal_mspi_control + 1324
        0x0001b4ea:    e8dff001    ....    TBB      [pc,r1]
    $d
        0x0001b4ee:    3939        99      DCW    14649
        0x0001b4f0:    39393939    9999    DCD    960051513
        0x0001b4f4:    39393939    9999    DCD    960051513
        0x0001b4f8:    0d0d3939    99..    DCD    218970425
        0x0001b4fc:    25251b1b    ..%%    DCD    623188763
        0x0001b500:    39392f2f    //99    DCD    960048943
        0x0001b504:    4c4c4242    BBLL    DCD    1280066114
    $t
        0x0001b508:    0300        ..      LSLS     r0,r0,#12
        0x0001b50a:    f1004080    ...@    ADD      r0,r0,#0x40000000
        0x0001b50e:    f50020c0    ...     ADD      r0,r0,#0x60000
        0x0001b512:    6841        Ah      LDR      r1,[r0,#4]
        0x0001b514:    f021010f    !...    BIC      r1,r1,#0xf
        0x0001b518:    1c49        I.      ADDS     r1,r1,#1
        0x0001b51a:    6041        A`      STR      r1,[r0,#4]
        0x0001b51c:    b003        ..      ADD      sp,sp,#0xc
        0x0001b51e:    2000        .       MOVS     r0,#0
        0x0001b520:    e8bd83f0    ....    POP      {r4-r9,pc}
        0x0001b524:    0300        ..      LSLS     r0,r0,#12
        0x0001b526:    f1004080    ...@    ADD      r0,r0,#0x40000000
        0x0001b52a:    f50020c0    ...     ADD      r0,r0,#0x60000
        0x0001b52e:    6841        Ah      LDR      r1,[r0,#4]
        0x0001b530:    f021010f    !...    BIC      r1,r1,#0xf
        0x0001b534:    1cc9        ..      ADDS     r1,r1,#3
        0x0001b536:    e7f0        ..      B        0x1b51a ; am_hal_mspi_control + 1322
        0x0001b538:    0300        ..      LSLS     r0,r0,#12
        0x0001b53a:    f1004080    ...@    ADD      r0,r0,#0x40000000
        0x0001b53e:    f50020c0    ...     ADD      r0,r0,#0x60000
        0x0001b542:    6841        Ah      LDR      r1,[r0,#4]
        0x0001b544:    f021010f    !...    BIC      r1,r1,#0xf
        0x0001b548:    1d49        I.      ADDS     r1,r1,#5
        0x0001b54a:    e7e6        ..      B        0x1b51a ; am_hal_mspi_control + 1322
        0x0001b54c:    0300        ..      LSLS     r0,r0,#12
        0x0001b54e:    f1004080    ...@    ADD      r0,r0,#0x40000000
        0x0001b552:    f50020c0    ...     ADD      r0,r0,#0x60000
        0x0001b556:    6841        Ah      LDR      r1,[r0,#4]
        0x0001b558:    f021010f    !...    BIC      r1,r1,#0xf
        0x0001b55c:    1dc9        ..      ADDS     r1,r1,#7
        0x0001b55e:    e7dc        ..      B        0x1b51a ; am_hal_mspi_control + 1322
        0x0001b560:    0300        ..      LSLS     r0,r0,#12
        0x0001b562:    f1004080    ...@    ADD      r0,r0,#0x40000000
        0x0001b566:    f50020c0    ...     ADD      r0,r0,#0x60000
        0x0001b56a:    6841        Ah      LDR      r1,[r0,#4]
        0x0001b56c:    f021010f    !...    BIC      r1,r1,#0xf
        0x0001b570:    e7d3        ..      B        0x1b51a ; am_hal_mspi_control + 1322
        0x0001b572:    0300        ..      LSLS     r0,r0,#12
        0x0001b574:    f1004080    ...@    ADD      r0,r0,#0x40000000
        0x0001b578:    f50020c0    ...     ADD      r0,r0,#0x60000
        0x0001b57c:    6841        Ah      LDR      r1,[r0,#4]
        0x0001b57e:    f021010f    !...    BIC      r1,r1,#0xf
        0x0001b582:    3109        .1      ADDS     r1,r1,#9
        0x0001b584:    e7c9        ..      B        0x1b51a ; am_hal_mspi_control + 1322
        0x0001b586:    0300        ..      LSLS     r0,r0,#12
        0x0001b588:    f1004080    ...@    ADD      r0,r0,#0x40000000
        0x0001b58c:    f50020c0    ...     ADD      r0,r0,#0x60000
        0x0001b590:    6841        Ah      LDR      r1,[r0,#4]
        0x0001b592:    f021010f    !...    BIC      r1,r1,#0xf
        0x0001b596:    310b        .1      ADDS     r1,r1,#0xb
        0x0001b598:    e7bf        ..      B        0x1b51a ; am_hal_mspi_control + 1322
        0x0001b59a:    2a00        .*      CMP      r2,#0
        0x0001b59c:    f000839b    ....    BEQ.W    0x1bcd6 ; am_hal_mspi_control + 3302
        0x0001b5a0:    7810        .x      LDRB     r0,[r2,#0]
        0x0001b5a2:    72a0        .r      STRB     r0,[r4,#0xa]
        0x0001b5a4:    4620         F      MOV      r0,r4
        0x0001b5a6:    f003f9e3    ....    BL       mspi_device_configure ; 0x1e970
        0x0001b5aa:    b003        ..      ADD      sp,sp,#0xc
        0x0001b5ac:    2000        .       MOVS     r0,#0
        0x0001b5ae:    e8bd83f0    ....    POP      {r4-r9,pc}
        0x0001b5b2:    0328        (.      LSLS     r0,r5,#12
        0x0001b5b4:    f1004080    ...@    ADD      r0,r0,#0x40000000
        0x0001b5b8:    f50020c0    ...     ADD      r0,r0,#0x60000
        0x0001b5bc:    7811        .x      LDRB     r1,[r2,#0]
        0x0001b5be:    f8d02084    ...     LDR      r2,[r0,#0x84]
        0x0001b5c2:    f3614215    a..B    BFI      r2,r1,#16,#6
        0x0001b5c6:    f8c02084    ...     STR      r2,[r0,#0x84]
        0x0001b5ca:    2908        .)      CMP      r1,#8
        0x0001b5cc:    d026        &.      BEQ      0x1b61c ; am_hal_mspi_control + 1580
        0x0001b5ce:    dc08        ..      BGT      0x1b5e2 ; am_hal_mspi_control + 1522
        0x0001b5d0:    2907        .)      CMP      r1,#7
        0x0001b5d2:    f080827a    ..z.    BCS.W    0x1baca ; am_hal_mspi_control + 2778
        0x0001b5d6:    e8dff001    ....    TBB      [pc,r1]
    $d
        0x0001b5da:    0efd        ..      DCW    3837
        0x0001b5dc:    fd212121    !!!.    DCD    4246806817
        0x0001b5e0:    0021        !.      DCW    33
    $t
        0x0001b5e2:    290c        .)      CMP      r1,#0xc
        0x0001b5e4:    bf18        ..      IT       NE
        0x0001b5e6:    2910        .)      CMPNE    r1,#0x10
        0x0001b5e8:    d018        ..      BEQ      0x1b61c ; am_hal_mspi_control + 1580
        0x0001b5ea:    2918        .)      CMP      r1,#0x18
        0x0001b5ec:    bf18        ..      IT       NE
        0x0001b5ee:    2920         )      CMPNE    r1,#0x20
        0x0001b5f0:    d014        ..      BEQ      0x1b61c ; am_hal_mspi_control + 1580
        0x0001b5f2:    f000ba6a    ..j.    B.W      0x1baca ; am_hal_mspi_control + 2778
        0x0001b5f6:    f8d02084    ...     LDR      r2,[r0,#0x84]
        0x0001b5fa:    f0427280    B..r    ORR      r2,r2,#0x1000000
        0x0001b5fe:    f8c02084    ...     STR      r2,[r0,#0x84]
        0x0001b602:    f8d02084    ...     LDR      r2,[r0,#0x84]
        0x0001b606:    f4220200    "...    BIC      r2,r2,#0x800000
        0x0001b60a:    f8c02084    ...     STR      r2,[r0,#0x84]
        0x0001b60e:    f8d02084    ...     LDR      r2,[r0,#0x84]
        0x0001b612:    f4220280    "...    BIC      r2,r2,#0x400000
        0x0001b616:    f8c02084    ...     STR      r2,[r0,#0x84]
        0x0001b61a:    e011        ..      B        0x1b640 ; am_hal_mspi_control + 1616
        0x0001b61c:    f8d02084    ...     LDR      r2,[r0,#0x84]
        0x0001b620:    f0227280    "..r    BIC      r2,r2,#0x1000000
        0x0001b624:    f8c02084    ...     STR      r2,[r0,#0x84]
        0x0001b628:    f8d02084    ...     LDR      r2,[r0,#0x84]
        0x0001b62c:    f4220200    "...    BIC      r2,r2,#0x800000
        0x0001b630:    f8c02084    ...     STR      r2,[r0,#0x84]
        0x0001b634:    f8d02084    ...     LDR      r2,[r0,#0x84]
        0x0001b638:    f4220280    "...    BIC      r2,r2,#0x400000
        0x0001b63c:    f8c02084    ...     STR      r2,[r0,#0x84]
        0x0001b640:    69a2        .i      LDR      r2,[r4,#0x18]
        0x0001b642:    b37a        z.      CBZ      r2,0x1b6a4 ; am_hal_mspi_control + 1716
        0x0001b644:    f04f0220    O. .    MOV      r2,#0x20
        0x0001b648:    f8c02114    ...!    STR      r2,[r0,#0x114]
        0x0001b64c:    2908        .)      CMP      r1,#8
        0x0001b64e:    d02a        *.      BEQ      0x1b6a6 ; am_hal_mspi_control + 1718
        0x0001b650:    dc08        ..      BGT      0x1b664 ; am_hal_mspi_control + 1652
        0x0001b652:    2907        .)      CMP      r1,#7
        0x0001b654:    f0808239    ..9.    BCS.W    0x1baca ; am_hal_mspi_control + 2778
        0x0001b658:    e8dff001    ....    TBB      [pc,r1]
    $d
        0x0001b65c:    250e0ebc    ...%    DCD    621678268
        0x0001b660:    0025bc25    %.%.    DCD    2472997
    $t
        0x0001b664:    290c        .)      CMP      r1,#0xc
        0x0001b666:    bf18        ..      IT       NE
        0x0001b668:    2910        .)      CMPNE    r1,#0x10
        0x0001b66a:    d01c        ..      BEQ      0x1b6a6 ; am_hal_mspi_control + 1718
        0x0001b66c:    2918        .)      CMP      r1,#0x18
        0x0001b66e:    bf18        ..      IT       NE
        0x0001b670:    2920         )      CMPNE    r1,#0x20
        0x0001b672:    d018        ..      BEQ      0x1b6a6 ; am_hal_mspi_control + 1718
        0x0001b674:    f000ba29    ..).    B.W      0x1baca ; am_hal_mspi_control + 2778
        0x0001b678:    f8d02118    ...!    LDR      r2,[r0,#0x118]
        0x0001b67c:    f022021f    "...    BIC      r2,r2,#0x1f
        0x0001b680:    f102020c    ....    ADD      r2,r2,#0xc
        0x0001b684:    f8c02118    ...!    STR      r2,[r0,#0x118]
        0x0001b688:    6a02        .j      LDR      r2,[r0,#0x20]
        0x0001b68a:    f422527c    ".|R    BIC      r2,r2,#0x3f00
        0x0001b68e:    f50252f0    ...R    ADD      r2,r2,#0x1e00
        0x0001b692:    6202        .b      STR      r2,[r0,#0x20]
        0x0001b694:    f8d02118    ...!    LDR      r2,[r0,#0x118]
        0x0001b698:    f42252f8    "..R    BIC      r2,r2,#0x1f00
        0x0001b69c:    f5026200    ...b    ADD      r2,r2,#0x800
        0x0001b6a0:    f8c02118    ...!    STR      r2,[r0,#0x118]
        0x0001b6a4:    e015        ..      B        0x1b6d2 ; am_hal_mspi_control + 1762
        0x0001b6a6:    f8d02118    ...!    LDR      r2,[r0,#0x118]
        0x0001b6aa:    f022021f    "...    BIC      r2,r2,#0x1f
        0x0001b6ae:    f1020208    ....    ADD      r2,r2,#8
        0x0001b6b2:    f8c02118    ...!    STR      r2,[r0,#0x118]
        0x0001b6b6:    6a02        .j      LDR      r2,[r0,#0x20]
        0x0001b6b8:    f422527c    ".|R    BIC      r2,r2,#0x3f00
        0x0001b6bc:    f50252f0    ...R    ADD      r2,r2,#0x1e00
        0x0001b6c0:    6202        .b      STR      r2,[r0,#0x20]
        0x0001b6c2:    f8d02118    ...!    LDR      r2,[r0,#0x118]
        0x0001b6c6:    f42252f8    "..R    BIC      r2,r2,#0x1f00
        0x0001b6ca:    f5026200    ...b    ADD      r2,r2,#0x800
        0x0001b6ce:    f8c02118    ...!    STR      r2,[r0,#0x118]
        0x0001b6d2:    7321        !s      STRB     r1,[r4,#0xc]
        0x0001b6d4:    f000bafc    ....    B.W      0x1bcd0 ; am_hal_mspi_control + 3296
        0x0001b6d8:    6860        `h      LDR      r0,[r4,#4]
        0x0001b6da:    4efd        .N      LDR      r6,[pc,#1012] ; [0x1bad0] = 0x186a0
        0x0001b6dc:    ea4f3000    O..0    LSL      r0,r0,#12
        0x0001b6e0:    f1004080    ...@    ADD      r0,r0,#0x40000000
        0x0001b6e4:    f50020c0    ...     ADD      r0,r0,#0x60000
        0x0001b6e8:    f44f0100    O...    MOV      r1,#0x800000
        0x0001b6ec:    4635        5F      MOV      r5,r6
        0x0001b6ee:    f8c012b4    ....    STR      r1,[r0,#0x2b4]
        0x0001b6f2:    6860        `h      LDR      r0,[r4,#4]
        0x0001b6f4:    ea4f3000    O..0    LSL      r0,r0,#12
        0x0001b6f8:    f1004080    ...@    ADD      r0,r0,#0x40000000
        0x0001b6fc:    f50020c0    ...     ADD      r0,r0,#0x60000
        0x0001b700:    f8d002a0    ....    LDR      r0,[r0,#0x2a0]
        0x0001b704:    f0100f01    ....    TST      r0,#1
        0x0001b708:    d020         .      BEQ      0x1b74c ; am_hal_mspi_control + 1884
        0x0001b70a:    6860        `h      LDR      r0,[r4,#4]
        0x0001b70c:    ea4f3000    O..0    LSL      r0,r0,#12
        0x0001b710:    f1004080    ...@    ADD      r0,r0,#0x40000000
        0x0001b714:    f50020c0    ...     ADD      r0,r0,#0x60000
        0x0001b718:    f8d012ac    ....    LDR      r1,[r0,#0x2ac]
        0x0001b71c:    f0110f08    ....    TST      r1,#8
        0x0001b720:    bf1c        ..      ITT      NE
        0x0001b722:    f8d002b8    ....    LDRNE    r0,[r0,#0x2b8]
        0x0001b726:    f0100f80    ....    TSTNE    r0,#0x80
        0x0001b72a:    d10f        ..      BNE      0x1b74c ; am_hal_mspi_control + 1884
        0x0001b72c:    1e6d        m.      SUBS     r5,r5,#1
        0x0001b72e:    d31b        ..      BCC      0x1b768 ; am_hal_mspi_control + 1912
        0x0001b730:    2001        .       MOVS     r0,#1
        0x0001b732:    f7fff8bb    ....    BL       am_hal_delay_us ; 0x1a8ac
        0x0001b736:    6860        `h      LDR      r0,[r4,#4]
        0x0001b738:    0300        ..      LSLS     r0,r0,#12
        0x0001b73a:    f1004080    ...@    ADD      r0,r0,#0x40000000
        0x0001b73e:    f50020c0    ...     ADD      r0,r0,#0x60000
        0x0001b742:    f8d002a0    ....    LDR      r0,[r0,#0x2a0]
        0x0001b746:    f0100f01    ....    TST      r0,#1
        0x0001b74a:    d1de        ..      BNE      0x1b70a ; am_hal_mspi_control + 1818
        0x0001b74c:    2001        .       MOVS     r0,#1
        0x0001b74e:    9000        ..      STR      r0,[sp,#0]
        0x0001b750:    49e0        .I      LDR      r1,[pc,#896] ; [0x1bad4] = 0x40060104
        0x0001b752:    6860        `h      LDR      r0,[r4,#4]
        0x0001b754:    2300        .#      MOVS     r3,#0
        0x0001b756:    eb013100    ...1    ADD      r1,r1,r0,LSL #12
        0x0001b75a:    2201        ."      MOVS     r2,#1
        0x0001b75c:    4630        0F      MOV      r0,r6
        0x0001b75e:    f7fff8e7    ....    BL       am_hal_delay_us_status_check ; 0x1a930
        0x0001b762:    4606        .F      MOV      r6,r0
        0x0001b764:    f000bab4    ....    B.W      0x1bcd0 ; am_hal_mspi_control + 3296
        0x0001b768:    2604        .&      MOVS     r6,#4
        0x0001b76a:    f000bab1    ....    B.W      0x1bcd0 ; am_hal_mspi_control + 3296
        0x0001b76e:    f89408c0    ....    LDRB     r0,[r4,#0x8c0]
        0x0001b772:    b918        ..      CBNZ     r0,0x1b77c ; am_hal_mspi_control + 1932
        0x0001b774:    2100        .!      MOVS     r1,#0
        0x0001b776:    2001        .       MOVS     r0,#1
        0x0001b778:    f7feff9e    ....    BL       am_hal_daxi_control ; 0x1a6b8
        0x0001b77c:    2080        .       MOVS     r0,#0x80
        0x0001b77e:    e47e        ~.      B        0x1b07e ; am_hal_mspi_control + 142
        0x0001b780:    2a00        .*      CMP      r2,#0
        0x0001b782:    f00082a8    ....    BEQ.W    0x1bcd6 ; am_hal_mspi_control + 3302
        0x0001b786:    69a0        .i      LDR      r0,[r4,#0x18]
        0x0001b788:    2800        .(      CMP      r0,#0
        0x0001b78a:    f00081af    ....    BEQ.W    0x1baec ; am_hal_mspi_control + 2812
        0x0001b78e:    7810        .x      LDRB     r0,[r2,#0]
        0x0001b790:    1c07        ..      ADDS     r7,r0,#0
        0x0001b792:    bf18        ..      IT       NE
        0x0001b794:    2701        .'      MOVNE    r7,#1
        0x0001b796:    f894082c    ..,.    LDRB     r0,[r4,#0x82c]
        0x0001b79a:    42b8        .B      CMP      r0,r7
        0x0001b79c:    f43faebe    ?...    BEQ      0x1b51c ; am_hal_mspi_control + 1324
        0x0001b7a0:    b3f0        ..      CBZ      r0,0x1b820 ; am_hal_mspi_control + 2096
        0x0001b7a2:    2802        .(      CMP      r0,#2
        0x0001b7a4:    d14f        O.      BNE      0x1b846 ; am_hal_mspi_control + 2134
        0x0001b7a6:    6861        ah      LDR      r1,[r4,#4]
        0x0001b7a8:    4ec9        .N      LDR      r6,[pc,#804] ; [0x1bad0] = 0x186a0
        0x0001b7aa:    ea4f3101    O..1    LSL      r1,r1,#12
        0x0001b7ae:    f1014180    ...A    ADD      r1,r1,#0x40000000
        0x0001b7b2:    f50121c0    ...!    ADD      r1,r1,#0x60000
        0x0001b7b6:    f44f0000    O...    MOV      r0,#0x800000
        0x0001b7ba:    4635        5F      MOV      r5,r6
        0x0001b7bc:    f8c102b4    ....    STR      r0,[r1,#0x2b4]
        0x0001b7c0:    6860        `h      LDR      r0,[r4,#4]
        0x0001b7c2:    ea4f3000    O..0    LSL      r0,r0,#12
        0x0001b7c6:    f1004080    ...@    ADD      r0,r0,#0x40000000
        0x0001b7ca:    f50020c0    ...     ADD      r0,r0,#0x60000
        0x0001b7ce:    f8d002a0    ....    LDR      r0,[r0,#0x2a0]
        0x0001b7d2:    e000        ..      B        0x1b7d6 ; am_hal_mspi_control + 2022
        0x0001b7d4:    e179        y.      B        0x1baca ; am_hal_mspi_control + 2778
        0x0001b7d6:    f0100f01    ....    TST      r0,#1
        0x0001b7da:    d020         .      BEQ      0x1b81e ; am_hal_mspi_control + 2094
        0x0001b7dc:    6860        `h      LDR      r0,[r4,#4]
        0x0001b7de:    ea4f3000    O..0    LSL      r0,r0,#12
        0x0001b7e2:    f1004080    ...@    ADD      r0,r0,#0x40000000
        0x0001b7e6:    f50020c0    ...     ADD      r0,r0,#0x60000
        0x0001b7ea:    f8d012ac    ....    LDR      r1,[r0,#0x2ac]
        0x0001b7ee:    f0110f08    ....    TST      r1,#8
        0x0001b7f2:    bf1c        ..      ITT      NE
        0x0001b7f4:    f8d002b8    ....    LDRNE    r0,[r0,#0x2b8]
        0x0001b7f8:    f0100f80    ....    TSTNE    r0,#0x80
        0x0001b7fc:    d10f        ..      BNE      0x1b81e ; am_hal_mspi_control + 2094
        0x0001b7fe:    1e6d        m.      SUBS     r5,r5,#1
        0x0001b800:    d3b2        ..      BCC      0x1b768 ; am_hal_mspi_control + 1912
        0x0001b802:    2001        .       MOVS     r0,#1
        0x0001b804:    f7fff852    ..R.    BL       am_hal_delay_us ; 0x1a8ac
        0x0001b808:    6860        `h      LDR      r0,[r4,#4]
        0x0001b80a:    0300        ..      LSLS     r0,r0,#12
        0x0001b80c:    f1004080    ...@    ADD      r0,r0,#0x40000000
        0x0001b810:    f50020c0    ...     ADD      r0,r0,#0x60000
        0x0001b814:    f8d002a0    ....    LDR      r0,[r0,#0x2a0]
        0x0001b818:    f0100f01    ....    TST      r0,#1
        0x0001b81c:    d1de        ..      BNE      0x1b7dc ; am_hal_mspi_control + 2028
        0x0001b81e:    e000        ..      B        0x1b822 ; am_hal_mspi_control + 2098
        0x0001b820:    e00e        ..      B        0x1b840 ; am_hal_mspi_control + 2128
        0x0001b822:    2001        .       MOVS     r0,#1
        0x0001b824:    9000        ..      STR      r0,[sp,#0]
        0x0001b826:    49ab        .I      LDR      r1,[pc,#684] ; [0x1bad4] = 0x40060104
        0x0001b828:    6860        `h      LDR      r0,[r4,#4]
        0x0001b82a:    2300        .#      MOVS     r3,#0
        0x0001b82c:    eb013100    ...1    ADD      r1,r1,r0,LSL #12
        0x0001b830:    2201        ."      MOVS     r2,#1
        0x0001b832:    4630        0F      MOV      r0,r6
        0x0001b834:    f7fff87c    ..|.    BL       am_hal_delay_us_status_check ; 0x1a930
        0x0001b838:    0006        ..      MOVS     r6,r0
        0x0001b83a:    f0408249    @.I.    BNE.W    0x1bcd0 ; am_hal_mspi_control + 3296
        0x0001b83e:    e002        ..      B        0x1b846 ; am_hal_mspi_control + 2134
        0x0001b840:    6a20         j      LDR      r0,[r4,#0x20]
        0x0001b842:    2800        .(      CMP      r0,#0
        0x0001b844:    d173        s.      BNE      0x1b92e ; am_hal_mspi_control + 2366
        0x0001b846:    f8d40828    ..(.    LDR      r0,[r4,#0x828]
        0x0001b84a:    f7fefe73    ..s.    BL       am_hal_cmdq_reset ; 0x1a534
        0x0001b84e:    2000        .       MOVS     r0,#0
        0x0001b850:    61e0        .a      STR      r0,[r4,#0x1c]
        0x0001b852:    f8c40830    ..0.    STR      r0,[r4,#0x830]
        0x0001b856:    6220         b      STR      r0,[r4,#0x20]
        0x0001b858:    f884782c    ..,x    STRB     r7,[r4,#0x82c]
        0x0001b85c:    2101        .!      MOVS     r1,#1
        0x0001b85e:    f884182d    ..-.    STRB     r1,[r4,#0x82d]
        0x0001b862:    f8c4085c    ..\.    STR      r0,[r4,#0x85c]
        0x0001b866:    f000ba33    ..3.    B.W      0x1bcd0 ; am_hal_mspi_control + 3296
        0x0001b86a:    f04f0800    O...    MOV      r8,#0
        0x0001b86e:    0016        ..      MOVS     r6,r2
        0x0001b870:    4647        GF      MOV      r7,r8
        0x0001b872:    f0008230    ..0.    BEQ.W    0x1bcd6 ; am_hal_mspi_control + 3302
        0x0001b876:    7930        0y      LDRB     r0,[r6,#4]
        0x0001b878:    f0100fe0    ....    TST      r0,#0xe0
        0x0001b87c:    f040822b    @.+.    BNE.W    0x1bcd6 ; am_hal_mspi_control + 3302
        0x0001b880:    4995        .I      LDR      r1,[pc,#596] ; [0x1bad8] = 0xe0e0e0
        0x0001b882:    68b0        .h      LDR      r0,[r6,#8]
        0x0001b884:    4208        .B      TST      r0,r1
        0x0001b886:    f0408226    @.&.    BNE.W    0x1bcd6 ; am_hal_mspi_control + 3302
        0x0001b88a:    f894082c    ..,.    LDRB     r0,[r4,#0x82c]
        0x0001b88e:    2801        .(      CMP      r0,#1
        0x0001b890:    d14d        M.      BNE      0x1b92e ; am_hal_mspi_control + 2366
        0x0001b892:    f8d40838    ..8.    LDR      r0,[r4,#0x838]
        0x0001b896:    b180        ..      CBZ      r0,0x1b8ba ; am_hal_mspi_control + 2250
        0x0001b898:    2100        .!      MOVS     r1,#0
        0x0001b89a:    f8c41838    ..8.    STR      r1,[r4,#0x838]
        0x0001b89e:    f89408c0    ....    LDRB     r0,[r4,#0x8c0]
        0x0001b8a2:    b910        ..      CBNZ     r0,0x1b8aa ; am_hal_mspi_control + 2234
        0x0001b8a4:    2001        .       MOVS     r0,#1
        0x0001b8a6:    f7feff07    ....    BL       am_hal_daxi_control ; 0x1a6b8
        0x0001b8aa:    2020                MOVS     r0,#0x20
        0x0001b8ac:    0329        ).      LSLS     r1,r5,#12
        0x0001b8ae:    f1014180    ...A    ADD      r1,r1,#0x40000000
        0x0001b8b2:    f50121c0    ...!    ADD      r1,r1,#0x60000
        0x0001b8b6:    f8c102b4    ....    STR      r0,[r1,#0x2b4]
        0x0001b8ba:    7830        0x      LDRB     r0,[r6,#0]
        0x0001b8bc:    b3b0        ..      CBZ      r0,0x1b92c ; am_hal_mspi_control + 2364
        0x0001b8be:    f894082d    ..-.    LDRB     r0,[r4,#0x82d]
        0x0001b8c2:    bb98        ..      CBNZ     r0,0x1b92c ; am_hal_mspi_control + 2364
        0x0001b8c4:    ab01        ..      ADD      r3,sp,#4
        0x0001b8c6:    466a        jF      MOV      r2,sp
        0x0001b8c8:    2101        .!      MOVS     r1,#1
        0x0001b8ca:    f8d40828    ..(.    LDR      r0,[r4,#0x828]
        0x0001b8ce:    f7fefbf5    ....    BL       am_hal_cmdq_alloc_block ; 0x1a0bc
        0x0001b8d2:    2800        .(      CMP      r0,#0
        0x0001b8d4:    bf1c        ..      ITT      NE
        0x0001b8d6:    b003        ..      ADDNE    sp,sp,#0xc
        0x0001b8d8:    e8bd83f0    ....    POPNE    {r4-r9,pc}
        0x0001b8dc:    497f        .I      LDR      r1,[pc,#508] ; [0x1badc] = 0x1ef57
        0x0001b8de:    9801        ..      LDR      r0,[sp,#4]
        0x0001b8e0:    b2c2        ..      UXTB     r2,r0
        0x0001b8e2:    eb040082    ....    ADD      r0,r4,r2,LSL #2
        0x0001b8e6:    6281        .b      STR      r1,[r0,#0x28]
        0x0001b8e8:    9901        ..      LDR      r1,[sp,#4]
        0x0001b8ea:    487d        }H      LDR      r0,[pc,#500] ; [0x1bae0] = 0x400602b4
        0x0001b8ec:    b2c9        ..      UXTB     r1,r1
        0x0001b8ee:    eb040181    ....    ADD      r1,r4,r1,LSL #2
        0x0001b8f2:    f8c14428    ..(D    STR      r4,[r1,#0x428]
        0x0001b8f6:    eb003105    ...1    ADD      r1,r0,r5,LSL #12
        0x0001b8fa:    9800        ..      LDR      r0,[sp,#0]
        0x0001b8fc:    6001        .`      STR      r1,[r0,#0]
        0x0001b8fe:    2100        .!      MOVS     r1,#0
        0x0001b900:    6041        A`      STR      r1,[r0,#4]
        0x0001b902:    f7fcfd2f    ../.    BL       am_hal_interrupt_master_disable ; 0x18364
        0x0001b906:    4680        .F      MOV      r8,r0
        0x0001b908:    2101        .!      MOVS     r1,#1
        0x0001b90a:    f8d40828    ..(.    LDR      r0,[r4,#0x828]
        0x0001b90e:    f7fefd8b    ....    BL       am_hal_cmdq_post_block ; 0x1a428
        0x0001b912:    0007        ..      MOVS     r7,r0
        0x0001b914:    d00c        ..      BEQ      0x1b930 ; am_hal_mspi_control + 2368
        0x0001b916:    4640        @F      MOV      r0,r8
        0x0001b918:    f7fcfd28    ..(.    BL       am_hal_interrupt_master_set ; 0x1836c
        0x0001b91c:    f8d40828    ..(.    LDR      r0,[r4,#0x828]
        0x0001b920:    f7fefdec    ....    BL       am_hal_cmdq_release_block ; 0x1a4fc
        0x0001b924:    4638        8F      MOV      r0,r7
        0x0001b926:    b003        ..      ADD      sp,sp,#0xc
        0x0001b928:    e8bd83f0    ....    POP      {r4-r9,pc}
        0x0001b92c:    e011        ..      B        0x1b952 ; am_hal_mspi_control + 2402
        0x0001b92e:    e0b7        ..      B        0x1baa0 ; am_hal_mspi_control + 2736
        0x0001b930:    6a27        'j      LDR      r7,[r4,#0x20]
        0x0001b932:    4640        @F      MOV      r0,r8
        0x0001b934:    1c79        y.      ADDS     r1,r7,#1
        0x0001b936:    6221        !b      STR      r1,[r4,#0x20]
        0x0001b938:    f7fcfd18    ....    BL       am_hal_interrupt_master_set ; 0x1836c
        0x0001b93c:    b92f        /.      CBNZ     r7,0x1b94a ; am_hal_mspi_control + 2394
        0x0001b93e:    f8d40828    ..(.    LDR      r0,[r4,#0x828]
        0x0001b942:    f7fefc41    ..A.    BL       am_hal_cmdq_enable ; 0x1a1c8
        0x0001b946:    2800        .(      CMP      r0,#0
        0x0001b948:    d1ed        ..      BNE      0x1b926 ; am_hal_mspi_control + 2358
        0x0001b94a:    f04f0840    O.@.    MOV      r8,#0x40
        0x0001b94e:    f44f0780    O...    MOV      r7,#0x400000
        0x0001b952:    ab01        ..      ADD      r3,sp,#4
        0x0001b954:    466a        jF      MOV      r2,sp
        0x0001b956:    2103        .!      MOVS     r1,#3
        0x0001b958:    f8d40828    ..(.    LDR      r0,[r4,#0x828]
        0x0001b95c:    f7fefbae    ....    BL       am_hal_cmdq_alloc_block ; 0x1a0bc
        0x0001b960:    2800        .(      CMP      r0,#0
        0x0001b962:    d1e0        ..      BNE      0x1b926 ; am_hal_mspi_control + 2358
        0x0001b964:    495f        _I      LDR      r1,[pc,#380] ; [0x1bae4] = 0x400602b8
        0x0001b966:    9800        ..      LDR      r0,[sp,#0]
        0x0001b968:    eb013105    ...1    ADD      r1,r1,r5,LSL #12
        0x0001b96c:    6081        .`      STR      r1,[r0,#8]
        0x0001b96e:    6001        .`      STR      r1,[r0,#0]
        0x0001b970:    495b        [I      LDR      r1,[pc,#364] ; [0x1bae0] = 0x400602b4
        0x0001b972:    eb013105    ...1    ADD      r1,r1,r5,LSL #12
        0x0001b976:    6101        .a      STR      r1,[r0,#0x10]
        0x0001b978:    6871        qh      LDR      r1,[r6,#4]
        0x0001b97a:    f8d42838    ..8(    LDR      r2,[r4,#0x838]
        0x0001b97e:    ea410108    A...    ORR      r1,r1,r8
        0x0001b982:    2a01        .*      CMP      r2,#1
        0x0001b984:    d019        ..      BEQ      0x1b9ba ; am_hal_mspi_control + 2506
        0x0001b986:    2a02        .*      CMP      r2,#2
        0x0001b988:    bf0c        ..      ITE      EQ
        0x0001b98a:    f44f4180    O..A    MOVEQ    r1,#0x4000
        0x0001b98e:    f4414181    A..A    ORRNE    r1,r1,#0x4080
        0x0001b992:    6041        A`      STR      r1,[r0,#4]
        0x0001b994:    f44f4180    O..A    MOV      r1,#0x4000
        0x0001b998:    60c1        .`      STR      r1,[r0,#0xc]
        0x0001b99a:    68b1        .h      LDR      r1,[r6,#8]
        0x0001b99c:    4339        9C      ORRS     r1,r1,r7
        0x0001b99e:    6141        Aa      STR      r1,[r0,#0x14]
        0x0001b9a0:    f7fcfce0    ....    BL       am_hal_interrupt_master_disable ; 0x18364
        0x0001b9a4:    4680        .F      MOV      r8,r0
        0x0001b9a6:    7830        0x      LDRB     r0,[r6,#0]
        0x0001b9a8:    f04f0100    O...    MOV      r1,#0
        0x0001b9ac:    2800        .(      CMP      r0,#0
        0x0001b9ae:    f8d40828    ..(.    LDR      r0,[r4,#0x828]
        0x0001b9b2:    d009        ..      BEQ      0x1b9c8 ; am_hal_mspi_control + 2520
        0x0001b9b4:    f7fefd6a    ..j.    BL       am_hal_cmdq_post_loop_block ; 0x1a48c
        0x0001b9b8:    e008        ..      B        0x1b9cc ; am_hal_mspi_control + 2524
        0x0001b9ba:    f24402a0    D...    MOV      r2,#0x40a0
        0x0001b9be:    4311        .C      ORRS     r1,r1,r2
        0x0001b9c0:    2302        .#      MOVS     r3,#2
        0x0001b9c2:    f8c43838    ..88    STR      r3,[r4,#0x838]
        0x0001b9c6:    e7e4        ..      B        0x1b992 ; am_hal_mspi_control + 2466
        0x0001b9c8:    f7fefd2e    ....    BL       am_hal_cmdq_post_block ; 0x1a428
        0x0001b9cc:    0007        ..      MOVS     r7,r0
        0x0001b9ce:    d007        ..      BEQ      0x1b9e0 ; am_hal_mspi_control + 2544
        0x0001b9d0:    4640        @F      MOV      r0,r8
        0x0001b9d2:    f7fcfccb    ....    BL       am_hal_interrupt_master_set ; 0x1836c
        0x0001b9d6:    f8d40828    ..(.    LDR      r0,[r4,#0x828]
        0x0001b9da:    f7fefd8f    ....    BL       am_hal_cmdq_release_block ; 0x1a4fc
        0x0001b9de:    e01a        ..      B        0x1ba16 ; am_hal_mspi_control + 2598
        0x0001b9e0:    6a25        %j      LDR      r5,[r4,#0x20]
        0x0001b9e2:    1c69        i.      ADDS     r1,r5,#1
        0x0001b9e4:    6221        !b      STR      r1,[r4,#0x20]
        0x0001b9e6:    7830        0x      LDRB     r0,[r6,#0]
        0x0001b9e8:    2800        .(      CMP      r0,#0
        0x0001b9ea:    bf14        ..      ITE      NE
        0x0001b9ec:    2102        .!      MOVNE    r1,#2
        0x0001b9ee:    2100        .!      MOVEQ    r1,#0
        0x0001b9f0:    f884182c    ..,.    STRB     r1,[r4,#0x82c]
        0x0001b9f4:    4640        @F      MOV      r0,r8
        0x0001b9f6:    f7fcfcb9    ....    BL       am_hal_interrupt_master_set ; 0x1836c
        0x0001b9fa:    b965        e.      CBNZ     r5,0x1ba16 ; am_hal_mspi_control + 2598
        0x0001b9fc:    f8d40828    ..(.    LDR      r0,[r4,#0x828]
        0x0001ba00:    e005        ..      B        0x1ba0e ; am_hal_mspi_control + 2590
        0x0001ba02:    e149        I.      B        0x1bc98 ; am_hal_mspi_control + 3240
        0x0001ba04:    e12e        ..      B        0x1bc64 ; am_hal_mspi_control + 3188
        0x0001ba06:    e050        P.      B        0x1baaa ; am_hal_mspi_control + 2746
        0x0001ba08:    e02f        /.      B        0x1ba6a ; am_hal_mspi_control + 2682
        0x0001ba0a:    e01e        ..      B        0x1ba4a ; am_hal_mspi_control + 2650
        0x0001ba0c:    e005        ..      B        0x1ba1a ; am_hal_mspi_control + 2602
        0x0001ba0e:    f7fefbdb    ....    BL       am_hal_cmdq_enable ; 0x1a1c8
        0x0001ba12:    0007        ..      MOVS     r7,r0
        0x0001ba14:    d187        ..      BNE      0x1b926 ; am_hal_mspi_control + 2358
        0x0001ba16:    4638        8F      MOV      r0,r7
        0x0001ba18:    e785        ..      B        0x1b926 ; am_hal_mspi_control + 2358
        0x0001ba1a:    2a00        .*      CMP      r2,#0
        0x0001ba1c:    d057        W.      BEQ      0x1bace ; am_hal_mspi_control + 2782
        0x0001ba1e:    f8d40854    ..T.    LDR      r0,[r4,#0x854]
        0x0001ba22:    bbe8        ..      CBNZ     r0,0x1baa0 ; am_hal_mspi_control + 2736
        0x0001ba24:    2000        .       MOVS     r0,#0
        0x0001ba26:    f8c40850    ..P.    STR      r0,[r4,#0x850]
        0x0001ba2a:    f8c40840    ..@.    STR      r0,[r4,#0x840]
        0x0001ba2e:    2001        .       MOVS     r0,#1
        0x0001ba30:    f8c4084c    ..L.    STR      r0,[r4,#0x84c]
        0x0001ba34:    6810        .h      LDR      r0,[r2,#0]
        0x0001ba36:    f8c40854    ..T.    STR      r0,[r4,#0x854]
        0x0001ba3a:    492b        +I      LDR      r1,[pc,#172] ; [0x1bae8] = 0xaaaaaaab
        0x0001ba3c:    6850        Ph      LDR      r0,[r2,#4]
        0x0001ba3e:    fba11000    ....    UMULL    r1,r0,r1,r0
        0x0001ba42:    0900        ..      LSRS     r0,r0,#4
        0x0001ba44:    f8c40848    ..H.    STR      r0,[r4,#0x848]
        0x0001ba48:    e142        B.      B        0x1bcd0 ; am_hal_mspi_control + 3296
        0x0001ba4a:    0329        ).      LSLS     r1,r5,#12
        0x0001ba4c:    f1014180    ...A    ADD      r1,r1,#0x40000000
        0x0001ba50:    f50121c0    ...!    ADD      r1,r1,#0x60000
        0x0001ba54:    f44f1000    O...    MOV      r0,#0x200000
        0x0001ba58:    f8c102b4    ....    STR      r0,[r1,#0x2b4]
        0x0001ba5c:    2001        .       MOVS     r0,#1
        0x0001ba5e:    f8c40838    ..8.    STR      r0,[r4,#0x838]
        0x0001ba62:    2000        .       MOVS     r0,#0
        0x0001ba64:    f8c40844    ..D.    STR      r0,[r4,#0x844]
        0x0001ba68:    e132        2.      B        0x1bcd0 ; am_hal_mspi_control + 3296
        0x0001ba6a:    f89408c0    ....    LDRB     r0,[r4,#0x8c0]
        0x0001ba6e:    b918        ..      CBNZ     r0,0x1ba78 ; am_hal_mspi_control + 2696
        0x0001ba70:    2100        .!      MOVS     r1,#0
        0x0001ba72:    2001        .       MOVS     r0,#1
        0x0001ba74:    f7fefe20    .. .    BL       am_hal_daxi_control ; 0x1a6b8
        0x0001ba78:    2020                MOVS     r0,#0x20
        0x0001ba7a:    0329        ).      LSLS     r1,r5,#12
        0x0001ba7c:    f1014180    ...A    ADD      r1,r1,#0x40000000
        0x0001ba80:    f50121c0    ...!    ADD      r1,r1,#0x60000
        0x0001ba84:    f8c102b4    ....    STR      r0,[r1,#0x2b4]
        0x0001ba88:    2500        .%      MOVS     r5,#0
        0x0001ba8a:    f8c45838    ..8X    STR      r5,[r4,#0x838]
        0x0001ba8e:    f8d41844    ..D.    LDR      r1,[r4,#0x844]
        0x0001ba92:    2900        .)      CMP      r1,#0
        0x0001ba94:    d17e        ~.      BNE      0x1bb94 ; am_hal_mspi_control + 2980
        0x0001ba96:    4620         F      MOV      r0,r4
        0x0001ba98:    f003fb62    ..b.    BL       sched_hiprio ; 0x1f160
        0x0001ba9c:    0006        ..      MOVS     r6,r0
        0x0001ba9e:    e000        ..      B        0x1baa2 ; am_hal_mspi_control + 2738
        0x0001baa0:    e024        $.      B        0x1baec ; am_hal_mspi_control + 2812
        0x0001baa2:    bf08        ..      IT       EQ
        0x0001baa4:    f8c45844    ..DX    STREQ    r5,[r4,#0x844]
        0x0001baa8:    e112        ..      B        0x1bcd0 ; am_hal_mspi_control + 3296
        0x0001baaa:    0017        ..      MOVS     r7,r2
        0x0001baac:    d00f        ..      BEQ      0x1bace ; am_hal_mspi_control + 2782
        0x0001baae:    f8d40828    ..(.    LDR      r0,[r4,#0x828]
        0x0001bab2:    b1d8        ..      CBZ      r0,0x1baec ; am_hal_mspi_control + 2812
        0x0001bab4:    6a21        !j      LDR      r1,[r4,#0x20]
        0x0001bab6:    f5b17f80    ....    CMP      r1,#0x100
        0x0001baba:    d006        ..      BEQ      0x1baca ; am_hal_mspi_control + 2778
        0x0001babc:    68f9        .h      LDR      r1,[r7,#0xc]
        0x0001babe:    ab01        ..      ADD      r3,sp,#4
        0x0001bac0:    466a        jF      MOV      r2,sp
        0x0001bac2:    1cc9        ..      ADDS     r1,r1,#3
        0x0001bac4:    f7fefafa    ....    BL       am_hal_cmdq_alloc_block ; 0x1a0bc
        0x0001bac8:    b190        ..      CBZ      r0,0x1baf0 ; am_hal_mspi_control + 2816
        0x0001baca:    2005        .       MOVS     r0,#5
        0x0001bacc:    e72b        +.      B        0x1b926 ; am_hal_mspi_control + 2358
        0x0001bace:    e101        ..      B        0x1bcd4 ; am_hal_mspi_control + 3300
    $d
        0x0001bad0:    000186a0    ....    DCD    100000
        0x0001bad4:    40060104    ...@    DCD    1074135300
        0x0001bad8:    00e0e0e0    ....    DCD    14737632
        0x0001badc:    0001ef57    W...    DCD    126807
        0x0001bae0:    400602b4    ...@    DCD    1074135732
        0x0001bae4:    400602b8    ...@    DCD    1074135736
        0x0001bae8:    aaaaaaab    ....    DCD    2863311531
    $t
        0x0001baec:    2007        .       MOVS     r0,#7
        0x0001baee:    e71a        ..      B        0x1b926 ; am_hal_mspi_control + 2358
        0x0001baf0:    487a        zH      LDR      r0,[pc,#488] ; [0x1bcdc] = 0x400602b8
        0x0001baf2:    9900        ..      LDR      r1,[sp,#0]
        0x0001baf4:    eb003805    ...8    ADD      r8,r0,r5,LSL #12
        0x0001baf8:    f8c18000    ....    STR      r8,[r1,#0]
        0x0001bafc:    f8d42838    ..8(    LDR      r2,[r4,#0x838]
        0x0001bb00:    6838        8h      LDR      r0,[r7,#0]
        0x0001bb02:    2a01        .*      CMP      r2,#1
        0x0001bb04:    d053        S.      BEQ      0x1bbae ; am_hal_mspi_control + 3006
        0x0001bb06:    2a02        .*      CMP      r2,#2
        0x0001bb08:    bf0c        ..      ITE      EQ
        0x0001bb0a:    f44f4080    O..@    MOVEQ    r0,#0x4000
        0x0001bb0e:    f4404081    @..@    ORRNE    r0,r0,#0x4080
        0x0001bb12:    6048        H`      STR      r0,[r1,#4]
        0x0001bb14:    f1010008    ....    ADD      r0,r1,#8
        0x0001bb18:    9000        ..      STR      r0,[sp,#0]
        0x0001bb1a:    68f9        .h      LDR      r1,[r7,#0xc]
        0x0001bb1c:    b349        I.      CBZ      r1,0x1bb72 ; am_hal_mspi_control + 2946
        0x0001bb1e:    68ba        .h      LDR      r2,[r7,#8]
        0x0001bb20:    f1a00608    ....    SUB      r6,r0,#8
        0x0001bb24:    f1a20c08    ....    SUB      r12,r2,#8
        0x0001bb28:    1f13        ..      SUBS     r3,r2,#4
        0x0001bb2a:    1f02        ..      SUBS     r2,r0,#4
        0x0001bb2c:    f0110f01    ....    TST      r1,#1
        0x0001bb30:    d007        ..      BEQ      0x1bb42 ; am_hal_mspi_control + 2898
        0x0001bb32:    f85c0f08    \...    LDR      r0,[r12,#8]!
        0x0001bb36:    f8460f08    F...    STR      r0,[r6,#8]!
        0x0001bb3a:    f8530f08    S...    LDR      r0,[r3,#8]!
        0x0001bb3e:    f8420f08    B...    STR      r0,[r2,#8]!
        0x0001bb42:    68f8        .h      LDR      r0,[r7,#0xc]
        0x0001bb44:    0840        @.      LSRS     r0,r0,#1
        0x0001bb46:    d00f        ..      BEQ      0x1bb68 ; am_hal_mspi_control + 2936
        0x0001bb48:    6899        .h      LDR      r1,[r3,#8]
        0x0001bb4a:    f8dc9008    ....    LDR      r9,[r12,#8]
        0x0001bb4e:    f8c69008    ....    STR      r9,[r6,#8]
        0x0001bb52:    6091        .`      STR      r1,[r2,#8]
        0x0001bb54:    f8539f10    S...    LDR      r9,[r3,#0x10]!
        0x0001bb58:    f85c1f10    \...    LDR      r1,[r12,#0x10]!
        0x0001bb5c:    f8461f10    F...    STR      r1,[r6,#0x10]!
        0x0001bb60:    f8429f10    B...    STR      r9,[r2,#0x10]!
        0x0001bb64:    1e40        @.      SUBS     r0,r0,#1
        0x0001bb66:    d1ef        ..      BNE      0x1bb48 ; am_hal_mspi_control + 2904
        0x0001bb68:    68f8        .h      LDR      r0,[r7,#0xc]
        0x0001bb6a:    9900        ..      LDR      r1,[sp,#0]
        0x0001bb6c:    eb0100c0    ....    ADD      r0,r1,r0,LSL #3
        0x0001bb70:    9000        ..      STR      r0,[sp,#0]
        0x0001bb72:    69b8        .i      LDR      r0,[r7,#0x18]
        0x0001bb74:    2800        .(      CMP      r0,#0
        0x0001bb76:    bf1c        ..      ITT      NE
        0x0001bb78:    9900        ..      LDRNE    r1,[sp,#0]
        0x0001bb7a:    6001        .`      STRNE    r1,[r0,#0]
        0x0001bb7c:    f44f4180    O..A    MOV      r1,#0x4000
        0x0001bb80:    9800        ..      LDR      r0,[sp,#0]
        0x0001bb82:    e8e08102    ....    STRD     r8,r1,[r0],#8
        0x0001bb86:    4956        VI      LDR      r1,[pc,#344] ; [0x1bce0] = 0x400602b4
        0x0001bb88:    9000        ..      STR      r0,[sp,#0]
        0x0001bb8a:    eb013105    ...1    ADD      r1,r1,r5,LSL #12
        0x0001bb8e:    6001        .`      STR      r1,[r0,#0]
        0x0001bb90:    6879        yh      LDR      r1,[r7,#4]
        0x0001bb92:    e000        ..      B        0x1bb96 ; am_hal_mspi_control + 2982
        0x0001bb94:    e09c        ..      B        0x1bcd0 ; am_hal_mspi_control + 3296
        0x0001bb96:    6041        A`      STR      r1,[r0,#4]
        0x0001bb98:    693d        =i      LDR      r5,[r7,#0x10]
        0x0001bb9a:    2d00        .-      CMP      r5,#0
        0x0001bb9c:    bf01        ..      ITTTT    EQ
        0x0001bb9e:    f8d40838    ..8.    LDREQ    r0,[r4,#0x838]
        0x0001bba2:    2800        .(      CMPEQ    r0,#0
        0x0001bba4:    f894082c    ..,.    LDRBEQ   r0,[r4,#0x82c]
        0x0001bba8:    2800        .(      CMPEQ    r0,#0
        0x0001bbaa:    d111        ..      BNE      0x1bbd0 ; am_hal_mspi_control + 3040
        0x0001bbac:    e008        ..      B        0x1bbc0 ; am_hal_mspi_control + 3024
        0x0001bbae:    f24402a0    D...    MOV      r2,#0x40a0
        0x0001bbb2:    f04f0302    O...    MOV      r3,#2
        0x0001bbb6:    ea400002    @...    ORR      r0,r0,r2
        0x0001bbba:    f8c43838    ..88    STR      r3,[r4,#0x838]
        0x0001bbbe:    e7a8        ..      B        0x1bb12 ; am_hal_mspi_control + 2850
        0x0001bbc0:    f8d4185c    ..\.    LDR      r1,[r4,#0x85c]
        0x0001bbc4:    f8d40858    ..X.    LDR      r0,[r4,#0x858]
        0x0001bbc8:    ebb10f50    ..P.    CMP      r1,r0,LSR #1
        0x0001bbcc:    bf28        (.      IT       CS
        0x0001bbce:    4d45        EM      LDRCS    r5,[pc,#276] ; [0x1bce4] = 0x1ef55
        0x0001bbd0:    9801        ..      LDR      r0,[sp,#4]
        0x0001bbd2:    b2c1        ..      UXTB     r1,r0
        0x0001bbd4:    eb040081    ....    ADD      r0,r4,r1,LSL #2
        0x0001bbd8:    6285        .b      STR      r5,[r0,#0x28]
        0x0001bbda:    9801        ..      LDR      r0,[sp,#4]
        0x0001bbdc:    6979        yi      LDR      r1,[r7,#0x14]
        0x0001bbde:    b2c2        ..      UXTB     r2,r0
        0x0001bbe0:    eb040082    ....    ADD      r0,r4,r2,LSL #2
        0x0001bbe4:    f8c01428    ..(.    STR      r1,[r0,#0x428]
        0x0001bbe8:    f7fcfbbc    ....    BL       am_hal_interrupt_master_disable ; 0x18364
        0x0001bbec:    4680        .F      MOV      r8,r0
        0x0001bbee:    2d00        .-      CMP      r5,#0
        0x0001bbf0:    bf14        ..      ITE      NE
        0x0001bbf2:    2101        .!      MOVNE    r1,#1
        0x0001bbf4:    2100        .!      MOVEQ    r1,#0
        0x0001bbf6:    f8d40828    ..(.    LDR      r0,[r4,#0x828]
        0x0001bbfa:    f7fefc15    ....    BL       am_hal_cmdq_post_block ; 0x1a428
        0x0001bbfe:    0006        ..      MOVS     r6,r0
        0x0001bc00:    d007        ..      BEQ      0x1bc12 ; am_hal_mspi_control + 3106
        0x0001bc02:    4640        @F      MOV      r0,r8
        0x0001bc04:    f7fcfbb2    ....    BL       am_hal_interrupt_master_set ; 0x1836c
        0x0001bc08:    f8d40828    ..(.    LDR      r0,[r4,#0x828]
        0x0001bc0c:    f7fefc76    ..v.    BL       am_hal_cmdq_release_block ; 0x1a4fc
        0x0001bc10:    e05e        ^.      B        0x1bcd0 ; am_hal_mspi_control + 3296
        0x0001bc12:    f8d49020    .. .    LDR      r9,[r4,#0x20]
        0x0001bc16:    f1090101    ....    ADD      r1,r9,#1
        0x0001bc1a:    6221        !b      STR      r1,[r4,#0x20]
        0x0001bc1c:    f8d40830    ..0.    LDR      r0,[r4,#0x830]
        0x0001bc20:    1c41        A.      ADDS     r1,r0,#1
        0x0001bc22:    f8c41830    ..0.    STR      r1,[r4,#0x830]
        0x0001bc26:    6938        8i      LDR      r0,[r7,#0x10]
        0x0001bc28:    b158        X.      CBZ      r0,0x1bc42 ; am_hal_mspi_control + 3154
        0x0001bc2a:    2100        .!      MOVS     r1,#0
        0x0001bc2c:    f884182d    ..-.    STRB     r1,[r4,#0x82d]
        0x0001bc30:    f8c4185c    ..\.    STR      r1,[r4,#0x85c]
        0x0001bc34:    4640        @F      MOV      r0,r8
        0x0001bc36:    f7fcfb99    ....    BL       am_hal_interrupt_master_set ; 0x1836c
        0x0001bc3a:    f1b90f00    ....    CMP      r9,#0
        0x0001bc3e:    d147        G.      BNE      0x1bcd0 ; am_hal_mspi_control + 3296
        0x0001bc40:    e008        ..      B        0x1bc54 ; am_hal_mspi_control + 3172
        0x0001bc42:    2d00        .-      CMP      r5,#0
        0x0001bc44:    bf12        ..      ITEE     NE
        0x0001bc46:    2100        .!      MOVNE    r1,#0
        0x0001bc48:    f8d4085c    ..\.    LDREQ    r0,[r4,#0x85c]
        0x0001bc4c:    1c41        A.      ADDEQ    r1,r0,#1
        0x0001bc4e:    f8c4185c    ..\.    STR      r1,[r4,#0x85c]
        0x0001bc52:    e7ef        ..      B        0x1bc34 ; am_hal_mspi_control + 3140
        0x0001bc54:    f8d40828    ..(.    LDR      r0,[r4,#0x828]
        0x0001bc58:    f7fefab6    ....    BL       am_hal_cmdq_enable ; 0x1a1c8
        0x0001bc5c:    0006        ..      MOVS     r6,r0
        0x0001bc5e:    f47fae62    ..b.    BNE      0x1b926 ; am_hal_mspi_control + 2358
        0x0001bc62:    e035        5.      B        0x1bcd0 ; am_hal_mspi_control + 3296
        0x0001bc64:    b3b2        ..      CBZ      r2,0x1bcd4 ; am_hal_mspi_control + 3300
        0x0001bc66:    7810        .x      LDRB     r0,[r2,#0]
        0x0001bc68:    2803        .(      CMP      r0,#3
        0x0001bc6a:    bf9c        ..      ITT      LS
        0x0001bc6c:    7851        Qx      LDRBLS   r1,[r2,#1]
        0x0001bc6e:    2901        .)      CMPLS    r1,#1
        0x0001bc70:    d831        1.      BHI      0x1bcd6 ; am_hal_mspi_control + 3302
        0x0001bc72:    0328        (.      LSLS     r0,r5,#12
        0x0001bc74:    f1004080    ...@    ADD      r0,r0,#0x40000000
        0x0001bc78:    f50020c0    ...     ADD      r0,r0,#0x60000
        0x0001bc7c:    f8d03084    ...0    LDR      r3,[r0,#0x84]
        0x0001bc80:    f36113c7    a...    BFI      r3,r1,#7,#1
        0x0001bc84:    f8c03084    ...0    STR      r3,[r0,#0x84]
        0x0001bc88:    7811        .x      LDRB     r1,[r2,#0]
        0x0001bc8a:    f8d02084    ...     LDR      r2,[r0,#0x84]
        0x0001bc8e:    f3611246    a.F.    BFI      r2,r1,#5,#2
        0x0001bc92:    f8c02084    ...     STR      r2,[r0,#0x84]
        0x0001bc96:    e01b        ..      B        0x1bcd0 ; am_hal_mspi_control + 3296
        0x0001bc98:    b1e2        ..      CBZ      r2,0x1bcd4 ; am_hal_mspi_control + 3300
        0x0001bc9a:    0328        (.      LSLS     r0,r5,#12
        0x0001bc9c:    f1004080    ...@    ADD      r0,r0,#0x40000000
        0x0001bca0:    f50020c0    ...     ADD      r0,r0,#0x60000
        0x0001bca4:    7a53        Sz      LDRB     r3,[r2,#9]
        0x0001bca6:    f8d01084    ....    LDR      r1,[r0,#0x84]
        0x0001bcaa:    f363619f    c..a    BFI      r1,r3,#26,#6
        0x0001bcae:    f8c01084    ....    STR      r1,[r0,#0x84]
        0x0001bcb2:    f8d01090    ....    LDR      r1,[r0,#0x90]
        0x0001bcb6:    f4216170    !.pa    BIC      r1,r1,#0xf00
        0x0001bcba:    f50161a0    ...a    ADD      r1,r1,#0x500
        0x0001bcbe:    f8c01090    ....    STR      r1,[r0,#0x90]
        0x0001bcc2:    7b12        .{      LDRB     r2,[r2,#0xc]
        0x0001bcc4:    f8d01090    ....    LDR      r1,[r0,#0x90]
        0x0001bcc8:    f362314d    b.M1    BFI      r1,r2,#13,#1
        0x0001bccc:    f8c01090    ....    STR      r1,[r0,#0x90]
        0x0001bcd0:    4630        0F      MOV      r0,r6
        0x0001bcd2:    e628        (.      B        0x1b926 ; am_hal_mspi_control + 2358
        0x0001bcd4:    e7ff        ..      B        0x1bcd6 ; am_hal_mspi_control + 3302
        0x0001bcd6:    2006        .       MOVS     r0,#6
        0x0001bcd8:    e625        %.      B        0x1b926 ; am_hal_mspi_control + 2358
    $d
        0x0001bcda:    0000        ..      DCW    0
        0x0001bcdc:    400602b8    ...@    DCD    1074135736
        0x0001bce0:    400602b4    ...@    DCD    1074135732
        0x0001bce4:    0001ef55    U...    DCD    126805
    $t
    i.am_hal_mspi_deinitialize
    am_hal_mspi_deinitialize
        0x0001bce8:    e92d41f0    -..A    PUSH     {r4-r8,lr}
        0x0001bcec:    1e05        ..      SUBS     r5,r0,#0
        0x0001bcee:    bf1c        ..      ITT      NE
        0x0001bcf0:    6801        .h      LDRNE    r1,[r0,#0]
        0x0001bcf2:    f0117f80    ....    TSTNE    r1,#0x1000000
        0x0001bcf6:    d004        ..      BEQ      0x1bd02 ; am_hal_mspi_deinitialize + 26
        0x0001bcf8:    4b25        %K      LDR      r3,[pc,#148] ; [0x1bd90] = 0xbebebe
        0x0001bcfa:    f021427f    !..B    BIC      r2,r1,#0xff000000
        0x0001bcfe:    429a        .B      CMP      r2,r3
        0x0001bd00:    d002        ..      BEQ      0x1bd08 ; am_hal_mspi_deinitialize + 32
        0x0001bd02:    2002        .       MOVS     r0,#2
        0x0001bd04:    e8bd81f0    ....    POP      {r4-r8,pc}
        0x0001bd08:    f0117f00    ....    TST      r1,#0x2000000
        0x0001bd0c:    f04f0600    O...    MOV      r6,#0
        0x0001bd10:    d036        6.      BEQ      0x1bd80 ; am_hal_mspi_deinitialize + 152
        0x0001bd12:    f8d50840    ..@.    LDR      r0,[r5,#0x840]
        0x0001bd16:    462c        ,F      MOV      r4,r5
        0x0001bd18:    2800        .(      CMP      r0,#0
        0x0001bd1a:    bf04        ..      ITT      EQ
        0x0001bd1c:    6a20         j      LDREQ    r0,[r4,#0x20]
        0x0001bd1e:    2800        .(      CMPEQ    r0,#0
        0x0001bd20:    d12e        ..      BNE      0x1bd80 ; am_hal_mspi_deinitialize + 152
        0x0001bd22:    69a0        .i      LDR      r0,[r4,#0x18]
        0x0001bd24:    b1b8        ..      CBZ      r0,0x1bd56 ; am_hal_mspi_deinitialize + 110
        0x0001bd26:    f8d40828    ..(.    LDR      r0,[r4,#0x828]
        0x0001bd2a:    f7fefa2d    ..-.    BL       am_hal_cmdq_disable ; 0x1a188
        0x0001bd2e:    bb38        8.      CBNZ     r0,0x1bd80 ; am_hal_mspi_deinitialize + 152
        0x0001bd30:    6860        `h      LDR      r0,[r4,#4]
        0x0001bd32:    f8df8060    ..`.    LDR      r8,[pc,#96] ; [0x1bd94] = 0x10003134
        0x0001bd36:    eb001040    ..@.    ADD      r0,r0,r0,LSL #5
        0x0001bd3a:    eb001700    ....    ADD      r7,r0,r0,LSL #4
        0x0001bd3e:    eb080087    ....    ADD      r0,r8,r7,LSL #2
        0x0001bd42:    f8d00828    ..(.    LDR      r0,[r0,#0x828]
        0x0001bd46:    b130        0.      CBZ      r0,0x1bd56 ; am_hal_mspi_deinitialize + 110
        0x0001bd48:    2101        .!      MOVS     r1,#1
        0x0001bd4a:    f7fefc25    ..%.    BL       am_hal_cmdq_term ; 0x1a598
        0x0001bd4e:    eb080087    ....    ADD      r0,r8,r7,LSL #2
        0x0001bd52:    f8c06828    ..(h    STR      r6,[r0,#0x828]
        0x0001bd56:    6820         h      LDR      r0,[r4,#0]
        0x0001bd58:    f0207000     ..p    BIC      r0,r0,#0x2000000
        0x0001bd5c:    6020         `      STR      r0,[r4,#0]
        0x0001bd5e:    6860        `h      LDR      r0,[r4,#4]
        0x0001bd60:    0300        ..      LSLS     r0,r0,#12
        0x0001bd62:    f1004080    ...@    ADD      r0,r0,#0x40000000
        0x0001bd66:    f50020c0    ...     ADD      r0,r0,#0x60000
        0x0001bd6a:    f8d00090    ....    LDR      r0,[r0,#0x90]
        0x0001bd6e:    f0100f01    ....    TST      r0,#1
        0x0001bd72:    d005        ..      BEQ      0x1bd80 ; am_hal_mspi_deinitialize + 152
        0x0001bd74:    f04f0100    O...    MOV      r1,#0
        0x0001bd78:    f04f0001    O...    MOV      r0,#1
        0x0001bd7c:    f7fefc9c    ....    BL       am_hal_daxi_control ; 0x1a6b8
        0x0001bd80:    6828        (h      LDR      r0,[r5,#0]
        0x0001bd82:    f0207080     ..p    BIC      r0,r0,#0x1000000
        0x0001bd86:    e9c50600    ....    STRD     r0,r6,[r5,#0]
        0x0001bd8a:    2000        .       MOVS     r0,#0
        0x0001bd8c:    e8bd81f0    ....    POP      {r4-r8,pc}
    $d
        0x0001bd90:    00bebebe    ....    DCD    12500670
        0x0001bd94:    10003134    41..    DCD    268448052
    $t
    i.am_hal_mspi_device_configure
    am_hal_mspi_device_configure
        0x0001bd98:    b570        p.      PUSH     {r4-r6,lr}
        0x0001bd9a:    6842        Bh      LDR      r2,[r0,#4]
        0x0001bd9c:    460c        .F      MOV      r4,r1
        0x0001bd9e:    1e05        ..      SUBS     r5,r0,#0
        0x0001bda0:    bf1c        ..      ITT      NE
        0x0001bda2:    6828        (h      LDRNE    r0,[r5,#0]
        0x0001bda4:    f0107f80    ....    TSTNE    r0,#0x1000000
        0x0001bda8:    d004        ..      BEQ      0x1bdb4 ; am_hal_mspi_device_configure + 28
        0x0001bdaa:    497f        .I      LDR      r1,[pc,#508] ; [0x1bfa8] = 0xbebebe
        0x0001bdac:    f020407f     ..@    BIC      r0,r0,#0xff000000
        0x0001bdb0:    4288        .B      CMP      r0,r1
        0x0001bdb2:    d001        ..      BEQ      0x1bdb8 ; am_hal_mspi_device_configure + 32
        0x0001bdb4:    2002        .       MOVS     r0,#2
        0x0001bdb6:    bd70        p.      POP      {r4-r6,pc}
        0x0001bdb8:    7a28        (z      LDRB     r0,[r5,#8]
        0x0001bdba:    2800        .(      CMP      r0,#0
        0x0001bdbc:    bf04        ..      ITT      EQ
        0x0001bdbe:    2007        .       MOVEQ    r0,#7
        0x0001bdc0:    bd70        p.      POPEQ    {r4-r6,pc}
        0x0001bdc2:    7860        `x      LDRB     r0,[r4,#1]
        0x0001bdc4:    2160        `!      MOVS     r1,#0x60
        0x0001bdc6:    ea011040    ..@.    AND      r0,r1,r0,LSL #5
        0x0001bdca:    78a1        .x      LDRB     r1,[r4,#2]
        0x0001bdcc:    2380        .#      MOVS     r3,#0x80
        0x0001bdce:    ea0311c1    ....    AND      r1,r3,r1,LSL #7
        0x0001bdd2:    4308        .C      ORRS     r0,r0,r1
        0x0001bdd4:    7821        !x      LDRB     r1,[r4,#0]
        0x0001bdd6:    f44f537c    O.|S    MOV      r3,#0x3f00
        0x0001bdda:    ea032101    ...!    AND      r1,r3,r1,LSL #8
        0x0001bdde:    4308        .C      ORRS     r0,r0,r1
        0x0001bde0:    7aa1        .z      LDRB     r1,[r4,#0xa]
        0x0001bde2:    b169        i.      CBZ      r1,0x1be00 ; am_hal_mspi_device_configure + 104
        0x0001bde4:    2901        .)      CMP      r1,#1
        0x0001bde6:    bf08        ..      IT       EQ
        0x0001bde8:    f4404000    @..@    ORREQ    r0,r0,#0x8000
        0x0001bdec:    d008        ..      BEQ      0x1be00 ; am_hal_mspi_device_configure + 104
        0x0001bdee:    2902        .)      CMP      r1,#2
        0x0001bdf0:    bf08        ..      IT       EQ
        0x0001bdf2:    f4404080    @..@    ORREQ    r0,r0,#0x4000
        0x0001bdf6:    d003        ..      BEQ      0x1be00 ; am_hal_mspi_device_configure + 104
        0x0001bdf8:    2903        .)      CMP      r1,#3
        0x0001bdfa:    bf08        ..      IT       EQ
        0x0001bdfc:    f4404040    @.@@    ORREQ    r0,r0,#0xc000
        0x0001be00:    7ae1        .z      LDRB     r1,[r4,#0xb]
        0x0001be02:    f44f137c    O.|.    MOV      r3,#0x3f0000
        0x0001be06:    ea034301    ...C    AND      r3,r3,r1,LSL #16
        0x0001be0a:    4318        .C      ORRS     r0,r0,r3
        0x0001be0c:    2908        .)      CMP      r1,#8
        0x0001be0e:    d013        ..      BEQ      0x1be38 ; am_hal_mspi_device_configure + 160
        0x0001be10:    dc07        ..      BGT      0x1be22 ; am_hal_mspi_device_configure + 138
        0x0001be12:    2907        .)      CMP      r1,#7
        0x0001be14:    d27b        {.      BCS      0x1bf0e ; am_hal_mspi_device_configure + 374
        0x0001be16:    e8dff001    ....    TBB      [pc,r1]
    $d
        0x0001be1a:    0d89        ..      DCW    3465
        0x0001be1c:    890f0f0f    ....    DCD    2299465487
        0x0001be20:    000f        ..      DCW    15
    $t
        0x0001be22:    290c        .)      CMP      r1,#0xc
        0x0001be24:    bf18        ..      IT       NE
        0x0001be26:    2910        .)      CMPNE    r1,#0x10
        0x0001be28:    d006        ..      BEQ      0x1be38 ; am_hal_mspi_device_configure + 160
        0x0001be2a:    2918        .)      CMP      r1,#0x18
        0x0001be2c:    bf18        ..      IT       NE
        0x0001be2e:    2920         )      CMPNE    r1,#0x20
        0x0001be30:    d002        ..      BEQ      0x1be38 ; am_hal_mspi_device_configure + 160
        0x0001be32:    e07b        {.      B        0x1bf2c ; am_hal_mspi_device_configure + 404
        0x0001be34:    f0407080    @..p    ORR      r0,r0,#0x1000000
        0x0001be38:    7a61        az      LDRB     r1,[r4,#9]
        0x0001be3a:    ea406081    @..`    ORR      r0,r0,r1,LSL #26
        0x0001be3e:    ea4f3102    O..1    LSL      r1,r2,#12
        0x0001be42:    f1014280    ...B    ADD      r2,r1,#0x40000000
        0x0001be46:    f50222c0    ..."    ADD      r2,r2,#0x60000
        0x0001be4a:    f8c20084    ....    STR      r0,[r2,#0x84]
        0x0001be4e:    7c20         |      LDRB     r0,[r4,#0x10]
        0x0001be50:    2800        .(      CMP      r0,#0
        0x0001be52:    f8d20088    ....    LDR      r0,[r2,#0x88]
        0x0001be56:    bf14        ..      ITE      NE
        0x0001be58:    f0400001    @...    ORRNE    r0,r0,#1
        0x0001be5c:    f0200001     ...    BICEQ    r0,r0,#1
        0x0001be60:    f8c20088    ....    STR      r0,[r2,#0x88]
        0x0001be64:    6b10        .k      LDR      r0,[r2,#0x30]
        0x0001be66:    f0200001     ...    BIC      r0,r0,#1
        0x0001be6a:    6310        .c      STR      r0,[r2,#0x30]
        0x0001be6c:    f8d20090    ....    LDR      r0,[r2,#0x90]
        0x0001be70:    494e        NI      LDR      r1,[pc,#312] ; [0x1bfac] = 0xfc001f03
        0x0001be72:    2310        .#      MOVS     r3,#0x10
        0x0001be74:    4008        .@      ANDS     r0,r0,r1
        0x0001be76:    7b69        i{      LDRB     r1,[r5,#0xd]
        0x0001be78:    f040000c    @...    ORR      r0,r0,#0xc
        0x0001be7c:    ea031101    ....    AND      r1,r3,r1,LSL #4
        0x0001be80:    4308        .C      ORRS     r0,r0,r1
        0x0001be82:    7be1        .{      LDRB     r1,[r4,#0xf]
        0x0001be84:    b139        9.      CBZ      r1,0x1be96 ; am_hal_mspi_device_configure + 254
        0x0001be86:    7821        !x      LDRB     r1,[r4,#0]
        0x0001be88:    f44f237c    O.|#    MOV      r3,#0xfc000
        0x0001be8c:    f0400020    @. .    ORR      r0,r0,#0x20
        0x0001be90:    ea033181    ...1    AND      r1,r3,r1,LSL #14
        0x0001be94:    4308        .C      ORRS     r0,r0,r1
        0x0001be96:    7b61        a{      LDRB     r1,[r4,#0xd]
        0x0001be98:    2900        .)      CMP      r1,#0
        0x0001be9a:    bf18        ..      IT       NE
        0x0001be9c:    f0400040    @.@.    ORRNE    r0,r0,#0x40
        0x0001bea0:    7ba1        .{      LDRB     r1,[r4,#0xe]
        0x0001bea2:    2900        .)      CMP      r1,#0
        0x0001bea4:    bf18        ..      IT       NE
        0x0001bea6:    f0400080    @...    ORRNE    r0,r0,#0x80
        0x0001beaa:    7b21        !{      LDRB     r1,[r4,#0xc]
        0x0001beac:    f44f5300    O..S    MOV      r3,#0x2000
        0x0001beb0:    ea033141    ..A1    AND      r1,r3,r1,LSL #13
        0x0001beb4:    4308        .C      ORRS     r0,r0,r1
        0x0001beb6:    7a61        az      LDRB     r1,[r4,#9]
        0x0001beb8:    f04f737c    O.|s    MOV      r3,#0x3f00000
        0x0001bebc:    ea035101    ...Q    AND      r1,r3,r1,LSL #20
        0x0001bec0:    4308        .C      ORRS     r0,r0,r1
        0x0001bec2:    f8c20090    ....    STR      r0,[r2,#0x90]
        0x0001bec6:    88e0        ..      LDRH     r0,[r4,#6]
        0x0001bec8:    88a1        ..      LDRH     r1,[r4,#4]
        0x0001beca:    ea404001    @..@    ORR      r0,r0,r1,LSL #16
        0x0001bece:    f8c20094    ....    STR      r0,[r2,#0x94]
        0x0001bed2:    8a60        `.      LDRH     r0,[r4,#0x12]
        0x0001bed4:    7d21        !}      LDRB     r1,[r4,#0x14]
        0x0001bed6:    f44f4370    O.pC    MOV      r3,#0xf000
        0x0001beda:    f3c0000b    ....    UBFX     r0,r0,#0,#12
        0x0001bede:    ea033101    ...1    AND      r1,r3,r1,LSL #12
        0x0001bee2:    4308        .C      ORRS     r0,r0,r1
        0x0001bee4:    f8c20098    ....    STR      r0,[r2,#0x98]
        0x0001bee8:    6b10        .k      LDR      r0,[r2,#0x30]
        0x0001beea:    f02000f0     ...    BIC      r0,r0,#0xf0
        0x0001beee:    3070        p0      ADDS     r0,r0,#0x70
        0x0001bef0:    6310        .c      STR      r0,[r2,#0x30]
        0x0001bef2:    2600        .&      MOVS     r6,#0
        0x0001bef4:    736e        ns      STRB     r6,[r5,#0xd]
        0x0001bef6:    69a8        .i      LDR      r0,[r5,#0x18]
        0x0001bef8:    b388        ..      CBZ      r0,0x1bf5e ; am_hal_mspi_device_configure + 454
        0x0001befa:    2020                MOVS     r0,#0x20
        0x0001befc:    f8c20114    ....    STR      r0,[r2,#0x114]
        0x0001bf00:    7ae0        .z      LDRB     r0,[r4,#0xb]
        0x0001bf02:    2808        .(      CMP      r0,#8
        0x0001bf04:    d02c        ,.      BEQ      0x1bf60 ; am_hal_mspi_device_configure + 456
        0x0001bf06:    dc09        ..      BGT      0x1bf1c ; am_hal_mspi_device_configure + 388
        0x0001bf08:    2807        .(      CMP      r0,#7
        0x0001bf0a:    d20f        ..      BCS      0x1bf2c ; am_hal_mspi_device_configure + 404
        0x0001bf0c:    e000        ..      B        0x1bf10 ; am_hal_mspi_device_configure + 376
        0x0001bf0e:    e00d        ..      B        0x1bf2c ; am_hal_mspi_device_configure + 404
        0x0001bf10:    e8dff000    ....    TBB      [pc,r0]
    $d
        0x0001bf14:    260f0f0c    ...&    DCD    638521100
        0x0001bf18:    00260c26    &.&.    DCD    2493478
    $t
        0x0001bf1c:    280c        .(      CMP      r0,#0xc
        0x0001bf1e:    bf18        ..      IT       NE
        0x0001bf20:    2810        .(      CMPNE    r0,#0x10
        0x0001bf22:    d01d        ..      BEQ      0x1bf60 ; am_hal_mspi_device_configure + 456
        0x0001bf24:    2818        .(      CMP      r0,#0x18
        0x0001bf26:    bf18        ..      IT       NE
        0x0001bf28:    2820         (      CMPNE    r0,#0x20
        0x0001bf2a:    d019        ..      BEQ      0x1bf60 ; am_hal_mspi_device_configure + 456
        0x0001bf2c:    f04f0005    O...    MOV      r0,#5
        0x0001bf30:    bd70        p.      POP      {r4-r6,pc}
        0x0001bf32:    f8d20118    ....    LDR      r0,[r2,#0x118]
        0x0001bf36:    f020001f     ...    BIC      r0,r0,#0x1f
        0x0001bf3a:    f100000c    ....    ADD      r0,r0,#0xc
        0x0001bf3e:    f8c20118    ....    STR      r0,[r2,#0x118]
        0x0001bf42:    6a10        .j      LDR      r0,[r2,#0x20]
        0x0001bf44:    f420507c     .|P    BIC      r0,r0,#0x3f00
        0x0001bf48:    f50050f0    ...P    ADD      r0,r0,#0x1e00
        0x0001bf4c:    6210        .b      STR      r0,[r2,#0x20]
        0x0001bf4e:    f8d20118    ....    LDR      r0,[r2,#0x118]
        0x0001bf52:    f42050f8     ..P    BIC      r0,r0,#0x1f00
        0x0001bf56:    f5006000    ...`    ADD      r0,r0,#0x800
        0x0001bf5a:    f8c20118    ....    STR      r0,[r2,#0x118]
        0x0001bf5e:    e015        ..      B        0x1bf8c ; am_hal_mspi_device_configure + 500
        0x0001bf60:    f8d20118    ....    LDR      r0,[r2,#0x118]
        0x0001bf64:    f020001f     ...    BIC      r0,r0,#0x1f
        0x0001bf68:    f1000008    ....    ADD      r0,r0,#8
        0x0001bf6c:    f8c20118    ....    STR      r0,[r2,#0x118]
        0x0001bf70:    6a10        .j      LDR      r0,[r2,#0x20]
        0x0001bf72:    f420507c     .|P    BIC      r0,r0,#0x3f00
        0x0001bf76:    f50050f0    ...P    ADD      r0,r0,#0x1e00
        0x0001bf7a:    6210        .b      STR      r0,[r2,#0x20]
        0x0001bf7c:    f8d20118    ....    LDR      r0,[r2,#0x118]
        0x0001bf80:    f42050f8     ..P    BIC      r0,r0,#0x1f00
        0x0001bf84:    f5006000    ...`    ADD      r0,r0,#0x800
        0x0001bf88:    f8c20118    ....    STR      r0,[r2,#0x118]
        0x0001bf8c:    7a20         z      LDRB     r0,[r4,#8]
        0x0001bf8e:    72a8        .r      STRB     r0,[r5,#0xa]
        0x0001bf90:    4628        (F      MOV      r0,r5
        0x0001bf92:    f002fced    ....    BL       mspi_device_configure ; 0x1e970
        0x0001bf96:    736e        ns      STRB     r6,[r5,#0xd]
        0x0001bf98:    7ae0        .z      LDRB     r0,[r4,#0xb]
        0x0001bf9a:    7328        (s      STRB     r0,[r5,#0xc]
        0x0001bf9c:    f2427010    B..p    MOV      r0,#0x2710
        0x0001bfa0:    6128        (a      STR      r0,[r5,#0x10]
        0x0001bfa2:    2000        .       MOVS     r0,#0
        0x0001bfa4:    bd70        p.      POP      {r4-r6,pc}
    $d
        0x0001bfa6:    0000        ..      DCW    0
        0x0001bfa8:    00bebebe    ....    DCD    12500670
        0x0001bfac:    fc001f03    ....    DCD    4227866371
    $t
    i.am_hal_mspi_disable
    am_hal_mspi_disable
        0x0001bfb0:    b570        p.      PUSH     {r4-r6,lr}
        0x0001bfb2:    0004        ..      MOVS     r4,r0
        0x0001bfb4:    bf1c        ..      ITT      NE
        0x0001bfb6:    6820         h      LDRNE    r0,[r4,#0]
        0x0001bfb8:    f0107f80    ....    TSTNE    r0,#0x1000000
        0x0001bfbc:    d004        ..      BEQ      0x1bfc8 ; am_hal_mspi_disable + 24
        0x0001bfbe:    4a22        "J      LDR      r2,[pc,#136] ; [0x1c048] = 0xbebebe
        0x0001bfc0:    f020417f     ..A    BIC      r1,r0,#0xff000000
        0x0001bfc4:    4291        .B      CMP      r1,r2
        0x0001bfc6:    d001        ..      BEQ      0x1bfcc ; am_hal_mspi_disable + 28
        0x0001bfc8:    2002        .       MOVS     r0,#2
        0x0001bfca:    bd70        p.      POP      {r4-r6,pc}
        0x0001bfcc:    f0107000    ...p    ANDS     r0,r0,#0x2000000
        0x0001bfd0:    bf08        ..      IT       EQ
        0x0001bfd2:    bd70        p.      POPEQ    {r4-r6,pc}
        0x0001bfd4:    f8d40840    ..@.    LDR      r0,[r4,#0x840]
        0x0001bfd8:    2800        .(      CMP      r0,#0
        0x0001bfda:    bf07        ..      ITTEE    EQ
        0x0001bfdc:    6a20         j      LDREQ    r0,[r4,#0x20]
        0x0001bfde:    2800        .(      CMPEQ    r0,#0
        0x0001bfe0:    2003        .       MOVNE    r0,#3
        0x0001bfe2:    bd70        p.      POPNE    {r4-r6,pc}
        0x0001bfe4:    69a0        .i      LDR      r0,[r4,#0x18]
        0x0001bfe6:    b1b8        ..      CBZ      r0,0x1c018 ; am_hal_mspi_disable + 104
        0x0001bfe8:    f8d40828    ..(.    LDR      r0,[r4,#0x828]
        0x0001bfec:    f7fef8cc    ....    BL       am_hal_cmdq_disable ; 0x1a188
        0x0001bff0:    2800        .(      CMP      r0,#0
        0x0001bff2:    bf18        ..      IT       NE
        0x0001bff4:    bd70        p.      POPNE    {r4-r6,pc}
        0x0001bff6:    6860        `h      LDR      r0,[r4,#4]
        0x0001bff8:    eb001040    ..@.    ADD      r0,r0,r0,LSL #5
        0x0001bffc:    eb001100    ....    ADD      r1,r0,r0,LSL #4
        0x0001c000:    4812        .H      LDR      r0,[pc,#72] ; [0x1c04c] = 0x10003134
        0x0001c002:    eb000581    ....    ADD      r5,r0,r1,LSL #2
        0x0001c006:    f8d50828    ..(.    LDR      r0,[r5,#0x828]
        0x0001c00a:    b128        (.      CBZ      r0,0x1c018 ; am_hal_mspi_disable + 104
        0x0001c00c:    2101        .!      MOVS     r1,#1
        0x0001c00e:    f7fefac3    ....    BL       am_hal_cmdq_term ; 0x1a598
        0x0001c012:    2000        .       MOVS     r0,#0
        0x0001c014:    f8c50828    ..(.    STR      r0,[r5,#0x828]
        0x0001c018:    6820         h      LDR      r0,[r4,#0]
        0x0001c01a:    f0207000     ..p    BIC      r0,r0,#0x2000000
        0x0001c01e:    6020         `      STR      r0,[r4,#0]
        0x0001c020:    6860        `h      LDR      r0,[r4,#4]
        0x0001c022:    0300        ..      LSLS     r0,r0,#12
        0x0001c024:    f1004080    ...@    ADD      r0,r0,#0x40000000
        0x0001c028:    f50020c0    ...     ADD      r0,r0,#0x60000
        0x0001c02c:    f8d00090    ....    LDR      r0,[r0,#0x90]
        0x0001c030:    f0100f01    ....    TST      r0,#1
        0x0001c034:    d005        ..      BEQ      0x1c042 ; am_hal_mspi_disable + 146
        0x0001c036:    f04f0100    O...    MOV      r1,#0
        0x0001c03a:    f04f0001    O...    MOV      r0,#1
        0x0001c03e:    f7fefb3b    ..;.    BL       am_hal_daxi_control ; 0x1a6b8
        0x0001c042:    2000        .       MOVS     r0,#0
        0x0001c044:    bd70        p.      POP      {r4-r6,pc}
    $d
        0x0001c046:    0000        ..      DCW    0
        0x0001c048:    00bebebe    ....    DCD    12500670
        0x0001c04c:    10003134    41..    DCD    268448052
    $t
    i.am_hal_mspi_enable
    am_hal_mspi_enable
        0x0001c050:    b570        p.      PUSH     {r4-r6,lr}
        0x0001c052:    b084        ..      SUB      sp,sp,#0x10
        0x0001c054:    1e04        ..      SUBS     r4,r0,#0
        0x0001c056:    bf1c        ..      ITT      NE
        0x0001c058:    6820         h      LDRNE    r0,[r4,#0]
        0x0001c05a:    f0107f80    ....    TSTNE    r0,#0x1000000
        0x0001c05e:    d004        ..      BEQ      0x1c06a ; am_hal_mspi_enable + 26
        0x0001c060:    4925        %I      LDR      r1,[pc,#148] ; [0x1c0f8] = 0xbebebe
        0x0001c062:    f020407f     ..@    BIC      r0,r0,#0xff000000
        0x0001c066:    4288        .B      CMP      r0,r1
        0x0001c068:    d002        ..      BEQ      0x1c070 ; am_hal_mspi_enable + 32
        0x0001c06a:    b004        ..      ADD      sp,sp,#0x10
        0x0001c06c:    2002        .       MOVS     r0,#2
        0x0001c06e:    bd70        p.      POP      {r4-r6,pc}
        0x0001c070:    7a20         z      LDRB     r0,[r4,#8]
        0x0001c072:    2800        .(      CMP      r0,#0
        0x0001c074:    bf02        ..      ITTT     EQ
        0x0001c076:    2007        .       MOVEQ    r0,#7
        0x0001c078:    b004        ..      ADDEQ    sp,sp,#0x10
        0x0001c07a:    bd70        p.      POPEQ    {r4-r6,pc}
        0x0001c07c:    69a0        .i      LDR      r0,[r4,#0x18]
        0x0001c07e:    b3a0        ..      CBZ      r0,0x1c0ea ; am_hal_mspi_enable + 154
        0x0001c080:    2500        .%      MOVS     r5,#0
        0x0001c082:    61e5        .a      STR      r5,[r4,#0x1c]
        0x0001c084:    6225        %b      STR      r5,[r4,#0x20]
        0x0001c086:    e9d41205    ....    LDRD     r1,r2,[r4,#0x14]
        0x0001c08a:    6860        `h      LDR      r0,[r4,#4]
        0x0001c08c:    0849        I.      LSRS     r1,r1,#1
        0x0001c08e:    e9cd1200    ....    STRD     r1,r2,[sp,#0]
        0x0001c092:    eb001140    ..@.    ADD      r1,r0,r0,LSL #5
        0x0001c096:    4a19        .J      LDR      r2,[pc,#100] ; [0x1c0fc] = 0x10003134
        0x0001c098:    eb011101    ....    ADD      r1,r1,r1,LSL #4
        0x0001c09c:    eb020181    ....    ADD      r1,r2,r1,LSL #2
        0x0001c0a0:    2601        .&      MOVS     r6,#1
        0x0001c0a2:    f6010228    ..(.    ADD      r2,r1,#0x828
        0x0001c0a6:    3008        .0      ADDS     r0,r0,#8
        0x0001c0a8:    f88d6008    ...`    STRB     r6,[sp,#8]
        0x0001c0ac:    b2c0        ..      UXTB     r0,r0
        0x0001c0ae:    4669        iF      MOV      r1,sp
        0x0001c0b0:    f7fef942    ..B.    BL       am_hal_cmdq_init ; 0x1a338
        0x0001c0b4:    6861        ah      LDR      r1,[r4,#4]
        0x0001c0b6:    4812        .H      LDR      r0,[pc,#72] ; [0x1c100] = 0x400080
        0x0001c0b8:    0309        ..      LSLS     r1,r1,#12
        0x0001c0ba:    f1014180    ...A    ADD      r1,r1,#0x40000000
        0x0001c0be:    f50121c0    ...!    ADD      r1,r1,#0x60000
        0x0001c0c2:    f8c102b4    ....    STR      r0,[r1,#0x2b4]
        0x0001c0c6:    f8c45854    ..TX    STR      r5,[r4,#0x854]
        0x0001c0ca:    f884583c    ..<X    STRB     r5,[r4,#0x83c]
        0x0001c0ce:    f8c45844    ..DX    STR      r5,[r4,#0x844]
        0x0001c0d2:    f8c45838    ..8X    STR      r5,[r4,#0x838]
        0x0001c0d6:    f8c45840    ..@X    STR      r5,[r4,#0x840]
        0x0001c0da:    f884582c    ..,X    STRB     r5,[r4,#0x82c]
        0x0001c0de:    f8c45830    ..0X    STR      r5,[r4,#0x830]
        0x0001c0e2:    f884682d    ..-h    STRB     r6,[r4,#0x82d]
        0x0001c0e6:    f8c4585c    ..\X    STR      r5,[r4,#0x85c]
        0x0001c0ea:    6820         h      LDR      r0,[r4,#0]
        0x0001c0ec:    f0407000    @..p    ORR      r0,r0,#0x2000000
        0x0001c0f0:    6020         `      STR      r0,[r4,#0]
        0x0001c0f2:    b004        ..      ADD      sp,sp,#0x10
        0x0001c0f4:    2000        .       MOVS     r0,#0
        0x0001c0f6:    bd70        p.      POP      {r4-r6,pc}
    $d
        0x0001c0f8:    00bebebe    ....    DCD    12500670
        0x0001c0fc:    10003134    41..    DCD    268448052
        0x0001c100:    00400080    ..@.    DCD    4194432
    $t
    i.am_hal_mspi_initialize
    am_hal_mspi_initialize
        0x0001c104:    2803        .(      CMP      r0,#3
        0x0001c106:    bf24        $.      ITT      CS
        0x0001c108:    2005        .       MOVCS    r0,#5
        0x0001c10a:    4770        pG      BXCS     lr
        0x0001c10c:    2900        .)      CMP      r1,#0
        0x0001c10e:    bf04        ..      ITT      EQ
        0x0001c110:    2006        .       MOVEQ    r0,#6
        0x0001c112:    4770        pG      BXEQ     lr
        0x0001c114:    b410        ..      PUSH     {r4}
        0x0001c116:    eb001240    ..@.    ADD      r2,r0,r0,LSL #5
        0x0001c11a:    eb021302    ....    ADD      r3,r2,r2,LSL #4
        0x0001c11e:    4a0c        .J      LDR      r2,[pc,#48] ; [0x1c150] = 0x10003134
        0x0001c120:    f852c023    R.#.    LDR      r12,[r2,r3,LSL #2]
        0x0001c124:    f01c7f80    ....    TST      r12,#0x1000000
        0x0001c128:    bf1e        ..      ITTT     NE
        0x0001c12a:    2007        .       MOVNE    r0,#7
        0x0001c12c:    bc10        ..      POPNE    {r4}
        0x0001c12e:    4770        pG      BXNE     lr
        0x0001c130:    f04c7c80    L..|    ORR      r12,r12,#0x1000000
        0x0001c134:    4c07        .L      LDR      r4,[pc,#28] ; [0x1c154] = 0xbebebe
        0x0001c136:    f3640c17    d...    BFI      r12,r4,#0,#24
        0x0001c13a:    f842c023    B.#.    STR      r12,[r2,r3,LSL #2]
        0x0001c13e:    eb020283    ....    ADD      r2,r2,r3,LSL #2
        0x0001c142:    6050        P`      STR      r0,[r2,#4]
        0x0001c144:    2000        .       MOVS     r0,#0
        0x0001c146:    7310        .s      STRB     r0,[r2,#0xc]
        0x0001c148:    6190        .a      STR      r0,[r2,#0x18]
        0x0001c14a:    600a        .`      STR      r2,[r1,#0]
        0x0001c14c:    bc10        ..      POP      {r4}
        0x0001c14e:    4770        pG      BX       lr
    $d
        0x0001c150:    10003134    41..    DCD    268448052
        0x0001c154:    00bebebe    ....    DCD    12500670
    $t
    i.am_hal_mspi_interrupt_clear
    am_hal_mspi_interrupt_clear
        0x0001c158:    2800        .(      CMP      r0,#0
        0x0001c15a:    bf1c        ..      ITT      NE
        0x0001c15c:    6802        .h      LDRNE    r2,[r0,#0]
        0x0001c15e:    f0127f80    ....    TSTNE    r2,#0x1000000
        0x0001c162:    d004        ..      BEQ      0x1c16e ; am_hal_mspi_interrupt_clear + 22
        0x0001c164:    4b08        .K      LDR      r3,[pc,#32] ; [0x1c188] = 0xbebebe
        0x0001c166:    f022427f    "..B    BIC      r2,r2,#0xff000000
        0x0001c16a:    429a        .B      CMP      r2,r3
        0x0001c16c:    d001        ..      BEQ      0x1c172 ; am_hal_mspi_interrupt_clear + 26
        0x0001c16e:    2002        .       MOVS     r0,#2
        0x0001c170:    4770        pG      BX       lr
        0x0001c172:    6840        @h      LDR      r0,[r0,#4]
        0x0001c174:    0300        ..      LSLS     r0,r0,#12
        0x0001c176:    f1004080    ...@    ADD      r0,r0,#0x40000000
        0x0001c17a:    f50020c0    ...     ADD      r0,r0,#0x60000
        0x0001c17e:    f8c01208    ....    STR      r1,[r0,#0x208]
        0x0001c182:    2000        .       MOVS     r0,#0
        0x0001c184:    4770        pG      BX       lr
    $d
        0x0001c186:    0000        ..      DCW    0
        0x0001c188:    00bebebe    ....    DCD    12500670
    $t
    i.am_hal_mspi_interrupt_disable
    am_hal_mspi_interrupt_disable
        0x0001c18c:    2800        .(      CMP      r0,#0
        0x0001c18e:    bf1c        ..      ITT      NE
        0x0001c190:    6802        .h      LDRNE    r2,[r0,#0]
        0x0001c192:    f0127f80    ....    TSTNE    r2,#0x1000000
        0x0001c196:    d004        ..      BEQ      0x1c1a2 ; am_hal_mspi_interrupt_disable + 22
        0x0001c198:    4b0a        .K      LDR      r3,[pc,#40] ; [0x1c1c4] = 0xbebebe
        0x0001c19a:    f022427f    "..B    BIC      r2,r2,#0xff000000
        0x0001c19e:    429a        .B      CMP      r2,r3
        0x0001c1a0:    d001        ..      BEQ      0x1c1a6 ; am_hal_mspi_interrupt_disable + 26
        0x0001c1a2:    2002        .       MOVS     r0,#2
        0x0001c1a4:    4770        pG      BX       lr
        0x0001c1a6:    6840        @h      LDR      r0,[r0,#4]
        0x0001c1a8:    0300        ..      LSLS     r0,r0,#12
        0x0001c1aa:    f1004080    ...@    ADD      r0,r0,#0x40000000
        0x0001c1ae:    f50020c0    ...     ADD      r0,r0,#0x60000
        0x0001c1b2:    f8d02200    ..."    LDR      r2,[r0,#0x200]
        0x0001c1b6:    ea220101    "...    BIC      r1,r2,r1
        0x0001c1ba:    f8c01200    ....    STR      r1,[r0,#0x200]
        0x0001c1be:    2000        .       MOVS     r0,#0
        0x0001c1c0:    4770        pG      BX       lr
    $d
        0x0001c1c2:    0000        ..      DCW    0
        0x0001c1c4:    00bebebe    ....    DCD    12500670
    $t
    i.am_hal_mspi_interrupt_enable
    am_hal_mspi_interrupt_enable
        0x0001c1c8:    2800        .(      CMP      r0,#0
        0x0001c1ca:    bf1c        ..      ITT      NE
        0x0001c1cc:    6802        .h      LDRNE    r2,[r0,#0]
        0x0001c1ce:    f0127f80    ....    TSTNE    r2,#0x1000000
        0x0001c1d2:    d004        ..      BEQ      0x1c1de ; am_hal_mspi_interrupt_enable + 22
        0x0001c1d4:    4b09        .K      LDR      r3,[pc,#36] ; [0x1c1fc] = 0xbebebe
        0x0001c1d6:    f022427f    "..B    BIC      r2,r2,#0xff000000
        0x0001c1da:    429a        .B      CMP      r2,r3
        0x0001c1dc:    d001        ..      BEQ      0x1c1e2 ; am_hal_mspi_interrupt_enable + 26
        0x0001c1de:    2002        .       MOVS     r0,#2
        0x0001c1e0:    4770        pG      BX       lr
        0x0001c1e2:    6840        @h      LDR      r0,[r0,#4]
        0x0001c1e4:    0300        ..      LSLS     r0,r0,#12
        0x0001c1e6:    f1004080    ...@    ADD      r0,r0,#0x40000000
        0x0001c1ea:    f50020c0    ...     ADD      r0,r0,#0x60000
        0x0001c1ee:    f8d02200    ..."    LDR      r2,[r0,#0x200]
        0x0001c1f2:    4311        .C      ORRS     r1,r1,r2
        0x0001c1f4:    f8c01200    ....    STR      r1,[r0,#0x200]
        0x0001c1f8:    2000        .       MOVS     r0,#0
        0x0001c1fa:    4770        pG      BX       lr
    $d
        0x0001c1fc:    00bebebe    ....    DCD    12500670
    $t
    i.am_hal_mspi_interrupt_service
    am_hal_mspi_interrupt_service
        0x0001c200:    e92d43f0    -..C    PUSH     {r4-r9,lr}
        0x0001c204:    b085        ..      SUB      sp,sp,#0x14
        0x0001c206:    4688        .F      MOV      r8,r1
        0x0001c208:    0004        ..      MOVS     r4,r0
        0x0001c20a:    bf1c        ..      ITT      NE
        0x0001c20c:    6820         h      LDRNE    r0,[r4,#0]
        0x0001c20e:    f0107f80    ....    TSTNE    r0,#0x1000000
        0x0001c212:    d004        ..      BEQ      0x1c21e ; am_hal_mspi_interrupt_service + 30
        0x0001c214:    49a8        .I      LDR      r1,[pc,#672] ; [0x1c4b8] = 0xbebebe
        0x0001c216:    f020407f     ..@    BIC      r0,r0,#0xff000000
        0x0001c21a:    4288        .B      CMP      r0,r1
        0x0001c21c:    d003        ..      BEQ      0x1c226 ; am_hal_mspi_interrupt_service + 38
        0x0001c21e:    b005        ..      ADD      sp,sp,#0x14
        0x0001c220:    2002        .       MOVS     r0,#2
        0x0001c222:    e8bd83f0    ....    POP      {r4-r9,pc}
        0x0001c226:    f894083c    ..<.    LDRB     r0,[r4,#0x83c]
        0x0001c22a:    6865        eh      LDR      r5,[r4,#4]
        0x0001c22c:    2600        .&      MOVS     r6,#0
        0x0001c22e:    2800        .(      CMP      r0,#0
        0x0001c230:    d07e        ~.      BEQ      0x1c330 ; am_hal_mspi_interrupt_service + 304
        0x0001c232:    6a60        `j      LDR      r0,[r4,#0x24]
        0x0001c234:    ea400108    @...    ORR      r1,r0,r8
        0x0001c238:    f4115fc6    ..._    TST      r1,#0x18c0
        0x0001c23c:    6261        ab      STR      r1,[r4,#0x24]
        0x0001c23e:    bf1e        ..      ITTT     NE
        0x0001c240:    0328        (.      LSLNE    r0,r5,#12
        0x0001c242:    f1004280    ...B    ADDNE    r2,r0,#0x40000000
        0x0001c246:    f50222c0    ..."    ADDNE    r2,r2,#0x60000
        0x0001c24a:    f0008131    ..1.    BEQ.W    0x1c4b0 ; am_hal_mspi_interrupt_service + 688
        0x0001c24e:    bf00        ..      NOP      
        0x0001c250:    f8d20104    ....    LDR      r0,[r2,#0x104]
        0x0001c254:    f0100f01    ....    TST      r0,#1
        0x0001c258:    d1fa        ..      BNE      0x1c250 ; am_hal_mspi_interrupt_service + 80
        0x0001c25a:    0328        (.      LSLS     r0,r5,#12
        0x0001c25c:    f1004580    ...E    ADD      r5,r0,#0x40000000
        0x0001c260:    f50525c0    ...%    ADD      r5,r5,#0x60000
        0x0001c264:    f8d50204    ....    LDR      r0,[r5,#0x204]
        0x0001c268:    4308        .C      ORRS     r0,r0,r1
        0x0001c26a:    6260        `b      STR      r0,[r4,#0x24]
        0x0001c26c:    f04f30ff    O..0    MOV      r0,#0xffffffff
        0x0001c270:    f8c50208    ....    STR      r0,[r5,#0x208]
        0x0001c274:    8ca0        ..      LDRH     r0,[r4,#0x24]
        0x0001c276:    f4105fc4    ..._    TST      r0,#0x1880
        0x0001c27a:    bf08        ..      IT       EQ
        0x0001c27c:    f04f0800    O...    MOVEQ    r8,#0
        0x0001c280:    d00f        ..      BEQ      0x1c2a2 ; am_hal_mspi_interrupt_service + 162
        0x0001c282:    f8d50100    ....    LDR      r0,[r5,#0x100]
        0x0001c286:    f04f0801    O...    MOV      r8,#1
        0x0001c28a:    f0200003     ...    BIC      r0,r0,#3
        0x0001c28e:    f8c50100    ....    STR      r0,[r5,#0x100]
        0x0001c292:    6b28        (k      LDR      r0,[r5,#0x30]
        0x0001c294:    f0204080     ..@    BIC      r0,r0,#0x40000000
        0x0001c298:    6328        (c      STR      r0,[r5,#0x30]
        0x0001c29a:    6b28        (k      LDR      r0,[r5,#0x30]
        0x0001c29c:    f0404080    @..@    ORR      r0,r0,#0x40000000
        0x0001c2a0:    6328        (c      STR      r0,[r5,#0x30]
        0x0001c2a2:    f8d40850    ..P.    LDR      r0,[r4,#0x850]
        0x0001c2a6:    1c40        @.      ADDS     r0,r0,#1
        0x0001c2a8:    f8c40850    ..P.    STR      r0,[r4,#0x850]
        0x0001c2ac:    f8d41840    ..@.    LDR      r1,[r4,#0x840]
        0x0001c2b0:    1e49        I.      SUBS     r1,r1,#1
        0x0001c2b2:    f8c41840    ..@.    STR      r1,[r4,#0x840]
        0x0001c2b6:    f8d41848    ..H.    LDR      r1,[r4,#0x848]
        0x0001c2ba:    fbb0f2f1    ....    UDIV     r2,r0,r1
        0x0001c2be:    fb010012    ....    MLS      r0,r1,r2,r0
        0x0001c2c2:    f8d41854    ..T.    LDR      r1,[r4,#0x854]
        0x0001c2c6:    eb000040    ..@.    ADD      r0,r0,r0,LSL #1
        0x0001c2ca:    eb0107c0    ....    ADD      r7,r1,r0,LSL #3
        0x0001c2ce:    6938        8i      LDR      r0,[r7,#0x10]
        0x0001c2d0:    b140        @.      CBZ      r0,0x1c2e4 ; am_hal_mspi_interrupt_service + 228
        0x0001c2d2:    2100        .!      MOVS     r1,#0
        0x0001c2d4:    4608        .F      MOV      r0,r1
        0x0001c2d6:    f7fef9ef    ....    BL       am_hal_daxi_control ; 0x1a6b8
        0x0001c2da:    e9d72004    ...     LDRD     r2,r0,[r7,#0x10]
        0x0001c2de:    4641        AF      MOV      r1,r8
        0x0001c2e0:    4790        .G      BLX      r2
        0x0001c2e2:    613e        >a      STR      r6,[r7,#0x10]
        0x0001c2e4:    f8d40840    ..@.    LDR      r0,[r4,#0x840]
        0x0001c2e8:    b318        ..      CBZ      r0,0x1c332 ; am_hal_mspi_interrupt_service + 306
        0x0001c2ea:    6266        fb      STR      r6,[r4,#0x24]
        0x0001c2ec:    f8d41850    ..P.    LDR      r1,[r4,#0x850]
        0x0001c2f0:    f8d42848    ..H(    LDR      r2,[r4,#0x848]
        0x0001c2f4:    1c49        I.      ADDS     r1,r1,#1
        0x0001c2f6:    fbb1f3f2    ....    UDIV     r3,r1,r2
        0x0001c2fa:    6860        `h      LDR      r0,[r4,#4]
        0x0001c2fc:    fb021113    ....    MLS      r1,r2,r3,r1
        0x0001c300:    0300        ..      LSLS     r0,r0,#12
        0x0001c302:    f1004080    ...@    ADD      r0,r0,#0x40000000
        0x0001c306:    f8d42854    ..T(    LDR      r2,[r4,#0x854]
        0x0001c30a:    f50020c0    ...     ADD      r0,r0,#0x60000
        0x0001c30e:    eb010141    ..A.    ADD      r1,r1,r1,LSL #1
        0x0001c312:    eb0201c1    ....    ADD      r1,r2,r1,LSL #3
        0x0001c316:    f8c06100    ...a    STR      r6,[r0,#0x100]
        0x0001c31a:    680a        .h      LDR      r2,[r1,#0]
        0x0001c31c:    f8c02108    ...!    STR      r2,[r0,#0x108]
        0x0001c320:    684a        Jh      LDR      r2,[r1,#4]
        0x0001c322:    f8c0210c    ...!    STR      r2,[r0,#0x10c]
        0x0001c326:    688a        .h      LDR      r2,[r1,#8]
        0x0001c328:    f8c02110    ...!    STR      r2,[r0,#0x110]
        0x0001c32c:    68c9        .h      LDR      r1,[r1,#0xc]
        0x0001c32e:    e0bd        ..      B        0x1c4ac ; am_hal_mspi_interrupt_service + 684
        0x0001c330:    e00d        ..      B        0x1c34e ; am_hal_mspi_interrupt_service + 334
        0x0001c332:    f884683c    ..<h    STRB     r6,[r4,#0x83c]
        0x0001c336:    f8c56100    ...a    STR      r6,[r5,#0x100]
        0x0001c33a:    f8d50200    ....    LDR      r0,[r5,#0x200]
        0x0001c33e:    f0200040     .@.    BIC      r0,r0,#0x40
        0x0001c342:    f8c50200    ....    STR      r0,[r5,#0x200]
        0x0001c346:    2080        .       MOVS     r0,#0x80
        0x0001c348:    f8c502b4    ....    STR      r0,[r5,#0x2b4]
        0x0001c34c:    e0b0        ..      B        0x1c4b0 ; am_hal_mspi_interrupt_service + 688
        0x0001c34e:    6a20         j      LDR      r0,[r4,#0x20]
        0x0001c350:    2800        .(      CMP      r0,#0
        0x0001c352:    d07d        }.      BEQ      0x1c450 ; am_hal_mspi_interrupt_service + 592
        0x0001c354:    eb051045    ..E.    ADD      r0,r5,r5,LSL #5
        0x0001c358:    4958        XI      LDR      r1,[pc,#352] ; [0x1c4bc] = 0x10003134
        0x0001c35a:    eb001000    ....    ADD      r0,r0,r0,LSL #4
        0x0001c35e:    eb010780    ....    ADD      r7,r1,r0,LSL #2
        0x0001c362:    6a60        `j      LDR      r0,[r4,#0x24]
        0x0001c364:    ea400008    @...    ORR      r0,r0,r8
        0x0001c368:    6260        `b      STR      r0,[r4,#0x24]
        0x0001c36a:    f8d70828    ..(.    LDR      r0,[r7,#0x828]
        0x0001c36e:    f6070728    ..(.    ADD      r7,r7,#0x828
        0x0001c372:    2800        .(      CMP      r0,#0
        0x0001c374:    d06c        l.      BEQ      0x1c450 ; am_hal_mspi_interrupt_service + 592
        0x0001c376:    4669        iF      MOV      r1,sp
        0x0001c378:    f7fdff8c    ....    BL       am_hal_cmdq_get_status ; 0x1a294
        0x0001c37c:    2800        .(      CMP      r0,#0
        0x0001c37e:    bf08        ..      IT       EQ
        0x0001c380:    f8846834    ..4h    STRBEQ   r6,[r4,#0x834]
        0x0001c384:    d01b        ..      BEQ      0x1c3be ; am_hal_mspi_interrupt_service + 446
        0x0001c386:    e086        ..      B        0x1c496 ; am_hal_mspi_interrupt_service + 662
        0x0001c388:    1c40        @.      ADDS     r0,r0,#1
        0x0001c38a:    61e0        .a      STR      r0,[r4,#0x1c]
        0x0001c38c:    6a21        !j      LDR      r1,[r4,#0x20]
        0x0001c38e:    b2c0        ..      UXTB     r0,r0
        0x0001c390:    1e49        I.      SUBS     r1,r1,#1
        0x0001c392:    eb040980    ....    ADD      r9,r4,r0,LSL #2
        0x0001c396:    6221        !b      STR      r1,[r4,#0x20]
        0x0001c398:    f8d90028    ..(.    LDR      r0,[r9,#0x28]
        0x0001c39c:    b178        x.      CBZ      r0,0x1c3be ; am_hal_mspi_interrupt_service + 446
        0x0001c39e:    2100        .!      MOVS     r1,#0
        0x0001c3a0:    4608        .F      MOV      r0,r1
        0x0001c3a2:    f7fef989    ....    BL       am_hal_daxi_control ; 0x1a6b8
        0x0001c3a6:    f8d92028    ..(     LDR      r2,[r9,#0x28]
        0x0001c3aa:    2100        .!      MOVS     r1,#0
        0x0001c3ac:    f8d90428    ..(.    LDR      r0,[r9,#0x428]
        0x0001c3b0:    4790        .G      BLX      r2
        0x0001c3b2:    f894082c    ..,.    LDRB     r0,[r4,#0x82c]
        0x0001c3b6:    2802        .(      CMP      r0,#2
        0x0001c3b8:    bf18        ..      IT       NE
        0x0001c3ba:    f8c96028    ..(`    STRNE    r6,[r9,#0x28]
        0x0001c3be:    f8940834    ..4.    LDRB     r0,[r4,#0x834]
        0x0001c3c2:    b918        ..      CBNZ     r0,0x1c3cc ; am_hal_mspi_interrupt_service + 460
        0x0001c3c4:    69e0        .i      LDR      r0,[r4,#0x1c]
        0x0001c3c6:    9900        ..      LDR      r1,[sp,#0]
        0x0001c3c8:    4288        .B      CMP      r0,r1
        0x0001c3ca:    d1dd        ..      BNE      0x1c388 ; am_hal_mspi_interrupt_service + 392
        0x0001c3cc:    f8940834    ..4.    LDRB     r0,[r4,#0x834]
        0x0001c3d0:    2800        .(      CMP      r0,#0
        0x0001c3d2:    d160        `.      BNE      0x1c496 ; am_hal_mspi_interrupt_service + 662
        0x0001c3d4:    f4185fc4    ..._    TST      r8,#0x1880
        0x0001c3d8:    bf04        ..      ITT      EQ
        0x0001c3da:    f89d000e    ....    LDRBEQ   r0,[sp,#0xe]
        0x0001c3de:    2800        .(      CMPEQ    r0,#0
        0x0001c3e0:    d04e        N.      BEQ      0x1c480 ; am_hal_mspi_interrupt_service + 640
        0x0001c3e2:    69e0        .i      LDR      r0,[r4,#0x1c]
        0x0001c3e4:    f1000001    ....    ADD      r0,r0,#1
        0x0001c3e8:    61e0        .a      STR      r0,[r4,#0x1c]
        0x0001c3ea:    6a21        !j      LDR      r1,[r4,#0x20]
        0x0001c3ec:    b2c0        ..      UXTB     r0,r0
        0x0001c3ee:    f1a10101    ....    SUB      r1,r1,#1
        0x0001c3f2:    eb040880    ....    ADD      r8,r4,r0,LSL #2
        0x0001c3f6:    6221        !b      STR      r1,[r4,#0x20]
        0x0001c3f8:    f8d80028    ..(.    LDR      r0,[r8,#0x28]
        0x0001c3fc:    b180        ..      CBZ      r0,0x1c420 ; am_hal_mspi_interrupt_service + 544
        0x0001c3fe:    f04f0100    O...    MOV      r1,#0
        0x0001c402:    4608        .F      MOV      r0,r1
        0x0001c404:    f7fef958    ..X.    BL       am_hal_daxi_control ; 0x1a6b8
        0x0001c408:    f8d82028    ..(     LDR      r2,[r8,#0x28]
        0x0001c40c:    2101        .!      MOVS     r1,#1
        0x0001c40e:    f8d80428    ..(.    LDR      r0,[r8,#0x428]
        0x0001c412:    4790        .G      BLX      r2
        0x0001c414:    f894082c    ..,.    LDRB     r0,[r4,#0x82c]
        0x0001c418:    2802        .(      CMP      r0,#2
        0x0001c41a:    bf18        ..      IT       NE
        0x0001c41c:    f8c86028    ..(`    STRNE    r6,[r8,#0x28]
        0x0001c420:    f8d40828    ..(.    LDR      r0,[r4,#0x828]
        0x0001c424:    f7fdfeb0    ....    BL       am_hal_cmdq_disable ; 0x1a188
        0x0001c428:    2800        .(      CMP      r0,#0
        0x0001c42a:    bf1c        ..      ITT      NE
        0x0001c42c:    b005        ..      ADDNE    sp,sp,#0x14
        0x0001c42e:    e8bd83f0    ....    POPNE    {r4-r9,pc}
        0x0001c432:    0328        (.      LSLS     r0,r5,#12
        0x0001c434:    f1004080    ...@    ADD      r0,r0,#0x40000000
        0x0001c438:    f50020c0    ...     ADD      r0,r0,#0x60000
        0x0001c43c:    f8d01100    ....    LDR      r1,[r0,#0x100]
        0x0001c440:    f0210103    !...    BIC      r1,r1,#3
        0x0001c444:    f8c01100    ....    STR      r1,[r0,#0x100]
        0x0001c448:    6b01        .k      LDR      r1,[r0,#0x30]
        0x0001c44a:    f0214180    !..A    BIC      r1,r1,#0x40000000
        0x0001c44e:    e000        ..      B        0x1c452 ; am_hal_mspi_interrupt_service + 594
        0x0001c450:    e02e        ..      B        0x1c4b0 ; am_hal_mspi_interrupt_service + 688
        0x0001c452:    6301        .c      STR      r1,[r0,#0x30]
        0x0001c454:    6b01        .k      LDR      r1,[r0,#0x30]
        0x0001c456:    f0414180    A..A    ORR      r1,r1,#0x40000000
        0x0001c45a:    6301        .c      STR      r1,[r0,#0x30]
        0x0001c45c:    f8d012ac    ....    LDR      r1,[r0,#0x2ac]
        0x0001c460:    f8c012ac    ....    STR      r1,[r0,#0x2ac]
        0x0001c464:    6838        8h      LDR      r0,[r7,#0]
        0x0001c466:    f7fdfedb    ....    BL       am_hal_cmdq_error_resume ; 0x1a220
        0x0001c46a:    6a20         j      LDR      r0,[r4,#0x20]
        0x0001c46c:    b150        P.      CBZ      r0,0x1c484 ; am_hal_mspi_interrupt_service + 644
        0x0001c46e:    f8d40828    ..(.    LDR      r0,[r4,#0x828]
        0x0001c472:    f7fdfea9    ....    BL       am_hal_cmdq_enable ; 0x1a1c8
        0x0001c476:    2800        .(      CMP      r0,#0
        0x0001c478:    bf1c        ..      ITT      NE
        0x0001c47a:    b005        ..      ADDNE    sp,sp,#0x14
        0x0001c47c:    e8bd83f0    ....    POPNE    {r4-r9,pc}
        0x0001c480:    6a20         j      LDR      r0,[r4,#0x20]
        0x0001c482:    b9a8        ..      CBNZ     r0,0x1c4b0 ; am_hal_mspi_interrupt_service + 688
        0x0001c484:    f8d40828    ..(.    LDR      r0,[r4,#0x828]
        0x0001c488:    f7fdfe7e    ..~.    BL       am_hal_cmdq_disable ; 0x1a188
        0x0001c48c:    2800        .(      CMP      r0,#0
        0x0001c48e:    bf1c        ..      ITT      NE
        0x0001c490:    b005        ..      ADDNE    sp,sp,#0x14
        0x0001c492:    e8bd83f0    ....    POPNE    {r4-r9,pc}
        0x0001c496:    6a20         j      LDR      r0,[r4,#0x20]
        0x0001c498:    b950        P.      CBNZ     r0,0x1c4b0 ; am_hal_mspi_interrupt_service + 688
        0x0001c49a:    0328        (.      LSLS     r0,r5,#12
        0x0001c49c:    f1004080    ...@    ADD      r0,r0,#0x40000000
        0x0001c4a0:    f50020c0    ...     ADD      r0,r0,#0x60000
        0x0001c4a4:    f8d01100    ....    LDR      r1,[r0,#0x100]
        0x0001c4a8:    f0210103    !...    BIC      r1,r1,#3
        0x0001c4ac:    f8c01100    ....    STR      r1,[r0,#0x100]
        0x0001c4b0:    b005        ..      ADD      sp,sp,#0x14
        0x0001c4b2:    2000        .       MOVS     r0,#0
        0x0001c4b4:    e8bd83f0    ....    POP      {r4-r9,pc}
    $d
        0x0001c4b8:    00bebebe    ....    DCD    12500670
        0x0001c4bc:    10003134    41..    DCD    268448052
    $t
    i.am_hal_mspi_interrupt_status_get
    am_hal_mspi_interrupt_status_get
        0x0001c4c0:    2800        .(      CMP      r0,#0
        0x0001c4c2:    bf1c        ..      ITT      NE
        0x0001c4c4:    6803        .h      LDRNE    r3,[r0,#0]
        0x0001c4c6:    f0137f80    ....    TSTNE    r3,#0x1000000
        0x0001c4ca:    d005        ..      BEQ      0x1c4d8 ; am_hal_mspi_interrupt_status_get + 24
        0x0001c4cc:    f8dfc034    ..4.    LDR      r12,[pc,#52] ; [0x1c504] = 0xbebebe
        0x0001c4d0:    f023437f    #..C    BIC      r3,r3,#0xff000000
        0x0001c4d4:    4563        cE      CMP      r3,r12
        0x0001c4d6:    d001        ..      BEQ      0x1c4dc ; am_hal_mspi_interrupt_status_get + 28
        0x0001c4d8:    2002        .       MOVS     r0,#2
        0x0001c4da:    4770        pG      BX       lr
        0x0001c4dc:    6840        @h      LDR      r0,[r0,#4]
        0x0001c4de:    2a00        .*      CMP      r2,#0
        0x0001c4e0:    ea4f3000    O..0    LSL      r0,r0,#12
        0x0001c4e4:    f1004080    ...@    ADD      r0,r0,#0x40000000
        0x0001c4e8:    f50020c0    ...     ADD      r0,r0,#0x60000
        0x0001c4ec:    bf1d        ..      ITTTE    NE
        0x0001c4ee:    f8d02204    ..."    LDRNE    r2,[r0,#0x204]
        0x0001c4f2:    f8d00200    ....    LDRNE    r0,[r0,#0x200]
        0x0001c4f6:    4010        .@      ANDNE    r0,r0,r2
        0x0001c4f8:    f8d00204    ....    LDREQ    r0,[r0,#0x204]
        0x0001c4fc:    6008        .`      STR      r0,[r1,#0]
        0x0001c4fe:    2000        .       MOVS     r0,#0
        0x0001c500:    4770        pG      BX       lr
    $d
        0x0001c502:    0000        ..      DCW    0
        0x0001c504:    00bebebe    ....    DCD    12500670
    $t
    i.am_hal_mspi_nonblocking_transfer
    am_hal_mspi_nonblocking_transfer
        0x0001c508:    e92d4ff0    -..O    PUSH     {r4-r11,lr}
        0x0001c50c:    b083        ..      SUB      sp,sp,#0xc
        0x0001c50e:    4698        .F      MOV      r8,r3
        0x0001c510:    f8ddb030    ..0.    LDR      r11,[sp,#0x30]
        0x0001c514:    0004        ..      MOVS     r4,r0
        0x0001c516:    bf1c        ..      ITT      NE
        0x0001c518:    6820         h      LDRNE    r0,[r4,#0]
        0x0001c51a:    f0107f80    ....    TSTNE    r0,#0x1000000
        0x0001c51e:    d004        ..      BEQ      0x1c52a ; am_hal_mspi_nonblocking_transfer + 34
        0x0001c520:    4b56        VK      LDR      r3,[pc,#344] ; [0x1c67c] = 0xbebebe
        0x0001c522:    f020407f     ..@    BIC      r0,r0,#0xff000000
        0x0001c526:    4298        .B      CMP      r0,r3
        0x0001c528:    d003        ..      BEQ      0x1c532 ; am_hal_mspi_nonblocking_transfer + 42
        0x0001c52a:    b003        ..      ADD      sp,sp,#0xc
        0x0001c52c:    2002        .       MOVS     r0,#2
        0x0001c52e:    e8bd8ff0    ....    POP      {r4-r11,pc}
        0x0001c532:    69a0        .i      LDR      r0,[r4,#0x18]
        0x0001c534:    2800        .(      CMP      r0,#0
        0x0001c536:    bf1c        ..      ITT      NE
        0x0001c538:    f894082c    ..,.    LDRBNE   r0,[r4,#0x82c]
        0x0001c53c:    2802        .(      CMPNE    r0,#2
        0x0001c53e:    d008        ..      BEQ      0x1c552 ; am_hal_mspi_nonblocking_transfer + 74
        0x0001c540:    7aa3        .z      LDRB     r3,[r4,#0xa]
        0x0001c542:    2b0a        .+      CMP      r3,#0xa
        0x0001c544:    bf18        ..      IT       NE
        0x0001c546:    2b0b        .+      CMPNE    r3,#0xb
        0x0001c548:    d108        ..      BNE      0x1c55c ; am_hal_mspi_nonblocking_transfer + 84
        0x0001c54a:    7a0b        .z      LDRB     r3,[r1,#8]
        0x0001c54c:    f0130f03    ....    TST      r3,#3
        0x0001c550:    d004        ..      BEQ      0x1c55c ; am_hal_mspi_nonblocking_transfer + 84
        0x0001c552:    b003        ..      ADD      sp,sp,#0xc
        0x0001c554:    f04f0007    O...    MOV      r0,#7
        0x0001c558:    e8bd8ff0    ....    POP      {r4-r11,pc}
        0x0001c55c:    ea5f0608    _...    MOVS     r6,r8
        0x0001c560:    bf02        ..      ITTT     EQ
        0x0001c562:    f8d43838    ..88    LDREQ    r3,[r4,#0x838]
        0x0001c566:    2b00        .+      CMPEQ    r3,#0
        0x0001c568:    2800        .(      CMPEQ    r0,#0
        0x0001c56a:    d107        ..      BNE      0x1c57c ; am_hal_mspi_nonblocking_transfer + 116
        0x0001c56c:    f8d4385c    ..\8    LDR      r3,[r4,#0x85c]
        0x0001c570:    f8d40858    ..X.    LDR      r0,[r4,#0x858]
        0x0001c574:    ebb30f50    ..P.    CMP      r3,r0,LSR #1
        0x0001c578:    bf28        (.      IT       CS
        0x0001c57a:    4e41        AN      LDRCS    r6,[pc,#260] ; [0x1c680] = 0x1ef55
        0x0001c57c:    4625        %F      MOV      r5,r4
        0x0001c57e:    460f        .F      MOV      r7,r1
        0x0001c580:    f1b20900    ....    SUBS     r9,r2,#0
        0x0001c584:    f04f0001    O...    MOV      r0,#1
        0x0001c588:    f6040a28    ..(.    ADD      r10,r4,#0x828
        0x0001c58c:    bf08        ..      IT       EQ
        0x0001c58e:    2018        .       MOVEQ    r0,#0x18
        0x0001c590:    d003        ..      BEQ      0x1c59a ; am_hal_mspi_nonblocking_transfer + 146
        0x0001c592:    f1b90f01    ....    CMP      r9,#1
        0x0001c596:    bf08        ..      IT       EQ
        0x0001c598:    2040        @       MOVEQ    r0,#0x40
        0x0001c59a:    6a29        )j      LDR      r1,[r5,#0x20]
        0x0001c59c:    f5b17f80    ....    CMP      r1,#0x100
        0x0001c5a0:    bf02        ..      ITTT     EQ
        0x0001c5a2:    2005        .       MOVEQ    r0,#5
        0x0001c5a4:    b003        ..      ADDEQ    sp,sp,#0xc
        0x0001c5a6:    e8bd8ff0    ....    POPEQ    {r4-r11,pc}
        0x0001c5aa:    08c1        ..      LSRS     r1,r0,#3
        0x0001c5ac:    466b        kF      MOV      r3,sp
        0x0001c5ae:    aa01        ..      ADD      r2,sp,#4
        0x0001c5b0:    f8da0000    ....    LDR      r0,[r10,#0]
        0x0001c5b4:    f7fdfd82    ....    BL       am_hal_cmdq_alloc_block ; 0x1a0bc
        0x0001c5b8:    2800        .(      CMP      r0,#0
        0x0001c5ba:    bf1c        ..      ITT      NE
        0x0001c5bc:    b003        ..      ADDNE    sp,sp,#0xc
        0x0001c5be:    e8bd8ff0    ....    POPNE    {r4-r11,pc}
        0x0001c5c2:    463b        ;F      MOV      r3,r7
        0x0001c5c4:    4649        IF      MOV      r1,r9
        0x0001c5c6:    4628        (F      MOV      r0,r5
        0x0001c5c8:    9a01        ..      LDR      r2,[sp,#4]
        0x0001c5ca:    f001fc2d    ..-.    BL       build_dma_cmdlist ; 0x1de28
        0x0001c5ce:    0007        ..      MOVS     r7,r0
        0x0001c5d0:    d007        ..      BEQ      0x1c5e2 ; am_hal_mspi_nonblocking_transfer + 218
        0x0001c5d2:    f8da0000    ....    LDR      r0,[r10,#0]
        0x0001c5d6:    f7fdff91    ....    BL       am_hal_cmdq_release_block ; 0x1a4fc
        0x0001c5da:    b003        ..      ADD      sp,sp,#0xc
        0x0001c5dc:    4638        8F      MOV      r0,r7
        0x0001c5de:    e8bd8ff0    ....    POP      {r4-r11,pc}
        0x0001c5e2:    9900        ..      LDR      r1,[sp,#0]
        0x0001c5e4:    b2c9        ..      UXTB     r1,r1
        0x0001c5e6:    eb050181    ....    ADD      r1,r5,r1,LSL #2
        0x0001c5ea:    628e        .b      STR      r6,[r1,#0x28]
        0x0001c5ec:    9800        ..      LDR      r0,[sp,#0]
        0x0001c5ee:    b2c0        ..      UXTB     r0,r0
        0x0001c5f0:    eb050080    ....    ADD      r0,r5,r0,LSL #2
        0x0001c5f4:    f8c0b428    ..(.    STR      r11,[r0,#0x428]
        0x0001c5f8:    f7fbfeb4    ....    BL       am_hal_interrupt_master_disable ; 0x18364
        0x0001c5fc:    4681        .F      MOV      r9,r0
        0x0001c5fe:    2e00        ..      CMP      r6,#0
        0x0001c600:    bf14        ..      ITE      NE
        0x0001c602:    2101        .!      MOVNE    r1,#1
        0x0001c604:    2100        .!      MOVEQ    r1,#0
        0x0001c606:    f8d40828    ..(.    LDR      r0,[r4,#0x828]
        0x0001c60a:    f7fdff0d    ....    BL       am_hal_cmdq_post_block ; 0x1a428
        0x0001c60e:    0005        ..      MOVS     r5,r0
        0x0001c610:    d007        ..      BEQ      0x1c622 ; am_hal_mspi_nonblocking_transfer + 282
        0x0001c612:    4648        HF      MOV      r0,r9
        0x0001c614:    f7fbfeaa    ....    BL       am_hal_interrupt_master_set ; 0x1836c
        0x0001c618:    f8d40828    ..(.    LDR      r0,[r4,#0x828]
        0x0001c61c:    f7fdff6e    ..n.    BL       am_hal_cmdq_release_block ; 0x1a4fc
        0x0001c620:    e027        '.      B        0x1c672 ; am_hal_mspi_nonblocking_transfer + 362
        0x0001c622:    6a27        'j      LDR      r7,[r4,#0x20]
        0x0001c624:    1c79        y.      ADDS     r1,r7,#1
        0x0001c626:    6221        !b      STR      r1,[r4,#0x20]
        0x0001c628:    f8d40830    ..0.    LDR      r0,[r4,#0x830]
        0x0001c62c:    1c41        A.      ADDS     r1,r0,#1
        0x0001c62e:    2000        .       MOVS     r0,#0
        0x0001c630:    f8c41830    ..0.    STR      r1,[r4,#0x830]
        0x0001c634:    f1b80f00    ....    CMP      r8,#0
        0x0001c638:    bf1c        ..      ITT      NE
        0x0001c63a:    f884082d    ..-.    STRBNE   r0,[r4,#0x82d]
        0x0001c63e:    f8c4085c    ..\.    STRNE    r0,[r4,#0x85c]
        0x0001c642:    d109        ..      BNE      0x1c658 ; am_hal_mspi_nonblocking_transfer + 336
        0x0001c644:    2e00        ..      CMP      r6,#0
        0x0001c646:    bf18        ..      IT       NE
        0x0001c648:    f8c4085c    ..\.    STRNE    r0,[r4,#0x85c]
        0x0001c64c:    d104        ..      BNE      0x1c658 ; am_hal_mspi_nonblocking_transfer + 336
        0x0001c64e:    f8d4085c    ..\.    LDR      r0,[r4,#0x85c]
        0x0001c652:    1c41        A.      ADDS     r1,r0,#1
        0x0001c654:    f8c4185c    ..\.    STR      r1,[r4,#0x85c]
        0x0001c658:    4648        HF      MOV      r0,r9
        0x0001c65a:    f7fbfe87    ....    BL       am_hal_interrupt_master_set ; 0x1836c
        0x0001c65e:    b947        G.      CBNZ     r7,0x1c672 ; am_hal_mspi_nonblocking_transfer + 362
        0x0001c660:    f8d40828    ..(.    LDR      r0,[r4,#0x828]
        0x0001c664:    f7fdfdb0    ....    BL       am_hal_cmdq_enable ; 0x1a1c8
        0x0001c668:    0005        ..      MOVS     r5,r0
        0x0001c66a:    bf1c        ..      ITT      NE
        0x0001c66c:    b003        ..      ADDNE    sp,sp,#0xc
        0x0001c66e:    e8bd8ff0    ....    POPNE    {r4-r11,pc}
        0x0001c672:    4628        (F      MOV      r0,r5
        0x0001c674:    b003        ..      ADD      sp,sp,#0xc
        0x0001c676:    e8bd8ff0    ....    POP      {r4-r11,pc}
    $d
        0x0001c67a:    0000        ..      DCW    0
        0x0001c67c:    00bebebe    ....    DCD    12500670
        0x0001c680:    0001ef55    U...    DCD    126805
    $t
    i.am_hal_mspi_power_control
    am_hal_mspi_power_control
        0x0001c684:    b570        p.      PUSH     {r4-r6,lr}
        0x0001c686:    4616        .F      MOV      r6,r2
        0x0001c688:    0004        ..      MOVS     r4,r0
        0x0001c68a:    bf1c        ..      ITT      NE
        0x0001c68c:    6820         h      LDRNE    r0,[r4,#0]
        0x0001c68e:    f0107f80    ....    TSTNE    r0,#0x1000000
        0x0001c692:    d004        ..      BEQ      0x1c69e ; am_hal_mspi_power_control + 26
        0x0001c694:    4dff        .M      LDR      r5,[pc,#1020] ; [0x1ca94] = 0xbebebe
        0x0001c696:    f020407f     ..@    BIC      r0,r0,#0xff000000
        0x0001c69a:    42a8        .B      CMP      r0,r5
        0x0001c69c:    d001        ..      BEQ      0x1c6a2 ; am_hal_mspi_power_control + 30
        0x0001c69e:    2002        .       MOVS     r0,#2
        0x0001c6a0:    bd70        p.      POP      {r4-r6,pc}
        0x0001c6a2:    2900        .)      CMP      r1,#0
        0x0001c6a4:    f000812d    ..-.    BEQ.W    0x1c902 ; am_hal_mspi_power_control + 638
        0x0001c6a8:    2901        .)      CMP      r1,#1
        0x0001c6aa:    bf1e        ..      ITTT     NE
        0x0001c6ac:    2902        .)      CMPNE    r1,#2
        0x0001c6ae:    2006        .       MOVNE    r0,#6
        0x0001c6b0:    bd70        p.      POPNE    {r4-r6,pc}
        0x0001c6b2:    f8d40840    ..@.    LDR      r0,[r4,#0x840]
        0x0001c6b6:    2800        .(      CMP      r0,#0
        0x0001c6b8:    bf07        ..      ITTEE    EQ
        0x0001c6ba:    6a20         j      LDREQ    r0,[r4,#0x20]
        0x0001c6bc:    2800        .(      CMPEQ    r0,#0
        0x0001c6be:    2003        .       MOVNE    r0,#3
        0x0001c6c0:    bd70        p.      POPNE    {r4-r6,pc}
        0x0001c6c2:    2e00        ..      CMP      r6,#0
        0x0001c6c4:    f00080f3    ....    BEQ.W    0x1c8ae ; am_hal_mspi_power_control + 554
        0x0001c6c8:    6860        `h      LDR      r0,[r4,#4]
        0x0001c6ca:    0300        ..      LSLS     r0,r0,#12
        0x0001c6cc:    f1004080    ...@    ADD      r0,r0,#0x40000000
        0x0001c6d0:    f50020c0    ...     ADD      r0,r0,#0x60000
        0x0001c6d4:    f8d01080    ....    LDR      r1,[r0,#0x80]
        0x0001c6d8:    f8c41864    ..d.    STR      r1,[r4,#0x864]
        0x0001c6dc:    6860        `h      LDR      r0,[r4,#4]
        0x0001c6de:    0300        ..      LSLS     r0,r0,#12
        0x0001c6e0:    f1004080    ...@    ADD      r0,r0,#0x40000000
        0x0001c6e4:    f50020c0    ...     ADD      r0,r0,#0x60000
        0x0001c6e8:    f8d01084    ....    LDR      r1,[r0,#0x84]
        0x0001c6ec:    f8c41868    ..h.    STR      r1,[r4,#0x868]
        0x0001c6f0:    6860        `h      LDR      r0,[r4,#4]
        0x0001c6f2:    0300        ..      LSLS     r0,r0,#12
        0x0001c6f4:    f1004080    ...@    ADD      r0,r0,#0x40000000
        0x0001c6f8:    f50020c0    ...     ADD      r0,r0,#0x60000
        0x0001c6fc:    f8d01088    ....    LDR      r1,[r0,#0x88]
        0x0001c700:    f8c4186c    ..l.    STR      r1,[r4,#0x86c]
        0x0001c704:    6860        `h      LDR      r0,[r4,#4]
        0x0001c706:    0300        ..      LSLS     r0,r0,#12
        0x0001c708:    f1004080    ...@    ADD      r0,r0,#0x40000000
        0x0001c70c:    f50020c0    ...     ADD      r0,r0,#0x60000
        0x0001c710:    f8d0108c    ....    LDR      r1,[r0,#0x8c]
        0x0001c714:    f8c41870    ..p.    STR      r1,[r4,#0x870]
        0x0001c718:    6860        `h      LDR      r0,[r4,#4]
        0x0001c71a:    0300        ..      LSLS     r0,r0,#12
        0x0001c71c:    f1004080    ...@    ADD      r0,r0,#0x40000000
        0x0001c720:    f50020c0    ...     ADD      r0,r0,#0x60000
        0x0001c724:    f8d01090    ....    LDR      r1,[r0,#0x90]
        0x0001c728:    f8c41874    ..t.    STR      r1,[r4,#0x874]
        0x0001c72c:    6860        `h      LDR      r0,[r4,#4]
        0x0001c72e:    0300        ..      LSLS     r0,r0,#12
        0x0001c730:    f1004080    ...@    ADD      r0,r0,#0x40000000
        0x0001c734:    f50020c0    ...     ADD      r0,r0,#0x60000
        0x0001c738:    f8d01094    ....    LDR      r1,[r0,#0x94]
        0x0001c73c:    f8c41878    ..x.    STR      r1,[r4,#0x878]
        0x0001c740:    6860        `h      LDR      r0,[r4,#4]
        0x0001c742:    0300        ..      LSLS     r0,r0,#12
        0x0001c744:    f1004080    ...@    ADD      r0,r0,#0x40000000
        0x0001c748:    f50020c0    ...     ADD      r0,r0,#0x60000
        0x0001c74c:    f8d01098    ....    LDR      r1,[r0,#0x98]
        0x0001c750:    f8c4187c    ..|.    STR      r1,[r4,#0x87c]
        0x0001c754:    6860        `h      LDR      r0,[r4,#4]
        0x0001c756:    0300        ..      LSLS     r0,r0,#12
        0x0001c758:    f1004080    ...@    ADD      r0,r0,#0x40000000
        0x0001c75c:    f50020c0    ...     ADD      r0,r0,#0x60000
        0x0001c760:    f8d0109c    ....    LDR      r1,[r0,#0x9c]
        0x0001c764:    f8c41880    ....    STR      r1,[r4,#0x880]
        0x0001c768:    6860        `h      LDR      r0,[r4,#4]
        0x0001c76a:    0300        ..      LSLS     r0,r0,#12
        0x0001c76c:    f1004080    ...@    ADD      r0,r0,#0x40000000
        0x0001c770:    f50020c0    ...     ADD      r0,r0,#0x60000
        0x0001c774:    f8d010a0    ....    LDR      r1,[r0,#0xa0]
        0x0001c778:    f8c41884    ....    STR      r1,[r4,#0x884]
        0x0001c77c:    6860        `h      LDR      r0,[r4,#4]
        0x0001c77e:    0300        ..      LSLS     r0,r0,#12
        0x0001c780:    f1004080    ...@    ADD      r0,r0,#0x40000000
        0x0001c784:    f50020c0    ...     ADD      r0,r0,#0x60000
        0x0001c788:    6b01        .k      LDR      r1,[r0,#0x30]
        0x0001c78a:    f8c41888    ....    STR      r1,[r4,#0x888]
        0x0001c78e:    6860        `h      LDR      r0,[r4,#4]
        0x0001c790:    0300        ..      LSLS     r0,r0,#12
        0x0001c792:    f1004080    ...@    ADD      r0,r0,#0x40000000
        0x0001c796:    f50020c0    ...     ADD      r0,r0,#0x60000
        0x0001c79a:    6c41        Al      LDR      r1,[r0,#0x44]
        0x0001c79c:    f8c4188c    ....    STR      r1,[r4,#0x88c]
        0x0001c7a0:    6860        `h      LDR      r0,[r4,#4]
        0x0001c7a2:    0300        ..      LSLS     r0,r0,#12
        0x0001c7a4:    f1004080    ...@    ADD      r0,r0,#0x40000000
        0x0001c7a8:    f50020c0    ...     ADD      r0,r0,#0x60000
        0x0001c7ac:    6c81        .l      LDR      r1,[r0,#0x48]
        0x0001c7ae:    f8c41890    ....    STR      r1,[r4,#0x890]
        0x0001c7b2:    6860        `h      LDR      r0,[r4,#4]
        0x0001c7b4:    0300        ..      LSLS     r0,r0,#12
        0x0001c7b6:    f1004080    ...@    ADD      r0,r0,#0x40000000
        0x0001c7ba:    f50020c0    ...     ADD      r0,r0,#0x60000
        0x0001c7be:    6cc1        .l      LDR      r1,[r0,#0x4c]
        0x0001c7c0:    f8c41894    ....    STR      r1,[r4,#0x894]
        0x0001c7c4:    6860        `h      LDR      r0,[r4,#4]
        0x0001c7c6:    0300        ..      LSLS     r0,r0,#12
        0x0001c7c8:    f1004080    ...@    ADD      r0,r0,#0x40000000
        0x0001c7cc:    f50020c0    ...     ADD      r0,r0,#0x60000
        0x0001c7d0:    f8d012a8    ....    LDR      r1,[r0,#0x2a8]
        0x0001c7d4:    f8c4189c    ....    STR      r1,[r4,#0x89c]
        0x0001c7d8:    6860        `h      LDR      r0,[r4,#4]
        0x0001c7da:    0300        ..      LSLS     r0,r0,#12
        0x0001c7dc:    f1004080    ...@    ADD      r0,r0,#0x40000000
        0x0001c7e0:    f50020c0    ...     ADD      r0,r0,#0x60000
        0x0001c7e4:    f8d012b8    ....    LDR      r1,[r0,#0x2b8]
        0x0001c7e8:    f8c418a0    ....    STR      r1,[r4,#0x8a0]
        0x0001c7ec:    6860        `h      LDR      r0,[r4,#4]
        0x0001c7ee:    0300        ..      LSLS     r0,r0,#12
        0x0001c7f0:    f1004080    ...@    ADD      r0,r0,#0x40000000
        0x0001c7f4:    f50020c0    ...     ADD      r0,r0,#0x60000
        0x0001c7f8:    f8d012c0    ....    LDR      r1,[r0,#0x2c0]
        0x0001c7fc:    f8c418a4    ....    STR      r1,[r4,#0x8a4]
        0x0001c800:    6860        `h      LDR      r0,[r4,#4]
        0x0001c802:    0300        ..      LSLS     r0,r0,#12
        0x0001c804:    f1004080    ...@    ADD      r0,r0,#0x40000000
        0x0001c808:    f50020c0    ...     ADD      r0,r0,#0x60000
        0x0001c80c:    f8d012c4    ....    LDR      r1,[r0,#0x2c4]
        0x0001c810:    f8c418a8    ....    STR      r1,[r4,#0x8a8]
        0x0001c814:    6860        `h      LDR      r0,[r4,#4]
        0x0001c816:    0300        ..      LSLS     r0,r0,#12
        0x0001c818:    f1004080    ...@    ADD      r0,r0,#0x40000000
        0x0001c81c:    f50020c0    ...     ADD      r0,r0,#0x60000
        0x0001c820:    f8d01200    ....    LDR      r1,[r0,#0x200]
        0x0001c824:    f8c418ac    ....    STR      r1,[r4,#0x8ac]
        0x0001c828:    6860        `h      LDR      r0,[r4,#4]
        0x0001c82a:    0300        ..      LSLS     r0,r0,#12
        0x0001c82c:    f1004080    ...@    ADD      r0,r0,#0x40000000
        0x0001c830:    f50020c0    ...     ADD      r0,r0,#0x60000
        0x0001c834:    f8d012b0    ....    LDR      r1,[r0,#0x2b0]
        0x0001c838:    f8c418b0    ....    STR      r1,[r4,#0x8b0]
        0x0001c83c:    6860        `h      LDR      r0,[r4,#4]
        0x0001c83e:    0300        ..      LSLS     r0,r0,#12
        0x0001c840:    f1004080    ...@    ADD      r0,r0,#0x40000000
        0x0001c844:    f50020c0    ...     ADD      r0,r0,#0x60000
        0x0001c848:    f8d01114    ....    LDR      r1,[r0,#0x114]
        0x0001c84c:    f8c418b4    ....    STR      r1,[r4,#0x8b4]
        0x0001c850:    6860        `h      LDR      r0,[r4,#4]
        0x0001c852:    0300        ..      LSLS     r0,r0,#12
        0x0001c854:    f1004080    ...@    ADD      r0,r0,#0x40000000
        0x0001c858:    f50020c0    ...     ADD      r0,r0,#0x60000
        0x0001c85c:    f8d01118    ....    LDR      r1,[r0,#0x118]
        0x0001c860:    f8c418b8    ....    STR      r1,[r4,#0x8b8]
        0x0001c864:    6860        `h      LDR      r0,[r4,#4]
        0x0001c866:    0300        ..      LSLS     r0,r0,#12
        0x0001c868:    f1004080    ...@    ADD      r0,r0,#0x40000000
        0x0001c86c:    f50020c0    ...     ADD      r0,r0,#0x60000
        0x0001c870:    6a01        .j      LDR      r1,[r0,#0x20]
        0x0001c872:    f8c418bc    ....    STR      r1,[r4,#0x8bc]
        0x0001c876:    6860        `h      LDR      r0,[r4,#4]
        0x0001c878:    0300        ..      LSLS     r0,r0,#12
        0x0001c87a:    f1004080    ...@    ADD      r0,r0,#0x40000000
        0x0001c87e:    f50020c0    ...     ADD      r0,r0,#0x60000
        0x0001c882:    f8d012a0    ....    LDR      r1,[r0,#0x2a0]
        0x0001c886:    f8c41898    ....    STR      r1,[r4,#0x898]
        0x0001c88a:    6860        `h      LDR      r0,[r4,#4]
        0x0001c88c:    0300        ..      LSLS     r0,r0,#12
        0x0001c88e:    f1004080    ...@    ADD      r0,r0,#0x40000000
        0x0001c892:    f50020c0    ...     ADD      r0,r0,#0x60000
        0x0001c896:    f8d002a0    ....    LDR      r0,[r0,#0x2a0]
        0x0001c89a:    f0100f01    ....    TST      r0,#1
        0x0001c89e:    bf1c        ..      ITT      NE
        0x0001c8a0:    f8d40828    ..(.    LDRNE    r0,[r4,#0x828]
        0x0001c8a4:    f7fdfc70    ..p.    BLNE     am_hal_cmdq_disable ; 0x1a188
        0x0001c8a8:    2101        .!      MOVS     r1,#1
        0x0001c8aa:    f8841860    ..`.    STRB     r1,[r4,#0x860]
        0x0001c8ae:    6821        !h      LDR      r1,[r4,#0]
        0x0001c8b0:    f0117f80    ....    TST      r1,#0x1000000
        0x0001c8b4:    d00f        ..      BEQ      0x1c8d6 ; am_hal_mspi_power_control + 594
        0x0001c8b6:    f021417f    !..A    BIC      r1,r1,#0xff000000
        0x0001c8ba:    42a9        .B      CMP      r1,r5
        0x0001c8bc:    d10b        ..      BNE      0x1c8d6 ; am_hal_mspi_power_control + 594
        0x0001c8be:    6860        `h      LDR      r0,[r4,#4]
        0x0001c8c0:    0300        ..      LSLS     r0,r0,#12
        0x0001c8c2:    f1004080    ...@    ADD      r0,r0,#0x40000000
        0x0001c8c6:    f50020c0    ...     ADD      r0,r0,#0x60000
        0x0001c8ca:    f8d01200    ....    LDR      r1,[r0,#0x200]
        0x0001c8ce:    f36f010c    o...    BFC      r1,#0,#13
        0x0001c8d2:    f8c01200    ....    STR      r1,[r0,#0x200]
        0x0001c8d6:    6860        `h      LDR      r0,[r4,#4]
        0x0001c8d8:    0300        ..      LSLS     r0,r0,#12
        0x0001c8da:    f1004080    ...@    ADD      r0,r0,#0x40000000
        0x0001c8de:    f50020c0    ...     ADD      r0,r0,#0x60000
        0x0001c8e2:    f8d00090    ....    LDR      r0,[r0,#0x90]
        0x0001c8e6:    f0100f01    ....    TST      r0,#1
        0x0001c8ea:    d003        ..      BEQ      0x1c8f4 ; am_hal_mspi_power_control + 624
        0x0001c8ec:    2100        .!      MOVS     r1,#0
        0x0001c8ee:    2001        .       MOVS     r0,#1
        0x0001c8f0:    f7fdfee2    ....    BL       am_hal_daxi_control ; 0x1a6b8
        0x0001c8f4:    7920         y      LDRB     r0,[r4,#4]
        0x0001c8f6:    300e        .0      ADDS     r0,r0,#0xe
        0x0001c8f8:    b2c0        ..      UXTB     r0,r0
        0x0001c8fa:    f000fb3b    ..;.    BL       am_hal_pwrctrl_periph_disable ; 0x1cf74
        0x0001c8fe:    2000        .       MOVS     r0,#0
        0x0001c900:    bd70        p.      POP      {r4-r6,pc}
        0x0001c902:    b12e        ..      CBZ      r6,0x1c910 ; am_hal_mspi_power_control + 652
        0x0001c904:    f8940860    ..`.    LDRB     r0,[r4,#0x860]
        0x0001c908:    2800        .(      CMP      r0,#0
        0x0001c90a:    bf04        ..      ITT      EQ
        0x0001c90c:    2007        .       MOVEQ    r0,#7
        0x0001c90e:    bd70        p.      POPEQ    {r4-r6,pc}
        0x0001c910:    7920         y      LDRB     r0,[r4,#4]
        0x0001c912:    300e        .0      ADDS     r0,r0,#0xe
        0x0001c914:    b2c0        ..      UXTB     r0,r0
        0x0001c916:    f000fbc3    ....    BL       am_hal_pwrctrl_periph_enable ; 0x1d0a0
        0x0001c91a:    2e00        ..      CMP      r6,#0
        0x0001c91c:    d0ef        ..      BEQ      0x1c8fe ; am_hal_mspi_power_control + 634
        0x0001c91e:    6861        ah      LDR      r1,[r4,#4]
        0x0001c920:    f8d40864    ..d.    LDR      r0,[r4,#0x864]
        0x0001c924:    0309        ..      LSLS     r1,r1,#12
        0x0001c926:    f1014180    ...A    ADD      r1,r1,#0x40000000
        0x0001c92a:    f50121c0    ...!    ADD      r1,r1,#0x60000
        0x0001c92e:    f8c10080    ....    STR      r0,[r1,#0x80]
        0x0001c932:    6861        ah      LDR      r1,[r4,#4]
        0x0001c934:    f8d40868    ..h.    LDR      r0,[r4,#0x868]
        0x0001c938:    0309        ..      LSLS     r1,r1,#12
        0x0001c93a:    f1014180    ...A    ADD      r1,r1,#0x40000000
        0x0001c93e:    f50121c0    ...!    ADD      r1,r1,#0x60000
        0x0001c942:    f8c10084    ....    STR      r0,[r1,#0x84]
        0x0001c946:    6861        ah      LDR      r1,[r4,#4]
        0x0001c948:    f8d4086c    ..l.    LDR      r0,[r4,#0x86c]
        0x0001c94c:    0309        ..      LSLS     r1,r1,#12
        0x0001c94e:    f1014180    ...A    ADD      r1,r1,#0x40000000
        0x0001c952:    f50121c0    ...!    ADD      r1,r1,#0x60000
        0x0001c956:    f8c10088    ....    STR      r0,[r1,#0x88]
        0x0001c95a:    6861        ah      LDR      r1,[r4,#4]
        0x0001c95c:    f8d40870    ..p.    LDR      r0,[r4,#0x870]
        0x0001c960:    0309        ..      LSLS     r1,r1,#12
        0x0001c962:    f1014180    ...A    ADD      r1,r1,#0x40000000
        0x0001c966:    f50121c0    ...!    ADD      r1,r1,#0x60000
        0x0001c96a:    f8c1008c    ....    STR      r0,[r1,#0x8c]
        0x0001c96e:    6861        ah      LDR      r1,[r4,#4]
        0x0001c970:    f8d40874    ..t.    LDR      r0,[r4,#0x874]
        0x0001c974:    0309        ..      LSLS     r1,r1,#12
        0x0001c976:    f1014180    ...A    ADD      r1,r1,#0x40000000
        0x0001c97a:    f50121c0    ...!    ADD      r1,r1,#0x60000
        0x0001c97e:    f8c10090    ....    STR      r0,[r1,#0x90]
        0x0001c982:    6861        ah      LDR      r1,[r4,#4]
        0x0001c984:    f8d40878    ..x.    LDR      r0,[r4,#0x878]
        0x0001c988:    0309        ..      LSLS     r1,r1,#12
        0x0001c98a:    f1014180    ...A    ADD      r1,r1,#0x40000000
        0x0001c98e:    f50121c0    ...!    ADD      r1,r1,#0x60000
        0x0001c992:    f8c10094    ....    STR      r0,[r1,#0x94]
        0x0001c996:    6861        ah      LDR      r1,[r4,#4]
        0x0001c998:    f8d4087c    ..|.    LDR      r0,[r4,#0x87c]
        0x0001c99c:    0309        ..      LSLS     r1,r1,#12
        0x0001c99e:    f1014180    ...A    ADD      r1,r1,#0x40000000
        0x0001c9a2:    f50121c0    ...!    ADD      r1,r1,#0x60000
        0x0001c9a6:    f8c10098    ....    STR      r0,[r1,#0x98]
        0x0001c9aa:    6861        ah      LDR      r1,[r4,#4]
        0x0001c9ac:    f8d40880    ....    LDR      r0,[r4,#0x880]
        0x0001c9b0:    0309        ..      LSLS     r1,r1,#12
        0x0001c9b2:    f1014180    ...A    ADD      r1,r1,#0x40000000
        0x0001c9b6:    f50121c0    ...!    ADD      r1,r1,#0x60000
        0x0001c9ba:    f8c1009c    ....    STR      r0,[r1,#0x9c]
        0x0001c9be:    6861        ah      LDR      r1,[r4,#4]
        0x0001c9c0:    f8d40884    ....    LDR      r0,[r4,#0x884]
        0x0001c9c4:    0309        ..      LSLS     r1,r1,#12
        0x0001c9c6:    f1014180    ...A    ADD      r1,r1,#0x40000000
        0x0001c9ca:    f50121c0    ...!    ADD      r1,r1,#0x60000
        0x0001c9ce:    f8c100a0    ....    STR      r0,[r1,#0xa0]
        0x0001c9d2:    6861        ah      LDR      r1,[r4,#4]
        0x0001c9d4:    f8d40888    ....    LDR      r0,[r4,#0x888]
        0x0001c9d8:    0309        ..      LSLS     r1,r1,#12
        0x0001c9da:    f1014180    ...A    ADD      r1,r1,#0x40000000
        0x0001c9de:    f50121c0    ...!    ADD      r1,r1,#0x60000
        0x0001c9e2:    6308        .c      STR      r0,[r1,#0x30]
        0x0001c9e4:    6861        ah      LDR      r1,[r4,#4]
        0x0001c9e6:    f8d4088c    ....    LDR      r0,[r4,#0x88c]
        0x0001c9ea:    0309        ..      LSLS     r1,r1,#12
        0x0001c9ec:    f1014180    ...A    ADD      r1,r1,#0x40000000
        0x0001c9f0:    f50121c0    ...!    ADD      r1,r1,#0x60000
        0x0001c9f4:    6448        Hd      STR      r0,[r1,#0x44]
        0x0001c9f6:    6861        ah      LDR      r1,[r4,#4]
        0x0001c9f8:    f8d40890    ....    LDR      r0,[r4,#0x890]
        0x0001c9fc:    0309        ..      LSLS     r1,r1,#12
        0x0001c9fe:    f1014180    ...A    ADD      r1,r1,#0x40000000
        0x0001ca02:    f50121c0    ...!    ADD      r1,r1,#0x60000
        0x0001ca06:    6488        .d      STR      r0,[r1,#0x48]
        0x0001ca08:    6861        ah      LDR      r1,[r4,#4]
        0x0001ca0a:    f8d40894    ....    LDR      r0,[r4,#0x894]
        0x0001ca0e:    0309        ..      LSLS     r1,r1,#12
        0x0001ca10:    f1014180    ...A    ADD      r1,r1,#0x40000000
        0x0001ca14:    f50121c0    ...!    ADD      r1,r1,#0x60000
        0x0001ca18:    64c8        .d      STR      r0,[r1,#0x4c]
        0x0001ca1a:    6861        ah      LDR      r1,[r4,#4]
        0x0001ca1c:    f8d4089c    ....    LDR      r0,[r4,#0x89c]
        0x0001ca20:    0309        ..      LSLS     r1,r1,#12
        0x0001ca22:    f1014180    ...A    ADD      r1,r1,#0x40000000
        0x0001ca26:    f50121c0    ...!    ADD      r1,r1,#0x60000
        0x0001ca2a:    f8c102a8    ....    STR      r0,[r1,#0x2a8]
        0x0001ca2e:    6861        ah      LDR      r1,[r4,#4]
        0x0001ca30:    f8d408a0    ....    LDR      r0,[r4,#0x8a0]
        0x0001ca34:    0309        ..      LSLS     r1,r1,#12
        0x0001ca36:    f1014180    ...A    ADD      r1,r1,#0x40000000
        0x0001ca3a:    f50121c0    ...!    ADD      r1,r1,#0x60000
        0x0001ca3e:    f8c102b8    ....    STR      r0,[r1,#0x2b8]
        0x0001ca42:    6861        ah      LDR      r1,[r4,#4]
        0x0001ca44:    f8d408a4    ....    LDR      r0,[r4,#0x8a4]
        0x0001ca48:    0309        ..      LSLS     r1,r1,#12
        0x0001ca4a:    f1014180    ...A    ADD      r1,r1,#0x40000000
        0x0001ca4e:    f50121c0    ...!    ADD      r1,r1,#0x60000
        0x0001ca52:    f8c102c0    ....    STR      r0,[r1,#0x2c0]
        0x0001ca56:    6861        ah      LDR      r1,[r4,#4]
        0x0001ca58:    f8d408a8    ....    LDR      r0,[r4,#0x8a8]
        0x0001ca5c:    0309        ..      LSLS     r1,r1,#12
        0x0001ca5e:    f1014180    ...A    ADD      r1,r1,#0x40000000
        0x0001ca62:    f50121c0    ...!    ADD      r1,r1,#0x60000
        0x0001ca66:    f8c102c4    ....    STR      r0,[r1,#0x2c4]
        0x0001ca6a:    6861        ah      LDR      r1,[r4,#4]
        0x0001ca6c:    f8d408ac    ....    LDR      r0,[r4,#0x8ac]
        0x0001ca70:    0309        ..      LSLS     r1,r1,#12
        0x0001ca72:    f1014180    ...A    ADD      r1,r1,#0x40000000
        0x0001ca76:    f50121c0    ...!    ADD      r1,r1,#0x60000
        0x0001ca7a:    f8c10200    ....    STR      r0,[r1,#0x200]
        0x0001ca7e:    6861        ah      LDR      r1,[r4,#4]
        0x0001ca80:    f89408b0    ....    LDRB     r0,[r4,#0x8b0]
        0x0001ca84:    0309        ..      LSLS     r1,r1,#12
        0x0001ca86:    f1014180    ...A    ADD      r1,r1,#0x40000000
        0x0001ca8a:    f50121c0    ...!    ADD      r1,r1,#0x60000
        0x0001ca8e:    f8c102b4    ....    STR      r0,[r1,#0x2b4]
        0x0001ca92:    e001        ..      B        0x1ca98 ; am_hal_mspi_power_control + 1044
    $d
        0x0001ca94:    00bebebe    ....    DCD    12500670
    $t
        0x0001ca98:    6861        ah      LDR      r1,[r4,#4]
        0x0001ca9a:    f8d408b4    ....    LDR      r0,[r4,#0x8b4]
        0x0001ca9e:    0309        ..      LSLS     r1,r1,#12
        0x0001caa0:    f1014180    ...A    ADD      r1,r1,#0x40000000
        0x0001caa4:    f50121c0    ...!    ADD      r1,r1,#0x60000
        0x0001caa8:    f8c10114    ....    STR      r0,[r1,#0x114]
        0x0001caac:    6861        ah      LDR      r1,[r4,#4]
        0x0001caae:    f8d408b8    ....    LDR      r0,[r4,#0x8b8]
        0x0001cab2:    0309        ..      LSLS     r1,r1,#12
        0x0001cab4:    f1014180    ...A    ADD      r1,r1,#0x40000000
        0x0001cab8:    f50121c0    ...!    ADD      r1,r1,#0x60000
        0x0001cabc:    f8c10118    ....    STR      r0,[r1,#0x118]
        0x0001cac0:    6861        ah      LDR      r1,[r4,#4]
        0x0001cac2:    f8d408bc    ....    LDR      r0,[r4,#0x8bc]
        0x0001cac6:    0309        ..      LSLS     r1,r1,#12
        0x0001cac8:    f1014180    ...A    ADD      r1,r1,#0x40000000
        0x0001cacc:    f50121c0    ...!    ADD      r1,r1,#0x60000
        0x0001cad0:    6208        .b      STR      r0,[r1,#0x20]
        0x0001cad2:    6861        ah      LDR      r1,[r4,#4]
        0x0001cad4:    f8d40898    ....    LDR      r0,[r4,#0x898]
        0x0001cad8:    0309        ..      LSLS     r1,r1,#12
        0x0001cada:    f1014180    ...A    ADD      r1,r1,#0x40000000
        0x0001cade:    f50121c0    ...!    ADD      r1,r1,#0x60000
        0x0001cae2:    f0200001     ...    BIC      r0,r0,#1
        0x0001cae6:    f8c102a0    ....    STR      r0,[r1,#0x2a0]
        0x0001caea:    f8940898    ....    LDRB     r0,[r4,#0x898]
        0x0001caee:    f0100f01    ....    TST      r0,#1
        0x0001caf2:    bf1c        ..      ITT      NE
        0x0001caf4:    f8d40828    ..(.    LDRNE    r0,[r4,#0x828]
        0x0001caf8:    f7fdfb66    ..f.    BLNE     am_hal_cmdq_enable ; 0x1a1c8
        0x0001cafc:    2000        .       MOVS     r0,#0
        0x0001cafe:    f8840860    ..`.    STRB     r0,[r4,#0x860]
        0x0001cb02:    e6fc        ..      B        0x1c8fe ; am_hal_mspi_power_control + 634
    i.am_hal_pwrctrl_control
    am_hal_pwrctrl_control
        0x0001cb04:    e92d41f0    -..A    PUSH     {r4-r8,lr}
        0x0001cb08:    2600        .&      MOVS     r6,#0
        0x0001cb0a:    4f83        .O      LDR      r7,[pc,#524] ; [0x1cd18] = 0x40021000
        0x0001cb0c:    4d83        .M      LDR      r5,[pc,#524] ; [0x1cd1c] = 0x100000f8
        0x0001cb0e:    4c84        .L      LDR      r4,[pc,#528] ; [0x1cd20] = 0x40020000
        0x0001cb10:    46b0        .F      MOV      r8,r6
        0x0001cb12:    2805        .(      CMP      r0,#5
        0x0001cb14:    f08080fc    ....    BCS.W    0x1cd10 ; am_hal_pwrctrl_control + 524
        0x0001cb18:    e8dff000    ....    TBB      [pc,r0]
    $d
        0x0001cb1c:    f1e4d603    ....    DCD    4058306051
        0x0001cb20:    00f4        ..      DCW    244
    $t
        0x0001cb22:    68a8        .h      LDR      r0,[r5,#8]
        0x0001cb24:    f1b03fff    ...?    CMP      r0,#0xffffffff
        0x0001cb28:    d10d        ..      BNE      0x1cb46 ; am_hal_pwrctrl_control + 66
        0x0001cb2a:    2201        ."      MOVS     r2,#1
        0x0001cb2c:    4b7d        }K      LDR      r3,[pc,#500] ; [0x1cd24] = 0x10000100
        0x0001cb2e:    f24041c4    @..A    MOV      r1,#0x4c4
        0x0001cb32:    4610        .F      MOV      r0,r2
        0x0001cb34:    f7fef88e    ....    BL       am_hal_mram_info_read ; 0x1ac54
        0x0001cb38:    b918        ..      CBNZ     r0,0x1cb42 ; am_hal_pwrctrl_control + 62
        0x0001cb3a:    68a8        .h      LDR      r0,[r5,#8]
        0x0001cb3c:    f1b03fff    ...?    CMP      r0,#0xffffffff
        0x0001cb40:    d101        ..      BNE      0x1cb46 ; am_hal_pwrctrl_control + 66
        0x0001cb42:    f8c58008    ....    STR      r8,[r5,#8]
        0x0001cb46:    68a8        .h      LDR      r0,[r5,#8]
        0x0001cb48:    2803        .(      CMP      r0,#3
        0x0001cb4a:    d237        7.      BCS      0x1cbbc ; am_hal_pwrctrl_control + 184
        0x0001cb4c:    f8d41378    ..x.    LDR      r1,[r4,#0x378]
        0x0001cb50:    f02151f8    !..Q    BIC      r1,r1,#0x1f000000
        0x0001cb54:    f8c41378    ..x.    STR      r1,[r4,#0x378]
        0x0001cb58:    f8d41358    ..X.    LDR      r1,[r4,#0x358]
        0x0001cb5c:    f42101f8    !...    BIC      r1,r1,#0x7c0000
        0x0001cb60:    f8c41358    ..X.    STR      r1,[r4,#0x358]
        0x0001cb64:    f8d41344    ..D.    LDR      r1,[r4,#0x344]
        0x0001cb68:    f02151f8    !..Q    BIC      r1,r1,#0x1f000000
        0x0001cb6c:    f1016120    .. a    ADD      r1,r1,#0xa000000
        0x0001cb70:    f8c41344    ..D.    STR      r1,[r4,#0x344]
        0x0001cb74:    f8d41344    ..D.    LDR      r1,[r4,#0x344]
        0x0001cb78:    f42141f0    !..A    BIC      r1,r1,#0x7800
        0x0001cb7c:    f50141a0    ...A    ADD      r1,r1,#0x5000
        0x0001cb80:    f8c41344    ..D.    STR      r1,[r4,#0x344]
        0x0001cb84:    f8d41358    ..X.    LDR      r1,[r4,#0x358]
        0x0001cb88:    f42151f8    !..Q    BIC      r1,r1,#0x1f00
        0x0001cb8c:    f5016170    ..pa    ADD      r1,r1,#0xf00
        0x0001cb90:    f8c41358    ..X.    STR      r1,[r4,#0x358]
        0x0001cb94:    f8d41354    ..T.    LDR      r1,[r4,#0x354]
        0x0001cb98:    f44111f0    A...    ORR      r1,r1,#0x1e0000
        0x0001cb9c:    f8c41354    ..T.    STR      r1,[r4,#0x354]
        0x0001cba0:    f8d41360    ..`.    LDR      r1,[r4,#0x360]
        0x0001cba4:    f02161f8    !..a    BIC      r1,r1,#0x7c00000
        0x0001cba8:    f1017170    ..pq    ADD      r1,r1,#0x3c00000
        0x0001cbac:    f8c41360    ..`.    STR      r1,[r4,#0x360]
        0x0001cbb0:    f8d41360    ..`.    LDR      r1,[r4,#0x360]
        0x0001cbb4:    f44111f0    A...    ORR      r1,r1,#0x1e0000
        0x0001cbb8:    f8c41360    ..`.    STR      r1,[r4,#0x360]
        0x0001cbbc:    f8d41348    ..H.    LDR      r1,[r4,#0x348]
        0x0001cbc0:    f0215170    !.pQ    BIC      r1,r1,#0x3c000000
        0x0001cbc4:    f1015120    .. Q    ADD      r1,r1,#0x28000000
        0x0001cbc8:    f8c41348    ..H.    STR      r1,[r4,#0x348]
        0x0001cbcc:    f8d41348    ..H.    LDR      r1,[r4,#0x348]
        0x0001cbd0:    f42131f0    !..1    BIC      r1,r1,#0x1e000
        0x0001cbd4:    f50131a0    ...1    ADD      r1,r1,#0x14000
        0x0001cbd8:    f8c41348    ..H.    STR      r1,[r4,#0x348]
        0x0001cbdc:    f8d4135c    ..\.    LDR      r1,[r4,#0x35c]
        0x0001cbe0:    f0417170    A.pq    ORR      r1,r1,#0x3c00000
        0x0001cbe4:    f8c4135c    ..\.    STR      r1,[r4,#0x35c]
        0x0001cbe8:    f8d4135c    ..\.    LDR      r1,[r4,#0x35c]
        0x0001cbec:    f44151f0    A..Q    ORR      r1,r1,#0x1e00
        0x0001cbf0:    f8c4135c    ..\.    STR      r1,[r4,#0x35c]
        0x0001cbf4:    f8d41380    ....    LDR      r1,[r4,#0x380]
        0x0001cbf8:    f0414100    A..A    ORR      r1,r1,#0x80000000
        0x0001cbfc:    f8c41380    ....    STR      r1,[r4,#0x380]
        0x0001cc00:    f8d41380    ....    LDR      r1,[r4,#0x380]
        0x0001cc04:    f0414180    A..A    ORR      r1,r1,#0x40000000
        0x0001cc08:    f8c41380    ....    STR      r1,[r4,#0x380]
        0x0001cc0c:    f8d41370    ..p.    LDR      r1,[r4,#0x370]
        0x0001cc10:    f3c15105    ...Q    UBFX     r1,r1,#20,#6
        0x0001cc14:    60e9        .`      STR      r1,[r5,#0xc]
        0x0001cc16:    f8d41370    ..p.    LDR      r1,[r4,#0x370]
        0x0001cc1a:    f021717c    !.|q    BIC      r1,r1,#0x3f00000
        0x0001cc1e:    f8c41370    ..p.    STR      r1,[r4,#0x370]
        0x0001cc22:    f04f0107    O...    MOV      r1,#7
        0x0001cc26:    f8c4133c    ..<.    STR      r1,[r4,#0x33c]
        0x0001cc2a:    d20d        ..      BCS      0x1cc48 ; am_hal_pwrctrl_control + 324
        0x0001cc2c:    f8d41340    ..@.    LDR      r1,[r4,#0x340]
        0x0001cc30:    f0217170    !.pq    BIC      r1,r1,#0x3c00000
        0x0001cc34:    f8c41340    ..@.    STR      r1,[r4,#0x340]
        0x0001cc38:    f8d41340    ..@.    LDR      r1,[r4,#0x340]
        0x0001cc3c:    f42161f8    !..a    BIC      r1,r1,#0x7c0
        0x0001cc40:    f1010140    ..@.    ADD      r1,r1,#0x40
        0x0001cc44:    f8c41340    ..@.    STR      r1,[r4,#0x340]
        0x0001cc48:    2806        .(      CMP      r0,#6
        0x0001cc4a:    d308        ..      BCC      0x1cc5e ; am_hal_pwrctrl_control + 346
        0x0001cc4c:    200f        .       MOVS     r0,#0xf
        0x0001cc4e:    f8c4033c    ..<.    STR      r0,[r4,#0x33c]
        0x0001cc52:    f8d401b0    ....    LDR      r0,[r4,#0x1b0]
        0x0001cc56:    f0200018     ...    BIC      r0,r0,#0x18
        0x0001cc5a:    f8c401b0    ....    STR      r0,[r4,#0x1b0]
        0x0001cc5e:    f8d70100    ....    LDR      r0,[r7,#0x100]
        0x0001cc62:    f0400001    @...    ORR      r0,r0,#1
        0x0001cc66:    f8c70100    ....    STR      r0,[r7,#0x100]
        0x0001cc6a:    f8d40378    ..x.    LDR      r0,[r4,#0x378]
        0x0001cc6e:    f0404000    @..@    ORR      r0,r0,#0x80000000
        0x0001cc72:    f8c40378    ..x.    STR      r0,[r4,#0x378]
        0x0001cc76:    6e20         n      LDR      r0,[r4,#0x60]
        0x0001cc78:    f4403000    @..0    ORR      r0,r0,#0x20000
        0x0001cc7c:    6620         f      STR      r0,[r4,#0x60]
        0x0001cc7e:    6e20         n      LDR      r0,[r4,#0x60]
        0x0001cc80:    f4402080    @..     ORR      r0,r0,#0x40000
        0x0001cc84:    6620         f      STR      r0,[r4,#0x60]
        0x0001cc86:    6e20         n      LDR      r0,[r4,#0x60]
        0x0001cc88:    f4402000    @..     ORR      r0,r0,#0x80000
        0x0001cc8c:    6620         f      STR      r0,[r4,#0x60]
        0x0001cc8e:    6e20         n      LDR      r0,[r4,#0x60]
        0x0001cc90:    f4403080    @..0    ORR      r0,r0,#0x10000
        0x0001cc94:    6620         f      STR      r0,[r4,#0x60]
        0x0001cc96:    6e20         n      LDR      r0,[r4,#0x60]
        0x0001cc98:    f0200010     ...    BIC      r0,r0,#0x10
        0x0001cc9c:    6620         f      STR      r0,[r4,#0x60]
        0x0001cc9e:    6e20         n      LDR      r0,[r4,#0x60]
        0x0001cca0:    f040000e    @...    ORR      r0,r0,#0xe
        0x0001cca4:    6620         f      STR      r0,[r4,#0x60]
        0x0001cca6:    6e20         n      LDR      r0,[r4,#0x60]
        0x0001cca8:    f0400001    @...    ORR      r0,r0,#1
        0x0001ccac:    6620         f      STR      r0,[r4,#0x60]
        0x0001ccae:    6e20         n      LDR      r0,[r4,#0x60]
        0x0001ccb0:    f4207000     ..p    BIC      r0,r0,#0x200
        0x0001ccb4:    6620         f      STR      r0,[r4,#0x60]
        0x0001ccb6:    6e20         n      LDR      r0,[r4,#0x60]
        0x0001ccb8:    f44070e0    @..p    ORR      r0,r0,#0x1c0
        0x0001ccbc:    6620         f      STR      r0,[r4,#0x60]
        0x0001ccbe:    6e20         n      LDR      r0,[r4,#0x60]
        0x0001ccc0:    f0400020    @. .    ORR      r0,r0,#0x20
        0x0001ccc4:    6620         f      STR      r0,[r4,#0x60]
        0x0001ccc6:    e024        $.      B        0x1cd12 ; am_hal_pwrctrl_control + 526
        0x0001ccc8:    4917        .I      LDR      r1,[pc,#92] ; [0x1cd28] = 0x1f9f0
        0x0001ccca:    e9d10152    ..R.    LDRD     r0,r1,[r1,#0x148]
        0x0001ccce:    6800        .h      LDR      r0,[r0,#0]
        0x0001ccd0:    4008        .@      ANDS     r0,r0,r1
        0x0001ccd2:    bf18        ..      IT       NE
        0x0001ccd4:    2001        .       MOVNE    r0,#1
        0x0001ccd6:    b1e0        ..      CBZ      r0,0x1cd12 ; am_hal_pwrctrl_control + 526
        0x0001ccd8:    2014        .       MOVS     r0,#0x14
        0x0001ccda:    f000f94b    ..K.    BL       am_hal_pwrctrl_periph_disable ; 0x1cf74
        0x0001ccde:    b1c0        ..      CBZ      r0,0x1cd12 ; am_hal_pwrctrl_control + 526
        0x0001cce0:    e8bd81f0    ....    POP      {r4-r8,pc}
        0x0001cce4:    f8d40124    ..$.    LDR      r0,[r4,#0x124]
        0x0001cce8:    f02000fc     ...    BIC      r0,r0,#0xfc
        0x0001ccec:    3080        .0      ADDS     r0,r0,#0x80
        0x0001ccee:    f8c40124    ..$.    STR      r0,[r4,#0x124]
        0x0001ccf2:    2001        .       MOVS     r0,#1
        0x0001ccf4:    f8c40120    .. .    STR      r0,[r4,#0x120]
        0x0001ccf8:    e00b        ..      B        0x1cd12 ; am_hal_pwrctrl_control + 526
        0x0001ccfa:    e003        ..      B        0x1cd04 ; am_hal_pwrctrl_control + 512
        0x0001ccfc:    e7ff        ..      B        0x1ccfe ; am_hal_pwrctrl_control + 506
        0x0001ccfe:    f8c78004    ....    STR      r8,[r7,#4]
        0x0001cd02:    e006        ..      B        0x1cd12 ; am_hal_pwrctrl_control + 526
        0x0001cd04:    2900        .)      CMP      r1,#0
        0x0001cd06:    bf1c        ..      ITT      NE
        0x0001cd08:    ed950a0f    ....    VLDRNE   s0,[r5,#0x3c]
        0x0001cd0c:    ed810a00    ....    VSTRNE   s0,[r1,#0]
        0x0001cd10:    2606        .&      MOVS     r6,#6
        0x0001cd12:    4630        0F      MOV      r0,r6
        0x0001cd14:    e8bd81f0    ....    POP      {r4-r8,pc}
    $d
        0x0001cd18:    40021000    ...@    DCD    1073876992
        0x0001cd1c:    100000f8    ....    DCD    268435704
        0x0001cd20:    40020000    ...@    DCD    1073872896
        0x0001cd24:    10000100    ....    DCD    268435712
        0x0001cd28:    0001f9f0    ....    DCD    129520
    $t
    i.am_hal_pwrctrl_low_power_init
    am_hal_pwrctrl_low_power_init
        0x0001cd2c:    b5f8        ..      PUSH     {r3-r7,lr}
        0x0001cd2e:    4d43        CM      LDR      r5,[pc,#268] ; [0x1ce3c] = 0x40021000
        0x0001cd30:    68a8        .h      LDR      r0,[r5,#8]
        0x0001cd32:    4e43        CN      LDR      r6,[pc,#268] ; [0x1ce40] = 0x100000f8
        0x0001cd34:    f3c05000    ...P    UBFX     r0,r0,#20,#1
        0x0001cd38:    f5057582    ...u    ADD      r5,r5,#0x104
        0x0001cd3c:    70b0        .p      STRB     r0,[r6,#2]
        0x0001cd3e:    4841        AH      LDR      r0,[pc,#260] ; [0x1ce44] = 0x1f9e4
        0x0001cd40:    f000f88a    ....    BL       am_hal_pwrctrl_mcu_memory_config ; 0x1ce58
        0x0001cd44:    4840        @H      LDR      r0,[pc,#256] ; [0x1ce48] = 0x1f9ea
        0x0001cd46:    f000fa05    ....    BL       am_hal_pwrctrl_sram_config ; 0x1d154
        0x0001cd4a:    f04f2740    O.@'    MOV      r7,#0x40004000
        0x0001cd4e:    6c78        xl      LDR      r0,[r7,#0x44]
        0x0001cd50:    f440007c    @.|.    ORR      r0,r0,#0xfc0000
        0x0001cd54:    6478        xd      STR      r0,[r7,#0x44]
        0x0001cd56:    2400        .$      MOVS     r4,#0
        0x0001cd58:    63ec        .c      STR      r4,[r5,#0x3c]
        0x0001cd5a:    642c        ,d      STR      r4,[r5,#0x40]
        0x0001cd5c:    646c        ld      STR      r4,[r5,#0x44]
        0x0001cd5e:    64ac        .d      STR      r4,[r5,#0x48]
        0x0001cd60:    64ec        .d      STR      r4,[r5,#0x4c]
        0x0001cd62:    652c        ,e      STR      r4,[r5,#0x50]
        0x0001cd64:    656c        le      STR      r4,[r5,#0x54]
        0x0001cd66:    65ac        .e      STR      r4,[r5,#0x58]
        0x0001cd68:    65ec        .e      STR      r4,[r5,#0x5c]
        0x0001cd6a:    662c        ,f      STR      r4,[r5,#0x60]
        0x0001cd6c:    666c        lf      STR      r4,[r5,#0x64]
        0x0001cd6e:    66ac        .f      STR      r4,[r5,#0x68]
        0x0001cd70:    66ec        .f      STR      r4,[r5,#0x6c]
        0x0001cd72:    672c        ,g      STR      r4,[r5,#0x70]
        0x0001cd74:    676c        lg      STR      r4,[r5,#0x74]
        0x0001cd76:    67ac        .g      STR      r4,[r5,#0x78]
        0x0001cd78:    67ec        .g      STR      r4,[r5,#0x7c]
        0x0001cd7a:    f8c54080    ...@    STR      r4,[r5,#0x80]
        0x0001cd7e:    f8c54084    ...@    STR      r4,[r5,#0x84]
        0x0001cd82:    4832        2H      LDR      r0,[pc,#200] ; [0x1ce4c] = 0x1f7d5
        0x0001cd84:    f7fdfc4c    ..L.    BL       am_hal_daxi_config ; 0x1a620
        0x0001cd88:    2064        d       MOVS     r0,#0x64
        0x0001cd8a:    f7fdfd8f    ....    BL       am_hal_delay_us ; 0x1a8ac
        0x0001cd8e:    6c78        xl      LDR      r0,[r7,#0x44]
        0x0001cd90:    f0400040    @.@.    ORR      r0,r0,#0x40
        0x0001cd94:    6478        xd      STR      r0,[r7,#0x44]
        0x0001cd96:    482e        .H      LDR      r0,[pc,#184] ; [0x1ce50] = 0x40020000
        0x0001cd98:    f8d0137c    ..|.    LDR      r1,[r0,#0x37c]
        0x0001cd9c:    f44101fd    A...    ORR      r1,r1,#0x7e8000
        0x0001cda0:    f04161b0    A..a    ORR      r1,r1,#0x5800000
        0x0001cda4:    f8c0137c    ..|.    STR      r1,[r0,#0x37c]
        0x0001cda8:    492a        *I      LDR      r1,[pc,#168] ; [0x1ce54] = 0x40020444
        0x0001cdaa:    680a        .h      LDR      r2,[r1,#0]
        0x0001cdac:    f422427f    "..B    BIC      r2,r2,#0xff00
        0x0001cdb0:    f5026280    ...b    ADD      r2,r2,#0x400
        0x0001cdb4:    600a        .`      STR      r2,[r1,#0]
        0x0001cdb6:    7871        qx      LDRB     r1,[r6,#1]
        0x0001cdb8:    b9e9        ..      CBNZ     r1,0x1cdf6 ; am_hal_pwrctrl_low_power_init + 202
        0x0001cdba:    f8d0136c    ..l.    LDR      r1,[r0,#0x36c]
        0x0001cdbe:    f3c15105    ...Q    UBFX     r1,r1,#20,#6
        0x0001cdc2:    6131        1a      STR      r1,[r6,#0x10]
        0x0001cdc4:    f8d01088    ....    LDR      r1,[r0,#0x88]
        0x0001cdc8:    f001013f    ..?.    AND      r1,r1,#0x3f
        0x0001cdcc:    6171        qa      STR      r1,[r6,#0x14]
        0x0001cdce:    f8d0136c    ..l.    LDR      r1,[r0,#0x36c]
        0x0001cdd2:    0e89        ..      LSRS     r1,r1,#26
        0x0001cdd4:    61b1        .a      STR      r1,[r6,#0x18]
        0x0001cdd6:    f8d01088    ....    LDR      r1,[r0,#0x88]
        0x0001cdda:    f3c14185    ...A    UBFX     r1,r1,#18,#6
        0x0001cdde:    61f1        .a      STR      r1,[r6,#0x1c]
        0x0001cde0:    6c41        Al      LDR      r1,[r0,#0x44]
        0x0001cde2:    f3c111c6    ....    UBFX     r1,r1,#7,#7
        0x0001cde6:    6231        1b      STR      r1,[r6,#0x20]
        0x0001cde8:    f8d00080    ....    LDR      r0,[r0,#0x80]
        0x0001cdec:    f3c00009    ....    UBFX     r0,r0,#0,#10
        0x0001cdf0:    6270        pb      STR      r0,[r6,#0x24]
        0x0001cdf2:    2001        .       MOVS     r0,#1
        0x0001cdf4:    7070        pp      STRB     r0,[r6,#1]
        0x0001cdf6:    6930        0i      LDR      r0,[r6,#0x10]
        0x0001cdf8:    62f0        .b      STR      r0,[r6,#0x2c]
        0x0001cdfa:    6970        pi      LDR      r0,[r6,#0x14]
        0x0001cdfc:    62b4        .b      STR      r4,[r6,#0x28]
        0x0001cdfe:    2201        ."      MOVS     r2,#1
        0x0001ce00:    6330        0c      STR      r0,[r6,#0x30]
        0x0001ce02:    466b        kF      MOV      r3,sp
        0x0001ce04:    f44f6192    O..a    MOV      r1,#0x490
        0x0001ce08:    4610        .F      MOV      r0,r2
        0x0001ce0a:    f7fdff23    ..#.    BL       am_hal_mram_info_read ; 0x1ac54
        0x0001ce0e:    b988        ..      CBNZ     r0,0x1ce34 ; am_hal_pwrctrl_low_power_init + 264
        0x0001ce10:    9800        ..      LDR      r0,[sp,#0]
        0x0001ce12:    f0100f06    ....    TST      r0,#6
        0x0001ce16:    bf04        ..      ITT      EQ
        0x0001ce18:    2003        .       MOVEQ    r0,#3
        0x0001ce1a:    62b0        .b      STREQ    r0,[r6,#0x28]
        0x0001ce1c:    d00a        ..      BEQ      0x1ce34 ; am_hal_pwrctrl_low_power_init + 264
        0x0001ce1e:    f0100f02    ....    TST      r0,#2
        0x0001ce22:    bf08        ..      IT       EQ
        0x0001ce24:    2006        .       MOVEQ    r0,#6
        0x0001ce26:    d007        ..      BEQ      0x1ce38 ; am_hal_pwrctrl_low_power_init + 268
        0x0001ce28:    f0100f04    ....    TST      r0,#4
        0x0001ce2c:    bf0c        ..      ITE      EQ
        0x0001ce2e:    2009        .       MOVEQ    r0,#9
        0x0001ce30:    62b4        .b      STRNE    r4,[r6,#0x28]
        0x0001ce32:    d001        ..      BEQ      0x1ce38 ; am_hal_pwrctrl_low_power_init + 268
        0x0001ce34:    2000        .       MOVS     r0,#0
        0x0001ce36:    bdf8        ..      POP      {r3-r7,pc}
        0x0001ce38:    62b0        .b      STR      r0,[r6,#0x28]
        0x0001ce3a:    e7fb        ..      B        0x1ce34 ; am_hal_pwrctrl_low_power_init + 264
    $d
        0x0001ce3c:    40021000    ...@    DCD    1073876992
        0x0001ce40:    100000f8    ....    DCD    268435704
        0x0001ce44:    0001f9e4    ....    DCD    129508
        0x0001ce48:    0001f9ea    ....    DCD    129514
        0x0001ce4c:    0001f7d5    ....    DCD    128981
        0x0001ce50:    40020000    ...@    DCD    1073872896
        0x0001ce54:    40020444    D..@    DCD    1073873988
    $t
    i.am_hal_pwrctrl_mcu_memory_config
    am_hal_pwrctrl_mcu_memory_config
        0x0001ce58:    b538        8.      PUSH     {r3-r5,lr}
        0x0001ce5a:    4605        .F      MOV      r5,r0
        0x0001ce5c:    7800        .x      LDRB     r0,[r0,#0]
        0x0001ce5e:    4c43        CL      LDR      r4,[pc,#268] ; [0x1cf6c] = 0x40021000
        0x0001ce60:    b120         .      CBZ      r0,0x1ce6c ; am_hal_pwrctrl_mcu_memory_config + 20
        0x0001ce62:    2801        .(      CMP      r0,#1
        0x0001ce64:    d00a        ..      BEQ      0x1ce7c ; am_hal_pwrctrl_mcu_memory_config + 36
        0x0001ce66:    2802        .(      CMP      r0,#2
        0x0001ce68:    d011        ..      BEQ      0x1ce8e ; am_hal_pwrctrl_mcu_memory_config + 54
        0x0001ce6a:    e018        ..      B        0x1ce9e ; am_hal_pwrctrl_mcu_memory_config + 70
        0x0001ce6c:    6960        `i      LDR      r0,[r4,#0x14]
        0x0001ce6e:    f0200010     ...    BIC      r0,r0,#0x10
        0x0001ce72:    6160        `a      STR      r0,[r4,#0x14]
        0x0001ce74:    6960        `i      LDR      r0,[r4,#0x14]
        0x0001ce76:    f0200020     . .    BIC      r0,r0,#0x20
        0x0001ce7a:    e00f        ..      B        0x1ce9c ; am_hal_pwrctrl_mcu_memory_config + 68
        0x0001ce7c:    6960        `i      LDR      r0,[r4,#0x14]
        0x0001ce7e:    f0400010    @...    ORR      r0,r0,#0x10
        0x0001ce82:    6160        `a      STR      r0,[r4,#0x14]
        0x0001ce84:    6960        `i      LDR      r0,[r4,#0x14]
        0x0001ce86:    f0200020     . .    BIC      r0,r0,#0x20
        0x0001ce8a:    6160        `a      STR      r0,[r4,#0x14]
        0x0001ce8c:    e007        ..      B        0x1ce9e ; am_hal_pwrctrl_mcu_memory_config + 70
        0x0001ce8e:    6960        `i      LDR      r0,[r4,#0x14]
        0x0001ce90:    f0400010    @...    ORR      r0,r0,#0x10
        0x0001ce94:    6160        `a      STR      r0,[r4,#0x14]
        0x0001ce96:    6960        `i      LDR      r0,[r4,#0x14]
        0x0001ce98:    f0400020    @. .    ORR      r0,r0,#0x20
        0x0001ce9c:    6160        `a      STR      r0,[r4,#0x14]
        0x0001ce9e:    78a9        .x      LDRB     r1,[r5,#2]
        0x0001cea0:    6960        `i      LDR      r0,[r4,#0x14]
        0x0001cea2:    f3610002    a...    BFI      r0,r1,#0,#3
        0x0001cea6:    6160        `a      STR      r0,[r4,#0x14]
        0x0001cea8:    7929        )y      LDRB     r1,[r5,#4]
        0x0001ceaa:    6960        `i      LDR      r0,[r4,#0x14]
        0x0001ceac:    f36100c3    a...    BFI      r0,r1,#3,#1
        0x0001ceb0:    6160        `a      STR      r0,[r4,#0x14]
        0x0001ceb2:    2001        .       MOVS     r0,#1
        0x0001ceb4:    9000        ..      STR      r0,[sp,#0]
        0x0001ceb6:    6963        ci      LDR      r3,[r4,#0x14]
        0x0001ceb8:    223f        ?"      MOVS     r2,#0x3f
        0x0001ceba:    492d        -I      LDR      r1,[pc,#180] ; [0x1cf70] = 0x40021018
        0x0001cebc:    2005        .       MOVS     r0,#5
        0x0001cebe:    f7fdfd37    ..7.    BL       am_hal_delay_us_status_check ; 0x1a930
        0x0001cec2:    2800        .(      CMP      r0,#0
        0x0001cec4:    bf18        ..      IT       NE
        0x0001cec6:    bd38        8.      POPNE    {r3-r5,pc}
        0x0001cec8:    69a0        .i      LDR      r0,[r4,#0x18]
        0x0001ceca:    6961        ai      LDR      r1,[r4,#0x14]
        0x0001cecc:    f3c01000    ....    UBFX     r0,r0,#4,#1
        0x0001ced0:    f3c11100    ....    UBFX     r1,r1,#4,#1
        0x0001ced4:    4288        .B      CMP      r0,r1
        0x0001ced6:    d117        ..      BNE      0x1cf08 ; am_hal_pwrctrl_mcu_memory_config + 176
        0x0001ced8:    69a0        .i      LDR      r0,[r4,#0x18]
        0x0001ceda:    6961        ai      LDR      r1,[r4,#0x14]
        0x0001cedc:    f3c01040    ..@.    UBFX     r0,r0,#5,#1
        0x0001cee0:    f3c11140    ..@.    UBFX     r1,r1,#5,#1
        0x0001cee4:    4288        .B      CMP      r0,r1
        0x0001cee6:    d10f        ..      BNE      0x1cf08 ; am_hal_pwrctrl_mcu_memory_config + 176
        0x0001cee8:    69a0        .i      LDR      r0,[r4,#0x18]
        0x0001ceea:    6961        ai      LDR      r1,[r4,#0x14]
        0x0001ceec:    f0000007    ....    AND      r0,r0,#7
        0x0001cef0:    f0010107    ....    AND      r1,r1,#7
        0x0001cef4:    4288        .B      CMP      r0,r1
        0x0001cef6:    d107        ..      BNE      0x1cf08 ; am_hal_pwrctrl_mcu_memory_config + 176
        0x0001cef8:    69a0        .i      LDR      r0,[r4,#0x18]
        0x0001cefa:    6961        ai      LDR      r1,[r4,#0x14]
        0x0001cefc:    f3c000c0    ....    UBFX     r0,r0,#3,#1
        0x0001cf00:    f3c101c0    ....    UBFX     r1,r1,#3,#1
        0x0001cf04:    4288        .B      CMP      r0,r1
        0x0001cf06:    d001        ..      BEQ      0x1cf0c ; am_hal_pwrctrl_mcu_memory_config + 180
        0x0001cf08:    2001        .       MOVS     r0,#1
        0x0001cf0a:    bd38        8.      POP      {r3-r5,pc}
        0x0001cf0c:    7868        hx      LDRB     r0,[r5,#1]
        0x0001cf0e:    2800        .(      CMP      r0,#0
        0x0001cf10:    69e0        .i      LDR      r0,[r4,#0x1c]
        0x0001cf12:    bf14        ..      ITE      NE
        0x0001cf14:    f0200010     ...    BICNE    r0,r0,#0x10
        0x0001cf18:    f0400010    @...    ORREQ    r0,r0,#0x10
        0x0001cf1c:    61e0        .a      STR      r0,[r4,#0x1c]
        0x0001cf1e:    7968        hy      LDRB     r0,[r5,#5]
        0x0001cf20:    2800        .(      CMP      r0,#0
        0x0001cf22:    69e0        .i      LDR      r0,[r4,#0x1c]
        0x0001cf24:    bf14        ..      ITE      NE
        0x0001cf26:    f0200008     ...    BICNE    r0,r0,#8
        0x0001cf2a:    f0400008    @...    ORREQ    r0,r0,#8
        0x0001cf2e:    61e0        .a      STR      r0,[r4,#0x1c]
        0x0001cf30:    78e8        .x      LDRB     r0,[r5,#3]
        0x0001cf32:    2800        .(      CMP      r0,#0
        0x0001cf34:    bf04        ..      ITT      EQ
        0x0001cf36:    69e0        .i      LDREQ    r0,[r4,#0x1c]
        0x0001cf38:    f0400007    @...    ORREQ    r0,r0,#7
        0x0001cf3c:    d013        ..      BEQ      0x1cf66 ; am_hal_pwrctrl_mcu_memory_config + 270
        0x0001cf3e:    2801        .(      CMP      r0,#1
        0x0001cf40:    d008        ..      BEQ      0x1cf54 ; am_hal_pwrctrl_mcu_memory_config + 252
        0x0001cf42:    2803        .(      CMP      r0,#3
        0x0001cf44:    d00b        ..      BEQ      0x1cf5e ; am_hal_pwrctrl_mcu_memory_config + 262
        0x0001cf46:    2807        .(      CMP      r0,#7
        0x0001cf48:    bf04        ..      ITT      EQ
        0x0001cf4a:    69e0        .i      LDREQ    r0,[r4,#0x1c]
        0x0001cf4c:    f0200007     ...    BICEQ    r0,r0,#7
        0x0001cf50:    d009        ..      BEQ      0x1cf66 ; am_hal_pwrctrl_mcu_memory_config + 270
        0x0001cf52:    e009        ..      B        0x1cf68 ; am_hal_pwrctrl_mcu_memory_config + 272
        0x0001cf54:    69e0        .i      LDR      r0,[r4,#0x1c]
        0x0001cf56:    f0200007     ...    BIC      r0,r0,#7
        0x0001cf5a:    1d80        ..      ADDS     r0,r0,#6
        0x0001cf5c:    e003        ..      B        0x1cf66 ; am_hal_pwrctrl_mcu_memory_config + 270
        0x0001cf5e:    69e0        .i      LDR      r0,[r4,#0x1c]
        0x0001cf60:    f0200007     ...    BIC      r0,r0,#7
        0x0001cf64:    1d00        ..      ADDS     r0,r0,#4
        0x0001cf66:    61e0        .a      STR      r0,[r4,#0x1c]
        0x0001cf68:    2000        .       MOVS     r0,#0
        0x0001cf6a:    bd38        8.      POP      {r3-r5,pc}
    $d
        0x0001cf6c:    40021000    ...@    DCD    1073876992
        0x0001cf70:    40021018    ...@    DCD    1073877016
    $t
    i.am_hal_pwrctrl_periph_disable
    am_hal_pwrctrl_periph_disable
        0x0001cf74:    2822        "(      CMP      r0,#0x22
        0x0001cf76:    bf24        $.      ITT      CS
        0x0001cf78:    2006        .       MOVCS    r0,#6
        0x0001cf7a:    4770        pG      BXCS     lr
        0x0001cf7c:    e92d43f8    -..C    PUSH     {r3-r9,lr}
        0x0001cf80:    4941        AI      LDR      r1,[pc,#260] ; [0x1d088] = 0x1f9f0
        0x0001cf82:    4602        .F      MOV      r2,r0
        0x0001cf84:    eb011800    ....    ADD      r8,r1,r0,LSL #4
        0x0001cf88:    2500        .%      MOVS     r5,#0
        0x0001cf8a:    e9d86900    ...i    LDRD     r6,r9,[r8,#0]
        0x0001cf8e:    e9d87402    ...t    LDRD     r7,r4,[r8,#8]
        0x0001cf92:    6831        1h      LDR      r1,[r6,#0]
        0x0001cf94:    ea110f09    ....    TST      r1,r9
        0x0001cf98:    bf04        ..      ITT      EQ
        0x0001cf9a:    2000        .       MOVEQ    r0,#0
        0x0001cf9c:    e8bd83f8    ....    POPEQ    {r3-r9,pc}
        0x0001cfa0:    2a14        .*      CMP      r2,#0x14
        0x0001cfa2:    d123        #.      BNE      0x1cfec ; am_hal_pwrctrl_periph_disable + 120
        0x0001cfa4:    4839        9H      LDR      r0,[pc,#228] ; [0x1d08c] = 0x400c0fe0
        0x0001cfa6:    6800        .h      LDR      r0,[r0,#0]
        0x0001cfa8:    28c0        .(      CMP      r0,#0xc0
        0x0001cfaa:    d11f        ..      BNE      0x1cfec ; am_hal_pwrctrl_periph_disable + 120
        0x0001cfac:    2301        .#      MOVS     r3,#1
        0x0001cfae:    461a        .F      MOV      r2,r3
        0x0001cfb0:    4937        7I      LDR      r1,[pc,#220] ; [0x1d090] = 0x400c0a7c
        0x0001cfb2:    2064        d       MOVS     r0,#0x64
        0x0001cfb4:    f7fdfc90    ....    BL       am_hal_delay_us_status_change ; 0x1a8d8
        0x0001cfb8:    2800        .(      CMP      r0,#0
        0x0001cfba:    bf18        ..      IT       NE
        0x0001cfbc:    e8bd83f8    ....    POPNE    {r3-r9,pc}
        0x0001cfc0:    2301        .#      MOVS     r3,#1
        0x0001cfc2:    461a        .F      MOV      r2,r3
        0x0001cfc4:    4933        3I      LDR      r1,[pc,#204] ; [0x1d094] = 0x400c1f10
        0x0001cfc6:    2064        d       MOVS     r0,#0x64
        0x0001cfc8:    f7fdfc86    ....    BL       am_hal_delay_us_status_change ; 0x1a8d8
        0x0001cfcc:    2800        .(      CMP      r0,#0
        0x0001cfce:    bf18        ..      IT       NE
        0x0001cfd0:    e8bd83f8    ....    POPNE    {r3-r9,pc}
        0x0001cfd4:    4830        0H      LDR      r0,[pc,#192] ; [0x1d098] = 0x400c0a80
        0x0001cfd6:    6801        .h      LDR      r1,[r0,#0]
        0x0001cfd8:    f0410101    A...    ORR      r1,r1,#1
        0x0001cfdc:    6001        .`      STR      r1,[r0,#0]
        0x0001cfde:    482f        /H      LDR      r0,[pc,#188] ; [0x1d09c] = 0x100000f8
        0x0001cfe0:    6a81        .j      LDR      r1,[r0,#0x28]
        0x0001cfe2:    2900        .)      CMP      r1,#0
        0x0001cfe4:    bf1c        ..      ITT      NE
        0x0001cfe6:    2000        .       MOVNE    r0,#0
        0x0001cfe8:    f001f860    ..`.    BLNE     crypto_boost_trims ; 0x1e0ac
        0x0001cfec:    f7fbf9ba    ....    BL       am_hal_interrupt_master_disable ; 0x18364
        0x0001cff0:    9000        ..      STR      r0,[sp,#0]
        0x0001cff2:    6830        0h      LDR      r0,[r6,#0]
        0x0001cff4:    ea200009     ...    BIC      r0,r0,r9
        0x0001cff8:    6030        0`      STR      r0,[r6,#0]
        0x0001cffa:    9800        ..      LDR      r0,[sp,#0]
        0x0001cffc:    f7fbf9b6    ....    BL       am_hal_interrupt_master_set ; 0x1836c
        0x0001d000:    4623        #F      MOV      r3,r4
        0x0001d002:    461a        .F      MOV      r2,r3
        0x0001d004:    4639        9F      MOV      r1,r7
        0x0001d006:    2005        .       MOVS     r0,#5
        0x0001d008:    9500        ..      STR      r5,[sp,#0]
        0x0001d00a:    f7fdfc91    ....    BL       am_hal_delay_us_status_check ; 0x1a930
        0x0001d00e:    2800        .(      CMP      r0,#0
        0x0001d010:    bf08        ..      IT       EQ
        0x0001d012:    e8bd83f8    ....    POPEQ    {r3-r9,pc}
        0x0001d016:    4628        (F      MOV      r0,r5
        0x0001d018:    f8d8200c    ...     LDR      r2,[r8,#0xc]
        0x0001d01c:    f8d81000    ....    LDR      r1,[r8,#0]
        0x0001d020:    f5b27ff0    ....    CMP      r2,#0x1e0
        0x0001d024:    d029        ).      BEQ      0x1d07a ; am_hal_pwrctrl_periph_disable + 262
        0x0001d026:    dc0b        ..      BGT      0x1d040 ; am_hal_pwrctrl_periph_disable + 204
        0x0001d028:    2a1e        .*      CMP      r2,#0x1e
        0x0001d02a:    d020         .      BEQ      0x1d06e ; am_hal_pwrctrl_periph_disable + 250
        0x0001d02c:    2aff        .*      CMP      r2,#0xff
        0x0001d02e:    bf18        ..      IT       NE
        0x0001d030:    e8bd83f8    ....    POPNE    {r3-r9,pc}
        0x0001d034:    680a        .h      LDR      r2,[r1,#0]
        0x0001d036:    f0120fff    ....    TST      r2,#0xff
        0x0001d03a:    d115        ..      BNE      0x1d068 ; am_hal_pwrctrl_periph_disable + 244
        0x0001d03c:    e8bd83f8    ....    POP      {r3-r9,pc}
        0x0001d040:    f5b25ff0    ..._    CMP      r2,#0x1e00
        0x0001d044:    d00a        ..      BEQ      0x1d05c ; am_hal_pwrctrl_periph_disable + 232
        0x0001d046:    f5b23fe0    ...?    CMP      r2,#0x1c000
        0x0001d04a:    bf18        ..      IT       NE
        0x0001d04c:    e8bd83f8    ....    POPNE    {r3-r9,pc}
        0x0001d050:    680a        .h      LDR      r2,[r1,#0]
        0x0001d052:    f4123fe0    ...?    TST      r2,#0x1c000
        0x0001d056:    d107        ..      BNE      0x1d068 ; am_hal_pwrctrl_periph_disable + 244
        0x0001d058:    e8bd83f8    ....    POP      {r3-r9,pc}
        0x0001d05c:    680a        .h      LDR      r2,[r1,#0]
        0x0001d05e:    f4125ff0    ..._    TST      r2,#0x1e00
        0x0001d062:    bf08        ..      IT       EQ
        0x0001d064:    e8bd83f8    ....    POPEQ    {r3-r9,pc}
        0x0001d068:    6809        .h      LDR      r1,[r1,#0]
        0x0001d06a:    e8bd83f8    ....    POP      {r3-r9,pc}
        0x0001d06e:    680a        .h      LDR      r2,[r1,#0]
        0x0001d070:    f0120f1e    ....    TST      r2,#0x1e
        0x0001d074:    d1f8        ..      BNE      0x1d068 ; am_hal_pwrctrl_periph_disable + 244
        0x0001d076:    e8bd83f8    ....    POP      {r3-r9,pc}
        0x0001d07a:    680a        .h      LDR      r2,[r1,#0]
        0x0001d07c:    f4127ff0    ....    TST      r2,#0x1e0
        0x0001d080:    d1f2        ..      BNE      0x1d068 ; am_hal_pwrctrl_periph_disable + 244
        0x0001d082:    e8bd83f8    ....    POP      {r3-r9,pc}
    $d
        0x0001d086:    0000        ..      DCW    0
        0x0001d088:    0001f9f0    ....    DCD    129520
        0x0001d08c:    400c0fe0    ...@    DCD    1074532320
        0x0001d090:    400c0a7c    |..@    DCD    1074530940
        0x0001d094:    400c1f10    ...@    DCD    1074536208
        0x0001d098:    400c0a80    ...@    DCD    1074530944
        0x0001d09c:    100000f8    ....    DCD    268435704
    $t
    i.am_hal_pwrctrl_periph_enable
    am_hal_pwrctrl_periph_enable
        0x0001d0a0:    2822        "(      CMP      r0,#0x22
        0x0001d0a2:    bf24        $.      ITT      CS
        0x0001d0a4:    2006        .       MOVCS    r0,#6
        0x0001d0a6:    4770        pG      BXCS     lr
        0x0001d0a8:    e92d43f8    -..C    PUSH     {r3-r9,lr}
        0x0001d0ac:    4926        &I      LDR      r1,[pc,#152] ; [0x1d148] = 0x1f9f0
        0x0001d0ae:    4604        .F      MOV      r4,r0
        0x0001d0b0:    eb011004    ....    ADD      r0,r1,r4,LSL #4
        0x0001d0b4:    e9d06502    ...e    LDRD     r6,r5,[r0,#8]
        0x0001d0b8:    e9d08900    ....    LDRD     r8,r9,[r0,#0]
        0x0001d0bc:    f8d80000    ....    LDR      r0,[r8,#0]
        0x0001d0c0:    ea100f09    ....    TST      r0,r9
        0x0001d0c4:    d13c        <.      BNE      0x1d140 ; am_hal_pwrctrl_periph_enable + 160
        0x0001d0c6:    4f21        !O      LDR      r7,[pc,#132] ; [0x1d14c] = 0x100000f8
        0x0001d0c8:    2c14        .,      CMP      r4,#0x14
        0x0001d0ca:    d105        ..      BNE      0x1d0d8 ; am_hal_pwrctrl_periph_enable + 56
        0x0001d0cc:    6ab9        .j      LDR      r1,[r7,#0x28]
        0x0001d0ce:    2900        .)      CMP      r1,#0
        0x0001d0d0:    bf1c        ..      ITT      NE
        0x0001d0d2:    2001        .       MOVNE    r0,#1
        0x0001d0d4:    f000ffea    ....    BLNE     crypto_boost_trims ; 0x1e0ac
        0x0001d0d8:    f7fbf944    ..D.    BL       am_hal_interrupt_master_disable ; 0x18364
        0x0001d0dc:    9000        ..      STR      r0,[sp,#0]
        0x0001d0de:    f8d80000    ....    LDR      r0,[r8,#0]
        0x0001d0e2:    ea400009    @...    ORR      r0,r0,r9
        0x0001d0e6:    f8c80000    ....    STR      r0,[r8,#0]
        0x0001d0ea:    9800        ..      LDR      r0,[sp,#0]
        0x0001d0ec:    f7fbf93e    ..>.    BL       am_hal_interrupt_master_set ; 0x1836c
        0x0001d0f0:    2001        .       MOVS     r0,#1
        0x0001d0f2:    462b        +F      MOV      r3,r5
        0x0001d0f4:    9000        ..      STR      r0,[sp,#0]
        0x0001d0f6:    461a        .F      MOV      r2,r3
        0x0001d0f8:    4631        1F      MOV      r1,r6
        0x0001d0fa:    2005        .       MOVS     r0,#5
        0x0001d0fc:    f7fdfc18    ....    BL       am_hal_delay_us_status_check ; 0x1a930
        0x0001d100:    ea5f0800    _...    MOVS     r8,r0
        0x0001d104:    d00a        ..      BEQ      0x1d11c ; am_hal_pwrctrl_periph_enable + 124
        0x0001d106:    2c14        .,      CMP      r4,#0x14
        0x0001d108:    d105        ..      BNE      0x1d116 ; am_hal_pwrctrl_periph_enable + 118
        0x0001d10a:    6ab9        .j      LDR      r1,[r7,#0x28]
        0x0001d10c:    2900        .)      CMP      r1,#0
        0x0001d10e:    bf1c        ..      ITT      NE
        0x0001d110:    2000        .       MOVNE    r0,#0
        0x0001d112:    f000ffcb    ....    BLNE     crypto_boost_trims ; 0x1e0ac
        0x0001d116:    4640        @F      MOV      r0,r8
        0x0001d118:    e8bd83f8    ....    POP      {r3-r9,pc}
        0x0001d11c:    2c14        .,      CMP      r4,#0x14
        0x0001d11e:    d109        ..      BNE      0x1d134 ; am_hal_pwrctrl_periph_enable + 148
        0x0001d120:    2301        .#      MOVS     r3,#1
        0x0001d122:    461a        .F      MOV      r2,r3
        0x0001d124:    490a        .I      LDR      r1,[pc,#40] ; [0x1d150] = 0x400c1f10
        0x0001d126:    2064        d       MOVS     r0,#0x64
        0x0001d128:    f7fdfbd6    ....    BL       am_hal_delay_us_status_change ; 0x1a8d8
        0x0001d12c:    2800        .(      CMP      r0,#0
        0x0001d12e:    bf18        ..      IT       NE
        0x0001d130:    e8bd83f8    ....    POPNE    {r3-r9,pc}
        0x0001d134:    6830        0h      LDR      r0,[r6,#0]
        0x0001d136:    4228        (B      TST      r0,r5
        0x0001d138:    bf04        ..      ITT      EQ
        0x0001d13a:    2001        .       MOVEQ    r0,#1
        0x0001d13c:    e8bd83f8    ....    POPEQ    {r3-r9,pc}
        0x0001d140:    2000        .       MOVS     r0,#0
        0x0001d142:    e8bd83f8    ....    POP      {r3-r9,pc}
    $d
        0x0001d146:    0000        ..      DCW    0
        0x0001d148:    0001f9f0    ....    DCD    129520
        0x0001d14c:    100000f8    ....    DCD    268435704
        0x0001d150:    400c1f10    ...@    DCD    1074536208
    $t
    i.am_hal_pwrctrl_sram_config
    am_hal_pwrctrl_sram_config
        0x0001d154:    b538        8.      PUSH     {r3-r5,lr}
        0x0001d156:    4c27        'L      LDR      r4,[pc,#156] ; [0x1d1f4] = 0x40021000
        0x0001d158:    4605        .F      MOV      r5,r0
        0x0001d15a:    7801        .x      LDRB     r1,[r0,#0]
        0x0001d15c:    6a60        `j      LDR      r0,[r4,#0x24]
        0x0001d15e:    f3610001    a...    BFI      r0,r1,#0,#2
        0x0001d162:    6260        `b      STR      r0,[r4,#0x24]
        0x0001d164:    2001        .       MOVS     r0,#1
        0x0001d166:    9000        ..      STR      r0,[sp,#0]
        0x0001d168:    6a63        cj      LDR      r3,[r4,#0x24]
        0x0001d16a:    2203        ."      MOVS     r2,#3
        0x0001d16c:    4922        "I      LDR      r1,[pc,#136] ; [0x1d1f8] = 0x40021028
        0x0001d16e:    2005        .       MOVS     r0,#5
        0x0001d170:    f7fdfbde    ....    BL       am_hal_delay_us_status_check ; 0x1a930
        0x0001d174:    2800        .(      CMP      r0,#0
        0x0001d176:    bf18        ..      IT       NE
        0x0001d178:    bd38        8.      POPNE    {r3-r5,pc}
        0x0001d17a:    6aa0        .j      LDR      r0,[r4,#0x28]
        0x0001d17c:    6a61        aj      LDR      r1,[r4,#0x24]
        0x0001d17e:    f0000003    ....    AND      r0,r0,#3
        0x0001d182:    f0010103    ....    AND      r1,r1,#3
        0x0001d186:    4288        .B      CMP      r0,r1
        0x0001d188:    bf1c        ..      ITT      NE
        0x0001d18a:    2001        .       MOVNE    r0,#1
        0x0001d18c:    bd38        8.      POPNE    {r3-r5,pc}
        0x0001d18e:    7869        ix      LDRB     r1,[r5,#1]
        0x0001d190:    6ae0        .j      LDR      r0,[r4,#0x2c]
        0x0001d192:    f3610083    a...    BFI      r0,r1,#2,#2
        0x0001d196:    62e0        .b      STR      r0,[r4,#0x2c]
        0x0001d198:    78a9        .x      LDRB     r1,[r5,#2]
        0x0001d19a:    6ae0        .j      LDR      r0,[r4,#0x2c]
        0x0001d19c:    f3611087    a...    BFI      r0,r1,#6,#2
        0x0001d1a0:    62e0        .b      STR      r0,[r4,#0x2c]
        0x0001d1a2:    78e9        .x      LDRB     r1,[r5,#3]
        0x0001d1a4:    6ae0        .j      LDR      r0,[r4,#0x2c]
        0x0001d1a6:    f3612009    a..     BFI      r0,r1,#8,#2
        0x0001d1aa:    62e0        .b      STR      r0,[r4,#0x2c]
        0x0001d1ac:    7929        )y      LDRB     r1,[r5,#4]
        0x0001d1ae:    6ae0        .j      LDR      r0,[r4,#0x2c]
        0x0001d1b0:    f3611005    a...    BFI      r0,r1,#4,#2
        0x0001d1b4:    62e0        .b      STR      r0,[r4,#0x2c]
        0x0001d1b6:    7968        hy      LDRB     r0,[r5,#5]
        0x0001d1b8:    2800        .(      CMP      r0,#0
        0x0001d1ba:    bf04        ..      ITT      EQ
        0x0001d1bc:    6ae0        .j      LDREQ    r0,[r4,#0x2c]
        0x0001d1be:    f0400003    @...    ORREQ    r0,r0,#3
        0x0001d1c2:    d00e        ..      BEQ      0x1d1e2 ; am_hal_pwrctrl_sram_config + 142
        0x0001d1c4:    2801        .(      CMP      r0,#1
        0x0001d1c6:    d008        ..      BEQ      0x1d1da ; am_hal_pwrctrl_sram_config + 134
        0x0001d1c8:    2802        .(      CMP      r0,#2
        0x0001d1ca:    d00d        ..      BEQ      0x1d1e8 ; am_hal_pwrctrl_sram_config + 148
        0x0001d1cc:    2803        .(      CMP      r0,#3
        0x0001d1ce:    bf04        ..      ITT      EQ
        0x0001d1d0:    6ae0        .j      LDREQ    r0,[r4,#0x2c]
        0x0001d1d2:    f0200003     ...    BICEQ    r0,r0,#3
        0x0001d1d6:    d004        ..      BEQ      0x1d1e2 ; am_hal_pwrctrl_sram_config + 142
        0x0001d1d8:    e004        ..      B        0x1d1e4 ; am_hal_pwrctrl_sram_config + 144
        0x0001d1da:    6ae0        .j      LDR      r0,[r4,#0x2c]
        0x0001d1dc:    f0200003     ...    BIC      r0,r0,#3
        0x0001d1e0:    1c80        ..      ADDS     r0,r0,#2
        0x0001d1e2:    62e0        .b      STR      r0,[r4,#0x2c]
        0x0001d1e4:    2000        .       MOVS     r0,#0
        0x0001d1e6:    bd38        8.      POP      {r3-r5,pc}
        0x0001d1e8:    6ae0        .j      LDR      r0,[r4,#0x2c]
        0x0001d1ea:    f0200003     ...    BIC      r0,r0,#3
        0x0001d1ee:    1c40        @.      ADDS     r0,r0,#1
        0x0001d1f0:    e7f7        ..      B        0x1d1e2 ; am_hal_pwrctrl_sram_config + 142
    $d
        0x0001d1f2:    0000        ..      DCW    0
        0x0001d1f4:    40021000    ...@    DCD    1073876992
        0x0001d1f8:    40021028    (..@    DCD    1073877032
    $t
    i.am_hal_rtc_osc_disable
    am_hal_rtc_osc_disable
        0x0001d1fc:    4803        .H      LDR      r0,[pc,#12] ; [0x1d20c] = 0x40004800
        0x0001d1fe:    6801        .h      LDR      r1,[r0,#0]
        0x0001d200:    f0410110    A...    ORR      r1,r1,#0x10
        0x0001d204:    6001        .`      STR      r1,[r0,#0]
        0x0001d206:    2000        .       MOVS     r0,#0
        0x0001d208:    4770        pG      BX       lr
    $d
        0x0001d20a:    0000        ..      DCW    0
        0x0001d20c:    40004800    .H.@    DCD    1073760256
    $t
    i.am_hal_sysctrl_sleep
    am_hal_sysctrl_sleep
        0x0001d210:    b5f0        ..      PUSH     {r4-r7,lr}
        0x0001d212:    4607        .F      MOV      r7,r0
        0x0001d214:    4833        3H      LDR      r0,[pc,#204] ; [0x1d2e4] = 0xf0000004
        0x0001d216:    b083        ..      SUB      sp,sp,#0xc
        0x0001d218:    4468        hD      ADD      r0,sp,r0
        0x0001d21a:    f5b02fc0    .../    CMP      r0,#0x60000
        0x0001d21e:    d300        ..      BCC      0x1d222 ; am_hal_sysctrl_sleep + 18
        0x0001d220:    e7fe        ..      B        0x1d220 ; am_hal_sysctrl_sleep + 16
        0x0001d222:    2600        .&      MOVS     r6,#0
        0x0001d224:    f7fbf89e    ....    BL       am_hal_interrupt_master_disable ; 0x18364
        0x0001d228:    492f        /I      LDR      r1,[pc,#188] ; [0x1d2e8] = 0x40021000
        0x0001d22a:    9000        ..      STR      r0,[sp,#0]
        0x0001d22c:    f8d10108    ....    LDR      r0,[r1,#0x108]
        0x0001d230:    f3c01001    ....    UBFX     r0,r0,#4,#2
        0x0001d234:    2803        .(      CMP      r0,#3
        0x0001d236:    bf0c        ..      ITE      EQ
        0x0001d238:    2001        .       MOVEQ    r0,#1
        0x0001d23a:    2000        .       MOVNE    r0,#0
        0x0001d23c:    4d2b        +M      LDR      r5,[pc,#172] ; [0x1d2ec] = 0xe000ed10
        0x0001d23e:    4c2c        ,L      LDR      r4,[pc,#176] ; [0x1d2f0] = 0x40020000
        0x0001d240:    b127        '.      CBZ      r7,0x1d24c ; am_hal_sysctrl_sleep + 60
        0x0001d242:    f8d42250    ..P"    LDR      r2,[r4,#0x250]
        0x0001d246:    f0120f01    ....    TST      r2,#1
        0x0001d24a:    d003        ..      BEQ      0x1d254 ; am_hal_sysctrl_sleep + 68
        0x0001d24c:    6828        (h      LDR      r0,[r5,#0]
        0x0001d24e:    f0200004     ...    BIC      r0,r0,#4
        0x0001d252:    e023        #.      B        0x1d29c ; am_hal_sysctrl_sleep + 140
        0x0001d254:    b1f8        ..      CBZ      r0,0x1d296 ; am_hal_sysctrl_sleep + 134
        0x0001d256:    6908        .i      LDR      r0,[r1,#0x10]
        0x0001d258:    f4106f80    ...o    TST      r0,#0x400
        0x0001d25c:    bf04        ..      ITT      EQ
        0x0001d25e:    6888        .h      LDREQ    r0,[r1,#8]
        0x0001d260:    f030407e    0.~@    BICSEQ   r0,r0,#0xfe000000
        0x0001d264:    d117        ..      BNE      0x1d296 ; am_hal_sysctrl_sleep + 134
        0x0001d266:    4823        #H      LDR      r0,[pc,#140] ; [0x1d2f4] = 0x10000104
        0x0001d268:    2601        .&      MOVS     r6,#1
        0x0001d26a:    7801        .x      LDRB     r1,[r0,#0]
        0x0001d26c:    f8d40370    ..p.    LDR      r0,[r4,#0x370]
        0x0001d270:    f3615019    a..P    BFI      r0,r1,#20,#6
        0x0001d274:    f8c40370    ..p.    STR      r0,[r4,#0x370]
        0x0001d278:    f8d40380    ....    LDR      r0,[r4,#0x380]
        0x0001d27c:    f0204000     ..@    BIC      r0,r0,#0x80000000
        0x0001d280:    f8c40380    ....    STR      r0,[r4,#0x380]
        0x0001d284:    f8d40380    ....    LDR      r0,[r4,#0x380]
        0x0001d288:    f0204080     ..@    BIC      r0,r0,#0x40000000
        0x0001d28c:    f8c40380    ....    STR      r0,[r4,#0x380]
        0x0001d290:    2000        .       MOVS     r0,#0
        0x0001d292:    f000fdb9    ....    BL       buck_ldo_update_override ; 0x1de08
        0x0001d296:    6828        (h      LDR      r0,[r5,#0]
        0x0001d298:    f0400004    @...    ORR      r0,r0,#4
        0x0001d29c:    6028        (`      STR      r0,[r5,#0]
        0x0001d29e:    2100        .!      MOVS     r1,#0
        0x0001d2a0:    2001        .       MOVS     r0,#1
        0x0001d2a2:    f7fdfa09    ....    BL       am_hal_daxi_control ; 0x1a6b8
        0x0001d2a6:    bf30        0.      WFI      
        0x0001d2a8:    f3bf8f6f    ..o.    ISB      
        0x0001d2ac:    b1a6        ..      CBZ      r6,0x1d2d8 ; am_hal_sysctrl_sleep + 200
        0x0001d2ae:    2001        .       MOVS     r0,#1
        0x0001d2b0:    f000fdaa    ....    BL       buck_ldo_update_override ; 0x1de08
        0x0001d2b4:    f8d40380    ....    LDR      r0,[r4,#0x380]
        0x0001d2b8:    f0404000    @..@    ORR      r0,r0,#0x80000000
        0x0001d2bc:    f8c40380    ....    STR      r0,[r4,#0x380]
        0x0001d2c0:    f8d40380    ....    LDR      r0,[r4,#0x380]
        0x0001d2c4:    f0404080    @..@    ORR      r0,r0,#0x40000000
        0x0001d2c8:    f8c40380    ....    STR      r0,[r4,#0x380]
        0x0001d2cc:    f8d40370    ..p.    LDR      r0,[r4,#0x370]
        0x0001d2d0:    f020707c     .|p    BIC      r0,r0,#0x3f00000
        0x0001d2d4:    f8c40370    ..p.    STR      r0,[r4,#0x370]
        0x0001d2d8:    9800        ..      LDR      r0,[sp,#0]
        0x0001d2da:    f7fbf847    ..G.    BL       am_hal_interrupt_master_set ; 0x1836c
        0x0001d2de:    b003        ..      ADD      sp,sp,#0xc
        0x0001d2e0:    bdf0        ..      POP      {r4-r7,pc}
    $d
        0x0001d2e2:    0000        ..      DCW    0
        0x0001d2e4:    f0000004    ....    DCD    4026531844
        0x0001d2e8:    40021000    ...@    DCD    1073876992
        0x0001d2ec:    e000ed10    ....    DCD    3758157072
        0x0001d2f0:    40020000    ...@    DCD    1073872896
        0x0001d2f4:    10000104    ....    DCD    268435716
    $t
    i.am_hal_tpiu_enable
    am_hal_tpiu_enable
        0x0001d2f8:    4914        .I      LDR      r1,[pc,#80] ; [0x1d34c] = 0xe0040000
        0x0001d2fa:    2200        ."      MOVS     r2,#0
        0x0001d2fc:    f8c12304    ...#    STR      r2,[r1,#0x304]
        0x0001d300:    2301        .#      MOVS     r3,#1
        0x0001d302:    604b        K`      STR      r3,[r1,#4]
        0x0001d304:    f8dfc048    ..H.    LDR      r12,[pc,#72] ; [0x1d350] = 0x1da381
        0x0001d308:    f5a04361    ..aC    SUB      r3,r0,#0xe100
        0x0001d30c:    4563        cE      CMP      r3,r12
        0x0001d30e:    bf28        (.      IT       CS
        0x0001d310:    4810        .H      LDRCS    r0,[pc,#64] ; [0x1d354] = 0xf4240
        0x0001d312:    4b11        .K      LDR      r3,[pc,#68] ; [0x1d358] = 0x2dc6c00
        0x0001d314:    fbb3f0f0    ....    UDIV     r0,r3,r0
        0x0001d318:    1e40        @.      SUBS     r0,r0,#1
        0x0001d31a:    b280        ..      UXTH     r0,r0
        0x0001d31c:    6108        .a      STR      r0,[r1,#0x10]
        0x0001d31e:    2002        .       MOVS     r0,#2
        0x0001d320:    f8c100f0    ....    STR      r0,[r1,#0xf0]
        0x0001d324:    480d        .H      LDR      r0,[pc,#52] ; [0x1d35c] = 0xe0040f00
        0x0001d326:    6002        .`      STR      r2,[r0,#0]
        0x0001d328:    480d        .H      LDR      r0,[pc,#52] ; [0x1d360] = 0x40020000
        0x0001d32a:    f8d01250    ..P.    LDR      r1,[r0,#0x250]
        0x0001d32e:    f021010e    !...    BIC      r1,r1,#0xe
        0x0001d332:    1d09        ..      ADDS     r1,r1,#4
        0x0001d334:    f8c01250    ..P.    STR      r1,[r0,#0x250]
        0x0001d338:    f8d01250    ..P.    LDR      r1,[r0,#0x250]
        0x0001d33c:    f0410101    A...    ORR      r1,r1,#1
        0x0001d340:    f8c01250    ..P.    STR      r1,[r0,#0x250]
        0x0001d344:    2064        d       MOVS     r0,#0x64
        0x0001d346:    f7fdbab1    ....    B        am_hal_delay_us ; 0x1a8ac
    $d
        0x0001d34a:    0000        ..      DCW    0
        0x0001d34c:    e0040000    ....    DCD    3758358528
        0x0001d350:    001da381    ....    DCD    1942401
        0x0001d354:    000f4240    @B..    DCD    1000000
        0x0001d358:    02dc6c00    .l..    DCD    48000000
        0x0001d35c:    e0040f00    ....    DCD    3758362368
        0x0001d360:    40020000    ...@    DCD    1073872896
    $t
    i.am_mspi2_isr
    am_mspi2_isr
        0x0001d364:    b508        ..      PUSH     {r3,lr}
        0x0001d366:    2200        ."      MOVS     r2,#0
        0x0001d368:    4669        iF      MOV      r1,sp
        0x0001d36a:    4807        .H      LDR      r0,[pc,#28] ; [0x1d388] = 0x10000004
        0x0001d36c:    6800        .h      LDR      r0,[r0,#0]
        0x0001d36e:    f7fff8a7    ....    BL       am_hal_mspi_interrupt_status_get ; 0x1c4c0
        0x0001d372:    4805        .H      LDR      r0,[pc,#20] ; [0x1d388] = 0x10000004
        0x0001d374:    9900        ..      LDR      r1,[sp,#0]
        0x0001d376:    6800        .h      LDR      r0,[r0,#0]
        0x0001d378:    f7fefeee    ....    BL       am_hal_mspi_interrupt_clear ; 0x1c158
        0x0001d37c:    4802        .H      LDR      r0,[pc,#8] ; [0x1d388] = 0x10000004
        0x0001d37e:    9900        ..      LDR      r1,[sp,#0]
        0x0001d380:    6800        .h      LDR      r0,[r0,#0]
        0x0001d382:    f7feff3d    ..=.    BL       am_hal_mspi_interrupt_service ; 0x1c200
        0x0001d386:    bd08        ..      POP      {r3,pc}
    $d
        0x0001d388:    10000004    ....    DCD    268435460
    $t
    i.am_util_delay_us
    am_util_delay_us
        0x0001d38c:    b510        ..      PUSH     {r4,lr}
        0x0001d38e:    4604        .F      MOV      r4,r0
        0x0001d390:    4620         F      MOV      r0,r4
        0x0001d392:    f7fdfa8b    ....    BL       am_hal_delay_us ; 0x1a8ac
        0x0001d396:    bd10        ..      POP      {r4,pc}
    i.am_util_faultisr_collect_data
    am_util_faultisr_collect_data
        0x0001d398:    b092        ..      SUB      sp,sp,#0x48
        0x0001d39a:    4605        .F      MOV      r5,r0
        0x0001d39c:    2118        .!      MOVS     r1,#0x18
        0x0001d39e:    4668        hF      MOV      r0,sp
        0x0001d3a0:    f7fbf88b    ....    BL       __aeabi_memclr4 ; 0x184ba
        0x0001d3a4:    2400        .$      MOVS     r4,#0
        0x0001d3a6:    9410        ..      STR      r4,[sp,#0x40]
        0x0001d3a8:    487e        ~H      LDR      r0,[pc,#504] ; [0x1d5a4] = 0xe000ed28
        0x0001d3aa:    6800        .h      LDR      r0,[r0,#0]
        0x0001d3ac:    9010        ..      STR      r0,[sp,#0x40]
        0x0001d3ae:    9810        ..      LDR      r0,[sp,#0x40]
        0x0001d3b0:    b2c0        ..      UXTB     r0,r0
        0x0001d3b2:    f88d0044    ..D.    STRB     r0,[sp,#0x44]
        0x0001d3b6:    9810        ..      LDR      r0,[sp,#0x40]
        0x0001d3b8:    0a00        ..      LSRS     r0,r0,#8
        0x0001d3ba:    f88d0045    ..E.    STRB     r0,[sp,#0x45]
        0x0001d3be:    9810        ..      LDR      r0,[sp,#0x40]
        0x0001d3c0:    f64f71ff    O..q    MOV      r1,#0xffff
        0x0001d3c4:    ea014010    ...@    AND      r0,r1,r0,LSR #16
        0x0001d3c8:    f8ad0046    ..F.    STRH     r0,[sp,#0x46]
        0x0001d3cc:    4875        uH      LDR      r0,[pc,#468] ; [0x1d5a4] = 0xe000ed28
        0x0001d3ce:    3010        .0      ADDS     r0,r0,#0x10
        0x0001d3d0:    6800        .h      LDR      r0,[r0,#0]
        0x0001d3d2:    900f        ..      STR      r0,[sp,#0x3c]
        0x0001d3d4:    4628        (F      MOV      r0,r5
        0x0001d3d6:    f000fd09    ....    BL       am_valid_sp ; 0x1ddec
        0x0001d3da:    b3a0        ..      CBZ      r0,0x1d446 ; am_util_faultisr_collect_data + 174
        0x0001d3dc:    f89d0045    ..E.    LDRB     r0,[sp,#0x45]
        0x0001d3e0:    f0000002    ....    AND      r0,r0,#2
        0x0001d3e4:    b120         .      CBZ      r0,0x1d3f0 ; am_util_faultisr_collect_data + 88
        0x0001d3e6:    4629        )F      MOV      r1,r5
        0x0001d3e8:    2006        .       MOVS     r0,#6
        0x0001d3ea:    f7faffb3    ....    BL       getStackedReg ; 0x18354
        0x0001d3ee:    e001        ..      B        0x1d3f4 ; am_util_faultisr_collect_data + 92
        0x0001d3f0:    f04f30ff    O..0    MOV      r0,#0xffffffff
        0x0001d3f4:    900e        ..      STR      r0,[sp,#0x38]
        0x0001d3f6:    4629        )F      MOV      r1,r5
        0x0001d3f8:    2000        .       MOVS     r0,#0
        0x0001d3fa:    f7faffab    ....    BL       getStackedReg ; 0x18354
        0x0001d3fe:    9006        ..      STR      r0,[sp,#0x18]
        0x0001d400:    4629        )F      MOV      r1,r5
        0x0001d402:    2001        .       MOVS     r0,#1
        0x0001d404:    f7faffa6    ....    BL       getStackedReg ; 0x18354
        0x0001d408:    9007        ..      STR      r0,[sp,#0x1c]
        0x0001d40a:    4629        )F      MOV      r1,r5
        0x0001d40c:    2002        .       MOVS     r0,#2
        0x0001d40e:    f7faffa1    ....    BL       getStackedReg ; 0x18354
        0x0001d412:    9008        ..      STR      r0,[sp,#0x20]
        0x0001d414:    4629        )F      MOV      r1,r5
        0x0001d416:    2003        .       MOVS     r0,#3
        0x0001d418:    f7faff9c    ....    BL       getStackedReg ; 0x18354
        0x0001d41c:    9009        ..      STR      r0,[sp,#0x24]
        0x0001d41e:    4629        )F      MOV      r1,r5
        0x0001d420:    2004        .       MOVS     r0,#4
        0x0001d422:    f7faff97    ....    BL       getStackedReg ; 0x18354
        0x0001d426:    900a        ..      STR      r0,[sp,#0x28]
        0x0001d428:    4629        )F      MOV      r1,r5
        0x0001d42a:    2005        .       MOVS     r0,#5
        0x0001d42c:    f7faff92    ....    BL       getStackedReg ; 0x18354
        0x0001d430:    900b        ..      STR      r0,[sp,#0x2c]
        0x0001d432:    4629        )F      MOV      r1,r5
        0x0001d434:    2006        .       MOVS     r0,#6
        0x0001d436:    f7faff8d    ....    BL       getStackedReg ; 0x18354
        0x0001d43a:    900c        ..      STR      r0,[sp,#0x30]
        0x0001d43c:    4629        )F      MOV      r1,r5
        0x0001d43e:    2007        .       MOVS     r0,#7
        0x0001d440:    f7faff88    ....    BL       getStackedReg ; 0x18354
        0x0001d444:    900d        ..      STR      r0,[sp,#0x34]
        0x0001d446:    4668        hF      MOV      r0,sp
        0x0001d448:    f7fdfaad    ....    BL       am_hal_fault_status_get ; 0x1a9a6
        0x0001d44c:    a056        V.      ADR      r0,{pc}+0x15c ; 0x1d5a8
        0x0001d44e:    f000fabf    ....    BL       am_util_stdio_printf ; 0x1d9d0
        0x0001d452:    4628        (F      MOV      r0,r5
        0x0001d454:    f000fcca    ....    BL       am_valid_sp ; 0x1ddec
        0x0001d458:    b918        ..      CBNZ     r0,0x1d462 ; am_util_faultisr_collect_data + 202
        0x0001d45a:    485a        ZH      LDR      r0,[pc,#360] ; [0x1d5c4] = 0x1fca4
        0x0001d45c:    f000fab8    ....    BL       am_util_stdio_printf ; 0x1d9d0
        0x0001d460:    e022        ".      B        0x1d4a8 ; am_util_faultisr_collect_data + 272
        0x0001d462:    a059        Y.      ADR      r0,{pc}+0x166 ; 0x1d5c8
        0x0001d464:    f000fab4    ....    BL       am_util_stdio_printf ; 0x1d9d0
        0x0001d468:    9906        ..      LDR      r1,[sp,#0x18]
        0x0001d46a:    a05e        ^.      ADR      r0,{pc}+0x17a ; 0x1d5e4
        0x0001d46c:    f000fab0    ....    BL       am_util_stdio_printf ; 0x1d9d0
        0x0001d470:    9907        ..      LDR      r1,[sp,#0x1c]
        0x0001d472:    a061        a.      ADR      r0,{pc}+0x186 ; 0x1d5f8
        0x0001d474:    f000faac    ....    BL       am_util_stdio_printf ; 0x1d9d0
        0x0001d478:    9908        ..      LDR      r1,[sp,#0x20]
        0x0001d47a:    a064        d.      ADR      r0,{pc}+0x192 ; 0x1d60c
        0x0001d47c:    f000faa8    ....    BL       am_util_stdio_printf ; 0x1d9d0
        0x0001d480:    9909        ..      LDR      r1,[sp,#0x24]
        0x0001d482:    a067        g.      ADR      r0,{pc}+0x19e ; 0x1d620
        0x0001d484:    f000faa4    ....    BL       am_util_stdio_printf ; 0x1d9d0
        0x0001d488:    990a        ..      LDR      r1,[sp,#0x28]
        0x0001d48a:    a06a        j.      ADR      r0,{pc}+0x1aa ; 0x1d634
        0x0001d48c:    f000faa0    ....    BL       am_util_stdio_printf ; 0x1d9d0
        0x0001d490:    990b        ..      LDR      r1,[sp,#0x2c]
        0x0001d492:    a06d        m.      ADR      r0,{pc}+0x1b6 ; 0x1d648
        0x0001d494:    f000fa9c    ....    BL       am_util_stdio_printf ; 0x1d9d0
        0x0001d498:    990c        ..      LDR      r1,[sp,#0x30]
        0x0001d49a:    a070        p.      ADR      r0,{pc}+0x1c2 ; 0x1d65c
        0x0001d49c:    f000fa98    ....    BL       am_util_stdio_printf ; 0x1d9d0
        0x0001d4a0:    990d        ..      LDR      r1,[sp,#0x34]
        0x0001d4a2:    a073        s.      ADR      r0,{pc}+0x1ce ; 0x1d670
        0x0001d4a4:    f000fa94    ....    BL       am_util_stdio_printf ; 0x1d9d0
        0x0001d4a8:    a076        v.      ADR      r0,{pc}+0x1dc ; 0x1d684
        0x0001d4aa:    f000fa91    ....    BL       am_util_stdio_printf ; 0x1d9d0
        0x0001d4ae:    990e        ..      LDR      r1,[sp,#0x38]
        0x0001d4b0:    a07a        z.      ADR      r0,{pc}+0x1ec ; 0x1d69c
        0x0001d4b2:    f000fa8d    ....    BL       am_util_stdio_printf ; 0x1d9d0
        0x0001d4b6:    990f        ..      LDR      r1,[sp,#0x3c]
        0x0001d4b8:    a07f        ..      ADR      r0,{pc}+0x200 ; 0x1d6b8
        0x0001d4ba:    f000fa89    ....    BL       am_util_stdio_printf ; 0x1d9d0
        0x0001d4be:    f89d1044    ..D.    LDRB     r1,[sp,#0x44]
        0x0001d4c2:    a087        ..      ADR      r0,{pc}+0x21e ; 0x1d6e0
        0x0001d4c4:    f000fa84    ....    BL       am_util_stdio_printf ; 0x1d9d0
        0x0001d4c8:    f8bd1046    ..F.    LDRH     r1,[sp,#0x46]
        0x0001d4cc:    a090        ..      ADR      r0,{pc}+0x244 ; 0x1d710
        0x0001d4ce:    f000fa7f    ....    BL       am_util_stdio_printf ; 0x1d9d0
        0x0001d4d2:    f89d1045    ..E.    LDRB     r1,[sp,#0x45]
        0x0001d4d6:    a099        ..      ADR      r0,{pc}+0x266 ; 0x1d73c
        0x0001d4d8:    f000fa7a    ..z.    BL       am_util_stdio_printf ; 0x1d9d0
        0x0001d4dc:    2480        .$      MOVS     r4,#0x80
        0x0001d4de:    e037        7.      B        0x1d550 ; am_util_faultisr_collect_data + 440
        0x0001d4e0:    f89d0045    ..E.    LDRB     r0,[sp,#0x45]
        0x0001d4e4:    4020         @      ANDS     r0,r0,r4
        0x0001d4e6:    2810        .(      CMP      r0,#0x10
        0x0001d4e8:    d01b        ..      BEQ      0x1d522 ; am_util_faultisr_collect_data + 394
        0x0001d4ea:    dc08        ..      BGT      0x1d4fe ; am_util_faultisr_collect_data + 358
        0x0001d4ec:    2801        .(      CMP      r0,#1
        0x0001d4ee:    d028        (.      BEQ      0x1d542 ; am_util_faultisr_collect_data + 426
        0x0001d4f0:    2802        .(      CMP      r0,#2
        0x0001d4f2:    d022        ".      BEQ      0x1d53a ; am_util_faultisr_collect_data + 418
        0x0001d4f4:    2804        .(      CMP      r0,#4
        0x0001d4f6:    d01c        ..      BEQ      0x1d532 ; am_util_faultisr_collect_data + 410
        0x0001d4f8:    2808        .(      CMP      r0,#8
        0x0001d4fa:    d126        &.      BNE      0x1d54a ; am_util_faultisr_collect_data + 434
        0x0001d4fc:    e015        ..      B        0x1d52a ; am_util_faultisr_collect_data + 402
        0x0001d4fe:    2820         (      CMP      r0,#0x20
        0x0001d500:    d00b        ..      BEQ      0x1d51a ; am_util_faultisr_collect_data + 386
        0x0001d502:    2840        @(      CMP      r0,#0x40
        0x0001d504:    d005        ..      BEQ      0x1d512 ; am_util_faultisr_collect_data + 378
        0x0001d506:    2880        .(      CMP      r0,#0x80
        0x0001d508:    d11f        ..      BNE      0x1d54a ; am_util_faultisr_collect_data + 434
        0x0001d50a:    a097        ..      ADR      r0,{pc}+0x25e ; 0x1d768
        0x0001d50c:    f000fa60    ..`.    BL       am_util_stdio_printf ; 0x1d9d0
        0x0001d510:    e01c        ..      B        0x1d54c ; am_util_faultisr_collect_data + 436
        0x0001d512:    a09d        ..      ADR      r0,{pc}+0x276 ; 0x1d788
        0x0001d514:    f000fa5c    ..\.    BL       am_util_stdio_printf ; 0x1d9d0
        0x0001d518:    e018        ..      B        0x1d54c ; am_util_faultisr_collect_data + 436
        0x0001d51a:    a0a3        ..      ADR      r0,{pc}+0x28e ; 0x1d7a8
        0x0001d51c:    f000fa58    ..X.    BL       am_util_stdio_printf ; 0x1d9d0
        0x0001d520:    e014        ..      B        0x1d54c ; am_util_faultisr_collect_data + 436
        0x0001d522:    a0a8        ..      ADR      r0,{pc}+0x2a2 ; 0x1d7c4
        0x0001d524:    f000fa54    ..T.    BL       am_util_stdio_printf ; 0x1d9d0
        0x0001d528:    e010        ..      B        0x1d54c ; am_util_faultisr_collect_data + 436
        0x0001d52a:    a0ad        ..      ADR      r0,{pc}+0x2b6 ; 0x1d7e0
        0x0001d52c:    f000fa50    ..P.    BL       am_util_stdio_printf ; 0x1d9d0
        0x0001d530:    e00c        ..      B        0x1d54c ; am_util_faultisr_collect_data + 436
        0x0001d532:    a0b3        ..      ADR      r0,{pc}+0x2ce ; 0x1d800
        0x0001d534:    f000fa4c    ..L.    BL       am_util_stdio_printf ; 0x1d9d0
        0x0001d538:    e008        ..      B        0x1d54c ; am_util_faultisr_collect_data + 436
        0x0001d53a:    a0b9        ..      ADR      r0,{pc}+0x2e6 ; 0x1d820
        0x0001d53c:    f000fa48    ..H.    BL       am_util_stdio_printf ; 0x1d9d0
        0x0001d540:    e004        ..      B        0x1d54c ; am_util_faultisr_collect_data + 436
        0x0001d542:    a0bf        ..      ADR      r0,{pc}+0x2fe ; 0x1d840
        0x0001d544:    f000fa44    ..D.    BL       am_util_stdio_printf ; 0x1d9d0
        0x0001d548:    e000        ..      B        0x1d54c ; am_util_faultisr_collect_data + 436
        0x0001d54a:    bf00        ..      NOP      
        0x0001d54c:    bf00        ..      NOP      
        0x0001d54e:    0864        d.      LSRS     r4,r4,#1
        0x0001d550:    2c00        .,      CMP      r4,#0
        0x0001d552:    d1c5        ..      BNE      0x1d4e0 ; am_util_faultisr_collect_data + 328
        0x0001d554:    f89d0000    ....    LDRB     r0,[sp,#0]
        0x0001d558:    b928        (.      CBNZ     r0,0x1d566 ; am_util_faultisr_collect_data + 462
        0x0001d55a:    f89d0008    ....    LDRB     r0,[sp,#8]
        0x0001d55e:    b910        ..      CBNZ     r0,0x1d566 ; am_util_faultisr_collect_data + 462
        0x0001d560:    f89d0010    ....    LDRB     r0,[sp,#0x10]
        0x0001d564:    b110        ..      CBZ      r0,0x1d56c ; am_util_faultisr_collect_data + 468
        0x0001d566:    a0bd        ..      ADR      r0,{pc}+0x2f6 ; 0x1d85c
        0x0001d568:    f000fa32    ..2.    BL       am_util_stdio_printf ; 0x1d9d0
        0x0001d56c:    f89d0000    ....    LDRB     r0,[sp,#0]
        0x0001d570:    b118        ..      CBZ      r0,0x1d57a ; am_util_faultisr_collect_data + 482
        0x0001d572:    a0bf        ..      ADR      r0,{pc}+0x2fe ; 0x1d870
        0x0001d574:    9901        ..      LDR      r1,[sp,#4]
        0x0001d576:    f000fa2b    ..+.    BL       am_util_stdio_printf ; 0x1d9d0
        0x0001d57a:    f89d0008    ....    LDRB     r0,[sp,#8]
        0x0001d57e:    b118        ..      CBZ      r0,0x1d588 ; am_util_faultisr_collect_data + 496
        0x0001d580:    a0c4        ..      ADR      r0,{pc}+0x314 ; 0x1d894
        0x0001d582:    9903        ..      LDR      r1,[sp,#0xc]
        0x0001d584:    f000fa24    ..$.    BL       am_util_stdio_printf ; 0x1d9d0
        0x0001d588:    f89d0010    ....    LDRB     r0,[sp,#0x10]
        0x0001d58c:    b118        ..      CBZ      r0,0x1d596 ; am_util_faultisr_collect_data + 510
        0x0001d58e:    a0ca        ..      ADR      r0,{pc}+0x32a ; 0x1d8b8
        0x0001d590:    9905        ..      LDR      r1,[sp,#0x14]
        0x0001d592:    f000fa1d    ....    BL       am_util_stdio_printf ; 0x1d9d0
        0x0001d596:    a0d0        ..      ADR      r0,{pc}+0x342 ; 0x1d8d8
        0x0001d598:    f000fa1a    ....    BL       am_util_stdio_printf ; 0x1d9d0
        0x0001d59c:    bf00        ..      NOP      
        0x0001d59e:    bf00        ..      NOP      
        0x0001d5a0:    e7fe        ..      B        0x1d5a0 ; am_util_faultisr_collect_data + 520
    $d
        0x0001d5a2:    0000        ..      DCW    0
        0x0001d5a4:    e000ed28    (...    DCD    3758157096
        0x0001d5a8:    48202a2a    ** H    DCD    1210067498
        0x0001d5ac:    20647261    ard     DCD    543453793
        0x0001d5b0:    6c756146    Faul    DCD    1819631942
        0x0001d5b4:    634f2074    t Oc    DCD    1666130036
        0x0001d5b8:    72727563    curr    DCD    1920103779
        0x0001d5bc:    0a3a6465    ed:.    DCD    171598949
        0x0001d5c0:    0000000a    ....    DCD    10
        0x0001d5c4:    0001fca4    ....    DCD    130212
        0x0001d5c8:    64726148    Hard    DCD    1685217608
        0x0001d5cc:    75614620     Fau    DCD    1969309216
        0x0001d5d0:    7320746c    lt s    DCD    1931506796
        0x0001d5d4:    6b636174    tack    DCD    1801675124
        0x0001d5d8:    64206465    ed d    DCD    1679844453
        0x0001d5dc:    3a617461    ata:    DCD    979465313
        0x0001d5e0:    0000000a    ....    DCD    10
        0x0001d5e4:    20202020            DCD    538976288
        0x0001d5e8:    20203052    R0      DCD    538980434
        0x0001d5ec:    7830203d    = 0x    DCD    2016419901
        0x0001d5f0:    58383025    %08X    DCD    1480077349
        0x0001d5f4:    0000000a    ....    DCD    10
        0x0001d5f8:    20202020            DCD    538976288
        0x0001d5fc:    20203152    R1      DCD    538980690
        0x0001d600:    7830203d    = 0x    DCD    2016419901
        0x0001d604:    58383025    %08X    DCD    1480077349
        0x0001d608:    0000000a    ....    DCD    10
        0x0001d60c:    20202020            DCD    538976288
        0x0001d610:    20203252    R2      DCD    538980946
        0x0001d614:    7830203d    = 0x    DCD    2016419901
        0x0001d618:    58383025    %08X    DCD    1480077349
        0x0001d61c:    0000000a    ....    DCD    10
        0x0001d620:    20202020            DCD    538976288
        0x0001d624:    20203352    R3      DCD    538981202
        0x0001d628:    7830203d    = 0x    DCD    2016419901
        0x0001d62c:    58383025    %08X    DCD    1480077349
        0x0001d630:    0000000a    ....    DCD    10
        0x0001d634:    20202020            DCD    538976288
        0x0001d638:    20323152    R12     DCD    540160338
        0x0001d63c:    7830203d    = 0x    DCD    2016419901
        0x0001d640:    58383025    %08X    DCD    1480077349
        0x0001d644:    0000000a    ....    DCD    10
        0x0001d648:    20202020            DCD    538976288
        0x0001d64c:    2020524c    LR      DCD    538989132
        0x0001d650:    7830203d    = 0x    DCD    2016419901
        0x0001d654:    58383025    %08X    DCD    1480077349
        0x0001d658:    0000000a    ....    DCD    10
        0x0001d65c:    20202020            DCD    538976288
        0x0001d660:    20204350    PC      DCD    538985296
        0x0001d664:    7830203d    = 0x    DCD    2016419901
        0x0001d668:    58383025    %08X    DCD    1480077349
        0x0001d66c:    0000000a    ....    DCD    10
        0x0001d670:    20202020            DCD    538976288
        0x0001d674:    20525350    PSR     DCD    542266192
        0x0001d678:    7830203d    = 0x    DCD    2016419901
        0x0001d67c:    58383025    %08X    DCD    1480077349
        0x0001d680:    00000a0a    ....    DCD    2570
        0x0001d684:    6568744f    Othe    DCD    1701344335
        0x0001d688:    61482072    r Ha    DCD    1632116850
        0x0001d68c:    46206472    rd F    DCD    1176527986
        0x0001d690:    746c7561    ault    DCD    1953264993
        0x0001d694:    74616420     dat    DCD    1952539680
        0x0001d698:    000a3a61    a:..    DCD    670305
        0x0001d69c:    20202020            DCD    538976288
        0x0001d6a0:    6c756146    Faul    DCD    1819631942
        0x0001d6a4:    64612074    t ad    DCD    1684086900
        0x0001d6a8:    73657264    dres    DCD    1936028260
        0x0001d6ac:    203d2073    s =     DCD    540876915
        0x0001d6b0:    30257830    0x%0    DCD    807761968
        0x0001d6b4:    000a5838    8X..    DCD    677944
        0x0001d6b8:    20202020            DCD    538976288
        0x0001d6bc:    52414642    BFAR    DCD    1380009538
        0x0001d6c0:    75422820     (Bu    DCD    1967269920
        0x0001d6c4:    61462073    s Fa    DCD    1631985779
        0x0001d6c8:    20746c75    ult     DCD    544500853
        0x0001d6cc:    72646441    Addr    DCD    1919181889
        0x0001d6d0:    67655220     Reg    DCD    1734693408
        0x0001d6d4:    203d2029    ) =     DCD    540876841
        0x0001d6d8:    30257830    0x%0    DCD    807761968
        0x0001d6dc:    000a5838    8X..    DCD    677944
        0x0001d6e0:    20202020            DCD    538976288
        0x0001d6e4:    52534d4d    MMSR    DCD    1381190989
        0x0001d6e8:    654d2820     (Me    DCD    1699555360
        0x0001d6ec:    674d206d    m Mg    DCD    1733107821
        0x0001d6f0:    4620746d    mt F    DCD    1176532077
        0x0001d6f4:    746c7561    ault    DCD    1953264993
        0x0001d6f8:    61745320     Sta    DCD    1635013408
        0x0001d6fc:    20737574    tus     DCD    544437620
        0x0001d700:    29676552    Reg)    DCD    694642002
        0x0001d704:    30203d20     = 0    DCD    807419168
        0x0001d708:    32302578    x%02    DCD    842016120
        0x0001d70c:    00000a58    X...    DCD    2648
        0x0001d710:    20202020            DCD    538976288
        0x0001d714:    52534655    UFSR    DCD    1381189205
        0x0001d718:    73552820     (Us    DCD    1934960672
        0x0001d71c:    20656761    age     DCD    543516513
        0x0001d720:    6c756146    Faul    DCD    1819631942
        0x0001d724:    74532074    t St    DCD    1951604852
        0x0001d728:    73757461    atus    DCD    1937077345
        0x0001d72c:    67655220     Reg    DCD    1734693408
        0x0001d730:    203d2029    ) =     DCD    540876841
        0x0001d734:    30257830    0x%0    DCD    807761968
        0x0001d738:    000a5834    4X..    DCD    677940
        0x0001d73c:    20202020            DCD    538976288
        0x0001d740:    52534642    BFSR    DCD    1381189186
        0x0001d744:    75422820     (Bu    DCD    1967269920
        0x0001d748:    61462073    s Fa    DCD    1631985779
        0x0001d74c:    20746c75    ult     DCD    544500853
        0x0001d750:    74617453    Stat    DCD    1952543827
        0x0001d754:    52207375    us R    DCD    1377858421
        0x0001d758:    20296765    eg)     DCD    539584357
        0x0001d75c:    7830203d    = 0x    DCD    2016419901
        0x0001d760:    58323025    %02X    DCD    1479684133
        0x0001d764:    0000000a    ....    DCD    10
        0x0001d768:    20202020            DCD    538976288
        0x0001d76c:    20202020            DCD    538976288
        0x0001d770:    52534642    BFSR    DCD    1381189186
        0x0001d774:    74696220     bit    DCD    1953063456
        0x0001d778:    42203a37    7: B    DCD    1109408311
        0x0001d77c:    56524146    FARV    DCD    1448231238
        0x0001d780:    44494c41    ALID    DCD    1145654337
        0x0001d784:    0000000a    ....    DCD    10
        0x0001d788:    20202020            DCD    538976288
        0x0001d78c:    20202020            DCD    538976288
        0x0001d790:    52534642    BFSR    DCD    1381189186
        0x0001d794:    74696220     bit    DCD    1953063456
        0x0001d798:    52203a36    6: R    DCD    1377843766
        0x0001d79c:    52455345    ESER    DCD    1380275013
        0x0001d7a0:    0a444556    VED.    DCD    172246358
        0x0001d7a4:    00000000    ....    DCD    0
        0x0001d7a8:    20202020            DCD    538976288
        0x0001d7ac:    20202020            DCD    538976288
        0x0001d7b0:    52534642    BFSR    DCD    1381189186
        0x0001d7b4:    74696220     bit    DCD    1953063456
        0x0001d7b8:    4c203a35    5: L    DCD    1277180469
        0x0001d7bc:    52455053    SPER    DCD    1380274259
        0x0001d7c0:    00000a52    R...    DCD    2642
        0x0001d7c4:    20202020            DCD    538976288
        0x0001d7c8:    20202020            DCD    538976288
        0x0001d7cc:    52534642    BFSR    DCD    1381189186
        0x0001d7d0:    74696220     bit    DCD    1953063456
        0x0001d7d4:    53203a34    4: S    DCD    1394620980
        0x0001d7d8:    52454b54    TKER    DCD    1380272980
        0x0001d7dc:    00000a52    R...    DCD    2642
        0x0001d7e0:    20202020            DCD    538976288
        0x0001d7e4:    20202020            DCD    538976288
        0x0001d7e8:    52534642    BFSR    DCD    1381189186
        0x0001d7ec:    74696220     bit    DCD    1953063456
        0x0001d7f0:    55203a33    3: U    DCD    1428175411
        0x0001d7f4:    4b54534e    NSTK    DCD    1263817550
        0x0001d7f8:    0a525245    ERR.    DCD    173167173
        0x0001d7fc:    00000000    ....    DCD    0
        0x0001d800:    20202020            DCD    538976288
        0x0001d804:    20202020            DCD    538976288
        0x0001d808:    52534642    BFSR    DCD    1381189186
        0x0001d80c:    74696220     bit    DCD    1953063456
        0x0001d810:    49203a32    2: I    DCD    1226848818
        0x0001d814:    4552504d    MPRE    DCD    1163022413
        0x0001d818:    45534943    CISE    DCD    1163086147
        0x0001d81c:    000a5252    RR..    DCD    676434
        0x0001d820:    20202020            DCD    538976288
        0x0001d824:    20202020            DCD    538976288
        0x0001d828:    52534642    BFSR    DCD    1381189186
        0x0001d82c:    74696220     bit    DCD    1953063456
        0x0001d830:    50203a31    1: P    DCD    1344289329
        0x0001d834:    49434552    RECI    DCD    1229145426
        0x0001d838:    52454553    SEER    DCD    1380271443
        0x0001d83c:    00000a52    R...    DCD    2642
        0x0001d840:    20202020            DCD    538976288
        0x0001d844:    20202020            DCD    538976288
        0x0001d848:    52534642    BFSR    DCD    1381189186
        0x0001d84c:    74696220     bit    DCD    1953063456
        0x0001d850:    49203a30    0: I    DCD    1226848816
        0x0001d854:    45535542    BUSE    DCD    1163089218
        0x0001d858:    000a5252    RR..    DCD    676434
        0x0001d85c:    55434d0a    .MCU    DCD    1430473994
        0x0001d860:    75614620     Fau    DCD    1969309216
        0x0001d864:    6420746c    lt d    DCD    1679848556
        0x0001d868:    3a617461    ata:    DCD    979465313
        0x0001d86c:    0000000a    ....    DCD    10
        0x0001d870:    20202020            DCD    538976288
        0x0001d874:    444f4349    ICOD    DCD    1146045257
        0x0001d878:    61462045    E Fa    DCD    1631985733
        0x0001d87c:    20746c75    ult     DCD    544500853
        0x0001d880:    72646441    Addr    DCD    1919181889
        0x0001d884:    3a737365    ess:    DCD    980644709
        0x0001d888:    25783020     0x%    DCD    628633632
        0x0001d88c:    0a583830    08X.    DCD    173553712
        0x0001d890:    00000000    ....    DCD    0
        0x0001d894:    20202020            DCD    538976288
        0x0001d898:    444f4344    DCOD    DCD    1146045252
        0x0001d89c:    61462045    E Fa    DCD    1631985733
        0x0001d8a0:    20746c75    ult     DCD    544500853
        0x0001d8a4:    72646441    Addr    DCD    1919181889
        0x0001d8a8:    3a737365    ess:    DCD    980644709
        0x0001d8ac:    25783020     0x%    DCD    628633632
        0x0001d8b0:    0a583830    08X.    DCD    173553712
        0x0001d8b4:    00000000    ....    DCD    0
        0x0001d8b8:    20202020            DCD    538976288
        0x0001d8bc:    20535953    SYS     DCD    542333267
        0x0001d8c0:    6c756146    Faul    DCD    1819631942
        0x0001d8c4:    64412074    t Ad    DCD    1681989748
        0x0001d8c8:    73657264    dres    DCD    1936028260
        0x0001d8cc:    30203a73    s: 0    DCD    807418483
        0x0001d8d0:    38302578    x%08    DCD    942679416
        0x0001d8d4:    00000a58    X...    DCD    2648
        0x0001d8d8:    6f440a0a    ..Do    DCD    1866729994
        0x0001d8dc:    7720656e    ne w    DCD    1998611822
        0x0001d8e0:    20687469    ith     DCD    543716457
        0x0001d8e4:    7074756f    outp    DCD    1886680431
        0x0001d8e8:    202e7475    ut.     DCD    539915381
        0x0001d8ec:    65746e45    Ente    DCD    1702129221
        0x0001d8f0:    676e6972    ring    DCD    1735289202
        0x0001d8f4:    666e6920     inf    DCD    1718511904
        0x0001d8f8:    74696e69    init    DCD    1953066601
        0x0001d8fc:    6f6c2065    e lo    DCD    1869357157
        0x0001d900:    0a2e706f    op..    DCD    170815599
        0x0001d904:    0000000a    ....    DCD    10
    $t
    i.am_util_id_device
    am_util_id_device
        0x0001d908:    b570        p.      PUSH     {r4-r6,lr}
        0x0001d90a:    4604        .F      MOV      r4,r0
        0x0001d90c:    2000        .       MOVS     r0,#0
        0x0001d90e:    6460        `d      STR      r0,[r4,#0x44]
        0x0001d910:    4827        'H      LDR      r0,[pc,#156] ; [0x1d9b0] = 0x1f60d
        0x0001d912:    64e0        .d      STR      r0,[r4,#0x4c]
        0x0001d914:    4827        'H      LDR      r0,[pc,#156] ; [0x1d9b4] = 0x1f608
        0x0001d916:    64a0        .d      STR      r0,[r4,#0x48]
        0x0001d918:    203f        ?       MOVS     r0,#0x3f
        0x0001d91a:    f8840050    ..P.    STRB     r0,[r4,#0x50]
        0x0001d91e:    2020                MOVS     r0,#0x20
        0x0001d920:    f8840051    ..Q.    STRB     r0,[r4,#0x51]
        0x0001d924:    4621        !F      MOV      r1,r4
        0x0001d926:    2001        .       MOVS     r0,#1
        0x0001d928:    f7fdf8fc    ....    BL       am_hal_mcuctrl_info_get ; 0x1ab24
        0x0001d92c:    f104013c    ..<.    ADD      r1,r4,#0x3c
        0x0001d930:    2000        .       MOVS     r0,#0
        0x0001d932:    f7fdf8f7    ....    BL       am_hal_mcuctrl_info_get ; 0x1ab24
        0x0001d936:    6820         h      LDR      r0,[r4,#0]
        0x0001d938:    f000467f    ...F    AND      r6,r0,#0xff000000
        0x0001d93c:    68e5        .h      LDR      r5,[r4,#0xc]
        0x0001d93e:    491e        .I      LDR      r1,[pc,#120] ; [0x1d9b8] = 0x414d4251
        0x0001d940:    6920         i      LDR      r0,[r4,#0x10]
        0x0001d942:    4288        .B      CMP      r0,r1
        0x0001d944:    d101        ..      BNE      0x1d94a ; am_util_id_device + 66
        0x0001d946:    481d        .H      LDR      r0,[pc,#116] ; [0x1d9bc] = 0x1f603
        0x0001d948:    64a0        .d      STR      r0,[r4,#0x48]
        0x0001d94a:    f1b66f00    ...o    CMP      r6,#0x8000000
        0x0001d94e:    d11b        ..      BNE      0x1d988 ; am_util_id_device + 128
        0x0001d950:    f894002c    ..,.    LDRB     r0,[r4,#0x2c]
        0x0001d954:    f00000f0    ....    AND      r0,r0,#0xf0
        0x0001d958:    28b0        .(      CMP      r0,#0xb0
        0x0001d95a:    d115        ..      BNE      0x1d988 ; am_util_id_device + 128
        0x0001d95c:    4628        (F      MOV      r0,r5
        0x0001d95e:    f001fbf9    ....    BL       revmaj_get ; 0x1f154
        0x0001d962:    2843        C(      CMP      r0,#0x43
        0x0001d964:    d110        ..      BNE      0x1d988 ; am_util_id_device + 128
        0x0001d966:    f44f7082    O..p    MOV      r0,#0x104
        0x0001d96a:    6460        `d      STR      r0,[r4,#0x44]
        0x0001d96c:    7820         x      LDRB     r0,[r4,#0]
        0x0001d96e:    f3c01081    ....    UBFX     r0,r0,#6,#2
        0x0001d972:    2802        .(      CMP      r0,#2
        0x0001d974:    d302        ..      BCC      0x1d97c ; am_util_id_device + 116
        0x0001d976:    4812        .H      LDR      r0,[pc,#72] ; [0x1d9c0] = 0x1f5a8
        0x0001d978:    64e0        .d      STR      r0,[r4,#0x4c]
        0x0001d97a:    e001        ..      B        0x1d980 ; am_util_id_device + 120
        0x0001d97c:    4811        .H      LDR      r0,[pc,#68] ; [0x1d9c4] = 0x1f5b5
        0x0001d97e:    64e0        .d      STR      r0,[r4,#0x4c]
        0x0001d980:    2101        .!      MOVS     r1,#1
        0x0001d982:    4620         F      MOV      r0,r4
        0x0001d984:    f000fb1a    ....    BL       chiprev_set ; 0x1dfbc
        0x0001d988:    7820         x      LDRB     r0,[r4,#0]
        0x0001d98a:    f3c01081    ....    UBFX     r0,r0,#6,#2
        0x0001d98e:    490e        .I      LDR      r1,[pc,#56] ; [0x1d9c8] = 0x1f5c7
        0x0001d990:    eb010080    ....    ADD      r0,r1,r0,LSL #2
        0x0001d994:    6560        `e      STR      r0,[r4,#0x54]
        0x0001d996:    7820         x      LDRB     r0,[r4,#0]
        0x0001d998:    f3c00041    ..A.    UBFX     r0,r0,#1,#2
        0x0001d99c:    eb000140    ..@.    ADD      r1,r0,r0,LSL #1
        0x0001d9a0:    eb0100c0    ....    ADD      r0,r1,r0,LSL #3
        0x0001d9a4:    4909        .I      LDR      r1,[pc,#36] ; [0x1d9cc] = 0x1f5d7
        0x0001d9a6:    4408        .D      ADD      r0,r0,r1
        0x0001d9a8:    65a0        .e      STR      r0,[r4,#0x58]
        0x0001d9aa:    6c60        `l      LDR      r0,[r4,#0x44]
        0x0001d9ac:    bd70        p.      POP      {r4-r6,pc}
    $d
        0x0001d9ae:    0000        ..      DCW    0
        0x0001d9b0:    0001f60d    ....    DCD    128525
        0x0001d9b4:    0001f608    ....    DCD    128520
        0x0001d9b8:    414d4251    QBMA    DCD    1095582289
        0x0001d9bc:    0001f603    ....    DCD    128515
        0x0001d9c0:    0001f5a8    ....    DCD    128424
        0x0001d9c4:    0001f5b5    ....    DCD    128437
        0x0001d9c8:    0001f5c7    ....    DCD    128455
        0x0001d9cc:    0001f5d7    ....    DCD    128471
    $t
    i.am_util_stdio_printf
    am_util_stdio_printf
        0x0001d9d0:    b40f        ..      PUSH     {r0-r3}
        0x0001d9d2:    b538        8.      PUSH     {r3-r5,lr}
        0x0001d9d4:    480b        .H      LDR      r0,[pc,#44] ; [0x1da04] = 0x10000020
        0x0001d9d6:    6800        .h      LDR      r0,[r0,#0]
        0x0001d9d8:    b918        ..      CBNZ     r0,0x1d9e2 ; am_util_stdio_printf + 18
        0x0001d9da:    2000        .       MOVS     r0,#0
        0x0001d9dc:    bc38        8.      POP      {r3-r5}
        0x0001d9de:    f85dfb14    ]...    LDR      pc,[sp],#0x14
        0x0001d9e2:    a805        ..      ADD      r0,sp,#0x14
        0x0001d9e4:    9000        ..      STR      r0,[sp,#0]
        0x0001d9e6:    4808        .H      LDR      r0,[pc,#32] ; [0x1da08] = 0x10001c70
        0x0001d9e8:    9a00        ..      LDR      r2,[sp,#0]
        0x0001d9ea:    9904        ..      LDR      r1,[sp,#0x10]
        0x0001d9ec:    f000f824    ..$.    BL       am_util_stdio_vsprintf ; 0x1da38
        0x0001d9f0:    4604        .F      MOV      r4,r0
        0x0001d9f2:    2000        .       MOVS     r0,#0
        0x0001d9f4:    9000        ..      STR      r0,[sp,#0]
        0x0001d9f6:    4804        .H      LDR      r0,[pc,#16] ; [0x1da08] = 0x10001c70
        0x0001d9f8:    4902        .I      LDR      r1,[pc,#8] ; [0x1da04] = 0x10000020
        0x0001d9fa:    6809        .h      LDR      r1,[r1,#0]
        0x0001d9fc:    4788        .G      BLX      r1
        0x0001d9fe:    4620         F      MOV      r0,r4
        0x0001da00:    e7ec        ..      B        0x1d9dc ; am_util_stdio_printf + 12
    $d
        0x0001da02:    0000        ..      DCW    0
        0x0001da04:    10000020     ...    DCD    268435488
        0x0001da08:    10001c70    p...    DCD    268442736
    $t
    i.am_util_stdio_printf_init
    am_util_stdio_printf_init
        0x0001da0c:    4901        .I      LDR      r1,[pc,#4] ; [0x1da14] = 0x10000020
        0x0001da0e:    6008        .`      STR      r0,[r1,#0]
        0x0001da10:    4770        pG      BX       lr
    $d
        0x0001da12:    0000        ..      DCW    0
        0x0001da14:    10000020     ...    DCD    268435488
    $t
    i.am_util_stdio_terminal_clear
    am_util_stdio_terminal_clear
        0x0001da18:    b510        ..      PUSH     {r4,lr}
        0x0001da1a:    a002        ..      ADR      r0,{pc}+0xa ; 0x1da24
        0x0001da1c:    f7ffffd8    ....    BL       am_util_stdio_printf ; 0x1d9d0
        0x0001da20:    bd10        ..      POP      {r4,pc}
    $d
        0x0001da22:    0000        ..      DCW    0
        0x0001da24:    0a0a0a0a    ....    DCD    168430090
        0x0001da28:    0a0a0a0a    ....    DCD    168430090
        0x0001da2c:    0a0a0a0a    ....    DCD    168430090
        0x0001da30:    0a0a0a0a    ....    DCD    168430090
        0x0001da34:    00000a0a    ....    DCD    2570
    $t
    i.am_util_stdio_vsprintf
    am_util_stdio_vsprintf
        0x0001da38:    e92d4ff7    -..O    PUSH     {r0-r2,r4-r11,lr}
        0x0001da3c:    ed2d8b02    -...    VPUSH    {d8}
        0x0001da40:    b08a        ..      SUB      sp,sp,#0x28
        0x0001da42:    4604        .F      MOV      r4,r0
        0x0001da44:    460d        .F      MOV      r5,r1
        0x0001da46:    f04f0900    O...    MOV      r9,#0
        0x0001da4a:    2000        .       MOVS     r0,#0
        0x0001da4c:    9000        ..      STR      r0,[sp,#0]
        0x0001da4e:    e1b9        ..      B        0x1ddc4 ; am_util_stdio_vsprintf + 908
        0x0001da50:    2006        .       MOVS     r0,#6
        0x0001da52:    9006        ..      STR      r0,[sp,#0x18]
        0x0001da54:    7828        (x      LDRB     r0,[r5,#0]
        0x0001da56:    2825        %(      CMP      r0,#0x25
        0x0001da58:    d012        ..      BEQ      0x1da80 ; am_util_stdio_vsprintf + 72
        0x0001da5a:    b16c        l.      CBZ      r4,0x1da78 ; am_util_stdio_vsprintf + 64
        0x0001da5c:    7828        (x      LDRB     r0,[r5,#0]
        0x0001da5e:    280a        .(      CMP      r0,#0xa
        0x0001da60:    d107        ..      BNE      0x1da72 ; am_util_stdio_vsprintf + 58
        0x0001da62:    48de        .H      LDR      r0,[pc,#888] ; [0x1dddc] = 0x10000024
        0x0001da64:    7800        .x      LDRB     r0,[r0,#0]
        0x0001da66:    b120         .      CBZ      r0,0x1da72 ; am_util_stdio_vsprintf + 58
        0x0001da68:    200d        .       MOVS     r0,#0xd
        0x0001da6a:    f8040b01    ....    STRB     r0,[r4],#1
        0x0001da6e:    f1090901    ....    ADD      r9,r9,#1
        0x0001da72:    7828        (x      LDRB     r0,[r5,#0]
        0x0001da74:    f8040b01    ....    STRB     r0,[r4],#1
        0x0001da78:    1c6d        m.      ADDS     r5,r5,#1
        0x0001da7a:    f1090901    ....    ADD      r9,r9,#1
        0x0001da7e:    e1a1        ..      B        0x1ddc4 ; am_util_stdio_vsprintf + 908
        0x0001da80:    1c6d        m.      ADDS     r5,r5,#1
        0x0001da82:    2000        .       MOVS     r0,#0
        0x0001da84:    9002        ..      STR      r0,[sp,#8]
        0x0001da86:    9003        ..      STR      r0,[sp,#0xc]
        0x0001da88:    2020                MOVS     r0,#0x20
        0x0001da8a:    9004        ..      STR      r0,[sp,#0x10]
        0x0001da8c:    7828        (x      LDRB     r0,[r5,#0]
        0x0001da8e:    2830        0(      CMP      r0,#0x30
        0x0001da90:    d101        ..      BNE      0x1da96 ; am_util_stdio_vsprintf + 94
        0x0001da92:    9004        ..      STR      r0,[sp,#0x10]
        0x0001da94:    1c6d        m.      ADDS     r5,r5,#1
        0x0001da96:    a907        ..      ADD      r1,sp,#0x1c
        0x0001da98:    4628        (F      MOV      r0,r5
        0x0001da9a:    f000fb5f    .._.    BL       decstr_to_int ; 0x1e15c
        0x0001da9e:    4606        .F      MOV      r6,r0
        0x0001daa0:    9807        ..      LDR      r0,[sp,#0x1c]
        0x0001daa2:    4405        .D      ADD      r5,r5,r0
        0x0001daa4:    7828        (x      LDRB     r0,[r5,#0]
        0x0001daa6:    2873        s(      CMP      r0,#0x73
        0x0001daa8:    d002        ..      BEQ      0x1dab0 ; am_util_stdio_vsprintf + 120
        0x0001daaa:    2e00        ..      CMP      r6,#0
        0x0001daac:    da00        ..      BGE      0x1dab0 ; am_util_stdio_vsprintf + 120
        0x0001daae:    4276        vB      RSBS     r6,r6,#0
        0x0001dab0:    7828        (x      LDRB     r0,[r5,#0]
        0x0001dab2:    282e        .(      CMP      r0,#0x2e
        0x0001dab4:    d107        ..      BNE      0x1dac6 ; am_util_stdio_vsprintf + 142
        0x0001dab6:    1c6d        m.      ADDS     r5,r5,#1
        0x0001dab8:    a907        ..      ADD      r1,sp,#0x1c
        0x0001daba:    4628        (F      MOV      r0,r5
        0x0001dabc:    f000fb4e    ..N.    BL       decstr_to_int ; 0x1e15c
        0x0001dac0:    9006        ..      STR      r0,[sp,#0x18]
        0x0001dac2:    9807        ..      LDR      r0,[sp,#0x1c]
        0x0001dac4:    4405        .D      ADD      r5,r5,r0
        0x0001dac6:    7828        (x      LDRB     r0,[r5,#0]
        0x0001dac8:    286c        l(      CMP      r0,#0x6c
        0x0001daca:    d106        ..      BNE      0x1dada ; am_util_stdio_vsprintf + 162
        0x0001dacc:    1c6d        m.      ADDS     r5,r5,#1
        0x0001dace:    7828        (x      LDRB     r0,[r5,#0]
        0x0001dad0:    286c        l(      CMP      r0,#0x6c
        0x0001dad2:    d102        ..      BNE      0x1dada ; am_util_stdio_vsprintf + 162
        0x0001dad4:    1c6d        m.      ADDS     r5,r5,#1
        0x0001dad6:    2001        .       MOVS     r0,#1
        0x0001dad8:    9002        ..      STR      r0,[sp,#8]
        0x0001dada:    7828        (x      LDRB     r0,[r5,#0]
        0x0001dadc:    2866        f(      CMP      r0,#0x66
        0x0001dade:    d06f        o.      BEQ      0x1dbc0 ; am_util_stdio_vsprintf + 392
        0x0001dae0:    dc08        ..      BGT      0x1daf4 ; am_util_stdio_vsprintf + 188
        0x0001dae2:    2846        F(      CMP      r0,#0x46
        0x0001dae4:    d06d        m.      BEQ      0x1dbc2 ; am_util_stdio_vsprintf + 394
        0x0001dae6:    2858        X(      CMP      r0,#0x58
        0x0001dae8:    d05c        \.      BEQ      0x1dba4 ; am_util_stdio_vsprintf + 364
        0x0001daea:    2863        c(      CMP      r0,#0x63
        0x0001daec:    d00b        ..      BEQ      0x1db06 ; am_util_stdio_vsprintf + 206
        0x0001daee:    2864        d(      CMP      r0,#0x64
        0x0001daf0:    d168        h.      BNE      0x1dbc4 ; am_util_stdio_vsprintf + 396
        0x0001daf2:    e0c3        ..      B        0x1dc7c ; am_util_stdio_vsprintf + 580
        0x0001daf4:    2869        i(      CMP      r0,#0x69
        0x0001daf6:    d07d        }.      BEQ      0x1dbf4 ; am_util_stdio_vsprintf + 444
        0x0001daf8:    2873        s(      CMP      r0,#0x73
        0x0001dafa:    d011        ..      BEQ      0x1db20 ; am_util_stdio_vsprintf + 232
        0x0001dafc:    2875        u(      CMP      r0,#0x75
        0x0001dafe:    d07a        z.      BEQ      0x1dbf6 ; am_util_stdio_vsprintf + 446
        0x0001db00:    2878        x(      CMP      r0,#0x78
        0x0001db02:    d1f5        ..      BNE      0x1daf0 ; am_util_stdio_vsprintf + 184
        0x0001db04:    e04b        K.      B        0x1db9e ; am_util_stdio_vsprintf + 358
        0x0001db06:    980e        ..      LDR      r0,[sp,#0x38]
        0x0001db08:    f8101b04    ....    LDRB     r1,[r0],#4
        0x0001db0c:    900e        ..      STR      r0,[sp,#0x38]
        0x0001db0e:    b2c8        ..      UXTB     r0,r1
        0x0001db10:    9005        ..      STR      r0,[sp,#0x14]
        0x0001db12:    b114        ..      CBZ      r4,0x1db1a ; am_util_stdio_vsprintf + 226
        0x0001db14:    9805        ..      LDR      r0,[sp,#0x14]
        0x0001db16:    f8040b01    ....    STRB     r0,[r4],#1
        0x0001db1a:    f1090901    ....    ADD      r9,r9,#1
        0x0001db1e:    e14e        N.      B        0x1ddbe ; am_util_stdio_vsprintf + 902
        0x0001db20:    980e        ..      LDR      r0,[sp,#0x38]
        0x0001db22:    f850bb04    P...    LDR      r11,[r0],#4
        0x0001db26:    900e        ..      STR      r0,[sp,#0x38]
        0x0001db28:    4658        XF      MOV      r0,r11
        0x0001db2a:    f001fbb9    ....    BL       simple_strlen ; 0x1f2a0
        0x0001db2e:    9000        ..      STR      r0,[sp,#0]
        0x0001db30:    2e00        ..      CMP      r6,#0
        0x0001db32:    dd11        ..      BLE      0x1db58 ; am_util_stdio_vsprintf + 288
        0x0001db34:    9800        ..      LDR      r0,[sp,#0]
        0x0001db36:    42b0        .B      CMP      r0,r6
        0x0001db38:    d20e        ..      BCS      0x1db58 ; am_util_stdio_vsprintf + 288
        0x0001db3a:    9800        ..      LDR      r0,[sp,#0]
        0x0001db3c:    1a36        6.      SUBS     r6,r6,r0
        0x0001db3e:    4632        2F      MOV      r2,r6
        0x0001db40:    4620         F      MOV      r0,r4
        0x0001db42:    9904        ..      LDR      r1,[sp,#0x10]
        0x0001db44:    f001fa63    ..c.    BL       padbuffer ; 0x1f00e
        0x0001db48:    4606        .F      MOV      r6,r0
        0x0001db4a:    b10c        ..      CBZ      r4,0x1db50 ; am_util_stdio_vsprintf + 280
        0x0001db4c:    4630        0F      MOV      r0,r6
        0x0001db4e:    e000        ..      B        0x1db52 ; am_util_stdio_vsprintf + 282
        0x0001db50:    2000        .       MOVS     r0,#0
        0x0001db52:    4404        .D      ADD      r4,r4,r0
        0x0001db54:    44b1        .D      ADD      r9,r9,r6
        0x0001db56:    2600        .&      MOVS     r6,#0
        0x0001db58:    e008        ..      B        0x1db6c ; am_util_stdio_vsprintf + 308
        0x0001db5a:    b11c        ..      CBZ      r4,0x1db64 ; am_util_stdio_vsprintf + 300
        0x0001db5c:    f89b0000    ....    LDRB     r0,[r11,#0]
        0x0001db60:    f8040b01    ....    STRB     r0,[r4],#1
        0x0001db64:    f10b0b01    ....    ADD      r11,r11,#1
        0x0001db68:    f1090901    ....    ADD      r9,r9,#1
        0x0001db6c:    f89b0000    ....    LDRB     r0,[r11,#0]
        0x0001db70:    2800        .(      CMP      r0,#0
        0x0001db72:    d1f2        ..      BNE      0x1db5a ; am_util_stdio_vsprintf + 290
        0x0001db74:    b196        ..      CBZ      r6,0x1db9c ; am_util_stdio_vsprintf + 356
        0x0001db76:    4276        vB      RSBS     r6,r6,#0
        0x0001db78:    9800        ..      LDR      r0,[sp,#0]
        0x0001db7a:    42b0        .B      CMP      r0,r6
        0x0001db7c:    d20e        ..      BCS      0x1db9c ; am_util_stdio_vsprintf + 356
        0x0001db7e:    9800        ..      LDR      r0,[sp,#0]
        0x0001db80:    1a36        6.      SUBS     r6,r6,r0
        0x0001db82:    4632        2F      MOV      r2,r6
        0x0001db84:    4620         F      MOV      r0,r4
        0x0001db86:    9904        ..      LDR      r1,[sp,#0x10]
        0x0001db88:    f001fa41    ..A.    BL       padbuffer ; 0x1f00e
        0x0001db8c:    4606        .F      MOV      r6,r0
        0x0001db8e:    b10c        ..      CBZ      r4,0x1db94 ; am_util_stdio_vsprintf + 348
        0x0001db90:    4630        0F      MOV      r0,r6
        0x0001db92:    e000        ..      B        0x1db96 ; am_util_stdio_vsprintf + 350
        0x0001db94:    2000        .       MOVS     r0,#0
        0x0001db96:    4404        .D      ADD      r4,r4,r0
        0x0001db98:    44b1        .D      ADD      r9,r9,r6
        0x0001db9a:    2600        .&      MOVS     r6,#0
        0x0001db9c:    e10f        ..      B        0x1ddbe ; am_util_stdio_vsprintf + 902
        0x0001db9e:    2001        .       MOVS     r0,#1
        0x0001dba0:    9003        ..      STR      r0,[sp,#0xc]
        0x0001dba2:    bf00        ..      NOP      
        0x0001dba4:    9802        ..      LDR      r0,[sp,#8]
        0x0001dba6:    b170        p.      CBZ      r0,0x1dbc6 ; am_util_stdio_vsprintf + 398
        0x0001dba8:    980e        ..      LDR      r0,[sp,#0x38]
        0x0001dbaa:    1dc0        ..      ADDS     r0,r0,#7
        0x0001dbac:    f0200007     ...    BIC      r0,r0,#7
        0x0001dbb0:    4601        .F      MOV      r1,r0
        0x0001dbb2:    900e        ..      STR      r0,[sp,#0x38]
        0x0001dbb4:    6800        .h      LDR      r0,[r0,#0]
        0x0001dbb6:    6849        Ih      LDR      r1,[r1,#4]
        0x0001dbb8:    9a0e        ..      LDR      r2,[sp,#0x38]
        0x0001dbba:    3208        .2      ADDS     r2,r2,#8
        0x0001dbbc:    920e        ..      STR      r2,[sp,#0x38]
        0x0001dbbe:    e008        ..      B        0x1dbd2 ; am_util_stdio_vsprintf + 410
        0x0001dbc0:    e0c3        ..      B        0x1dd4a ; am_util_stdio_vsprintf + 786
        0x0001dbc2:    e0c3        ..      B        0x1dd4c ; am_util_stdio_vsprintf + 788
        0x0001dbc4:    e0f4        ..      B        0x1ddb0 ; am_util_stdio_vsprintf + 888
        0x0001dbc6:    980e        ..      LDR      r0,[sp,#0x38]
        0x0001dbc8:    6800        .h      LDR      r0,[r0,#0]
        0x0001dbca:    990e        ..      LDR      r1,[sp,#0x38]
        0x0001dbcc:    1d09        ..      ADDS     r1,r1,#4
        0x0001dbce:    910e        ..      STR      r1,[sp,#0x38]
        0x0001dbd0:    2100        .!      MOVS     r1,#0
        0x0001dbd2:    4607        .F      MOV      r7,r0
        0x0001dbd4:    4688        .F      MOV      r8,r1
        0x0001dbd6:    b19e        ..      CBZ      r6,0x1dc00 ; am_util_stdio_vsprintf + 456
        0x0001dbd8:    4638        8F      MOV      r0,r7
        0x0001dbda:    4641        AF      MOV      r1,r8
        0x0001dbdc:    f001f9ce    ....    BL       ndigits_in_hex ; 0x1ef7c
        0x0001dbe0:    1a36        6.      SUBS     r6,r6,r0
        0x0001dbe2:    4632        2F      MOV      r2,r6
        0x0001dbe4:    4620         F      MOV      r0,r4
        0x0001dbe6:    9904        ..      LDR      r1,[sp,#0x10]
        0x0001dbe8:    f001fa11    ....    BL       padbuffer ; 0x1f00e
        0x0001dbec:    4606        .F      MOV      r6,r0
        0x0001dbee:    b11c        ..      CBZ      r4,0x1dbf8 ; am_util_stdio_vsprintf + 448
        0x0001dbf0:    4630        0F      MOV      r0,r6
        0x0001dbf2:    e002        ..      B        0x1dbfa ; am_util_stdio_vsprintf + 450
        0x0001dbf4:    e043        C.      B        0x1dc7e ; am_util_stdio_vsprintf + 582
        0x0001dbf6:    e00e        ..      B        0x1dc16 ; am_util_stdio_vsprintf + 478
        0x0001dbf8:    2000        .       MOVS     r0,#0
        0x0001dbfa:    4404        .D      ADD      r4,r4,r0
        0x0001dbfc:    44b1        .D      ADD      r9,r9,r6
        0x0001dbfe:    2600        .&      MOVS     r6,#0
        0x0001dc00:    4622        "F      MOV      r2,r4
        0x0001dc02:    4638        8F      MOV      r0,r7
        0x0001dc04:    4641        AF      MOV      r1,r8
        0x0001dc06:    9b03        ..      LDR      r3,[sp,#0xc]
        0x0001dc08:    f001fb56    ..V.    BL       uint64_to_hexstr ; 0x1f2b8
        0x0001dc0c:    4682        .F      MOV      r10,r0
        0x0001dc0e:    b104        ..      CBZ      r4,0x1dc12 ; am_util_stdio_vsprintf + 474
        0x0001dc10:    4454        TD      ADD      r4,r4,r10
        0x0001dc12:    44d1        .D      ADD      r9,r9,r10
        0x0001dc14:    e0d3        ..      B        0x1ddbe ; am_util_stdio_vsprintf + 902
        0x0001dc16:    9802        ..      LDR      r0,[sp,#8]
        0x0001dc18:    b158        X.      CBZ      r0,0x1dc32 ; am_util_stdio_vsprintf + 506
        0x0001dc1a:    980e        ..      LDR      r0,[sp,#0x38]
        0x0001dc1c:    1dc0        ..      ADDS     r0,r0,#7
        0x0001dc1e:    f0200007     ...    BIC      r0,r0,#7
        0x0001dc22:    4601        .F      MOV      r1,r0
        0x0001dc24:    900e        ..      STR      r0,[sp,#0x38]
        0x0001dc26:    6800        .h      LDR      r0,[r0,#0]
        0x0001dc28:    6849        Ih      LDR      r1,[r1,#4]
        0x0001dc2a:    9a0e        ..      LDR      r2,[sp,#0x38]
        0x0001dc2c:    3208        .2      ADDS     r2,r2,#8
        0x0001dc2e:    920e        ..      STR      r2,[sp,#0x38]
        0x0001dc30:    e005        ..      B        0x1dc3e ; am_util_stdio_vsprintf + 518
        0x0001dc32:    980e        ..      LDR      r0,[sp,#0x38]
        0x0001dc34:    6800        .h      LDR      r0,[r0,#0]
        0x0001dc36:    990e        ..      LDR      r1,[sp,#0x38]
        0x0001dc38:    1d09        ..      ADDS     r1,r1,#4
        0x0001dc3a:    910e        ..      STR      r1,[sp,#0x38]
        0x0001dc3c:    2100        .!      MOVS     r1,#0
        0x0001dc3e:    4607        .F      MOV      r7,r0
        0x0001dc40:    4688        .F      MOV      r8,r1
        0x0001dc42:    b18e        ..      CBZ      r6,0x1dc68 ; am_util_stdio_vsprintf + 560
        0x0001dc44:    4638        8F      MOV      r0,r7
        0x0001dc46:    4641        AF      MOV      r1,r8
        0x0001dc48:    f001f9c4    ....    BL       ndigits_in_u64 ; 0x1efd4
        0x0001dc4c:    1a36        6.      SUBS     r6,r6,r0
        0x0001dc4e:    4632        2F      MOV      r2,r6
        0x0001dc50:    4620         F      MOV      r0,r4
        0x0001dc52:    9904        ..      LDR      r1,[sp,#0x10]
        0x0001dc54:    f001f9db    ....    BL       padbuffer ; 0x1f00e
        0x0001dc58:    4606        .F      MOV      r6,r0
        0x0001dc5a:    b10c        ..      CBZ      r4,0x1dc60 ; am_util_stdio_vsprintf + 552
        0x0001dc5c:    4630        0F      MOV      r0,r6
        0x0001dc5e:    e000        ..      B        0x1dc62 ; am_util_stdio_vsprintf + 554
        0x0001dc60:    2000        .       MOVS     r0,#0
        0x0001dc62:    4404        .D      ADD      r4,r4,r0
        0x0001dc64:    44b1        .D      ADD      r9,r9,r6
        0x0001dc66:    2600        .&      MOVS     r6,#0
        0x0001dc68:    4622        "F      MOV      r2,r4
        0x0001dc6a:    4638        8F      MOV      r0,r7
        0x0001dc6c:    4641        AF      MOV      r1,r8
        0x0001dc6e:    f001fb68    ..h.    BL       uint64_to_str ; 0x1f342
        0x0001dc72:    4682        .F      MOV      r10,r0
        0x0001dc74:    b104        ..      CBZ      r4,0x1dc78 ; am_util_stdio_vsprintf + 576
        0x0001dc76:    4454        TD      ADD      r4,r4,r10
        0x0001dc78:    44d1        .D      ADD      r9,r9,r10
        0x0001dc7a:    e0a0        ..      B        0x1ddbe ; am_util_stdio_vsprintf + 902
        0x0001dc7c:    bf00        ..      NOP      
        0x0001dc7e:    9802        ..      LDR      r0,[sp,#8]
        0x0001dc80:    b158        X.      CBZ      r0,0x1dc9a ; am_util_stdio_vsprintf + 610
        0x0001dc82:    980e        ..      LDR      r0,[sp,#0x38]
        0x0001dc84:    1dc0        ..      ADDS     r0,r0,#7
        0x0001dc86:    f0200007     ...    BIC      r0,r0,#7
        0x0001dc8a:    4601        .F      MOV      r1,r0
        0x0001dc8c:    900e        ..      STR      r0,[sp,#0x38]
        0x0001dc8e:    6800        .h      LDR      r0,[r0,#0]
        0x0001dc90:    6849        Ih      LDR      r1,[r1,#4]
        0x0001dc92:    9a0e        ..      LDR      r2,[sp,#0x38]
        0x0001dc94:    3208        .2      ADDS     r2,r2,#8
        0x0001dc96:    920e        ..      STR      r2,[sp,#0x38]
        0x0001dc98:    e005        ..      B        0x1dca6 ; am_util_stdio_vsprintf + 622
        0x0001dc9a:    980e        ..      LDR      r0,[sp,#0x38]
        0x0001dc9c:    6800        .h      LDR      r0,[r0,#0]
        0x0001dc9e:    990e        ..      LDR      r1,[sp,#0x38]
        0x0001dca0:    1d09        ..      ADDS     r1,r1,#4
        0x0001dca2:    910e        ..      STR      r1,[sp,#0x38]
        0x0001dca4:    17c1        ..      ASRS     r1,r0,#31
        0x0001dca6:    e9cd0108    ....    STRD     r0,r1,[sp,#0x20]
        0x0001dcaa:    2300        .#      MOVS     r3,#0
        0x0001dcac:    e9dd0108    ....    LDRD     r0,r1,[sp,#0x20]
        0x0001dcb0:    1ac0        ..      SUBS     r0,r0,r3
        0x0001dcb2:    4199        .A      SBCS     r1,r1,r3
        0x0001dcb4:    da08        ..      BGE      0x1dcc8 ; am_util_stdio_vsprintf + 656
        0x0001dcb6:    2200        ."      MOVS     r2,#0
        0x0001dcb8:    e9dd1008    ....    LDRD     r1,r0,[sp,#0x20]
        0x0001dcbc:    424f        OB      RSBS     r7,r1,#0
        0x0001dcbe:    eb620800    b...    SBC      r8,r2,r0
        0x0001dcc2:    2001        .       MOVS     r0,#1
        0x0001dcc4:    9001        ..      STR      r0,[sp,#4]
        0x0001dcc6:    e003        ..      B        0x1dcd0 ; am_util_stdio_vsprintf + 664
        0x0001dcc8:    e9dd7808    ...x    LDRD     r7,r8,[sp,#0x20]
        0x0001dccc:    2000        .       MOVS     r0,#0
        0x0001dcce:    9001        ..      STR      r0,[sp,#4]
        0x0001dcd0:    b34e        N.      CBZ      r6,0x1dd26 ; am_util_stdio_vsprintf + 750
        0x0001dcd2:    4638        8F      MOV      r0,r7
        0x0001dcd4:    4641        AF      MOV      r1,r8
        0x0001dcd6:    f001f96b    ..k.    BL       ndigits_in_i64 ; 0x1efb0
        0x0001dcda:    1a36        6.      SUBS     r6,r6,r0
        0x0001dcdc:    9801        ..      LDR      r0,[sp,#4]
        0x0001dcde:    b148        H.      CBZ      r0,0x1dcf4 ; am_util_stdio_vsprintf + 700
        0x0001dce0:    1e76        v.      SUBS     r6,r6,#1
        0x0001dce2:    9804        ..      LDR      r0,[sp,#0x10]
        0x0001dce4:    2830        0(      CMP      r0,#0x30
        0x0001dce6:    d105        ..      BNE      0x1dcf4 ; am_util_stdio_vsprintf + 700
        0x0001dce8:    b114        ..      CBZ      r4,0x1dcf0 ; am_util_stdio_vsprintf + 696
        0x0001dcea:    202d        -       MOVS     r0,#0x2d
        0x0001dcec:    f8040b01    ....    STRB     r0,[r4],#1
        0x0001dcf0:    f1090901    ....    ADD      r9,r9,#1
        0x0001dcf4:    4632        2F      MOV      r2,r6
        0x0001dcf6:    4620         F      MOV      r0,r4
        0x0001dcf8:    9904        ..      LDR      r1,[sp,#0x10]
        0x0001dcfa:    f001f988    ....    BL       padbuffer ; 0x1f00e
        0x0001dcfe:    4606        .F      MOV      r6,r0
        0x0001dd00:    b10c        ..      CBZ      r4,0x1dd06 ; am_util_stdio_vsprintf + 718
        0x0001dd02:    4630        0F      MOV      r0,r6
        0x0001dd04:    e000        ..      B        0x1dd08 ; am_util_stdio_vsprintf + 720
        0x0001dd06:    2000        .       MOVS     r0,#0
        0x0001dd08:    4404        .D      ADD      r4,r4,r0
        0x0001dd0a:    44b1        .D      ADD      r9,r9,r6
        0x0001dd0c:    2600        .&      MOVS     r6,#0
        0x0001dd0e:    9801        ..      LDR      r0,[sp,#4]
        0x0001dd10:    b188        ..      CBZ      r0,0x1dd36 ; am_util_stdio_vsprintf + 766
        0x0001dd12:    9804        ..      LDR      r0,[sp,#0x10]
        0x0001dd14:    2820         (      CMP      r0,#0x20
        0x0001dd16:    d10e        ..      BNE      0x1dd36 ; am_util_stdio_vsprintf + 766
        0x0001dd18:    b114        ..      CBZ      r4,0x1dd20 ; am_util_stdio_vsprintf + 744
        0x0001dd1a:    202d        -       MOVS     r0,#0x2d
        0x0001dd1c:    f8040b01    ....    STRB     r0,[r4],#1
        0x0001dd20:    f1090901    ....    ADD      r9,r9,#1
        0x0001dd24:    e007        ..      B        0x1dd36 ; am_util_stdio_vsprintf + 766
        0x0001dd26:    9801        ..      LDR      r0,[sp,#4]
        0x0001dd28:    b128        (.      CBZ      r0,0x1dd36 ; am_util_stdio_vsprintf + 766
        0x0001dd2a:    b114        ..      CBZ      r4,0x1dd32 ; am_util_stdio_vsprintf + 762
        0x0001dd2c:    202d        -       MOVS     r0,#0x2d
        0x0001dd2e:    f8040b01    ....    STRB     r0,[r4],#1
        0x0001dd32:    f1090901    ....    ADD      r9,r9,#1
        0x0001dd36:    4622        "F      MOV      r2,r4
        0x0001dd38:    4638        8F      MOV      r0,r7
        0x0001dd3a:    4641        AF      MOV      r1,r8
        0x0001dd3c:    f001fb01    ....    BL       uint64_to_str ; 0x1f342
        0x0001dd40:    4682        .F      MOV      r10,r0
        0x0001dd42:    b104        ..      CBZ      r4,0x1dd46 ; am_util_stdio_vsprintf + 782
        0x0001dd44:    4454        TD      ADD      r4,r4,r10
        0x0001dd46:    44d1        .D      ADD      r9,r9,r10
        0x0001dd48:    e039        9.      B        0x1ddbe ; am_util_stdio_vsprintf + 902
        0x0001dd4a:    bf00        ..      NOP      
        0x0001dd4c:    b37c        |.      CBZ      r4,0x1ddae ; am_util_stdio_vsprintf + 886
        0x0001dd4e:    980e        ..      LDR      r0,[sp,#0x38]
        0x0001dd50:    1dc0        ..      ADDS     r0,r0,#7
        0x0001dd52:    f0200007     ...    BIC      r0,r0,#7
        0x0001dd56:    900e        ..      STR      r0,[sp,#0x38]
        0x0001dd58:    ecb01b02    ....    VLDM     r0!,{d1}
        0x0001dd5c:    eeb00a41    ..A.    VMOV.F32 s0,s2
        0x0001dd60:    eef00a61    ..a.    VMOV.F32 s1,s3
        0x0001dd64:    900e        ..      STR      r0,[sp,#0x38]
        0x0001dd66:    ec510b10    Q...    VMOV     r0,r1,d0
        0x0001dd6a:    f001fb23    ..#.    BL       __aeabi_d2f ; 0x1f3b4
        0x0001dd6e:    ee080a10    ....    VMOV     s16,r0
        0x0001dd72:    2014        .       MOVS     r0,#0x14
        0x0001dd74:    6020         `      STR      r0,[r4,#0]
        0x0001dd76:    4620         F      MOV      r0,r4
        0x0001dd78:    eeb00a48    ..H.    VMOV.F32 s0,s16
        0x0001dd7c:    9906        ..      LDR      r1,[sp,#0x18]
        0x0001dd7e:    f000faf3    ....    BL       ftoa ; 0x1e368
        0x0001dd82:    4682        .F      MOV      r10,r0
        0x0001dd84:    f1ba0f00    ....    CMP      r10,#0
        0x0001dd88:    da0e        ..      BGE      0x1dda8 ; am_util_stdio_vsprintf + 880
        0x0001dd8a:    f10a0101    ....    ADD      r1,r10,#1
        0x0001dd8e:    b909        ..      CBNZ     r1,0x1dd94 ; am_util_stdio_vsprintf + 860
        0x0001dd90:    4813        .H      LDR      r0,[pc,#76] ; [0x1dde0] = 0x302e30
        0x0001dd92:    e005        ..      B        0x1dda0 ; am_util_stdio_vsprintf + 872
        0x0001dd94:    f10a0102    ....    ADD      r1,r10,#2
        0x0001dd98:    b909        ..      CBNZ     r1,0x1dd9e ; am_util_stdio_vsprintf + 870
        0x0001dd9a:    4812        .H      LDR      r0,[pc,#72] ; [0x1dde4] = 0x232e23
        0x0001dd9c:    e000        ..      B        0x1dda0 ; am_util_stdio_vsprintf + 872
        0x0001dd9e:    4812        .H      LDR      r0,[pc,#72] ; [0x1dde8] = 0x3f2e3f
        0x0001dda0:    6020         `      STR      r0,[r4,#0]
        0x0001dda2:    f04f0a03    O...    MOV      r10,#3
        0x0001dda6:    bf00        ..      NOP      
        0x0001dda8:    44d1        .D      ADD      r9,r9,r10
        0x0001ddaa:    4454        TD      ADD      r4,r4,r10
        0x0001ddac:    bf00        ..      NOP      
        0x0001ddae:    e006        ..      B        0x1ddbe ; am_util_stdio_vsprintf + 902
        0x0001ddb0:    b114        ..      CBZ      r4,0x1ddb8 ; am_util_stdio_vsprintf + 896
        0x0001ddb2:    7828        (x      LDRB     r0,[r5,#0]
        0x0001ddb4:    f8040b01    ....    STRB     r0,[r4],#1
        0x0001ddb8:    f1090901    ....    ADD      r9,r9,#1
        0x0001ddbc:    bf00        ..      NOP      
        0x0001ddbe:    bf00        ..      NOP      
        0x0001ddc0:    1c6d        m.      ADDS     r5,r5,#1
        0x0001ddc2:    bf00        ..      NOP      
        0x0001ddc4:    7828        (x      LDRB     r0,[r5,#0]
        0x0001ddc6:    2800        .(      CMP      r0,#0
        0x0001ddc8:    f47fae42    ..B.    BNE      0x1da50 ; am_util_stdio_vsprintf + 24
        0x0001ddcc:    b104        ..      CBZ      r4,0x1ddd0 ; am_util_stdio_vsprintf + 920
        0x0001ddce:    7020         p      STRB     r0,[r4,#0]
        0x0001ddd0:    4648        HF      MOV      r0,r9
        0x0001ddd2:    b00a        ..      ADD      sp,sp,#0x28
        0x0001ddd4:    ecbd8b02    ....    VPOP     {d8}
        0x0001ddd8:    e8bd8ffe    ....    POP      {r1-r11,pc}
    $d
        0x0001dddc:    10000024    $...    DCD    268435492
        0x0001dde0:    00302e30    0.0.    DCD    3157552
        0x0001dde4:    00232e23    #.#.    DCD    2305571
        0x0001dde8:    003f2e3f    ?.?.    DCD    4140607
    $t
    i.am_valid_sp
    am_valid_sp
        0x0001ddec:    4601        .F      MOV      r1,r0
        0x0001ddee:    f1b15f80    ..._    CMP      r1,#0x10000000
        0x0001ddf2:    d304        ..      BCC      0x1ddfe ; am_valid_sp + 18
        0x0001ddf4:    4803        .H      LDR      r0,[pc,#12] ; [0x1de04] = 0x102c0000
        0x0001ddf6:    4281        .B      CMP      r1,r0
        0x0001ddf8:    d201        ..      BCS      0x1ddfe ; am_valid_sp + 18
        0x0001ddfa:    2001        .       MOVS     r0,#1
        0x0001ddfc:    4770        pG      BX       lr
        0x0001ddfe:    2000        .       MOVS     r0,#0
        0x0001de00:    e7fc        ..      B        0x1ddfc ; am_valid_sp + 16
    $d
        0x0001de02:    0000        ..      DCW    0
        0x0001de04:    102c0000    ..,.    DCD    271319040
    $t
    i.buck_ldo_update_override
    buck_ldo_update_override
        0x0001de08:    4906        .I      LDR      r1,[pc,#24] ; [0x1de24] = 0x40020000
        0x0001de0a:    6e0a        .n      LDR      r2,[r1,#0x60]
        0x0001de0c:    f3604210    `..B    BFI      r2,r0,#16,#1
        0x0001de10:    660a        .f      STR      r2,[r1,#0x60]
        0x0001de12:    6e0a        .n      LDR      r2,[r1,#0x60]
        0x0001de14:    f3600200    `...    BFI      r2,r0,#0,#1
        0x0001de18:    660a        .f      STR      r2,[r1,#0x60]
        0x0001de1a:    6e0a        .n      LDR      r2,[r1,#0x60]
        0x0001de1c:    f3601245    `.E.    BFI      r2,r0,#5,#1
        0x0001de20:    660a        .f      STR      r2,[r1,#0x60]
        0x0001de22:    4770        pG      BX       lr
    $d
        0x0001de24:    40020000    ...@    DCD    1073872896
    $t
    i.build_dma_cmdlist
    build_dma_cmdlist
        0x0001de28:    b430        0.      PUSH     {r4,r5}
        0x0001de2a:    f8d0c004    ....    LDR      r12,[r0,#4]
        0x0001de2e:    b111        ..      CBZ      r1,0x1de36 ; build_dma_cmdlist + 14
        0x0001de30:    2901        .)      CMP      r1,#1
        0x0001de32:    d055        U.      BEQ      0x1dee0 ; build_dma_cmdlist + 184
        0x0001de34:    e0a5        ..      B        0x1df82 ; build_dma_cmdlist + 346
        0x0001de36:    6819        .h      LDR      r1,[r3,#0]
        0x0001de38:    f5b13f80    ...?    CMP      r1,#0x10000
        0x0001de3c:    d254        T.      BCS      0x1dee8 ; build_dma_cmdlist + 192
        0x0001de3e:    7c99        .|      LDRB     r1,[r3,#0x12]
        0x0001de40:    b111        ..      CBZ      r1,0x1de48 ; build_dma_cmdlist + 32
        0x0001de42:    bc30        0.      POP      {r4,r5}
        0x0001de44:    2007        .       MOVS     r0,#7
        0x0001de46:    4770        pG      BX       lr
        0x0001de48:    4953        SI      LDR      r1,[pc,#332] ; [0x1df98] = 0x40060008
        0x0001de4a:    f44f7400    O..t    MOV      r4,#0x200
        0x0001de4e:    eb01310c    ...1    ADD      r1,r1,r12,LSL #12
        0x0001de52:    6011        .`      STR      r1,[r2,#0]
        0x0001de54:    6899        .h      LDR      r1,[r3,#8]
        0x0001de56:    6051        Q`      STR      r1,[r2,#4]
        0x0001de58:    4950        PI      LDR      r1,[pc,#320] ; [0x1df9c] = 0x4006000c
        0x0001de5a:    eb01310c    ...1    ADD      r1,r1,r12,LSL #12
        0x0001de5e:    6091        .`      STR      r1,[r2,#8]
        0x0001de60:    89d9        ..      LDRH     r1,[r3,#0xe]
        0x0001de62:    60d1        .`      STR      r1,[r2,#0xc]
        0x0001de64:    494e        NI      LDR      r1,[pc,#312] ; [0x1dfa0] = 0x40060000
        0x0001de66:    eb01310c    ...1    ADD      r1,r1,r12,LSL #12
        0x0001de6a:    6111        .a      STR      r1,[r2,#0x10]
        0x0001de6c:    7959        Yy      LDRB     r1,[r3,#5]
        0x0001de6e:    f44f6c00    O..l    MOV      r12,#0x800
        0x0001de72:    ea0c21c1    ...!    AND      r1,r12,r1,LSL #11
        0x0001de76:    f8b3c000    ....    LDRH     r12,[r3,#0]
        0x0001de7a:    7b40        @{      LDRB     r0,[r0,#0xd]
        0x0001de7c:    ea41410c    A..A    ORR      r1,r1,r12,LSL #16
        0x0001de80:    f893c004    ....    LDRB     r12,[r3,#4]
        0x0001de84:    ea042c4c    ..L,    AND      r12,r4,r12,LSL #9
        0x0001de88:    ea41010c    A...    ORR      r1,r1,r12
        0x0001de8c:    f893c006    ....    LDRB     r12,[r3,#6]
        0x0001de90:    2480        .$      MOVS     r4,#0x80
        0x0001de92:    ea041ccc    ....    AND      r12,r4,r12,LSL #7
        0x0001de96:    ea41010c    A...    ORR      r1,r1,r12
        0x0001de9a:    f893c00c    ....    LDRB     r12,[r3,#0xc]
        0x0001de9e:    2440        @$      MOVS     r4,#0x40
        0x0001dea0:    ea041c8c    ....    AND      r12,r4,r12,LSL #6
        0x0001dea4:    ea41010c    A...    ORR      r1,r1,r12
        0x0001dea8:    f893c007    ....    LDRB     r12,[r3,#7]
        0x0001deac:    2420         $      MOVS     r4,#0x20
        0x0001deae:    ea041c4c    ..L.    AND      r12,r4,r12,LSL #5
        0x0001deb2:    ea41010c    A...    ORR      r1,r1,r12
        0x0001deb6:    f893c010    ....    LDRB     r12,[r3,#0x10]
        0x0001deba:    0164        d.      LSLS     r4,r4,#5
        0x0001debc:    ea042c8c    ...,    AND      r12,r4,r12,LSL #10
        0x0001dec0:    ea41010c    A...    ORR      r1,r1,r12
        0x0001dec4:    f44f7c80    O..|    MOV      r12,#0x100
        0x0001dec8:    ea0c2000    ...     AND      r0,r12,r0,LSL #8
        0x0001decc:    4308        .C      ORRS     r0,r0,r1
        0x0001dece:    7c59        Y|      LDRB     r1,[r3,#0x11]
        0x0001ded0:    00a3        ..      LSLS     r3,r4,#2
        0x0001ded2:    ea033101    ...1    AND      r1,r3,r1,LSL #12
        0x0001ded6:    4308        .C      ORRS     r0,r0,r1
        0x0001ded8:    f0400001    @...    ORR      r0,r0,#1
        0x0001dedc:    6150        Pa      STR      r0,[r2,#0x14]
        0x0001dede:    e050        P.      B        0x1df82 ; build_dma_cmdlist + 346
        0x0001dee0:    6859        Yh      LDR      r1,[r3,#4]
        0x0001dee2:    f1b17f80    ....    CMP      r1,#0x1000000
        0x0001dee6:    d302        ..      BCC      0x1deee ; build_dma_cmdlist + 198
        0x0001dee8:    bc30        0.      POP      {r4,r5}
        0x0001deea:    2005        .       MOVS     r0,#5
        0x0001deec:    4770        pG      BX       lr
        0x0001deee:    f8d01838    ..8.    LDR      r1,[r0,#0x838]
        0x0001def2:    2900        .)      CMP      r1,#0
        0x0001def4:    bf1c        ..      ITT      NE
        0x0001def6:    6919        .i      LDRNE    r1,[r3,#0x10]
        0x0001def8:    2900        .)      CMPNE    r1,#0
        0x0001defa:    d1a2        ..      BNE      0x1de42 ; build_dma_cmdlist + 26
        0x0001defc:    4929        )I      LDR      r1,[pc,#164] ; [0x1dfa4] = 0x40060100
        0x0001defe:    f04f0400    O...    MOV      r4,#0
        0x0001df02:    eb01310c    ...1    ADD      r1,r1,r12,LSL #12
        0x0001df06:    e9c2140c    ....    STRD     r1,r4,[r2,#0x30]
        0x0001df0a:    4c27        'L      LDR      r4,[pc,#156] ; [0x1dfa8] = 0x40060108
        0x0001df0c:    f04f0504    O...    MOV      r5,#4
        0x0001df10:    eb04340c    ...4    ADD      r4,r4,r12,LSL #12
        0x0001df14:    6114        .a      STR      r4,[r2,#0x10]
        0x0001df16:    68dc        .h      LDR      r4,[r3,#0xc]
        0x0001df18:    6154        Ta      STR      r4,[r2,#0x14]
        0x0001df1a:    4c24        $L      LDR      r4,[pc,#144] ; [0x1dfac] = 0x4006010c
        0x0001df1c:    eb04340c    ...4    ADD      r4,r4,r12,LSL #12
        0x0001df20:    6194        .a      STR      r4,[r2,#0x18]
        0x0001df22:    689c        .h      LDR      r4,[r3,#8]
        0x0001df24:    61d4        .a      STR      r4,[r2,#0x1c]
        0x0001df26:    4c22        "L      LDR      r4,[pc,#136] ; [0x1dfb0] = 0x40060110
        0x0001df28:    eb04340c    ...4    ADD      r4,r4,r12,LSL #12
        0x0001df2c:    6214        .b      STR      r4,[r2,#0x20]
        0x0001df2e:    685c        \h      LDR      r4,[r3,#4]
        0x0001df30:    e9c24109    ...A    STRD     r4,r1,[r2,#0x24]
        0x0001df34:    7819        .x      LDRB     r1,[r3,#0]
        0x0001df36:    f04f0430    O.0.    MOV      r4,#0x30
        0x0001df3a:    ea041101    ....    AND      r1,r4,r1,LSL #4
        0x0001df3e:    785c        \x      LDRB     r4,[r3,#1]
        0x0001df40:    ea050484    ....    AND      r4,r5,r4,LSL #2
        0x0001df44:    ea410104    A...    ORR      r1,r1,r4
        0x0001df48:    f0410103    A...    ORR      r1,r1,#3
        0x0001df4c:    62d1        .b      STR      r1,[r2,#0x2c]
        0x0001df4e:    4919        .I      LDR      r1,[pc,#100] ; [0x1dfb4] = 0x400602b8
        0x0001df50:    eb01310c    ...1    ADD      r1,r1,r12,LSL #12
        0x0001df54:    6091        .`      STR      r1,[r2,#8]
        0x0001df56:    6011        .`      STR      r1,[r2,#0]
        0x0001df58:    f8d04838    ..8H    LDR      r4,[r0,#0x838]
        0x0001df5c:    6919        .i      LDR      r1,[r3,#0x10]
        0x0001df5e:    2c01        .,      CMP      r4,#1
        0x0001df60:    d012        ..      BEQ      0x1df88 ; build_dma_cmdlist + 352
        0x0001df62:    2c02        .,      CMP      r4,#2
        0x0001df64:    bf0c        ..      ITE      EQ
        0x0001df66:    f44f4180    O..A    MOVEQ    r1,#0x4000
        0x0001df6a:    f4414181    A..A    ORRNE    r1,r1,#0x4080
        0x0001df6e:    f44f4080    O..@    MOV      r0,#0x4000
        0x0001df72:    6051        Q`      STR      r1,[r2,#4]
        0x0001df74:    60d0        .`      STR      r0,[r2,#0xc]
        0x0001df76:    6958        Xi      LDR      r0,[r3,#0x14]
        0x0001df78:    63d0        .c      STR      r0,[r2,#0x3c]
        0x0001df7a:    480f        .H      LDR      r0,[pc,#60] ; [0x1dfb8] = 0x400602b4
        0x0001df7c:    eb00300c    ...0    ADD      r0,r0,r12,LSL #12
        0x0001df80:    6390        .c      STR      r0,[r2,#0x38]
        0x0001df82:    bc30        0.      POP      {r4,r5}
        0x0001df84:    2000        .       MOVS     r0,#0
        0x0001df86:    4770        pG      BX       lr
        0x0001df88:    f24404a0    D...    MOV      r4,#0x40a0
        0x0001df8c:    4321        !C      ORRS     r1,r1,r4
        0x0001df8e:    2402        .$      MOVS     r4,#2
        0x0001df90:    f8c04838    ..8H    STR      r4,[r0,#0x838]
        0x0001df94:    e7eb        ..      B        0x1df6e ; build_dma_cmdlist + 326
    $d
        0x0001df96:    0000        ..      DCW    0
        0x0001df98:    40060008    ...@    DCD    1074135048
        0x0001df9c:    4006000c    ...@    DCD    1074135052
        0x0001dfa0:    40060000    ...@    DCD    1074135040
        0x0001dfa4:    40060100    ...@    DCD    1074135296
        0x0001dfa8:    40060108    ...@    DCD    1074135304
        0x0001dfac:    4006010c    ...@    DCD    1074135308
        0x0001dfb0:    40060110    ...@    DCD    1074135312
        0x0001dfb4:    400602b8    ...@    DCD    1074135736
        0x0001dfb8:    400602b4    ...@    DCD    1074135732
    $t
    i.chiprev_set
    chiprev_set
        0x0001dfbc:    b510        ..      PUSH     {r4,lr}
        0x0001dfbe:    7b04        .{      LDRB     r4,[r0,#0xc]
        0x0001dfc0:    f3c41203    ....    UBFX     r2,r4,#4,#4
        0x0001dfc4:    f1020440    ..@.    ADD      r4,r2,#0x40
        0x0001dfc8:    f8804050    ..P@    STRB     r4,[r0,#0x50]
        0x0001dfcc:    7b04        .{      LDRB     r4,[r0,#0xc]
        0x0001dfce:    f004030f    ....    AND      r3,r4,#0xf
        0x0001dfd2:    f1030430    ..0.    ADD      r4,r3,#0x30
        0x0001dfd6:    1a64        d.      SUBS     r4,r4,r1
        0x0001dfd8:    f8804051    ..Q@    STRB     r4,[r0,#0x51]
        0x0001dfdc:    bd10        ..      POP      {r4,pc}
        0x0001dfde:    0000        ..      MOVS     r0,r0
    i.clkfreq_string
    clkfreq_string
        0x0001dfe0:    4601        .F      MOV      r1,r0
        0x0001dfe2:    2906        .)      CMP      r1,#6
        0x0001dfe4:    d01c        ..      BEQ      0x1e020 ; clkfreq_string + 64
        0x0001dfe6:    dc06        ..      BGT      0x1dff6 ; clkfreq_string + 22
        0x0001dfe8:    2905        .)      CMP      r1,#5
        0x0001dfea:    d225        %.      BCS      0x1e038 ; clkfreq_string + 88
        0x0001dfec:    e8dff001    ....    TBB      [pc,r1]
    $d
        0x0001dff0:    14121025    %...    DCD    336728101
        0x0001dff4:    0016        ..      DCW    22
    $t
        0x0001dff6:    2910        .)      CMP      r1,#0x10
        0x0001dff8:    d018        ..      BEQ      0x1e02c ; clkfreq_string + 76
        0x0001dffa:    dc04        ..      BGT      0x1e006 ; clkfreq_string + 38
        0x0001dffc:    2908        .)      CMP      r1,#8
        0x0001dffe:    d011        ..      BEQ      0x1e024 ; clkfreq_string + 68
        0x0001e000:    290c        .)      CMP      r1,#0xc
        0x0001e002:    d119        ..      BNE      0x1e038 ; clkfreq_string + 88
        0x0001e004:    e010        ..      B        0x1e028 ; clkfreq_string + 72
        0x0001e006:    2918        .)      CMP      r1,#0x18
        0x0001e008:    d012        ..      BEQ      0x1e030 ; clkfreq_string + 80
        0x0001e00a:    2920         )      CMP      r1,#0x20
        0x0001e00c:    d114        ..      BNE      0x1e038 ; clkfreq_string + 88
        0x0001e00e:    e011        ..      B        0x1e034 ; clkfreq_string + 84
        0x0001e010:    a00c        ..      ADR      r0,{pc}+0x34 ; 0x1e044
        0x0001e012:    4770        pG      BX       lr
        0x0001e014:    a00c        ..      ADR      r0,{pc}+0x34 ; 0x1e048
        0x0001e016:    e7fc        ..      B        0x1e012 ; clkfreq_string + 50
        0x0001e018:    a00c        ..      ADR      r0,{pc}+0x34 ; 0x1e04c
        0x0001e01a:    e7fa        ..      B        0x1e012 ; clkfreq_string + 50
        0x0001e01c:    a00c        ..      ADR      r0,{pc}+0x34 ; 0x1e050
        0x0001e01e:    e7f8        ..      B        0x1e012 ; clkfreq_string + 50
        0x0001e020:    a00c        ..      ADR      r0,{pc}+0x34 ; 0x1e054
        0x0001e022:    e7f6        ..      B        0x1e012 ; clkfreq_string + 50
        0x0001e024:    a00c        ..      ADR      r0,{pc}+0x34 ; 0x1e058
        0x0001e026:    e7f4        ..      B        0x1e012 ; clkfreq_string + 50
        0x0001e028:    a00c        ..      ADR      r0,{pc}+0x34 ; 0x1e05c
        0x0001e02a:    e7f2        ..      B        0x1e012 ; clkfreq_string + 50
        0x0001e02c:    a00c        ..      ADR      r0,{pc}+0x34 ; 0x1e060
        0x0001e02e:    e7f0        ..      B        0x1e012 ; clkfreq_string + 50
        0x0001e030:    a00c        ..      ADR      r0,{pc}+0x34 ; 0x1e064
        0x0001e032:    e7ee        ..      B        0x1e012 ; clkfreq_string + 50
        0x0001e034:    a00c        ..      ADR      r0,{pc}+0x34 ; 0x1e068
        0x0001e036:    e7ec        ..      B        0x1e012 ; clkfreq_string + 50
        0x0001e038:    bf00        ..      NOP      
        0x0001e03a:    bf00        ..      NOP      
        0x0001e03c:    bf00        ..      NOP      
        0x0001e03e:    a00b        ..      ADR      r0,{pc}+0x2e ; 0x1e06c
        0x0001e040:    e7e7        ..      B        0x1e012 ; clkfreq_string + 50
    $d
        0x0001e042:    0000        ..      DCW    0
        0x0001e044:    00003639    96..    DCD    13881
        0x0001e048:    00003834    48..    DCD    14388
        0x0001e04c:    00003233    32..    DCD    12851
        0x0001e050:    00003432    24..    DCD    13362
        0x0001e054:    00003631    16..    DCD    13873
        0x0001e058:    00003231    12..    DCD    12849
        0x0001e05c:    00000038    8...    DCD    56
        0x0001e060:    00000036    6...    DCD    54
        0x0001e064:    00000034    4...    DCD    52
        0x0001e068:    00000033    3...    DCD    51
        0x0001e06c:    00000030    0...    DCD    48
    $t
    i.copy_words
    copy_words
        0x0001e070:    b430        0.      PUSH     {r4,r5}
        0x0001e072:    2301        .#      MOVS     r3,#1
        0x0001e074:    f05f0403    _...    MOVS.W   r4,#3
        0x0001e078:    f1a20c01    ....    SUB      r12,r2,#1
        0x0001e07c:    f851502c    Q.,P    LDR      r5,[r1,r12,LSL #2]
        0x0001e080:    f840502c    @.,P    STR      r5,[r0,r12,LSL #2]
        0x0001e084:    1e92        ..      SUBS     r2,r2,#2
        0x0001e086:    f851c022    Q.".    LDR      r12,[r1,r2,LSL #2]
        0x0001e08a:    f840c022    @.".    STR      r12,[r0,r2,LSL #2]
        0x0001e08e:    1c9b        ..      ADDS     r3,r3,#2
        0x0001e090:    42a3        .B      CMP      r3,r4
        0x0001e092:    dbf1        ..      BLT      0x1e078 ; copy_words + 8
        0x0001e094:    bc30        0.      POP      {r4,r5}
        0x0001e096:    4770        pG      BX       lr
    i.count_consecutive_ones
    count_consecutive_ones
        0x0001e098:    4601        .F      MOV      r1,r0
        0x0001e09a:    2000        .       MOVS     r0,#0
        0x0001e09c:    680a        .h      LDR      r2,[r1,#0]
        0x0001e09e:    e002        ..      B        0x1e0a6 ; count_consecutive_ones + 14
        0x0001e0a0:    ea020242    ..B.    AND      r2,r2,r2,LSL #1
        0x0001e0a4:    1c40        @.      ADDS     r0,r0,#1
        0x0001e0a6:    2a00        .*      CMP      r2,#0
        0x0001e0a8:    d1fa        ..      BNE      0x1e0a0 ; count_consecutive_ones + 8
        0x0001e0aa:    4770        pG      BX       lr
    i.crypto_boost_trims
    crypto_boost_trims
        0x0001e0ac:    b5f8        ..      PUSH     {r3-r7,lr}
        0x0001e0ae:    4f29        )O      LDR      r7,[pc,#164] ; [0x1e154] = 0x100000f8
        0x0001e0b0:    4606        .F      MOV      r6,r0
        0x0001e0b2:    460c        .F      MOV      r4,r1
        0x0001e0b4:    78b8        .x      LDRB     r0,[r7,#2]
        0x0001e0b6:    ea460100    F...    ORR      r1,r6,r0
        0x0001e0ba:    4030        0@      ANDS     r0,r0,r6
        0x0001e0bc:    ea310000    1...    BICS     r0,r1,r0
        0x0001e0c0:    bf08        ..      IT       EQ
        0x0001e0c2:    bdf8        ..      POPEQ    {r3-r7,pc}
        0x0001e0c4:    f7faf94e    ..N.    BL       am_hal_interrupt_master_disable ; 0x18364
        0x0001e0c8:    9000        ..      STR      r0,[sp,#0]
        0x0001e0ca:    70be        .p      STRB     r6,[r7,#2]
        0x0001e0cc:    6af8        .j      LDR      r0,[r7,#0x2c]
        0x0001e0ce:    2e00        ..      CMP      r6,#0
        0x0001e0d0:    bf0c        ..      ITE      EQ
        0x0001e0d2:    1b05        ..      SUBEQ    r5,r0,r4
        0x0001e0d4:    1905        ..      ADDNE    r5,r0,r4
        0x0001e0d6:    62fd        .b      STR      r5,[r7,#0x2c]
        0x0001e0d8:    2d00        .-      CMP      r5,#0
        0x0001e0da:    bfb8        ..      IT       LT
        0x0001e0dc:    2500        .%      MOVLT    r5,#0
        0x0001e0de:    db02        ..      BLT      0x1e0e6 ; crypto_boost_trims + 58
        0x0001e0e0:    2d3f        ?-      CMP      r5,#0x3f
        0x0001e0e2:    bf88        ..      IT       HI
        0x0001e0e4:    253f        ?%      MOVHI    r5,#0x3f
        0x0001e0e6:    2e00        ..      CMP      r6,#0
        0x0001e0e8:    6b38        8k      LDR      r0,[r7,#0x30]
        0x0001e0ea:    bf14        ..      ITE      NE
        0x0001e0ec:    4404        .D      ADDNE    r4,r0
        0x0001e0ee:    1b04        ..      SUBEQ    r4,r0,r4
        0x0001e0f0:    633c        <c      STR      r4,[r7,#0x30]
        0x0001e0f2:    2c00        .,      CMP      r4,#0
        0x0001e0f4:    bfb8        ..      IT       LT
        0x0001e0f6:    2400        .$      MOVLT    r4,#0
        0x0001e0f8:    db02        ..      BLT      0x1e100 ; crypto_boost_trims + 84
        0x0001e0fa:    2c3f        ?,      CMP      r4,#0x3f
        0x0001e0fc:    bf88        ..      IT       HI
        0x0001e0fe:    243f        ?$      MOVHI    r4,#0x3f
        0x0001e100:    4f15        .O      LDR      r7,[pc,#84] ; [0x1e158] = 0x40020000
        0x0001e102:    b17e        ~.      CBZ      r6,0x1e124 ; crypto_boost_trims + 120
        0x0001e104:    f8d7036c    ..l.    LDR      r0,[r7,#0x36c]
        0x0001e108:    f3655019    e..P    BFI      r0,r5,#20,#6
        0x0001e10c:    f8c7036c    ..l.    STR      r0,[r7,#0x36c]
        0x0001e110:    2014        .       MOVS     r0,#0x14
        0x0001e112:    f7fcfbcb    ....    BL       am_hal_delay_us ; 0x1a8ac
        0x0001e116:    f8d70088    ....    LDR      r0,[r7,#0x88]
        0x0001e11a:    f3640005    d...    BFI      r0,r4,#0,#6
        0x0001e11e:    f8c70088    ....    STR      r0,[r7,#0x88]
        0x0001e122:    e00e        ..      B        0x1e142 ; crypto_boost_trims + 150
        0x0001e124:    f8d70088    ....    LDR      r0,[r7,#0x88]
        0x0001e128:    f3640005    d...    BFI      r0,r4,#0,#6
        0x0001e12c:    f8c70088    ....    STR      r0,[r7,#0x88]
        0x0001e130:    2014        .       MOVS     r0,#0x14
        0x0001e132:    f7fcfbbb    ....    BL       am_hal_delay_us ; 0x1a8ac
        0x0001e136:    f8d7036c    ..l.    LDR      r0,[r7,#0x36c]
        0x0001e13a:    f3655019    e..P    BFI      r0,r5,#20,#6
        0x0001e13e:    f8c7036c    ..l.    STR      r0,[r7,#0x36c]
        0x0001e142:    9800        ..      LDR      r0,[sp,#0]
        0x0001e144:    f7faf912    ....    BL       am_hal_interrupt_master_set ; 0x1836c
        0x0001e148:    e8bd40f8    ...@    POP      {r3-r7,lr}
        0x0001e14c:    2014        .       MOVS     r0,#0x14
        0x0001e14e:    f7fcbbad    ....    B        am_hal_delay_us ; 0x1a8ac
    $d
        0x0001e152:    0000        ..      DCW    0
        0x0001e154:    100000f8    ....    DCD    268435704
        0x0001e158:    40020000    ...@    DCD    1073872896
    $t
    i.decstr_to_int
    decstr_to_int
        0x0001e15c:    b530        0.      PUSH     {r4,r5,lr}
        0x0001e15e:    4602        .F      MOV      r2,r0
        0x0001e160:    2500        .%      MOVS     r5,#0
        0x0001e162:    2300        .#      MOVS     r3,#0
        0x0001e164:    2400        .$      MOVS     r4,#0
        0x0001e166:    7810        .x      LDRB     r0,[r2,#0]
        0x0001e168:    282d        -(      CMP      r0,#0x2d
        0x0001e16a:    d102        ..      BNE      0x1e172 ; decstr_to_int + 22
        0x0001e16c:    2501        .%      MOVS     r5,#1
        0x0001e16e:    1c52        R.      ADDS     r2,r2,#1
        0x0001e170:    1c64        d.      ADDS     r4,r4,#1
        0x0001e172:    e007        ..      B        0x1e184 ; decstr_to_int + 40
        0x0001e174:    1c64        d.      ADDS     r4,r4,#1
        0x0001e176:    eb030083    ....    ADD      r0,r3,r3,LSL #2
        0x0001e17a:    0043        C.      LSLS     r3,r0,#1
        0x0001e17c:    7810        .x      LDRB     r0,[r2,#0]
        0x0001e17e:    3830        08      SUBS     r0,r0,#0x30
        0x0001e180:    4403        .D      ADD      r3,r3,r0
        0x0001e182:    1c52        R.      ADDS     r2,r2,#1
        0x0001e184:    7810        .x      LDRB     r0,[r2,#0]
        0x0001e186:    2830        0(      CMP      r0,#0x30
        0x0001e188:    db02        ..      BLT      0x1e190 ; decstr_to_int + 52
        0x0001e18a:    7810        .x      LDRB     r0,[r2,#0]
        0x0001e18c:    2839        9(      CMP      r0,#0x39
        0x0001e18e:    ddf1        ..      BLE      0x1e174 ; decstr_to_int + 24
        0x0001e190:    b101        ..      CBZ      r1,0x1e194 ; decstr_to_int + 56
        0x0001e192:    600c        .`      STR      r4,[r1,#0]
        0x0001e194:    b10d        ..      CBZ      r5,0x1e19a ; decstr_to_int + 62
        0x0001e196:    4258        XB      RSBS     r0,r3,#0
        0x0001e198:    bd30        0.      POP      {r4,r5,pc}
        0x0001e19a:    4618        .F      MOV      r0,r3
        0x0001e19c:    e7fc        ..      B        0x1e198 ; decstr_to_int + 60
    i.divu64_10
    divu64_10
        0x0001e19e:    e92d4ff0    -..O    PUSH     {r4-r11,lr}
        0x0001e1a2:    4604        .F      MOV      r4,r0
        0x0001e1a4:    460d        .F      MOV      r5,r1
        0x0001e1a6:    2000        .       MOVS     r0,#0
        0x0001e1a8:    ea850100    ....    EOR      r1,r5,r0
        0x0001e1ac:    4040        @@      EORS     r0,r0,r0
        0x0001e1ae:    4301        .C      ORRS     r1,r1,r0
        0x0001e1b0:    d044        D.      BEQ      0x1e23c ; divu64_10 + 158
        0x0001e1b2:    ea5f0a55    _.U.    LSRS     r10,r5,#1
        0x0001e1b6:    ea4f0134    O.4.    RRX      r1,r4
        0x0001e1ba:    ea4f0b94    O...    LSR      r11,r4,#2
        0x0001e1be:    ea4b7085    K..p    ORR      r0,r11,r5,LSL #30
        0x0001e1c2:    180a        ..      ADDS     r2,r1,r0
        0x0001e1c4:    eb4a0395    J...    ADC      r3,r10,r5,LSR #2
        0x0001e1c8:    ea4f1012    O...    LSR      r0,r2,#4
        0x0001e1cc:    ea407a03    @..z    ORR      r10,r0,r3,LSL #28
        0x0001e1d0:    eb1a0202    ....    ADDS     r2,r10,r2
        0x0001e1d4:    eb431313    C...    ADC      r3,r3,r3,LSR #4
        0x0001e1d8:    ea4f2012    O..     LSR      r0,r2,#8
        0x0001e1dc:    ea406a03    @..j    ORR      r10,r0,r3,LSL #24
        0x0001e1e0:    eb1a0202    ....    ADDS     r2,r10,r2
        0x0001e1e4:    eb432313    C..#    ADC      r3,r3,r3,LSR #8
        0x0001e1e8:    ea4f4012    O..@    LSR      r0,r2,#16
        0x0001e1ec:    ea404a03    @..J    ORR      r10,r0,r3,LSL #16
        0x0001e1f0:    eb1a0202    ....    ADDS     r2,r10,r2
        0x0001e1f4:    eb434313    C..C    ADC      r3,r3,r3,LSR #16
        0x0001e1f8:    189a        ..      ADDS     r2,r3,r2
        0x0001e1fa:    f1430300    C...    ADC      r3,r3,#0
        0x0001e1fe:    08d0        ..      LSRS     r0,r2,#3
        0x0001e200:    ea407243    @.Cr    ORR      r2,r0,r3,LSL #29
        0x0001e204:    08db        ..      LSRS     r3,r3,#3
        0x0001e206:    210a        .!      MOVS     r1,#0xa
        0x0001e208:    f04f0a00    O...    MOV      r10,#0
        0x0001e20c:    fba20b01    ....    UMULL    r0,r11,r2,r1
        0x0001e210:    fb03b101    ....    MLA      r1,r3,r1,r11
        0x0001e214:    fb02110a    ....    MLA      r1,r2,r10,r1
        0x0001e218:    1a26        &.      SUBS     r6,r4,r0
        0x0001e21a:    eb650701    e...    SBC      r7,r5,r1
        0x0001e21e:    2106        .!      MOVS     r1,#6
        0x0001e220:    eb160a01    ....    ADDS     r10,r6,r1
        0x0001e224:    f1470100    G...    ADC      r1,r7,#0
        0x0001e228:    ea4f101a    O...    LSR      r0,r10,#4
        0x0001e22c:    ea407a01    @..z    ORR      r10,r0,r1,LSL #28
        0x0001e230:    eb1a0002    ....    ADDS     r0,r10,r2
        0x0001e234:    eb431111    C...    ADC      r1,r3,r1,LSR #4
        0x0001e238:    e8bd8ff0    ....    POP      {r4-r11,pc}
        0x0001e23c:    46a0        .F      MOV      r8,r4
        0x0001e23e:    ea4f0058    O.X.    LSR      r0,r8,#1
        0x0001e242:    eb000c98    ....    ADD      r12,r0,r8,LSR #2
        0x0001e246:    eb0c1c1c    ....    ADD      r12,r12,r12,LSR #4
        0x0001e24a:    eb0c2c1c    ...,    ADD      r12,r12,r12,LSR #8
        0x0001e24e:    eb0c4c1c    ...L    ADD      r12,r12,r12,LSR #16
        0x0001e252:    ea4f0cdc    O...    LSR      r12,r12,#3
        0x0001e256:    eb0c008c    ....    ADD      r0,r12,r12,LSL #2
        0x0001e25a:    eba80940    ..@.    SUB      r9,r8,r0,LSL #1
        0x0001e25e:    f1090006    ....    ADD      r0,r9,#6
        0x0001e262:    eb0c1010    ....    ADD      r0,r12,r0,LSR #4
        0x0001e266:    2100        .!      MOVS     r1,#0
        0x0001e268:    e7e6        ..      B        0x1e238 ; divu64_10 + 154
    i.find_mid_point
    find_mid_point
        0x0001e26a:    e92d41f0    -..A    PUSH     {r4-r8,lr}
        0x0001e26e:    4605        .F      MOV      r5,r0
        0x0001e270:    2100        .!      MOVS     r1,#0
        0x0001e272:    2300        .#      MOVS     r3,#0
        0x0001e274:    2000        .       MOVS     r0,#0
        0x0001e276:    2600        .&      MOVS     r6,#0
        0x0001e278:    682c        ,h      LDR      r4,[r5,#0]
        0x0001e27a:    2700        .'      MOVS     r7,#0
        0x0001e27c:    4684        .F      MOV      r12,r0
        0x0001e27e:    2200        ."      MOVS     r2,#0
        0x0001e280:    e025        %.      B        0x1e2ce ; find_mid_point + 100
        0x0001e282:    f04f0801    O...    MOV      r8,#1
        0x0001e286:    fa08f802    ....    LSL      r8,r8,r2
        0x0001e28a:    ea080804    ....    AND      r8,r8,r4
        0x0001e28e:    f1b80f00    ....    CMP      r8,#0
        0x0001e292:    d002        ..      BEQ      0x1e29a ; find_mid_point + 48
        0x0001e294:    2601        .&      MOVS     r6,#1
        0x0001e296:    1c49        I.      ADDS     r1,r1,#1
        0x0001e298:    e004        ..      B        0x1e2a4 ; find_mid_point + 58
        0x0001e29a:    2e01        ..      CMP      r6,#1
        0x0001e29c:    d102        ..      BNE      0x1e2a4 ; find_mid_point + 58
        0x0001e29e:    2600        .&      MOVS     r6,#0
        0x0001e2a0:    f04f0c01    O...    MOV      r12,#1
        0x0001e2a4:    2a1f        .*      CMP      r2,#0x1f
        0x0001e2a6:    d103        ..      BNE      0x1e2b0 ; find_mid_point + 70
        0x0001e2a8:    2e01        ..      CMP      r6,#1
        0x0001e2aa:    d101        ..      BNE      0x1e2b0 ; find_mid_point + 70
        0x0001e2ac:    f04f0c01    O...    MOV      r12,#1
        0x0001e2b0:    f1bc0f01    ....    CMP      r12,#1
        0x0001e2b4:    d10a        ..      BNE      0x1e2cc ; find_mid_point + 98
        0x0001e2b6:    4299        .B      CMP      r1,r3
        0x0001e2b8:    d906        ..      BLS      0x1e2c8 ; find_mid_point + 94
        0x0001e2ba:    460b        .F      MOV      r3,r1
        0x0001e2bc:    f1a20801    ....    SUB      r8,r2,#1
        0x0001e2c0:    eba80051    ..Q.    SUB      r0,r8,r1,LSR #1
        0x0001e2c4:    f0010701    ....    AND      r7,r1,#1
        0x0001e2c8:    2100        .!      MOVS     r1,#0
        0x0001e2ca:    468c        .F      MOV      r12,r1
        0x0001e2cc:    1c52        R.      ADDS     r2,r2,#1
        0x0001e2ce:    2a20         *      CMP      r2,#0x20
        0x0001e2d0:    d3d7        ..      BCC      0x1e282 ; find_mid_point + 24
        0x0001e2d2:    2810        .(      CMP      r0,#0x10
        0x0001e2d4:    d204        ..      BCS      0x1e2e0 ; find_mid_point + 118
        0x0001e2d6:    f0040202    ....    AND      r2,r4,#2
        0x0001e2da:    b10a        ..      CBZ      r2,0x1e2e0 ; find_mid_point + 118
        0x0001e2dc:    1bc0        ..      SUBS     r0,r0,r7
        0x0001e2de:    e005        ..      B        0x1e2ec ; find_mid_point + 130
        0x0001e2e0:    280f        .(      CMP      r0,#0xf
        0x0001e2e2:    d903        ..      BLS      0x1e2ec ; find_mid_point + 130
        0x0001e2e4:    f0044280    ...B    AND      r2,r4,#0x40000000
        0x0001e2e8:    b102        ..      CBZ      r2,0x1e2ec ; find_mid_point + 130
        0x0001e2ea:    1c40        @.      ADDS     r0,r0,#1
        0x0001e2ec:    e8bd81f0    ....    POP      {r4-r8,pc}
    i.flash_check
    flash_check
        0x0001e2f0:    e92d41f0    -..A    PUSH     {r4-r8,lr}
        0x0001e2f4:    4605        .F      MOV      r5,r0
        0x0001e2f6:    460f        .F      MOV      r7,r1
        0x0001e2f8:    2400        .$      MOVS     r4,#0
        0x0001e2fa:    e026        &.      B        0x1e34a ; flash_check + 90
        0x0001e2fc:    2005        .       MOVS     r0,#5
        0x0001e2fe:    fb94f1f0    ....    SDIV     r1,r4,r0
        0x0001e302:    fb004611    ...F    MLS      r6,r0,r1,r4
        0x0001e306:    f44f6200    O..b    MOV      r2,#0x800
        0x0001e30a:    4915        .I      LDR      r1,[pc,#84] ; [0x1e360] = 0x10002134
        0x0001e30c:    4630        0F      MOV      r0,r6
        0x0001e30e:    f000fe93    ....    BL       prepare_test_pattern ; 0x1f038
        0x0001e312:    4621        !F      MOV      r1,r4
        0x0001e314:    f44f6300    O..c    MOV      r3,#0x800
        0x0001e318:    4a11        .J      LDR      r2,[pc,#68] ; [0x1e360] = 0x10002134
        0x0001e31a:    4628        (F      MOV      r0,r5
        0x0001e31c:    f000fedc    ....    BL       program_load ; 0x1f0d8
        0x0001e320:    b100        ..      CBZ      r0,0x1e324 ; flash_check + 52
        0x0001e322:    e014        ..      B        0x1e34e ; flash_check + 94
        0x0001e324:    4621        !F      MOV      r1,r4
        0x0001e326:    f44f6300    O..c    MOV      r3,#0x800
        0x0001e32a:    4a0e        .J      LDR      r2,[pc,#56] ; [0x1e364] = 0x10002934
        0x0001e32c:    4628        (F      MOV      r0,r5
        0x0001e32e:    f000fef3    ....    BL       read_from_cache ; 0x1f118
        0x0001e332:    b100        ..      CBZ      r0,0x1e336 ; flash_check + 70
        0x0001e334:    e00b        ..      B        0x1e34e ; flash_check + 94
        0x0001e336:    f44f6200    O..b    MOV      r2,#0x800
        0x0001e33a:    4909        .I      LDR      r1,[pc,#36] ; [0x1e360] = 0x10002134
        0x0001e33c:    4809        .H      LDR      r0,[pc,#36] ; [0x1e364] = 0x10002934
        0x0001e33e:    f7faf84b    ..K.    BL       memcmp ; 0x183d8
        0x0001e342:    b100        ..      CBZ      r0,0x1e346 ; flash_check + 86
        0x0001e344:    e003        ..      B        0x1e34e ; flash_check + 94
        0x0001e346:    1c60        `.      ADDS     r0,r4,#1
        0x0001e348:    b2c4        ..      UXTB     r4,r0
        0x0001e34a:    2c10        .,      CMP      r4,#0x10
        0x0001e34c:    dbd6        ..      BLT      0x1e2fc ; flash_check + 12
        0x0001e34e:    bf00        ..      NOP      
        0x0001e350:    2c10        .,      CMP      r4,#0x10
        0x0001e352:    db02        ..      BLT      0x1e35a ; flash_check + 106
        0x0001e354:    2001        .       MOVS     r0,#1
        0x0001e356:    e8bd81f0    ....    POP      {r4-r8,pc}
        0x0001e35a:    2000        .       MOVS     r0,#0
        0x0001e35c:    e7fb        ..      B        0x1e356 ; flash_check + 102
    $d
        0x0001e35e:    0000        ..      DCW    0
        0x0001e360:    10002134    4!..    DCD    268443956
        0x0001e364:    10002934    4)..    DCD    268446004
    $t
    i.ftoa
    ftoa
        0x0001e368:    e92d4ff3    -..O    PUSH     {r0,r1,r4-r11,lr}
        0x0001e36c:    ed2d0b02    -...    VPUSH    {d0}
        0x0001e370:    ed2d8b02    -...    VPUSH    {d8}
        0x0001e374:    b081        ..      SUB      sp,sp,#4
        0x0001e376:    eeb08a40    ..@.    VMOV.F32 s16,s0
        0x0001e37a:    4604        .F      MOV      r4,r0
        0x0001e37c:    f8d4b000    ....    LDR      r11,[r4,#0]
        0x0001e380:    f1bb0f04    ....    CMP      r11,#4
        0x0001e384:    da07        ..      BGE      0x1e396 ; ftoa + 46
        0x0001e386:    f06f0002    o...    MVN      r0,#2
        0x0001e38a:    b001        ..      ADD      sp,sp,#4
        0x0001e38c:    ecbd8b02    ....    VPOP     {d8}
        0x0001e390:    b004        ..      ADD      sp,sp,#0x10
        0x0001e392:    e8bd8ff0    ....    POP      {r4-r11,pc}
        0x0001e396:    eeb58ac0    ....    VCMPE.F32 s16,#0.0
        0x0001e39a:    eef1fa10    ....    VMRS     APSR_nzcv,FPSCR
        0x0001e39e:    d103        ..      BNE      0x1e3a8 ; ftoa + 64
        0x0001e3a0:    484e        NH      LDR      r0,[pc,#312] ; [0x1e4dc] = 0x302e30
        0x0001e3a2:    6020         `      STR      r0,[r4,#0]
        0x0001e3a4:    2003        .       MOVS     r0,#3
        0x0001e3a6:    e7f0        ..      B        0x1e38a ; ftoa + 34
        0x0001e3a8:    46a2        .F      MOV      r10,r4
        0x0001e3aa:    ed8d8a00    ....    VSTR     s16,[sp,#0]
        0x0001e3ae:    9800        ..      LDR      r0,[sp,#0]
        0x0001e3b0:    f3c050c7    ...P    UBFX     r0,r0,#23,#8
        0x0001e3b4:    f1a0057f    ....    SUB      r5,r0,#0x7f
        0x0001e3b8:    9800        ..      LDR      r0,[sp,#0]
        0x0001e3ba:    f020407f     ..@    BIC      r0,r0,#0xff000000
        0x0001e3be:    f4400900    @...    ORR      r9,r0,#0x800000
        0x0001e3c2:    f04f0800    O...    MOV      r8,#0
        0x0001e3c6:    2700        .'      MOVS     r7,#0
        0x0001e3c8:    2d1f        .-      CMP      r5,#0x1f
        0x0001e3ca:    db01        ..      BLT      0x1e3d0 ; ftoa + 104
        0x0001e3cc:    1eb8        ..      SUBS     r0,r7,#2
        0x0001e3ce:    e7dc        ..      B        0x1e38a ; ftoa + 34
        0x0001e3d0:    f1150f17    ....    CMN      r5,#0x17
        0x0001e3d4:    da02        ..      BGE      0x1e3dc ; ftoa + 116
        0x0001e3d6:    f04f30ff    O..0    MOV      r0,#0xffffffff
        0x0001e3da:    e7d6        ..      B        0x1e38a ; ftoa + 34
        0x0001e3dc:    2d17        .-      CMP      r5,#0x17
        0x0001e3de:    db04        ..      BLT      0x1e3ea ; ftoa + 130
        0x0001e3e0:    f1a50017    ....    SUB      r0,r5,#0x17
        0x0001e3e4:    fa09f700    ....    LSL      r7,r9,r0
        0x0001e3e8:    e011        ..      B        0x1e40e ; ftoa + 166
        0x0001e3ea:    2d00        .-      CMP      r5,#0
        0x0001e3ec:    db09        ..      BLT      0x1e402 ; ftoa + 154
        0x0001e3ee:    f1c50017    ....    RSB      r0,r5,#0x17
        0x0001e3f2:    fa49f700    I...    ASR      r7,r9,r0
        0x0001e3f6:    1c68        h.      ADDS     r0,r5,#1
        0x0001e3f8:    fa09f000    ....    LSL      r0,r9,r0
        0x0001e3fc:    f020487f     ..H    BIC      r8,r0,#0xff000000
        0x0001e400:    e005        ..      B        0x1e40e ; ftoa + 166
        0x0001e402:    f029407f    )..@    BIC      r0,r9,#0xff000000
        0x0001e406:    1c69        i.      ADDS     r1,r5,#1
        0x0001e408:    4249        IB      RSBS     r1,r1,#0
        0x0001e40a:    fa40f801    @...    ASR      r8,r0,r1
        0x0001e40e:    9800        ..      LDR      r0,[sp,#0]
        0x0001e410:    2800        .(      CMP      r0,#0
        0x0001e412:    da02        ..      BGE      0x1e41a ; ftoa + 178
        0x0001e414:    202d        -       MOVS     r0,#0x2d
        0x0001e416:    f8040b01    ....    STRB     r0,[r4],#1
        0x0001e41a:    b91f        ..      CBNZ     r7,0x1e424 ; ftoa + 188
        0x0001e41c:    2030        0       MOVS     r0,#0x30
        0x0001e41e:    f8040b01    ....    STRB     r0,[r4],#1
        0x0001e422:    e014        ..      B        0x1e44e ; ftoa + 230
        0x0001e424:    2f00        ./      CMP      r7,#0
        0x0001e426:    dd05        ..      BLE      0x1e434 ; ftoa + 204
        0x0001e428:    4622        "F      MOV      r2,r4
        0x0001e42a:    4638        8F      MOV      r0,r7
        0x0001e42c:    17f9        ..      ASRS     r1,r7,#31
        0x0001e42e:    f000ff88    ....    BL       uint64_to_str ; 0x1f342
        0x0001e432:    e007        ..      B        0x1e444 ; ftoa + 220
        0x0001e434:    202d        -       MOVS     r0,#0x2d
        0x0001e436:    f8040b01    ....    STRB     r0,[r4],#1
        0x0001e43a:    4622        "F      MOV      r2,r4
        0x0001e43c:    4278        xB      RSBS     r0,r7,#0
        0x0001e43e:    17c1        ..      ASRS     r1,r0,#31
        0x0001e440:    f000ff7f    ....    BL       uint64_to_str ; 0x1f342
        0x0001e444:    e000        ..      B        0x1e448 ; ftoa + 224
        0x0001e446:    1c64        d.      ADDS     r4,r4,#1
        0x0001e448:    7820         x      LDRB     r0,[r4,#0]
        0x0001e44a:    2800        .(      CMP      r0,#0
        0x0001e44c:    d1fb        ..      BNE      0x1e446 ; ftoa + 222
        0x0001e44e:    202e        .       MOVS     r0,#0x2e
        0x0001e450:    f8040b01    ....    STRB     r0,[r4],#1
        0x0001e454:    f1b80f00    ....    CMP      r8,#0
        0x0001e458:    d103        ..      BNE      0x1e462 ; ftoa + 250
        0x0001e45a:    2030        0       MOVS     r0,#0x30
        0x0001e45c:    f8040b01    ....    STRB     r0,[r4],#1
        0x0001e460:    e036        6.      B        0x1e4d0 ; ftoa + 360
        0x0001e462:    eba4020a    ....    SUB      r2,r4,r10
        0x0001e466:    ebab0202    ....    SUB      r2,r11,r2
        0x0001e46a:    1e51        Q.      SUBS     r1,r2,#1
        0x0001e46c:    9a06        ..      LDR      r2,[sp,#0x18]
        0x0001e46e:    4291        .B      CMP      r1,r2
        0x0001e470:    dd01        ..      BLE      0x1e476 ; ftoa + 270
        0x0001e472:    9a06        ..      LDR      r2,[sp,#0x18]
        0x0001e474:    e000        ..      B        0x1e478 ; ftoa + 272
        0x0001e476:    460a        .F      MOV      r2,r1
        0x0001e478:    4611        .F      MOV      r1,r2
        0x0001e47a:    2000        .       MOVS     r0,#0
        0x0001e47c:    e00b        ..      B        0x1e496 ; ftoa + 302
        0x0001e47e:    eb080288    ....    ADD      r2,r8,r8,LSL #2
        0x0001e482:    ea4f0842    O.B.    LSL      r8,r2,#1
        0x0001e486:    2230        0"      MOVS     r2,#0x30
        0x0001e488:    eb026228    ..(b    ADD      r2,r2,r8,ASR #24
        0x0001e48c:    f8042b01    ...+    STRB     r2,[r4],#1
        0x0001e490:    f028487f    (..H    BIC      r8,r8,#0xff000000
        0x0001e494:    1c40        @.      ADDS     r0,r0,#1
        0x0001e496:    4288        .B      CMP      r0,r1
        0x0001e498:    dbf1        ..      BLT      0x1e47e ; ftoa + 278
        0x0001e49a:    eb080288    ....    ADD      r2,r8,r8,LSL #2
        0x0001e49e:    0052        R.      LSLS     r2,r2,#1
        0x0001e4a0:    2305        .#      MOVS     r3,#5
        0x0001e4a2:    ebb36f22    .."o    CMP      r3,r2,ASR #24
        0x0001e4a6:    dc12        ..      BGT      0x1e4ce ; ftoa + 358
        0x0001e4a8:    1e66        f.      SUBS     r6,r4,#1
        0x0001e4aa:    e00d        ..      B        0x1e4c8 ; ftoa + 352
        0x0001e4ac:    7832        2x      LDRB     r2,[r6,#0]
        0x0001e4ae:    2a2e        .*      CMP      r2,#0x2e
        0x0001e4b0:    d009        ..      BEQ      0x1e4c6 ; ftoa + 350
        0x0001e4b2:    7832        2x      LDRB     r2,[r6,#0]
        0x0001e4b4:    2a39        9*      CMP      r2,#0x39
        0x0001e4b6:    d102        ..      BNE      0x1e4be ; ftoa + 342
        0x0001e4b8:    2230        0"      MOVS     r2,#0x30
        0x0001e4ba:    7032        2p      STRB     r2,[r6,#0]
        0x0001e4bc:    e003        ..      B        0x1e4c6 ; ftoa + 350
        0x0001e4be:    7832        2x      LDRB     r2,[r6,#0]
        0x0001e4c0:    1c52        R.      ADDS     r2,r2,#1
        0x0001e4c2:    7032        2p      STRB     r2,[r6,#0]
        0x0001e4c4:    e002        ..      B        0x1e4cc ; ftoa + 356
        0x0001e4c6:    1e76        v.      SUBS     r6,r6,#1
        0x0001e4c8:    4556        VE      CMP      r6,r10
        0x0001e4ca:    d2ef        ..      BCS      0x1e4ac ; ftoa + 324
        0x0001e4cc:    bf00        ..      NOP      
        0x0001e4ce:    bf00        ..      NOP      
        0x0001e4d0:    2000        .       MOVS     r0,#0
        0x0001e4d2:    7020         p      STRB     r0,[r4,#0]
        0x0001e4d4:    eba4000a    ....    SUB      r0,r4,r10
        0x0001e4d8:    e757        W.      B        0x1e38a ; ftoa + 34
    $d
        0x0001e4da:    0000        ..      DCW    0
        0x0001e4dc:    00302e30    0.0.    DCD    3157552
    $t
    i.main
    main
        0x0001e4e0:    b570        p.      PUSH     {r4-r6,lr}
        0x0001e4e2:    b09c        ..      SUB      sp,sp,#0x70
        0x0001e4e4:    487b        {H      LDR      r0,[pc,#492] ; [0x1e6d4] = 0x1f7d2
        0x0001e4e6:    f7fbfdb8    ....    BL       am_hal_cachectrl_config ; 0x1a05a
        0x0001e4ea:    f7fbfdda    ....    BL       am_hal_cachectrl_enable ; 0x1a0a2
        0x0001e4ee:    f7faf8bb    ....    BL       am_bsp_low_power_init ; 0x18668
        0x0001e4f2:    f7faf87d    ..}.    BL       am_bsp_itm_printf_enable ; 0x185f0
        0x0001e4f6:    f7fffa8f    ....    BL       am_util_stdio_terminal_clear ; 0x1da18
        0x0001e4fa:    4977        wI      LDR      r1,[pc,#476] ; [0x1e6d8] = 0x10000010
        0x0001e4fc:    6849        Ih      LDR      r1,[r1,#4]
        0x0001e4fe:    7848        Hx      LDRB     r0,[r1,#1]
        0x0001e500:    f7fffd6e    ..n.    BL       clkfreq_string ; 0x1dfe0
        0x0001e504:    4606        .F      MOV      r6,r0
        0x0001e506:    4875        uH      LDR      r0,[pc,#468] ; [0x1e6dc] = 0x10000008
        0x0001e508:    4631        1F      MOV      r1,r6
        0x0001e50a:    6842        Bh      LDR      r2,[r0,#4]
        0x0001e50c:    a074        t.      ADR      r0,{pc}+0x1d4 ; 0x1e6e0
        0x0001e50e:    f7fffa5f    .._.    BL       am_util_stdio_printf ; 0x1d9d0
        0x0001e512:    a805        ..      ADD      r0,sp,#0x14
        0x0001e514:    f7fff9f8    ....    BL       am_util_id_device ; 0x1d908
        0x0001e518:    a07f        ..      ADR      r0,{pc}+0x200 ; 0x1e718
        0x0001e51a:    9917        ..      LDR      r1,[sp,#0x5c]
        0x0001e51c:    f7fffa58    ..X.    BL       am_util_stdio_printf ; 0x1d9d0
        0x0001e520:    a082        ..      ADR      r0,{pc}+0x20c ; 0x1e72c
        0x0001e522:    9918        ..      LDR      r1,[sp,#0x60]
        0x0001e524:    f7fffa54    ..T.    BL       am_util_stdio_printf ; 0x1d9d0
        0x0001e528:    2000        .       MOVS     r0,#0
        0x0001e52a:    e002        ..      B        0x1e532 ; main + 82
        0x0001e52c:    4a84        .J      LDR      r2,[pc,#528] ; [0x1e740] = 0x100001f0
        0x0001e52e:    5410        .T      STRB     r0,[r2,r0]
        0x0001e530:    1c40        @.      ADDS     r0,r0,#1
        0x0001e532:    f5b06f00    ...o    CMP      r0,#0x800
        0x0001e536:    d3f9        ..      BCC      0x1e52c ; main + 76
        0x0001e538:    2140        @!      MOVS     r1,#0x40
        0x0001e53a:    4882        .H      LDR      r0,[pc,#520] ; [0x1e744] = 0x100011f0
        0x0001e53c:    f7f9ffbd    ....    BL       __aeabi_memclr4 ; 0x184ba
        0x0001e540:    2102        .!      MOVS     r1,#2
        0x0001e542:    a081        ..      ADR      r0,{pc}+0x206 ; 0x1e748
        0x0001e544:    f7fffa44    ..D.    BL       am_util_stdio_printf ; 0x1d9d0
        0x0001e548:    4863        cH      LDR      r0,[pc,#396] ; [0x1e6d8] = 0x10000010
        0x0001e54a:    4a8a        .J      LDR      r2,[pc,#552] ; [0x1e774] = 0x10000018
        0x0001e54c:    6841        Ah      LDR      r1,[r0,#4]
        0x0001e54e:    2002        .       MOVS     r0,#2
        0x0001e550:    f7fbfa56    ..V.    BL       am_devices_mspi_ds35x1ga_sdr_init_timing_check ; 0x19a00
        0x0001e554:    b130        0.      CBZ      r0,0x1e564 ; main + 132
        0x0001e556:    a088        ..      ADR      r0,{pc}+0x222 ; 0x1e778
        0x0001e558:    f7fffa3a    ..:.    BL       am_util_stdio_printf ; 0x1d9d0
        0x0001e55c:    f04f30ff    O..0    MOV      r0,#0xffffffff
        0x0001e560:    b01c        ..      ADD      sp,sp,#0x70
        0x0001e562:    bd70        p.      POP      {r4-r6,pc}
        0x0001e564:    485c        \H      LDR      r0,[pc,#368] ; [0x1e6d8] = 0x10000010
        0x0001e566:    4b8f        .K      LDR      r3,[pc,#572] ; [0x1e7a4] = 0x10000004
        0x0001e568:    4a8f        .J      LDR      r2,[pc,#572] ; [0x1e7a8] = 0x10000000
        0x0001e56a:    6841        Ah      LDR      r1,[r0,#4]
        0x0001e56c:    2002        .       MOVS     r0,#2
        0x0001e56e:    f7faff53    ..S.    BL       am_devices_mspi_ds35x1ga_init ; 0x19418
        0x0001e572:    4605        .F      MOV      r5,r0
        0x0001e574:    b11d        ..      CBZ      r5,0x1e57e ; main + 158
        0x0001e576:    a08d        ..      ADR      r0,{pc}+0x236 ; 0x1e7ac
        0x0001e578:    f7fffa2a    ..*.    BL       am_util_stdio_printf ; 0x1d9d0
        0x0001e57c:    e002        ..      B        0x1e584 ; main + 164
        0x0001e57e:    a09a        ..      ADR      r0,{pc}+0x26a ; 0x1e7e8
        0x0001e580:    f7fffa26    ..&.    BL       am_util_stdio_printf ; 0x1d9d0
        0x0001e584:    4aa4        .J      LDR      r2,[pc,#656] ; [0x1e818] = 0x1f564
        0x0001e586:    f9920002    ....    LDRSB    r0,[r2,#2]
        0x0001e58a:    2104        .!      MOVS     r1,#4
        0x0001e58c:    2800        .(      CMP      r0,#0
        0x0001e58e:    db04        ..      BLT      0x1e59a ; main + 186
        0x0001e590:    074a        J.      LSLS     r2,r1,#29
        0x0001e592:    0e13        ..      LSRS     r3,r2,#24
        0x0001e594:    4aa1        .J      LDR      r2,[pc,#644] ; [0x1e81c] = 0xe000e400
        0x0001e596:    5413        .T      STRB     r3,[r2,r0]
        0x0001e598:    e006        ..      B        0x1e5a8 ; main + 200
        0x0001e59a:    074a        J.      LSLS     r2,r1,#29
        0x0001e59c:    0e16        ..      LSRS     r6,r2,#24
        0x0001e59e:    4aa0        .J      LDR      r2,[pc,#640] ; [0x1e820] = 0xe000ed18
        0x0001e5a0:    f000030f    ....    AND      r3,r0,#0xf
        0x0001e5a4:    1f1b        ..      SUBS     r3,r3,#4
        0x0001e5a6:    54d6        .T      STRB     r6,[r2,r3]
        0x0001e5a8:    bf00        ..      NOP      
        0x0001e5aa:    499b        .I      LDR      r1,[pc,#620] ; [0x1e818] = 0x1f564
        0x0001e5ac:    f9910002    ....    LDRSB    r0,[r1,#2]
        0x0001e5b0:    2800        .(      CMP      r0,#0
        0x0001e5b2:    db0d        ..      BLT      0x1e5d0 ; main + 240
        0x0001e5b4:    bf00        ..      NOP      
        0x0001e5b6:    bf00        ..      NOP      
        0x0001e5b8:    f000021f    ....    AND      r2,r0,#0x1f
        0x0001e5bc:    2101        .!      MOVS     r1,#1
        0x0001e5be:    4091        .@      LSLS     r1,r1,r2
        0x0001e5c0:    0942        B.      LSRS     r2,r0,#5
        0x0001e5c2:    0092        ..      LSLS     r2,r2,#2
        0x0001e5c4:    f10222e0    ..."    ADD      r2,r2,#0xe000e000
        0x0001e5c8:    f8c21100    ....    STR      r1,[r2,#0x100]
        0x0001e5cc:    bf00        ..      NOP      
        0x0001e5ce:    bf00        ..      NOP      
        0x0001e5d0:    bf00        ..      NOP      
        0x0001e5d2:    f7f9fec3    ....    BL       am_hal_interrupt_master_enable ; 0x1835c
        0x0001e5d6:    4967        gI      LDR      r1,[pc,#412] ; [0x1e774] = 0x10000018
        0x0001e5d8:    4873        sH      LDR      r0,[pc,#460] ; [0x1e7a8] = 0x10000000
        0x0001e5da:    6800        .h      LDR      r0,[r0,#0]
        0x0001e5dc:    f7fafd2a    ..*.    BL       am_devices_mspi_ds35x1ga_apply_sdr_timing ; 0x19034
        0x0001e5e0:    a903        ..      ADD      r1,sp,#0xc
        0x0001e5e2:    4871        qH      LDR      r0,[pc,#452] ; [0x1e7a8] = 0x10000000
        0x0001e5e4:    6800        .h      LDR      r0,[r0,#0]
        0x0001e5e6:    f7fafeed    ....    BL       am_devices_mspi_ds35x1ga_id ; 0x193c4
        0x0001e5ea:    a08e        ..      ADR      r0,{pc}+0x23a ; 0x1e824
        0x0001e5ec:    9903        ..      LDR      r1,[sp,#0xc]
        0x0001e5ee:    f7fff9ef    ....    BL       am_util_stdio_printf ; 0x1d9d0
        0x0001e5f2:    2104        .!      MOVS     r1,#4
        0x0001e5f4:    486c        lH      LDR      r0,[pc,#432] ; [0x1e7a8] = 0x10000000
        0x0001e5f6:    6800        .h      LDR      r0,[r0,#0]
        0x0001e5f8:    f7fafd56    ..V.    BL       am_devices_mspi_ds35x1ga_block_erase ; 0x190a8
        0x0001e5fc:    4605        .F      MOV      r5,r0
        0x0001e5fe:    462a        *F      MOV      r2,r5
        0x0001e600:    2104        .!      MOVS     r1,#4
        0x0001e602:    a08e        ..      ADR      r0,{pc}+0x23a ; 0x1e83c
        0x0001e604:    f7fff9e4    ....    BL       am_util_stdio_printf ; 0x1d9d0
        0x0001e608:    2040        @       MOVS     r0,#0x40
        0x0001e60a:    494e        NI      LDR      r1,[pc,#312] ; [0x1e744] = 0x100011f0
        0x0001e60c:    0143        C.      LSLS     r3,r0,#5
        0x0001e60e:    4a4c        LJ      LDR      r2,[pc,#304] ; [0x1e740] = 0x100001f0
        0x0001e610:    e9cd1000    ....    STRD     r1,r0,[sp,#0]
        0x0001e614:    0081        ..      LSLS     r1,r0,#2
        0x0001e616:    4864        dH      LDR      r0,[pc,#400] ; [0x1e7a8] = 0x10000000
        0x0001e618:    6800        .h      LDR      r0,[r0,#0]
        0x0001e61a:    f7fbfc53    ..S.    BL       am_devices_mspi_ds35x1ga_write ; 0x19ec4
        0x0001e61e:    4605        .F      MOV      r5,r0
        0x0001e620:    462a        *F      MOV      r2,r5
        0x0001e622:    f44f7180    O..q    MOV      r1,#0x100
        0x0001e626:    a08d        ..      ADR      r0,{pc}+0x236 ; 0x1e85c
        0x0001e628:    f7fff9d2    ....    BL       am_util_stdio_printf ; 0x1d9d0
        0x0001e62c:    f44f6100    O..a    MOV      r1,#0x800
        0x0001e630:    4891        .H      LDR      r0,[pc,#580] ; [0x1e878] = 0x100009f0
        0x0001e632:    f7f9ff42    ..B.    BL       __aeabi_memclr4 ; 0x184ba
        0x0001e636:    a804        ..      ADD      r0,sp,#0x10
        0x0001e638:    2110        .!      MOVS     r1,#0x10
        0x0001e63a:    4a90        .J      LDR      r2,[pc,#576] ; [0x1e87c] = 0x10001230
        0x0001e63c:    01cb        ..      LSLS     r3,r1,#7
        0x0001e63e:    e9cd2100    ...!    STRD     r2,r1,[sp,#0]
        0x0001e642:    9002        ..      STR      r0,[sp,#8]
        0x0001e644:    4a8c        .J      LDR      r2,[pc,#560] ; [0x1e878] = 0x100009f0
        0x0001e646:    0109        ..      LSLS     r1,r1,#4
        0x0001e648:    4857        WH      LDR      r0,[pc,#348] ; [0x1e7a8] = 0x10000000
        0x0001e64a:    6800        .h      LDR      r0,[r0,#0]
        0x0001e64c:    f7fbf8f2    ....    BL       am_devices_mspi_ds35x1ga_read ; 0x19834
        0x0001e650:    4605        .F      MOV      r5,r0
        0x0001e652:    462a        *F      MOV      r2,r5
        0x0001e654:    f44f7180    O..q    MOV      r1,#0x100
        0x0001e658:    a089        ..      ADR      r0,{pc}+0x228 ; 0x1e880
        0x0001e65a:    f7fff9b9    ....    BL       am_util_stdio_printf ; 0x1d9d0
        0x0001e65e:    f89d2010    ...     LDRB     r2,[sp,#0x10]
        0x0001e662:    f44f7180    O..q    MOV      r1,#0x100
        0x0001e666:    a08d        ..      ADR      r0,{pc}+0x236 ; 0x1e89c
        0x0001e668:    f7fff9b2    ....    BL       am_util_stdio_printf ; 0x1d9d0
        0x0001e66c:    2400        .$      MOVS     r4,#0
        0x0001e66e:    e00f        ..      B        0x1e690 ; main + 432
        0x0001e670:    4833        3H      LDR      r0,[pc,#204] ; [0x1e740] = 0x100001f0
        0x0001e672:    5d00        .]      LDRB     r0,[r0,r4]
        0x0001e674:    4980        .I      LDR      r1,[pc,#512] ; [0x1e878] = 0x100009f0
        0x0001e676:    5d09        .]      LDRB     r1,[r1,r4]
        0x0001e678:    4288        .B      CMP      r0,r1
        0x0001e67a:    d008        ..      BEQ      0x1e68e ; main + 430
        0x0001e67c:    487e        ~H      LDR      r0,[pc,#504] ; [0x1e878] = 0x100009f0
        0x0001e67e:    5d03        .]      LDRB     r3,[r0,r4]
        0x0001e680:    482f        /H      LDR      r0,[pc,#188] ; [0x1e740] = 0x100001f0
        0x0001e682:    5d02        .]      LDRB     r2,[r0,r4]
        0x0001e684:    4621        !F      MOV      r1,r4
        0x0001e686:    a08d        ..      ADR      r0,{pc}+0x236 ; 0x1e8bc
        0x0001e688:    f7fff9a2    ....    BL       am_util_stdio_printf ; 0x1d9d0
        0x0001e68c:    e003        ..      B        0x1e696 ; main + 438
        0x0001e68e:    1c64        d.      ADDS     r4,r4,#1
        0x0001e690:    f5b46f00    ...o    CMP      r4,#0x800
        0x0001e694:    d3ec        ..      BCC      0x1e670 ; main + 400
        0x0001e696:    bf00        ..      NOP      
        0x0001e698:    f5b46f00    ...o    CMP      r4,#0x800
        0x0001e69c:    d103        ..      BNE      0x1e6a6 ; main + 454
        0x0001e69e:    a095        ..      ADR      r0,{pc}+0x256 ; 0x1e8f4
        0x0001e6a0:    f7fff996    ....    BL       am_util_stdio_printf ; 0x1d9d0
        0x0001e6a4:    e011        ..      B        0x1e6ca ; main + 490
        0x0001e6a6:    4621        !F      MOV      r1,r4
        0x0001e6a8:    a09e        ..      ADR      r0,{pc}+0x27c ; 0x1e924
        0x0001e6aa:    f7fff991    ....    BL       am_util_stdio_printf ; 0x1d9d0
        0x0001e6ae:    2400        .$      MOVS     r4,#0
        0x0001e6b0:    e008        ..      B        0x1e6c4 ; main + 484
        0x0001e6b2:    4871        qH      LDR      r0,[pc,#452] ; [0x1e878] = 0x100009f0
        0x0001e6b4:    5d03        .]      LDRB     r3,[r0,r4]
        0x0001e6b6:    4822        "H      LDR      r0,[pc,#136] ; [0x1e740] = 0x100001f0
        0x0001e6b8:    5d02        .]      LDRB     r2,[r0,r4]
        0x0001e6ba:    4621        !F      MOV      r1,r4
        0x0001e6bc:    a0a2        ..      ADR      r0,{pc}+0x28c ; 0x1e948
        0x0001e6be:    f7fff987    ....    BL       am_util_stdio_printf ; 0x1d9d0
        0x0001e6c2:    1c64        d.      ADDS     r4,r4,#1
        0x0001e6c4:    f5b46f00    ...o    CMP      r4,#0x800
        0x0001e6c8:    d3f3        ..      BCC      0x1e6b2 ; main + 466
        0x0001e6ca:    e002        ..      B        0x1e6d2 ; main + 498
        0x0001e6cc:    2001        .       MOVS     r0,#1
        0x0001e6ce:    f7fefd9f    ....    BL       am_hal_sysctrl_sleep ; 0x1d210
        0x0001e6d2:    e7fb        ..      B        0x1e6cc ; main + 492
    $d
        0x0001e6d4:    0001f7d2    ....    DCD    128978
        0x0001e6d8:    10000010    ....    DCD    268435472
        0x0001e6dc:    10000008    ....    DCD    268435464
        0x0001e6e0:    4950534d    MSPI    DCD    1230000973
        0x0001e6e4:    4e414e20     NAN    DCD    1312902688
        0x0001e6e8:    6c462044    D Fl    DCD    1816535108
        0x0001e6ec:    20687361    ash     DCD    543716193
        0x0001e6f0:    76697244    Driv    DCD    1986622020
        0x0001e6f4:    65207265    er e    DCD    1696625253
        0x0001e6f8:    706d6178    xamp    DCD    1886216568
        0x0001e6fc:    4020656c    le @    DCD    1075864940
        0x0001e700:    20732520     %s     DCD    544417056
        0x0001e704:    2c7a484d    MHz,    DCD    746211405
        0x0001e708:    6f4d2020      Mo    DCD    1867325472
        0x0001e70c:    203a6564    de:     DCD    540697956
        0x0001e710:    21207325    %s !    DCD    555774757
        0x0001e714:    00000a0a    ....    DCD    2570
        0x0001e718:    646e6556    Vend    DCD    1684956502
        0x0001e71c:    4e20726f    or N    DCD    1310749295
        0x0001e720:    3a656d61    ame:    DCD    979725665
        0x0001e724:    0a732520     %s.    DCD    175318304
        0x0001e728:    00000000    ....    DCD    0
        0x0001e72c:    69766544    Devi    DCD    1769366852
        0x0001e730:    74206563    ce t    DCD    1948280163
        0x0001e734:    3a657079    ype:    DCD    979726457
        0x0001e738:    0a732520     %s.    DCD    175318304
        0x0001e73c:    00000000    ....    DCD    0
        0x0001e740:    100001f0    ....    DCD    268435952
        0x0001e744:    100011f0    ....    DCD    268440048
        0x0001e748:    72617453    Star    DCD    1918989395
        0x0001e74c:    676e6974    ting    DCD    1735289204
        0x0001e750:    50534d20     MSP    DCD    1347636512
        0x0001e754:    44532049    I SD    DCD    1146298441
        0x0001e758:    69542052    R Ti    DCD    1767120978
        0x0001e75c:    676e696d    ming    DCD    1735289197
        0x0001e760:    61635320     Sca    DCD    1633899296
        0x0001e764:    6f66206e    n fo    DCD    1868963950
        0x0001e768:    534d2072    r MS    DCD    1397563506
        0x0001e76c:    64254950    PI%d    DCD    1680165200
        0x0001e770:    000a203a    : ..    DCD    663610
        0x0001e774:    10000018    ....    DCD    268435480
        0x0001e778:    6e616353    Scan    DCD    1851876179
        0x0001e77c:    73655220     Res    DCD    1936020000
        0x0001e780:    3a746c75    ult:    DCD    980708469
        0x0001e784:    69614620     Fai    DCD    1767982624
        0x0001e788:    2c64656c    led,    DCD    744777068
        0x0001e78c:    206f6e20     no     DCD    544173600
        0x0001e790:    696c6176    vali    DCD    1768710518
        0x0001e794:    65732064    d se    DCD    1702043748
        0x0001e798:    6e697474    ttin    DCD    1852404852
        0x0001e79c:    20202e67    g.      DCD    538979943
        0x0001e7a0:    0000000a    ....    DCD    10
        0x0001e7a4:    10000004    ....    DCD    268435460
        0x0001e7a8:    10000000    ....    DCD    268435456
        0x0001e7ac:    6c696146    Fail    DCD    1818845510
        0x0001e7b0:    74206465    ed t    DCD    1948279909
        0x0001e7b4:    6f63206f    o co    DCD    1868767343
        0x0001e7b8:    6769666e    nfig    DCD    1734960750
        0x0001e7bc:    20657275    ure     DCD    543519349
        0x0001e7c0:    20656874    the     DCD    543516788
        0x0001e7c4:    4950534d    MSPI    DCD    1230000973
        0x0001e7c8:    646e6120     and    DCD    1684955424
        0x0001e7cc:    616c4620     Fla    DCD    1634485792
        0x0001e7d0:    44206873    sh D    DCD    1142974579
        0x0001e7d4:    63697665    evic    DCD    1667855973
        0x0001e7d8:    6f632065    e co    DCD    1868767333
        0x0001e7dc:    63657272    rrec    DCD    1667592818
        0x0001e7e0:    21796c74    tly!    DCD    561605748
        0x0001e7e4:    0000000a    ....    DCD    10
        0x0001e7e8:    666e6f43    Conf    DCD    1718513475
        0x0001e7ec:    72756769    igur    DCD    1920296809
        0x0001e7f0:    68742065    e th    DCD    1752440933
        0x0001e7f4:    534d2065    e MS    DCD    1397563493
        0x0001e7f8:    61204950    PI a    DCD    1629505872
        0x0001e7fc:    4620646e    nd F    DCD    1176527982
        0x0001e800:    6873616c    lash    DCD    1752392044
        0x0001e804:    76654420     Dev    DCD    1986348064
        0x0001e808:    20656369    ice     DCD    543515497
        0x0001e80c:    72726f63    corr    DCD    1920102243
        0x0001e810:    6c746365    ectl    DCD    1819566949
        0x0001e814:    000a2179    y!..    DCD    663929
        0x0001e818:    0001f564    d...    DCD    128356
        0x0001e81c:    e000e400    ....    DCD    3758154752
        0x0001e820:    e000ed18    ....    DCD    3758157080
        0x0001e824:    444e414e    NAND    DCD    1145979214
        0x0001e828:    616c6620     fla    DCD    1634493984
        0x0001e82c:    49206873    sh I    DCD    1226860659
        0x0001e830:    73692044    D is    DCD    1936269380
        0x0001e834:    25783020     0x%    DCD    628633632
        0x0001e838:    000a2178    x!..    DCD    663928
        0x0001e83c:    636f6c62    bloc    DCD    1668246626
        0x0001e840:    6425206b    k %d    DCD    1680154731
        0x0001e844:    61726520     era    DCD    1634886944
        0x0001e848:    73206573    se s    DCD    1931502963
        0x0001e84c:    75746174    tatu    DCD    1970561396
        0x0001e850:    78302073    s 0x    DCD    2016419955
        0x0001e854:    0a217825    %x!.    DCD    169965605
        0x0001e858:    00000000    ....    DCD    0
        0x0001e85c:    65676170    page    DCD    1701273968
        0x0001e860:    20642520     %d     DCD    543434016
        0x0001e864:    74697277    writ    DCD    1953067639
        0x0001e868:    74732065    e st    DCD    1953701989
        0x0001e86c:    73757461    atus    DCD    1937077345
        0x0001e870:    25783020     0x%    DCD    628633632
        0x0001e874:    000a2178    x!..    DCD    663928
        0x0001e878:    100009f0    ....    DCD    268438000
        0x0001e87c:    10001230    0...    DCD    268440112
        0x0001e880:    65676170    page    DCD    1701273968
        0x0001e884:    20642520     %d     DCD    543434016
        0x0001e888:    64616572    read    DCD    1684104562
        0x0001e88c:    61747320     sta    DCD    1635021600
        0x0001e890:    20737574    tus     DCD    544437620
        0x0001e894:    78257830    0x%x    DCD    2015721520
        0x0001e898:    00000a21    !...    DCD    2593
        0x0001e89c:    65676170    page    DCD    1701273968
        0x0001e8a0:    20642520     %d     DCD    543434016
        0x0001e8a4:    64616572    read    DCD    1684104562
        0x0001e8a8:    43434520     ECC    DCD    1128482080
        0x0001e8ac:    61747320     sta    DCD    1635021600
        0x0001e8b0:    20737574    tus     DCD    544437620
        0x0001e8b4:    78257830    0x%x    DCD    2015721520
        0x0001e8b8:    00000a21    !...    DCD    2593
        0x0001e8bc:    3a206425    %d :    DCD    975201317
        0x0001e8c0:    74616420     dat    DCD    1952539680
        0x0001e8c4:    68635f61    a_ch    DCD    1751342945
        0x0001e8c8:    206b6365    eck     DCD    543908709
        0x0001e8cc:    6e6f7277    wron    DCD    1852797559
        0x0001e8d0:    65202c67    g, e    DCD    1696607335
        0x0001e8d4:    63657078    xpec    DCD    1667592312
        0x0001e8d8:    3a646574    ted:    DCD    979658100
        0x0001e8dc:    25783020     0x%    DCD    628633632
        0x0001e8e0:    72202c78    x, r    DCD    1914711160
        0x0001e8e4:    62646165    eadb    DCD    1650745701
        0x0001e8e8:    3a6b6361    ack:    DCD    980116321
        0x0001e8ec:    25783020     0x%    DCD    628633632
        0x0001e8f0:    000a2178    x!..    DCD    663928
        0x0001e8f4:    63637573    succ    DCD    1667462515
        0x0001e8f8:    20646565    eed     DCD    543450469
        0x0001e8fc:    20646e61    and     DCD    543452769
        0x0001e900:    64616572    read    DCD    1684104562
        0x0001e904:    74616420     dat    DCD    1952539680
        0x0001e908:    71652061    a eq    DCD    1902452833
        0x0001e90c:    736c6175    uals    DCD    1936482677
        0x0001e910:    206f7420     to     DCD    544175136
        0x0001e914:    20656874    the     DCD    543516788
        0x0001e918:    74697277    writ    DCD    1953067639
        0x0001e91c:    61642065    e da    DCD    1633951845
        0x0001e920:    000a6174    ta..    DCD    680308
        0x0001e924:    73726966    firs    DCD    1936877926
        0x0001e928:    61642074    t da    DCD    1633951860
        0x0001e92c:    77206174    ta w    DCD    1998610804
        0x0001e930:    676e6f72    rong    DCD    1735290738
        0x0001e934:    20736920     is     DCD    544434464
        0x0001e938:    69207461    at i    DCD    1763734625
        0x0001e93c:    7865646e    ndex    DCD    2019910766
        0x0001e940:    0a642520     %d.    DCD    174335264
        0x0001e944:    00000000    ....    DCD    0
        0x0001e948:    3a206425    %d :    DCD    975201317
        0x0001e94c:    69727720     wri    DCD    1769109280
        0x0001e950:    64206574    te d    DCD    1679844724
        0x0001e954:    3a617461    ata:    DCD    979465313
        0x0001e958:    25783020     0x%    DCD    628633632
        0x0001e95c:    72202c78    x, r    DCD    1914711160
        0x0001e960:    62646165    eadb    DCD    1650745701
        0x0001e964:    3a6b6361    ack:    DCD    980116321
        0x0001e968:    25783020     0x%    DCD    628633632
        0x0001e96c:    000a2178    x!..    DCD    663928
    $t
    i.mspi_device_configure
    mspi_device_configure
        0x0001e970:    7a82        .z      LDRB     r2,[r0,#0xa]
        0x0001e972:    6841        Ah      LDR      r1,[r0,#4]
        0x0001e974:    2a1a        .*      CMP      r2,#0x1a
        0x0001e976:    f08081b9    ....    BCS.W    0x1ecec ; mspi_device_configure + 892
        0x0001e97a:    e8dff002    ....    TBB      [pc,r2]
    $d
        0x0001e97e:    2e0d        ..      DCW    11789
        0x0001e980:    a6886a4c    Lj..    DCD    2793957964
        0x0001e984:    f0c4f0c4    ....    DCD    4039438532
        0x0001e988:    ebecedee    ....    DCD    3958173166
        0x0001e98c:    e7e8e9ea    ....    DCD    3890801130
        0x0001e990:    e3e4e5e6    ....    DCD    3823429094
        0x0001e994:    dfe0e1e2    ....    DCD    3756057058
    $t
        0x0001e998:    0309        ..      LSLS     r1,r1,#12
        0x0001e99a:    f1014180    ...A    ADD      r1,r1,#0x40000000
        0x0001e99e:    f50121c0    ...!    ADD      r1,r1,#0x60000
        0x0001e9a2:    f8d12084    ...     LDR      r2,[r1,#0x84]
        0x0001e9a6:    f022021f    "...    BIC      r2,r2,#0x1f
        0x0001e9aa:    1c52        R.      ADDS     r2,r2,#1
        0x0001e9ac:    f8c12084    ...     STR      r2,[r1,#0x84]
        0x0001e9b0:    f8d12084    ...     LDR      r2,[r1,#0x84]
        0x0001e9b4:    f0427200    B..r    ORR      r2,r2,#0x2000000
        0x0001e9b8:    f8c12084    ...     STR      r2,[r1,#0x84]
        0x0001e9bc:    f8d12090    ...     LDR      r2,[r1,#0x90]
        0x0001e9c0:    f4226270    ".pb    BIC      r2,r2,#0xf00
        0x0001e9c4:    f8c12090    ...     STR      r2,[r1,#0x90]
        0x0001e9c8:    7a40        @z      LDRB     r0,[r0,#9]
        0x0001e9ca:    2800        .(      CMP      r0,#0
        0x0001e9cc:    f04082b7    @...    BNE.W    0x1ef3e ; mspi_device_configure + 1486
        0x0001e9d0:    f000bab7    ....    B.W      0x1ef42 ; mspi_device_configure + 1490
        0x0001e9d4:    6448        Hd      STR      r0,[r1,#0x44]
        0x0001e9d6:    f000b989    ....    B.W      0x1ecec ; mspi_device_configure + 892
        0x0001e9da:    0309        ..      LSLS     r1,r1,#12
        0x0001e9dc:    f1014180    ...A    ADD      r1,r1,#0x40000000
        0x0001e9e0:    f50121c0    ...!    ADD      r1,r1,#0x60000
        0x0001e9e4:    f8d12084    ...     LDR      r2,[r1,#0x84]
        0x0001e9e8:    f022021f    "...    BIC      r2,r2,#0x1f
        0x0001e9ec:    1c92        ..      ADDS     r2,r2,#2
        0x0001e9ee:    f8c12084    ...     STR      r2,[r1,#0x84]
        0x0001e9f2:    f8d12084    ...     LDR      r2,[r1,#0x84]
        0x0001e9f6:    f0427200    B..r    ORR      r2,r2,#0x2000000
        0x0001e9fa:    f8c12084    ...     STR      r2,[r1,#0x84]
        0x0001e9fe:    f8d12090    ...     LDR      r2,[r1,#0x90]
        0x0001ea02:    f4226270    ".pb    BIC      r2,r2,#0xf00
        0x0001ea06:    f8c12090    ...     STR      r2,[r1,#0x90]
        0x0001ea0a:    7a40        @z      LDRB     r0,[r0,#9]
        0x0001ea0c:    2800        .(      CMP      r0,#0
        0x0001ea0e:    f0408296    @...    BNE.W    0x1ef3e ; mspi_device_configure + 1486
        0x0001ea12:    f000ba96    ....    B.W      0x1ef42 ; mspi_device_configure + 1490
        0x0001ea16:    0309        ..      LSLS     r1,r1,#12
        0x0001ea18:    f1014180    ...A    ADD      r1,r1,#0x40000000
        0x0001ea1c:    f50121c0    ...!    ADD      r1,r1,#0x60000
        0x0001ea20:    f8d12084    ...     LDR      r2,[r1,#0x84]
        0x0001ea24:    f022021f    "...    BIC      r2,r2,#0x1f
        0x0001ea28:    1d52        R.      ADDS     r2,r2,#5
        0x0001ea2a:    f8c12084    ...     STR      r2,[r1,#0x84]
        0x0001ea2e:    f8d12084    ...     LDR      r2,[r1,#0x84]
        0x0001ea32:    f0227200    "..r    BIC      r2,r2,#0x2000000
        0x0001ea36:    f8c12084    ...     STR      r2,[r1,#0x84]
        0x0001ea3a:    f8d12090    ...     LDR      r2,[r1,#0x90]
        0x0001ea3e:    f4226270    ".pb    BIC      r2,r2,#0xf00
        0x0001ea42:    f8c12090    ...     STR      r2,[r1,#0x90]
        0x0001ea46:    7a40        @z      LDRB     r0,[r0,#9]
        0x0001ea48:    2800        .(      CMP      r0,#0
        0x0001ea4a:    f0408278    @.x.    BNE.W    0x1ef3e ; mspi_device_configure + 1486
        0x0001ea4e:    f000ba78    ..x.    B.W      0x1ef42 ; mspi_device_configure + 1490
        0x0001ea52:    0309        ..      LSLS     r1,r1,#12
        0x0001ea54:    f1014180    ...A    ADD      r1,r1,#0x40000000
        0x0001ea58:    f50121c0    ...!    ADD      r1,r1,#0x60000
        0x0001ea5c:    f8d12084    ...     LDR      r2,[r1,#0x84]
        0x0001ea60:    f022021f    "...    BIC      r2,r2,#0x1f
        0x0001ea64:    1d92        ..      ADDS     r2,r2,#6
        0x0001ea66:    f8c12084    ...     STR      r2,[r1,#0x84]
        0x0001ea6a:    f8d12084    ...     LDR      r2,[r1,#0x84]
        0x0001ea6e:    f0227200    "..r    BIC      r2,r2,#0x2000000
        0x0001ea72:    f8c12084    ...     STR      r2,[r1,#0x84]
        0x0001ea76:    f8d12090    ...     LDR      r2,[r1,#0x90]
        0x0001ea7a:    f4226270    ".pb    BIC      r2,r2,#0xf00
        0x0001ea7e:    f8c12090    ...     STR      r2,[r1,#0x90]
        0x0001ea82:    7a40        @z      LDRB     r0,[r0,#9]
        0x0001ea84:    2800        .(      CMP      r0,#0
        0x0001ea86:    f040825a    @.Z.    BNE.W    0x1ef3e ; mspi_device_configure + 1486
        0x0001ea8a:    f000ba5a    ..Z.    B.W      0x1ef42 ; mspi_device_configure + 1490
        0x0001ea8e:    0309        ..      LSLS     r1,r1,#12
        0x0001ea90:    f1014180    ...A    ADD      r1,r1,#0x40000000
        0x0001ea94:    f50121c0    ...!    ADD      r1,r1,#0x60000
        0x0001ea98:    f8d12084    ...     LDR      r2,[r1,#0x84]
        0x0001ea9c:    f022021f    "...    BIC      r2,r2,#0x1f
        0x0001eaa0:    3209        .2      ADDS     r2,r2,#9
        0x0001eaa2:    f8c12084    ...     STR      r2,[r1,#0x84]
        0x0001eaa6:    f8d12084    ...     LDR      r2,[r1,#0x84]
        0x0001eaaa:    f0227200    "..r    BIC      r2,r2,#0x2000000
        0x0001eaae:    f8c12084    ...     STR      r2,[r1,#0x84]
        0x0001eab2:    f8d12090    ...     LDR      r2,[r1,#0x90]
        0x0001eab6:    f4226270    ".pb    BIC      r2,r2,#0xf00
        0x0001eaba:    f8c12090    ...     STR      r2,[r1,#0x90]
        0x0001eabe:    7a40        @z      LDRB     r0,[r0,#9]
        0x0001eac0:    2800        .(      CMP      r0,#0
        0x0001eac2:    f0408202    @...    BNE.W    0x1eeca ; mspi_device_configure + 1370
        0x0001eac6:    f000ba02    ....    B.W      0x1eece ; mspi_device_configure + 1374
        0x0001eaca:    0309        ..      LSLS     r1,r1,#12
        0x0001eacc:    f1014180    ...A    ADD      r1,r1,#0x40000000
        0x0001ead0:    f50121c0    ...!    ADD      r1,r1,#0x60000
        0x0001ead4:    f8d12084    ...     LDR      r2,[r1,#0x84]
        0x0001ead8:    f022021f    "...    BIC      r2,r2,#0x1f
        0x0001eadc:    320a        .2      ADDS     r2,r2,#0xa
        0x0001eade:    f8c12084    ...     STR      r2,[r1,#0x84]
        0x0001eae2:    f8d12084    ...     LDR      r2,[r1,#0x84]
        0x0001eae6:    f0227200    "..r    BIC      r2,r2,#0x2000000
        0x0001eaea:    f8c12084    ...     STR      r2,[r1,#0x84]
        0x0001eaee:    f8d12090    ...     LDR      r2,[r1,#0x90]
        0x0001eaf2:    f4226270    ".pb    BIC      r2,r2,#0xf00
        0x0001eaf6:    f8c12090    ...     STR      r2,[r1,#0x90]
        0x0001eafa:    7a40        @z      LDRB     r0,[r0,#9]
        0x0001eafc:    2800        .(      CMP      r0,#0
        0x0001eafe:    f04081e4    @...    BNE.W    0x1eeca ; mspi_device_configure + 1370
        0x0001eb02:    f000b9e4    ....    B.W      0x1eece ; mspi_device_configure + 1374
        0x0001eb06:    0308        ..      LSLS     r0,r1,#12
        0x0001eb08:    f1004080    ...@    ADD      r0,r0,#0x40000000
        0x0001eb0c:    f50020c0    ...     ADD      r0,r0,#0x60000
        0x0001eb10:    f8d01084    ....    LDR      r1,[r0,#0x84]
        0x0001eb14:    f021011f    !...    BIC      r1,r1,#0x1f
        0x0001eb18:    310d        .1      ADDS     r1,r1,#0xd
        0x0001eb1a:    f8c01084    ....    STR      r1,[r0,#0x84]
        0x0001eb1e:    f8d01084    ....    LDR      r1,[r0,#0x84]
        0x0001eb22:    f0217100    !..q    BIC      r1,r1,#0x2000000
        0x0001eb26:    f8c01084    ....    STR      r1,[r0,#0x84]
        0x0001eb2a:    f8d01090    ....    LDR      r1,[r0,#0x90]
        0x0001eb2e:    f4216170    !.pa    BIC      r1,r1,#0xf00
        0x0001eb32:    f8c01090    ....    STR      r1,[r0,#0x90]
        0x0001eb36:    f24031ff    @..1    MOV      r1,#0x3ff
        0x0001eb3a:    e0d6        ..      B        0x1ecea ; mspi_device_configure + 890
        0x0001eb3c:    e084        ..      B        0x1ec48 ; mspi_device_configure + 728
        0x0001eb3e:    e065        e.      B        0x1ec0c ; mspi_device_configure + 668
        0x0001eb40:    e046        F.      B        0x1ebd0 ; mspi_device_configure + 608
        0x0001eb42:    e027        '.      B        0x1eb94 ; mspi_device_configure + 548
        0x0001eb44:    e1e1        ..      B        0x1ef0a ; mspi_device_configure + 1434
        0x0001eb46:    e1c5        ..      B        0x1eed4 ; mspi_device_configure + 1380
        0x0001eb48:    e1a3        ..      B        0x1ee92 ; mspi_device_configure + 1314
        0x0001eb4a:    e184        ..      B        0x1ee56 ; mspi_device_configure + 1254
        0x0001eb4c:    e166        f.      B        0x1ee1c ; mspi_device_configure + 1196
        0x0001eb4e:    e147        G.      B        0x1ede0 ; mspi_device_configure + 1136
        0x0001eb50:    e128        (.      B        0x1eda4 ; mspi_device_configure + 1076
        0x0001eb52:    e109        ..      B        0x1ed68 ; mspi_device_configure + 1016
        0x0001eb54:    e0ea        ..      B        0x1ed2c ; mspi_device_configure + 956
        0x0001eb56:    e0cb        ..      B        0x1ecf0 ; mspi_device_configure + 896
        0x0001eb58:    e0ae        ..      B        0x1ecb8 ; mspi_device_configure + 840
        0x0001eb5a:    e093        ..      B        0x1ec84 ; mspi_device_configure + 788
        0x0001eb5c:    e7ff        ..      B        0x1eb5e ; mspi_device_configure + 494
        0x0001eb5e:    0308        ..      LSLS     r0,r1,#12
        0x0001eb60:    f1004080    ...@    ADD      r0,r0,#0x40000000
        0x0001eb64:    f50020c0    ...     ADD      r0,r0,#0x60000
        0x0001eb68:    f8d01084    ....    LDR      r1,[r0,#0x84]
        0x0001eb6c:    f021011f    !...    BIC      r1,r1,#0x1f
        0x0001eb70:    310e        .1      ADDS     r1,r1,#0xe
        0x0001eb72:    f8c01084    ....    STR      r1,[r0,#0x84]
        0x0001eb76:    f8d01084    ....    LDR      r1,[r0,#0x84]
        0x0001eb7a:    f0217100    !..q    BIC      r1,r1,#0x2000000
        0x0001eb7e:    f8c01084    ....    STR      r1,[r0,#0x84]
        0x0001eb82:    f8d01090    ....    LDR      r1,[r0,#0x90]
        0x0001eb86:    f4216170    !.pa    BIC      r1,r1,#0xf00
        0x0001eb8a:    f8c01090    ....    STR      r1,[r0,#0x90]
        0x0001eb8e:    f24031ff    @..1    MOV      r1,#0x3ff
        0x0001eb92:    e0aa        ..      B        0x1ecea ; mspi_device_configure + 890
        0x0001eb94:    0308        ..      LSLS     r0,r1,#12
        0x0001eb96:    f1004080    ...@    ADD      r0,r0,#0x40000000
        0x0001eb9a:    f50020c0    ...     ADD      r0,r0,#0x60000
        0x0001eb9e:    f8d01084    ....    LDR      r1,[r0,#0x84]
        0x0001eba2:    f021011f    !...    BIC      r1,r1,#0x1f
        0x0001eba6:    1c49        I.      ADDS     r1,r1,#1
        0x0001eba8:    f8c01084    ....    STR      r1,[r0,#0x84]
        0x0001ebac:    f8d01084    ....    LDR      r1,[r0,#0x84]
        0x0001ebb0:    f0217100    !..q    BIC      r1,r1,#0x2000000
        0x0001ebb4:    f8c01084    ....    STR      r1,[r0,#0x84]
        0x0001ebb8:    f8d01090    ....    LDR      r1,[r0,#0x90]
        0x0001ebbc:    f4216170    !.pa    BIC      r1,r1,#0xf00
        0x0001ebc0:    f5016110    ...a    ADD      r1,r1,#0x900
        0x0001ebc4:    f8c01090    ....    STR      r1,[r0,#0x90]
        0x0001ebc8:    f24031ff    @..1    MOV      r1,#0x3ff
        0x0001ebcc:    6441        Ad      STR      r1,[r0,#0x44]
        0x0001ebce:    e08d        ..      B        0x1ecec ; mspi_device_configure + 892
        0x0001ebd0:    0308        ..      LSLS     r0,r1,#12
        0x0001ebd2:    f1004080    ...@    ADD      r0,r0,#0x40000000
        0x0001ebd6:    f50020c0    ...     ADD      r0,r0,#0x60000
        0x0001ebda:    f8d01084    ....    LDR      r1,[r0,#0x84]
        0x0001ebde:    f021011f    !...    BIC      r1,r1,#0x1f
        0x0001ebe2:    1c89        ..      ADDS     r1,r1,#2
        0x0001ebe4:    f8c01084    ....    STR      r1,[r0,#0x84]
        0x0001ebe8:    f8d01084    ....    LDR      r1,[r0,#0x84]
        0x0001ebec:    f0217100    !..q    BIC      r1,r1,#0x2000000
        0x0001ebf0:    f8c01084    ....    STR      r1,[r0,#0x84]
        0x0001ebf4:    f8d01090    ....    LDR      r1,[r0,#0x90]
        0x0001ebf8:    f4216170    !.pa    BIC      r1,r1,#0xf00
        0x0001ebfc:    f5016110    ...a    ADD      r1,r1,#0x900
        0x0001ec00:    f8c01090    ....    STR      r1,[r0,#0x90]
        0x0001ec04:    f24031ff    @..1    MOV      r1,#0x3ff
        0x0001ec08:    6441        Ad      STR      r1,[r0,#0x44]
        0x0001ec0a:    e06f        o.      B        0x1ecec ; mspi_device_configure + 892
        0x0001ec0c:    0308        ..      LSLS     r0,r1,#12
        0x0001ec0e:    f1004080    ...@    ADD      r0,r0,#0x40000000
        0x0001ec12:    f50020c0    ...     ADD      r0,r0,#0x60000
        0x0001ec16:    f8d01084    ....    LDR      r1,[r0,#0x84]
        0x0001ec1a:    f021011f    !...    BIC      r1,r1,#0x1f
        0x0001ec1e:    1c49        I.      ADDS     r1,r1,#1
        0x0001ec20:    f8c01084    ....    STR      r1,[r0,#0x84]
        0x0001ec24:    f8d01084    ....    LDR      r1,[r0,#0x84]
        0x0001ec28:    f0217100    !..q    BIC      r1,r1,#0x2000000
        0x0001ec2c:    f8c01084    ....    STR      r1,[r0,#0x84]
        0x0001ec30:    f8d01090    ....    LDR      r1,[r0,#0x90]
        0x0001ec34:    f4216170    !.pa    BIC      r1,r1,#0xf00
        0x0001ec38:    f5016130    ..0a    ADD      r1,r1,#0xb00
        0x0001ec3c:    f8c01090    ....    STR      r1,[r0,#0x90]
        0x0001ec40:    f24031ff    @..1    MOV      r1,#0x3ff
        0x0001ec44:    6441        Ad      STR      r1,[r0,#0x44]
        0x0001ec46:    e051        Q.      B        0x1ecec ; mspi_device_configure + 892
        0x0001ec48:    0308        ..      LSLS     r0,r1,#12
        0x0001ec4a:    f1004080    ...@    ADD      r0,r0,#0x40000000
        0x0001ec4e:    f50020c0    ...     ADD      r0,r0,#0x60000
        0x0001ec52:    f8d01084    ....    LDR      r1,[r0,#0x84]
        0x0001ec56:    f021011f    !...    BIC      r1,r1,#0x1f
        0x0001ec5a:    1c89        ..      ADDS     r1,r1,#2
        0x0001ec5c:    f8c01084    ....    STR      r1,[r0,#0x84]
        0x0001ec60:    f8d01084    ....    LDR      r1,[r0,#0x84]
        0x0001ec64:    f0217100    !..q    BIC      r1,r1,#0x2000000
        0x0001ec68:    f8c01084    ....    STR      r1,[r0,#0x84]
        0x0001ec6c:    f8d01090    ....    LDR      r1,[r0,#0x90]
        0x0001ec70:    f4216170    !.pa    BIC      r1,r1,#0xf00
        0x0001ec74:    f5016130    ..0a    ADD      r1,r1,#0xb00
        0x0001ec78:    f8c01090    ....    STR      r1,[r0,#0x90]
        0x0001ec7c:    f24031ff    @..1    MOV      r1,#0x3ff
        0x0001ec80:    6441        Ad      STR      r1,[r0,#0x44]
        0x0001ec82:    e033        3.      B        0x1ecec ; mspi_device_configure + 892
        0x0001ec84:    0308        ..      LSLS     r0,r1,#12
        0x0001ec86:    f1004080    ...@    ADD      r0,r0,#0x40000000
        0x0001ec8a:    f50020c0    ...     ADD      r0,r0,#0x60000
        0x0001ec8e:    f8d01084    ....    LDR      r1,[r0,#0x84]
        0x0001ec92:    f021011f    !...    BIC      r1,r1,#0x1f
        0x0001ec96:    3111        .1      ADDS     r1,r1,#0x11
        0x0001ec98:    f8c01084    ....    STR      r1,[r0,#0x84]
        0x0001ec9c:    f8d01084    ....    LDR      r1,[r0,#0x84]
        0x0001eca0:    f0217100    !..q    BIC      r1,r1,#0x2000000
        0x0001eca4:    f8c01084    ....    STR      r1,[r0,#0x84]
        0x0001eca8:    f8d01090    ....    LDR      r1,[r0,#0x90]
        0x0001ecac:    f4216170    !.pa    BIC      r1,r1,#0xf00
        0x0001ecb0:    f8c01090    ....    STR      r1,[r0,#0x90]
        0x0001ecb4:    49a4        .I      LDR      r1,[pc,#656] ; [0x1ef48] = 0x7ffff
        0x0001ecb6:    e018        ..      B        0x1ecea ; mspi_device_configure + 890
        0x0001ecb8:    0308        ..      LSLS     r0,r1,#12
        0x0001ecba:    f1004080    ...@    ADD      r0,r0,#0x40000000
        0x0001ecbe:    f50020c0    ...     ADD      r0,r0,#0x60000
        0x0001ecc2:    f8d01084    ....    LDR      r1,[r0,#0x84]
        0x0001ecc6:    f021011f    !...    BIC      r1,r1,#0x1f
        0x0001ecca:    3112        .1      ADDS     r1,r1,#0x12
        0x0001eccc:    f8c01084    ....    STR      r1,[r0,#0x84]
        0x0001ecd0:    f8d01084    ....    LDR      r1,[r0,#0x84]
        0x0001ecd4:    f0217100    !..q    BIC      r1,r1,#0x2000000
        0x0001ecd8:    f8c01084    ....    STR      r1,[r0,#0x84]
        0x0001ecdc:    f8d01090    ....    LDR      r1,[r0,#0x90]
        0x0001ece0:    f4216170    !.pa    BIC      r1,r1,#0xf00
        0x0001ece4:    f8c01090    ....    STR      r1,[r0,#0x90]
        0x0001ece8:    4997        .I      LDR      r1,[pc,#604] ; [0x1ef48] = 0x7ffff
        0x0001ecea:    6441        Ad      STR      r1,[r0,#0x44]
        0x0001ecec:    2000        .       MOVS     r0,#0
        0x0001ecee:    4770        pG      BX       lr
        0x0001ecf0:    0309        ..      LSLS     r1,r1,#12
        0x0001ecf2:    f1014180    ...A    ADD      r1,r1,#0x40000000
        0x0001ecf6:    f50121c0    ...!    ADD      r1,r1,#0x60000
        0x0001ecfa:    f8d12084    ...     LDR      r2,[r1,#0x84]
        0x0001ecfe:    f022021f    "...    BIC      r2,r2,#0x1f
        0x0001ed02:    1c52        R.      ADDS     r2,r2,#1
        0x0001ed04:    f8c12084    ...     STR      r2,[r1,#0x84]
        0x0001ed08:    f8d12084    ...     LDR      r2,[r1,#0x84]
        0x0001ed0c:    f0227200    "..r    BIC      r2,r2,#0x2000000
        0x0001ed10:    f8c12084    ...     STR      r2,[r1,#0x84]
        0x0001ed14:    f8d12090    ...     LDR      r2,[r1,#0x90]
        0x0001ed18:    f4226270    ".pb    BIC      r2,r2,#0xf00
        0x0001ed1c:    f5027280    ...r    ADD      r2,r2,#0x100
        0x0001ed20:    f8c12090    ...     STR      r2,[r1,#0x90]
        0x0001ed24:    7a40        @z      LDRB     r0,[r0,#9]
        0x0001ed26:    2800        .(      CMP      r0,#0
        0x0001ed28:    d177        w.      BNE      0x1ee1a ; mspi_device_configure + 1194
        0x0001ed2a:    e10a        ..      B        0x1ef42 ; mspi_device_configure + 1490
        0x0001ed2c:    0309        ..      LSLS     r1,r1,#12
        0x0001ed2e:    f1014180    ...A    ADD      r1,r1,#0x40000000
        0x0001ed32:    f50121c0    ...!    ADD      r1,r1,#0x60000
        0x0001ed36:    f8d12084    ...     LDR      r2,[r1,#0x84]
        0x0001ed3a:    f022021f    "...    BIC      r2,r2,#0x1f
        0x0001ed3e:    1c92        ..      ADDS     r2,r2,#2
        0x0001ed40:    f8c12084    ...     STR      r2,[r1,#0x84]
        0x0001ed44:    f8d12084    ...     LDR      r2,[r1,#0x84]
        0x0001ed48:    f0227200    "..r    BIC      r2,r2,#0x2000000
        0x0001ed4c:    f8c12084    ...     STR      r2,[r1,#0x84]
        0x0001ed50:    f8d12090    ...     LDR      r2,[r1,#0x90]
        0x0001ed54:    f4226270    ".pb    BIC      r2,r2,#0xf00
        0x0001ed58:    f5027280    ...r    ADD      r2,r2,#0x100
        0x0001ed5c:    f8c12090    ...     STR      r2,[r1,#0x90]
        0x0001ed60:    7a40        @z      LDRB     r0,[r0,#9]
        0x0001ed62:    2800        .(      CMP      r0,#0
        0x0001ed64:    d159        Y.      BNE      0x1ee1a ; mspi_device_configure + 1194
        0x0001ed66:    e0ec        ..      B        0x1ef42 ; mspi_device_configure + 1490
        0x0001ed68:    0309        ..      LSLS     r1,r1,#12
        0x0001ed6a:    f1014180    ...A    ADD      r1,r1,#0x40000000
        0x0001ed6e:    f50121c0    ...!    ADD      r1,r1,#0x60000
        0x0001ed72:    f8d12084    ...     LDR      r2,[r1,#0x84]
        0x0001ed76:    f022021f    "...    BIC      r2,r2,#0x1f
        0x0001ed7a:    1c52        R.      ADDS     r2,r2,#1
        0x0001ed7c:    f8c12084    ...     STR      r2,[r1,#0x84]
        0x0001ed80:    f8d12084    ...     LDR      r2,[r1,#0x84]
        0x0001ed84:    f0227200    "..r    BIC      r2,r2,#0x2000000
        0x0001ed88:    f8c12084    ...     STR      r2,[r1,#0x84]
        0x0001ed8c:    f8d12090    ...     LDR      r2,[r1,#0x90]
        0x0001ed90:    f4226270    ".pb    BIC      r2,r2,#0xf00
        0x0001ed94:    f5027240    ..@r    ADD      r2,r2,#0x300
        0x0001ed98:    f8c12090    ...     STR      r2,[r1,#0x90]
        0x0001ed9c:    7a40        @z      LDRB     r0,[r0,#9]
        0x0001ed9e:    2800        .(      CMP      r0,#0
        0x0001eda0:    d13b        ;.      BNE      0x1ee1a ; mspi_device_configure + 1194
        0x0001eda2:    e0ce        ..      B        0x1ef42 ; mspi_device_configure + 1490
        0x0001eda4:    0309        ..      LSLS     r1,r1,#12
        0x0001eda6:    f1014180    ...A    ADD      r1,r1,#0x40000000
        0x0001edaa:    f50121c0    ...!    ADD      r1,r1,#0x60000
        0x0001edae:    f8d12084    ...     LDR      r2,[r1,#0x84]
        0x0001edb2:    f022021f    "...    BIC      r2,r2,#0x1f
        0x0001edb6:    1c92        ..      ADDS     r2,r2,#2
        0x0001edb8:    f8c12084    ...     STR      r2,[r1,#0x84]
        0x0001edbc:    f8d12084    ...     LDR      r2,[r1,#0x84]
        0x0001edc0:    f0227200    "..r    BIC      r2,r2,#0x2000000
        0x0001edc4:    f8c12084    ...     STR      r2,[r1,#0x84]
        0x0001edc8:    f8d12090    ...     LDR      r2,[r1,#0x90]
        0x0001edcc:    f4226270    ".pb    BIC      r2,r2,#0xf00
        0x0001edd0:    f5027240    ..@r    ADD      r2,r2,#0x300
        0x0001edd4:    f8c12090    ...     STR      r2,[r1,#0x90]
        0x0001edd8:    7a40        @z      LDRB     r0,[r0,#9]
        0x0001edda:    2800        .(      CMP      r0,#0
        0x0001eddc:    d11d        ..      BNE      0x1ee1a ; mspi_device_configure + 1194
        0x0001edde:    e0b0        ..      B        0x1ef42 ; mspi_device_configure + 1490
        0x0001ede0:    0309        ..      LSLS     r1,r1,#12
        0x0001ede2:    f1014180    ...A    ADD      r1,r1,#0x40000000
        0x0001ede6:    f50121c0    ...!    ADD      r1,r1,#0x60000
        0x0001edea:    f8d12084    ...     LDR      r2,[r1,#0x84]
        0x0001edee:    f022021f    "...    BIC      r2,r2,#0x1f
        0x0001edf2:    1c52        R.      ADDS     r2,r2,#1
        0x0001edf4:    f8c12084    ...     STR      r2,[r1,#0x84]
        0x0001edf8:    f8d12084    ...     LDR      r2,[r1,#0x84]
        0x0001edfc:    f0227200    "..r    BIC      r2,r2,#0x2000000
        0x0001ee00:    f8c12084    ...     STR      r2,[r1,#0x84]
        0x0001ee04:    f8d12090    ...     LDR      r2,[r1,#0x90]
        0x0001ee08:    f4226270    ".pb    BIC      r2,r2,#0xf00
        0x0001ee0c:    f50262a0    ...b    ADD      r2,r2,#0x500
        0x0001ee10:    f8c12090    ...     STR      r2,[r1,#0x90]
        0x0001ee14:    7a40        @z      LDRB     r0,[r0,#9]
        0x0001ee16:    bbd8        ..      CBNZ     r0,0x1ee90 ; mspi_device_configure + 1312
        0x0001ee18:    e059        Y.      B        0x1eece ; mspi_device_configure + 1374
        0x0001ee1a:    e090        ..      B        0x1ef3e ; mspi_device_configure + 1486
        0x0001ee1c:    0309        ..      LSLS     r1,r1,#12
        0x0001ee1e:    f1014180    ...A    ADD      r1,r1,#0x40000000
        0x0001ee22:    f50121c0    ...!    ADD      r1,r1,#0x60000
        0x0001ee26:    f8d12084    ...     LDR      r2,[r1,#0x84]
        0x0001ee2a:    f022021f    "...    BIC      r2,r2,#0x1f
        0x0001ee2e:    1c92        ..      ADDS     r2,r2,#2
        0x0001ee30:    f8c12084    ...     STR      r2,[r1,#0x84]
        0x0001ee34:    f8d12084    ...     LDR      r2,[r1,#0x84]
        0x0001ee38:    f0227200    "..r    BIC      r2,r2,#0x2000000
        0x0001ee3c:    f8c12084    ...     STR      r2,[r1,#0x84]
        0x0001ee40:    f8d12090    ...     LDR      r2,[r1,#0x90]
        0x0001ee44:    f4226270    ".pb    BIC      r2,r2,#0xf00
        0x0001ee48:    f50262a0    ...b    ADD      r2,r2,#0x500
        0x0001ee4c:    f8c12090    ...     STR      r2,[r1,#0x90]
        0x0001ee50:    7a40        @z      LDRB     r0,[r0,#9]
        0x0001ee52:    b9e8        ..      CBNZ     r0,0x1ee90 ; mspi_device_configure + 1312
        0x0001ee54:    e03b        ;.      B        0x1eece ; mspi_device_configure + 1374
        0x0001ee56:    0309        ..      LSLS     r1,r1,#12
        0x0001ee58:    f1014180    ...A    ADD      r1,r1,#0x40000000
        0x0001ee5c:    f50121c0    ...!    ADD      r1,r1,#0x60000
        0x0001ee60:    f8d12084    ...     LDR      r2,[r1,#0x84]
        0x0001ee64:    f022021f    "...    BIC      r2,r2,#0x1f
        0x0001ee68:    1c52        R.      ADDS     r2,r2,#1
        0x0001ee6a:    f8c12084    ...     STR      r2,[r1,#0x84]
        0x0001ee6e:    f8d12084    ...     LDR      r2,[r1,#0x84]
        0x0001ee72:    f0227200    "..r    BIC      r2,r2,#0x2000000
        0x0001ee76:    f8c12084    ...     STR      r2,[r1,#0x84]
        0x0001ee7a:    f8d12090    ...     LDR      r2,[r1,#0x90]
        0x0001ee7e:    f4226270    ".pb    BIC      r2,r2,#0xf00
        0x0001ee82:    f50262e0    ...b    ADD      r2,r2,#0x700
        0x0001ee86:    f8c12090    ...     STR      r2,[r1,#0x90]
        0x0001ee8a:    7a40        @z      LDRB     r0,[r0,#9]
        0x0001ee8c:    b900        ..      CBNZ     r0,0x1ee90 ; mspi_device_configure + 1312
        0x0001ee8e:    e01e        ..      B        0x1eece ; mspi_device_configure + 1374
        0x0001ee90:    e01b        ..      B        0x1eeca ; mspi_device_configure + 1370
        0x0001ee92:    0309        ..      LSLS     r1,r1,#12
        0x0001ee94:    f1014180    ...A    ADD      r1,r1,#0x40000000
        0x0001ee98:    f50121c0    ...!    ADD      r1,r1,#0x60000
        0x0001ee9c:    f8d12084    ...     LDR      r2,[r1,#0x84]
        0x0001eea0:    f022021f    "...    BIC      r2,r2,#0x1f
        0x0001eea4:    1c92        ..      ADDS     r2,r2,#2
        0x0001eea6:    f8c12084    ...     STR      r2,[r1,#0x84]
        0x0001eeaa:    f8d12084    ...     LDR      r2,[r1,#0x84]
        0x0001eeae:    f0227200    "..r    BIC      r2,r2,#0x2000000
        0x0001eeb2:    f8c12084    ...     STR      r2,[r1,#0x84]
        0x0001eeb6:    f8d12090    ...     LDR      r2,[r1,#0x90]
        0x0001eeba:    f4226270    ".pb    BIC      r2,r2,#0xf00
        0x0001eebe:    f50262e0    ...b    ADD      r2,r2,#0x700
        0x0001eec2:    f8c12090    ...     STR      r2,[r1,#0x90]
        0x0001eec6:    7a40        @z      LDRB     r0,[r0,#9]
        0x0001eec8:    b108        ..      CBZ      r0,0x1eece ; mspi_device_configure + 1374
        0x0001eeca:    4820         H      LDR      r0,[pc,#128] ; [0x1ef4c] = 0x8000001f
        0x0001eecc:    e582        ..      B        0x1e9d4 ; mspi_device_configure + 100
        0x0001eece:    f240100f    @...    MOV      r0,#0x10f
        0x0001eed2:    e57f        ..      B        0x1e9d4 ; mspi_device_configure + 100
        0x0001eed4:    0309        ..      LSLS     r1,r1,#12
        0x0001eed6:    f1014180    ...A    ADD      r1,r1,#0x40000000
        0x0001eeda:    f50121c0    ...!    ADD      r1,r1,#0x60000
        0x0001eede:    f8d12084    ...     LDR      r2,[r1,#0x84]
        0x0001eee2:    f022021f    "...    BIC      r2,r2,#0x1f
        0x0001eee6:    1c52        R.      ADDS     r2,r2,#1
        0x0001eee8:    f8c12084    ...     STR      r2,[r1,#0x84]
        0x0001eeec:    f8d12084    ...     LDR      r2,[r1,#0x84]
        0x0001eef0:    f0227200    "..r    BIC      r2,r2,#0x2000000
        0x0001eef4:    f8c12084    ...     STR      r2,[r1,#0x84]
        0x0001eef8:    f8d12090    ...     LDR      r2,[r1,#0x90]
        0x0001eefc:    f4226270    ".pb    BIC      r2,r2,#0xf00
        0x0001ef00:    f8c12090    ...     STR      r2,[r1,#0x90]
        0x0001ef04:    7a40        @z      LDRB     r0,[r0,#9]
        0x0001ef06:    b9d0        ..      CBNZ     r0,0x1ef3e ; mspi_device_configure + 1486
        0x0001ef08:    e01b        ..      B        0x1ef42 ; mspi_device_configure + 1490
        0x0001ef0a:    0309        ..      LSLS     r1,r1,#12
        0x0001ef0c:    f1014180    ...A    ADD      r1,r1,#0x40000000
        0x0001ef10:    f50121c0    ...!    ADD      r1,r1,#0x60000
        0x0001ef14:    f8d12084    ...     LDR      r2,[r1,#0x84]
        0x0001ef18:    f022021f    "...    BIC      r2,r2,#0x1f
        0x0001ef1c:    1c92        ..      ADDS     r2,r2,#2
        0x0001ef1e:    f8c12084    ...     STR      r2,[r1,#0x84]
        0x0001ef22:    f8d12084    ...     LDR      r2,[r1,#0x84]
        0x0001ef26:    f0227200    "..r    BIC      r2,r2,#0x2000000
        0x0001ef2a:    f8c12084    ...     STR      r2,[r1,#0x84]
        0x0001ef2e:    f8d12090    ...     LDR      r2,[r1,#0x90]
        0x0001ef32:    f4226270    ".pb    BIC      r2,r2,#0xf00
        0x0001ef36:    f8c12090    ...     STR      r2,[r1,#0x90]
        0x0001ef3a:    7a40        @z      LDRB     r0,[r0,#9]
        0x0001ef3c:    b108        ..      CBZ      r0,0x1ef42 ; mspi_device_configure + 1490
        0x0001ef3e:    4804        .H      LDR      r0,[pc,#16] ; [0x1ef50] = 0x80000013
        0x0001ef40:    e548        H.      B        0x1e9d4 ; mspi_device_configure + 100
        0x0001ef42:    f2401003    @...    MOV      r0,#0x103
        0x0001ef46:    e545        E.      B        0x1e9d4 ; mspi_device_configure + 100
    $d
        0x0001ef48:    0007ffff    ....    DCD    524287
        0x0001ef4c:    8000001f    ....    DCD    2147483679
        0x0001ef50:    80000013    ....    DCD    2147483667
    $t
    i.mspi_dummy_callback
    mspi_dummy_callback
        0x0001ef54:    4770        pG      BX       lr
    i.mspi_seq_loopback
    mspi_seq_loopback
        0x0001ef56:    f8d01830    ..0.    LDR      r1,[r0,#0x830]
        0x0001ef5a:    1c49        I.      ADDS     r1,r1,#1
        0x0001ef5c:    6201        .b      STR      r1,[r0,#0x20]
        0x0001ef5e:    2100        .!      MOVS     r1,#0
        0x0001ef60:    61c1        .a      STR      r1,[r0,#0x1c]
        0x0001ef62:    2101        .!      MOVS     r1,#1
        0x0001ef64:    f8801834    ..4.    STRB     r1,[r0,#0x834]
        0x0001ef68:    6840        @h      LDR      r0,[r0,#4]
        0x0001ef6a:    2140        @!      MOVS     r1,#0x40
        0x0001ef6c:    0300        ..      LSLS     r0,r0,#12
        0x0001ef6e:    f1004080    ...@    ADD      r0,r0,#0x40000000
        0x0001ef72:    f50020c0    ...     ADD      r0,r0,#0x60000
        0x0001ef76:    f8c012b4    ....    STR      r1,[r0,#0x2b4]
        0x0001ef7a:    4770        pG      BX       lr
    i.ndigits_in_hex
    ndigits_in_hex
        0x0001ef7c:    b530        0.      PUSH     {r4,r5,lr}
        0x0001ef7e:    4602        .F      MOV      r2,r0
        0x0001ef80:    460b        .F      MOV      r3,r1
        0x0001ef82:    2400        .$      MOVS     r4,#0
        0x0001ef84:    ea820104    ....    EOR      r1,r2,r4
        0x0001ef88:    405c        \@      EORS     r4,r4,r3
        0x0001ef8a:    4321        !C      ORRS     r1,r1,r4
        0x0001ef8c:    d101        ..      BNE      0x1ef92 ; ndigits_in_hex + 22
        0x0001ef8e:    2101        .!      MOVS     r1,#1
        0x0001ef90:    e000        ..      B        0x1ef94 ; ndigits_in_hex + 24
        0x0001ef92:    2100        .!      MOVS     r1,#0
        0x0001ef94:    4608        .F      MOV      r0,r1
        0x0001ef96:    e004        ..      B        0x1efa2 ; ndigits_in_hex + 38
        0x0001ef98:    0911        ..      LSRS     r1,r2,#4
        0x0001ef9a:    ea417203    A..r    ORR      r2,r1,r3,LSL #28
        0x0001ef9e:    091b        ..      LSRS     r3,r3,#4
        0x0001efa0:    1c40        @.      ADDS     r0,r0,#1
        0x0001efa2:    2400        .$      MOVS     r4,#0
        0x0001efa4:    ea820104    ....    EOR      r1,r2,r4
        0x0001efa8:    405c        \@      EORS     r4,r4,r3
        0x0001efaa:    4321        !C      ORRS     r1,r1,r4
        0x0001efac:    d1f4        ..      BNE      0x1ef98 ; ndigits_in_hex + 28
        0x0001efae:    bd30        0.      POP      {r4,r5,pc}
    i.ndigits_in_i64
    ndigits_in_i64
        0x0001efb0:    b570        p.      PUSH     {r4-r6,lr}
        0x0001efb2:    4604        .F      MOV      r4,r0
        0x0001efb4:    460d        .F      MOV      r5,r1
        0x0001efb6:    2100        .!      MOVS     r1,#0
        0x0001efb8:    4608        .F      MOV      r0,r1
        0x0001efba:    1a61        a.      SUBS     r1,r4,r1
        0x0001efbc:    eb750000    u...    SBCS     r0,r5,r0
        0x0001efc0:    da03        ..      BGE      0x1efca ; ndigits_in_i64 + 26
        0x0001efc2:    2200        ."      MOVS     r2,#0
        0x0001efc4:    4264        dB      RSBS     r4,r4,#0
        0x0001efc6:    eb620505    b...    SBC      r5,r2,r5
        0x0001efca:    4620         F      MOV      r0,r4
        0x0001efcc:    4629        )F      MOV      r1,r5
        0x0001efce:    f000f801    ....    BL       ndigits_in_u64 ; 0x1efd4
        0x0001efd2:    bd70        p.      POP      {r4-r6,pc}
    i.ndigits_in_u64
    ndigits_in_u64
        0x0001efd4:    b570        p.      PUSH     {r4-r6,lr}
        0x0001efd6:    4604        .F      MOV      r4,r0
        0x0001efd8:    460d        .F      MOV      r5,r1
        0x0001efda:    2100        .!      MOVS     r1,#0
        0x0001efdc:    ea840001    ....    EOR      r0,r4,r1
        0x0001efe0:    4069        i@      EORS     r1,r1,r5
        0x0001efe2:    4308        .C      ORRS     r0,r0,r1
        0x0001efe4:    d101        ..      BNE      0x1efea ; ndigits_in_u64 + 22
        0x0001efe6:    2001        .       MOVS     r0,#1
        0x0001efe8:    e000        ..      B        0x1efec ; ndigits_in_u64 + 24
        0x0001efea:    2000        .       MOVS     r0,#0
        0x0001efec:    4606        .F      MOV      r6,r0
        0x0001efee:    e006        ..      B        0x1effe ; ndigits_in_u64 + 42
        0x0001eff0:    4620         F      MOV      r0,r4
        0x0001eff2:    4629        )F      MOV      r1,r5
        0x0001eff4:    f7fff8d3    ....    BL       divu64_10 ; 0x1e19e
        0x0001eff8:    4604        .F      MOV      r4,r0
        0x0001effa:    460d        .F      MOV      r5,r1
        0x0001effc:    1c76        v.      ADDS     r6,r6,#1
        0x0001effe:    2100        .!      MOVS     r1,#0
        0x0001f000:    ea840001    ....    EOR      r0,r4,r1
        0x0001f004:    4069        i@      EORS     r1,r1,r5
        0x0001f006:    4308        .C      ORRS     r0,r0,r1
        0x0001f008:    d1f2        ..      BNE      0x1eff0 ; ndigits_in_u64 + 28
        0x0001f00a:    4630        0F      MOV      r0,r6
        0x0001f00c:    bd70        p.      POP      {r4-r6,pc}
    i.padbuffer
    padbuffer
        0x0001f00e:    b530        0.      PUSH     {r4,r5,lr}
        0x0001f010:    4603        .F      MOV      r3,r0
        0x0001f012:    2000        .       MOVS     r0,#0
        0x0001f014:    2a00        .*      CMP      r2,#0
        0x0001f016:    dc00        ..      BGT      0x1f01a ; padbuffer + 12
        0x0001f018:    bd30        0.      POP      {r4,r5,pc}
        0x0001f01a:    e003        ..      B        0x1f024 ; padbuffer + 22
        0x0001f01c:    b10b        ..      CBZ      r3,0x1f022 ; padbuffer + 20
        0x0001f01e:    f8031b01    ....    STRB     r1,[r3],#1
        0x0001f022:    1c40        @.      ADDS     r0,r0,#1
        0x0001f024:    1e14        ..      SUBS     r4,r2,#0
        0x0001f026:    f1a20201    ....    SUB      r2,r2,#1
        0x0001f02a:    d1f7        ..      BNE      0x1f01c ; padbuffer + 14
        0x0001f02c:    bf00        ..      NOP      
        0x0001f02e:    e7f3        ..      B        0x1f018 ; padbuffer + 10
    i.pfnMSPI_DS35X1GA_Callback
    pfnMSPI_DS35X1GA_Callback
        0x0001f030:    2201        ."      MOVS     r2,#1
        0x0001f032:    7002        .p      STRB     r2,[r0,#0]
        0x0001f034:    4770        pG      BX       lr
        0x0001f036:    0000        ..      MOVS     r0,r0
    i.prepare_test_pattern
    prepare_test_pattern
        0x0001f038:    b5f0        ..      PUSH     {r4-r7,lr}
        0x0001f03a:    4603        .F      MOV      r3,r0
        0x0001f03c:    460c        .F      MOV      r4,r1
        0x0001f03e:    4625        %F      MOV      r5,r4
        0x0001f040:    4621        !F      MOV      r1,r4
        0x0001f042:    f0020003    ....    AND      r0,r2,#3
        0x0001f046:    b110        ..      CBZ      r0,0x1f04e ; prepare_test_pattern + 22
        0x0001f048:    f04f30ff    O..0    MOV      r0,#0xffffffff
        0x0001f04c:    bdf0        ..      POP      {r4-r7,pc}
        0x0001f04e:    2b05        .+      CMP      r3,#5
        0x0001f050:    d234        4.      BCS      0x1f0bc ; prepare_test_pattern + 132
        0x0001f052:    e8dff003    ....    TBB      [pc,r3]
    $d
        0x0001f056:    0d03        ..      DCW    3331
        0x0001f058:    002a2217    ."*.    DCD    2761239
    $t
        0x0001f05c:    2000        .       MOVS     r0,#0
        0x0001f05e:    e003        ..      B        0x1f068 ; prepare_test_pattern + 48
        0x0001f060:    4e1b        .N      LDR      r6,[pc,#108] ; [0x1f0d0] = 0x5555aaaa
        0x0001f062:    f8456020    E. `    STR      r6,[r5,r0,LSL #2]
        0x0001f066:    1c40        @.      ADDS     r0,r0,#1
        0x0001f068:    ebb00f92    ....    CMP      r0,r2,LSR #2
        0x0001f06c:    d3f8        ..      BCC      0x1f060 ; prepare_test_pattern + 40
        0x0001f06e:    e02c        ,.      B        0x1f0ca ; prepare_test_pattern + 146
        0x0001f070:    2000        .       MOVS     r0,#0
        0x0001f072:    e003        ..      B        0x1f07c ; prepare_test_pattern + 68
        0x0001f074:    4e17        .N      LDR      r6,[pc,#92] ; [0x1f0d4] = 0xffff0000
        0x0001f076:    f8456020    E. `    STR      r6,[r5,r0,LSL #2]
        0x0001f07a:    1c40        @.      ADDS     r0,r0,#1
        0x0001f07c:    ebb00f92    ....    CMP      r0,r2,LSR #2
        0x0001f080:    d3f8        ..      BCC      0x1f074 ; prepare_test_pattern + 60
        0x0001f082:    e022        ".      B        0x1f0ca ; prepare_test_pattern + 146
        0x0001f084:    2000        .       MOVS     r0,#0
        0x0001f086:    e005        ..      B        0x1f094 ; prepare_test_pattern + 92
        0x0001f088:    f0000707    ....    AND      r7,r0,#7
        0x0001f08c:    2601        .&      MOVS     r6,#1
        0x0001f08e:    40be        .@      LSLS     r6,r6,r7
        0x0001f090:    540e        .T      STRB     r6,[r1,r0]
        0x0001f092:    1c40        @.      ADDS     r0,r0,#1
        0x0001f094:    4290        .B      CMP      r0,r2
        0x0001f096:    d3f7        ..      BCC      0x1f088 ; prepare_test_pattern + 80
        0x0001f098:    e017        ..      B        0x1f0ca ; prepare_test_pattern + 146
        0x0001f09a:    2000        .       MOVS     r0,#0
        0x0001f09c:    e002        ..      B        0x1f0a4 ; prepare_test_pattern + 108
        0x0001f09e:    1c46        F.      ADDS     r6,r0,#1
        0x0001f0a0:    540e        .T      STRB     r6,[r1,r0]
        0x0001f0a2:    1c40        @.      ADDS     r0,r0,#1
        0x0001f0a4:    4290        .B      CMP      r0,r2
        0x0001f0a6:    d3fa        ..      BCC      0x1f09e ; prepare_test_pattern + 102
        0x0001f0a8:    e00f        ..      B        0x1f0ca ; prepare_test_pattern + 146
        0x0001f0aa:    2000        .       MOVS     r0,#0
        0x0001f0ac:    e003        ..      B        0x1f0b6 ; prepare_test_pattern + 126
        0x0001f0ae:    f1c006ff    ....    RSB      r6,r0,#0xff
        0x0001f0b2:    540e        .T      STRB     r6,[r1,r0]
        0x0001f0b4:    1c40        @.      ADDS     r0,r0,#1
        0x0001f0b6:    4290        .B      CMP      r0,r2
        0x0001f0b8:    d3f9        ..      BCC      0x1f0ae ; prepare_test_pattern + 118
        0x0001f0ba:    e006        ..      B        0x1f0ca ; prepare_test_pattern + 146
        0x0001f0bc:    2000        .       MOVS     r0,#0
        0x0001f0be:    e001        ..      B        0x1f0c4 ; prepare_test_pattern + 140
        0x0001f0c0:    5408        .T      STRB     r0,[r1,r0]
        0x0001f0c2:    1c40        @.      ADDS     r0,r0,#1
        0x0001f0c4:    4290        .B      CMP      r0,r2
        0x0001f0c6:    d3fb        ..      BCC      0x1f0c0 ; prepare_test_pattern + 136
        0x0001f0c8:    bf00        ..      NOP      
        0x0001f0ca:    bf00        ..      NOP      
        0x0001f0cc:    2000        .       MOVS     r0,#0
        0x0001f0ce:    e7bd        ..      B        0x1f04c ; prepare_test_pattern + 20
    $d
        0x0001f0d0:    5555aaaa    ..UU    DCD    1431677610
        0x0001f0d4:    ffff0000    ....    DCD    4294901760
    $t
    i.program_load
    program_load
        0x0001f0d8:    e92d43fe    -..C    PUSH     {r1-r9,lr}
        0x0001f0dc:    4604        .F      MOV      r4,r0
        0x0001f0de:    460d        .F      MOV      r5,r1
        0x0001f0e0:    4616        .F      MOV      r6,r2
        0x0001f0e2:    461f        .F      MOV      r7,r3
        0x0001f0e4:    f04f0800    O...    MOV      r8,#0
        0x0001f0e8:    2140        @!      MOVS     r1,#0x40
        0x0001f0ea:    4809        .H      LDR      r0,[pc,#36] ; [0x1f110] = 0x100020b4
        0x0001f0ec:    f7f9f9e5    ....    BL       __aeabi_memclr4 ; 0x184ba
        0x0001f0f0:    4808        .H      LDR      r0,[pc,#32] ; [0x1f114] = 0x100000ad
        0x0001f0f2:    2140        @!      MOVS     r1,#0x40
        0x0001f0f4:    4a06        .J      LDR      r2,[pc,#24] ; [0x1f110] = 0x100020b4
        0x0001f0f6:    463b        ;F      MOV      r3,r7
        0x0001f0f8:    e9cd2100    ...!    STRD     r2,r1,[sp,#0]
        0x0001f0fc:    9002        ..      STR      r0,[sp,#8]
        0x0001f0fe:    4632        2F      MOV      r2,r6
        0x0001f100:    4629        )F      MOV      r1,r5
        0x0001f102:    4620         F      MOV      r0,r4
        0x0001f104:    f7fafe06    ....    BL       am_devices_mspi_ds35x1ga_timing_check_write ; 0x19d14
        0x0001f108:    4680        .F      MOV      r8,r0
        0x0001f10a:    4640        @F      MOV      r0,r8
        0x0001f10c:    e8bd83fe    ....    POP      {r1-r9,pc}
    $d
        0x0001f110:    100020b4    . ..    DCD    268443828
        0x0001f114:    100000ad    ....    DCD    268435629
    $t
    i.read_from_cache
    read_from_cache
        0x0001f118:    e92d41f0    -..A    PUSH     {r4-r8,lr}
        0x0001f11c:    b086        ..      SUB      sp,sp,#0x18
        0x0001f11e:    4604        .F      MOV      r4,r0
        0x0001f120:    460d        .F      MOV      r5,r1
        0x0001f122:    4616        .F      MOV      r6,r2
        0x0001f124:    461f        .F      MOV      r7,r3
        0x0001f126:    4809        .H      LDR      r0,[pc,#36] ; [0x1f14c] = 0x100000ad
        0x0001f128:    a905        ..      ADD      r1,sp,#0x14
        0x0001f12a:    2210        ."      MOVS     r2,#0x10
        0x0001f12c:    4b08        .K      LDR      r3,[pc,#32] ; [0x1f150] = 0x100020f4
        0x0001f12e:    e9cd3200    ...2    STRD     r3,r2,[sp,#0]
        0x0001f132:    e9cd1002    ....    STRD     r1,r0,[sp,#8]
        0x0001f136:    463b        ;F      MOV      r3,r7
        0x0001f138:    4632        2F      MOV      r2,r6
        0x0001f13a:    4629        )F      MOV      r1,r5
        0x0001f13c:    4620         F      MOV      r0,r4
        0x0001f13e:    f7fafd49    ..I.    BL       am_devices_mspi_ds35x1ga_timing_check_read ; 0x19bd4
        0x0001f142:    4680        .F      MOV      r8,r0
        0x0001f144:    4640        @F      MOV      r0,r8
        0x0001f146:    b006        ..      ADD      sp,sp,#0x18
        0x0001f148:    e8bd81f0    ....    POP      {r4-r8,pc}
    $d
        0x0001f14c:    100000ad    ....    DCD    268435629
        0x0001f150:    100020f4    . ..    DCD    268443892
    $t
    i.revmaj_get
    revmaj_get
        0x0001f154:    4601        .F      MOV      r1,r0
        0x0001f156:    f3c11203    ....    UBFX     r2,r1,#4,#4
        0x0001f15a:    f1020040    ..@.    ADD      r0,r2,#0x40
        0x0001f15e:    4770        pG      BX       lr
    i.sched_hiprio
    sched_hiprio
        0x0001f160:    b5f8        ..      PUSH     {r3-r7,lr}
        0x0001f162:    460e        .F      MOV      r6,r1
        0x0001f164:    4604        .F      MOV      r4,r0
        0x0001f166:    2500        .%      MOVS     r5,#0
        0x0001f168:    f7f9f8fc    ....    BL       am_hal_interrupt_master_disable ; 0x18364
        0x0001f16c:    9000        ..      STR      r0,[sp,#0]
        0x0001f16e:    f8d47840    ..@x    LDR      r7,[r4,#0x840]
        0x0001f172:    19b8        ..      ADDS     r0,r7,r6
        0x0001f174:    f8c40840    ..@.    STR      r0,[r4,#0x840]
        0x0001f178:    9800        ..      LDR      r0,[sp,#0]
        0x0001f17a:    f7f9f8f7    ....    BL       am_hal_interrupt_master_set ; 0x1836c
        0x0001f17e:    2f00        ./      CMP      r7,#0
        0x0001f180:    d17e        ~.      BNE      0x1f280 ; sched_hiprio + 288
        0x0001f182:    6861        ah      LDR      r1,[r4,#4]
        0x0001f184:    4e44        DN      LDR      r6,[pc,#272] ; [0x1f298] = 0x186a0
        0x0001f186:    ea4f3101    O..1    LSL      r1,r1,#12
        0x0001f18a:    f1014180    ...A    ADD      r1,r1,#0x40000000
        0x0001f18e:    f50121c0    ...!    ADD      r1,r1,#0x60000
        0x0001f192:    f44f0000    O...    MOV      r0,#0x800000
        0x0001f196:    4635        5F      MOV      r5,r6
        0x0001f198:    f8c102b4    ....    STR      r0,[r1,#0x2b4]
        0x0001f19c:    6860        `h      LDR      r0,[r4,#4]
        0x0001f19e:    ea4f3000    O..0    LSL      r0,r0,#12
        0x0001f1a2:    f1004080    ...@    ADD      r0,r0,#0x40000000
        0x0001f1a6:    f50020c0    ...     ADD      r0,r0,#0x60000
        0x0001f1aa:    f8d002a0    ....    LDR      r0,[r0,#0x2a0]
        0x0001f1ae:    f0100f01    ....    TST      r0,#1
        0x0001f1b2:    d020         .      BEQ      0x1f1f6 ; sched_hiprio + 150
        0x0001f1b4:    6860        `h      LDR      r0,[r4,#4]
        0x0001f1b6:    ea4f3000    O..0    LSL      r0,r0,#12
        0x0001f1ba:    f1004080    ...@    ADD      r0,r0,#0x40000000
        0x0001f1be:    f50020c0    ...     ADD      r0,r0,#0x60000
        0x0001f1c2:    f8d012ac    ....    LDR      r1,[r0,#0x2ac]
        0x0001f1c6:    f0110f08    ....    TST      r1,#8
        0x0001f1ca:    bf1c        ..      ITT      NE
        0x0001f1cc:    f8d002b8    ....    LDRNE    r0,[r0,#0x2b8]
        0x0001f1d0:    f0100f80    ....    TSTNE    r0,#0x80
        0x0001f1d4:    d10f        ..      BNE      0x1f1f6 ; sched_hiprio + 150
        0x0001f1d6:    1e6d        m.      SUBS     r5,r5,#1
        0x0001f1d8:    d35b        [.      BCC      0x1f292 ; sched_hiprio + 306
        0x0001f1da:    2001        .       MOVS     r0,#1
        0x0001f1dc:    f7fbfb66    ..f.    BL       am_hal_delay_us ; 0x1a8ac
        0x0001f1e0:    6860        `h      LDR      r0,[r4,#4]
        0x0001f1e2:    0300        ..      LSLS     r0,r0,#12
        0x0001f1e4:    f1004080    ...@    ADD      r0,r0,#0x40000000
        0x0001f1e8:    f50020c0    ...     ADD      r0,r0,#0x60000
        0x0001f1ec:    f8d002a0    ....    LDR      r0,[r0,#0x2a0]
        0x0001f1f0:    f0100f01    ....    TST      r0,#1
        0x0001f1f4:    d1de        ..      BNE      0x1f1b4 ; sched_hiprio + 84
        0x0001f1f6:    2701        .'      MOVS     r7,#1
        0x0001f1f8:    9700        ..      STR      r7,[sp,#0]
        0x0001f1fa:    4928        (I      LDR      r1,[pc,#160] ; [0x1f29c] = 0x40060104
        0x0001f1fc:    6860        `h      LDR      r0,[r4,#4]
        0x0001f1fe:    2300        .#      MOVS     r3,#0
        0x0001f200:    eb013100    ...1    ADD      r1,r1,r0,LSL #12
        0x0001f204:    463a        :F      MOV      r2,r7
        0x0001f206:    4630        0F      MOV      r0,r6
        0x0001f208:    f7fbfb92    ....    BL       am_hal_delay_us_status_check ; 0x1a930
        0x0001f20c:    0005        ..      MOVS     r5,r0
        0x0001f20e:    bf18        ..      IT       NE
        0x0001f210:    bdf8        ..      POPNE    {r3-r7,pc}
        0x0001f212:    2200        ."      MOVS     r2,#0
        0x0001f214:    6262        bb      STR      r2,[r4,#0x24]
        0x0001f216:    6861        ah      LDR      r1,[r4,#4]
        0x0001f218:    2040        @       MOVS     r0,#0x40
        0x0001f21a:    0309        ..      LSLS     r1,r1,#12
        0x0001f21c:    f1014180    ...A    ADD      r1,r1,#0x40000000
        0x0001f220:    f50121c0    ...!    ADD      r1,r1,#0x60000
        0x0001f224:    f8c10208    ....    STR      r0,[r1,#0x208]
        0x0001f228:    6860        `h      LDR      r0,[r4,#4]
        0x0001f22a:    0300        ..      LSLS     r0,r0,#12
        0x0001f22c:    f1004080    ...@    ADD      r0,r0,#0x40000000
        0x0001f230:    f50020c0    ...     ADD      r0,r0,#0x60000
        0x0001f234:    f8d01200    ....    LDR      r1,[r0,#0x200]
        0x0001f238:    f0410140    A.@.    ORR      r1,r1,#0x40
        0x0001f23c:    f8c01200    ....    STR      r1,[r0,#0x200]
        0x0001f240:    f884783c    ..<x    STRB     r7,[r4,#0x83c]
        0x0001f244:    f8d40850    ..P.    LDR      r0,[r4,#0x850]
        0x0001f248:    f8d43848    ..H8    LDR      r3,[r4,#0x848]
        0x0001f24c:    1c40        @.      ADDS     r0,r0,#1
        0x0001f24e:    fbb0fcf3    ....    UDIV     r12,r0,r3
        0x0001f252:    6861        ah      LDR      r1,[r4,#4]
        0x0001f254:    fb03001c    ....    MLS      r0,r3,r12,r0
        0x0001f258:    0309        ..      LSLS     r1,r1,#12
        0x0001f25a:    f1014180    ...A    ADD      r1,r1,#0x40000000
        0x0001f25e:    f8d43854    ..T8    LDR      r3,[r4,#0x854]
        0x0001f262:    f50121c0    ...!    ADD      r1,r1,#0x60000
        0x0001f266:    eb000040    ..@.    ADD      r0,r0,r0,LSL #1
        0x0001f26a:    eb0300c0    ....    ADD      r0,r3,r0,LSL #3
        0x0001f26e:    f8c12100    ...!    STR      r2,[r1,#0x100]
        0x0001f272:    6802        .h      LDR      r2,[r0,#0]
        0x0001f274:    f8c12108    ...!    STR      r2,[r1,#0x108]
        0x0001f278:    6842        Bh      LDR      r2,[r0,#4]
        0x0001f27a:    f8c1210c    ...!    STR      r2,[r1,#0x10c]
        0x0001f27e:    e000        ..      B        0x1f282 ; sched_hiprio + 290
        0x0001f280:    e005        ..      B        0x1f28e ; sched_hiprio + 302
        0x0001f282:    6882        .h      LDR      r2,[r0,#8]
        0x0001f284:    f8c12110    ...!    STR      r2,[r1,#0x110]
        0x0001f288:    68c0        .h      LDR      r0,[r0,#0xc]
        0x0001f28a:    f8c10100    ....    STR      r0,[r1,#0x100]
        0x0001f28e:    4628        (F      MOV      r0,r5
        0x0001f290:    bdf8        ..      POP      {r3-r7,pc}
        0x0001f292:    2004        .       MOVS     r0,#4
        0x0001f294:    bdf8        ..      POP      {r3-r7,pc}
    $d
        0x0001f296:    0000        ..      DCW    0
        0x0001f298:    000186a0    ....    DCD    100000
        0x0001f29c:    40060104    ...@    DCD    1074135300
    $t
    i.simple_strlen
    simple_strlen
        0x0001f2a0:    4601        .F      MOV      r1,r0
        0x0001f2a2:    2000        .       MOVS     r0,#0
        0x0001f2a4:    b901        ..      CBNZ     r1,0x1f2a8 ; simple_strlen + 8
        0x0001f2a6:    4770        pG      BX       lr
        0x0001f2a8:    e000        ..      B        0x1f2ac ; simple_strlen + 12
        0x0001f2aa:    1c40        @.      ADDS     r0,r0,#1
        0x0001f2ac:    f8113b01    ...;    LDRB     r3,[r1],#1
        0x0001f2b0:    2b00        .+      CMP      r3,#0
        0x0001f2b2:    d1fa        ..      BNE      0x1f2aa ; simple_strlen + 10
        0x0001f2b4:    bf00        ..      NOP      
        0x0001f2b6:    e7f6        ..      B        0x1f2a6 ; simple_strlen + 6
    i.uint64_to_hexstr
    uint64_to_hexstr
        0x0001f2b8:    e92d41f0    -..A    PUSH     {r4-r8,lr}
        0x0001f2bc:    b085        ..      SUB      sp,sp,#0x14
        0x0001f2be:    4604        .F      MOV      r4,r0
        0x0001f2c0:    460d        .F      MOV      r5,r1
        0x0001f2c2:    461e        .F      MOV      r6,r3
        0x0001f2c4:    2100        .!      MOVS     r1,#0
        0x0001f2c6:    468c        .F      MOV      r12,r1
        0x0001f2c8:    ea84070c    ....    EOR      r7,r4,r12
        0x0001f2cc:    ea850c0c    ....    EOR      r12,r5,r12
        0x0001f2d0:    ea57070c    W...    ORRS     r7,r7,r12
        0x0001f2d4:    d105        ..      BNE      0x1f2e2 ; uint64_to_hexstr + 42
        0x0001f2d6:    f04f0830    O.0.    MOV      r8,#0x30
        0x0001f2da:    460f        .F      MOV      r7,r1
        0x0001f2dc:    1c49        I.      ADDS     r1,r1,#1
        0x0001f2de:    f80d8007    ....    STRB     r8,[sp,r7]
        0x0001f2e2:    e016        ..      B        0x1f312 ; uint64_to_hexstr + 90
        0x0001f2e4:    270f        .'      MOVS     r7,#0xf
        0x0001f2e6:    4027        '@      ANDS     r7,r7,r4
        0x0001f2e8:    b2fb        ..      UXTB     r3,r7
        0x0001f2ea:    2b09        .+      CMP      r3,#9
        0x0001f2ec:    dd05        ..      BLE      0x1f2fa ; uint64_to_hexstr + 66
        0x0001f2ee:    b10e        ..      CBZ      r6,0x1f2f4 ; uint64_to_hexstr + 60
        0x0001f2f0:    2727        ''      MOVS     r7,#0x27
        0x0001f2f2:    e000        ..      B        0x1f2f6 ; uint64_to_hexstr + 62
        0x0001f2f4:    2707        .'      MOVS     r7,#7
        0x0001f2f6:    441f        .D      ADD      r7,r7,r3
        0x0001f2f8:    b2fb        ..      UXTB     r3,r7
        0x0001f2fa:    f1030730    ..0.    ADD      r7,r3,#0x30
        0x0001f2fe:    f00708ff    ....    AND      r8,r7,#0xff
        0x0001f302:    460f        .F      MOV      r7,r1
        0x0001f304:    1c49        I.      ADDS     r1,r1,#1
        0x0001f306:    f80d8007    ....    STRB     r8,[sp,r7]
        0x0001f30a:    0927        '.      LSRS     r7,r4,#4
        0x0001f30c:    ea477405    G..t    ORR      r4,r7,r5,LSL #28
        0x0001f310:    092d        -.      LSRS     r5,r5,#4
        0x0001f312:    f04f0c00    O...    MOV      r12,#0
        0x0001f316:    ea84070c    ....    EOR      r7,r4,r12
        0x0001f31a:    ea850c0c    ....    EOR      r12,r5,r12
        0x0001f31e:    ea57070c    W...    ORRS     r7,r7,r12
        0x0001f322:    d1df        ..      BNE      0x1f2e4 ; uint64_to_hexstr + 44
        0x0001f324:    4608        .F      MOV      r0,r1
        0x0001f326:    b14a        J.      CBZ      r2,0x1f33c ; uint64_to_hexstr + 132
        0x0001f328:    e003        ..      B        0x1f332 ; uint64_to_hexstr + 122
        0x0001f32a:    f81d7001    ...p    LDRB     r7,[sp,r1]
        0x0001f32e:    f8027b01    ...{    STRB     r7,[r2],#1
        0x0001f332:    1e0f        ..      SUBS     r7,r1,#0
        0x0001f334:    f1a10101    ....    SUB      r1,r1,#1
        0x0001f338:    d1f7        ..      BNE      0x1f32a ; uint64_to_hexstr + 114
        0x0001f33a:    7017        .p      STRB     r7,[r2,#0]
        0x0001f33c:    b005        ..      ADD      sp,sp,#0x14
        0x0001f33e:    e8bd81f0    ....    POP      {r4-r8,pc}
    i.uint64_to_str
    uint64_to_str
        0x0001f342:    e92d4ff0    -..O    PUSH     {r4-r11,lr}
        0x0001f346:    b087        ..      SUB      sp,sp,#0x1c
        0x0001f348:    4607        .F      MOV      r7,r0
        0x0001f34a:    4688        .F      MOV      r8,r1
        0x0001f34c:    4616        .F      MOV      r6,r2
        0x0001f34e:    f04f0900    O...    MOV      r9,#0
        0x0001f352:    46cb        .F      MOV      r11,r9
        0x0001f354:    bf00        ..      NOP      
        0x0001f356:    4638        8F      MOV      r0,r7
        0x0001f358:    4641        AF      MOV      r1,r8
        0x0001f35a:    f7feff20    .. .    BL       divu64_10 ; 0x1e19e
        0x0001f35e:    4604        .F      MOV      r4,r0
        0x0001f360:    460d        .F      MOV      r5,r1
        0x0001f362:    210a        .!      MOVS     r1,#0xa
        0x0001f364:    fba40101    ....    UMULL    r0,r1,r4,r1
        0x0001f368:    ebb70a00    ....    SUBS     r10,r7,r0
        0x0001f36c:    f10a0030    ..0.    ADD      r0,r10,#0x30
        0x0001f370:    b2c2        ..      UXTB     r2,r0
        0x0001f372:    4648        HF      MOV      r0,r9
        0x0001f374:    f1090901    ....    ADD      r9,r9,#1
        0x0001f378:    f80d2000    ...     STRB     r2,[sp,r0]
        0x0001f37c:    4627        'F      MOV      r7,r4
        0x0001f37e:    46a8        .F      MOV      r8,r5
        0x0001f380:    f04f0200    O...    MOV      r2,#0
        0x0001f384:    ea870002    ....    EOR      r0,r7,r2
        0x0001f388:    ea880102    ....    EOR      r1,r8,r2
        0x0001f38c:    4308        .C      ORRS     r0,r0,r1
        0x0001f38e:    d1e2        ..      BNE      0x1f356 ; uint64_to_str + 20
        0x0001f390:    46cb        .F      MOV      r11,r9
        0x0001f392:    b156        V.      CBZ      r6,0x1f3aa ; uint64_to_str + 104
        0x0001f394:    e003        ..      B        0x1f39e ; uint64_to_str + 92
        0x0001f396:    f81d0009    ....    LDRB     r0,[sp,r9]
        0x0001f39a:    f8060b01    ....    STRB     r0,[r6],#1
        0x0001f39e:    f1b90000    ....    SUBS     r0,r9,#0
        0x0001f3a2:    f1a90901    ....    SUB      r9,r9,#1
        0x0001f3a6:    d1f6        ..      BNE      0x1f396 ; uint64_to_str + 84
        0x0001f3a8:    7030        0p      STRB     r0,[r6,#0]
        0x0001f3aa:    4658        XF      MOV      r0,r11
        0x0001f3ac:    b007        ..      ADD      sp,sp,#0x1c
        0x0001f3ae:    e8bd8ff0    ....    POP      {r4-r11,pc}
        0x0001f3b2:    0000        ..      MOVS     r0,r0
    x$fpl$d2f
    $v0
    __aeabi_d2f
    _d2f
        0x0001f3b4:    f0214200    !..B    BIC      r2,r1,#0x80000000
        0x0001f3b8:    f1a25260    ..`R    SUB      r2,r2,#0x38000000
        0x0001f3bc:    f5b21f80    ....    CMP      r2,#0x100000
        0x0001f3c0:    f0014300    ...C    AND      r3,r1,#0x80000000
        0x0001f3c4:    bf28        (.      IT       CS
        0x0001f3c6:    f1d26c7f    ...l    RSBSCS   r12,r2,#0xff00000
        0x0001f3ca:    d90b        ..      BLS      0x1f3e4 ; __aeabi_d2f + 48
        0x0001f3cc:    ea5f1c00    _...    LSLS     r12,r0,#4
        0x0001f3d0:    ea4302c2    C...    ORR      r2,r3,r2,LSL #3
        0x0001f3d4:    eb427050    B.Pp    ADC      r0,r2,r0,LSR #29
        0x0001f3d8:    bf18        ..      IT       NE
        0x0001f3da:    4770        pG      BXNE     lr
        0x0001f3dc:    bf28        (.      IT       CS
        0x0001f3de:    f0200001     ...    BICCS    r0,r0,#1
        0x0001f3e2:    4770        pG      BX       lr
        0x0001f3e4:    f5b21f80    ....    CMP      r2,#0x100000
        0x0001f3e8:    bfbc        ..      ITT      LT
        0x0001f3ea:    4618        .F      MOVLT    r0,r3
        0x0001f3ec:    4770        pG      BXLT     lr
        0x0001f3ee:    ea4f0c41    O.A.    LSL      r12,r1,#1
        0x0001f3f2:    f51c1f00    ....    CMN      r12,#0x200000
        0x0001f3f6:    d202        ..      BCS      0x1f3fe ; __aeabi_d2f + 74
        0x0001f3f8:    4608        .F      MOV      r0,r1
        0x0001f3fa:    f000b85f    .._.    B.W      __fpl_fretinf ; 0x1f4bc
        0x0001f3fe:    b570        p.      PUSH     {r4-r6,lr}
        0x0001f400:    f000f809    ....    BL       __fpl_dnaninf ; 0x1f416
    $d
        0x0001f404:    89000000    ....    DCD    2298478592
    $t
        0x0001f408:    f7ffbff6    ....    B.W      0x1f3f8 ; __aeabi_d2f + 68
        0x0001f40c:    f04f4000    O..@    MOV      r0,#0x80000000
        0x0001f410:    f5a00080    ....    SUB      r0,r0,#0x400000
        0x0001f414:    4770        pG      BX       lr
    x$fpl$dnaninf
    $v0
    __fpl_dnaninf
        0x0001f416:    f10e0e02    ....    ADD      lr,lr,#2
        0x0001f41a:    f02e0e03    ....    BIC      lr,lr,#3
        0x0001f41e:    f85e6b04    ^..k    LDR      r6,[lr],#4
        0x0001f422:    4236        6B      TST      r6,r6
        0x0001f424:    d405        ..      BMI      0x1f432 ; __fpl_dnaninf + 28
        0x0001f426:    2a01        .*      CMP      r2,#1
        0x0001f428:    eb430503    C...    ADC      r5,r3,r3
        0x0001f42c:    f5151f00    ....    CMN      r5,#0x200000
        0x0001f430:    d812        ..      BHI      0x1f458 ; __fpl_dnaninf + 66
        0x0001f432:    2801        .(      CMP      r0,#1
        0x0001f434:    eb410c01    A...    ADC      r12,r1,r1
        0x0001f438:    f51c1f00    ....    CMN      r12,#0x200000
        0x0001f43c:    d80c        ..      BHI      0x1f458 ; __fpl_dnaninf + 66
        0x0001f43e:    d10e        ..      BNE      0x1f45e ; __fpl_dnaninf + 72
        0x0001f440:    ea4f7cd1    O..|    LSR      r12,r1,#31
        0x0001f444:    f5151f00    ....    CMN      r5,#0x200000
        0x0001f448:    eb0c0c4c    ..L.    ADD      r12,r12,r12,LSL #1
        0x0001f44c:    f10c0c02    ....    ADD      r12,r12,#2
        0x0001f450:    bf08        ..      IT       EQ
        0x0001f452:    eb4c7cd3    L..|    ADCEQ    r12,r12,r3,LSR #31
        0x0001f456:    e004        ..      B        0x1f462 ; __fpl_dnaninf + 76
        0x0001f458:    f04f0c08    O...    MOV      r12,#8
        0x0001f45c:    e001        ..      B        0x1f462 ; __fpl_dnaninf + 76
        0x0001f45e:    ea4f7cd3    O..|    LSR      r12,r3,#31
        0x0001f462:    eb0c054c    ..L.    ADD      r5,r12,r12,LSL #1
        0x0001f466:    fa26f605    &...    LSR      r6,r6,r5
        0x0001f46a:    f0060607    ....    AND      r6,r6,#7
        0x0001f46e:    f1b60c04    ....    SUBS     r12,r6,#4
        0x0001f472:    d206        ..      BCS      0x1f482 ; __fpl_dnaninf + 108
        0x0001f474:    eb0e0c86    ....    ADD      r12,lr,r6,LSL #2
        0x0001f478:    e8bd4070    ..p@    POP      {r4-r6,lr}
        0x0001f47c:    f04c0c01    L...    ORR      r12,r12,#1
        0x0001f480:    4760        `G      BX       r12
        0x0001f482:    e8dff00c    ....    TBB      [pc,r12]
    $d
        0x0001f486:    0b09        ..      DCW    2825
        0x0001f488:    0202        ..      DCW    514
    $t
        0x0001f48a:    f04f4100    O..A    MOV      r1,#0x80000000
        0x0001f48e:    f04f0000    O...    MOV      r0,#0
        0x0001f492:    f5a12100    ...!    SUB      r1,r1,#0x80000
        0x0001f496:    bd70        p.      POP      {r4-r6,pc}
        0x0001f498:    4619        .F      MOV      r1,r3
        0x0001f49a:    4610        .F      MOV      r0,r2
        0x0001f49c:    2801        .(      CMP      r0,#1
        0x0001f49e:    eb510401    Q...    ADCS     r4,r1,r1
        0x0001f4a2:    bf18        ..      IT       NE
        0x0001f4a4:    f5d41400    ....    RSBSNE   r4,r4,#0x200000
        0x0001f4a8:    bf84        ..      ITT      HI
        0x0001f4aa:    2000        .       MOVHI    r0,#0
        0x0001f4ac:    f0014100    ...A    ANDHI    r1,r1,#0x80000000
        0x0001f4b0:    bd70        p.      POP      {r4-r6,pc}
    x$fpl$fpinit
    $v0
    _fp_init
        0x0001f4b2:    f04f7040    O.@p    MOV      r0,#0x3000000
        0x0001f4b6:    eee10a10    ....    VMSR     FPSCR,r0
    __fplib_config_fpu_vfp
    __fplib_config_pureend_doubles
        0x0001f4ba:    4770        pG      BX       lr
    x$fpl$fretinf
    $v0
    __fpl_fretinf
        0x0001f4bc:    21ff        .!      MOVS     r1,#0xff
        0x0001f4be:    ea4150d0    A..P    ORR      r0,r1,r0,LSR #23
        0x0001f4c2:    05c0        ..      LSLS     r0,r0,#23
        0x0001f4c4:    4770        pG      BX       lr
    x$fpl$usenofp
    __I$use$fp
        0x0001f4c6:    0000        ..      MOVS     r0,r0
    $d.realdata
    .constdata
    ui32I2sWordLength
        0x0001f4c8:    00000008    ....    DCD    8
        0x0001f4cc:    00000000    ....    DCD    0
        0x0001f4d0:    00000010    ....    DCD    16
        0x0001f4d4:    00000000    ....    DCD    0
        0x0001f4d8:    00000018    ....    DCD    24
        0x0001f4dc:    00000020     ...    DCD    32
    __tagsym$$used
    ui32MCUAllowed
        0x0001f4e0:    00000000    ....    DCD    0
        0x0001f4e4:    00000000    ....    DCD    0
        0x0001f4e8:    00000000    ....    DCD    0
        0x0001f4ec:    00000000    ....    DCD    0
        0x0001f4f0:    00000000    ....    DCD    0
    __tagsym$$used
    ui32DSP0Allowed
        0x0001f4f4:    00000000    ....    DCD    0
        0x0001f4f8:    00000000    ....    DCD    0
        0x0001f4fc:    00000000    ....    DCD    0
        0x0001f500:    00000000    ....    DCD    0
        0x0001f504:    00000000    ....    DCD    0
    __tagsym$$used
    ui32DSP1Allowed
        0x0001f508:    00000000    ....    DCD    0
        0x0001f50c:    00000000    ....    DCD    0
        0x0001f510:    00000000    ....    DCD    0
        0x0001f514:    00000000    ....    DCD    0
        0x0001f518:    00000000    ....    DCD    0
    __tagsym$$used
    ui32SharedAccess
        0x0001f51c:    00000000    ....    DCD    0
        0x0001f520:    00000000    ....    DCD    0
        0x0001f524:    00000000    ....    DCD    0
        0x0001f528:    00000000    ....    DCD    0
        0x0001f52c:    00000000    ....    DCD    0
    __tagsym$$used
    sGlobalAccess
        0x0001f530:    0001f51c    ....    DCD    128284
        0x0001f534:    0001f4e0    ....    DCD    128224
        0x0001f538:    0001f4f4    ....    DCD    128244
        0x0001f53c:    0001f508    ....    DCD    128264
        0x0001f540:    10060004    ....    DCD    268828676
        0x0001f544:    10060018    ....    DCD    268828696
        0x0001f548:    1006002c    ,...    DCD    268828716
    .constdata
    ui32I2sWordLength
        0x0001f54c:    00000008    ....    DCD    8
        0x0001f550:    00000000    ....    DCD    0
        0x0001f554:    00000010    ....    DCD    16
        0x0001f558:    00000000    ....    DCD    0
        0x0001f55c:    00000018    ....    DCD    24
        0x0001f560:    00000020     ...    DCD    32
    mspi_interrupts
        0x0001f564:    00161514    ....    DCD    1447188
    MSPI_Serial_Flash_Config
        0x0001f568:    00000200    ....    DCD    512
        0x0001f56c:    10001270    p...    DCD    268440176
        0x0001f570:    00000200    ....    DCD    512
        0x0001f574:    00000000    ....    DCD    0
        0x0001f578:    00000000    ....    DCD    0
    MSPI_Quad_Flash_Config
        0x0001f57c:    00000210    ....    DCD    528
        0x0001f580:    10001270    p...    DCD    268440176
        0x0001f584:    00000200    ....    DCD    512
        0x0001f588:    00000000    ....    DCD    0
        0x0001f58c:    00000000    ....    DCD    0
    .constdata
    ui32I2sWordLength
        0x0001f590:    00000008    ....    DCD    8
        0x0001f594:    00000000    ....    DCD    0
        0x0001f598:    00000010    ....    DCD    16
        0x0001f59c:    00000000    ....    DCD    0
        0x0001f5a0:    00000018    ....    DCD    24
        0x0001f5a4:    00000020     ...    DCD    32
    g_DeviceNameApollo4p
        0x0001f5a8:    6c6f7041    Apol    DCD    1819242561
        0x0001f5ac:    20346f6c    lo4     DCD    540307308
        0x0001f5b0:    73756c50    Plus    DCD    1937075280
        0x0001f5b4:    00          .       DCB    0
    g_DeviceNameApollo4p_blue
        0x0001f5b5:    41706f      Apo     DCB    65,112,111
        0x0001f5b8:    346f6c6c    llo4    DCD    879717484
        0x0001f5bc:    756c4220     Blu    DCD    1970029088
        0x0001f5c0:    6c502065    e Pl    DCD    1817190501
        0x0001f5c4:    7375        us      DCW    29557
        0x0001f5c6:    00          .       DCB    0
    g_PackageType
        0x0001f5c7:    53          S       DCB    83
        0x0001f5c8:    53005049    IP.S    DCD    1392529481
        0x0001f5cc:    42325049    IP2B    DCD    1110593609
        0x0001f5d0:    43004147    GA.C    DCD    1124090183
        0x0001f5d4:    5053        SP      DCW    20563
        0x0001f5d6:    00          .       DCB    0
    g_TempRange
        0x0001f5d7:    43          C       DCB    67
        0x0001f5d8:    656d6d6f    omme    DCD    1701670255
        0x0001f5dc:    61696372    rcia    DCD    1634296690
        0x0001f5e0:    694d006c    l.Mi    DCD    1766654060
        0x0001f5e4:    6174696c    lita    DCD    1635019116
        0x0001f5e8:    00007972    ry..    DCD    31090
        0x0001f5ec:    74754100    .Aut    DCD    1953841408
        0x0001f5f0:    746f6d6f    omot    DCD    1953459567
        0x0001f5f4:    00657669    ive.    DCD    6649449
        0x0001f5f8:    75646e49    Indu    DCD    1969516105
        0x0001f5fc:    69727473    stri    DCD    1769108595
        0x0001f600:    6c61        al      DCW    27745
        0x0001f602:    00          .       DCB    0
    g_ui8VendorNameAmbq
        0x0001f603:    41          A       DCB    65
        0x0001f604:    0051424d    MBQ.    DCD    5325389
    g_ui8VendorNameUnknown
        0x0001f608:    3f3f3f3f    ????    DCD    1061109567
        0x0001f60c:    00          .       DCB    0
    g_ui8DeviceNameUnknown
        0x0001f60d:    556e6b      Unk     DCB    85,110,107
        0x0001f610:    6e776f6e    nown    DCD    1853321070
        0x0001f614:    76656420     dev    DCD    1986356256
        0x0001f618:    00656369    ice.    DCD    6644585
    .constdata
    ui32I2sWordLength
        0x0001f61c:    00000008    ....    DCD    8
        0x0001f620:    00000000    ....    DCD    0
        0x0001f624:    00000010    ....    DCD    16
        0x0001f628:    00000000    ....    DCD    0
        0x0001f62c:    00000018    ....    DCD    24
        0x0001f630:    00000020     ...    DCD    32
    mspi_interrupts
        0x0001f634:    1514        ..      DCW    5396
        0x0001f636:    16          .       DCB    22
    ds35x1ga_sConfigArray
        0x0001f637:    00          .       DCB    0
        0x0001f638:    01000100    ....    DCD    16777472
        0x0001f63c:    01000008    ....    DCD    16777224
        0x0001f640:    00080101    ....    DCD    524545
        0x0001f644:    01020100    ....    DCD    16908544
        0x0001f648:    01000008    ....    DCD    16777224
        0x0001f64c:    00080103    ....    DCD    524547
        0x0001f650:    01040100    ....    DCD    17039616
        0x0001f654:    01000008    ....    DCD    16777224
        0x0001f658:    00080105    ....    DCD    524549
        0x0001f65c:    01060100    ....    DCD    17170688
        0x0001f660:    01000008    ....    DCD    16777224
        0x0001f664:    00080107    ....    DCD    524551
        0x0001f668:    01080100    ....    DCD    17301760
        0x0001f66c:    01000008    ....    DCD    16777224
        0x0001f670:    00080109    ....    DCD    524553
        0x0001f674:    010a0100    ....    DCD    17432832
        0x0001f678:    01000008    ....    DCD    16777224
        0x0001f67c:    0008010b    ....    DCD    524555
        0x0001f680:    01000101    ....    DCD    16777473
        0x0001f684:    01010008    ....    DCD    16842760
        0x0001f688:    00080101    ....    DCD    524545
        0x0001f68c:    01020101    ....    DCD    16908545
        0x0001f690:    01010008    ....    DCD    16842760
        0x0001f694:    00080103    ....    DCD    524547
        0x0001f698:    01040101    ....    DCD    17039617
        0x0001f69c:    01010008    ....    DCD    16842760
        0x0001f6a0:    00080105    ....    DCD    524549
        0x0001f6a4:    01060101    ....    DCD    17170689
        0x0001f6a8:    01010008    ....    DCD    16842760
        0x0001f6ac:    00080107    ....    DCD    524551
        0x0001f6b0:    01080101    ....    DCD    17301761
        0x0001f6b4:    01010008    ....    DCD    16842760
        0x0001f6b8:    00080109    ....    DCD    524553
        0x0001f6bc:    010a0101    ....    DCD    17432833
        0x0001f6c0:    01010008    ....    DCD    16842760
        0x0001f6c4:    0108010b    ....    DCD    17301771
        0x0001f6c8:    01000000    ....    DCD    16777216
        0x0001f6cc:    00000108    ....    DCD    264
        0x0001f6d0:    01080101    ....    DCD    17301761
        0x0001f6d4:    01020000    ....    DCD    16908288
        0x0001f6d8:    00000108    ....    DCD    264
        0x0001f6dc:    01080103    ....    DCD    17301763
        0x0001f6e0:    01040000    ....    DCD    17039360
        0x0001f6e4:    00000108    ....    DCD    264
        0x0001f6e8:    01080105    ....    DCD    17301765
        0x0001f6ec:    01060000    ....    DCD    17170432
        0x0001f6f0:    01000108    ....    DCD    16777480
        0x0001f6f4:    01080100    ....    DCD    17301760
        0x0001f6f8:    01010100    ....    DCD    16843008
        0x0001f6fc:    01000108    ....    DCD    16777480
        0x0001f700:    01080102    ....    DCD    17301762
        0x0001f704:    01030100    ....    DCD    16974080
        0x0001f708:    01000108    ....    DCD    16777480
        0x0001f70c:    01080104    ....    DCD    17301764
        0x0001f710:    01050100    ....    DCD    17105152
        0x0001f714:    01000108    ....    DCD    16777480
        0x0001f718:    01080106    ....    DCD    17301766
        0x0001f71c:    01000001    ....    DCD    16777217
        0x0001f720:    00010108    ....    DCD    65800
        0x0001f724:    01080101    ....    DCD    17301761
        0x0001f728:    01020001    ....    DCD    16908289
        0x0001f72c:    00010108    ....    DCD    65800
        0x0001f730:    01080103    ....    DCD    17301763
        0x0001f734:    01040001    ....    DCD    17039361
        0x0001f738:    00010108    ....    DCD    65800
        0x0001f73c:    01080105    ....    DCD    17301765
        0x0001f740:    01060001    ....    DCD    17170433
        0x0001f744:    00010108    ....    DCD    65800
        0x0001f748:    01080107    ....    DCD    17301767
        0x0001f74c:    01080001    ....    DCD    17301505
        0x0001f750:    00010108    ....    DCD    65800
        0x0001f754:    01080109    ....    DCD    17301769
        0x0001f758:    010a0001    ....    DCD    17432577
        0x0001f75c:    01010108    ....    DCD    16843016
        0x0001f760:    01080100    ....    DCD    17301760
        0x0001f764:    01010101    ....    DCD    16843009
        0x0001f768:    01010108    ....    DCD    16843016
        0x0001f76c:    01080102    ....    DCD    17301762
        0x0001f770:    01030101    ....    DCD    16974081
        0x0001f774:    01010108    ....    DCD    16843016
        0x0001f778:    01080104    ....    DCD    17301764
        0x0001f77c:    01050101    ....    DCD    17105153
        0x0001f780:    01010108    ....    DCD    16843016
        0x0001f784:    01080106    ....    DCD    17301766
        0x0001f788:    01070101    ....    DCD    17236225
        0x0001f78c:    01010108    ....    DCD    16843016
        0x0001f790:    01080108    ....    DCD    17301768
        0x0001f794:    01090101    ....    DCD    17367297
        0x0001f798:    01010108    ....    DCD    16843016
        0x0001f79c:    0108010a    ....    DCD    17301770
        0x0001f7a0:    01040101    ....    DCD    17039617
        0x0001f7a4:    01010109    ....    DCD    16843017
        0x0001f7a8:    01090105    ....    DCD    17367301
        0x0001f7ac:    01060101    ....    DCD    17170689
        0x0001f7b0:    01010109    ....    DCD    16843017
        0x0001f7b4:    01090107    ....    DCD    17367303
        0x0001f7b8:    01080101    ....    DCD    17301761
        0x0001f7bc:    01010109    ....    DCD    16843017
        0x0001f7c0:    01090109    ....    DCD    17367305
        0x0001f7c4:    010a0101    ....    DCD    17432833
        0x0001f7c8:    00000009    ....    DCD    9
        0x0001f7cc:    04000001    ....    DCD    67108865
        0x0001f7d0:    0810        ..      DCW    2064
    .constdata
    am_hal_cachectrl_defaults
        0x0001f7d2:    030e        ..      DCW    782
        0x0001f7d4:    00          .       DCB    0
    .constdata
    am_hal_daxi_defaults
        0x0001f7d5:    000102      ...     DCB    0,1,2
        0x0001f7d8:    010f        ..      DCW    271
    .constdata
    g_am_hal_mcuctrl_sku_mram_size
        0x0001f7da:    0200        ..      DCW    512
        0x0001f7dc:    06000400    ....    DCD    100664320
        0x0001f7e0:    0800        ..      DCW    2048
    g_am_hal_mcuctrl_sku_ssram_size
        0x0001f7e2:    0400        ..      DCW    1024
        0x0001f7e4:    08000180    ....    DCD    134218112
        0x0001f7e8:    04000180    ....    DCD    67109248
        0x0001f7ec:    08000180    ....    DCD    134218112
        0x0001f7f0:    00000180    ....    DCD    384
    .constdata
    g_am_hal_bootrom_helper
        0x0001f7f4:    0800004d    M...    DCD    134217805
        0x0001f7f8:    08000051    Q...    DCD    134217809
        0x0001f7fc:    08000055    U...    DCD    134217813
        0x0001f800:    08000059    Y...    DCD    134217817
        0x0001f804:    0800006d    m...    DCD    134217837
        0x0001f808:    08000075    u...    DCD    134217845
        0x0001f80c:    08000079    y...    DCD    134217849
        0x0001f810:    08000081    ....    DCD    134217857
        0x0001f814:    08000099    ....    DCD    134217881
        0x0001f818:    0800009d    ....    DCD    134217885
    .constdata
    gAmHalCmdQReg
        0x0001f81c:    40050228    (..@    DCD    1074070056
        0x0001f820:    4005022c    ,..@    DCD    1074070060
        0x0001f824:    40050240    @..@    DCD    1074070080
        0x0001f828:    40050244    D..@    DCD    1074070084
        0x0001f82c:    4005023c    <..@    DCD    1074070076
        0x0001f830:    00008000    ....    DCD    32768
        0x0001f834:    40050230    0..@    DCD    1074070064
        0x0001f838:    00000001    ....    DCD    1
        0x0001f83c:    00000004    ....    DCD    4
        0x0001f840:    00000002    ....    DCD    2
        0x0001f844:    40051228    (..@    DCD    1074074152
        0x0001f848:    4005122c    ,..@    DCD    1074074156
        0x0001f84c:    40051240    @..@    DCD    1074074176
        0x0001f850:    40051244    D..@    DCD    1074074180
        0x0001f854:    4005123c    <..@    DCD    1074074172
        0x0001f858:    00008000    ....    DCD    32768
        0x0001f85c:    40051230    0..@    DCD    1074074160
        0x0001f860:    00000001    ....    DCD    1
        0x0001f864:    00000004    ....    DCD    4
        0x0001f868:    00000002    ....    DCD    2
        0x0001f86c:    40052228    (".@    DCD    1074078248
        0x0001f870:    4005222c    ,".@    DCD    1074078252
        0x0001f874:    40052240    @".@    DCD    1074078272
        0x0001f878:    40052244    D".@    DCD    1074078276
        0x0001f87c:    4005223c    <".@    DCD    1074078268
        0x0001f880:    00008000    ....    DCD    32768
        0x0001f884:    40052230    0".@    DCD    1074078256
        0x0001f888:    00000001    ....    DCD    1
        0x0001f88c:    00000004    ....    DCD    4
        0x0001f890:    00000002    ....    DCD    2
        0x0001f894:    40053228    (2.@    DCD    1074082344
        0x0001f898:    4005322c    ,2.@    DCD    1074082348
        0x0001f89c:    40053240    @2.@    DCD    1074082368
        0x0001f8a0:    40053244    D2.@    DCD    1074082372
        0x0001f8a4:    4005323c    <2.@    DCD    1074082364
        0x0001f8a8:    00008000    ....    DCD    32768
        0x0001f8ac:    40053230    02.@    DCD    1074082352
        0x0001f8b0:    00000001    ....    DCD    1
        0x0001f8b4:    00000004    ....    DCD    4
        0x0001f8b8:    00000002    ....    DCD    2
        0x0001f8bc:    40054228    (B.@    DCD    1074086440
        0x0001f8c0:    4005422c    ,B.@    DCD    1074086444
        0x0001f8c4:    40054240    @B.@    DCD    1074086464
        0x0001f8c8:    40054244    DB.@    DCD    1074086468
        0x0001f8cc:    4005423c    <B.@    DCD    1074086460
        0x0001f8d0:    00008000    ....    DCD    32768
        0x0001f8d4:    40054230    0B.@    DCD    1074086448
        0x0001f8d8:    00000001    ....    DCD    1
        0x0001f8dc:    00000004    ....    DCD    4
        0x0001f8e0:    00000002    ....    DCD    2
        0x0001f8e4:    40055228    (R.@    DCD    1074090536
        0x0001f8e8:    4005522c    ,R.@    DCD    1074090540
        0x0001f8ec:    40055240    @R.@    DCD    1074090560
        0x0001f8f0:    40055244    DR.@    DCD    1074090564
        0x0001f8f4:    4005523c    <R.@    DCD    1074090556
        0x0001f8f8:    00008000    ....    DCD    32768
        0x0001f8fc:    40055230    0R.@    DCD    1074090544
        0x0001f900:    00000001    ....    DCD    1
        0x0001f904:    00000004    ....    DCD    4
        0x0001f908:    00000002    ....    DCD    2
        0x0001f90c:    40056228    (b.@    DCD    1074094632
        0x0001f910:    4005622c    ,b.@    DCD    1074094636
        0x0001f914:    40056240    @b.@    DCD    1074094656
        0x0001f918:    40056244    Db.@    DCD    1074094660
        0x0001f91c:    4005623c    <b.@    DCD    1074094652
        0x0001f920:    00008000    ....    DCD    32768
        0x0001f924:    40056230    0b.@    DCD    1074094640
        0x0001f928:    00000001    ....    DCD    1
        0x0001f92c:    00000004    ....    DCD    4
        0x0001f930:    00000002    ....    DCD    2
        0x0001f934:    40057228    (r.@    DCD    1074098728
        0x0001f938:    4005722c    ,r.@    DCD    1074098732
        0x0001f93c:    40057240    @r.@    DCD    1074098752
        0x0001f940:    40057244    Dr.@    DCD    1074098756
        0x0001f944:    4005723c    <r.@    DCD    1074098748
        0x0001f948:    00008000    ....    DCD    32768
        0x0001f94c:    40057230    0r.@    DCD    1074098736
        0x0001f950:    00000001    ....    DCD    1
        0x0001f954:    00000004    ....    DCD    4
        0x0001f958:    00000002    ....    DCD    2
        0x0001f95c:    400602a0    ...@    DCD    1074135712
        0x0001f960:    400602a8    ...@    DCD    1074135720
        0x0001f964:    400602c0    ...@    DCD    1074135744
        0x0001f968:    400602c4    ...@    DCD    1074135748
        0x0001f96c:    400602b8    ...@    DCD    1074135736
        0x0001f970:    00004000    .@..    DCD    16384
        0x0001f974:    400602ac    ...@    DCD    1074135724
        0x0001f978:    00000001    ....    DCD    1
        0x0001f97c:    00000004    ....    DCD    4
        0x0001f980:    00000008    ....    DCD    8
        0x0001f984:    400612a0    ...@    DCD    1074139808
        0x0001f988:    400612a8    ...@    DCD    1074139816
        0x0001f98c:    400612c0    ...@    DCD    1074139840
        0x0001f990:    400612c4    ...@    DCD    1074139844
        0x0001f994:    400612b8    ...@    DCD    1074139832
        0x0001f998:    00004000    .@..    DCD    16384
        0x0001f99c:    400612ac    ...@    DCD    1074139820
        0x0001f9a0:    00000001    ....    DCD    1
        0x0001f9a4:    00000004    ....    DCD    4
        0x0001f9a8:    00000008    ....    DCD    8
        0x0001f9ac:    400622a0    .".@    DCD    1074143904
        0x0001f9b0:    400622a8    .".@    DCD    1074143912
        0x0001f9b4:    400622c0    .".@    DCD    1074143936
        0x0001f9b8:    400622c4    .".@    DCD    1074143940
        0x0001f9bc:    400622b8    .".@    DCD    1074143928
        0x0001f9c0:    00004000    .@..    DCD    16384
        0x0001f9c4:    400622ac    .".@    DCD    1074143916
        0x0001f9c8:    00000001    ....    DCD    1
        0x0001f9cc:    00000004    ....    DCD    4
        0x0001f9d0:    00000008    ....    DCD    8
    .constdata
    g_ui32DSpintbl
        0x0001f9d4:    8fc007e0    ....    DCD    2411726816
        0x0001f9d8:    e3fbffff    ....    DCD    3824943103
        0x0001f9dc:    01ffffff    ....    DCD    33554431
        0x0001f9e0:    00000000    ....    DCD    0
    .constdata
    g_DefaultMcuMemCfg
        0x0001f9e4:    07070102    ....    DCD    117899522
        0x0001f9e8:    0001        ..      DCW    1
    g_DefaultSRAMCfg
        0x0001f9ea:    0003        ..      DCW    3
        0x0001f9ec:    03000000    ....    DCD    50331648
    am_hal_pwrctrl_peripheral_control
        0x0001f9f0:    40021004    ...@    DCD    1073876996
        0x0001f9f4:    00000001    ....    DCD    1
        0x0001f9f8:    40021008    ...@    DCD    1073877000
        0x0001f9fc:    00000001    ....    DCD    1
        0x0001fa00:    40021004    ...@    DCD    1073876996
        0x0001fa04:    00000002    ....    DCD    2
        0x0001fa08:    40021008    ...@    DCD    1073877000
        0x0001fa0c:    0000001e    ....    DCD    30
        0x0001fa10:    40021004    ...@    DCD    1073876996
        0x0001fa14:    00000004    ....    DCD    4
        0x0001fa18:    40021008    ...@    DCD    1073877000
        0x0001fa1c:    0000001e    ....    DCD    30
        0x0001fa20:    40021004    ...@    DCD    1073876996
        0x0001fa24:    00000008    ....    DCD    8
        0x0001fa28:    40021008    ...@    DCD    1073877000
        0x0001fa2c:    0000001e    ....    DCD    30
        0x0001fa30:    40021004    ...@    DCD    1073876996
        0x0001fa34:    00000010    ....    DCD    16
        0x0001fa38:    40021008    ...@    DCD    1073877000
        0x0001fa3c:    0000001e    ....    DCD    30
        0x0001fa40:    40021004    ...@    DCD    1073876996
        0x0001fa44:    00000020     ...    DCD    32
        0x0001fa48:    40021008    ...@    DCD    1073877000
        0x0001fa4c:    000001e0    ....    DCD    480
        0x0001fa50:    40021004    ...@    DCD    1073876996
        0x0001fa54:    00000040    @...    DCD    64
        0x0001fa58:    40021008    ...@    DCD    1073877000
        0x0001fa5c:    000001e0    ....    DCD    480
        0x0001fa60:    40021004    ...@    DCD    1073876996
        0x0001fa64:    00000080    ....    DCD    128
        0x0001fa68:    40021008    ...@    DCD    1073877000
        0x0001fa6c:    000001e0    ....    DCD    480
        0x0001fa70:    40021004    ...@    DCD    1073876996
        0x0001fa74:    00000100    ....    DCD    256
        0x0001fa78:    40021008    ...@    DCD    1073877000
        0x0001fa7c:    000001e0    ....    DCD    480
        0x0001fa80:    40021004    ...@    DCD    1073876996
        0x0001fa84:    00000200    ....    DCD    512
        0x0001fa88:    40021008    ...@    DCD    1073877000
        0x0001fa8c:    00001e00    ....    DCD    7680
        0x0001fa90:    40021004    ...@    DCD    1073876996
        0x0001fa94:    00000400    ....    DCD    1024
        0x0001fa98:    40021008    ...@    DCD    1073877000
        0x0001fa9c:    00001e00    ....    DCD    7680
        0x0001faa0:    40021004    ...@    DCD    1073876996
        0x0001faa4:    00000800    ....    DCD    2048
        0x0001faa8:    40021008    ...@    DCD    1073877000
        0x0001faac:    00001e00    ....    DCD    7680
        0x0001fab0:    40021004    ...@    DCD    1073876996
        0x0001fab4:    00001000    ....    DCD    4096
        0x0001fab8:    40021008    ...@    DCD    1073877000
        0x0001fabc:    00001e00    ....    DCD    7680
        0x0001fac0:    40021004    ...@    DCD    1073876996
        0x0001fac4:    00002000    . ..    DCD    8192
        0x0001fac8:    40021008    ...@    DCD    1073877000
        0x0001facc:    00002000    . ..    DCD    8192
        0x0001fad0:    40021004    ...@    DCD    1073876996
        0x0001fad4:    00004000    .@..    DCD    16384
        0x0001fad8:    40021008    ...@    DCD    1073877000
        0x0001fadc:    0001c000    ....    DCD    114688
        0x0001fae0:    40021004    ...@    DCD    1073876996
        0x0001fae4:    00008000    ....    DCD    32768
        0x0001fae8:    40021008    ...@    DCD    1073877000
        0x0001faec:    0001c000    ....    DCD    114688
        0x0001faf0:    40021004    ...@    DCD    1073876996
        0x0001faf4:    00010000    ....    DCD    65536
        0x0001faf8:    40021008    ...@    DCD    1073877000
        0x0001fafc:    0001c000    ....    DCD    114688
        0x0001fb00:    40021004    ...@    DCD    1073876996
        0x0001fb04:    00020000    ....    DCD    131072
        0x0001fb08:    40021008    ...@    DCD    1073877000
        0x0001fb0c:    00020000    ....    DCD    131072
        0x0001fb10:    40021004    ...@    DCD    1073876996
        0x0001fb14:    00040000    ....    DCD    262144
        0x0001fb18:    40021008    ...@    DCD    1073877000
        0x0001fb1c:    00040000    ....    DCD    262144
        0x0001fb20:    40021004    ...@    DCD    1073876996
        0x0001fb24:    00080000    ....    DCD    524288
        0x0001fb28:    40021008    ...@    DCD    1073877000
        0x0001fb2c:    00080000    ....    DCD    524288
        0x0001fb30:    40021004    ...@    DCD    1073876996
        0x0001fb34:    00100000    ....    DCD    1048576
        0x0001fb38:    40021008    ...@    DCD    1073877000
        0x0001fb3c:    00100000    ....    DCD    1048576
        0x0001fb40:    40021004    ...@    DCD    1073876996
        0x0001fb44:    00200000    .. .    DCD    2097152
        0x0001fb48:    40021008    ...@    DCD    1073877000
        0x0001fb4c:    00200000    .. .    DCD    2097152
        0x0001fb50:    40021004    ...@    DCD    1073876996
        0x0001fb54:    00400000    ..@.    DCD    4194304
        0x0001fb58:    40021008    ...@    DCD    1073877000
        0x0001fb5c:    00400000    ..@.    DCD    4194304
        0x0001fb60:    40021004    ...@    DCD    1073876996
        0x0001fb64:    00800000    ....    DCD    8388608
        0x0001fb68:    40021008    ...@    DCD    1073877000
        0x0001fb6c:    00800000    ....    DCD    8388608
        0x0001fb70:    40021004    ...@    DCD    1073876996
        0x0001fb74:    01000000    ....    DCD    16777216
        0x0001fb78:    40021008    ...@    DCD    1073877000
        0x0001fb7c:    01000000    ....    DCD    16777216
        0x0001fb80:    4002100c    ...@    DCD    1073877004
        0x0001fb84:    00000001    ....    DCD    1
        0x0001fb88:    40021010    ...@    DCD    1073877008
        0x0001fb8c:    000000ff    ....    DCD    255
        0x0001fb90:    4002100c    ...@    DCD    1073877004
        0x0001fb94:    00000002    ....    DCD    2
        0x0001fb98:    40021010    ...@    DCD    1073877008
        0x0001fb9c:    000000ff    ....    DCD    255
        0x0001fba0:    4002100c    ...@    DCD    1073877004
        0x0001fba4:    00000004    ....    DCD    4
        0x0001fba8:    40021010    ...@    DCD    1073877008
        0x0001fbac:    000000ff    ....    DCD    255
        0x0001fbb0:    4002100c    ...@    DCD    1073877004
        0x0001fbb4:    00000008    ....    DCD    8
        0x0001fbb8:    40021010    ...@    DCD    1073877008
        0x0001fbbc:    000000ff    ....    DCD    255
        0x0001fbc0:    4002100c    ...@    DCD    1073877004
        0x0001fbc4:    00000010    ....    DCD    16
        0x0001fbc8:    40021010    ...@    DCD    1073877008
        0x0001fbcc:    000000ff    ....    DCD    255
        0x0001fbd0:    4002100c    ...@    DCD    1073877004
        0x0001fbd4:    00000020     ...    DCD    32
        0x0001fbd8:    40021010    ...@    DCD    1073877008
        0x0001fbdc:    000000ff    ....    DCD    255
        0x0001fbe0:    4002100c    ...@    DCD    1073877004
        0x0001fbe4:    00000040    @...    DCD    64
        0x0001fbe8:    40021010    ...@    DCD    1073877008
        0x0001fbec:    000000ff    ....    DCD    255
        0x0001fbf0:    4002100c    ...@    DCD    1073877004
        0x0001fbf4:    00000080    ....    DCD    128
        0x0001fbf8:    40021010    ...@    DCD    1073877008
        0x0001fbfc:    000000ff    ....    DCD    255
        0x0001fc00:    4002100c    ...@    DCD    1073877004
        0x0001fc04:    00000400    ....    DCD    1024
        0x0001fc08:    40021010    ...@    DCD    1073877008
        0x0001fc0c:    00000400    ....    DCD    1024
    g_VDDC_trimstbl
        0x0001fc10:    3c003cec    .<.<    DCD    1006648556
        0x0001fc14:    7f7ff05a    Z...    DCD    2139091034
        0x0001fc18:    00          .       DCB    0
    g_VDDF_trimstbl
        0x0001fc19:    ecf500      ...     DCB    236,245,0
        0x0001fc1c:    fefffef5    ....    DCD    4278189813
        0x0001fc20:    1108fe08    ....    DCD    285801992
        0x0001fc24:    fc1a11fd    ....    DCD    4229566973
        0x0001fc28:    23fb231a    .#.#    DCD    603661082
        0x0001fc2c:    352cfa2c    ,.,5    DCD    892140076
        0x0001fc30:    f83c35f9    .5<.    DCD    4164695545
        0x0001fc34:    7ff75a3c    <Z..    DCD    2146916924
        0x0001fc38:    007f        ..      DCW    127
    g_VDDFLP_trimstbl
        0x0001fc3a:    f5ec        ..      DCW    62956
        0x0001fc3c:    fffef500    ....    DCD    4294898944
        0x0001fc40:    08fe08fe    ....    DCD    150866174
        0x0001fc44:    1a11fd11    ....    DCD    437386513
        0x0001fc48:    fb231afc    ..#.    DCD    4213381884
        0x0001fc4c:    2cfa2c23    #,.,    DCD    754592803
        0x0001fc50:    3c35f935    5.5<    DCD    1010170165
        0x0001fc54:    f75a3cf8    .<Z.    DCD    4149886200
        0x0001fc58:    7f7f        ..      DCW    32639
        0x0001fc5a:    00          .       DCB    0
    g_memlpldo_trimstbl
        0x0001fc5b:    ee          .       DCB    238
        0x0001fc5c:    f6f208f2    ....    DCD    4143057138
        0x0001fc60:    06faf607    ....    DCD    117110279
        0x0001fc64:    fe05fefa    ....    DCD    4261805818
        0x0001fc68:    06020402    ....    DCD    100795394
        0x0001fc6c:    020a0603    ....    DCD    34211331
        0x0001fc70:    0e010e0a    ....    DCD    234950154
        0x0001fc74:    16120012    ....    DCD    370278418
        0x0001fc78:    fe1a16ff    ....    DCD    4263122687
        0x0001fc7c:    2afd2a1a    .*.*    DCD    721234458
        0x0001fc80:    5a3cfc3c    <.<Z    DCD    1513946172
        0x0001fc84:    007f7ffb    ....    DCD    8355835
    .conststring
        0x0001fc88:    49524553    SERI    DCD    1230128467
        0x0001fc8c:    31204c41    AL 1    DCD    824200257
        0x0001fc90:    312d312d    -1-1    DCD    825045293
        0x0001fc94:    00000000    ....    DCD    0
        0x0001fc98:    44415551    QUAD    DCD    1145132369
        0x0001fc9c:    312d3120     1-1    DCD    825045280
        0x0001fca0:    0000342d    -4..    DCD    13357
    .conststring
        0x0001fca4:    20202020            DCD    538976288
        0x0001fca8:    61766e49    Inva    DCD    1635151433
        0x0001fcac:    2064696c    lid     DCD    543451500
        0x0001fcb0:    77205053    SP w    DCD    1998606419
        0x0001fcb4:    206e6568    hen     DCD    544105832
        0x0001fcb8:    64726148    Hard    DCD    1685217608
        0x0001fcbc:    75614620     Fau    DCD    1969309216
        0x0001fcc0:    6f20746c    lt o    DCD    1864397932
        0x0001fcc4:    72756363    ccur    DCD    1920295779
        0x0001fcc8:    203a6465    ed:     DCD    540697701
        0x0001fccc:    30257830    0x%0    DCD    807761968
        0x0001fcd0:    28205838    8X (    DCD    673208376
        0x0001fcd4:    53206f6e    no S    DCD    1394634606
        0x0001fcd8:    6b636174    tack    DCD    1801675124
        0x0001fcdc:    64206465    ed d    DCD    1679844453
        0x0001fce0:    29617461    ata)    DCD    694252641
        0x0001fce4:    00000a0a    ....    DCD    2570
    Region$$Table$$Base
        0x0001fce8:    0001fd18    ....    DCD    130328
        0x0001fcec:    10000000    ....    DCD    268435456
        0x0001fcf0:    000001f0    ....    DCD    496
        0x0001fcf4:    00018270    p...    DCD    98928
        0x0001fcf8:    0001fdb8    ....    DCD    130488
        0x0001fcfc:    10060000    ....    DCD    268828672
        0x0001fd00:    00000880    ....    DCD    2176
        0x0001fd04:    00018270    p...    DCD    98928
        0x0001fd08:    0001fdb8    ....    DCD    130488
        0x0001fd0c:    100001f0    ....    DCD    268435952
        0x0001fd10:    00005bd8    .[..    DCD    23512
        0x0001fd14:    000182e8    ....    DCD    99048
    Region$$Table$$Limit

** Section #2 'MCU_TCM' (SHT_PROGBITS) [SHF_ALLOC + SHF_WRITE]
    Size   : 160 bytes (alignment 8)
    Address: 0x10000000

    Data section was compressed (Original size: 496 bytes)

    0x10000000:   00 00 00 00 00 00 00 00 88 fc 01 00 98 fc 01 00    ................
    0x10000010:   68 f5 01 00 7c f5 01 00 00 00 00 00 00 00 00 00    h...|...........
    0x10000020:   00 00 00 00 00 00 00 00 08 01 00 00 03 00 02 00    ................
    0x10000030:   00 00 00 18 00 01 01 01 00 00 00 00 00 00 08 01    ................
    0x10000040:   00 00 03 00 02 00 01 00 00 18 00 01 01 01 00 00    ................
    0x10000050:   00 00 00 00 08 01 00 00 6b 00 32 00 10 00 00 18    ........k.2.....
    0x10000060:   00 01 01 01 00 00 00 00 00 00 08 01 00 00 6b 00    ..............k.
    0x10000070:   32 00 11 00 00 18 00 01 01 01 00 00 00 00 00 00    2...............
    0x10000080:   00 00 00 00 28 00 00 10 01 00 00 00 3e 00 00 10    ....(.......>...
    0x10000090:   10 00 00 00 54 00 00 10 11 00 00 00 6a 00 00 10    ....T.......j...
    0x100000a0:   01 00 00 04 10 08 00 00 00 00 00 00 00 01 00 00    ................
    0x100000b0:   04 10 08 00 01 02 0f 01 00 00 00 00 00 00 00 00    ................
    0x100000c0:   01 00 0e 00 00 00 c6 01 c6 01 0a 10 01 00 02 00    ................
    0x100000d0:   21 00 00 00 00 00 00 00 00 00 00 00 08 1e 0c 40    !..............@
    0x100000e0:   18 1e 0c 40 00 00 00 00 6d db 02 40 d1 02 00 00    ...@....m..@....
    0x100000f0:   92 24 01 80 20 01 00 00 01 00 00 00 00 00 00 00    .$.. ...........
    0x10000100:   ff ff ff ff ff ff ff ff 00 00 00 00 00 00 00 00    ................
    0x10000110:   00 00 00 00 00 00 00 00 00 00 00 00 00 00 00 00    ................
    0x10000120:   00 00 00 00 00 00 00 00 00 00 00 00 00 00 00 00    ................
    0x10000130:   00 00 00 00 00 00 00 00 07 05 24 00 07 05 25 00    ..........$...%.
    0x10000140:   00 0c 00 00 00 0c 00 00 00 0c 00 00 00 0c 00 00    ................
    0x10000150:   00 0c 00 00 00 0c 00 00 00 0c 00 00 00 0c 00 00    ................
    0x10000160:   00 0c 00 00 00 0c 00 00 00 00 00 00 07 05 20 00    .............. .
    0x10000170:   00 0c 00 00 00 0c 00 00 00 0c 00 00 00 0c 00 00    ................
    0x10000180:   00 0c 00 00 00 0c 00 00 00 0c 00 00 00 0c 00 00    ................
    0x10000190:   00 0c 00 00 00 0c 00 00 00 0c 00 00 00 0c 00 00    ................
    0x100001a0:   00 0c 00 00 00 0c 00 00 00 0c 00 00 00 0c 00 00    ................
    0x100001b0:   00 0c 00 00 00 0c 00 00 80 0c 00 00 07 05 22 00    ..............".
    0x100001c0:   00 0c 00 00 00 0c 00 00 00 0c 00 00 00 0c 00 00    ................
    0x100001d0:   00 0c 00 00 00 0c 00 00 00 0c 00 00 00 0c 00 00    ................
    0x100001e0:   00 0c 00 00 00 0c 00 00 03 01 00 00 03 01 00 00    ................


** Section #3 'MCU_TCM' (SHT_NOBITS) [SHF_ALLOC + SHF_WRITE]
    Size   : 23512 bytes (alignment 8)
    Address: 0x100001f0


** Section #4 'SHARED_SRAM' (SHT_PROGBITS) [SHF_ALLOC + SHF_WRITE]
    Size   : 24 bytes (alignment 4)
    Address: 0x10060000

    Data section was compressed (Original size: 2176 bytes)

    0x10060000:   30 f5 01 00 00 00 00 00 00 00 00 00 00 00 00 00    0...............
    0x10060010:   00 00 00 00 00 00 00 00 00 00 00 00 00 00 00 00    ................
    0x10060020:   00 00 00 00 00 00 00 00 00 00 00 00 00 00 00 00    ................
    0x10060030:   00 00 00 00 00 00 00 00 00 00 00 00 00 00 00 00    ................
    0x10060040:   00 00 00 00 00 00 00 00 00 00 00 00 00 00 00 00    ................
    0x10060050:   00 00 00 00 00 00 00 00 00 00 00 00 00 00 00 00    ................
    0x10060060:   00 00 00 00 00 00 00 00 00 00 00 00 00 00 00 00    ................
    0x10060070:   00 00 00 00 00 00 00 00 00 00 00 00 00 00 00 00    ................
    0x10060080:   00 00 00 00 00 00 00 00 00 00 00 00 00 00 00 00    ................
    0x10060090:   00 00 00 00 00 00 00 00 00 00 00 00 00 00 00 00    ................
    0x100600a0:   00 00 00 00 00 00 00 00 00 00 00 00 00 00 00 00    ................
    0x100600b0:   00 00 00 00 00 00 00 00 00 00 00 00 00 00 00 00    ................
    0x100600c0:   00 00 00 00 00 00 00 00 00 00 00 00 00 00 00 00    ................
    0x100600d0:   00 00 00 00 00 00 00 00 00 00 00 00 00 00 00 00    ................
    0x100600e0:   00 00 00 00 00 00 00 00 00 00 00 00 00 00 00 00    ................
    0x100600f0:   00 00 00 00 00 00 00 00 00 00 00 00 00 00 00 00    ................
    0x10060100:   00 00 00 00 00 00 00 00 00 00 00 00 00 00 00 00    ................
    0x10060110:   00 00 00 00 00 00 00 00 00 00 00 00 00 00 00 00    ................
    0x10060120:   00 00 00 00 00 00 00 00 00 00 00 00 00 00 00 00    ................
    0x10060130:   00 00 00 00 00 00 00 00 00 00 00 00 00 00 00 00    ................
    0x10060140:   00 00 00 00 00 00 00 00 00 00 00 00 00 00 00 00    ................
    0x10060150:   00 00 00 00 00 00 00 00 00 00 00 00 00 00 00 00    ................
    0x10060160:   00 00 00 00 00 00 00 00 00 00 00 00 00 00 00 00    ................
    0x10060170:   00 00 00 00 00 00 00 00 00 00 00 00 00 00 00 00    ................
    0x10060180:   00 00 00 00 00 00 00 00 00 00 00 00 00 00 00 00    ................
    0x10060190:   00 00 00 00 00 00 00 00 00 00 00 00 00 00 00 00    ................
    0x100601a0:   00 00 00 00 00 00 00 00 00 00 00 00 00 00 00 00    ................
    0x100601b0:   00 00 00 00 00 00 00 00 00 00 00 00 00 00 00 00    ................
    0x100601c0:   00 00 00 00 00 00 00 00 00 00 00 00 00 00 00 00    ................
    0x100601d0:   00 00 00 00 00 00 00 00 00 00 00 00 00 00 00 00    ................
    0x100601e0:   00 00 00 00 00 00 00 00 00 00 00 00 00 00 00 00    ................
    0x100601f0:   00 00 00 00 00 00 00 00 00 00 00 00 00 00 00 00    ................
    0x10060200:   00 00 00 00 00 00 00 00 00 00 00 00 00 00 00 00    ................
    0x10060210:   00 00 00 00 00 00 00 00 00 00 00 00 00 00 00 00    ................
    0x10060220:   00 00 00 00 00 00 00 00 00 00 00 00 00 00 00 00    ................
    0x10060230:   00 00 00 00 00 00 00 00 00 00 00 00 00 00 00 00    ................
    0x10060240:   00 00 00 00 00 00 00 00 00 00 00 00 00 00 00 00    ................
    0x10060250:   00 00 00 00 00 00 00 00 00 00 00 00 00 00 00 00    ................
    0x10060260:   00 00 00 00 00 00 00 00 00 00 00 00 00 00 00 00    ................
    0x10060270:   00 00 00 00 00 00 00 00 00 00 00 00 00 00 00 00    ................
    0x10060280:   00 00 00 00 00 00 00 00 00 00 00 00 00 00 00 00    ................
    0x10060290:   00 00 00 00 00 00 00 00 00 00 00 00 00 00 00 00    ................
    0x100602a0:   00 00 00 00 00 00 00 00 00 00 00 00 00 00 00 00    ................
    0x100602b0:   00 00 00 00 00 00 00 00 00 00 00 00 00 00 00 00    ................
    0x100602c0:   00 00 00 00 00 00 00 00 00 00 00 00 00 00 00 00    ................
    0x100602d0:   00 00 00 00 00 00 00 00 00 00 00 00 00 00 00 00    ................
    0x100602e0:   00 00 00 00 00 00 00 00 00 00 00 00 00 00 00 00    ................
    0x100602f0:   00 00 00 00 00 00 00 00 00 00 00 00 00 00 00 00    ................
    0x10060300:   00 00 00 00 00 00 00 00 00 00 00 00 00 00 00 00    ................
    0x10060310:   00 00 00 00 00 00 00 00 00 00 00 00 00 00 00 00    ................
    0x10060320:   00 00 00 00 00 00 00 00 00 00 00 00 00 00 00 00    ................
    0x10060330:   00 00 00 00 00 00 00 00 00 00 00 00 00 00 00 00    ................
    0x10060340:   00 00 00 00 00 00 00 00 00 00 00 00 00 00 00 00    ................
    0x10060350:   00 00 00 00 00 00 00 00 00 00 00 00 00 00 00 00    ................
    0x10060360:   00 00 00 00 00 00 00 00 00 00 00 00 00 00 00 00    ................
    0x10060370:   00 00 00 00 00 00 00 00 00 00 00 00 00 00 00 00    ................
    0x10060380:   00 00 00 00 00 00 00 00 00 00 00 00 00 00 00 00    ................
    0x10060390:   00 00 00 00 00 00 00 00 00 00 00 00 00 00 00 00    ................
    0x100603a0:   00 00 00 00 00 00 00 00 00 00 00 00 00 00 00 00    ................
    0x100603b0:   00 00 00 00 00 00 00 00 00 00 00 00 00 00 00 00    ................
    0x100603c0:   00 00 00 00 00 00 00 00 00 00 00 00 00 00 00 00    ................
    0x100603d0:   00 00 00 00 00 00 00 00 00 00 00 00 00 00 00 00    ................
    0x100603e0:   00 00 00 00 00 00 00 00 00 00 00 00 00 00 00 00    ................
    0x100603f0:   00 00 00 00 00 00 00 00 00 00 00 00 00 00 00 00    ................
    0x10060400:   00 00 00 00 00 00 00 00 00 00 00 00 00 00 00 00    ................
    0x10060410:   00 00 00 00 00 00 00 00 00 00 00 00 00 00 00 00    ................
    0x10060420:   00 00 00 00 00 00 00 00 00 00 00 00 00 00 00 00    ................
    0x10060430:   00 00 00 00 00 00 00 00 00 00 00 00 00 00 00 00    ................
    0x10060440:   00 00 00 00 00 00 00 00 00 00 00 00 00 00 00 00    ................
    0x10060450:   00 00 00 00 00 00 00 00 00 00 00 00 00 00 00 00    ................
    0x10060460:   00 00 00 00 00 00 00 00 00 00 00 00 00 00 00 00    ................
    0x10060470:   00 00 00 00 00 00 00 00 00 00 00 00 00 00 00 00    ................
    0x10060480:   00 00 00 00 00 00 00 00 00 00 00 00 00 00 00 00    ................
    0x10060490:   00 00 00 00 00 00 00 00 00 00 00 00 00 00 00 00    ................
    0x100604a0:   00 00 00 00 00 00 00 00 00 00 00 00 00 00 00 00    ................
    0x100604b0:   00 00 00 00 00 00 00 00 00 00 00 00 00 00 00 00    ................
    0x100604c0:   00 00 00 00 00 00 00 00 00 00 00 00 00 00 00 00    ................
    0x100604d0:   00 00 00 00 00 00 00 00 00 00 00 00 00 00 00 00    ................
    0x100604e0:   00 00 00 00 00 00 00 00 00 00 00 00 00 00 00 00    ................
    0x100604f0:   00 00 00 00 00 00 00 00 00 00 00 00 00 00 00 00    ................
    0x10060500:   00 00 00 00 00 00 00 00 00 00 00 00 00 00 00 00    ................
    0x10060510:   00 00 00 00 00 00 00 00 00 00 00 00 00 00 00 00    ................
    0x10060520:   00 00 00 00 00 00 00 00 00 00 00 00 00 00 00 00    ................
    0x10060530:   00 00 00 00 00 00 00 00 00 00 00 00 00 00 00 00    ................
    0x10060540:   00 00 00 00 00 00 00 00 00 00 00 00 00 00 00 00    ................
    0x10060550:   00 00 00 00 00 00 00 00 00 00 00 00 00 00 00 00    ................
    0x10060560:   00 00 00 00 00 00 00 00 00 00 00 00 00 00 00 00    ................
    0x10060570:   00 00 00 00 00 00 00 00 00 00 00 00 00 00 00 00    ................
    0x10060580:   00 00 00 00 00 00 00 00 00 00 00 00 00 00 00 00    ................
    0x10060590:   00 00 00 00 00 00 00 00 00 00 00 00 00 00 00 00    ................
    0x100605a0:   00 00 00 00 00 00 00 00 00 00 00 00 00 00 00 00    ................
    0x100605b0:   00 00 00 00 00 00 00 00 00 00 00 00 00 00 00 00    ................
    0x100605c0:   00 00 00 00 00 00 00 00 00 00 00 00 00 00 00 00    ................
    0x100605d0:   00 00 00 00 00 00 00 00 00 00 00 00 00 00 00 00    ................
    0x100605e0:   00 00 00 00 00 00 00 00 00 00 00 00 00 00 00 00    ................
    0x100605f0:   00 00 00 00 00 00 00 00 00 00 00 00 00 00 00 00    ................
    0x10060600:   00 00 00 00 00 00 00 00 00 00 00 00 00 00 00 00    ................
    0x10060610:   00 00 00 00 00 00 00 00 00 00 00 00 00 00 00 00    ................
    0x10060620:   00 00 00 00 00 00 00 00 00 00 00 00 00 00 00 00    ................
    0x10060630:   00 00 00 00 00 00 00 00 00 00 00 00 00 00 00 00    ................
    0x10060640:   00 00 00 00 00 00 00 00 00 00 00 00 00 00 00 00    ................
    0x10060650:   00 00 00 00 00 00 00 00 00 00 00 00 00 00 00 00    ................
    0x10060660:   00 00 00 00 00 00 00 00 00 00 00 00 00 00 00 00    ................
    0x10060670:   00 00 00 00 00 00 00 00 00 00 00 00 00 00 00 00    ................
    0x10060680:   00 00 00 00 00 00 00 00 00 00 00 00 00 00 00 00    ................
    0x10060690:   00 00 00 00 00 00 00 00 00 00 00 00 00 00 00 00    ................
    0x100606a0:   00 00 00 00 00 00 00 00 00 00 00 00 00 00 00 00    ................
    0x100606b0:   00 00 00 00 00 00 00 00 00 00 00 00 00 00 00 00    ................
    0x100606c0:   00 00 00 00 00 00 00 00 00 00 00 00 00 00 00 00    ................
    0x100606d0:   00 00 00 00 00 00 00 00 00 00 00 00 00 00 00 00    ................
    0x100606e0:   00 00 00 00 00 00 00 00 00 00 00 00 00 00 00 00    ................
    0x100606f0:   00 00 00 00 00 00 00 00 00 00 00 00 00 00 00 00    ................
    0x10060700:   00 00 00 00 00 00 00 00 00 00 00 00 00 00 00 00    ................
    0x10060710:   00 00 00 00 00 00 00 00 00 00 00 00 00 00 00 00    ................
    0x10060720:   00 00 00 00 00 00 00 00 00 00 00 00 00 00 00 00    ................
    0x10060730:   00 00 00 00 00 00 00 00 00 00 00 00 00 00 00 00    ................
    0x10060740:   00 00 00 00 00 00 00 00 00 00 00 00 00 00 00 00    ................
    0x10060750:   00 00 00 00 00 00 00 00 00 00 00 00 00 00 00 00    ................
    0x10060760:   00 00 00 00 00 00 00 00 00 00 00 00 00 00 00 00    ................
    0x10060770:   00 00 00 00 00 00 00 00 00 00 00 00 00 00 00 00    ................
    0x10060780:   00 00 00 00 00 00 00 00 00 00 00 00 00 00 00 00    ................
    0x10060790:   00 00 00 00 00 00 00 00 00 00 00 00 00 00 00 00    ................
    0x100607a0:   00 00 00 00 00 00 00 00 00 00 00 00 00 00 00 00    ................
    0x100607b0:   00 00 00 00 00 00 00 00 00 00 00 00 00 00 00 00    ................
    0x100607c0:   00 00 00 00 00 00 00 00 00 00 00 00 00 00 00 00    ................
    0x100607d0:   00 00 00 00 00 00 00 00 00 00 00 00 00 00 00 00    ................
    0x100607e0:   00 00 00 00 00 00 00 00 00 00 00 00 00 00 00 00    ................
    0x100607f0:   00 00 00 00 00 00 00 00 00 00 00 00 00 00 00 00    ................
    0x10060800:   00 00 00 00 00 00 00 00 00 00 00 00 00 00 00 00    ................
    0x10060810:   00 00 00 00 00 00 00 00 00 00 00 00 00 00 00 00    ................
    0x10060820:   00 00 00 00 00 00 00 00 00 00 00 00 00 00 00 00    ................
    0x10060830:   00 00 00 00 00 00 00 00 00 00 00 00 00 00 00 00    ................
    0x10060840:   00 00 00 00 00 00 00 00 00 00 00 00 00 00 00 00    ................
    0x10060850:   00 00 00 00 00 00 00 00 00 00 00 00 00 00 00 00    ................
    0x10060860:   00 00 00 00 00 00 00 00 00 00 00 00 00 00 00 00    ................
    0x10060870:   00 00 00 00 00 00 00 00 00 00 00 00 00 00 00 00    ................


** Section #5 '.debug_abbrev' (SHT_PROGBITS)
    Size   : 1476 bytes


** Section #6 '.debug_frame' (SHT_PROGBITS)
    Size   : 5616 bytes


** Section #7 '.debug_info' (SHT_PROGBITS)
    Size   : 1118816 bytes


** Section #8 '.debug_line' (SHT_PROGBITS)
    Size   : 14516 bytes


** Section #9 '.debug_loc' (SHT_PROGBITS)
    Size   : 7496 bytes


** Section #10 '.debug_macinfo' (SHT_PROGBITS)
    Size   : 815772 bytes


** Section #11 '.debug_pubnames' (SHT_PROGBITS)
    Size   : 1564 bytes


** Section #12 '.symtab' (SHT_SYMTAB)
    Size   : 16976 bytes (alignment 4)
    String table #13 '.strtab'
    Last local symbol no. 722

    Symbol table .symtab (1060 symbols, 722 local)

      #  Symbol Name                Value      Bind  Sec  Type  Vis  Size
    ========================================================================

      1  $d                         0x00018000   Lc    1   --   De 
      2  $t                         0x00018200   Lc    1   --   De 
      3  $d                         0x00018230   Lc    1   --   De 
      4  $t                         0x00018234   Lc    1   --   De 
      5  $d                         0x00018268   Lc    1   --   De 
      6  $t                         0x00018270   Lc    1   --   De 
      7  $d                         0x00018350   Lc    1   --   De 
      8  $t                         0x00018354   Lc    1   --   De 
      9  $d                         0x0001837e   Lc    1   --   De 
     10  $t                         0x0001838c   Lc    1   --   De 
     11  $d                         0x000185d4   Lc    1   --   De 
     12  $t                         0x000185d8   Lc    1   --   De 
     13  $d                         0x000185e0   Lc    1   --   De 
     14  $t                         0x000185e4   Lc    1   --   De 
     15  $d                         0x00018650   Lc    1   --   De 
     16  $t                         0x00018668   Lc    1   --   De 
     17  $d                         0x000186a0   Lc    1   --   De 
     18  $t                         0x000186b4   Lc    1   --   De 
     19  $d                         0x000186be   Lc    1   --   De 
     20  $t                         0x000186d2   Lc    1   --   De 
     21  $d                         0x000189b0   Lc    1   --   De 
     22  $t                         0x000189ca   Lc    1   --   De 
     23  $d                         0x00018a7c   Lc    1   --   De 
     24  $t                         0x00018aec   Lc    1   --   De 
     25  $d                         0x00018ece   Lc    1   --   De 
     26  $t                         0x00018f2c   Lc    1   --   De 
     27  $d                         0x00018f78   Lc    1   --   De 
     28  $t                         0x00018f98   Lc    1   --   De 
     29  $d                         0x00018fee   Lc    1   --   De 
     30  $t                         0x00019034   Lc    1   --   De 
     31  $d                         0x0001909a   Lc    1   --   De 
     32  $t                         0x000190a8   Lc    1   --   De 
     33  $d                         0x00019156   Lc    1   --   De 
     34  $t                         0x0001915c   Lc    1   --   De 
     35  $d                         0x000191fc   Lc    1   --   De 
     36  $t                         0x00019200   Lc    1   --   De 
     37  $d                         0x000192c6   Lc    1   --   De 
     38  $t                         0x000192cc   Lc    1   --   De 
     39  $d                         0x0001934c   Lc    1   --   De 
     40  $t                         0x00019370   Lc    1   --   De 
     41  $d                         0x000196ca   Lc    1   --   De 
     42  $t                         0x00019834   Lc    1   --   De 
     43  $d                         0x00019960   Lc    1   --   De 
     44  $t                         0x00019978   Lc    1   --   De 
     45  $d                         0x000199c8   Lc    1   --   De 
     46  $t                         0x000199cc   Lc    1   --   De 
     47  $d                         0x00019bbc   Lc    1   --   De 
     48  $t                         0x00019bd4   Lc    1   --   De 
     49  $d                         0x00019d04   Lc    1   --   De 
     50  $t                         0x00019d14   Lc    1   --   De 
     51  $d                         0x00019e88   Lc    1   --   De 
     52  $t                         0x00019e98   Lc    1   --   De 
     53  $d                         0x00019ffc   Lc    1   --   De 
     54  $t                         0x0001a00c   Lc    1   --   De 
     55  $d                         0x0001a184   Lc    1   --   De 
     56  $t                         0x0001a188   Lc    1   --   De 
     57  $d                         0x0001a1c4   Lc    1   --   De 
     58  $t                         0x0001a1c8   Lc    1   --   De 
     59  $d                         0x0001a216   Lc    1   --   De 
     60  $t                         0x0001a220   Lc    1   --   De 
     61  $d                         0x0001a290   Lc    1   --   De 
     62  $t                         0x0001a294   Lc    1   --   De 
     63  $d                         0x0001a332   Lc    1   --   De 
     64  $t                         0x0001a338   Lc    1   --   De 
     65  $d                         0x0001a41a   Lc    1   --   De 
     66  $t                         0x0001a428   Lc    1   --   De 
     67  $d                         0x0001a482   Lc    1   --   De 
     68  $t                         0x0001a48c   Lc    1   --   De 
     69  $d                         0x0001a4f4   Lc    1   --   De 
     70  $t                         0x0001a4fc   Lc    1   --   De 
     71  $d                         0x0001a52e   Lc    1   --   De 
     72  $t                         0x0001a534   Lc    1   --   De 
     73  $d                         0x0001a592   Lc    1   --   De 
     74  $t                         0x0001a598   Lc    1   --   De 
     75  $d                         0x0001a61c   Lc    1   --   De 
     76  $t                         0x0001a620   Lc    1   --   De 
     77  $d                         0x0001a6b0   Lc    1   --   De 
     78  $t                         0x0001a6b8   Lc    1   --   De 
     79  $d                         0x0001a72e   Lc    1   --   De 
     80  $t                         0x0001a738   Lc    1   --   De 
     81  $d                         0x0001a7bc   Lc    1   --   De 
     82  $t                         0x0001a7c8   Lc    1   --   De 
     83  $d                         0x0001a89e   Lc    1   --   De 
     84  $t                         0x0001a8ac   Lc    1   --   De 
     85  $d                         0x0001a8ce   Lc    1   --   De 
     86  $t                         0x0001a8d8   Lc    1   --   De 
     87  $d                         0x0001a928   Lc    1   --   De 
     88  $t                         0x0001a930   Lc    1   --   De 
     89  $d                         0x0001a98c   Lc    1   --   De 
     90  $t                         0x0001a994   Lc    1   --   De 
     91  $d                         0x0001aa30   Lc    1   --   De 
     92  $t                         0x0001aa38   Lc    1   --   De 
     93  $d                         0x0001aa5a   Lc    1   --   De 
     94  $t                         0x0001aa60   Lc    1   --   De 
     95  $d                         0x0001aad8   Lc    1   --   De 
     96  $t                         0x0001aaf4   Lc    1   --   De 
     97  $d                         0x0001ac30   Lc    1   --   De 
     98  $t                         0x0001ac54   Lc    1   --   De 
     99  $d                         0x0001acc0   Lc    1   --   De 
    100  $t                         0x0001acc4   Lc    1   --   De 
    101  $d                         0x0001aef8   Lc    1   --   De 
    102  $t                         0x0001af08   Lc    1   --   De 
    103  $d                         0x0001afe0   Lc    1   --   De 
    104  $t                         0x0001aff0   Lc    1   --   De 
    105  $d                         0x0001b032   Lc    1   --   De 
    106  $t                         0x0001b054   Lc    1   --   De 
    107  $d                         0x0001b402   Lc    1   --   De 
    108  $t                         0x0001b410   Lc    1   --   De 
    109  $d                         0x0001b4ee   Lc    1   --   De 
    110  $t                         0x0001b508   Lc    1   --   De 
    111  $d                         0x0001b5da   Lc    1   --   De 
    112  $t                         0x0001b5e2   Lc    1   --   De 
    113  $d                         0x0001b65c   Lc    1   --   De 
    114  $t                         0x0001b664   Lc    1   --   De 
    115  $d                         0x0001bad0   Lc    1   --   De 
    116  $t                         0x0001baec   Lc    1   --   De 
    117  $d                         0x0001bcda   Lc    1   --   De 
    118  $t                         0x0001bce8   Lc    1   --   De 
    119  $d                         0x0001bd90   Lc    1   --   De 
    120  $t                         0x0001bd98   Lc    1   --   De 
    121  $d                         0x0001be1a   Lc    1   --   De 
    122  $t                         0x0001be22   Lc    1   --   De 
    123  $d                         0x0001bf14   Lc    1   --   De 
    124  $t                         0x0001bf1c   Lc    1   --   De 
    125  $d                         0x0001bfa6   Lc    1   --   De 
    126  $t                         0x0001bfb0   Lc    1   --   De 
    127  $d                         0x0001c046   Lc    1   --   De 
    128  $t                         0x0001c050   Lc    1   --   De 
    129  $d                         0x0001c0f8   Lc    1   --   De 
    130  $t                         0x0001c104   Lc    1   --   De 
    131  $d                         0x0001c150   Lc    1   --   De 
    132  $t                         0x0001c158   Lc    1   --   De 
    133  $d                         0x0001c186   Lc    1   --   De 
    134  $t                         0x0001c18c   Lc    1   --   De 
    135  $d                         0x0001c1c2   Lc    1   --   De 
    136  $t                         0x0001c1c8   Lc    1   --   De 
    137  $d                         0x0001c1fc   Lc    1   --   De 
    138  $t                         0x0001c200   Lc    1   --   De 
    139  $d                         0x0001c4b8   Lc    1   --   De 
    140  $t                         0x0001c4c0   Lc    1   --   De 
    141  $d                         0x0001c502   Lc    1   --   De 
    142  $t                         0x0001c508   Lc    1   --   De 
    143  $d                         0x0001c67a   Lc    1   --   De 
    144  $t                         0x0001c684   Lc    1   --   De 
    145  $d                         0x0001ca94   Lc    1   --   De 
    146  $t                         0x0001ca98   Lc    1   --   De 
    147  $d                         0x0001cb1c   Lc    1   --   De 
    148  $t                         0x0001cb22   Lc    1   --   De 
    149  $d                         0x0001cd18   Lc    1   --   De 
    150  $t                         0x0001cd2c   Lc    1   --   De 
    151  $d                         0x0001ce3c   Lc    1   --   De 
    152  $t                         0x0001ce58   Lc    1   --   De 
    153  $d                         0x0001cf6c   Lc    1   --   De 
    154  $t                         0x0001cf74   Lc    1   --   De 
    155  $d                         0x0001d086   Lc    1   --   De 
    156  $t                         0x0001d0a0   Lc    1   --   De 
    157  $d                         0x0001d146   Lc    1   --   De 
    158  $t                         0x0001d154   Lc    1   --   De 
    159  $d                         0x0001d1f2   Lc    1   --   De 
    160  $t                         0x0001d1fc   Lc    1   --   De 
    161  $d                         0x0001d20a   Lc    1   --   De 
    162  $t                         0x0001d210   Lc    1   --   De 
    163  $d                         0x0001d2e2   Lc    1   --   De 
    164  $t                         0x0001d2f8   Lc    1   --   De 
    165  $d                         0x0001d34a   Lc    1   --   De 
    166  $t                         0x0001d364   Lc    1   --   De 
    167  $d                         0x0001d388   Lc    1   --   De 
    168  $t                         0x0001d38c   Lc    1   --   De 
    169  $d                         0x0001d5a2   Lc    1   --   De 
    170  $t                         0x0001d908   Lc    1   --   De 
    171  $d                         0x0001d9ae   Lc    1   --   De 
    172  $t                         0x0001d9d0   Lc    1   --   De 
    173  $d                         0x0001da02   Lc    1   --   De 
    174  $t                         0x0001da0c   Lc    1   --   De 
    175  $d                         0x0001da12   Lc    1   --   De 
    176  $t                         0x0001da18   Lc    1   --   De 
    177  $d                         0x0001da22   Lc    1   --   De 
    178  $t                         0x0001da38   Lc    1   --   De 
    179  $d                         0x0001dddc   Lc    1   --   De 
    180  $t                         0x0001ddec   Lc    1   --   De 
    181  $d                         0x0001de02   Lc    1   --   De 
    182  $t                         0x0001de08   Lc    1   --   De 
    183  $d                         0x0001de24   Lc    1   --   De 
    184  $t                         0x0001de28   Lc    1   --   De 
    185  $d                         0x0001df96   Lc    1   --   De 
    186  $t                         0x0001dfbc   Lc    1   --   De 
    187  $d                         0x0001dff0   Lc    1   --   De 
    188  $t                         0x0001dff6   Lc    1   --   De 
    189  $d                         0x0001e042   Lc    1   --   De 
    190  $t                         0x0001e070   Lc    1   --   De 
    191  $d                         0x0001e152   Lc    1   --   De 
    192  $t                         0x0001e15c   Lc    1   --   De 
    193  $d                         0x0001e35e   Lc    1   --   De 
    194  $t                         0x0001e368   Lc    1   --   De 
    195  $d                         0x0001e4da   Lc    1   --   De 
    196  $t                         0x0001e4e0   Lc    1   --   De 
    197  $d                         0x0001e6d4   Lc    1   --   De 
    198  $t                         0x0001e970   Lc    1   --   De 
    199  $d                         0x0001e97e   Lc    1   --   De 
    200  $t                         0x0001e998   Lc    1   --   De 
    201  $d                         0x0001ef48   Lc    1   --   De 
    202  $t                         0x0001ef54   Lc    1   --   De 
    203  $d                         0x0001f056   Lc    1   --   De 
    204  $t                         0x0001f05c   Lc    1   --   De 
    205  $d                         0x0001f0d0   Lc    1   --   De 
    206  $t                         0x0001f0d8   Lc    1   --   De 
    207  $d                         0x0001f110   Lc    1   --   De 
    208  $t                         0x0001f118   Lc    1   --   De 
    209  $d                         0x0001f14c   Lc    1   --   De 
    210  $t                         0x0001f154   Lc    1   --   De 
    211  $d                         0x0001f296   Lc    1   --   De 
    212  $t                         0x0001f2a0   Lc    1   --   De 
    213  $d                         0x0001f404   Lc    1   --   De 
    214  $t                         0x0001f408   Lc    1   --   De 
    215  $d                         0x0001f486   Lc    1   --   De 
    216  $t                         0x0001f48a   Lc    1   --   De 
    217  $d.realdata                0x0001f4c8   Lc    1   --   De 
    218  $d.realdata                0x10000000   Lc    2   --   De 
    219  $d.realdata                0x10060000   Lc    4   --   De 
    220  ..\src\am_resources.c      0x00000000   Lc  Abs  File  De 
    221  ../src/am_resources.c      0x00000000   Lc  Abs  File  De 
    222  .constdata                 0x0001f4c8   Lc    1  Sect  De   0x84
    223  ui32I2sWordLength          0x0001f4c8   Lc    1  Data  De   0x18
    224  __tagsym$$used             0x0001f4e0   Lc    1   --   De 
    225  __tagsym$$used             0x0001f4f4   Lc    1   --   De 
    226  __tagsym$$used             0x0001f508   Lc    1   --   De 
    227  __tagsym$$used             0x0001f51c   Lc    1   --   De 
    228  __tagsym$$used             0x0001f530   Lc    1   --   De 
    229  RESOURCE_TABLE             0x10060000   Lc    4  Sect  De   0x4
    230  __tagsym$$used             0x10060000   Lc    4   --   De 
    231  SHARED_RW                  0x10060004   Lc    4  Sect  De   0x3c
    232  __tagsym$$used             0x10060004   Lc    4   --   De 
    233  __tagsym$$used             0x10060018   Lc    4   --   De 
    234  __tagsym$$used             0x1006002c   Lc    4   --   De 
    235  ..\src\mspi_ds35x1ga_quad_example.c
                                    0x00000000   Lc  Abs  File  De 
    236  ../src/mspi_ds35x1ga_quad_example.c
                                    0x00000000   Lc  Abs  File  De 
    237  i.am_mspi2_isr             0x0001d364   Lc    1  Sect  De 
    238  i.clkfreq_string           0x0001dfe0   Lc    1  Sect  De 
    239  i.main                     0x0001e4e0   Lc    1  Sect  De 
    240  .bss                       0x100001f0   Lc    3  Sect  De   0x1880
    241  write_data                 0x100001f0   Lc    3  Data  De   0x800
    242  read_data                  0x100009f0   Lc    3  Data  De   0x800
    243  write_oob                  0x100011f0   Lc    3  Data  De   0x40
    244  read_oob                   0x10001230   Lc    3  Data  De   0x40
    245  DMATCBBuffer               0x10001270   Lc    3  Data  De   0x800
    246  .constdata                 0x0001f54c   Lc    1  Sect  De   0x44
    247  ui32I2sWordLength          0x0001f54c   Lc    1  Data  De   0x18
    248  mspi_interrupts            0x0001f564   Lc    1  Data  De   0x3
    249  .conststring               0x0001fc88   Lc    1  Sect  De   0x1b
    250  .data                      0x10000000   Lc    2  Sect  De   0x1e
    251  modeinfo                   0x10000008   Lc    2  Data  De   0x8
    252  ..\..\..\..\..\..\utils\am_util_delay.c
                                    0x00000000   Lc  Abs  File  De 
    253  ../../../../../../utils/am_util_delay.c
                                    0x00000000   Lc  Abs  File  De 
    254  i.am_util_delay_us         0x0001d38c   Lc    1  Sect  De 
    255  ..\..\..\..\..\..\utils\am_util_faultisr.c
                                    0x00000000   Lc  Abs  File  De 
    256  .emb_text                  0x00018330   Lc    1  Sect  De   0x2c
    257  $v0                        0x00018330   Lc    1   --   De 
    258  ../../../../../../utils/am_util_faultisr.c
                                    0x00000000   Lc  Abs  File  De 
    259  i.am_util_faultisr_collect_data
                                    0x0001d398   Lc    1  Sect  De 
    260  i.am_valid_sp              0x0001ddec   Lc    1  Sect  De 
    261  .bss                       0x10001a70   Lc    3  Sect  De   0x200
    262  .conststring               0x0001fca4   Lc    1  Sect  De   0x43
    263  ..\..\..\..\..\..\utils\am_util_id.c
                                    0x00000000   Lc  Abs  File  De 
    264  ../../../../../../utils/am_util_id.c
                                    0x00000000   Lc  Abs  File  De 
    265  i.am_util_id_device        0x0001d908   Lc    1  Sect  De 
    266  i.chiprev_set              0x0001dfbc   Lc    1  Sect  De 
    267  chiprev_set                0x0001dfbd   Lc    1  Code  De   0x22
    268  i.revmaj_get               0x0001f154   Lc    1  Sect  De 
    269  revmaj_get                 0x0001f155   Lc    1  Code  De   0xc
    270  .constdata                 0x0001f590   Lc    1  Sect  De   0x8c
    271  ui32I2sWordLength          0x0001f590   Lc    1  Data  De   0x18
    272  g_DeviceNameApollo4p       0x0001f5a8   Lc    1  Data  De   0xd
    273  g_DeviceNameApollo4p_blue  0x0001f5b5   Lc    1  Data  De   0x12
    274  g_PackageType              0x0001f5c7   Lc    1  Data  De   0x10
    275  g_TempRange                0x0001f5d7   Lc    1  Data  De   0x2c
    276  g_ui8VendorNameAmbq        0x0001f603   Lc    1  Data  De   0x5
    277  g_ui8VendorNameUnknown     0x0001f608   Lc    1  Data  De   0x5
    278  g_ui8DeviceNameUnknown     0x0001f60d   Lc    1  Data  De   0xf
    279  ../../../../../../utils/am_util_stdio.c
                                    0x00000000   Lc  Abs  File  De 
    280  i.am_util_stdio_printf     0x0001d9d0   Lc    1  Sect  De 
    281  i.am_util_stdio_printf_init
                                    0x0001da0c   Lc    1  Sect  De 
    282  i.am_util_stdio_terminal_clear
                                    0x0001da18   Lc    1  Sect  De 
    283  i.am_util_stdio_vsprintf   0x0001da38   Lc    1  Sect  De 
    284  i.decstr_to_int            0x0001e15c   Lc    1  Sect  De 
    285  decstr_to_int              0x0001e15d   Lc    1  Code  De   0x42
    286  i.divu64_10                0x0001e19e   Lc    1  Sect  De 
    287  divu64_10                  0x0001e19f   Lc    1  Code  De   0xcc
    288  i.ftoa                     0x0001e368   Lc    1  Sect  De 
    289  ftoa                       0x0001e369   Lc    1  Code  De   0x172
    290  i.ndigits_in_hex           0x0001ef7c   Lc    1  Sect  De 
    291  ndigits_in_hex             0x0001ef7d   Lc    1  Code  De   0x34
    292  i.ndigits_in_i64           0x0001efb0   Lc    1  Sect  De 
    293  ndigits_in_i64             0x0001efb1   Lc    1  Code  De   0x24
    294  i.ndigits_in_u64           0x0001efd4   Lc    1  Sect  De 
    295  ndigits_in_u64             0x0001efd5   Lc    1  Code  De   0x3a
    296  i.padbuffer                0x0001f00e   Lc    1  Sect  De 
    297  padbuffer                  0x0001f00f   Lc    1  Code  De   0x22
    298  i.simple_strlen            0x0001f2a0   Lc    1  Sect  De 
    299  simple_strlen              0x0001f2a1   Lc    1  Code  De   0x18
    300  i.uint64_to_hexstr         0x0001f2b8   Lc    1  Sect  De 
    301  uint64_to_hexstr           0x0001f2b9   Lc    1  Code  De   0x8a
    302  i.uint64_to_str            0x0001f342   Lc    1  Sect  De 
    303  uint64_to_str              0x0001f343   Lc    1  Code  De   0x70
    304  .bss                       0x10001c70   Lc    3  Sect  De   0x400
    305  g_prfbuf                   0x10001c70   Lc    3  Data  De   0x400
    306  .data                      0x10000020   Lc    2  Sect  De   0x5
    307  g_bTxtXlate                0x10000024   Lc    2  Data  De   0x1
    308  ..\..\..\..\..\..\devices\am_devices_mspi_ds35x1ga.c
                                    0x00000000   Lc  Abs  File  De 
    309  ../../../../../../devices/am_devices_mspi_ds35x1ga.c
                                    0x00000000   Lc  Abs  File  De 
    310  i.am_device_deinit_flash   0x00018f2c   Lc    1  Sect  De 
    311  am_device_deinit_flash     0x00018f2d   Lc    1  Code  De   0x6
    312  i.am_device_init_flash     0x00018f34   Lc    1  Sect  De 
    313  am_device_init_flash       0x00018f35   Lc    1  Code  De   0x44
    314  i.am_devices_mspi_device_reconfigure
                                    0x00018f98   Lc    1  Sect  De 
    315  am_devices_mspi_device_reconfigure
                                    0x00018f99   Lc    1  Code  De   0x56
    316  i.am_devices_mspi_ds35x1ga_apply_sdr_timing
                                    0x00019034   Lc    1  Sect  De 
    317  i.am_devices_mspi_ds35x1ga_block_erase
                                    0x000190a8   Lc    1  Sect  De 
    318  i.am_devices_mspi_ds35x1ga_command_read
                                    0x0001915c   Lc    1  Sect  De 
    319  am_devices_mspi_ds35x1ga_command_read
                                    0x0001915d   Lc    1  Code  De   0xa0
    320  i.am_devices_mspi_ds35x1ga_command_write
                                    0x00019200   Lc    1  Sect  De 
    321  am_devices_mspi_ds35x1ga_command_write
                                    0x00019201   Lc    1  Code  De   0xc6
    322  i.am_devices_mspi_ds35x1ga_deinit
                                    0x000192cc   Lc    1  Sect  De 
    323  i.am_devices_mspi_ds35x1ga_enter_command_mode
                                    0x00019370   Lc    1  Sect  De 
    324  am_devices_mspi_ds35x1ga_enter_command_mode
                                    0x00019371   Lc    1  Code  De   0x2a
    325  i.am_devices_mspi_ds35x1ga_exit_command_mode
                                    0x0001939a   Lc    1  Sect  De 
    326  am_devices_mspi_ds35x1ga_exit_command_mode
                                    0x0001939b   Lc    1  Code  De   0x2a
    327  i.am_devices_mspi_ds35x1ga_id
                                    0x000193c4   Lc    1  Sect  De 
    328  i.am_devices_mspi_ds35x1ga_init
                                    0x00019418   Lc    1  Sect  De 
    329  i.am_devices_mspi_ds35x1ga_read
                                    0x00019834   Lc    1  Sect  De 
    330  i.am_devices_mspi_ds35x1ga_read_status
                                    0x00019978   Lc    1  Sect  De 
    331  am_devices_mspi_ds35x1ga_read_status
                                    0x00019979   Lc    1  Code  De   0x50
    332  i.am_devices_mspi_ds35x1ga_reset
                                    0x000199cc   Lc    1  Sect  De 
    333  am_devices_mspi_ds35x1ga_reset
                                    0x000199cd   Lc    1  Code  De   0x32
    334  i.am_devices_mspi_ds35x1ga_sdr_init_timing_check
                                    0x00019a00   Lc    1  Sect  De 
    335  i.am_devices_mspi_ds35x1ga_timing_check_read
                                    0x00019bd4   Lc    1  Sect  De 
    336  am_devices_mspi_ds35x1ga_timing_check_read
                                    0x00019bd5   Lc    1  Code  De   0x130
    337  i.am_devices_mspi_ds35x1ga_timing_check_write
                                    0x00019d14   Lc    1  Sect  De 
    338  am_devices_mspi_ds35x1ga_timing_check_write
                                    0x00019d15   Lc    1  Code  De   0x174
    339  i.am_devices_mspi_ds35x1ga_tx_enter_ad4_mode
                                    0x00019e98   Lc    1  Sect  De 
    340  am_devices_mspi_ds35x1ga_tx_enter_ad4_mode
                                    0x00019e99   Lc    1  Code  De   0x2c
    341  i.am_devices_mspi_ds35x1ga_write
                                    0x00019ec4   Lc    1  Sect  De 
    342  i.am_devices_mspi_ds35x1ga_write_status
                                    0x0001a00c   Lc    1  Sect  De 
    343  am_devices_mspi_ds35x1ga_write_status
                                    0x0001a00d   Lc    1  Code  De   0x4e
    344  i.count_consecutive_ones   0x0001e098   Lc    1  Sect  De 
    345  count_consecutive_ones     0x0001e099   Lc    1  Code  De   0x14
    346  i.find_mid_point           0x0001e26a   Lc    1  Sect  De 
    347  find_mid_point             0x0001e26b   Lc    1  Code  De   0x86
    348  i.flash_check              0x0001e2f0   Lc    1  Sect  De 
    349  flash_check                0x0001e2f1   Lc    1  Code  De   0x6e
    350  i.pfnMSPI_DS35X1GA_Callback
                                    0x0001f030   Lc    1  Sect  De 
    351  pfnMSPI_DS35X1GA_Callback  0x0001f031   Lc    1  Code  De   0x6
    352  i.prepare_test_pattern     0x0001f038   Lc    1  Sect  De 
    353  prepare_test_pattern       0x0001f039   Lc    1  Code  De   0x98
    354  i.program_load             0x0001f0d8   Lc    1  Sect  De 
    355  program_load               0x0001f0d9   Lc    1  Code  De   0x38
    356  i.read_from_cache          0x0001f118   Lc    1  Sect  De 
    357  read_from_cache            0x0001f119   Lc    1  Code  De   0x34
    358  .bss                       0x10002070   Lc    3  Sect  De   0x10c4
    359  gMspiCfg                   0x10002070   Lc    3  Data  De   0xc
    360  gAmDs35x1ga                0x1000207c   Lc    3  Data  De   0x38
    361  write_oob                  0x100020b4   Lc    3  Data  De   0x40
    362  read_oob                   0x100020f4   Lc    3  Data  De   0x40
    363  ui8TxBuffer                0x10002134   Lc    3  Data  De   0x800
    364  ui8RxBuffer                0x10002934   Lc    3  Data  De   0x800
    365  .constdata                 0x0001f61c   Lc    1  Sect  De   0x1b6
    366  ui32I2sWordLength          0x0001f61c   Lc    1  Data  De   0x18
    367  mspi_interrupts            0x0001f634   Lc    1  Data  De   0x3
    368  .data                      0x10000028   Lc    2  Sect  De   0x8b
    369  MSPI_DS35X1GA_Serial_CE0_MSPIConfig
                                    0x10000028   Lc    2  Data  De   0x16
    370  MSPI_DS35X1GA_Serial_CE1_MSPIConfig
                                    0x1000003e   Lc    2  Data  De   0x16
    371  MSPI_DS35X1GA_Quad_CE0_MSPIConfig
                                    0x10000054   Lc    2  Data  De   0x16
    372  MSPI_DS35X1GA_Quad_CE1_MSPIConfig
                                    0x1000006a   Lc    2  Data  De   0x16
    373  g_DS35X1GA_DevConfig       0x10000080   Lc    2  Data  De   0x20
    374  SDRTimingConfigDefault     0x100000a0   Lc    2  Data  De   0x6
    375  bSDRTimingConfigSaved      0x100000a6   Lc    2  Data  De   0x1
    376  SDRTimingConfigStored      0x100000a7   Lc    2  Data  De   0x6
    377  scanCfg                    0x100000ad   Lc    2  Data  De   0x6
    378  SHARED_RW                  0x10060040   Lc    4  Sect  De   0x840
    379  PageBuffer                 0x10060040   Lc    4  Data  De   0x840
    380  __tagsym$$used             0x10060040   Lc    4   --   De 
    381  ../keil/startup_keil.s     0x00000000   Lc  Abs  File  De 
    382  STACK                      0x10004dc8   Lc    3  Sect  De   0x1000
    383  StackMem                   0x10004dc8   Lc    3  Data  De 
    384  HEAP                       0x10004dc8   Lc    3  Sect  De 
    385  HeapMem                    0x10004dc8   Lc    3  Data  De 
    386  RESET                      0x00018000   Lc    1  Sect  De   0x234
    387  $v0                        0x00018200   Lc    1   --   De 
    388  am_cryptosec_isr           0x0001822f   Lc    1  Code  De 
    389  am_default_isr             0x0001822f   Lc    1  Code  De   0x2
    390  .text                      0x00018374   Lc    1  Sect  De   0x18
    391  $v0                        0x00018374   Lc    1   --   De 
    392  ..\..\..\..\..\mcu\apollo4p\hal\mcu\am_hal_cachectrl.c
                                    0x00000000   Lc  Abs  File  De 
    393  ../../../../../mcu/apollo4p/hal/mcu/am_hal_cachectrl.c
                                    0x00000000   Lc  Abs  File  De 
    394  i.am_hal_cachectrl_config  0x0001a05a   Lc    1  Sect  De 
    395  i.am_hal_cachectrl_enable  0x0001a0a2   Lc    1  Sect  De 
    396  i.am_hal_daxi_config       0x0001a620   Lc    1  Sect  De 
    397  i.am_hal_daxi_control      0x0001a6b8   Lc    1  Sect  De 
    398  .constdata                 0x0001f7d2   Lc    1  Sect  De   0x3
    399  .constdata                 0x0001f7d5   Lc    1  Sect  De   0x5
    400  .data                      0x100000b3   Lc    2  Sect  De   0x5
    401  i.__ARM_common_memcpy4_5   0x000185e6   Lc    1  Sect  De 
    402  ..\..\..\..\..\mcu\apollo4p\hal\mcu\am_hal_fault.c
                                    0x00000000   Lc  Abs  File  De 
    403  ../../../../../mcu/apollo4p/hal/mcu/am_hal_fault.c
                                    0x00000000   Lc  Abs  File  De 
    404  i.am_hal_fault_capture_enable
                                    0x0001a994   Lc    1  Sect  De 
    405  i.am_hal_fault_status_get  0x0001a9a6   Lc    1  Sect  De 
    406  ..\..\..\..\..\mcu\apollo4p\hal\mcu\am_hal_interrupt.c
                                    0x00000000   Lc  Abs  File  De 
    407  .emb_text                  0x0001835c   Lc    1  Sect  De   0x16
    408  $v0                        0x0001835c   Lc    1   --   De 
    409  ../../../../../mcu/apollo4p/hal/mcu/am_hal_interrupt.c
                                    0x00000000   Lc  Abs  File  De 
    410  ..\..\..\..\..\mcu\apollo4p\hal\mcu\am_hal_mcuctrl.c
                                    0x00000000   Lc  Abs  File  De 
    411  ../../../../../mcu/apollo4p/hal/mcu/am_hal_mcuctrl.c
                                    0x00000000   Lc  Abs  File  De 
    412  i.am_hal_mcuctrl_info_get  0x0001ab24   Lc    1  Sect  De 
    413  .constdata                 0x0001f7da   Lc    1  Sect  De   0x18
    414  g_am_hal_mcuctrl_sku_mram_size
                                    0x0001f7da   Lc    1  Data  De   0x8
    415  g_am_hal_mcuctrl_sku_ssram_size
                                    0x0001f7e2   Lc    1  Data  De   0x10
    416  ..\..\..\..\..\mcu\apollo4p\hal\mcu\am_hal_mspi.c
                                    0x00000000   Lc  Abs  File  De 
    417  ../../../../../mcu/apollo4p/hal/mcu/am_hal_mspi.c
                                    0x00000000   Lc  Abs  File  De 
    418  i.am_hal_mspi_blocking_transfer
                                    0x0001acc4   Lc    1  Sect  De 
    419  i.am_hal_mspi_configure    0x0001af08   Lc    1  Sect  De 
    420  i.am_hal_mspi_control      0x0001aff0   Lc    1  Sect  De 
    421  i.am_hal_mspi_deinitialize 0x0001bce8   Lc    1  Sect  De 
    422  i.am_hal_mspi_device_configure
                                    0x0001bd98   Lc    1  Sect  De 
    423  i.am_hal_mspi_disable      0x0001bfb0   Lc    1  Sect  De 
    424  i.am_hal_mspi_enable       0x0001c050   Lc    1  Sect  De 
    425  i.am_hal_mspi_initialize   0x0001c104   Lc    1  Sect  De 
    426  i.am_hal_mspi_interrupt_clear
                                    0x0001c158   Lc    1  Sect  De 
    427  i.am_hal_mspi_interrupt_disable
                                    0x0001c18c   Lc    1  Sect  De 
    428  i.am_hal_mspi_interrupt_enable
                                    0x0001c1c8   Lc    1  Sect  De 
    429  i.am_hal_mspi_interrupt_service
                                    0x0001c200   Lc    1  Sect  De 
    430  i.am_hal_mspi_interrupt_status_get
                                    0x0001c4c0   Lc    1  Sect  De 
    431  i.am_hal_mspi_nonblocking_transfer
                                    0x0001c508   Lc    1  Sect  De 
    432  i.am_hal_mspi_power_control
                                    0x0001c684   Lc    1  Sect  De 
    433  i.build_dma_cmdlist        0x0001de28   Lc    1  Sect  De 
    434  i.mspi_device_configure    0x0001e970   Lc    1  Sect  De 
    435  mspi_device_configure      0x0001e971   Lc    1  Code  De   0x5d8
    436  i.mspi_dummy_callback      0x0001ef54   Lc    1  Sect  De 
    437  mspi_dummy_callback        0x0001ef55   Lc    1  Code  De   0x2
    438  i.mspi_seq_loopback        0x0001ef56   Lc    1  Sect  De 
    439  mspi_seq_loopback          0x0001ef57   Lc    1  Code  De   0x26
    440  i.sched_hiprio             0x0001f160   Lc    1  Sect  De 
    441  sched_hiprio               0x0001f161   Lc    1  Code  De   0x136
    442  .bss                       0x10003134   Lc    3  Sect  De   0x1a4c
    443  g_MSPIState                0x10003134   Lc    3  Data  De   0x1a4c
    444  ..\..\..\..\..\mcu\apollo4p\hal\mcu\am_hal_sysctrl.c
                                    0x00000000   Lc  Abs  File  De 
    445  ../../../../../mcu/apollo4p/hal/mcu/am_hal_sysctrl.c
                                    0x00000000   Lc  Abs  File  De 
    446  i.am_hal_sysctrl_sleep     0x0001d210   Lc    1  Sect  De 
    447  ..\..\..\..\..\mcu\apollo4p\hal\mcu\am_hal_utils.c
                                    0x00000000   Lc  Abs  File  De 
    448  ../../../../../mcu/apollo4p/hal/mcu/am_hal_utils.c
                                    0x00000000   Lc  Abs  File  De 
    449  i.am_hal_delay_us          0x0001a8ac   Lc    1  Sect  De 
    450  i.am_hal_delay_us_status_change
                                    0x0001a8d8   Lc    1  Sect  De 
    451  i.am_hal_delay_us_status_check
                                    0x0001a930   Lc    1  Sect  De 
    452  ..\am_bsp.c                0x00000000   Lc  Abs  File  De 
    453  ../am_bsp.c                0x00000000   Lc  Abs  File  De 
    454  i.am_bsp_itm_printf_enable 0x000185f0   Lc    1  Sect  De 
    455  i.am_bsp_low_power_init    0x00018668   Lc    1  Sect  De 
    456  i.am_bsp_mspi_pins_enable  0x00018680   Lc    1  Sect  De 
    457  .data                      0x100000b8   Lc    2  Sect  De   0x1a
    458  g_ePrintInterface          0x100000b8   Lc    2  Data  De   0x1
    459  g_sCOMUART                 0x100000bc   Lc    2  Data  De   0x4
    460  ..\..\..\..\..\mcu\apollo4p\hal\mcu\am_hal_bootrom_helper.c
                                    0x00000000   Lc  Abs  File  De 
    461  ../../../../../mcu/apollo4p/hal/mcu/am_hal_bootrom_helper.c
                                    0x00000000   Lc  Abs  File  De 
    462  .constdata                 0x0001f7f4   Lc    1  Sect  De   0x28
    463  ..\..\..\..\..\mcu\apollo4p\hal\mcu\am_hal_cmdq.c
                                    0x00000000   Lc  Abs  File  De 
    464  ../../../../../mcu/apollo4p/hal/mcu/am_hal_cmdq.c
                                    0x00000000   Lc  Abs  File  De 
    465  i.am_hal_cmdq_alloc_block  0x0001a0bc   Lc    1  Sect  De 
    466  i.am_hal_cmdq_disable      0x0001a188   Lc    1  Sect  De 
    467  i.am_hal_cmdq_enable       0x0001a1c8   Lc    1  Sect  De 
    468  i.am_hal_cmdq_error_resume 0x0001a220   Lc    1  Sect  De 
    469  i.am_hal_cmdq_get_status   0x0001a294   Lc    1  Sect  De 
    470  i.am_hal_cmdq_init         0x0001a338   Lc    1  Sect  De 
    471  i.am_hal_cmdq_post_block   0x0001a428   Lc    1  Sect  De 
    472  i.am_hal_cmdq_post_loop_block
                                    0x0001a48c   Lc    1  Sect  De 
    473  i.am_hal_cmdq_release_block
                                    0x0001a4fc   Lc    1  Sect  De 
    474  i.am_hal_cmdq_reset        0x0001a534   Lc    1  Sect  De 
    475  i.am_hal_cmdq_term         0x0001a598   Lc    1  Sect  De 
    476  .bss                       0x10004b80   Lc    3  Sect  De   0x1e4
    477  gAmHalCmdq                 0x10004b80   Lc    3  Data  De   0x1e4
    478  .constdata                 0x0001f81c   Lc    1  Sect  De   0x1b8
    479  gAmHalCmdQReg              0x0001f81c   Lc    1  Data  De   0x1b8
    480  ..\..\..\..\..\mcu\apollo4p\hal\mcu\am_hal_itm.c
                                    0x00000000   Lc  Abs  File  De 
    481  ../../../../../mcu/apollo4p/hal/mcu/am_hal_itm.c
                                    0x00000000   Lc  Abs  File  De 
    482  i.am_hal_itm_enable        0x0001aaac   Lc    1  Sect  De 
    483  i.am_hal_itm_print         0x0001aaf4   Lc    1  Sect  De 
    484  ..\..\..\..\..\mcu\apollo4p\hal\mcu\am_hal_rtc.c
                                    0x00000000   Lc  Abs  File  De 
    485  ../../../../../mcu/apollo4p/hal/mcu/am_hal_rtc.c
                                    0x00000000   Lc  Abs  File  De 
    486  i.am_hal_rtc_osc_disable   0x0001d1fc   Lc    1  Sect  De 
    487  ..\..\..\..\..\mcu\apollo4p\hal\mcu\am_hal_tpiu.c
                                    0x00000000   Lc  Abs  File  De 
    488  ../../../../../mcu/apollo4p/hal/mcu/am_hal_tpiu.c
                                    0x00000000   Lc  Abs  File  De 
    489  i.am_hal_tpiu_enable       0x0001d2f8   Lc    1  Sect  De 
    490  ..\..\..\..\..\mcu\apollo4p\hal\mcu\am_hal_uart.c
                                    0x00000000   Lc  Abs  File  De 
    491  ../../../../../mcu/apollo4p/hal/mcu/am_hal_uart.c
                                    0x00000000   Lc  Abs  File  De 
    492  ..\..\..\..\..\mcu\apollo4p\hal\am_hal_dcu.c
                                    0x00000000   Lc  Abs  File  De 
    493  ../../../../../mcu/apollo4p/hal/am_hal_dcu.c
                                    0x00000000   Lc  Abs  File  De 
    494  i.am_hal_dcu_get           0x0001a738   Lc    1  Sect  De 
    495  i.am_hal_dcu_update        0x0001a7c8   Lc    1  Sect  De 
    496  i.copy_words               0x0001e070   Lc    1  Sect  De 
    497  copy_words                 0x0001e071   Lc    1  Code  De   0x28
    498  .data                      0x100000d8   Lc    2  Sect  De   0x20
    499  ..\..\..\..\..\mcu\apollo4p\hal\am_hal_gpio.c
                                    0x00000000   Lc  Abs  File  De 
    500  ../../../../../mcu/apollo4p/hal/am_hal_gpio.c
                                    0x00000000   Lc  Abs  File  De 
    501  i.am_hal_gpio_pinconfig    0x0001a9e4   Lc    1  Sect  De 
    502  i.am_hal_gpio_state_write  0x0001aa38   Lc    1  Sect  De 
    503  .constdata                 0x0001f9d4   Lc    1  Sect  De   0x10
    504  g_ui32DSpintbl             0x0001f9d4   Lc    1  Data  De   0x10
    505  ..\..\..\..\..\mcu\apollo4p\hal\am_hal_pwrctrl.c
                                    0x00000000   Lc  Abs  File  De 
    506  ../../../../../mcu/apollo4p/hal/am_hal_pwrctrl.c
                                    0x00000000   Lc  Abs  File  De 
    507  i.am_hal_pwrctrl_control   0x0001cb04   Lc    1  Sect  De 
    508  i.am_hal_pwrctrl_low_power_init
                                    0x0001cd2c   Lc    1  Sect  De 
    509  i.am_hal_pwrctrl_mcu_memory_config
                                    0x0001ce58   Lc    1  Sect  De 
    510  i.am_hal_pwrctrl_periph_disable
                                    0x0001cf74   Lc    1  Sect  De 
    511  i.am_hal_pwrctrl_periph_enable
                                    0x0001d0a0   Lc    1  Sect  De 
    512  i.am_hal_pwrctrl_sram_config
                                    0x0001d154   Lc    1  Sect  De 
    513  i.buck_ldo_update_override 0x0001de08   Lc    1  Sect  De 
    514  i.crypto_boost_trims       0x0001e0ac   Lc    1  Sect  De 
    515  .constdata                 0x0001f9e4   Lc    1  Sect  De   0x2a4
    516  g_VDDC_trimstbl            0x0001fc10   Lc    1  Data  De   0x9
    517  g_VDDF_trimstbl            0x0001fc19   Lc    1  Data  De   0x21
    518  g_VDDFLP_trimstbl          0x0001fc3a   Lc    1  Data  De   0x21
    519  g_memlpldo_trimstbl        0x0001fc5b   Lc    1  Data  De   0x2d
    520  .data                      0x100000f8   Lc    2  Sect  De   0x40
    521  g_bOrigTrimsStored         0x100000f9   Lc    2  Data  De   0x1
    522  g_bBoostForCryptoApplied   0x100000fa   Lc    2  Data  De   0x1
    523  g_bTempcoValid             0x100000fb   Lc    2  Data  De   0x1
    524  g_ui16TempcoTEMP_code      0x100000fc   Lc    2  Data  De   0x2
    525  g_orig_ACTTRIMVDDF         0x10000108   Lc    2  Data  De   0x4
    526  g_orig_MEMLDOACTIVETRIM    0x1000010c   Lc    2  Data  De   0x4
    527  g_orig_LPTRIMVDDF          0x10000110   Lc    2  Data  De   0x4
    528  g_orig_MEMLPLDOTRIM        0x10000114   Lc    2  Data  De   0x4
    529  g_orig_TVRGVREFTRIM        0x10000118   Lc    2  Data  De   0x4
    530  g_orig_CORELDOACTIVETRIM   0x1000011c   Lc    2  Data  De   0x4
    531  g_ui32VDDFAdjustCodes      0x10000120   Lc    2  Data  De   0x4
    532  g_i32LatestVddfActTrim     0x10000124   Lc    2  Data  De   0x4
    533  g_i32LatestLDOActTrim      0x10000128   Lc    2  Data  De   0x4
    534  g_TempcoADCHandle          0x1000012c   Lc    2  Data  De   0x4
    535  g_ui32TempcoADCslot        0x10000130   Lc    2  Data  De   0x4
    536  g_pfTempMeasured           0x10000134   Lc    2  Data  De   0x4
    537  ..\am_bsp_pins.c           0x00000000   Lc  Abs  File  De 
    538  ../am_bsp_pins.c           0x00000000   Lc  Abs  File  De 
    539  .data                      0x10000138   Lc    2  Sect  De   0x4
    540  .data                      0x1000013c   Lc    2  Sect  De   0x4
    541  .data                      0x10000140   Lc    2  Sect  De   0x4
    542  .data                      0x10000144   Lc    2  Sect  De   0x4
    543  .data                      0x10000148   Lc    2  Sect  De   0x4
    544  .data                      0x1000014c   Lc    2  Sect  De   0x4
    545  .data                      0x10000150   Lc    2  Sect  De   0x4
    546  .data                      0x10000154   Lc    2  Sect  De   0x4
    547  .data                      0x10000158   Lc    2  Sect  De   0x4
    548  .data                      0x1000015c   Lc    2  Sect  De   0x4
    549  .data                      0x10000160   Lc    2  Sect  De   0x4
    550  .data                      0x10000164   Lc    2  Sect  De   0x4
    551  .data                      0x10000168   Lc    2  Sect  De   0x4
    552  .data                      0x1000016c   Lc    2  Sect  De   0x4
    553  .data                      0x10000170   Lc    2  Sect  De   0x4
    554  .data                      0x10000174   Lc    2  Sect  De   0x4
    555  .data                      0x10000178   Lc    2  Sect  De   0x4
    556  .data                      0x1000017c   Lc    2  Sect  De   0x4
    557  .data                      0x10000180   Lc    2  Sect  De   0x4
    558  .data                      0x10000184   Lc    2  Sect  De   0x4
    559  .data                      0x10000188   Lc    2  Sect  De   0x4
    560  .data                      0x1000018c   Lc    2  Sect  De   0x4
    561  .data                      0x10000190   Lc    2  Sect  De   0x4
    562  .data                      0x10000194   Lc    2  Sect  De   0x4
    563  .data                      0x10000198   Lc    2  Sect  De   0x4
    564  .data                      0x1000019c   Lc    2  Sect  De   0x4
    565  .data                      0x100001a0   Lc    2  Sect  De   0x4
    566  .data                      0x100001a4   Lc    2  Sect  De   0x4
    567  .data                      0x100001a8   Lc    2  Sect  De   0x4
    568  .data                      0x100001ac   Lc    2  Sect  De   0x4
    569  .data                      0x100001b0   Lc    2  Sect  De   0x4
    570  .data                      0x100001b4   Lc    2  Sect  De   0x4
    571  .data                      0x100001b8   Lc    2  Sect  De   0x4
    572  .data                      0x100001bc   Lc    2  Sect  De   0x4
    573  .data                      0x100001c0   Lc    2  Sect  De   0x4
    574  .data                      0x100001c4   Lc    2  Sect  De   0x4
    575  .data                      0x100001c8   Lc    2  Sect  De   0x4
    576  .data                      0x100001cc   Lc    2  Sect  De   0x4
    577  .data                      0x100001d0   Lc    2  Sect  De   0x4
    578  .data                      0x100001d4   Lc    2  Sect  De   0x4
    579  .data                      0x100001d8   Lc    2  Sect  De   0x4
    580  .data                      0x100001dc   Lc    2  Sect  De   0x4
    581  .data                      0x100001e0   Lc    2  Sect  De   0x4
    582  .data                      0x100001e4   Lc    2  Sect  De   0x4
    583  .data                      0x100001e8   Lc    2  Sect  De   0x4
    584  .data                      0x100001ec   Lc    2  Sect  De   0x4
    585  ..\..\..\..\..\mcu\apollo4p\hal\mcu\am_hal_mram.c
                                    0x00000000   Lc  Abs  File  De 
    586  ../../../../../mcu/apollo4p/hal/mcu/am_hal_mram.c
                                    0x00000000   Lc  Abs  File  De 
    587  i.am_hal_mram_info_read    0x0001ac54   Lc    1  Sect  De 
    588  ..\..\..\..\..\mcu\apollo4p\hal\am_hal_adc.c
                                    0x00000000   Lc  Abs  File  De 
    589  ../../../../../mcu/apollo4p/hal/am_hal_adc.c
                                    0x00000000   Lc  Abs  File  De 
    590  ..\..\..\..\..\mcu\apollo4p\hal\am_hal_pin.c
                                    0x00000000   Lc  Abs  File  De 
    591  ../../../../../mcu/apollo4p/hal/am_hal_pin.c
                                    0x00000000   Lc  Abs  File  De 
    592  ..\..\..\..\..\mcu\apollo4p\hal\am_hal_queue.c
                                    0x00000000   Lc  Abs  File  De 
    593  ../../../../../mcu/apollo4p/hal/am_hal_queue.c
                                    0x00000000   Lc  Abs  File  De 
    594  dc.s                       0x00000000   Lc  Abs  File  De 
    595  ../clib/longlong.s         0x00000000   Lc  Abs  File  De 
    596  .text                      0x0001838c   Lc    1  Sect  De   0x26
    597  ../clib/longlong.s         0x00000000   Lc  Abs  File  De 
    598  .text                      0x000183b2   Lc    1  Sect  De   0x26
    599  ../clib/string.c           0x00000000   Lc  Abs  File  De 
    600  .text                      0x000183d8   Lc    1  Sect  De 
    601  ../clib/memcpset.s         0x00000000   Lc  Abs  File  De 
    602  .text                      0x00018430   Lc    1  Sect  De   0x8a
    603  ../clib/memcpset.s         0x00000000   Lc  Abs  File  De 
    604  .text                      0x000184ba   Lc    1  Sect  De   0x4e
    605  ../clib/heapaux.c          0x00000000   Lc  Abs  File  De 
    606  .text                      0x00018508   Lc    1  Sect  De 
    607  ../clib/angel/startup.s    0x00000000   Lc  Abs  File  De 
    608  !!!main                    0x00018234   Lc    1  Sect  De   0x8
    609  ../clib/angel/handlers.s   0x00000000   Lc  Abs  File  De 
    610  !!handler_copy             0x000182cc   Lc    1  Sect  De   0x1a
    611  ../fplib/d2f.s             0x00000000   Lc  Abs  File  De 
    612  x$fpl$d2f                  0x0001f3b4   Lc    1  Sect  De   0x62
    613  $v0                        0x0001f3b4   Lc    1   --   De 
    614  ../clib/angel/kernel.s     0x00000000   Lc  Abs  File  De 
    615  .ARM.Collect$$rtentry$$00000000
                                    0x00018310   Lc    1  Sect  De 
    616  ../clib/memcpset.s         0x00000000   Lc  Abs  File  De 
    617  .text                      0x0001850e   Lc    1  Sect  De   0x64
    618  ../fplib/dnaninf.s         0x00000000   Lc  Abs  File  De 
    619  x$fpl$dnaninf              0x0001f416   Lc    1  Sect  De   0x9c
    620  $v0                        0x0001f416   Lc    1   --   De 
    621  ../fplib/fretinf.s         0x00000000   Lc  Abs  File  De 
    622  x$fpl$fretinf              0x0001f4bc   Lc    1  Sect  De   0xa
    623  $v0                        0x0001f4bc   Lc    1   --   De 
    624  ../fplib/usenofp.s         0x00000000   Lc  Abs  File  De 
    625  x$fpl$usenofp              0x0001f4c6   Lc    1  Sect  De 
    626  ../clib/angel/kernel.s     0x00000000   Lc  Abs  File  De 
    627  .ARM.Collect$$rtentry$$00000002
                                    0x00018310   Lc    1  Sect  De 
    628  .ARM.Collect$$rtentry$$00000009
                                    0x00018316   Lc    1  Sect  De 
    629  .ARM.Collect$$rtentry$$0000000A
                                    0x00018316   Lc    1  Sect  De   0x4
    630  .ARM.Collect$$rtentry$$0000000C
                                    0x0001831a   Lc    1  Sect  De 
    631  .ARM.Collect$$rtentry$$0000000D
                                    0x0001831a   Lc    1  Sect  De   0x8
    632  ../clib/angel/kernel.s     0x00000000   Lc  Abs  File  De 
    633  .ARM.Collect$$rtentry$$00000004
                                    0x00018310   Lc    1  Sect  De   0x6
    634  ../clib/angel/sys.s        0x00000000   Lc  Abs  File  De 
    635  .text                      0x00018572   Lc    1  Sect  De   0x4a
    636  ../clib/stdlib.c           0x00000000   Lc  Abs  File  De 
    637  .text                      0x000185bc   Lc    1  Sect  De 
    638  ../clib/angel/boardlib.s   0x00000000   Lc  Abs  File  De 
    639  ../clib/angel/boardlib.s   0x00000000   Lc  Abs  File  De 
    640  ../clib/angel/boardlib.s   0x00000000   Lc  Abs  File  De 
    641  ../clib/libinit.s          0x00000000   Lc  Abs  File  De 
    642  .ARM.Collect$$libinit$$00000000
                                    0x00018304   Lc    1  Sect  De   0x2
    643  ../clib/angel/sys.s        0x00000000   Lc  Abs  File  De 
    644  .text                      0x000185d0   Lc    1  Sect  De   0x8
    645  .bss                       0x10004d64   Lc    3  Sect  De   0x60
    646  ../clib/angel/kernel.s     0x00000000   Lc  Abs  File  De 
    647  .ARM.Collect$$rtexit$$00000000
                                    0x00018322   Lc    1  Sect  De   0x2
    648  ../clib/libinit.s          0x00000000   Lc  Abs  File  De 
    649  .ARM.Collect$$libinit$$00000001
                                    0x00018306   Lc    1  Sect  De   0x4
    650  .ARM.Collect$$libinit$$00000004
                                    0x0001830a   Lc    1  Sect  De 
    651  .ARM.Collect$$libinit$$0000000A
                                    0x0001830a   Lc    1  Sect  De 
    652  .ARM.Collect$$libinit$$0000000C
                                    0x0001830a   Lc    1  Sect  De 
    653  .ARM.Collect$$libinit$$0000000E
                                    0x0001830a   Lc    1  Sect  De 
    654  .ARM.Collect$$libinit$$00000011
                                    0x0001830a   Lc    1  Sect  De 
    655  .ARM.Collect$$libinit$$00000013
                                    0x0001830a   Lc    1  Sect  De 
    656  .ARM.Collect$$libinit$$00000015
                                    0x0001830a   Lc    1  Sect  De 
    657  .ARM.Collect$$libinit$$00000017
                                    0x0001830a   Lc    1  Sect  De 
    658  .ARM.Collect$$libinit$$00000019
                                    0x0001830a   Lc    1  Sect  De 
    659  .ARM.Collect$$libinit$$0000001B
                                    0x0001830a   Lc    1  Sect  De 
    660  .ARM.Collect$$libinit$$0000001D
                                    0x0001830a   Lc    1  Sect  De 
    661  .ARM.Collect$$libinit$$0000001F
                                    0x0001830a   Lc    1  Sect  De 
    662  .ARM.Collect$$libinit$$00000021
                                    0x0001830a   Lc    1  Sect  De 
    663  .ARM.Collect$$libinit$$00000023
                                    0x0001830a   Lc    1  Sect  De 
    664  .ARM.Collect$$libinit$$00000025
                                    0x0001830a   Lc    1  Sect  De 
    665  .ARM.Collect$$libinit$$0000002C
                                    0x0001830a   Lc    1  Sect  De 
    666  .ARM.Collect$$libinit$$0000002E
                                    0x0001830a   Lc    1  Sect  De 
    667  .ARM.Collect$$libinit$$00000030
                                    0x0001830a   Lc    1  Sect  De 
    668  .ARM.Collect$$libinit$$00000032
                                    0x0001830a   Lc    1  Sect  De 
    669  .ARM.Collect$$libinit$$00000033
                                    0x0001830a   Lc    1  Sect  De   0x2
    670  ../clib/angel/kernel.s     0x00000000   Lc  Abs  File  De 
    671  .ARM.Collect$$rtexit$$00000002
                                    0x00018324   Lc    1  Sect  De 
    672  .ARM.Collect$$rtexit$$00000003
                                    0x00018324   Lc    1  Sect  De   0x4
    673  .ARM.Collect$$rtexit$$00000004
                                    0x00018328   Lc    1  Sect  De   0x6
    674  ../clib/armsys.c           0x00000000   Lc  Abs  File  De 
    675  ../clib/armsys.c           0x00000000   Lc  Abs  File  De 
    676  ../fplib/fpinit.s          0x00000000   Lc  Abs  File  De 
    677  x$fpl$fpinit               0x0001f4b2   Lc    1  Sect  De   0xa
    678  $v0                        0x0001f4b2   Lc    1   --   De 
    679  ../clib/angel/sysapp.c     0x00000000   Lc  Abs  File  De 
    680  .text                      0x000185d8   Lc    1  Sect  De 
    681  ../clib/angel/boardlib.s   0x00000000   Lc  Abs  File  De 
    682  ../clib/armsys.c           0x00000000   Lc  Abs  File  De 
    683  ../clib/armsys.c           0x00000000   Lc  Abs  File  De 
    684  ../clib/libinit.s          0x00000000   Lc  Abs  File  De 
    685  .ARM.Collect$$libshutdown$$00000000
                                    0x0001830c   Lc    1  Sect  De   0x2
    686  ../clib/angel/sysapp.c     0x00000000   Lc  Abs  File  De 
    687  ../clib/angel/sys.s        0x00000000   Lc  Abs  File  De 
    688  .text                      0x000185e4   Lc    1  Sect  De   0x2
    689  ../clib/angel/sys.s        0x00000000   Lc  Abs  File  De 
    690  .text                      0x000185e6   Lc    1  Sect  De 
    691  ../clib/heapalloc.c        0x00000000   Lc  Abs  File  De 
    692  ../clib/signal.c           0x00000000   Lc  Abs  File  De 
    693  ../clib/signal.c           0x00000000   Lc  Abs  File  De 
    694  ../clib/libinit.s          0x00000000   Lc  Abs  File  De 
    695  .ARM.Collect$$libshutdown$$00000002
                                    0x0001830e   Lc    1  Sect  De 
    696  .ARM.Collect$$libshutdown$$00000004
                                    0x0001830e   Lc    1  Sect  De 
    697  .ARM.Collect$$libshutdown$$00000007
                                    0x0001830e   Lc    1  Sect  De 
    698  .ARM.Collect$$libshutdown$$0000000A
                                    0x0001830e   Lc    1  Sect  De 
    699  .ARM.Collect$$libshutdown$$0000000C
                                    0x0001830e   Lc    1  Sect  De 
    700  .ARM.Collect$$libshutdown$$0000000F
                                    0x0001830e   Lc    1  Sect  De 
    701  .ARM.Collect$$libshutdown$$00000010
                                    0x0001830e   Lc    1  Sect  De   0x2
    702  ../clib/angel/rt.s         0x00000000   Lc  Abs  File  De 
    703  ../clib/signal.c           0x00000000   Lc  Abs  File  De 
    704  ../clib/signal.c           0x00000000   Lc  Abs  File  De 
    705  ../clib/signal.c           0x00000000   Lc  Abs  File  De 
    706  ../clib/signal.c           0x00000000   Lc  Abs  File  De 
    707  ../clib/angel/sysapp.c     0x00000000   Lc  Abs  File  De 
    708  ../clib/signal.s           0x00000000   Lc  Abs  File  De 
    709  ../clib/signal.c           0x00000000   Lc  Abs  File  De 
    710  ../clib/signal.c           0x00000000   Lc  Abs  File  De 
    711  ../clib/signal.c           0x00000000   Lc  Abs  File  De 
    712  ../clib/signal.c           0x00000000   Lc  Abs  File  De 
    713  ../clib/signal.c           0x00000000   Lc  Abs  File  De 
    714  ../clib/signal.c           0x00000000   Lc  Abs  File  De 
    715  ../clib/signal.c           0x00000000   Lc  Abs  File  De 
    716  ../clib/signal.c           0x00000000   Lc  Abs  File  De 
    717  ../clib/angel/dczerorl2.s  0x00000000   Lc  Abs  File  De 
    718  !!dczerorl2                0x00018270   Lc    1  Sect  De   0x5a
    719  ../clib/angel/scatter.s    0x00000000   Lc  Abs  File  De 
    720  !!!scatter                 0x0001823c   Lc    1  Sect  De   0x34
    721  ../clib/angel/handlers.s   0x00000000   Lc  Abs  File  De 
    722  !!handler_zi               0x000182e8   Lc    1  Sect  De   0x1c
    723  BuildAttributes$$THM_ISAv4$E$P$D$K$B$S$7EM$VFPi3$EXTD16$VFPS$VFMA$PE$A:L22UL41UL21$X:L11$S22US41US21$IEEE1$IW$USESV6$~STKCKD$USESV7$~SHL$OTIME$ROPI$EBA8$UX$STANDARDLIB$REQ8$PRES8$EABIv2
                                    0x00000000   Gb  Abs   --   Hi 
    724  __ARM_use_no_argv          0x00000000   Gb  Abs   --   Hi 
    725  __Vectors                  0x00018000   Gb    1  Data  Hi 
    726  __Patchable                0x00018190   Gb    1  Data  Hi 
    727  Reset_Handler              0x00018201   Wk    1  Code  Hi   0x1c
    728  NMI_Handler                0x0001821f   Wk    1  Code  Hi   0x2
    729  MemManage_Handler          0x00018221   Wk    1  Code  Hi   0x2
    730  BusFault_Handler           0x00018223   Wk    1  Code  Hi   0x2
    731  UsageFault_Handler         0x00018225   Wk    1  Code  Hi   0x2
    732  SVC_Handler                0x00018227   Wk    1  Code  Hi   0x2
    733  DebugMon_Handler           0x00018229   Wk    1  Code  Hi   0x2
    734  PendSV_Handler             0x0001822b   Wk    1  Code  Hi   0x2
    735  SysTick_Handler            0x0001822d   Wk    1  Code  Hi   0x2
    736  am_adc_isr                 0x0001822f   Wk    1  Code  Hi 
    737  am_audadc0_isr             0x0001822f   Wk    1  Code  Hi 
    738  am_brownout_isr            0x0001822f   Wk    1  Code  Hi 
    739  am_cachecpu_isr            0x0001822f   Wk    1  Code  Hi 
    740  am_clkgen_isr              0x0001822f   Wk    1  Code  Hi 
    741  am_ctimer_isr              0x0001822f   Wk    1  Code  Hi 
    742  am_disp_isr                0x0001822f   Wk    1  Code  Hi 
    743  am_dsi_isr                 0x0001822f   Wk    1  Code  Hi 
    744  am_dspi2s0_isr             0x0001822f   Wk    1  Code  Hi 
    745  am_dspi2s1_isr             0x0001822f   Wk    1  Code  Hi 
    746  am_dspi2s2_isr             0x0001822f   Wk    1  Code  Hi 
    747  am_dspi2s3_isr             0x0001822f   Wk    1  Code  Hi 
    748  am_gpio0_001f_isr          0x0001822f   Wk    1  Code  Hi 
    749  am_gpio0_203f_isr          0x0001822f   Wk    1  Code  Hi 
    750  am_gpio0_405f_isr          0x0001822f   Wk    1  Code  Hi 
    751  am_gpio0_607f_isr          0x0001822f   Wk    1  Code  Hi 
    752  am_gpio1_001f_isr          0x0001822f   Wk    1  Code  Hi 
    753  am_gpio1_203f_isr          0x0001822f   Wk    1  Code  Hi 
    754  am_gpio1_405f_isr          0x0001822f   Wk    1  Code  Hi 
    755  am_gpio1_607f_isr          0x0001822f   Wk    1  Code  Hi 
    756  am_gpu_isr                 0x0001822f   Wk    1  Code  Hi 
    757  am_iomaster0_isr           0x0001822f   Wk    1  Code  Hi 
    758  am_iomaster1_isr           0x0001822f   Wk    1  Code  Hi 
    759  am_iomaster2_isr           0x0001822f   Wk    1  Code  Hi 
    760  am_iomaster3_isr           0x0001822f   Wk    1  Code  Hi 
    761  am_iomaster4_isr           0x0001822f   Wk    1  Code  Hi 
    762  am_iomaster5_isr           0x0001822f   Wk    1  Code  Hi 
    763  am_iomaster6_isr           0x0001822f   Wk    1  Code  Hi 
    764  am_iomaster7_isr           0x0001822f   Wk    1  Code  Hi 
    765  am_ioslave_acc_isr         0x0001822f   Wk    1  Code  Hi 
    766  am_ioslave_ios_isr         0x0001822f   Wk    1  Code  Hi 
    767  am_mspi0_isr               0x0001822f   Wk    1  Code  Hi 
    768  am_mspi1_isr               0x0001822f   Wk    1  Code  Hi 
    769  am_pdm0_isr                0x0001822f   Wk    1  Code  Hi 
    770  am_pdm1_isr                0x0001822f   Wk    1  Code  Hi 
    771  am_pdm2_isr                0x0001822f   Wk    1  Code  Hi 
    772  am_pdm3_isr                0x0001822f   Wk    1  Code  Hi 
    773  am_rtc_isr                 0x0001822f   Wk    1  Code  Hi 
    774  am_sdio_isr                0x0001822f   Wk    1  Code  Hi 
    775  am_stimer_cmpr0_isr        0x0001822f   Wk    1  Code  Hi 
    776  am_stimer_cmpr1_isr        0x0001822f   Wk    1  Code  Hi 
    777  am_stimer_cmpr2_isr        0x0001822f   Wk    1  Code  Hi 
    778  am_stimer_cmpr3_isr        0x0001822f   Wk    1  Code  Hi 
    779  am_stimer_cmpr4_isr        0x0001822f   Wk    1  Code  Hi 
    780  am_stimer_cmpr5_isr        0x0001822f   Wk    1  Code  Hi 
    781  am_stimer_cmpr6_isr        0x0001822f   Wk    1  Code  Hi 
    782  am_stimer_cmpr7_isr        0x0001822f   Wk    1  Code  Hi 
    783  am_stimerof_isr            0x0001822f   Wk    1  Code  Hi 
    784  am_timer00_isr             0x0001822f   Wk    1  Code  Hi 
    785  am_timer01_isr             0x0001822f   Wk    1  Code  Hi 
    786  am_timer02_isr             0x0001822f   Wk    1  Code  Hi 
    787  am_timer03_isr             0x0001822f   Wk    1  Code  Hi 
    788  am_timer04_isr             0x0001822f   Wk    1  Code  Hi 
    789  am_timer05_isr             0x0001822f   Wk    1  Code  Hi 
    790  am_timer06_isr             0x0001822f   Wk    1  Code  Hi 
    791  am_timer07_isr             0x0001822f   Wk    1  Code  Hi 
    792  am_timer08_isr             0x0001822f   Wk    1  Code  Hi 
    793  am_timer09_isr             0x0001822f   Wk    1  Code  Hi 
    794  am_timer10_isr             0x0001822f   Wk    1  Code  Hi 
    795  am_timer11_isr             0x0001822f   Wk    1  Code  Hi 
    796  am_timer12_isr             0x0001822f   Wk    1  Code  Hi 
    797  am_timer13_isr             0x0001822f   Wk    1  Code  Hi 
    798  am_timer14_isr             0x0001822f   Wk    1  Code  Hi 
    799  am_timer15_isr             0x0001822f   Wk    1  Code  Hi 
    800  am_uart1_isr               0x0001822f   Wk    1  Code  Hi 
    801  am_uart2_isr               0x0001822f   Wk    1  Code  Hi 
    802  am_uart3_isr               0x0001822f   Wk    1  Code  Hi 
    803  am_uart_isr                0x0001822f   Wk    1  Code  Hi 
    804  am_usb_isr                 0x0001822f   Wk    1  Code  Hi 
    805  am_vcomp_isr               0x0001822f   Wk    1  Code  Hi 
    806  am_watchdog_isr            0x0001822f   Wk    1  Code  Hi 
    807  __main                     0x00018235   Gb    1  Code  Hi   0x8
    808  __scatterload              0x0001823d   Gb    1  Code  Hi 
    809  __scatterload_rt2          0x0001823d   Gb    1  Code  Hi   0x2c
    810  __scatterload_rt2_thumb_only
                                    0x0001823d   Gb    1  Code  Hi 
    811  __scatterload_null         0x0001824b   Gb    1  Code  Hi 
    812  __decompress               0x00018271   Gb    1  Code  Hi   0x5a
    813  __decompress1              0x00018271   Gb    1  Code  Hi 
    814  __scatterload_copy         0x000182cd   Gb    1  Code  Hi   0x1a
    815  __scatterload_zeroinit     0x000182e9   Gb    1  Code  Hi   0x1c
    816  __rt_lib_init              0x00018305   Gb    1  Code  De 
    817  __rt_lib_init_fp_1         0x00018307   Gb    1  Code  Hi 
    818  __rt_lib_init_alloca_1     0x0001830b   Gb    1  Code  Hi 
    819  __rt_lib_init_argv_1       0x0001830b   Gb    1  Code  Hi 
    820  __rt_lib_init_atexit_1     0x0001830b   Gb    1  Code  Hi 
    821  __rt_lib_init_clock_1      0x0001830b   Gb    1  Code  Hi 
    822  __rt_lib_init_cpp_1        0x0001830b   Gb    1  Code  Hi 
    823  __rt_lib_init_exceptions_1 0x0001830b   Gb    1  Code  Hi 
    824  __rt_lib_init_fp_trap_1    0x0001830b   Gb    1  Code  Hi 
    825  __rt_lib_init_getenv_1     0x0001830b   Gb    1  Code  Hi 
    826  __rt_lib_init_heap_1       0x0001830b   Gb    1  Code  Hi 
    827  __rt_lib_init_lc_collate_1 0x0001830b   Gb    1  Code  Hi 
    828  __rt_lib_init_lc_ctype_1   0x0001830b   Gb    1  Code  Hi 
    829  __rt_lib_init_lc_monetary_1
                                    0x0001830b   Gb    1  Code  Hi 
    830  __rt_lib_init_lc_numeric_1 0x0001830b   Gb    1  Code  Hi 
    831  __rt_lib_init_lc_time_1    0x0001830b   Gb    1  Code  Hi 
    832  __rt_lib_init_preinit_1    0x0001830b   Gb    1  Code  Hi 
    833  __rt_lib_init_rand_1       0x0001830b   Gb    1  Code  Hi 
    834  __rt_lib_init_return       0x0001830b   Gb    1  Code  Hi 
    835  __rt_lib_init_signal_1     0x0001830b   Gb    1  Code  Hi 
    836  __rt_lib_init_stdio_1      0x0001830b   Gb    1  Code  Hi 
    837  __rt_lib_init_user_alloc_1 0x0001830b   Gb    1  Code  Hi 
    838  __rt_lib_shutdown          0x0001830d   Gb    1  Code  De 
    839  __rt_lib_shutdown_cpp_1    0x0001830f   Gb    1  Code  Hi 
    840  __rt_lib_shutdown_fp_trap_1
                                    0x0001830f   Gb    1  Code  Hi 
    841  __rt_lib_shutdown_heap_1   0x0001830f   Gb    1  Code  Hi 
    842  __rt_lib_shutdown_return   0x0001830f   Gb    1  Code  Hi 
    843  __rt_lib_shutdown_signal_1 0x0001830f   Gb    1  Code  Hi 
    844  __rt_lib_shutdown_stdio_1  0x0001830f   Gb    1  Code  Hi 
    845  __rt_lib_shutdown_user_alloc_1
                                    0x0001830f   Gb    1  Code  Hi 
    846  __rt_entry                 0x00018311   Gb    1  Code  Hi 
    847  __rt_entry_presh_1         0x00018311   Gb    1  Code  Hi 
    848  __rt_entry_sh              0x00018311   Gb    1  Code  Hi 
    849  __rt_entry_li              0x00018317   Gb    1  Code  Hi 
    850  __rt_entry_postsh_1        0x00018317   Gb    1  Code  Hi 
    851  __rt_entry_main            0x0001831b   Gb    1  Code  Hi 
    852  __rt_entry_postli_1        0x0001831b   Gb    1  Code  Hi 
    853  __rt_exit                  0x00018323   Gb    1  Code  De 
    854  __rt_exit_ls               0x00018325   Gb    1  Code  Hi 
    855  __rt_exit_prels_1          0x00018325   Gb    1  Code  Hi 
    856  __rt_exit_exit             0x00018329   Gb    1  Code  Hi 
    857  HardFault_Handler          0x00018331   Gb    1  Code  Hi   0x20
    858  getStackedReg              0x00018355   Gb    1  Code  Hi   0x8
    859  am_hal_interrupt_master_enable
                                    0x0001835d   Gb    1  Code  Hi   0x8
    860  am_hal_interrupt_master_disable
                                    0x00018365   Gb    1  Code  Hi   0x8
    861  am_hal_interrupt_master_set
                                    0x0001836d   Gb    1  Code  Hi   0x6
    862  __user_initial_stackheap   0x00018375   Gb    1  Code  Hi   0xa
    863  __aeabi_llsl               0x0001838d   Gb    1  Code  Hi 
    864  _ll_shift_l                0x0001838d   Gb    1  Code  De   0x26
    865  __aeabi_llsr               0x000183b3   Gb    1  Code  Hi 
    866  _ll_ushift_r               0x000183b3   Gb    1  Code  De   0x26
    867  memcmp                     0x000183d9   Gb    1  Code  Hi   0x58
    868  __aeabi_memcpy             0x00018431   Gb    1  Code  Hi 
    869  __rt_memcpy                0x00018431   Gb    1  Code  De   0x8a
    870  _memcpy_lastbytes          0x00018497   Gb    1  Code  De 
    871  __aeabi_memclr4            0x000184bb   Gb    1  Code  Hi 
    872  __aeabi_memclr8            0x000184bb   Gb    1  Code  De 
    873  __rt_memclr_w              0x000184bb   Gb    1  Code  De   0x4e
    874  _memset_w                  0x000184bf   Gb    1  Code  De 
    875  __use_two_region_memory    0x00018509   Gb    1  Code  Hi   0x2
    876  __rt_heap_escrow$2region   0x0001850b   Gb    1  Code  De   0x2
    877  __rt_heap_expand$2region   0x0001850d   Gb    1  Code  De   0x2
    878  __aeabi_memcpy4            0x0001850f   Gb    1  Code  De 
    879  __aeabi_memcpy8            0x0001850f   Gb    1  Code  De 
    880  __rt_memcpy_w              0x0001850f   Gb    1  Code  De   0x64
    881  _memcpy_lastbytes_aligned  0x00018557   Gb    1  Code  De 
    882  __user_setup_stackheap     0x00018573   Gb    1  Code  De   0x4a
    883  exit                       0x000185bd   Gb    1  Code  De   0x12
    884  __user_libspace            0x000185d1   Wk    1  Code  De   0x8
    885  __user_perproc_libspace    0x000185d1   Wk    1  Code  De 
    886  __user_perthread_libspace  0x000185d1   Wk    1  Code  De 
    887  _sys_exit                  0x000185d9   Gb    1  Code  De   0x8
    888  __I$use$semihosting        0x000185e5   Gb    1  Code  Hi 
    889  __use_no_semihosting_swi   0x000185e5   Gb    1  Code  Hi   0x2
    890  __ARM_common_memcpy4_5     0x000185e7   Gb    1  Code  Hi   0xa
    891  __semihosting_library_function
                                    0x000185e7   Gb    1  Code  Hi 
    892  am_bsp_itm_printf_enable   0x000185f1   Gb    1  Code  Hi   0x60
    893  am_bsp_low_power_init      0x00018669   Gb    1  Code  Hi   0x16
    894  am_bsp_mspi_pins_enable    0x00018681   Gb    1  Code  Hi   0x8ac
    895  am_devices_mspi_ds35x1ga_apply_sdr_timing
                                    0x00019035   Gb    1  Code  Hi   0x66
    896  am_devices_mspi_ds35x1ga_block_erase
                                    0x000190a9   Gb    1  Code  Hi   0xae
    897  am_devices_mspi_ds35x1ga_deinit
                                    0x000192cd   Gb    1  Code  Hi   0x80
    898  am_devices_mspi_ds35x1ga_id
                                    0x000193c5   Gb    1  Code  Hi   0x52
    899  am_devices_mspi_ds35x1ga_init
                                    0x00019419   Gb    1  Code  Hi   0x2b2
    900  am_devices_mspi_ds35x1ga_read
                                    0x00019835   Gb    1  Code  Hi   0x12c
    901  am_devices_mspi_ds35x1ga_sdr_init_timing_check
                                    0x00019a01   Gb    1  Code  Hi   0x1bc
    902  am_devices_mspi_ds35x1ga_write
                                    0x00019ec5   Gb    1  Code  Hi   0x138
    903  am_hal_cachectrl_config    0x0001a05b   Gb    1  Code  Hi   0x48
    904  am_hal_cachectrl_enable    0x0001a0a3   Gb    1  Code  Hi   0x18
    905  am_hal_cmdq_alloc_block    0x0001a0bd   Gb    1  Code  Hi   0xc8
    906  am_hal_cmdq_disable        0x0001a189   Gb    1  Code  Hi   0x3c
    907  am_hal_cmdq_enable         0x0001a1c9   Gb    1  Code  Hi   0x4e
    908  am_hal_cmdq_error_resume   0x0001a221   Gb    1  Code  Hi   0x70
    909  am_hal_cmdq_get_status     0x0001a295   Gb    1  Code  Hi   0x9e
    910  am_hal_cmdq_init           0x0001a339   Gb    1  Code  Hi   0xe2
    911  am_hal_cmdq_post_block     0x0001a429   Gb    1  Code  Hi   0x5a
    912  am_hal_cmdq_post_loop_block
                                    0x0001a48d   Gb    1  Code  Hi   0x68
    913  am_hal_cmdq_release_block  0x0001a4fd   Gb    1  Code  Hi   0x32
    914  am_hal_cmdq_reset          0x0001a535   Gb    1  Code  Hi   0x5e
    915  am_hal_cmdq_term           0x0001a599   Gb    1  Code  Hi   0x84
    916  am_hal_daxi_config         0x0001a621   Gb    1  Code  Hi   0x90
    917  am_hal_daxi_control        0x0001a6b9   Gb    1  Code  Hi   0x76
    918  am_hal_dcu_get             0x0001a739   Gb    1  Code  Hi   0x84
    919  am_hal_dcu_update          0x0001a7c9   Gb    1  Code  Hi   0xd6
    920  am_hal_delay_us            0x0001a8ad   Gb    1  Code  Hi   0x22
    921  am_hal_delay_us_status_change
                                    0x0001a8d9   Gb    1  Code  Hi   0x50
    922  am_hal_delay_us_status_check
                                    0x0001a931   Gb    1  Code  Hi   0x5c
    923  am_hal_fault_capture_enable
                                    0x0001a995   Gb    1  Code  Hi   0x12
    924  am_hal_fault_status_get    0x0001a9a7   Gb    1  Code  Hi   0x3e
    925  am_hal_gpio_pinconfig      0x0001a9e5   Gb    1  Code  Hi   0x4c
    926  am_hal_gpio_state_write    0x0001aa39   Gb    1  Code  Hi   0x72
    927  am_hal_itm_enable          0x0001aaad   Gb    1  Code  Hi   0x2c
    928  am_hal_itm_print           0x0001aaf5   Gb    1  Code  Hi   0x30
    929  am_hal_mcuctrl_info_get    0x0001ab25   Gb    1  Code  Hi   0x10c
    930  am_hal_mram_info_read      0x0001ac55   Gb    1  Code  Hi   0x6c
    931  am_hal_mspi_blocking_transfer
                                    0x0001acc5   Gb    1  Code  Hi   0x234
    932  am_hal_mspi_configure      0x0001af09   Gb    1  Code  Hi   0xd8
    933  am_hal_mspi_control        0x0001aff1   Gb    1  Code  Hi   0xcea
    934  am_hal_mspi_deinitialize   0x0001bce9   Gb    1  Code  Hi   0xa8
    935  am_hal_mspi_device_configure
                                    0x0001bd99   Gb    1  Code  Hi   0x20e
    936  am_hal_mspi_disable        0x0001bfb1   Gb    1  Code  Hi   0x96
    937  am_hal_mspi_enable         0x0001c051   Gb    1  Code  Hi   0xa8
    938  am_hal_mspi_initialize     0x0001c105   Gb    1  Code  Hi   0x4c
    939  am_hal_mspi_interrupt_clear
                                    0x0001c159   Gb    1  Code  Hi   0x2e
    940  am_hal_mspi_interrupt_disable
                                    0x0001c18d   Gb    1  Code  Hi   0x36
    941  am_hal_mspi_interrupt_enable
                                    0x0001c1c9   Gb    1  Code  Hi   0x34
    942  am_hal_mspi_interrupt_service
                                    0x0001c201   Gb    1  Code  Hi   0x2b8
    943  am_hal_mspi_interrupt_status_get
                                    0x0001c4c1   Gb    1  Code  Hi   0x42
    944  am_hal_mspi_nonblocking_transfer
                                    0x0001c509   Gb    1  Code  Hi   0x172
    945  am_hal_mspi_power_control  0x0001c685   Gb    1  Code  Hi   0x480
    946  am_hal_pwrctrl_control     0x0001cb05   Gb    1  Code  Hi   0x214
    947  am_hal_pwrctrl_low_power_init
                                    0x0001cd2d   Gb    1  Code  Hi   0x110
    948  am_hal_pwrctrl_mcu_memory_config
                                    0x0001ce59   Gb    1  Code  Hi   0x114
    949  am_hal_pwrctrl_periph_disable
                                    0x0001cf75   Gb    1  Code  Hi   0x112
    950  am_hal_pwrctrl_periph_enable
                                    0x0001d0a1   Gb    1  Code  Hi   0xa6
    951  am_hal_pwrctrl_sram_config 0x0001d155   Gb    1  Code  Hi   0x9e
    952  am_hal_rtc_osc_disable     0x0001d1fd   Gb    1  Code  Hi   0xe
    953  am_hal_sysctrl_sleep       0x0001d211   Gb    1  Code  Hi   0xd2
    954  am_hal_tpiu_enable         0x0001d2f9   Gb    1  Code  Hi   0x52
    955  am_mspi2_isr               0x0001d365   Gb    1  Code  Hi   0x24
    956  am_util_delay_us           0x0001d38d   Gb    1  Code  Hi   0xc
    957  am_util_faultisr_collect_data
                                    0x0001d399   Gb    1  Code  Hi   0x20a
    958  am_util_id_device          0x0001d909   Gb    1  Code  Hi   0xa6
    959  am_util_stdio_printf       0x0001d9d1   Gb    1  Code  Hi   0x32
    960  am_util_stdio_printf_init  0x0001da0d   Gb    1  Code  Hi   0x6
    961  am_util_stdio_terminal_clear
                                    0x0001da19   Gb    1  Code  Hi   0xa
    962  am_util_stdio_vsprintf     0x0001da39   Gb    1  Code  Hi   0x3a4
    963  am_valid_sp                0x0001dded   Gb    1  Code  Hi   0x16
    964  buck_ldo_update_override   0x0001de09   Gb    1  Code  Hi   0x1c
    965  build_dma_cmdlist          0x0001de29   Gb    1  Code  Hi   0x16e
    966  clkfreq_string             0x0001dfe1   Gb    1  Code  Hi   0x62
    967  crypto_boost_trims         0x0001e0ad   Gb    1  Code  Hi   0xa6
    968  main                       0x0001e4e1   Gb    1  Code  Hi   0x1f4
    969  __aeabi_d2f                0x0001f3b5   Gb    1  Code  Hi 
    970  _d2f                       0x0001f3b5   Gb    1  Code  De   0x62
    971  __fpl_dnaninf              0x0001f417   Gb    1  Code  De   0x9c
    972  _fp_init                   0x0001f4b3   Gb    1  Code  De   0xa
    973  __fplib_config_fpu_vfp     0x0001f4bb   Gb    1  Code  De 
    974  __fplib_config_pureend_doubles
                                    0x0001f4bb   Gb    1  Code  De 
    975  __fpl_fretinf              0x0001f4bd   Gb    1  Code  De   0xa
    976  __I$use$fp                 0x0001f4c6   Gb    1   --   De 
    977  ui32MCUAllowed             0x0001f4e0   Gb    1  Data  Hi   0x14
    978  ui32DSP0Allowed            0x0001f4f4   Gb    1  Data  Hi   0x14
    979  ui32DSP1Allowed            0x0001f508   Gb    1  Data  Hi   0x14
    980  ui32SharedAccess           0x0001f51c   Gb    1  Data  Hi   0x14
    981  sGlobalAccess              0x0001f530   Gb    1  Data  Hi   0x1c
    982  MSPI_Serial_Flash_Config   0x0001f568   Gb    1  Data  Hi   0x14
    983  MSPI_Quad_Flash_Config     0x0001f57c   Gb    1  Data  Hi   0x14
    984  ds35x1ga_sConfigArray      0x0001f637   Gb    1  Data  Hi   0x192
    985  am_hal_cachectrl_defaults  0x0001f7d2   Gb    1  Data  Hi   0x3
    986  am_hal_daxi_defaults       0x0001f7d5   Gb    1  Data  Hi   0x5
    987  g_am_hal_bootrom_helper    0x0001f7f4   Gb    1  Data  Hi   0x28
    988  g_DefaultMcuMemCfg         0x0001f9e4   Gb    1  Data  Hi   0x6
    989  g_DefaultSRAMCfg           0x0001f9ea   Gb    1  Data  Hi   0x6
    990  am_hal_pwrctrl_peripheral_control
                                    0x0001f9f0   Gb    1  Data  Hi   0x220
    991  Region$$Table$$Base        0x0001fce8   Gb    1   --   Hi 
    992  Region$$Table$$Limit       0x0001fd18   Gb    1   --   Hi 
    993  g_FlashHdl                 0x10000000   Gb    2  Data  Hi   0x4
    994  g_MSPIHdl                  0x10000004   Gb    2  Data  Hi   0x4
    995  MSPI_Flash_Configs         0x10000010   Gb    2  Data  Hi   0x8
    996  MSPISdrTimingConfig        0x10000018   Gb    2  Data  Hi   0x6
    997  g_pfnCharPrint             0x10000020   Gb    2  Data  Hi   0x4
    998  gDaxiConfig                0x100000b3   Gb    2  Data  Hi   0x5
    999  g_sDispCfg                 0x100000c0   Gb    2  Data  Hi   0x12
    1000  gStartOff                  0x100000d8   Gb    2  Data  Hi   0x4
    1001  gpDcuEnable                0x100000dc   Gb    2  Data  Hi   0x4
    1002  gpDcuLock                  0x100000e0   Gb    2  Data  Hi   0x4
    1003  gDcuEnable                 0x100000e8   Gb    2  Data  Hi   0x8
    1004  gDcuDisable                0x100000f0   Gb    2  Data  Hi   0x8
    1005  g_eCurrPwrMode             0x100000f8   Gb    2  Data  Hi   0x1
    1006  g_ui32TrimVer              0x10000100   Gb    2  Data  Hi   0x4
    1007  g_ui32origSimobuckVDDStrim 0x10000104   Gb    2  Data  Hi   0x4
    1008  g_AM_BSP_GPIO_MSPI2_CE0    0x10000138   Gb    2  Data  Hi   0x4
    1009  g_AM_BSP_GPIO_MSPI2_CE1    0x1000013c   Gb    2  Data  Hi   0x4
    1010  g_AM_BSP_GPIO_MSPI2_D0     0x10000140   Gb    2  Data  Hi   0x4
    1011  g_AM_BSP_GPIO_MSPI2_D1     0x10000144   Gb    2  Data  Hi   0x4
    1012  g_AM_BSP_GPIO_MSPI2_D2     0x10000148   Gb    2  Data  Hi   0x4
    1013  g_AM_BSP_GPIO_MSPI2_D3     0x1000014c   Gb    2  Data  Hi   0x4
    1014  g_AM_BSP_GPIO_MSPI2_D4     0x10000150   Gb    2  Data  Hi   0x4
    1015  g_AM_BSP_GPIO_MSPI2_D5     0x10000154   Gb    2  Data  Hi   0x4
    1016  g_AM_BSP_GPIO_MSPI2_D6     0x10000158   Gb    2  Data  Hi   0x4
    1017  g_AM_BSP_GPIO_MSPI2_D7     0x1000015c   Gb    2  Data  Hi   0x4
    1018  g_AM_BSP_GPIO_MSPI2_SCK    0x10000160   Gb    2  Data  Hi   0x4
    1019  g_AM_BSP_GPIO_MSPI2_DQSDM  0x10000164   Gb    2  Data  Hi   0x4
    1020  g_AM_BSP_GPIO_ITM_SWO      0x10000168   Gb    2  Data  Hi   0x4
    1021  g_AM_BSP_GPIO_PSRAM_CE0    0x1000016c   Gb    2  Data  Hi   0x4
    1022  g_AM_BSP_GPIO_PSRAM_D0     0x10000170   Gb    2  Data  Hi   0x4
    1023  g_AM_BSP_GPIO_PSRAM_D1     0x10000174   Gb    2  Data  Hi   0x4
    1024  g_AM_BSP_GPIO_PSRAM_D2     0x10000178   Gb    2  Data  Hi   0x4
    1025  g_AM_BSP_GPIO_PSRAM_D3     0x1000017c   Gb    2  Data  Hi   0x4
    1026  g_AM_BSP_GPIO_PSRAM_D4     0x10000180   Gb    2  Data  Hi   0x4
    1027  g_AM_BSP_GPIO_PSRAM_D5     0x10000184   Gb    2  Data  Hi   0x4
    1028  g_AM_BSP_GPIO_PSRAM_D6     0x10000188   Gb    2  Data  Hi   0x4
    1029  g_AM_BSP_GPIO_PSRAM_D7     0x1000018c   Gb    2  Data  Hi   0x4
    1030  g_AM_BSP_GPIO_PSRAM_D8     0x10000190   Gb    2  Data  Hi   0x4
    1031  g_AM_BSP_GPIO_PSRAM_D9     0x10000194   Gb    2  Data  Hi   0x4
    1032  g_AM_BSP_GPIO_PSRAM_D10    0x10000198   Gb    2  Data  Hi   0x4
    1033  g_AM_BSP_GPIO_PSRAM_D11    0x1000019c   Gb    2  Data  Hi   0x4
    1034  g_AM_BSP_GPIO_PSRAM_D12    0x100001a0   Gb    2  Data  Hi   0x4
    1035  g_AM_BSP_GPIO_PSRAM_D13    0x100001a4   Gb    2  Data  Hi   0x4
    1036  g_AM_BSP_GPIO_PSRAM_D14    0x100001a8   Gb    2  Data  Hi   0x4
    1037  g_AM_BSP_GPIO_PSRAM_D15    0x100001ac   Gb    2  Data  Hi   0x4
    1038  g_AM_BSP_GPIO_PSRAM_SCK    0x100001b0   Gb    2  Data  Hi   0x4
    1039  g_AM_BSP_GPIO_PSRAM_DQS0DM0
                                    0x100001b4   Gb    2  Data  Hi   0x4
    1040  g_AM_BSP_GPIO_PSRAM_DQS1DM1
                                    0x100001b8   Gb    2  Data  Hi   0x4
    1041  g_AM_BSP_GPIO_NOR_CE0      0x100001bc   Gb    2  Data  Hi   0x4
    1042  g_AM_BSP_GPIO_NOR_D0       0x100001c0   Gb    2  Data  Hi   0x4
    1043  g_AM_BSP_GPIO_NOR_D1       0x100001c4   Gb    2  Data  Hi   0x4
    1044  g_AM_BSP_GPIO_NOR_D2       0x100001c8   Gb    2  Data  Hi   0x4
    1045  g_AM_BSP_GPIO_NOR_D3       0x100001cc   Gb    2  Data  Hi   0x4
    1046  g_AM_BSP_GPIO_NOR_D4       0x100001d0   Gb    2  Data  Hi   0x4
    1047  g_AM_BSP_GPIO_NOR_D5       0x100001d4   Gb    2  Data  Hi   0x4
    1048  g_AM_BSP_GPIO_NOR_D6       0x100001d8   Gb    2  Data  Hi   0x4
    1049  g_AM_BSP_GPIO_NOR_D7       0x100001dc   Gb    2  Data  Hi   0x4
    1050  g_AM_BSP_GPIO_NOR_SCK      0x100001e0   Gb    2  Data  Hi   0x4
    1051  g_AM_BSP_GPIO_NOR_DQS      0x100001e4   Gb    2  Data  Hi   0x4
    1052  g_AM_BSP_GPIO_MSPI1_MUX_SEL
                                    0x100001e8   Gb    2  Data  Hi   0x4
    1053  g_AM_BSP_GPIO_MSPI1_MUX_OE 0x100001ec   Gb    2  Data  Hi   0x4
    1054  gFaultStack                0x10001a70   Gb    3  Data  Hi   0x200
    1055  __libspace_start           0x10004d64   Gb    3  Data  De   0x60
    1056  __temporary_stack_top$libspace
                                    0x10004dc4   Gb    3  Data  De 
    1057  psGlobalAccessPtr          0x10060000   Gb    4  Data  Hi   0x4
    1058  ui32MCUClaimed             0x10060004   Gb    4  Data  Hi   0x14
    1059  ui32DSP0Claimed            0x10060018   Gb    4  Data  Hi   0x14
    1060  ui32DSP1Claimed            0x1006002c   Gb    4  Data  Hi   0x14


** Section #13 '.strtab' (SHT_STRTAB)
    Size   : 16488 bytes

            #  Offset String
        ====================================

            1      1: $d
            2      4: $t
            3      7: $d.realdata
            4     19: ..\src\am_resources.c
            5     41: ../src/am_resources.c
            6     63: .constdata
            7     74: ui32I2sWordLength
            8     92: __tagsym$$used
            9    107: RESOURCE_TABLE
           10    122: SHARED_RW
           11    132: ..\src\mspi_ds35x1ga_quad_example.c
           12    168: ../src/mspi_ds35x1ga_quad_example.c
           13    204: i.am_mspi2_isr
           14    219: i.clkfreq_string
           15    236: i.main
           16    243: .bss
           17    248: write_data
           18    259: read_data
           19    269: write_oob
           20    279: read_oob
           21    288: DMATCBBuffer
           22    301: mspi_interrupts
           23    317: .conststring
           24    330: .data
           25    336: modeinfo
           26    345: ..\..\..\..\..\..\utils\am_util_delay.c
           27    385: ../../../../../../utils/am_util_delay.c
           28    425: i.am_util_delay_us
           29    444: ..\..\..\..\..\..\utils\am_util_faultisr.c
           30    487: .emb_text
           31    497: $v0
           32    501: ../../../../../../utils/am_util_faultisr.c
           33    544: i.am_util_faultisr_collect_data
           34    576: i.am_valid_sp
           35    590: ..\..\..\..\..\..\utils\am_util_id.c
           36    627: ../../../../../../utils/am_util_id.c
           37    664: i.am_util_id_device
           38    684: i.chiprev_set
           39    698: chiprev_set
           40    710: i.revmaj_get
           41    723: revmaj_get
           42    734: g_DeviceNameApollo4p
           43    755: g_DeviceNameApollo4p_blue
           44    781: g_PackageType
           45    795: g_TempRange
           46    807: g_ui8VendorNameAmbq
           47    827: g_ui8VendorNameUnknown
           48    850: g_ui8DeviceNameUnknown
           49    873: ../../../../../../utils/am_util_stdio.c
           50    913: i.am_util_stdio_printf
           51    936: i.am_util_stdio_printf_init
           52    964: i.am_util_stdio_terminal_clear
           53    995: i.am_util_stdio_vsprintf
           54   1020: i.decstr_to_int
           55   1036: decstr_to_int
           56   1050: i.divu64_10
           57   1062: divu64_10
           58   1072: i.ftoa
           59   1079: ftoa
           60   1084: i.ndigits_in_hex
           61   1101: ndigits_in_hex
           62   1116: i.ndigits_in_i64
           63   1133: ndigits_in_i64
           64   1148: i.ndigits_in_u64
           65   1165: ndigits_in_u64
           66   1180: i.padbuffer
           67   1192: padbuffer
           68   1202: i.simple_strlen
           69   1218: simple_strlen
           70   1232: i.uint64_to_hexstr
           71   1251: uint64_to_hexstr
           72   1268: i.uint64_to_str
           73   1284: uint64_to_str
           74   1298: g_prfbuf
           75   1307: g_bTxtXlate
           76   1319: ..\..\..\..\..\..\devices\am_devices_mspi_ds35x1ga.c
           77   1372: ../../../../../../devices/am_devices_mspi_ds35x1ga.c
           78   1425: i.am_device_deinit_flash
           79   1450: am_device_deinit_flash
           80   1473: i.am_device_init_flash
           81   1496: am_device_init_flash
           82   1517: i.am_devices_mspi_device_reconfigure
           83   1554: am_devices_mspi_device_reconfigure
           84   1589: i.am_devices_mspi_ds35x1ga_apply_sdr_timing
           85   1633: i.am_devices_mspi_ds35x1ga_block_erase
           86   1672: i.am_devices_mspi_ds35x1ga_command_read
           87   1712: am_devices_mspi_ds35x1ga_command_read
           88   1750: i.am_devices_mspi_ds35x1ga_command_write
           89   1791: am_devices_mspi_ds35x1ga_command_write
           90   1830: i.am_devices_mspi_ds35x1ga_deinit
           91   1864: i.am_devices_mspi_ds35x1ga_enter_command_mode
           92   1910: am_devices_mspi_ds35x1ga_enter_command_mode
           93   1954: i.am_devices_mspi_ds35x1ga_exit_command_mode
           94   1999: am_devices_mspi_ds35x1ga_exit_command_mode
           95   2042: i.am_devices_mspi_ds35x1ga_id
           96   2072: i.am_devices_mspi_ds35x1ga_init
           97   2104: i.am_devices_mspi_ds35x1ga_read
           98   2136: i.am_devices_mspi_ds35x1ga_read_status
           99   2175: am_devices_mspi_ds35x1ga_read_status
          100   2212: i.am_devices_mspi_ds35x1ga_reset
          101   2245: am_devices_mspi_ds35x1ga_reset
          102   2276: i.am_devices_mspi_ds35x1ga_sdr_init_timing_check
          103   2325: i.am_devices_mspi_ds35x1ga_timing_check_read
          104   2370: am_devices_mspi_ds35x1ga_timing_check_read
          105   2413: i.am_devices_mspi_ds35x1ga_timing_check_write
          106   2459: am_devices_mspi_ds35x1ga_timing_check_write
          107   2503: i.am_devices_mspi_ds35x1ga_tx_enter_ad4_mode
          108   2548: am_devices_mspi_ds35x1ga_tx_enter_ad4_mode
          109   2591: i.am_devices_mspi_ds35x1ga_write
          110   2624: i.am_devices_mspi_ds35x1ga_write_status
          111   2664: am_devices_mspi_ds35x1ga_write_status
          112   2702: i.count_consecutive_ones
          113   2727: count_consecutive_ones
          114   2750: i.find_mid_point
          115   2767: find_mid_point
          116   2782: i.flash_check
          117   2796: flash_check
          118   2808: i.pfnMSPI_DS35X1GA_Callback
          119   2836: pfnMSPI_DS35X1GA_Callback
          120   2862: i.prepare_test_pattern
          121   2885: prepare_test_pattern
          122   2906: i.program_load
          123   2921: program_load
          124   2934: i.read_from_cache
          125   2952: read_from_cache
          126   2968: gMspiCfg
          127   2977: gAmDs35x1ga
          128   2989: ui8TxBuffer
          129   3001: ui8RxBuffer
          130   3013: MSPI_DS35X1GA_Serial_CE0_MSPIConfig
          131   3049: MSPI_DS35X1GA_Serial_CE1_MSPIConfig
          132   3085: MSPI_DS35X1GA_Quad_CE0_MSPIConfig
          133   3119: MSPI_DS35X1GA_Quad_CE1_MSPIConfig
          134   3153: g_DS35X1GA_DevConfig
          135   3174: SDRTimingConfigDefault
          136   3197: bSDRTimingConfigSaved
          137   3219: SDRTimingConfigStored
          138   3241: scanCfg
          139   3249: PageBuffer
          140   3260: ../keil/startup_keil.s
          141   3283: STACK
          142   3289: StackMem
          143   3298: HEAP
          144   3303: HeapMem
          145   3311: RESET
          146   3317: am_cryptosec_isr
          147   3334: am_default_isr
          148   3349: .text
          149   3355: ..\..\..\..\..\mcu\apollo4p\hal\mcu\am_hal_cachectrl.c
          150   3410: ../../../../../mcu/apollo4p/hal/mcu/am_hal_cachectrl.c
          151   3465: i.am_hal_cachectrl_config
          152   3491: i.am_hal_cachectrl_enable
          153   3517: i.am_hal_daxi_config
          154   3538: i.am_hal_daxi_control
          155   3560: i.__ARM_common_memcpy4_5
          156   3585: ..\..\..\..\..\mcu\apollo4p\hal\mcu\am_hal_fault.c
          157   3636: ../../../../../mcu/apollo4p/hal/mcu/am_hal_fault.c
          158   3687: i.am_hal_fault_capture_enable
          159   3717: i.am_hal_fault_status_get
          160   3743: ..\..\..\..\..\mcu\apollo4p\hal\mcu\am_hal_interrupt.c
          161   3798: ../../../../../mcu/apollo4p/hal/mcu/am_hal_interrupt.c
          162   3853: ..\..\..\..\..\mcu\apollo4p\hal\mcu\am_hal_mcuctrl.c
          163   3906: ../../../../../mcu/apollo4p/hal/mcu/am_hal_mcuctrl.c
          164   3959: i.am_hal_mcuctrl_info_get
          165   3985: g_am_hal_mcuctrl_sku_mram_size
          166   4016: g_am_hal_mcuctrl_sku_ssram_size
          167   4048: ..\..\..\..\..\mcu\apollo4p\hal\mcu\am_hal_mspi.c
          168   4098: ../../../../../mcu/apollo4p/hal/mcu/am_hal_mspi.c
          169   4148: i.am_hal_mspi_blocking_transfer
          170   4180: i.am_hal_mspi_configure
          171   4204: i.am_hal_mspi_control
          172   4226: i.am_hal_mspi_deinitialize
          173   4253: i.am_hal_mspi_device_configure
          174   4284: i.am_hal_mspi_disable
          175   4306: i.am_hal_mspi_enable
          176   4327: i.am_hal_mspi_initialize
          177   4352: i.am_hal_mspi_interrupt_clear
          178   4382: i.am_hal_mspi_interrupt_disable
          179   4414: i.am_hal_mspi_interrupt_enable
          180   4445: i.am_hal_mspi_interrupt_service
          181   4477: i.am_hal_mspi_interrupt_status_get
          182   4512: i.am_hal_mspi_nonblocking_transfer
          183   4547: i.am_hal_mspi_power_control
          184   4575: i.build_dma_cmdlist
          185   4595: i.mspi_device_configure
          186   4619: mspi_device_configure
          187   4641: i.mspi_dummy_callback
          188   4663: mspi_dummy_callback
          189   4683: i.mspi_seq_loopback
          190   4703: mspi_seq_loopback
          191   4721: i.sched_hiprio
          192   4736: sched_hiprio
          193   4749: g_MSPIState
          194   4761: ..\..\..\..\..\mcu\apollo4p\hal\mcu\am_hal_sysctrl.c
          195   4814: ../../../../../mcu/apollo4p/hal/mcu/am_hal_sysctrl.c
          196   4867: i.am_hal_sysctrl_sleep
          197   4890: ..\..\..\..\..\mcu\apollo4p\hal\mcu\am_hal_utils.c
          198   4941: ../../../../../mcu/apollo4p/hal/mcu/am_hal_utils.c
          199   4992: i.am_hal_delay_us
          200   5010: i.am_hal_delay_us_status_change
          201   5042: i.am_hal_delay_us_status_check
          202   5073: ..\am_bsp.c
          203   5085: ../am_bsp.c
          204   5097: i.am_bsp_itm_printf_enable
          205   5124: i.am_bsp_low_power_init
          206   5148: i.am_bsp_mspi_pins_enable
          207   5174: g_ePrintInterface
          208   5192: g_sCOMUART
          209   5203: ..\..\..\..\..\mcu\apollo4p\hal\mcu\am_hal_bootrom_helper.c
          210   5263: ../../../../../mcu/apollo4p/hal/mcu/am_hal_bootrom_helper.c
          211   5323: ..\..\..\..\..\mcu\apollo4p\hal\mcu\am_hal_cmdq.c
          212   5373: ../../../../../mcu/apollo4p/hal/mcu/am_hal_cmdq.c
          213   5423: i.am_hal_cmdq_alloc_block
          214   5449: i.am_hal_cmdq_disable
          215   5471: i.am_hal_cmdq_enable
          216   5492: i.am_hal_cmdq_error_resume
          217   5519: i.am_hal_cmdq_get_status
          218   5544: i.am_hal_cmdq_init
          219   5563: i.am_hal_cmdq_post_block
          220   5588: i.am_hal_cmdq_post_loop_block
          221   5618: i.am_hal_cmdq_release_block
          222   5646: i.am_hal_cmdq_reset
          223   5666: i.am_hal_cmdq_term
          224   5685: gAmHalCmdq
          225   5696: gAmHalCmdQReg
          226   5710: ..\..\..\..\..\mcu\apollo4p\hal\mcu\am_hal_itm.c
          227   5759: ../../../../../mcu/apollo4p/hal/mcu/am_hal_itm.c
          228   5808: i.am_hal_itm_enable
          229   5828: i.am_hal_itm_print
          230   5847: ..\..\..\..\..\mcu\apollo4p\hal\mcu\am_hal_rtc.c
          231   5896: ../../../../../mcu/apollo4p/hal/mcu/am_hal_rtc.c
          232   5945: i.am_hal_rtc_osc_disable
          233   5970: ..\..\..\..\..\mcu\apollo4p\hal\mcu\am_hal_tpiu.c
          234   6020: ../../../../../mcu/apollo4p/hal/mcu/am_hal_tpiu.c
          235   6070: i.am_hal_tpiu_enable
          236   6091: ..\..\..\..\..\mcu\apollo4p\hal\mcu\am_hal_uart.c
          237   6141: ../../../../../mcu/apollo4p/hal/mcu/am_hal_uart.c
          238   6191: ..\..\..\..\..\mcu\apollo4p\hal\am_hal_dcu.c
          239   6236: ../../../../../mcu/apollo4p/hal/am_hal_dcu.c
          240   6281: i.am_hal_dcu_get
          241   6298: i.am_hal_dcu_update
          242   6318: i.copy_words
          243   6331: copy_words
          244   6342: ..\..\..\..\..\mcu\apollo4p\hal\am_hal_gpio.c
          245   6388: ../../../../../mcu/apollo4p/hal/am_hal_gpio.c
          246   6434: i.am_hal_gpio_pinconfig
          247   6458: i.am_hal_gpio_state_write
          248   6484: g_ui32DSpintbl
          249   6499: ..\..\..\..\..\mcu\apollo4p\hal\am_hal_pwrctrl.c
          250   6548: ../../../../../mcu/apollo4p/hal/am_hal_pwrctrl.c
          251   6597: i.am_hal_pwrctrl_control
          252   6622: i.am_hal_pwrctrl_low_power_init
          253   6654: i.am_hal_pwrctrl_mcu_memory_config
          254   6689: i.am_hal_pwrctrl_periph_disable
          255   6721: i.am_hal_pwrctrl_periph_enable
          256   6752: i.am_hal_pwrctrl_sram_config
          257   6781: i.buck_ldo_update_override
          258   6808: i.crypto_boost_trims
          259   6829: g_VDDC_trimstbl
          260   6845: g_VDDF_trimstbl
          261   6861: g_VDDFLP_trimstbl
          262   6879: g_memlpldo_trimstbl
          263   6899: g_bOrigTrimsStored
          264   6918: g_bBoostForCryptoApplied
          265   6943: g_bTempcoValid
          266   6958: g_ui16TempcoTEMP_code
          267   6980: g_orig_ACTTRIMVDDF
          268   6999: g_orig_MEMLDOACTIVETRIM
          269   7023: g_orig_LPTRIMVDDF
          270   7041: g_orig_MEMLPLDOTRIM
          271   7061: g_orig_TVRGVREFTRIM
          272   7081: g_orig_CORELDOACTIVETRIM
          273   7106: g_ui32VDDFAdjustCodes
          274   7128: g_i32LatestVddfActTrim
          275   7151: g_i32LatestLDOActTrim
          276   7173: g_TempcoADCHandle
          277   7191: g_ui32TempcoADCslot
          278   7211: g_pfTempMeasured
          279   7228: ..\am_bsp_pins.c
          280   7245: ../am_bsp_pins.c
          281   7262: ..\..\..\..\..\mcu\apollo4p\hal\mcu\am_hal_mram.c
          282   7312: ../../../../../mcu/apollo4p/hal/mcu/am_hal_mram.c
          283   7362: i.am_hal_mram_info_read
          284   7386: ..\..\..\..\..\mcu\apollo4p\hal\am_hal_adc.c
          285   7431: ../../../../../mcu/apollo4p/hal/am_hal_adc.c
          286   7476: ..\..\..\..\..\mcu\apollo4p\hal\am_hal_pin.c
          287   7521: ../../../../../mcu/apollo4p/hal/am_hal_pin.c
          288   7566: ..\..\..\..\..\mcu\apollo4p\hal\am_hal_queue.c
          289   7613: ../../../../../mcu/apollo4p/hal/am_hal_queue.c
          290   7660: dc.s
          291   7665: ../clib/longlong.s
          292   7684: ../clib/string.c
          293   7701: ../clib/memcpset.s
          294   7720: ../clib/heapaux.c
          295   7738: ../clib/angel/startup.s
          296   7762: !!!main
          297   7770: ../clib/angel/handlers.s
          298   7795: !!handler_copy
          299   7810: ../fplib/d2f.s
          300   7825: x$fpl$d2f
          301   7835: ../clib/angel/kernel.s
          302   7858: .ARM.Collect$$rtentry$$00000000
          303   7890: ../fplib/dnaninf.s
          304   7909: x$fpl$dnaninf
          305   7923: ../fplib/fretinf.s
          306   7942: x$fpl$fretinf
          307   7956: ../fplib/usenofp.s
          308   7975: x$fpl$usenofp
          309   7989: .ARM.Collect$$rtentry$$00000002
          310   8021: .ARM.Collect$$rtentry$$00000009
          311   8053: .ARM.Collect$$rtentry$$0000000A
          312   8085: .ARM.Collect$$rtentry$$0000000C
          313   8117: .ARM.Collect$$rtentry$$0000000D
          314   8149: .ARM.Collect$$rtentry$$00000004
          315   8181: ../clib/angel/sys.s
          316   8201: ../clib/stdlib.c
          317   8218: ../clib/angel/boardlib.s
          318   8243: ../clib/libinit.s
          319   8261: .ARM.Collect$$libinit$$00000000
          320   8293: .ARM.Collect$$rtexit$$00000000
          321   8324: .ARM.Collect$$libinit$$00000001
          322   8356: .ARM.Collect$$libinit$$00000004
          323   8388: .ARM.Collect$$libinit$$0000000A
          324   8420: .ARM.Collect$$libinit$$0000000C
          325   8452: .ARM.Collect$$libinit$$0000000E
          326   8484: .ARM.Collect$$libinit$$00000011
          327   8516: .ARM.Collect$$libinit$$00000013
          328   8548: .ARM.Collect$$libinit$$00000015
          329   8580: .ARM.Collect$$libinit$$00000017
          330   8612: .ARM.Collect$$libinit$$00000019
          331   8644: .ARM.Collect$$libinit$$0000001B
          332   8676: .ARM.Collect$$libinit$$0000001D
          333   8708: .ARM.Collect$$libinit$$0000001F
          334   8740: .ARM.Collect$$libinit$$00000021
          335   8772: .ARM.Collect$$libinit$$00000023
          336   8804: .ARM.Collect$$libinit$$00000025
          337   8836: .ARM.Collect$$libinit$$0000002C
          338   8868: .ARM.Collect$$libinit$$0000002E
          339   8900: .ARM.Collect$$libinit$$00000030
          340   8932: .ARM.Collect$$libinit$$00000032
          341   8964: .ARM.Collect$$libinit$$00000033
          342   8996: .ARM.Collect$$rtexit$$00000002
          343   9027: .ARM.Collect$$rtexit$$00000003
          344   9058: .ARM.Collect$$rtexit$$00000004
          345   9089: ../clib/armsys.c
          346   9106: ../fplib/fpinit.s
          347   9124: x$fpl$fpinit
          348   9137: ../clib/angel/sysapp.c
          349   9160: .ARM.Collect$$libshutdown$$00000000
          350   9196: ../clib/heapalloc.c
          351   9216: ../clib/signal.c
          352   9233: .ARM.Collect$$libshutdown$$00000002
          353   9269: .ARM.Collect$$libshutdown$$00000004
          354   9305: .ARM.Collect$$libshutdown$$00000007
          355   9341: .ARM.Collect$$libshutdown$$0000000A
          356   9377: .ARM.Collect$$libshutdown$$0000000C
          357   9413: .ARM.Collect$$libshutdown$$0000000F
          358   9449: .ARM.Collect$$libshutdown$$00000010
          359   9485: ../clib/angel/rt.s
          360   9504: ../clib/signal.s
          361   9521: ../clib/angel/dczerorl2.s
          362   9547: !!dczerorl2
          363   9559: ../clib/angel/scatter.s
          364   9583: !!!scatter
          365   9594: !!handler_zi
          366   9607: BuildAttributes$$THM_ISAv4$E$P$D$K$B$S$7EM$VFPi3$EXTD16$VFPS$VFMA$PE$A:L22UL41UL21$X:L11$S22US41US21$IEEE1$IW$USESV6$~STKCKD$USESV7$~SHL$OTIME$ROPI$EBA8$UX$STANDARDLIB$REQ8$PRES8$EABIv2
          367   9793: __ARM_use_no_argv
          368   9811: __Vectors
          369   9821: __Patchable
          370   9833: Reset_Handler
          371   9847: NMI_Handler
          372   9859: MemManage_Handler
          373   9877: BusFault_Handler
          374   9894: UsageFault_Handler
          375   9913: SVC_Handler
          376   9925: DebugMon_Handler
          377   9942: PendSV_Handler
          378   9957: SysTick_Handler
          379   9973: am_adc_isr
          380   9984: am_audadc0_isr
          381   9999: am_brownout_isr
          382  10015: am_cachecpu_isr
          383  10031: am_clkgen_isr
          384  10045: am_ctimer_isr
          385  10059: am_disp_isr
          386  10071: am_dsi_isr
          387  10082: am_dspi2s0_isr
          388  10097: am_dspi2s1_isr
          389  10112: am_dspi2s2_isr
          390  10127: am_dspi2s3_isr
          391  10142: am_gpio0_001f_isr
          392  10160: am_gpio0_203f_isr
          393  10178: am_gpio0_405f_isr
          394  10196: am_gpio0_607f_isr
          395  10214: am_gpio1_001f_isr
          396  10232: am_gpio1_203f_isr
          397  10250: am_gpio1_405f_isr
          398  10268: am_gpio1_607f_isr
          399  10286: am_gpu_isr
          400  10297: am_iomaster0_isr
          401  10314: am_iomaster1_isr
          402  10331: am_iomaster2_isr
          403  10348: am_iomaster3_isr
          404  10365: am_iomaster4_isr
          405  10382: am_iomaster5_isr
          406  10399: am_iomaster6_isr
          407  10416: am_iomaster7_isr
          408  10433: am_ioslave_acc_isr
          409  10452: am_ioslave_ios_isr
          410  10471: am_mspi0_isr
          411  10484: am_mspi1_isr
          412  10497: am_pdm0_isr
          413  10509: am_pdm1_isr
          414  10521: am_pdm2_isr
          415  10533: am_pdm3_isr
          416  10545: am_rtc_isr
          417  10556: am_sdio_isr
          418  10568: am_stimer_cmpr0_isr
          419  10588: am_stimer_cmpr1_isr
          420  10608: am_stimer_cmpr2_isr
          421  10628: am_stimer_cmpr3_isr
          422  10648: am_stimer_cmpr4_isr
          423  10668: am_stimer_cmpr5_isr
          424  10688: am_stimer_cmpr6_isr
          425  10708: am_stimer_cmpr7_isr
          426  10728: am_stimerof_isr
          427  10744: am_timer00_isr
          428  10759: am_timer01_isr
          429  10774: am_timer02_isr
          430  10789: am_timer03_isr
          431  10804: am_timer04_isr
          432  10819: am_timer05_isr
          433  10834: am_timer06_isr
          434  10849: am_timer07_isr
          435  10864: am_timer08_isr
          436  10879: am_timer09_isr
          437  10894: am_timer10_isr
          438  10909: am_timer11_isr
          439  10924: am_timer12_isr
          440  10939: am_timer13_isr
          441  10954: am_timer14_isr
          442  10969: am_timer15_isr
          443  10984: am_uart1_isr
          444  10997: am_uart2_isr
          445  11010: am_uart3_isr
          446  11023: am_uart_isr
          447  11035: am_usb_isr
          448  11046: am_vcomp_isr
          449  11059: am_watchdog_isr
          450  11075: __main
          451  11082: __scatterload
          452  11096: __scatterload_rt2
          453  11114: __scatterload_rt2_thumb_only
          454  11143: __scatterload_null
          455  11162: __decompress
          456  11175: __decompress1
          457  11189: __scatterload_copy
          458  11208: __scatterload_zeroinit
          459  11231: __rt_lib_init
          460  11245: __rt_lib_init_fp_1
          461  11264: __rt_lib_init_alloca_1
          462  11287: __rt_lib_init_argv_1
          463  11308: __rt_lib_init_atexit_1
          464  11331: __rt_lib_init_clock_1
          465  11353: __rt_lib_init_cpp_1
          466  11373: __rt_lib_init_exceptions_1
          467  11400: __rt_lib_init_fp_trap_1
          468  11424: __rt_lib_init_getenv_1
          469  11447: __rt_lib_init_heap_1
          470  11468: __rt_lib_init_lc_collate_1
          471  11495: __rt_lib_init_lc_ctype_1
          472  11520: __rt_lib_init_lc_monetary_1
          473  11548: __rt_lib_init_lc_numeric_1
          474  11575: __rt_lib_init_lc_time_1
          475  11599: __rt_lib_init_preinit_1
          476  11623: __rt_lib_init_rand_1
          477  11644: __rt_lib_init_return
          478  11665: __rt_lib_init_signal_1
          479  11688: __rt_lib_init_stdio_1
          480  11710: __rt_lib_init_user_alloc_1
          481  11737: __rt_lib_shutdown
          482  11755: __rt_lib_shutdown_cpp_1
          483  11779: __rt_lib_shutdown_fp_trap_1
          484  11807: __rt_lib_shutdown_heap_1
          485  11832: __rt_lib_shutdown_return
          486  11857: __rt_lib_shutdown_signal_1
          487  11884: __rt_lib_shutdown_stdio_1
          488  11910: __rt_lib_shutdown_user_alloc_1
          489  11941: __rt_entry
          490  11952: __rt_entry_presh_1
          491  11971: __rt_entry_sh
          492  11985: __rt_entry_li
          493  11999: __rt_entry_postsh_1
          494  12019: __rt_entry_main
          495  12035: __rt_entry_postli_1
          496  12055: __rt_exit
          497  12065: __rt_exit_ls
          498  12078: __rt_exit_prels_1
          499  12096: __rt_exit_exit
          500  12111: HardFault_Handler
          501  12129: getStackedReg
          502  12143: am_hal_interrupt_master_enable
          503  12174: am_hal_interrupt_master_disable
          504  12206: am_hal_interrupt_master_set
          505  12234: __user_initial_stackheap
          506  12259: __aeabi_llsl
          507  12272: _ll_shift_l
          508  12284: __aeabi_llsr
          509  12297: _ll_ushift_r
          510  12310: memcmp
          511  12317: __aeabi_memcpy
          512  12332: __rt_memcpy
          513  12344: _memcpy_lastbytes
          514  12362: __aeabi_memclr4
          515  12378: __aeabi_memclr8
          516  12394: __rt_memclr_w
          517  12408: _memset_w
          518  12418: __use_two_region_memory
          519  12442: __rt_heap_escrow$2region
          520  12467: __rt_heap_expand$2region
          521  12492: __aeabi_memcpy4
          522  12508: __aeabi_memcpy8
          523  12524: __rt_memcpy_w
          524  12538: _memcpy_lastbytes_aligned
          525  12564: __user_setup_stackheap
          526  12587: exit
          527  12592: __user_libspace
          528  12608: __user_perproc_libspace
          529  12632: __user_perthread_libspace
          530  12658: _sys_exit
          531  12668: __I$use$semihosting
          532  12688: __use_no_semihosting_swi
          533  12713: __ARM_common_memcpy4_5
          534  12736: __semihosting_library_function
          535  12767: am_bsp_itm_printf_enable
          536  12792: am_bsp_low_power_init
          537  12814: am_bsp_mspi_pins_enable
          538  12838: am_devices_mspi_ds35x1ga_apply_sdr_timing
          539  12880: am_devices_mspi_ds35x1ga_block_erase
          540  12917: am_devices_mspi_ds35x1ga_deinit
          541  12949: am_devices_mspi_ds35x1ga_id
          542  12977: am_devices_mspi_ds35x1ga_init
          543  13007: am_devices_mspi_ds35x1ga_read
          544  13037: am_devices_mspi_ds35x1ga_sdr_init_timing_check
          545  13084: am_devices_mspi_ds35x1ga_write
          546  13115: am_hal_cachectrl_config
          547  13139: am_hal_cachectrl_enable
          548  13163: am_hal_cmdq_alloc_block
          549  13187: am_hal_cmdq_disable
          550  13207: am_hal_cmdq_enable
          551  13226: am_hal_cmdq_error_resume
          552  13251: am_hal_cmdq_get_status
          553  13274: am_hal_cmdq_init
          554  13291: am_hal_cmdq_post_block
          555  13314: am_hal_cmdq_post_loop_block
          556  13342: am_hal_cmdq_release_block
          557  13368: am_hal_cmdq_reset
          558  13386: am_hal_cmdq_term
          559  13403: am_hal_daxi_config
          560  13422: am_hal_daxi_control
          561  13442: am_hal_dcu_get
          562  13457: am_hal_dcu_update
          563  13475: am_hal_delay_us
          564  13491: am_hal_delay_us_status_change
          565  13521: am_hal_delay_us_status_check
          566  13550: am_hal_fault_capture_enable
          567  13578: am_hal_fault_status_get
          568  13602: am_hal_gpio_pinconfig
          569  13624: am_hal_gpio_state_write
          570  13648: am_hal_itm_enable
          571  13666: am_hal_itm_print
          572  13683: am_hal_mcuctrl_info_get
          573  13707: am_hal_mram_info_read
          574  13729: am_hal_mspi_blocking_transfer
          575  13759: am_hal_mspi_configure
          576  13781: am_hal_mspi_control
          577  13801: am_hal_mspi_deinitialize
          578  13826: am_hal_mspi_device_configure
          579  13855: am_hal_mspi_disable
          580  13875: am_hal_mspi_enable
          581  13894: am_hal_mspi_initialize
          582  13917: am_hal_mspi_interrupt_clear
          583  13945: am_hal_mspi_interrupt_disable
          584  13975: am_hal_mspi_interrupt_enable
          585  14004: am_hal_mspi_interrupt_service
          586  14034: am_hal_mspi_interrupt_status_get
          587  14067: am_hal_mspi_nonblocking_transfer
          588  14100: am_hal_mspi_power_control
          589  14126: am_hal_pwrctrl_control
          590  14149: am_hal_pwrctrl_low_power_init
          591  14179: am_hal_pwrctrl_mcu_memory_config
          592  14212: am_hal_pwrctrl_periph_disable
          593  14242: am_hal_pwrctrl_periph_enable
          594  14271: am_hal_pwrctrl_sram_config
          595  14298: am_hal_rtc_osc_disable
          596  14321: am_hal_sysctrl_sleep
          597  14342: am_hal_tpiu_enable
          598  14361: am_mspi2_isr
          599  14374: am_util_delay_us
          600  14391: am_util_faultisr_collect_data
          601  14421: am_util_id_device
          602  14439: am_util_stdio_printf
          603  14460: am_util_stdio_printf_init
          604  14486: am_util_stdio_terminal_clear
          605  14515: am_util_stdio_vsprintf
          606  14538: am_valid_sp
          607  14550: buck_ldo_update_override
          608  14575: build_dma_cmdlist
          609  14593: clkfreq_string
          610  14608: crypto_boost_trims
          611  14627: main
          612  14632: __aeabi_d2f
          613  14644: _d2f
          614  14649: __fpl_dnaninf
          615  14663: _fp_init
          616  14672: __fplib_config_fpu_vfp
          617  14695: __fplib_config_pureend_doubles
          618  14726: __fpl_fretinf
          619  14740: __I$use$fp
          620  14751: ui32MCUAllowed
          621  14766: ui32DSP0Allowed
          622  14782: ui32DSP1Allowed
          623  14798: ui32SharedAccess
          624  14815: sGlobalAccess
          625  14829: MSPI_Serial_Flash_Config
          626  14854: MSPI_Quad_Flash_Config
          627  14877: ds35x1ga_sConfigArray
          628  14899: am_hal_cachectrl_defaults
          629  14925: am_hal_daxi_defaults
          630  14946: g_am_hal_bootrom_helper
          631  14970: g_DefaultMcuMemCfg
          632  14989: g_DefaultSRAMCfg
          633  15006: am_hal_pwrctrl_peripheral_control
          634  15040: Region$$Table$$Base
          635  15060: Region$$Table$$Limit
          636  15081: g_FlashHdl
          637  15092: g_MSPIHdl
          638  15102: MSPI_Flash_Configs
          639  15121: MSPISdrTimingConfig
          640  15141: g_pfnCharPrint
          641  15156: gDaxiConfig
          642  15168: g_sDispCfg
          643  15179: gStartOff
          644  15189: gpDcuEnable
          645  15201: gpDcuLock
          646  15211: gDcuEnable
          647  15222: gDcuDisable
          648  15234: g_eCurrPwrMode
          649  15249: g_ui32TrimVer
          650  15263: g_ui32origSimobuckVDDStrim
          651  15290: g_AM_BSP_GPIO_MSPI2_CE0
          652  15314: g_AM_BSP_GPIO_MSPI2_CE1
          653  15338: g_AM_BSP_GPIO_MSPI2_D0
          654  15361: g_AM_BSP_GPIO_MSPI2_D1
          655  15384: g_AM_BSP_GPIO_MSPI2_D2
          656  15407: g_AM_BSP_GPIO_MSPI2_D3
          657  15430: g_AM_BSP_GPIO_MSPI2_D4
          658  15453: g_AM_BSP_GPIO_MSPI2_D5
          659  15476: g_AM_BSP_GPIO_MSPI2_D6
          660  15499: g_AM_BSP_GPIO_MSPI2_D7
          661  15522: g_AM_BSP_GPIO_MSPI2_SCK
          662  15546: g_AM_BSP_GPIO_MSPI2_DQSDM
          663  15572: g_AM_BSP_GPIO_ITM_SWO
          664  15594: g_AM_BSP_GPIO_PSRAM_CE0
          665  15618: g_AM_BSP_GPIO_PSRAM_D0
          666  15641: g_AM_BSP_GPIO_PSRAM_D1
          667  15664: g_AM_BSP_GPIO_PSRAM_D2
          668  15687: g_AM_BSP_GPIO_PSRAM_D3
          669  15710: g_AM_BSP_GPIO_PSRAM_D4
          670  15733: g_AM_BSP_GPIO_PSRAM_D5
          671  15756: g_AM_BSP_GPIO_PSRAM_D6
          672  15779: g_AM_BSP_GPIO_PSRAM_D7
          673  15802: g_AM_BSP_GPIO_PSRAM_D8
          674  15825: g_AM_BSP_GPIO_PSRAM_D9
          675  15848: g_AM_BSP_GPIO_PSRAM_D10
          676  15872: g_AM_BSP_GPIO_PSRAM_D11
          677  15896: g_AM_BSP_GPIO_PSRAM_D12
          678  15920: g_AM_BSP_GPIO_PSRAM_D13
          679  15944: g_AM_BSP_GPIO_PSRAM_D14
          680  15968: g_AM_BSP_GPIO_PSRAM_D15
          681  15992: g_AM_BSP_GPIO_PSRAM_SCK
          682  16016: g_AM_BSP_GPIO_PSRAM_DQS0DM0
          683  16044: g_AM_BSP_GPIO_PSRAM_DQS1DM1
          684  16072: g_AM_BSP_GPIO_NOR_CE0
          685  16094: g_AM_BSP_GPIO_NOR_D0
          686  16115: g_AM_BSP_GPIO_NOR_D1
          687  16136: g_AM_BSP_GPIO_NOR_D2
          688  16157: g_AM_BSP_GPIO_NOR_D3
          689  16178: g_AM_BSP_GPIO_NOR_D4
          690  16199: g_AM_BSP_GPIO_NOR_D5
          691  16220: g_AM_BSP_GPIO_NOR_D6
          692  16241: g_AM_BSP_GPIO_NOR_D7
          693  16262: g_AM_BSP_GPIO_NOR_SCK
          694  16284: g_AM_BSP_GPIO_NOR_DQS
          695  16306: g_AM_BSP_GPIO_MSPI1_MUX_SEL
          696  16334: g_AM_BSP_GPIO_MSPI1_MUX_OE
          697  16361: gFaultStack
          698  16373: __libspace_start
          699  16390: __temporary_stack_top$libspace
          700  16421: psGlobalAccessPtr
          701  16439: ui32MCUClaimed
          702  16454: ui32DSP0Claimed
          703  16470: ui32DSP1Claimed
          704  16486: 
          705  16487: 


** Section #14 '.note' (SHT_NOTE)
    Size   : 32 bytes (alignment 4)


** Section #15 '.comment' (SHT_PROGBITS)
    Size   : 38028 bytes


** Section #16 '.shstrtab' (SHT_STRTAB)
    Size   : 164 bytes

            #  Offset String
        ====================================

            1      1: MCU_MRAM
            2     10: MCU_TCM
            3     18: SHARED_SRAM
            4     30: .debug_abbrev
            5     44: .debug_frame
            6     57: .debug_info
            7     69: .debug_line
            8     81: .debug_loc
            9     92: .debug_macinfo
           10    107: .debug_pubnames
           11    123: .symtab
           12    131: .strtab
           13    139: .note
           14    145: .comment
           15    154: .shstrtab


