
========================================================================

** ELF Header Information

    File Name: bin\uart_ble_bridge.axf

    Machine class: ELFCLASS32 (32-bit)
    Data encoding: ELFDATA2LSB (Little endian)
    Header version: EV_CURRENT (Current version)
    Operating System ABI: none
    ABI Version: 0
    File Type: ET_EXEC (Executable) (2)
    Machine: EM_ARM (ARM)

    Image Entry point: 0x0000c135
    Flags: EF_ARM_HASENTRY + EF_ARM_ABI_FLOAT_HARD (0x05000402)

    ARM ELF revision: 5 (ABI version 2)

    Conforms to Hard float procedure-call standard

    Built with
    Component: ARM Compiler 6.16 Tool: armasm [5dfea300]
    Component: ARM Compiler 6.16 Tool: armlink [5dfeaa00]

    Header size: 52 bytes (0x34)
    Program header entry size: 32 bytes (0x20)
    Section header entry size: 40 bytes (0x28)

    Program header entries: 1
    Section header entries: 15

    Program header offset: 114728 (0x0001c028)
    Section header offset: 114760 (0x0001c048)

    Section header string table index: 14

========================================================================

** Program header #0 (PT_LOAD) [PF_X + PF_W + PF_R + PF_ARM_ENTRY]
    Size : 44472 bytes (33320 bytes in file)
    Virtual address: 0x0000c000 (Alignment 8)


========================================================================

** Section #1 'FLASH' (SHT_PROGBITS) [SHF_ALLOC + SHF_EXECINSTR]
    Size   : 28432 bytes (alignment 4)
    Address: 0x0000c000

    $d
    RESET
    __Vectors
        0x0000c000:    10002678    x&..    DCD    268445304
        0x0000c004:    0000c101    ....    DCD    49409
        0x0000c008:    0000c11f    ....    DCD    49439
        0x0000c00c:    0000c409    ....    DCD    50185
        0x0000c010:    0000c121    !...    DCD    49441
        0x0000c014:    0000c123    #...    DCD    49443
        0x0000c018:    0000c125    %...    DCD    49445
        0x0000c01c:    00000000    ....    DCD    0
        0x0000c020:    00000000    ....    DCD    0
        0x0000c024:    00000000    ....    DCD    0
        0x0000c028:    00000000    ....    DCD    0
        0x0000c02c:    0000c127    '...    DCD    49447
        0x0000c030:    0000c129    )...    DCD    49449
        0x0000c034:    00000000    ....    DCD    0
        0x0000c038:    0000c12b    +...    DCD    49451
        0x0000c03c:    0000c12d    -...    DCD    49453
        0x0000c040:    0000c12f    /...    DCD    49455
        0x0000c044:    0000c12f    /...    DCD    49455
        0x0000c048:    0000c12f    /...    DCD    49455
        0x0000c04c:    0000c12f    /...    DCD    49455
        0x0000c050:    0000c12f    /...    DCD    49455
        0x0000c054:    0000c12f    /...    DCD    49455
        0x0000c058:    0000c12f    /...    DCD    49455
        0x0000c05c:    0000c12f    /...    DCD    49455
        0x0000c060:    0000c12f    /...    DCD    49455
        0x0000c064:    0000c12f    /...    DCD    49455
        0x0000c068:    0000c12f    /...    DCD    49455
        0x0000c06c:    0000c12f    /...    DCD    49455
        0x0000c070:    0000c12f    /...    DCD    49455
        0x0000c074:    0000c12f    /...    DCD    49455
        0x0000c078:    0000c12f    /...    DCD    49455
        0x0000c07c:    0000ec29    )...    DCD    60457
        0x0000c080:    0000c12f    /...    DCD    49455
        0x0000c084:    0000c12f    /...    DCD    49455
        0x0000c088:    0000c12f    /...    DCD    49455
        0x0000c08c:    0000c12f    /...    DCD    49455
        0x0000c090:    0000c12f    /...    DCD    49455
        0x0000c094:    0000c12f    /...    DCD    49455
        0x0000c098:    0000c12f    /...    DCD    49455
        0x0000c09c:    0000c12f    /...    DCD    49455
        0x0000c0a0:    0000c12f    /...    DCD    49455
        0x0000c0a4:    0000c12f    /...    DCD    49455
        0x0000c0a8:    0000c12f    /...    DCD    49455
        0x0000c0ac:    0000c12f    /...    DCD    49455
        0x0000c0b0:    0000c12f    /...    DCD    49455
        0x0000c0b4:    0000c12f    /...    DCD    49455
        0x0000c0b8:    0000c12f    /...    DCD    49455
        0x0000c0bc:    0000c12f    /...    DCD    49455
    __Patchable
        0x0000c0c0:    00000000    ....    DCD    0
        0x0000c0c4:    00000000    ....    DCD    0
        0x0000c0c8:    00000000    ....    DCD    0
        0x0000c0cc:    00000000    ....    DCD    0
        0x0000c0d0:    00000000    ....    DCD    0
        0x0000c0d4:    00000000    ....    DCD    0
        0x0000c0d8:    00000000    ....    DCD    0
        0x0000c0dc:    00000000    ....    DCD    0
        0x0000c0e0:    00000000    ....    DCD    0
        0x0000c0e4:    00000000    ....    DCD    0
        0x0000c0e8:    00000000    ....    DCD    0
        0x0000c0ec:    00000000    ....    DCD    0
        0x0000c0f0:    00000000    ....    DCD    0
        0x0000c0f4:    00000000    ....    DCD    0
        0x0000c0f8:    00000000    ....    DCD    0
        0x0000c0fc:    00000000    ....    DCD    0
    $t
    $v0
    Reset_Handler
        0x0000c100:    f64e5088    N..P    MOV      r0,#0xed88
        0x0000c104:    f2ce0000    ....    MOVT     r0,#0xe000
        0x0000c108:    6801        .h      LDR      r1,[r0,#0]
        0x0000c10a:    f4410170    A.p.    ORR      r1,r1,#0xf00000
        0x0000c10e:    6001        .`      STR      r1,[r0,#0]
        0x0000c110:    f3bf8f4f    ..O.    DSB      
        0x0000c114:    f3bf8f6f    ..o.    ISB      
        0x0000c118:    4805        .H      LDR      r0,[pc,#20] ; [0xc130] = 0xc135
        0x0000c11a:    4700        .G      BX       r0
        0x0000c11c:    e7fe        ..      B        0xc11c ; Reset_Handler + 28
    NMI_Handler
        0x0000c11e:    e7fe        ..      B        NMI_Handler ; 0xc11e
    MemManage_Handler
        0x0000c120:    e7fe        ..      B        MemManage_Handler ; 0xc120
    BusFault_Handler
        0x0000c122:    e7fe        ..      B        BusFault_Handler ; 0xc122
    UsageFault_Handler
        0x0000c124:    e7fe        ..      B        UsageFault_Handler ; 0xc124
    SVC_Handler
        0x0000c126:    e7fe        ..      B        SVC_Handler ; 0xc126
    DebugMon_Handler
        0x0000c128:    e7fe        ..      B        DebugMon_Handler ; 0xc128
    PendSV_Handler
        0x0000c12a:    e7fe        ..      B        PendSV_Handler ; 0xc12a
    SysTick_Handler
        0x0000c12c:    e7fe        ..      B        SysTick_Handler ; 0xc12c
    am_adc_isr
    am_ble_isr
    am_brownout_isr
    am_clkgen_isr
    am_ctimer_isr
    am_gpio_isr
    am_iomaster0_isr
    am_iomaster1_isr
    am_iomaster2_isr
    am_iomaster3_isr
    am_iomaster4_isr
    am_iomaster5_isr
    am_ioslave_acc_isr
    am_ioslave_ios_isr
    am_mspi0_isr
    am_pdm0_isr
    am_rtc_isr
    am_scard_isr
    am_software0_isr
    am_stimer_cmpr0_isr
    am_stimer_cmpr1_isr
    am_stimer_cmpr2_isr
    am_stimer_cmpr3_isr
    am_stimer_cmpr4_isr
    am_stimer_cmpr5_isr
    am_stimer_cmpr6_isr
    am_stimer_cmpr7_isr
    am_stimer_isr
    am_uart0_isr
    am_uart1_isr
    am_vcomp_isr
    am_watchdog_isr
        0x0000c12e:    e7fe        ..      B        am_adc_isr ; 0xc12e
    $d
        0x0000c130:    0000c135    5...    DCD    49461
    $t
    !!!main
    __main
        0x0000c134:    f000f802    ....    BL       __scatterload ; 0xc13c
        0x0000c138:    f000f86e    ..n.    BL       __rt_entry ; 0xc218
    !!!scatter
    __scatterload
    __scatterload_rt2
    __scatterload_rt2_thumb_only
        0x0000c13c:    a00a        ..      ADR      r0,{pc}+0x2c ; 0xc168
        0x0000c13e:    e8900c00    ....    LDM      r0,{r10,r11}
        0x0000c142:    4482        .D      ADD      r10,r10,r0
        0x0000c144:    4483        .D      ADD      r11,r11,r0
        0x0000c146:    f1aa0701    ....    SUB      r7,r10,#1
    __scatterload_null
        0x0000c14a:    45da        .E      CMP      r10,r11
        0x0000c14c:    d101        ..      BNE      0xc152 ; __scatterload_null + 8
        0x0000c14e:    f000f863    ..c.    BL       __rt_entry ; 0xc218
        0x0000c152:    f2af0e09    ....    ADR      lr,{pc}-7 ; 0xc14b
        0x0000c156:    e8ba000f    ....    LDM      r10!,{r0-r3}
        0x0000c15a:    f0130f01    ....    TST      r3,#1
        0x0000c15e:    bf18        ..      IT       NE
        0x0000c160:    1afb        ..      SUBNE    r3,r7,r3
        0x0000c162:    f0430301    C...    ORR      r3,r3,#1
        0x0000c166:    4718        .G      BX       r3
    $d
        0x0000c168:    00006d88    .m..    DCD    28040
        0x0000c16c:    00006da8    .m..    DCD    28072
    $t
    !!dclz77c
    __decompress
    __decompress2
        0x0000c170:    440a        .D      ADD      r2,r2,r1
        0x0000c172:    f8103b01    ...;    LDRB     r3,[r0],#1
        0x0000c176:    f0130403    ....    ANDS     r4,r3,#3
        0x0000c17a:    bf08        ..      IT       EQ
        0x0000c17c:    f8104b01    ...K    LDRBEQ   r4,[r0],#1
        0x0000c180:    111d        ..      ASRS     r5,r3,#4
        0x0000c182:    bf08        ..      IT       EQ
        0x0000c184:    f8105b01    ...[    LDRBEQ   r5,[r0],#1
        0x0000c188:    1e64        d.      SUBS     r4,r4,#1
        0x0000c18a:    d005        ..      BEQ      0xc198 ; __decompress + 40
        0x0000c18c:    f8106b01    ...k    LDRB     r6,[r0],#1
        0x0000c190:    1e64        d.      SUBS     r4,r4,#1
        0x0000c192:    f8016b01    ...k    STRB     r6,[r1],#1
        0x0000c196:    d1f9        ..      BNE      0xc18c ; __decompress + 28
        0x0000c198:    2d00        .-      CMP      r5,#0
        0x0000c19a:    d015        ..      BEQ      0xc1c8 ; __decompress + 88
        0x0000c19c:    f8104b01    ...K    LDRB     r4,[r0],#1
        0x0000c1a0:    f003030c    ....    AND      r3,r3,#0xc
        0x0000c1a4:    2b0c        .+      CMP      r3,#0xc
        0x0000c1a6:    eba10404    ....    SUB      r4,r1,r4
        0x0000c1aa:    bf0a        ..      ITET     EQ
        0x0000c1ac:    f8103b01    ...;    LDRBEQ   r3,[r0],#1
        0x0000c1b0:    eba41483    ....    SUBNE    r4,r4,r3,LSL #6
        0x0000c1b4:    eba42403    ...$    SUBEQ    r4,r4,r3,LSL #8
        0x0000c1b8:    f1050301    ....    ADD      r3,r5,#1
        0x0000c1bc:    f8146b01    ...k    LDRB     r6,[r4],#1
        0x0000c1c0:    1e5b        [.      SUBS     r3,r3,#1
        0x0000c1c2:    f8016b01    ...k    STRB     r6,[r1],#1
        0x0000c1c6:    d5f9        ..      BPL      0xc1bc ; __decompress + 76
        0x0000c1c8:    4291        .B      CMP      r1,r2
        0x0000c1ca:    bf38        8.      IT       CC
        0x0000c1cc:    f8103b01    ...;    LDRBCC   r3,[r0],#1
        0x0000c1d0:    d3d1        ..      BCC      0xc176 ; __decompress + 6
        0x0000c1d2:    4770        pG      BX       lr
    !!handler_copy
    __scatterload_copy
        0x0000c1d4:    3a10        .:      SUBS     r2,r2,#0x10
        0x0000c1d6:    bf24        $.      ITT      CS
        0x0000c1d8:    c878        x.      LDMCS    r0!,{r3-r6}
        0x0000c1da:    c178        x.      STMCS    r1!,{r3-r6}
        0x0000c1dc:    d8fa        ..      BHI      __scatterload_copy ; 0xc1d4
        0x0000c1de:    0752        R.      LSLS     r2,r2,#29
        0x0000c1e0:    bf24        $.      ITT      CS
        0x0000c1e2:    c830        0.      LDMCS    r0!,{r4,r5}
        0x0000c1e4:    c130        0.      STMCS    r1!,{r4,r5}
        0x0000c1e6:    bf44        D.      ITT      MI
        0x0000c1e8:    6804        .h      LDRMI    r4,[r0,#0]
        0x0000c1ea:    600c        .`      STRMI    r4,[r1,#0]
        0x0000c1ec:    4770        pG      BX       lr
        0x0000c1ee:    0000        ..      MOVS     r0,r0
    !!handler_zi
    __scatterload_zeroinit
        0x0000c1f0:    2300        .#      MOVS     r3,#0
        0x0000c1f2:    2400        .$      MOVS     r4,#0
        0x0000c1f4:    2500        .%      MOVS     r5,#0
        0x0000c1f6:    2600        .&      MOVS     r6,#0
        0x0000c1f8:    3a10        .:      SUBS     r2,r2,#0x10
        0x0000c1fa:    bf28        (.      IT       CS
        0x0000c1fc:    c178        x.      STMCS    r1!,{r3-r6}
        0x0000c1fe:    d8fb        ..      BHI      0xc1f8 ; __scatterload_zeroinit + 8
        0x0000c200:    0752        R.      LSLS     r2,r2,#29
        0x0000c202:    bf28        (.      IT       CS
        0x0000c204:    c130        0.      STMCS    r1!,{r4,r5}
        0x0000c206:    bf48        H.      IT       MI
        0x0000c208:    600b        .`      STRMI    r3,[r1,#0]
        0x0000c20a:    4770        pG      BX       lr
    .ARM.Collect$$libinit$$00000000
    __rt_lib_init
        0x0000c20c:    b51f        ..      PUSH     {r0-r4,lr}
    .ARM.Collect$$libinit$$00000001
    __rt_lib_init_fp_1
        0x0000c20e:    f004fcb6    ....    BL       _fp_init ; 0x10b7e
    .ARM.Collect$$libinit$$00000004
    .ARM.Collect$$libinit$$0000000A
    .ARM.Collect$$libinit$$0000000C
    .ARM.Collect$$libinit$$0000000E
    .ARM.Collect$$libinit$$00000011
    .ARM.Collect$$libinit$$00000013
    .ARM.Collect$$libinit$$00000015
    .ARM.Collect$$libinit$$00000017
    .ARM.Collect$$libinit$$00000019
    .ARM.Collect$$libinit$$0000001B
    .ARM.Collect$$libinit$$0000001D
    .ARM.Collect$$libinit$$0000001F
    .ARM.Collect$$libinit$$00000021
    .ARM.Collect$$libinit$$00000023
    .ARM.Collect$$libinit$$00000025
    .ARM.Collect$$libinit$$0000002C
    .ARM.Collect$$libinit$$0000002E
    .ARM.Collect$$libinit$$00000030
    .ARM.Collect$$libinit$$00000032
    .ARM.Collect$$libinit$$00000033
    __rt_lib_init_alloca_1
    __rt_lib_init_argv_1
    __rt_lib_init_atexit_1
    __rt_lib_init_clock_1
    __rt_lib_init_cpp_1
    __rt_lib_init_exceptions_1
    __rt_lib_init_fp_trap_1
    __rt_lib_init_getenv_1
    __rt_lib_init_heap_1
    __rt_lib_init_lc_collate_1
    __rt_lib_init_lc_ctype_1
    __rt_lib_init_lc_monetary_1
    __rt_lib_init_lc_numeric_1
    __rt_lib_init_lc_time_1
    __rt_lib_init_preinit_1
    __rt_lib_init_rand_1
    __rt_lib_init_return
    __rt_lib_init_signal_1
    __rt_lib_init_stdio_1
    __rt_lib_init_user_alloc_1
        0x0000c212:    bd1f        ..      POP      {r0-r4,pc}
    .ARM.Collect$$libshutdown$$00000000
    __rt_lib_shutdown
        0x0000c214:    b510        ..      PUSH     {r4,lr}
    .ARM.Collect$$libshutdown$$00000002
    .ARM.Collect$$libshutdown$$00000004
    .ARM.Collect$$libshutdown$$00000007
    .ARM.Collect$$libshutdown$$0000000A
    .ARM.Collect$$libshutdown$$0000000C
    .ARM.Collect$$libshutdown$$0000000F
    .ARM.Collect$$libshutdown$$00000010
    __rt_lib_shutdown_cpp_1
    __rt_lib_shutdown_fp_trap_1
    __rt_lib_shutdown_heap_1
    __rt_lib_shutdown_return
    __rt_lib_shutdown_signal_1
    __rt_lib_shutdown_stdio_1
    __rt_lib_shutdown_user_alloc_1
        0x0000c216:    bd10        ..      POP      {r4,pc}
    .ARM.Collect$$rtentry$$00000000
    .ARM.Collect$$rtentry$$00000002
    .ARM.Collect$$rtentry$$00000004
    __rt_entry
    __rt_entry_presh_1
    __rt_entry_sh
        0x0000c218:    f000f8bb    ....    BL       __user_setup_stackheap ; 0xc392
        0x0000c21c:    4611        .F      MOV      r1,r2
    .ARM.Collect$$rtentry$$00000009
    .ARM.Collect$$rtentry$$0000000A
    __rt_entry_li
    __rt_entry_postsh_1
        0x0000c21e:    f7fffff5    ....    BL       __rt_lib_init ; 0xc20c
    .ARM.Collect$$rtentry$$0000000C
    .ARM.Collect$$rtentry$$0000000D
    __rt_entry_main
    __rt_entry_postli_1
        0x0000c222:    f004f833    ..3.    BL       main ; 0x1028c
        0x0000c226:    f000f8d9    ....    BL       exit ; 0xc3dc
    .ARM.Collect$$rtexit$$00000000
    __rt_exit
        0x0000c22a:    b403        ..      PUSH     {r0,r1}
    .ARM.Collect$$rtexit$$00000002
    .ARM.Collect$$rtexit$$00000003
    __rt_exit_ls
    __rt_exit_prels_1
        0x0000c22c:    f7fffff2    ....    BL       __rt_lib_shutdown ; 0xc214
    .ARM.Collect$$rtexit$$00000004
    __rt_exit_exit
        0x0000c230:    bc03        ..      POP      {r0,r1}
        0x0000c232:    f000f8e1    ....    BL       _sys_exit ; 0xc3f8
        0x0000c236:    0000        ..      MOVS     r0,r0
    .text
    $v0
    __user_initial_stackheap
        0x0000c238:    4802        .H      LDR      r0,[pc,#8] ; [0xc244] = 0x10003ea8
        0x0000c23a:    4903        .I      LDR      r1,[pc,#12] ; [0xc248] = 0x10002678
        0x0000c23c:    4a01        .J      LDR      r2,[pc,#4] ; [0xc244] = 0x10003ea8
        0x0000c23e:    4b03        .K      LDR      r3,[pc,#12] ; [0xc24c] = 0x10001678
        0x0000c240:    4770        pG      BX       lr
    $d
        0x0000c242:    0000        ..      DCW    0
        0x0000c244:    10003ea8    .>..    DCD    268451496
        0x0000c248:    10002678    x&..    DCD    268445304
        0x0000c24c:    10001678    x...    DCD    268441208
    $t
    .text
    __aeabi_memcpy
    __rt_memcpy
        0x0000c250:    2a03        .*      CMP      r2,#3
        0x0000c252:    f2408030    @.0.    BLS.W    _memcpy_lastbytes ; 0xc2b6
        0x0000c256:    f0100c03    ....    ANDS     r12,r0,#3
        0x0000c25a:    f0008015    ....    BEQ.W    0xc288 ; __aeabi_memcpy + 56
        0x0000c25e:    f8113b01    ...;    LDRB     r3,[r1],#1
        0x0000c262:    f1bc0f02    ....    CMP      r12,#2
        0x0000c266:    4462        bD      ADD      r2,r2,r12
        0x0000c268:    bf98        ..      IT       LS
        0x0000c26a:    f811cb01    ....    LDRBLS   r12,[r1],#1
        0x0000c26e:    f8003b01    ...;    STRB     r3,[r0],#1
        0x0000c272:    bf38        8.      IT       CC
        0x0000c274:    f8113b01    ...;    LDRBCC   r3,[r1],#1
        0x0000c278:    f1a20204    ....    SUB      r2,r2,#4
        0x0000c27c:    bf98        ..      IT       LS
        0x0000c27e:    f800cb01    ....    STRBLS   r12,[r0],#1
        0x0000c282:    bf38        8.      IT       CC
        0x0000c284:    f8003b01    ...;    STRBCC   r3,[r0],#1
        0x0000c288:    f0110303    ....    ANDS     r3,r1,#3
        0x0000c28c:    f000804f    ..O.    BEQ.W    __aeabi_memcpy4 ; 0xc32e
        0x0000c290:    3a08        .:      SUBS     r2,r2,#8
        0x0000c292:    f0c08008    ....    BCC.W    0xc2a6 ; __aeabi_memcpy + 86
        0x0000c296:    f8513b04    Q..;    LDR      r3,[r1],#4
        0x0000c29a:    3a08        .:      SUBS     r2,r2,#8
        0x0000c29c:    f851cb04    Q...    LDR      r12,[r1],#4
        0x0000c2a0:    e8a01008    ....    STM      r0!,{r3,r12}
        0x0000c2a4:    e7f5        ..      B        0xc292 ; __aeabi_memcpy + 66
        0x0000c2a6:    1d12        ..      ADDS     r2,r2,#4
        0x0000c2a8:    bf5c        \.      ITT      PL
        0x0000c2aa:    f8513b04    Q..;    LDRPL    r3,[r1],#4
        0x0000c2ae:    f8403b04    @..;    STRPL    r3,[r0],#4
        0x0000c2b2:    f3af8000    ....    NOP.W    
    _memcpy_lastbytes
        0x0000c2b6:    07d2        ..      LSLS     r2,r2,#31
        0x0000c2b8:    bf24        $.      ITT      CS
        0x0000c2ba:    f8113b01    ...;    LDRBCS   r3,[r1],#1
        0x0000c2be:    f811cb01    ....    LDRBCS   r12,[r1],#1
        0x0000c2c2:    bf48        H.      IT       MI
        0x0000c2c4:    f8112b01    ...+    LDRBMI   r2,[r1],#1
        0x0000c2c8:    bf24        $.      ITT      CS
        0x0000c2ca:    f8003b01    ...;    STRBCS   r3,[r0],#1
        0x0000c2ce:    f800cb01    ....    STRBCS   r12,[r0],#1
        0x0000c2d2:    bf48        H.      IT       MI
        0x0000c2d4:    f8002b01    ...+    STRBMI   r2,[r0],#1
        0x0000c2d8:    4770        pG      BX       lr
    .text
    __aeabi_memclr4
    __aeabi_memclr8
    __rt_memclr_w
        0x0000c2da:    f04f0200    O...    MOV      r2,#0
    _memset_w
        0x0000c2de:    b500        ..      PUSH     {lr}
        0x0000c2e0:    4613        .F      MOV      r3,r2
        0x0000c2e2:    4694        .F      MOV      r12,r2
        0x0000c2e4:    4696        .F      MOV      lr,r2
        0x0000c2e6:    3920         9      SUBS     r1,r1,#0x20
        0x0000c2e8:    bf22        ".      ITTT     CS
        0x0000c2ea:    e8a0500c    ...P    STMCS    r0!,{r2,r3,r12,lr}
        0x0000c2ee:    e8a0500c    ...P    STMCS    r0!,{r2,r3,r12,lr}
        0x0000c2f2:    f1b10120    .. .    SUBSCS   r1,r1,#0x20
        0x0000c2f6:    f4bfaff7    ....    BCS.W    0xc2e8 ; _memset_w + 10
        0x0000c2fa:    0709        ..      LSLS     r1,r1,#28
        0x0000c2fc:    bf28        (.      IT       CS
        0x0000c2fe:    e8a0500c    ...P    STMCS    r0!,{r2,r3,r12,lr}
        0x0000c302:    bf48        H.      IT       MI
        0x0000c304:    c00c        ..      STMMI    r0!,{r2,r3}
        0x0000c306:    f85deb04    ]...    POP      {lr}
        0x0000c30a:    0089        ..      LSLS     r1,r1,#2
        0x0000c30c:    bf28        (.      IT       CS
        0x0000c30e:    f8402b04    @..+    STRCS    r2,[r0],#4
        0x0000c312:    bf08        ..      IT       EQ
        0x0000c314:    4770        pG      BXEQ     lr
        0x0000c316:    bf48        H.      IT       MI
        0x0000c318:    f8202b02     ..+    STRHMI   r2,[r0],#2
        0x0000c31c:    f0114f80    ...O    TST      r1,#0x40000000
        0x0000c320:    bf18        ..      IT       NE
        0x0000c322:    f8002b01    ...+    STRBNE   r2,[r0],#1
        0x0000c326:    4770        pG      BX       lr
    .text
    __use_two_region_memory
        0x0000c328:    4770        pG      BX       lr
    __rt_heap_escrow$2region
        0x0000c32a:    4770        pG      BX       lr
    __rt_heap_expand$2region
        0x0000c32c:    4770        pG      BX       lr
    .text
    __aeabi_memcpy4
    __aeabi_memcpy8
    __rt_memcpy_w
        0x0000c32e:    b510        ..      PUSH     {r4,lr}
        0x0000c330:    3a20         :      SUBS     r2,r2,#0x20
        0x0000c332:    f0c0800b    ....    BCC.W    0xc34c ; __aeabi_memcpy4 + 30
        0x0000c336:    e8b15018    ...P    LDM      r1!,{r3,r4,r12,lr}
        0x0000c33a:    e8a05018    ...P    STM      r0!,{r3,r4,r12,lr}
        0x0000c33e:    e8b15018    ...P    LDM      r1!,{r3,r4,r12,lr}
        0x0000c342:    e8a05018    ...P    STM      r0!,{r3,r4,r12,lr}
        0x0000c346:    3a20         :      SUBS     r2,r2,#0x20
        0x0000c348:    f4bfaff5    ....    BCS.W    0xc336 ; __aeabi_memcpy4 + 8
        0x0000c34c:    ea5f7c02    _..|    LSLS     r12,r2,#28
        0x0000c350:    bf24        $.      ITT      CS
        0x0000c352:    e8b15018    ...P    LDMCS    r1!,{r3,r4,r12,lr}
        0x0000c356:    e8a05018    ...P    STMCS    r0!,{r3,r4,r12,lr}
        0x0000c35a:    bf44        D.      ITT      MI
        0x0000c35c:    c918        ..      LDMMI    r1!,{r3,r4}
        0x0000c35e:    c018        ..      STMMI    r0!,{r3,r4}
        0x0000c360:    e8bd4010    ...@    POP      {r4,lr}
        0x0000c364:    ea5f7c82    _..|    LSLS     r12,r2,#30
        0x0000c368:    bf24        $.      ITT      CS
        0x0000c36a:    f8513b04    Q..;    LDRCS    r3,[r1],#4
        0x0000c36e:    f8403b04    @..;    STRCS    r3,[r0],#4
        0x0000c372:    bf08        ..      IT       EQ
        0x0000c374:    4770        pG      BXEQ     lr
    _memcpy_lastbytes_aligned
        0x0000c376:    07d2        ..      LSLS     r2,r2,#31
        0x0000c378:    bf28        (.      IT       CS
        0x0000c37a:    f8313b02    1..;    LDRHCS   r3,[r1],#2
        0x0000c37e:    bf48        H.      IT       MI
        0x0000c380:    f8112b01    ...+    LDRBMI   r2,[r1],#1
        0x0000c384:    bf28        (.      IT       CS
        0x0000c386:    f8203b02     ..;    STRHCS   r3,[r0],#2
        0x0000c38a:    bf48        H.      IT       MI
        0x0000c38c:    f8002b01    ...+    STRBMI   r2,[r0],#1
        0x0000c390:    4770        pG      BX       lr
    .text
    __user_setup_stackheap
        0x0000c392:    4675        uF      MOV      r5,lr
        0x0000c394:    f000f82c    ..,.    BL       __user_libspace ; 0xc3f0
        0x0000c398:    46ae        .F      MOV      lr,r5
        0x0000c39a:    0005        ..      MOVS     r5,r0
        0x0000c39c:    4669        iF      MOV      r1,sp
        0x0000c39e:    4653        SF      MOV      r3,r10
        0x0000c3a0:    f0200007     ...    BIC      r0,r0,#7
        0x0000c3a4:    4685        .F      MOV      sp,r0
        0x0000c3a6:    b018        ..      ADD      sp,sp,#0x60
        0x0000c3a8:    b520         .      PUSH     {r5,lr}
        0x0000c3aa:    f7ffff45    ..E.    BL       __user_initial_stackheap ; 0xc238
        0x0000c3ae:    e8bd4020    .. @    POP      {r5,lr}
        0x0000c3b2:    f04f0600    O...    MOV      r6,#0
        0x0000c3b6:    f04f0700    O...    MOV      r7,#0
        0x0000c3ba:    f04f0800    O...    MOV      r8,#0
        0x0000c3be:    f04f0b00    O...    MOV      r11,#0
        0x0000c3c2:    46ac        .F      MOV      r12,r5
        0x0000c3c4:    e8ac09c0    ....    STM      r12!,{r6-r8,r11}
        0x0000c3c8:    e8ac09c0    ....    STM      r12!,{r6-r8,r11}
        0x0000c3cc:    e8ac09c0    ....    STM      r12!,{r6-r8,r11}
        0x0000c3d0:    e8ac09c0    ....    STM      r12!,{r6-r8,r11}
        0x0000c3d4:    f0210107    !...    BIC      r1,r1,#7
        0x0000c3d8:    468d        .F      MOV      sp,r1
        0x0000c3da:    4770        pG      BX       lr
    .text
    exit
        0x0000c3dc:    b510        ..      PUSH     {r4,lr}
        0x0000c3de:    4604        .F      MOV      r4,r0
        0x0000c3e0:    f3af8000    ....    NOP.W    
        0x0000c3e4:    4620         F      MOV      r0,r4
        0x0000c3e6:    e8bd4010    ...@    POP      {r4,lr}
        0x0000c3ea:    f7ffbf1e    ....    B.W      __rt_exit ; 0xc22a
        0x0000c3ee:    0000        ..      MOVS     r0,r0
    .text
    __user_libspace
    __user_perproc_libspace
    __user_perthread_libspace
        0x0000c3f0:    4800        .H      LDR      r0,[pc,#0] ; [0xc3f4] = 0x10002678
        0x0000c3f2:    4770        pG      BX       lr
    $d
        0x0000c3f4:    10002678    x&..    DCD    268445304
    $t
    .text
    _sys_exit
        0x0000c3f8:    4901        .I      LDR      r1,[pc,#4] ; [0xc400] = 0x20026
        0x0000c3fa:    2018        .       MOVS     r0,#0x18
        0x0000c3fc:    beab        ..      BKPT     #0xab
        0x0000c3fe:    e7fe        ..      B        0xc3fe ; _sys_exit + 6
    $d
        0x0000c400:    00020026    &...    DCD    131110
    $t
    .text
    __I$use$semihosting
    __use_no_semihosting_swi
        0x0000c404:    4770        pG      BX       lr
    .text
    __semihosting_library_function
        0x0000c406:    0000        ..      MOVS     r0,r0
    $t.0
    HardFault_Handler
        0x0000c408:    b501        ..      PUSH     {r0,lr}
        0x0000c40a:    f01e0f04    ....    TST      lr,#4
        0x0000c40e:    bf0a        ..      ITET     EQ
        0x0000c410:    f3ef8008    ....    MRSEQ    r0,MSP
        0x0000c414:    f3ef8009    ....    MRSNE    r0,PSP
        0x0000c418:    f1100008    ....    ADDSEQ   r0,r0,#8
        0x0000c41c:    f002fe84    ....    BL       am_util_faultisr_collect_data ; 0xf128
        0x0000c420:    bd01        ..      POP      {r0,pc}
        0x0000c422:    0000        ..      MOVS     r0,r0
    __NVIC_DisableIRQ
        0x0000c424:    b081        ..      SUB      sp,sp,#4
        0x0000c426:    f88d0003    ....    STRB     r0,[sp,#3]
        0x0000c42a:    f99d0003    ....    LDRSB    r0,[sp,#3]
        0x0000c42e:    2800        .(      CMP      r0,#0
        0x0000c430:    d412        ..      BMI      0xc458 ; __NVIC_DisableIRQ + 52
        0x0000c432:    e7ff        ..      B        0xc434 ; __NVIC_DisableIRQ + 16
        0x0000c434:    f99d1003    ....    LDRSB    r1,[sp,#3]
        0x0000c438:    f001021f    ....    AND      r2,r1,#0x1f
        0x0000c43c:    2001        .       MOVS     r0,#1
        0x0000c43e:    4090        .@      LSLS     r0,r0,r2
        0x0000c440:    094a        J.      LSRS     r2,r1,#5
        0x0000c442:    f24e1180    N...    MOV      r1,#0xe180
        0x0000c446:    f2ce0100    ....    MOVT     r1,#0xe000
        0x0000c44a:    f8410022    A.".    STR      r0,[r1,r2,LSL #2]
        0x0000c44e:    f3bf8f4f    ..O.    DSB      
        0x0000c452:    f3bf8f6f    ..o.    ISB      
        0x0000c456:    e7ff        ..      B        0xc458 ; __NVIC_DisableIRQ + 52
        0x0000c458:    b001        ..      ADD      sp,sp,#4
        0x0000c45a:    4770        pG      BX       lr
    __NVIC_EnableIRQ
        0x0000c45c:    b081        ..      SUB      sp,sp,#4
        0x0000c45e:    f88d0003    ....    STRB     r0,[sp,#3]
        0x0000c462:    f99d0003    ....    LDRSB    r0,[sp,#3]
        0x0000c466:    2800        .(      CMP      r0,#0
        0x0000c468:    d40e        ..      BMI      0xc488 ; __NVIC_EnableIRQ + 44
        0x0000c46a:    e7ff        ..      B        0xc46c ; __NVIC_EnableIRQ + 16
        0x0000c46c:    f99d1003    ....    LDRSB    r1,[sp,#3]
        0x0000c470:    f001021f    ....    AND      r2,r1,#0x1f
        0x0000c474:    2001        .       MOVS     r0,#1
        0x0000c476:    4090        .@      LSLS     r0,r0,r2
        0x0000c478:    094a        J.      LSRS     r2,r1,#5
        0x0000c47a:    f24e1100    N...    MOVW     r1,#0xe100
        0x0000c47e:    f2ce0100    ....    MOVT     r1,#0xe000
        0x0000c482:    f8410022    A.".    STR      r0,[r1,r2,LSL #2]
        0x0000c486:    e7ff        ..      B        0xc488 ; __NVIC_EnableIRQ + 44
        0x0000c488:    b001        ..      ADD      sp,sp,#4
        0x0000c48a:    4770        pG      BX       lr
    am_bsp_itm_printf_enable
        0x0000c48c:    b580        ..      PUSH     {r7,lr}
        0x0000c48e:    b086        ..      SUB      sp,sp,#0x18
        0x0000c490:    f643408c    C..@    MOV      r0,#0x3c8c
        0x0000c494:    f2c10000    ....    MOVT     r0,#0x1000
        0x0000c498:    2101        .!      MOVS     r1,#1
        0x0000c49a:    6001        .`      STR      r1,[r0,#0]
        0x0000c49c:    f001fe18    ....    BL       am_hal_itm_enable ; 0xe0d0
        0x0000c4a0:    f2442040    D.@     MOV      r0,#0x4240
        0x0000c4a4:    f2c0000f    ....    MOVT     r0,#0xf
        0x0000c4a8:    9001        ..      STR      r0,[sp,#4]
        0x0000c4aa:    a801        ..      ADD      r0,sp,#4
        0x0000c4ac:    f002f8ab    ....    BL       am_hal_tpiu_enable ; 0xe606
        0x0000c4b0:    f64230f0    B..0    MOV      r0,#0x2bf0
        0x0000c4b4:    f2c00001    ....    MOVT     r0,#1
        0x0000c4b8:    6801        .h      LDR      r1,[r0,#0]
        0x0000c4ba:    2029        )       MOVS     r0,#0x29
        0x0000c4bc:    f001fc84    ....    BL       am_hal_gpio_pinconfig ; 0xddc8
        0x0000c4c0:    f24e1015    N...    MOV      r0,#0xe115
        0x0000c4c4:    f2c00000    ....    MOVT     r0,#0
        0x0000c4c8:    f002fec6    ....    BL       am_util_stdio_printf_init ; 0xf258
        0x0000c4cc:    b006        ..      ADD      sp,sp,#0x18
        0x0000c4ce:    bd80        ..      POP      {r7,pc}
    am_bsp_low_power_init
        0x0000c4d0:    b5f0        ..      PUSH     {r4-r7,lr}
        0x0000c4d2:    b081        ..      SUB      sp,sp,#4
        0x0000c4d4:    f001feeb    ....    BL       am_hal_pwrctrl_low_power_init ; 0xe2ae
        0x0000c4d8:    f002f88c    ....    BL       am_hal_rtc_osc_disable ; 0xe5f4
        0x0000c4dc:    f64230f4    B..0    MOV      r0,#0x2bf4
        0x0000c4e0:    f2c00001    ....    MOVT     r0,#1
        0x0000c4e4:    6804        .h      LDR      r4,[r0,#0]
        0x0000c4e6:    f2416728    A.(g    MOV      r7,#0x1628
        0x0000c4ea:    2600        .&      MOVS     r6,#0
        0x0000c4ec:    f2c10700    ....    MOVT     r7,#0x1000
        0x0000c4f0:    f8575036    W.6P    LDR      r5,[r7,r6,LSL #3]
        0x0000c4f4:    4621        !F      MOV      r1,r4
        0x0000c4f6:    4628        (F      MOV      r0,r5
        0x0000c4f8:    f001fc66    ..f.    BL       am_hal_gpio_pinconfig ; 0xddc8
        0x0000c4fc:    4628        (F      MOV      r0,r5
        0x0000c4fe:    2103        .!      MOVS     r1,#3
        0x0000c500:    f001fd8e    ....    BL       am_hal_gpio_state_write ; 0xe020
        0x0000c504:    4628        (F      MOV      r0,r5
        0x0000c506:    2100        .!      MOVS     r1,#0
        0x0000c508:    f001fd8a    ....    BL       am_hal_gpio_state_write ; 0xe020
        0x0000c50c:    3601        .6      ADDS     r6,#1
        0x0000c50e:    2e05        ..      CMP      r6,#5
        0x0000c510:    d1ee        ..      BNE      0xc4f0 ; am_bsp_low_power_init + 32
        0x0000c512:    b001        ..      ADD      sp,sp,#4
        0x0000c514:    bdf0        ..      POP      {r4-r7,pc}
    am_hal_ble_blocking_hci_read
        0x0000c516:    b5f0        ..      PUSH     {r4-r7,lr}
        0x0000c518:    b087        ..      SUB      sp,sp,#0x1c
        0x0000c51a:    4605        .F      MOV      r5,r0
        0x0000c51c:    a806        ..      ADD      r0,sp,#0x18
        0x0000c51e:    460e        .F      MOV      r6,r1
        0x0000c520:    9000        ..      STR      r0,[sp,#0]
        0x0000c522:    2000        .       MOVS     r0,#0
        0x0000c524:    f04f1102    O...    MOV      r1,#0x20002
        0x0000c528:    9001        ..      STR      r0,[sp,#4]
        0x0000c52a:    9102        ..      STR      r1,[sp,#8]
        0x0000c52c:    f88d000c    ....    STRB     r0,[sp,#0xc]
        0x0000c530:    9004        ..      STR      r0,[sp,#0x10]
        0x0000c532:    9005        ..      STR      r0,[sp,#0x14]
        0x0000c534:    b1a5        ..      CBZ      r5,0xc560 ; am_hal_ble_blocking_hci_read + 74
        0x0000c536:    6828        (h      LDR      r0,[r5,#0]
        0x0000c538:    f2452130    E.0!    MOV      r1,#0x5230
        0x0000c53c:    f020407e     .~@    BIC      r0,r0,#0xfe000000
        0x0000c540:    f2c01177    ..w.    MOVT     r1,#0x177
        0x0000c544:    4288        .B      CMP      r0,r1
        0x0000c546:    d10a        ..      BNE      0xc55e ; am_hal_ble_blocking_hci_read + 72
        0x0000c548:    f24c300c    L..0    MOV      r0,#0xc30c
        0x0000c54c:    f2c50000    ....    MOVT     r0,#0x5000
        0x0000c550:    6800        .h      LDR      r0,[r0,#0]
        0x0000c552:    4614        .F      MOV      r4,r2
        0x0000c554:    0600        ..      LSLS     r0,r0,#24
        0x0000c556:    d405        ..      BMI      0xc564 ; am_hal_ble_blocking_hci_read + 78
        0x0000c558:    2700        .'      MOVS     r7,#0
        0x0000c55a:    b104        ..      CBZ      r4,0xc55e ; am_hal_ble_blocking_hci_read + 72
        0x0000c55c:    6027        '`      STR      r7,[r4,#0]
        0x0000c55e:    2000        .       MOVS     r0,#0
        0x0000c560:    b007        ..      ADD      sp,sp,#0x1c
        0x0000c562:    bdf0        ..      POP      {r4-r7,pc}
        0x0000c564:    4669        iF      MOV      r1,sp
        0x0000c566:    4628        (F      MOV      r0,r5
        0x0000c568:    f000f83e    ..>.    BL       am_hal_ble_blocking_transfer ; 0xc5e8
        0x0000c56c:    2800        .(      CMP      r0,#0
        0x0000c56e:    d1f7        ..      BNE      0xc560 ; am_hal_ble_blocking_hci_read + 74
        0x0000c570:    f8bd7018    ...p    LDRH     r7,[sp,#0x18]
        0x0000c574:    9600        ..      STR      r6,[sp,#0]
        0x0000c576:    1e78        x.      SUBS     r0,r7,#1
        0x0000c578:    28ff        .(      CMP      r0,#0xff
        0x0000c57a:    f8ad7008    ...p    STRH     r7,[sp,#8]
        0x0000c57e:    d901        ..      BLS      0xc584 ; am_hal_ble_blocking_hci_read + 110
        0x0000c580:    2005        .       MOVS     r0,#5
        0x0000c582:    e7ed        ..      B        0xc560 ; am_hal_ble_blocking_hci_read + 74
        0x0000c584:    4669        iF      MOV      r1,sp
        0x0000c586:    4628        (F      MOV      r0,r5
        0x0000c588:    f000f82e    ....    BL       am_hal_ble_blocking_transfer ; 0xc5e8
        0x0000c58c:    2800        .(      CMP      r0,#0
        0x0000c58e:    d1e7        ..      BNE      0xc560 ; am_hal_ble_blocking_hci_read + 74
        0x0000c590:    e7e3        ..      B        0xc55a ; am_hal_ble_blocking_hci_read + 68
    am_hal_ble_blocking_hci_write
        0x0000c592:    b580        ..      PUSH     {r7,lr}
        0x0000c594:    b086        ..      SUB      sp,sp,#0x18
        0x0000c596:    9200        ..      STR      r2,[sp,#0]
        0x0000c598:    2200        ."      MOVS     r2,#0
        0x0000c59a:    f8ad3008    ...0    STRH     r3,[sp,#8]
        0x0000c59e:    2301        .#      MOVS     r3,#1
        0x0000c5a0:    f88d1004    ....    STRB     r1,[sp,#4]
        0x0000c5a4:    f8ad2005    ...     STRH     r2,[sp,#5]
        0x0000c5a8:    f88d2007    ...     STRB     r2,[sp,#7]
        0x0000c5ac:    f8ad300a    ...0    STRH     r3,[sp,#0xa]
        0x0000c5b0:    f88d200c    ...     STRB     r2,[sp,#0xc]
        0x0000c5b4:    9204        ..      STR      r2,[sp,#0x10]
        0x0000c5b6:    9205        ..      STR      r2,[sp,#0x14]
        0x0000c5b8:    b190        ..      CBZ      r0,0xc5e0 ; am_hal_ble_blocking_hci_write + 78
        0x0000c5ba:    6802        .h      LDR      r2,[r0,#0]
        0x0000c5bc:    f2452330    E.0#    MOV      r3,#0x5230
        0x0000c5c0:    f022427e    ".~B    BIC      r2,r2,#0xfe000000
        0x0000c5c4:    f2c01377    ..w.    MOVT     r3,#0x177
        0x0000c5c8:    429a        .B      CMP      r2,r3
        0x0000c5ca:    d108        ..      BNE      0xc5de ; am_hal_ble_blocking_hci_write + 76
        0x0000c5cc:    b111        ..      CBZ      r1,0xc5d4 ; am_hal_ble_blocking_hci_write + 66
        0x0000c5ce:    2101        .!      MOVS     r1,#1
        0x0000c5d0:    f88d1007    ....    STRB     r1,[sp,#7]
        0x0000c5d4:    4669        iF      MOV      r1,sp
        0x0000c5d6:    f000f807    ....    BL       am_hal_ble_blocking_transfer ; 0xc5e8
        0x0000c5da:    4602        .F      MOV      r2,r0
        0x0000c5dc:    e000        ..      B        0xc5e0 ; am_hal_ble_blocking_hci_write + 78
        0x0000c5de:    2200        ."      MOVS     r2,#0
        0x0000c5e0:    4610        .F      MOV      r0,r2
        0x0000c5e2:    b006        ..      ADD      sp,sp,#0x18
        0x0000c5e4:    bd80        ..      POP      {r7,pc}
        0x0000c5e6:    0000        ..      MOVS     r0,r0
    am_hal_ble_blocking_transfer
        0x0000c5e8:    e92d4ff0    -..O    PUSH     {r4-r11,lr}
        0x0000c5ec:    b083        ..      SUB      sp,sp,#0xc
        0x0000c5ee:    2800        .(      CMP      r0,#0
        0x0000c5f0:    f0008095    ....    BEQ.W    0xc71e ; am_hal_ble_blocking_transfer + 310
        0x0000c5f4:    4604        .F      MOV      r4,r0
        0x0000c5f6:    6800        .h      LDR      r0,[r0,#0]
        0x0000c5f8:    f2452a30    E.0*    MOV      r10,#0x5230
        0x0000c5fc:    f2c01a77    ..w.    MOVT     r10,#0x177
        0x0000c600:    f020407e     .~@    BIC      r0,r0,#0xfe000000
        0x0000c604:    4550        PE      CMP      r0,r10
        0x0000c606:    f040808a    @...    BNE.W    0xc71e ; am_hal_ble_blocking_transfer + 310
        0x0000c60a:    8908        ..      LDRH     r0,[r1,#8]
        0x0000c60c:    468b        .F      MOV      r11,r1
        0x0000c60e:    2800        .(      CMP      r0,#0
        0x0000c610:    f0008089    ....    BEQ.W    0xc726 ; am_hal_ble_blocking_transfer + 318
        0x0000c614:    f24c1700    L...    MOVW     r7,#0xc100
        0x0000c618:    f2c50700    ....    MOVT     r7,#0x5000
        0x0000c61c:    f8d78120    .. .    LDR      r8,[r7,#0x120]
        0x0000c620:    f8d70120    .. .    LDR      r0,[r7,#0x120]
        0x0000c624:    f0200080     ...    BIC      r0,r0,#0x80
        0x0000c628:    f8c70120    .. .    STR      r0,[r7,#0x120]
        0x0000c62c:    f8d70120    .. .    LDR      r0,[r7,#0x120]
        0x0000c630:    f4207080     ..p    BIC      r0,r0,#0x100
        0x0000c634:    f8c70120    .. .    STR      r0,[r7,#0x120]
        0x0000c638:    f8d70120    .. .    LDR      r0,[r7,#0x120]
        0x0000c63c:    f0200001     ...    BIC      r0,r0,#1
        0x0000c640:    f8c70120    .. .    STR      r0,[r7,#0x120]
        0x0000c644:    f8d70120    .. .    LDR      r0,[r7,#0x120]
        0x0000c648:    f0200002     ...    BIC      r0,r0,#2
        0x0000c64c:    f8c70120    .. .    STR      r0,[r7,#0x120]
        0x0000c650:    f8d70128    ..(.    LDR      r0,[r7,#0x128]
        0x0000c654:    f0400001    @...    ORR      r0,r0,#1
        0x0000c658:    f8c70128    ..(.    STR      r0,[r7,#0x128]
        0x0000c65c:    f8d70128    ..(.    LDR      r0,[r7,#0x128]
        0x0000c660:    f4407080    @..p    ORR      r0,r0,#0x100
        0x0000c664:    f8c70128    ..(.    STR      r0,[r7,#0x128]
        0x0000c668:    f89b000a    ....    LDRB     r0,[r11,#0xa]
        0x0000c66c:    2801        .(      CMP      r0,#1
        0x0000c66e:    d15c        \.      BNE      0xc72a ; am_hal_ble_blocking_transfer + 322
        0x0000c670:    f8940042    ..B.    LDRB     r0,[r4,#0x42]
        0x0000c674:    b148        H.      CBZ      r0,0xc68a ; am_hal_ble_blocking_transfer + 162
        0x0000c676:    f8940040    ..@.    LDRB     r0,[r4,#0x40]
        0x0000c67a:    b918        ..      CBNZ     r0,0xc684 ; am_hal_ble_blocking_transfer + 156
        0x0000c67c:    f64b3080    K..0    MOV      r0,#0xbb80
        0x0000c680:    f001fb3e    ..>.    BL       am_hal_flash_delay ; 0xdd00
        0x0000c684:    2000        .       MOVS     r0,#0
        0x0000c686:    f8840042    ..B.    STRB     r0,[r4,#0x42]
        0x0000c68a:    f8940040    ..@.    LDRB     r0,[r4,#0x40]
        0x0000c68e:    b190        ..      CBZ      r0,0xc6b6 ; am_hal_ble_blocking_transfer + 206
        0x0000c690:    f240152d    @.-.    MOV      r5,#0x12d
        0x0000c694:    2600        .&      MOVS     r6,#0
        0x0000c696:    bf00        ..      NOP      
        0x0000c698:    f8940041    ..A.    LDRB     r0,[r4,#0x41]
        0x0000c69c:    b110        ..      CBZ      r0,0xc6a4 ; am_hal_ble_blocking_transfer + 188
        0x0000c69e:    f8846041    ..A`    STRB     r6,[r4,#0x41]
        0x0000c6a2:    e003        ..      B        0xc6ac ; am_hal_ble_blocking_transfer + 196
        0x0000c6a4:    f8d7020c    ....    LDR      r0,[r7,#0x20c]
        0x0000c6a8:    0700        ..      LSLS     r0,r0,#28
        0x0000c6aa:    d504        ..      BPL      0xc6b6 ; am_hal_ble_blocking_transfer + 206
        0x0000c6ac:    20a0        .       MOVS     r0,#0xa0
        0x0000c6ae:    f001fb27    ..'.    BL       am_hal_flash_delay ; 0xdd00
        0x0000c6b2:    3d01        .=      SUBS     r5,#1
        0x0000c6b4:    d1f0        ..      BNE      0xc698 ; am_hal_ble_blocking_transfer + 176
        0x0000c6b6:    f8d70310    ....    LDR      r0,[r7,#0x310]
        0x0000c6ba:    f0400002    @...    ORR      r0,r0,#2
        0x0000c6be:    f8c70310    ....    STR      r0,[r7,#0x310]
        0x0000c6c2:    2050        P       MOVS     r0,#0x50
        0x0000c6c4:    f001fb1c    ....    BL       am_hal_flash_delay ; 0xdd00
        0x0000c6c8:    6820         h      LDR      r0,[r4,#0]
        0x0000c6ca:    f020407e     .~@    BIC      r0,r0,#0xfe000000
        0x0000c6ce:    4550        PE      CMP      r0,r10
        0x0000c6d0:    d105        ..      BNE      0xc6de ; am_hal_ble_blocking_transfer + 246
        0x0000c6d2:    f8d70204    ....    LDR      r0,[r7,#0x204]
        0x0000c6d6:    f040000c    @...    ORR      r0,r0,#0xc
        0x0000c6da:    f8c70204    ....    STR      r0,[r7,#0x204]
        0x0000c6de:    2500        .%      MOVS     r5,#0
        0x0000c6e0:    2600        .&      MOVS     r6,#0
        0x0000c6e2:    bf00        ..      NOP      
        0x0000c6e4:    f8940041    ..A.    LDRB     r0,[r4,#0x41]
        0x0000c6e8:    b110        ..      CBZ      r0,0xc6f0 ; am_hal_ble_blocking_transfer + 264
        0x0000c6ea:    f8845041    ..AP    STRB     r5,[r4,#0x41]
        0x0000c6ee:    e00d        ..      B        0xc70c ; am_hal_ble_blocking_transfer + 292
        0x0000c6f0:    f8d7020c    ....    LDR      r0,[r7,#0x20c]
        0x0000c6f4:    0700        ..      LSLS     r0,r0,#28
        0x0000c6f6:    d409        ..      BMI      0xc70c ; am_hal_ble_blocking_transfer + 292
        0x0000c6f8:    08b0        ..      LSRS     r0,r6,#2
        0x0000c6fa:    284a        J(      CMP      r0,#0x4a
        0x0000c6fc:    f200811c    ....    BHI.W    0xc938 ; am_hal_ble_blocking_transfer + 848
        0x0000c700:    f8d7020c    ....    LDR      r0,[r7,#0x20c]
        0x0000c704:    0600        ..      LSLS     r0,r0,#24
        0x0000c706:    d505        ..      BPL      0xc714 ; am_hal_ble_blocking_transfer + 300
        0x0000c708:    e116        ..      B        0xc938 ; am_hal_ble_blocking_transfer + 848
        0x0000c70a:    bf00        ..      NOP      
        0x0000c70c:    4620         F      MOV      r0,r4
        0x0000c70e:    f000f944    ..D.    BL       am_hal_ble_bus_lock ; 0xc99a
        0x0000c712:    b9a0        ..      CBNZ     r0,0xc73e ; am_hal_ble_blocking_transfer + 342
        0x0000c714:    20a0        .       MOVS     r0,#0xa0
        0x0000c716:    3601        .6      ADDS     r6,#1
        0x0000c718:    f001faf2    ....    BL       am_hal_flash_delay ; 0xdd00
        0x0000c71c:    e7e2        ..      B        0xc6e4 ; am_hal_ble_blocking_transfer + 252
        0x0000c71e:    2002        .       MOVS     r0,#2
        0x0000c720:    b003        ..      ADD      sp,sp,#0xc
        0x0000c722:    e8bd8ff0    ....    POP      {r4-r11,pc}
        0x0000c726:    2000        .       MOVS     r0,#0
        0x0000c728:    e7fa        ..      B        0xc720 ; am_hal_ble_blocking_transfer + 312
        0x0000c72a:    f8d7020c    ....    LDR      r0,[r7,#0x20c]
        0x0000c72e:    0600        ..      LSLS     r0,r0,#24
        0x0000c730:    d40c        ..      BMI      0xc74c ; am_hal_ble_blocking_transfer + 356
        0x0000c732:    2001        .       MOVS     r0,#1
        0x0000c734:    f6c00000    ....    MOVT     r0,#0x800
        0x0000c738:    f8c78120    .. .    STR      r8,[r7,#0x120]
        0x0000c73c:    e7f0        ..      B        0xc720 ; am_hal_ble_blocking_transfer + 312
        0x0000c73e:    f8d70310    ....    LDR      r0,[r7,#0x310]
        0x0000c742:    f0200002     ...    BIC      r0,r0,#2
        0x0000c746:    f8c70310    ....    STR      r0,[r7,#0x310]
        0x0000c74a:    e005        ..      B        0xc758 ; am_hal_ble_blocking_transfer + 368
        0x0000c74c:    4620         F      MOV      r0,r4
        0x0000c74e:    f000f924    ..$.    BL       am_hal_ble_bus_lock ; 0xc99a
        0x0000c752:    2800        .(      CMP      r0,#0
        0x0000c754:    f0008117    ....    BEQ.W    0xc986 ; am_hal_ble_blocking_transfer + 926
        0x0000c758:    f89b000c    ....    LDRB     r0,[r11,#0xc]
        0x0000c75c:    b110        ..      CBZ      r0,0xc764 ; am_hal_ble_blocking_transfer + 380
        0x0000c75e:    2001        .       MOVS     r0,#1
        0x0000c760:    f8840041    ..A.    STRB     r0,[r4,#0x41]
        0x0000c764:    e89b004f    ..O.    LDM      r11,{r0-r3,r6}
        0x0000c768:    f8db5014    ...P    LDR      r5,[r11,#0x14]
        0x0000c76c:    46a1        .F      MOV      r9,r4
        0x0000c76e:    f8490f0c    I...    STR      r0,[r9,#0xc]!
        0x0000c772:    f1040010    ....    ADD      r0,r4,#0x10
        0x0000c776:    c04e        N.      STM      r0!,{r1-r3,r6}
        0x0000c778:    6225        %b      STR      r5,[r4,#0x20]
        0x0000c77a:    f001fc9d    ....    BL       am_hal_interrupt_master_disable ; 0xe0b8
        0x0000c77e:    9002        ..      STR      r0,[sp,#8]
        0x0000c780:    4620         F      MOV      r0,r4
        0x0000c782:    4659        YF      MOV      r1,r11
        0x0000c784:    f000f91e    ....    BL       am_hal_ble_cmd_write ; 0xc9c4
        0x0000c788:    f89b000a    ....    LDRB     r0,[r11,#0xa]
        0x0000c78c:    2801        .(      CMP      r0,#1
        0x0000c78e:    d15c        \.      BNE      0xc84a ; am_hal_ble_blocking_transfer + 610
        0x0000c790:    8aa5        ..      LDRH     r5,[r4,#0x14]
        0x0000c792:    68e6        .h      LDR      r6,[r4,#0xc]
        0x0000c794:    4620         F      MOV      r0,r4
        0x0000c796:    4659        YF      MOV      r1,r11
        0x0000c798:    e9cd9800    ....    STRD     r9,r8,[sp,#0]
        0x0000c79c:    f000f912    ....    BL       am_hal_ble_cmd_write ; 0xc9c4
        0x0000c7a0:    b385        ..      CBZ      r5,0xc804 ; am_hal_ble_blocking_transfer + 540
        0x0000c7a2:    f24a181f    J...    MOV      r8,#0xa11f
        0x0000c7a6:    f2c00807    ....    MOVT     r8,#7
        0x0000c7aa:    6838        8h      LDR      r0,[r7,#0]
        0x0000c7ac:    f3c02007    ...     UBFX     r0,r0,#8,#8
        0x0000c7b0:    2803        .(      CMP      r0,#3
        0x0000c7b2:    d812        ..      BHI      0xc7da ; am_hal_ble_blocking_transfer + 498
        0x0000c7b4:    f04f0900    O...    MOV      r9,#0
        0x0000c7b8:    f8d70124    ..$.    LDR      r0,[r7,#0x124]
        0x0000c7bc:    45c1        .E      CMP      r9,r8
        0x0000c7be:    d821        !.      BHI      0xc804 ; am_hal_ble_blocking_transfer + 540
        0x0000c7c0:    f0100001    ....    ANDS     r0,r0,#1
        0x0000c7c4:    d11e        ..      BNE      0xc804 ; am_hal_ble_blocking_transfer + 540
        0x0000c7c6:    2010        .       MOVS     r0,#0x10
        0x0000c7c8:    f1090901    ....    ADD      r9,r9,#1
        0x0000c7cc:    f001fa98    ....    BL       am_hal_flash_delay ; 0xdd00
        0x0000c7d0:    6838        8h      LDR      r0,[r7,#0]
        0x0000c7d2:    f3c02007    ...     UBFX     r0,r0,#8,#8
        0x0000c7d6:    2804        .(      CMP      r0,#4
        0x0000c7d8:    d3ee        ..      BCC      0xc7b8 ; am_hal_ble_blocking_transfer + 464
        0x0000c7da:    b185        ..      CBZ      r5,0xc7fe ; am_hal_ble_blocking_transfer + 534
        0x0000c7dc:    3804        .8      SUBS     r0,#4
        0x0000c7de:    bf00        ..      NOP      
        0x0000c7e0:    f8561b04    V...    LDR      r1,[r6],#4
        0x0000c7e4:    2d03        .-      CMP      r5,#3
        0x0000c7e6:    60f9        .`      STR      r1,[r7,#0xc]
        0x0000c7e8:    f04f0100    O...    MOV      r1,#0
        0x0000c7ec:    bf88        ..      IT       HI
        0x0000c7ee:    1f29        ).      SUBHI    r1,r5,#4
        0x0000c7f0:    460d        .F      MOV      r5,r1
        0x0000c7f2:    b129        ).      CBZ      r1,0xc800 ; am_hal_ble_blocking_transfer + 536
        0x0000c7f4:    2803        .(      CMP      r0,#3
        0x0000c7f6:    f1a00004    ....    SUB      r0,r0,#4
        0x0000c7fa:    d8f1        ..      BHI      0xc7e0 ; am_hal_ble_blocking_transfer + 504
        0x0000c7fc:    e000        ..      B        0xc800 ; am_hal_ble_blocking_transfer + 536
        0x0000c7fe:    2500        .%      MOVS     r5,#0
        0x0000c800:    2d00        .-      CMP      r5,#0
        0x0000c802:    d1d2        ..      BNE      0xc7aa ; am_hal_ble_blocking_transfer + 450
        0x0000c804:    f8d70124    ..$.    LDR      r0,[r7,#0x124]
        0x0000c808:    07c0        ..      LSLS     r0,r0,#31
        0x0000c80a:    d10f        ..      BNE      0xc82c ; am_hal_ble_blocking_transfer + 580
        0x0000c80c:    2500        .%      MOVS     r5,#0
        0x0000c80e:    f24076ce    @..v    MOV      r6,#0x7ce
        0x0000c812:    bf00        ..      NOP      
        0x0000c814:    2010        .       MOVS     r0,#0x10
        0x0000c816:    f001fa73    ..s.    BL       am_hal_flash_delay ; 0xdd00
        0x0000c81a:    f8d70124    ..$.    LDR      r0,[r7,#0x124]
        0x0000c81e:    42b5        .B      CMP      r5,r6
        0x0000c820:    d804        ..      BHI      0xc82c ; am_hal_ble_blocking_transfer + 580
        0x0000c822:    f0100001    ....    ANDS     r0,r0,#1
        0x0000c826:    f1050501    ....    ADD      r5,r5,#1
        0x0000c82a:    d0f3        ..      BEQ      0xc814 ; am_hal_ble_blocking_transfer + 556
        0x0000c82c:    6820         h      LDR      r0,[r4,#0]
        0x0000c82e:    e9dd9800    ....    LDRD     r9,r8,[sp,#0]
        0x0000c832:    f020407e     .~@    BIC      r0,r0,#0xfe000000
        0x0000c836:    4550        PE      CMP      r0,r10
        0x0000c838:    d135        5.      BNE      0xc8a6 ; am_hal_ble_blocking_transfer + 702
        0x0000c83a:    f8d70204    ....    LDR      r0,[r7,#0x204]
        0x0000c83e:    2102        .!      MOVS     r1,#2
        0x0000c840:    f3610083    a...    BFI      r0,r1,#2,#2
        0x0000c844:    f8c70204    ....    STR      r0,[r7,#0x204]
        0x0000c848:    e02d        -.      B        0xc8a6 ; am_hal_ble_blocking_transfer + 702
        0x0000c84a:    6be1        .k      LDR      r1,[r4,#0x3c]
        0x0000c84c:    f8b4c014    ....    LDRH     r12,[r4,#0x14]
        0x0000c850:    4561        aE      CMP      r1,r12
        0x0000c852:    d228        (.      BCS      0xc8a6 ; am_hal_ble_blocking_transfer + 702
        0x0000c854:    2000        .       MOVS     r0,#0
        0x0000c856:    4662        bF      MOV      r2,r12
        0x0000c858:    6823        #h      LDR      r3,[r4,#0]
        0x0000c85a:    f023437e    #.~C    BIC      r3,r3,#0xfe000000
        0x0000c85e:    4553        SE      CMP      r3,r10
        0x0000c860:    d11d        ..      BNE      0xc89e ; am_hal_ble_blocking_transfer + 694
        0x0000c862:    683b        ;h      LDR      r3,[r7,#0]
        0x0000c864:    f3c34507    ...E    UBFX     r5,r3,#16,#8
        0x0000c868:    2d04        .-      CMP      r5,#4
        0x0000c86a:    d318        ..      BCC      0xc89e ; am_hal_ble_blocking_transfer + 694
        0x0000c86c:    0c1e        ..      LSRS     r6,r3,#16
        0x0000c86e:    1a53        S.      SUBS     r3,r2,r1
        0x0000c870:    4295        .B      CMP      r5,r2
        0x0000c872:    bf38        8.      IT       CC
        0x0000c874:    f00603fc    ....    ANDCC    r3,r6,#0xfc
        0x0000c878:    b17b        {.      CBZ      r3,0xc89a ; am_hal_ble_blocking_transfer + 690
        0x0000c87a:    f8d92000    ...     LDR      r2,[r9,#0]
        0x0000c87e:    f0210103    !...    BIC      r1,r1,#3
        0x0000c882:    4411        .D      ADD      r1,r1,r2
        0x0000c884:    2200        ."      MOVS     r2,#0
        0x0000c886:    bf00        ..      NOP      
        0x0000c888:    68be        .h      LDR      r6,[r7,#8]
        0x0000c88a:    508e        .P      STR      r6,[r1,r2]
        0x0000c88c:    3204        .2      ADDS     r2,#4
        0x0000c88e:    429a        .B      CMP      r2,r3
        0x0000c890:    60b8        .`      STR      r0,[r7,#8]
        0x0000c892:    d3f9        ..      BCC      0xc888 ; am_hal_ble_blocking_transfer + 672
        0x0000c894:    6be1        .k      LDR      r1,[r4,#0x3c]
        0x0000c896:    f8b4c014    ....    LDRH     r12,[r4,#0x14]
        0x0000c89a:    4419        .D      ADD      r1,r1,r3
        0x0000c89c:    63e1        .c      STR      r1,[r4,#0x3c]
        0x0000c89e:    fa1ff28c    ....    UXTH     r2,r12
        0x0000c8a2:    4291        .B      CMP      r1,r2
        0x0000c8a4:    d3d8        ..      BCC      0xc858 ; am_hal_ble_blocking_transfer + 624
        0x0000c8a6:    9802        ..      LDR      r0,[sp,#8]
        0x0000c8a8:    f001fc0e    ....    BL       am_hal_interrupt_master_set ; 0xe0c8
        0x0000c8ac:    f8d70124    ..$.    LDR      r0,[r7,#0x124]
        0x0000c8b0:    07c0        ..      LSLS     r0,r0,#31
        0x0000c8b2:    d10a        ..      BNE      0xc8ca ; am_hal_ble_blocking_transfer + 738
        0x0000c8b4:    f2427511    B..u    MOV      r5,#0x2711
        0x0000c8b8:    3d01        .=      SUBS     r5,#1
        0x0000c8ba:    d069        i.      BEQ      0xc990 ; am_hal_ble_blocking_transfer + 936
        0x0000c8bc:    2010        .       MOVS     r0,#0x10
        0x0000c8be:    f001fa1f    ....    BL       am_hal_flash_delay ; 0xdd00
        0x0000c8c2:    f8d70124    ..$.    LDR      r0,[r7,#0x124]
        0x0000c8c6:    07c0        ..      LSLS     r0,r0,#31
        0x0000c8c8:    d0f6        ..      BEQ      0xc8b8 ; am_hal_ble_blocking_transfer + 720
        0x0000c8ca:    f8d70128    ..(.    LDR      r0,[r7,#0x128]
        0x0000c8ce:    2118        .!      MOVS     r1,#0x18
        0x0000c8d0:    f0400001    @...    ORR      r0,r0,#1
        0x0000c8d4:    f8c70128    ..(.    STR      r0,[r7,#0x128]
        0x0000c8d8:    f8d70128    ..(.    LDR      r0,[r7,#0x128]
        0x0000c8dc:    f0400002    @...    ORR      r0,r0,#2
        0x0000c8e0:    f8c70128    ..(.    STR      r0,[r7,#0x128]
        0x0000c8e4:    4648        HF      MOV      r0,r9
        0x0000c8e6:    f7fffcf8    ....    BL       __aeabi_memclr4 ; 0xc2da
        0x0000c8ea:    f89b000a    ....    LDRB     r0,[r11,#0xa]
        0x0000c8ee:    2100        .!      MOVS     r1,#0
        0x0000c8f0:    2801        .(      CMP      r0,#1
        0x0000c8f2:    63e1        .c      STR      r1,[r4,#0x3c]
        0x0000c8f4:    d112        ..      BNE      0xc91c ; am_hal_ble_blocking_transfer + 820
        0x0000c8f6:    6820         h      LDR      r0,[r4,#0]
        0x0000c8f8:    2101        .!      MOVS     r1,#1
        0x0000c8fa:    f020407e     .~@    BIC      r0,r0,#0xfe000000
        0x0000c8fe:    4550        PE      CMP      r0,r10
        0x0000c900:    f04f0001    O...    MOV      r0,#1
        0x0000c904:    d108        ..      BNE      0xc918 ; am_hal_ble_blocking_transfer + 816
        0x0000c906:    f8d70204    ....    LDR      r0,[r7,#0x204]
        0x0000c90a:    2202        ."      MOVS     r2,#2
        0x0000c90c:    f3620083    b...    BFI      r0,r2,#2,#2
        0x0000c910:    f8c70204    ....    STR      r0,[r7,#0x204]
        0x0000c914:    f89b000a    ....    LDRB     r0,[r11,#0xa]
        0x0000c918:    f8841042    ..B.    STRB     r1,[r4,#0x42]
        0x0000c91c:    2802        .(      CMP      r0,#2
        0x0000c91e:    d105        ..      BNE      0xc92c ; am_hal_ble_blocking_transfer + 836
        0x0000c920:    f8940040    ..@.    LDRB     r0,[r4,#0x40]
        0x0000c924:    b110        ..      CBZ      r0,0xc92c ; am_hal_ble_blocking_transfer + 836
        0x0000c926:    2000        .       MOVS     r0,#0
        0x0000c928:    f8840042    ..B.    STRB     r0,[r4,#0x42]
        0x0000c92c:    2000        .       MOVS     r0,#0
        0x0000c92e:    f8c78120    .. .    STR      r8,[r7,#0x120]
        0x0000c932:    f8840044    ..D.    STRB     r0,[r4,#0x44]
        0x0000c936:    e6f3        ..      B        0xc720 ; am_hal_ble_blocking_transfer + 312
        0x0000c938:    6820         h      LDR      r0,[r4,#0]
        0x0000c93a:    f020407e     .~@    BIC      r0,r0,#0xfe000000
        0x0000c93e:    4550        PE      CMP      r0,r10
        0x0000c940:    d106        ..      BNE      0xc950 ; am_hal_ble_blocking_transfer + 872
        0x0000c942:    f8d70204    ....    LDR      r0,[r7,#0x204]
        0x0000c946:    2102        .!      MOVS     r1,#2
        0x0000c948:    f3610083    a...    BFI      r0,r1,#2,#2
        0x0000c94c:    f8c70204    ....    STR      r0,[r7,#0x204]
        0x0000c950:    f8d70310    ....    LDR      r0,[r7,#0x310]
        0x0000c954:    2101        .!      MOVS     r1,#1
        0x0000c956:    f0200002     ...    BIC      r0,r0,#2
        0x0000c95a:    f8c70310    ....    STR      r0,[r7,#0x310]
        0x0000c95e:    f8c78120    .. .    STR      r8,[r7,#0x120]
        0x0000c962:    6820         h      LDR      r0,[r4,#0]
        0x0000c964:    f6c00100    ....    MOVT     r1,#0x800
        0x0000c968:    f020407e     .~@    BIC      r0,r0,#0xfe000000
        0x0000c96c:    4550        PE      CMP      r0,r10
        0x0000c96e:    f1010001    ....    ADD      r0,r1,#1
        0x0000c972:    f47faed5    ....    BNE      0xc720 ; am_hal_ble_blocking_transfer + 312
        0x0000c976:    f8d71204    ....    LDR      r1,[r7,#0x204]
        0x0000c97a:    2202        ."      MOVS     r2,#2
        0x0000c97c:    f3620183    b...    BFI      r1,r2,#2,#2
        0x0000c980:    f8c71204    ....    STR      r1,[r7,#0x204]
        0x0000c984:    e6cc        ..      B        0xc720 ; am_hal_ble_blocking_transfer + 312
        0x0000c986:    f8c78120    .. .    STR      r8,[r7,#0x120]
        0x0000c98a:    f04f6000    O..`    MOV      r0,#0x8000000
        0x0000c98e:    e6c7        ..      B        0xc720 ; am_hal_ble_blocking_transfer + 312
        0x0000c990:    2001        .       MOVS     r0,#1
        0x0000c992:    f6c00000    ....    MOVT     r0,#0x800
        0x0000c996:    3008        .0      ADDS     r0,r0,#8
        0x0000c998:    e6c2        ..      B        0xc720 ; am_hal_ble_blocking_transfer + 312
    am_hal_ble_bus_lock
        0x0000c99a:    b510        ..      PUSH     {r4,lr}
        0x0000c99c:    b082        ..      SUB      sp,sp,#8
        0x0000c99e:    4604        .F      MOV      r4,r0
        0x0000c9a0:    f001fb8a    ....    BL       am_hal_interrupt_master_disable ; 0xe0b8
        0x0000c9a4:    9001        ..      STR      r0,[sp,#4]
        0x0000c9a6:    f8940044    ..D.    LDRB     r0,[r4,#0x44]
        0x0000c9aa:    b908        ..      CBNZ     r0,0xc9b0 ; am_hal_ble_bus_lock + 22
        0x0000c9ac:    2101        .!      MOVS     r1,#1
        0x0000c9ae:    6461        ad      STR      r1,[r4,#0x44]
        0x0000c9b0:    fab0f180    ....    CLZ      r1,r0
        0x0000c9b4:    9801        ..      LDR      r0,[sp,#4]
        0x0000c9b6:    094c        L.      LSRS     r4,r1,#5
        0x0000c9b8:    f001fb86    ....    BL       am_hal_interrupt_master_set ; 0xe0c8
        0x0000c9bc:    4620         F      MOV      r0,r4
        0x0000c9be:    b002        ..      ADD      sp,sp,#8
        0x0000c9c0:    bd10        ..      POP      {r4,pc}
        0x0000c9c2:    0000        ..      MOVS     r0,r0
    am_hal_ble_cmd_write
        0x0000c9c4:    b580        ..      PUSH     {r7,lr}
        0x0000c9c6:    b1b8        ..      CBZ      r0,0xc9f8 ; am_hal_ble_cmd_write + 52
        0x0000c9c8:    6800        .h      LDR      r0,[r0,#0]
        0x0000c9ca:    f2452230    E.0"    MOV      r2,#0x5230
        0x0000c9ce:    f020407e     .~@    BIC      r0,r0,#0xfe000000
        0x0000c9d2:    f2c01277    ..w.    MOVT     r2,#0x177
        0x0000c9d6:    4290        .B      CMP      r0,r2
        0x0000c9d8:    d10e        ..      BNE      0xc9f8 ; am_hal_ble_cmd_write + 52
        0x0000c9da:    79c8        .y      LDRB     r0,[r1,#7]
        0x0000c9dc:    2803        .(      CMP      r0,#3
        0x0000c9de:    d80d        ..      BHI      0xc9fc ; am_hal_ble_cmd_write + 56
        0x0000c9e0:    f04f0c00    O...    MOV      r12,#0
        0x0000c9e4:    f04f0e00    O...    MOV      lr,#0
        0x0000c9e8:    e8dff000    ....    TBB      [pc,r0]
    $d.26
        0x0000c9ec:    100a0217    ....    DCD    269091351
    $t.27
        0x0000c9f0:    790a        .y      LDRB     r2,[r1,#4]
        0x0000c9f2:    f04f0e00    O...    MOV      lr,#0
        0x0000c9f6:    e006        ..      B        0xca06 ; am_hal_ble_cmd_write + 66
        0x0000c9f8:    2002        .       MOVS     r0,#2
        0x0000c9fa:    bd80        ..      POP      {r7,pc}
        0x0000c9fc:    2006        .       MOVS     r0,#6
        0x0000c9fe:    bd80        ..      POP      {r7,pc}
        0x0000ca00:    794a        Jy      LDRB     r2,[r1,#5]
        0x0000ca02:    f891e004    ....    LDRB     lr,[r1,#4]
        0x0000ca06:    ea4f6c02    O..l    LSL      r12,r2,#24
        0x0000ca0a:    e006        ..      B        0xca1a ; am_hal_ble_cmd_write + 86
        0x0000ca0c:    798a        .y      LDRB     r2,[r1,#6]
        0x0000ca0e:    888b        ..      LDRH     r3,[r1,#4]
        0x0000ca10:    ea4f6c02    O..l    LSL      r12,r2,#24
        0x0000ca14:    041a        ..      LSLS     r2,r3,#16
        0x0000ca16:    fa92fe82    ....    REV      lr,r2
        0x0000ca1a:    890a        ..      LDRH     r2,[r1,#8]
        0x0000ca1c:    f64f7300    O..s    MOVW     r3,#0xff00
        0x0000ca20:    f2c0030f    ....    MOVT     r3,#0xf
        0x0000ca24:    f0000003    ....    AND      r0,r0,#3
        0x0000ca28:    ea032202    ..."    AND      r2,r3,r2,LSL #8
        0x0000ca2c:    7b0b        .{      LDRB     r3,[r1,#0xc]
        0x0000ca2e:    ea4c1040    L.@.    ORR      r0,r12,r0,LSL #5
        0x0000ca32:    7a89        .z      LDRB     r1,[r1,#0xa]
        0x0000ca34:    f0030301    ....    AND      r3,r3,#1
        0x0000ca38:    4310        .C      ORRS     r0,r0,r2
        0x0000ca3a:    ea4010c3    @...    ORR      r0,r0,r3,LSL #7
        0x0000ca3e:    4308        .C      ORRS     r0,r0,r1
        0x0000ca40:    f24c210c    L..!    MOV      r1,#0xc20c
        0x0000ca44:    f2c50100    ....    MOVT     r1,#0x5000
        0x0000ca48:    f8c1e008    ....    STR      lr,[r1,#8]
        0x0000ca4c:    6008        .`      STR      r0,[r1,#0]
        0x0000ca4e:    2000        .       MOVS     r0,#0
        0x0000ca50:    bd80        ..      POP      {r7,pc}
        0x0000ca52:    0000        ..      MOVS     r0,r0
    am_hal_ble_config
        0x0000ca54:    b570        p.      PUSH     {r4-r6,lr}
        0x0000ca56:    2800        .(      CMP      r0,#0
        0x0000ca58:    f000808b    ....    BEQ.W    0xcb72 ; am_hal_ble_config + 286
        0x0000ca5c:    6802        .h      LDR      r2,[r0,#0]
        0x0000ca5e:    f2452330    E.0#    MOV      r3,#0x5230
        0x0000ca62:    f022427e    ".~B    BIC      r2,r2,#0xfe000000
        0x0000ca66:    f2c01377    ..w.    MOVT     r3,#0x177
        0x0000ca6a:    429a        .B      CMP      r2,r3
        0x0000ca6c:    f0408081    @...    BNE.W    0xcb72 ; am_hal_ble_config + 286
        0x0000ca70:    f24c1204    L...    MOV      r2,#0xc104
        0x0000ca74:    f8d0e004    ....    LDR      lr,[r0,#4]
        0x0000ca78:    f2c50200    ....    MOVT     r2,#0x5000
        0x0000ca7c:    2003        .       MOVS     r0,#3
        0x0000ca7e:    f8c201fc    ....    STR      r0,[r2,#0x1fc]
        0x0000ca82:    f8d201fc    ....    LDR      r0,[r2,#0x1fc]
        0x0000ca86:    2401        .$      MOVS     r4,#1
        0x0000ca88:    f4203000     ..0    BIC      r0,r0,#0x20000
        0x0000ca8c:    f8c201fc    ....    STR      r0,[r2,#0x1fc]
        0x0000ca90:    f8d201fc    ....    LDR      r0,[r2,#0x1fc]
        0x0000ca94:    f4203080     ..0    BIC      r0,r0,#0x10000
        0x0000ca98:    f8c201fc    ....    STR      r0,[r2,#0x1fc]
        0x0000ca9c:    f8d201fc    ....    LDR      r0,[r2,#0x1fc]
        0x0000caa0:    f4401000    @...    ORR      r0,r0,#0x200000
        0x0000caa4:    f8c201fc    ....    STR      r0,[r2,#0x1fc]
        0x0000caa8:    6888        .h      LDR      r0,[r1,#8]
        0x0000caaa:    6813        .h      LDR      r3,[r2,#0]
        0x0000caac:    f360230d    `..#    BFI      r3,r0,#8,#6
        0x0000cab0:    6013        .`      STR      r3,[r2,#0]
        0x0000cab2:    6848        Hh      LDR      r0,[r1,#4]
        0x0000cab4:    6813        .h      LDR      r3,[r2,#0]
        0x0000cab6:    f3600305    `...    BFI      r3,r0,#0,#6
        0x0000caba:    6013        .`      STR      r3,[r2,#0]
        0x0000cabc:    68d0        .h      LDR      r0,[r2,#0xc]
        0x0000cabe:    f0400001    @...    ORR      r0,r0,#1
        0x0000cac2:    60d0        .`      STR      r0,[r2,#0xc]
        0x0000cac4:    6808        .h      LDR      r0,[r1,#0]
        0x0000cac6:    68cb        .h      LDR      r3,[r1,#0xc]
        0x0000cac8:    f0000007    ....    AND      r0,r0,#7
        0x0000cacc:    2b02        .+      CMP      r3,#2
        0x0000cace:    bf08        ..      IT       EQ
        0x0000cad0:    f6400401    @...    MOVEQ    r4,#0x801
        0x0000cad4:    ea442000    D..     ORR      r0,r4,r0,LSL #8
        0x0000cad8:    f8c200fc    ....    STR      r0,[r2,#0xfc]
        0x0000cadc:    200c        .       MOVS     r0,#0xc
        0x0000cade:    f2c40002    ....    MOVT     r0,#0x4002
        0x0000cae2:    6800        .h      LDR      r0,[r0,#0]
        0x0000cae4:    b2c0        ..      UXTB     r0,r0
        0x0000cae6:    2812        .(      CMP      r0,#0x12
        0x0000cae8:    d137        7.      BNE      0xcb5a ; am_hal_ble_config + 262
        0x0000caea:    f2402c1c    @..,    MOVW     r12,#0x21c
        0x0000caee:    f2c10c00    ....    MOVT     r12,#0x1000
        0x0000caf2:    f8dc300c    ...0    LDR      r3,[r12,#0xc]
        0x0000caf6:    68c8        .h      LDR      r0,[r1,#0xc]
        0x0000caf8:    f8dc2004    ...     LDR      r2,[r12,#4]
        0x0000cafc:    f883002f    ../.    STRB     r0,[r3,#0x2f]
        0x0000cb00:    6908        .i      LDR      r0,[r1,#0x10]
        0x0000cb02:    f8830021    ..!.    STRB     r0,[r3,#0x21]
        0x0000cb06:    6908        .i      LDR      r0,[r1,#0x10]
        0x0000cb08:    ea4f2010    O..     LSR      r0,r0,#8
        0x0000cb0c:    f8830022    ..".    STRB     r0,[r3,#0x22]
        0x0000cb10:    6948        Hi      LDR      r0,[r1,#0x14]
        0x0000cb12:    f8830026    ..&.    STRB     r0,[r3,#0x26]
        0x0000cb16:    6948        Hi      LDR      r0,[r1,#0x14]
        0x0000cb18:    ea4f2010    O..     LSR      r0,r0,#8
        0x0000cb1c:    f8830027    ..'.    STRB     r0,[r3,#0x27]
        0x0000cb20:    7e48        H~      LDRB     r0,[r1,#0x19]
        0x0000cb22:    f8830058    ..X.    STRB     r0,[r3,#0x58]
        0x0000cb26:    7e08        .~      LDRB     r0,[r1,#0x18]
        0x0000cb28:    f8830080    ....    STRB     r0,[r3,#0x80]
        0x0000cb2c:    f04f0000    O...    MOV      r0,#0
        0x0000cb30:    b18a        ..      CBZ      r2,0xcb56 ; am_hal_ble_config + 258
        0x0000cb32:    f64214f0    B...    MOV      r4,#0x29f0
        0x0000cb36:    f2c00401    ....    MOVT     r4,#1
        0x0000cb3a:    bf00        ..      NOP      
        0x0000cb3c:    f8135b01    ...[    LDRB     r5,[r3],#1
        0x0000cb40:    f3c02607    ...&    UBFX     r6,r0,#8,#8
        0x0000cb44:    4075        u@      EORS     r5,r5,r6
        0x0000cb46:    f8345015    4..P    LDRH     r5,[r4,r5,LSL #1]
        0x0000cb4a:    0200        ..      LSLS     r0,r0,#8
        0x0000cb4c:    b280        ..      UXTH     r0,r0
        0x0000cb4e:    3a01        .:      SUBS     r2,#1
        0x0000cb50:    ea800005    ....    EOR      r0,r0,r5
        0x0000cb54:    d1f2        ..      BNE      0xcb3c ; am_hal_ble_config + 232
        0x0000cb56:    f8cc0008    ....    STR      r0,[r12,#8]
        0x0000cb5a:    f6434244    C.DB    MOV      r2,#0x3c44
        0x0000cb5e:    7e88        .~      LDRB     r0,[r1,#0x1a]
        0x0000cb60:    eb0e01ce    ....    ADD      r1,lr,lr,LSL #3
        0x0000cb64:    f2c10200    ....    MOVT     r2,#0x1000
        0x0000cb68:    eb0201c1    ....    ADD      r1,r2,r1,LSL #3
        0x0000cb6c:    7208        .r      STRB     r0,[r1,#8]
        0x0000cb6e:    2000        .       MOVS     r0,#0
        0x0000cb70:    bd70        p.      POP      {r4-r6,pc}
        0x0000cb72:    2002        .       MOVS     r0,#2
        0x0000cb74:    bd70        p.      POP      {r4-r6,pc}
        0x0000cb76:    0000        ..      MOVS     r0,r0
    am_hal_ble_default_copy_patch_apply
        0x0000cb78:    b5f0        ..      PUSH     {r4-r7,lr}
        0x0000cb7a:    b081        ..      SUB      sp,sp,#4
        0x0000cb7c:    f2416154    A.Ta    MOV      r1,#0x1654
        0x0000cb80:    f2c10100    ....    MOVT     r1,#0x1000
        0x0000cb84:    6809        .h      LDR      r1,[r1,#0]
        0x0000cb86:    4607        .F      MOV      r7,r0
        0x0000cb88:    6809        .h      LDR      r1,[r1,#0]
        0x0000cb8a:    684a        Jh      LDR      r2,[r1,#4]
        0x0000cb8c:    b1a2        ..      CBZ      r2,0xcbb8 ; am_hal_ble_default_copy_patch_apply + 64
        0x0000cb8e:    68cb        .h      LDR      r3,[r1,#0xc]
        0x0000cb90:    f64214f0    B...    MOV      r4,#0x29f0
        0x0000cb94:    2000        .       MOVS     r0,#0
        0x0000cb96:    f2c00401    ....    MOVT     r4,#1
        0x0000cb9a:    bf00        ..      NOP      
        0x0000cb9c:    f8135b01    ...[    LDRB     r5,[r3],#1
        0x0000cba0:    f3c02607    ...&    UBFX     r6,r0,#8,#8
        0x0000cba4:    406e        n@      EORS     r6,r6,r5
        0x0000cba6:    f8346016    4..`    LDRH     r6,[r4,r6,LSL #1]
        0x0000cbaa:    0200        ..      LSLS     r0,r0,#8
        0x0000cbac:    b280        ..      UXTH     r0,r0
        0x0000cbae:    3a01        .:      SUBS     r2,#1
        0x0000cbb0:    ea800006    ....    EOR      r0,r0,r6
        0x0000cbb4:    d1f2        ..      BNE      0xcb9c ; am_hal_ble_default_copy_patch_apply + 36
        0x0000cbb6:    e000        ..      B        0xcbba ; am_hal_ble_default_copy_patch_apply + 66
        0x0000cbb8:    2000        .       MOVS     r0,#0
        0x0000cbba:    6088        .`      STR      r0,[r1,#8]
        0x0000cbbc:    4638        8F      MOV      r0,r7
        0x0000cbbe:    f000f8ef    ....    BL       am_hal_ble_patch_apply ; 0xcda0
        0x0000cbc2:    b108        ..      CBZ      r0,0xcbc8 ; am_hal_ble_default_copy_patch_apply + 80
        0x0000cbc4:    b001        ..      ADD      sp,sp,#4
        0x0000cbc6:    bdf0        ..      POP      {r4-r7,pc}
        0x0000cbc8:    4638        8F      MOV      r0,r7
        0x0000cbca:    b001        ..      ADD      sp,sp,#4
        0x0000cbcc:    e8bd40f0    ...@    POP      {r4-r7,lr}
        0x0000cbd0:    f000bb4e    ..N.    B.W      am_hal_ble_patch_copy_end_apply ; 0xd270
    am_hal_ble_default_patch_apply
        0x0000cbd4:    e92d47f0    -..G    PUSH     {r4-r10,lr}
        0x0000cbd8:    210c        .!      MOVS     r1,#0xc
        0x0000cbda:    f2c40102    ....    MOVT     r1,#0x4002
        0x0000cbde:    680a        .h      LDR      r2,[r1,#0]
        0x0000cbe0:    4680        .F      MOV      r8,r0
        0x0000cbe2:    b2d2        ..      UXTB     r2,r2
        0x0000cbe4:    2a11        .*      CMP      r2,#0x11
        0x0000cbe6:    d003        ..      BEQ      0xcbf0 ; am_hal_ble_default_patch_apply + 28
        0x0000cbe8:    6808        .h      LDR      r0,[r1,#0]
        0x0000cbea:    b2c0        ..      UXTB     r0,r0
        0x0000cbec:    2812        .(      CMP      r0,#0x12
        0x0000cbee:    d108        ..      BNE      0xcc02 ; am_hal_ble_default_patch_apply + 46
        0x0000cbf0:    f2416070    A.p`    MOV      r0,#0x1670
        0x0000cbf4:    f6421134    B.4.    MOV      r1,#0x2934
        0x0000cbf8:    f2c10000    ....    MOVT     r0,#0x1000
        0x0000cbfc:    f2c00101    ....    MOVT     r1,#1
        0x0000cc00:    e00e        ..      B        0xcc20 ; am_hal_ble_default_patch_apply + 76
        0x0000cc02:    6808        .h      LDR      r0,[r1,#0]
        0x0000cc04:    b2c0        ..      UXTB     r0,r0
        0x0000cc06:    2821        !(      CMP      r0,#0x21
        0x0000cc08:    bf1c        ..      ITT      NE
        0x0000cc0a:    2001        .       MOVNE    r0,#1
        0x0000cc0c:    e8bd87f0    ....    POPNE    {r4-r10,pc}
        0x0000cc10:    f2416074    A.t`    MOV      r0,#0x1674
        0x0000cc14:    f6421138    B.8.    MOV      r1,#0x2938
        0x0000cc18:    f2c10000    ....    MOVT     r0,#0x1000
        0x0000cc1c:    f2c00101    ....    MOVT     r1,#1
        0x0000cc20:    f8d1a000    ....    LDR      r10,[r1,#0]
        0x0000cc24:    f1ba0f00    ....    CMP      r10,#0
        0x0000cc28:    d023        #.      BEQ      0xcc72 ; am_hal_ble_default_patch_apply + 158
        0x0000cc2a:    f8d09000    ....    LDR      r9,[r0,#0]
        0x0000cc2e:    f64214f0    B...    MOV      r4,#0x29f0
        0x0000cc32:    2700        .'      MOVS     r7,#0
        0x0000cc34:    f2c00401    ....    MOVT     r4,#1
        0x0000cc38:    f8591027    Y.'.    LDR      r1,[r9,r7,LSL #2]
        0x0000cc3c:    6848        Hh      LDR      r0,[r1,#4]
        0x0000cc3e:    b178        x.      CBZ      r0,0xcc60 ; am_hal_ble_default_patch_apply + 140
        0x0000cc40:    68cb        .h      LDR      r3,[r1,#0xc]
        0x0000cc42:    2200        ."      MOVS     r2,#0
        0x0000cc44:    f8136b01    ...k    LDRB     r6,[r3],#1
        0x0000cc48:    f3c22507    ...%    UBFX     r5,r2,#8,#8
        0x0000cc4c:    406e        n@      EORS     r6,r6,r5
        0x0000cc4e:    f8346016    4..`    LDRH     r6,[r4,r6,LSL #1]
        0x0000cc52:    0212        ..      LSLS     r2,r2,#8
        0x0000cc54:    b292        ..      UXTH     r2,r2
        0x0000cc56:    3801        .8      SUBS     r0,#1
        0x0000cc58:    ea820206    ....    EOR      r2,r2,r6
        0x0000cc5c:    d1f2        ..      BNE      0xcc44 ; am_hal_ble_default_patch_apply + 112
        0x0000cc5e:    e000        ..      B        0xcc62 ; am_hal_ble_default_patch_apply + 142
        0x0000cc60:    2200        ."      MOVS     r2,#0
        0x0000cc62:    4640        @F      MOV      r0,r8
        0x0000cc64:    608a        .`      STR      r2,[r1,#8]
        0x0000cc66:    f000f89b    ....    BL       am_hal_ble_patch_apply ; 0xcda0
        0x0000cc6a:    b918        ..      CBNZ     r0,0xcc74 ; am_hal_ble_default_patch_apply + 160
        0x0000cc6c:    3701        .7      ADDS     r7,#1
        0x0000cc6e:    4557        WE      CMP      r7,r10
        0x0000cc70:    d1e2        ..      BNE      0xcc38 ; am_hal_ble_default_patch_apply + 100
        0x0000cc72:    2000        .       MOVS     r0,#0
        0x0000cc74:    e8bd87f0    ....    POP      {r4-r10,pc}
    am_hal_ble_default_trim_set_ramcode
        0x0000cc78:    200c        .       MOVS     r0,#0xc
        0x0000cc7a:    f2c40002    ....    MOVT     r0,#0x4002
        0x0000cc7e:    6800        .h      LDR      r0,[r0,#0]
        0x0000cc80:    f240234c    @.L#    MOVW     r3,#0x24c
        0x0000cc84:    f6430100    C...    MOVW     r1,#0x3800
        0x0000cc88:    f240225c    @.\"    MOVW     r2,#0x25c
        0x0000cc8c:    f2c10300    ....    MOVT     r3,#0x1000
        0x0000cc90:    f2c50102    ....    MOVT     r1,#0x5002
        0x0000cc94:    b2c0        ..      UXTB     r0,r0
        0x0000cc96:    f2c10200    ....    MOVT     r2,#0x1000
        0x0000cc9a:    330c        .3      ADDS     r3,r3,#0xc
        0x0000cc9c:    2821        !(      CMP      r0,#0x21
        0x0000cc9e:    bf08        ..      IT       EQ
        0x0000cca0:    f102030c    ....    ADDEQ    r3,r2,#0xc
        0x0000cca4:    6818        .h      LDR      r0,[r3,#0]
        0x0000cca6:    680a        .h      LDR      r2,[r1,#0]
        0x0000cca8:    1c53        S.      ADDS     r3,r2,#1
        0x0000ccaa:    bf1c        ..      ITT      NE
        0x0000ccac:    ba12        ..      REVNE    r2,r2
        0x0000ccae:    6082        .`      STRNE    r2,[r0,#8]
        0x0000ccb0:    6849        Ih      LDR      r1,[r1,#4]
        0x0000ccb2:    1c4a        J.      ADDS     r2,r1,#1
        0x0000ccb4:    bf1c        ..      ITT      NE
        0x0000ccb6:    f1014180    ...A    ADDNE    r1,r1,#0x40000000
        0x0000ccba:    f1110201    ....    ADDSNE   r2,r1,#1
        0x0000ccbe:    d005        ..      BEQ      0xcccc ; am_hal_ble_default_trim_set_ramcode + 84
        0x0000ccc0:    68c2        .h      LDR      r2,[r0,#0xc]
        0x0000ccc2:    ba09        ..      REV      r1,r1
        0x0000ccc4:    f42272f8    "..r    BIC      r2,r2,#0x1f0
        0x0000ccc8:    4311        .C      ORRS     r1,r1,r2
        0x0000ccca:    60c1        .`      STR      r1,[r0,#0xc]
        0x0000cccc:    2000        .       MOVS     r0,#0
        0x0000ccce:    4770        pG      BX       lr
    am_hal_ble_deinitialize
        0x0000ccd0:    b5b0        ..      PUSH     {r4,r5,r7,lr}
        0x0000ccd2:    b1d8        ..      CBZ      r0,0xcd0c ; am_hal_ble_deinitialize + 60
        0x0000ccd4:    6805        .h      LDR      r5,[r0,#0]
        0x0000ccd6:    f2452130    E.0!    MOV      r1,#0x5230
        0x0000ccda:    4604        .F      MOV      r4,r0
        0x0000ccdc:    f025407e    %.~@    BIC      r0,r5,#0xfe000000
        0x0000cce0:    f2c01177    ..w.    MOVT     r1,#0x177
        0x0000cce4:    4288        .B      CMP      r0,r1
        0x0000cce6:    d111        ..      BNE      0xcd0c ; am_hal_ble_deinitialize + 60
        0x0000cce8:    f104000c    ....    ADD      r0,r4,#0xc
        0x0000ccec:    2118        .!      MOVS     r1,#0x18
        0x0000ccee:    f7fffaf4    ....    BL       __aeabi_memclr4 ; 0xc2da
        0x0000ccf2:    f005417e    ..~A    AND      r1,r5,#0xfe000000
        0x0000ccf6:    2000        .       MOVS     r0,#0
        0x0000ccf8:    e9c41000    ....    STRD     r1,r0,[r4,#0]
        0x0000ccfc:    63e0        .c      STR      r0,[r4,#0x3c]
        0x0000ccfe:    f8a40040    ..@.    STRH     r0,[r4,#0x40]
        0x0000cd02:    f8c40043    ..C.    STR      r0,[r4,#0x43]
        0x0000cd06:    f8840047    ..G.    STRB     r0,[r4,#0x47]
        0x0000cd0a:    bdb0        ..      POP      {r4,r5,r7,pc}
        0x0000cd0c:    2002        .       MOVS     r0,#2
        0x0000cd0e:    bdb0        ..      POP      {r4,r5,r7,pc}
    am_hal_ble_initialize
        0x0000cd10:    b570        p.      PUSH     {r4-r6,lr}
        0x0000cd12:    b108        ..      CBZ      r0,0xcd18 ; am_hal_ble_initialize + 8
        0x0000cd14:    2005        .       MOVS     r0,#5
        0x0000cd16:    bd70        p.      POP      {r4-r6,pc}
        0x0000cd18:    460c        .F      MOV      r4,r1
        0x0000cd1a:    b301        ..      CBZ      r1,0xcd5e ; am_hal_ble_initialize + 78
        0x0000cd1c:    f6434544    C.DE    MOV      r5,#0x3c44
        0x0000cd20:    f2c10500    ....    MOVT     r5,#0x1000
        0x0000cd24:    682e        .h      LDR      r6,[r5,#0]
        0x0000cd26:    01f0        ..      LSLS     r0,r6,#7
        0x0000cd28:    bf44        D.      ITT      MI
        0x0000cd2a:    2007        .       MOVMI    r0,#7
        0x0000cd2c:    bd70        p.      POPMI    {r4-r6,pc}
        0x0000cd2e:    f2452030    E.0     MOV      r0,#0x5230
        0x0000cd32:    f2c01077    ..w.    MOVT     r0,#0x177
        0x0000cd36:    f3600618    `...    BFI      r6,r0,#0,#25
        0x0000cd3a:    f105000c    ....    ADD      r0,r5,#0xc
        0x0000cd3e:    2130        0!      MOVS     r1,#0x30
        0x0000cd40:    f7fffacb    ....    BL       __aeabi_memclr4 ; 0xc2da
        0x0000cd44:    2000        .       MOVS     r0,#0
        0x0000cd46:    e9c56000    ...`    STRD     r6,r0,[r5,#0]
        0x0000cd4a:    63e8        .c      STR      r0,[r5,#0x3c]
        0x0000cd4c:    f8a50040    ..@.    STRH     r0,[r5,#0x40]
        0x0000cd50:    7228        (r      STRB     r0,[r5,#8]
        0x0000cd52:    f8c50043    ..C.    STR      r0,[r5,#0x43]
        0x0000cd56:    f8850047    ..G.    STRB     r0,[r5,#0x47]
        0x0000cd5a:    6025        %`      STR      r5,[r4,#0]
        0x0000cd5c:    bd70        p.      POP      {r4-r6,pc}
        0x0000cd5e:    2006        .       MOVS     r0,#6
        0x0000cd60:    bd70        p.      POP      {r4-r6,pc}
    am_hal_ble_int_clear
        0x0000cd62:    b178        x.      CBZ      r0,0xcd84 ; am_hal_ble_int_clear + 34
        0x0000cd64:    6800        .h      LDR      r0,[r0,#0]
        0x0000cd66:    f2452230    E.0"    MOV      r2,#0x5230
        0x0000cd6a:    f020407e     .~@    BIC      r0,r0,#0xfe000000
        0x0000cd6e:    f2c01277    ..w.    MOVT     r2,#0x177
        0x0000cd72:    4290        .B      CMP      r0,r2
        0x0000cd74:    d106        ..      BNE      0xcd84 ; am_hal_ble_int_clear + 34
        0x0000cd76:    f24c2028    L.(     MOV      r0,#0xc228
        0x0000cd7a:    f2c50000    ....    MOVT     r0,#0x5000
        0x0000cd7e:    6001        .`      STR      r1,[r0,#0]
        0x0000cd80:    2000        .       MOVS     r0,#0
        0x0000cd82:    4770        pG      BX       lr
        0x0000cd84:    2002        .       MOVS     r0,#2
        0x0000cd86:    4770        pG      BX       lr
    am_hal_ble_int_status
        0x0000cd88:    f24c2020    L.      MOV      r0,#0xc220
        0x0000cd8c:    f2c50000    ....    MOVT     r0,#0x5000
        0x0000cd90:    b119        ..      CBZ      r1,0xcd9a ; am_hal_ble_int_status + 18
        0x0000cd92:    6801        .h      LDR      r1,[r0,#0]
        0x0000cd94:    6840        @h      LDR      r0,[r0,#4]
        0x0000cd96:    4008        .@      ANDS     r0,r0,r1
        0x0000cd98:    4770        pG      BX       lr
        0x0000cd9a:    6840        @h      LDR      r0,[r0,#4]
        0x0000cd9c:    4770        pG      BX       lr
        0x0000cd9e:    0000        ..      MOVS     r0,r0
    am_hal_ble_patch_apply
        0x0000cda0:    e92d4ff0    -..O    PUSH     {r4-r11,lr}
        0x0000cda4:    b097        ..      SUB      sp,sp,#0x5c
        0x0000cda6:    b330        0.      CBZ      r0,0xcdf6 ; am_hal_ble_patch_apply + 86
        0x0000cda8:    4605        .F      MOV      r5,r0
        0x0000cdaa:    6800        .h      LDR      r0,[r0,#0]
        0x0000cdac:    4688        .F      MOV      r8,r1
        0x0000cdae:    f2452130    E.0!    MOV      r1,#0x5230
        0x0000cdb2:    f020407e     .~@    BIC      r0,r0,#0xfe000000
        0x0000cdb6:    f2c01177    ..w.    MOVT     r1,#0x177
        0x0000cdba:    4288        .B      CMP      r0,r1
        0x0000cdbc:    d11b        ..      BNE      0xcdf6 ; am_hal_ble_patch_apply + 86
        0x0000cdbe:    2001        .       MOVS     r0,#1
        0x0000cdc0:    f88d0014    ....    STRB     r0,[sp,#0x14]
        0x0000cdc4:    e9d80100    ....    LDRD     r0,r1,[r8,#0]
        0x0000cdc8:    f2413488    A..4    MOV      r4,#0x1388
        0x0000cdcc:    f88d0015    ....    STRB     r0,[sp,#0x15]
        0x0000cdd0:    f24020f1    @..     MOV      r0,#0x2f1
        0x0000cdd4:    f8ad0016    ....    STRH     r0,[sp,#0x16]
        0x0000cdd8:    f8ad1018    ....    STRH     r1,[sp,#0x18]
        0x0000cddc:    ae05        ..      ADD      r6,sp,#0x14
        0x0000cdde:    bf00        ..      NOP      
        0x0000cde0:    4628        (F      MOV      r0,r5
        0x0000cde2:    2100        .!      MOVS     r1,#0
        0x0000cde4:    4632        2F      MOV      r2,r6
        0x0000cde6:    2306        .#      MOVS     r3,#6
        0x0000cde8:    f7fffbd3    ....    BL       am_hal_ble_blocking_hci_write ; 0xc592
        0x0000cdec:    b140        @.      CBZ      r0,0xce00 ; am_hal_ble_patch_apply + 96
        0x0000cdee:    4607        .F      MOV      r7,r0
        0x0000cdf0:    3c01        .<      SUBS     r4,#1
        0x0000cdf2:    d1f5        ..      BNE      0xcde0 ; am_hal_ble_patch_apply + 64
        0x0000cdf4:    e000        ..      B        0xcdf8 ; am_hal_ble_patch_apply + 88
        0x0000cdf6:    2702        .'      MOVS     r7,#2
        0x0000cdf8:    4638        8F      MOV      r0,r7
        0x0000cdfa:    b017        ..      ADD      sp,sp,#0x5c
        0x0000cdfc:    e8bd8ff0    ....    POP      {r4-r11,pc}
        0x0000ce00:    f24c3b0c    L..;    MOV      r11,#0xc30c
        0x0000ce04:    f2c50b00    ....    MOVT     r11,#0x5000
        0x0000ce08:    f8db0000    ....    LDR      r0,[r11,#0]
        0x0000ce0c:    0600        ..      LSLS     r0,r0,#24
        0x0000ce0e:    d40d        ..      BMI      0xce2c ; am_hal_ble_patch_apply + 140
        0x0000ce10:    f2442441    D.A$    MOV      r4,#0x4241
        0x0000ce14:    f2c0040f    ....    MOVT     r4,#0xf
        0x0000ce18:    3c01        .<      SUBS     r4,#1
        0x0000ce1a:    f0008137    ..7.    BEQ.W    0xd08c ; am_hal_ble_patch_apply + 748
        0x0000ce1e:    2010        .       MOVS     r0,#0x10
        0x0000ce20:    f000ff6e    ..n.    BL       am_hal_flash_delay ; 0xdd00
        0x0000ce24:    f8db0000    ....    LDR      r0,[r11,#0]
        0x0000ce28:    0600        ..      LSLS     r0,r0,#24
        0x0000ce2a:    d5f5        ..      BPL      0xce18 ; am_hal_ble_patch_apply + 120
        0x0000ce2c:    ac09        ..      ADD      r4,sp,#0x24
        0x0000ce2e:    f1040a04    ....    ADD      r10,r4,#4
        0x0000ce32:    4650        PF      MOV      r0,r10
        0x0000ce34:    2114        .!      MOVS     r1,#0x14
        0x0000ce36:    f7fffa50    ..P.    BL       __aeabi_memclr4 ; 0xc2da
        0x0000ce3a:    2002        .       MOVS     r0,#2
        0x0000ce3c:    f88d002e    ....    STRB     r0,[sp,#0x2e]
        0x0000ce40:    2005        .       MOVS     r0,#5
        0x0000ce42:    f8ad002c    ..,.    STRH     r0,[sp,#0x2c]
        0x0000ce46:    4628        (F      MOV      r0,r5
        0x0000ce48:    4621        !F      MOV      r1,r4
        0x0000ce4a:    9609        ..      STR      r6,[sp,#0x24]
        0x0000ce4c:    f7fffbcc    ....    BL       am_hal_ble_blocking_transfer ; 0xc5e8
        0x0000ce50:    4607        .F      MOV      r7,r0
        0x0000ce52:    2800        .(      CMP      r0,#0
        0x0000ce54:    d1d0        ..      BNE      0xcdf8 ; am_hal_ble_patch_apply + 88
        0x0000ce56:    f24011f1    @...    MOV      r1,#0x1f1
        0x0000ce5a:    2004        .       MOVS     r0,#4
        0x0000ce5c:    f8ad103e    ..>.    STRH     r1,[sp,#0x3e]
        0x0000ce60:    f89d1014    ....    LDRB     r1,[sp,#0x14]
        0x0000ce64:    f88d003c    ..<.    STRB     r0,[sp,#0x3c]
        0x0000ce68:    f8d80000    ....    LDR      r0,[r8,#0]
        0x0000ce6c:    2904        .)      CMP      r1,#4
        0x0000ce6e:    f04f0100    O...    MOV      r1,#0
        0x0000ce72:    f88d003d    ..=.    STRB     r0,[sp,#0x3d]
        0x0000ce76:    f88d1040    ..@.    STRB     r1,[sp,#0x40]
        0x0000ce7a:    d111        ..      BNE      0xcea0 ; am_hal_ble_patch_apply + 256
        0x0000ce7c:    a90f        ..      ADD      r1,sp,#0x3c
        0x0000ce7e:    f1060901    ....    ADD      r9,r6,#1
        0x0000ce82:    1c4f        O.      ADDS     r7,r1,#1
        0x0000ce84:    2200        ."      MOVS     r2,#0
        0x0000ce86:    bf00        ..      NOP      
        0x0000ce88:    4611        .F      MOV      r1,r2
        0x0000ce8a:    2a04        .*      CMP      r2,#4
        0x0000ce8c:    d006        ..      BEQ      0xce9c ; am_hal_ble_patch_apply + 252
        0x0000ce8e:    f8192001    ...     LDRB     r2,[r9,r1]
        0x0000ce92:    5c7b        {\      LDRB     r3,[r7,r1]
        0x0000ce94:    429a        .B      CMP      r2,r3
        0x0000ce96:    f1010201    ....    ADD      r2,r1,#1
        0x0000ce9a:    d0f5        ..      BEQ      0xce88 ; am_hal_ble_patch_apply + 232
        0x0000ce9c:    2904        .)      CMP      r1,#4
        0x0000ce9e:    d201        ..      BCS      0xcea4 ; am_hal_ble_patch_apply + 260
        0x0000cea0:    2701        .'      MOVS     r7,#1
        0x0000cea2:    e7a9        ..      B        0xcdf8 ; am_hal_ble_patch_apply + 88
        0x0000cea4:    f8d82004    ...     LDR      r2,[r8,#4]
        0x0000cea8:    9700        ..      STR      r7,[sp,#0]
        0x0000ceaa:    2a00        .*      CMP      r2,#0
        0x0000ceac:    f000808e    ....    BEQ.W    0xcfcc ; am_hal_ble_patch_apply + 556
        0x0000ceb0:    4611        .F      MOV      r1,r2
        0x0000ceb2:    f89d203c    ..<     LDRB     r2,[sp,#0x3c]
        0x0000ceb6:    f64234b8    B..4    MOV      r4,#0x2bb8
        0x0000ceba:    2701        .'      MOVS     r7,#1
        0x0000cebc:    f2c10400    ....    MOVT     r4,#0x1000
        0x0000cec0:    2300        .#      MOVS     r3,#0
        0x0000cec2:    f8cda00c    ....    STR      r10,[sp,#0xc]
        0x0000cec6:    468a        .F      MOV      r10,r1
        0x0000cec8:    9304        ..      STR      r3,[sp,#0x10]
        0x0000ceca:    9201        ..      STR      r2,[sp,#4]
        0x0000cecc:    2980        .)      CMP      r1,#0x80
        0x0000cece:    9102        ..      STR      r1,[sp,#8]
        0x0000ced0:    bf28        (.      IT       CS
        0x0000ced2:    f04f0a80    O...    MOVCS    r10,#0x80
        0x0000ced6:    9803        ..      LDR      r0,[sp,#0xc]
        0x0000ced8:    2114        .!      MOVS     r1,#0x14
        0x0000ceda:    f7fff9fe    ....    BL       __aeabi_memclr4 ; 0xc2da
        0x0000cede:    f10a0004    ....    ADD      r0,r10,#4
        0x0000cee2:    7027        'p      STRB     r7,[r4,#0]
        0x0000cee4:    f8ad002c    ..,.    STRH     r0,[sp,#0x2c]
        0x0000cee8:    f8d80000    ....    LDR      r0,[r8,#0]
        0x0000ceec:    2100        .!      MOVS     r1,#0
        0x0000ceee:    f88d1030    ..0.    STRB     r1,[sp,#0x30]
        0x0000cef2:    7060        `p      STRB     r0,[r4,#1]
        0x0000cef4:    20f2        .       MOVS     r0,#0xf2
        0x0000cef6:    9904        ..      LDR      r1,[sp,#0x10]
        0x0000cef8:    70a0        .p      STRB     r0,[r4,#2]
        0x0000cefa:    f8d8000c    ....    LDR      r0,[r8,#0xc]
        0x0000cefe:    f0210103    !...    BIC      r1,r1,#3
        0x0000cf02:    4401        .D      ADD      r1,r1,r0
        0x0000cf04:    1d20         .      ADDS     r0,r4,#4
        0x0000cf06:    4652        RF      MOV      r2,r10
        0x0000cf08:    f88d702e    ...p    STRB     r7,[sp,#0x2e]
        0x0000cf0c:    9409        ..      STR      r4,[sp,#0x24]
        0x0000cf0e:    f884a003    ....    STRB     r10,[r4,#3]
        0x0000cf12:    f7fff99d    ....    BL       __aeabi_memcpy ; 0xc250
        0x0000cf16:    4628        (F      MOV      r0,r5
        0x0000cf18:    a909        ..      ADD      r1,sp,#0x24
        0x0000cf1a:    f7fffb65    ..e.    BL       am_hal_ble_blocking_transfer ; 0xc5e8
        0x0000cf1e:    2800        .(      CMP      r0,#0
        0x0000cf20:    f04080bf    @...    BNE.W    0xd0a2 ; am_hal_ble_patch_apply + 770
        0x0000cf24:    f8db0000    ....    LDR      r0,[r11,#0]
        0x0000cf28:    0600        ..      LSLS     r0,r0,#24
        0x0000cf2a:    d40d        ..      BMI      0xcf48 ; am_hal_ble_patch_apply + 424
        0x0000cf2c:    f2442741    D.A'    MOV      r7,#0x4241
        0x0000cf30:    f2c0070f    ....    MOVT     r7,#0xf
        0x0000cf34:    3f01        .?      SUBS     r7,#1
        0x0000cf36:    f00080ad    ....    BEQ.W    0xd094 ; am_hal_ble_patch_apply + 756
        0x0000cf3a:    2010        .       MOVS     r0,#0x10
        0x0000cf3c:    f000fee0    ....    BL       am_hal_flash_delay ; 0xdd00
        0x0000cf40:    f8db0000    ....    LDR      r0,[r11,#0]
        0x0000cf44:    0600        ..      LSLS     r0,r0,#24
        0x0000cf46:    d5f5        ..      BPL      0xcf34 ; am_hal_ble_patch_apply + 404
        0x0000cf48:    9803        ..      LDR      r0,[sp,#0xc]
        0x0000cf4a:    2114        .!      MOVS     r1,#0x14
        0x0000cf4c:    f7fff9c5    ....    BL       __aeabi_memclr4 ; 0xc2da
        0x0000cf50:    2002        .       MOVS     r0,#2
        0x0000cf52:    f88d002e    ....    STRB     r0,[sp,#0x2e]
        0x0000cf56:    2005        .       MOVS     r0,#5
        0x0000cf58:    f8ad002c    ..,.    STRH     r0,[sp,#0x2c]
        0x0000cf5c:    4628        (F      MOV      r0,r5
        0x0000cf5e:    a909        ..      ADD      r1,sp,#0x24
        0x0000cf60:    9609        ..      STR      r6,[sp,#0x24]
        0x0000cf62:    f7fffb41    ..A.    BL       am_hal_ble_blocking_transfer ; 0xc5e8
        0x0000cf66:    2800        .(      CMP      r0,#0
        0x0000cf68:    f040809b    @...    BNE.W    0xd0a2 ; am_hal_ble_patch_apply + 770
        0x0000cf6c:    f89d1014    ....    LDRB     r1,[sp,#0x14]
        0x0000cf70:    f8d80000    ....    LDR      r0,[r8,#0]
        0x0000cf74:    f44f72f9    O..r    MOV      r2,#0x1f2
        0x0000cf78:    2904        .)      CMP      r1,#4
        0x0000cf7a:    f04f0100    O...    MOV      r1,#0
        0x0000cf7e:    f88d003d    ..=.    STRB     r0,[sp,#0x3d]
        0x0000cf82:    f8ad203e    ..>     STRH     r2,[sp,#0x3e]
        0x0000cf86:    f88d1040    ..@.    STRB     r1,[sp,#0x40]
        0x0000cf8a:    f040808c    @...    BNE.W    0xd0a6 ; am_hal_ble_patch_apply + 774
        0x0000cf8e:    9f00        ..      LDR      r7,[sp,#0]
        0x0000cf90:    2200        ."      MOVS     r2,#0
        0x0000cf92:    bf00        ..      NOP      
        0x0000cf94:    4611        .F      MOV      r1,r2
        0x0000cf96:    2a04        .*      CMP      r2,#4
        0x0000cf98:    d006        ..      BEQ      0xcfa8 ; am_hal_ble_patch_apply + 520
        0x0000cf9a:    f8192001    ...     LDRB     r2,[r9,r1]
        0x0000cf9e:    5c7b        {\      LDRB     r3,[r7,r1]
        0x0000cfa0:    429a        .B      CMP      r2,r3
        0x0000cfa2:    f1010201    ....    ADD      r2,r1,#1
        0x0000cfa6:    d0f5        ..      BEQ      0xcf94 ; am_hal_ble_patch_apply + 500
        0x0000cfa8:    2904        .)      CMP      r1,#4
        0x0000cfaa:    d37c        |.      BCC      0xd0a6 ; am_hal_ble_patch_apply + 774
        0x0000cfac:    9902        ..      LDR      r1,[sp,#8]
        0x0000cfae:    9b04        ..      LDR      r3,[sp,#0x10]
        0x0000cfb0:    ebb1010a    ....    SUBS     r1,r1,r10
        0x0000cfb4:    4453        SD      ADD      r3,r3,r10
        0x0000cfb6:    f04f0204    O...    MOV      r2,#4
        0x0000cfba:    f04f0701    O...    MOV      r7,#1
        0x0000cfbe:    f47faf82    ....    BNE.W    0xcec6 ; am_hal_ble_patch_apply + 294
        0x0000cfc2:    f8dda00c    ....    LDR      r10,[sp,#0xc]
        0x0000cfc6:    ac09        ..      ADD      r4,sp,#0x24
        0x0000cfc8:    f88d203c    ..<     STRB     r2,[sp,#0x3c]
        0x0000cfcc:    f8d81008    ....    LDR      r1,[r8,#8]
        0x0000cfd0:    f88d0015    ....    STRB     r0,[sp,#0x15]
        0x0000cfd4:    f24020f3    @..     MOV      r0,#0x2f3
        0x0000cfd8:    ae05        ..      ADD      r6,sp,#0x14
        0x0000cfda:    2701        .'      MOVS     r7,#1
        0x0000cfdc:    f8ad0016    ....    STRH     r0,[sp,#0x16]
        0x0000cfe0:    f8ad1018    ....    STRH     r1,[sp,#0x18]
        0x0000cfe4:    4628        (F      MOV      r0,r5
        0x0000cfe6:    2100        .!      MOVS     r1,#0
        0x0000cfe8:    4632        2F      MOV      r2,r6
        0x0000cfea:    2306        .#      MOVS     r3,#6
        0x0000cfec:    f88d7014    ...p    STRB     r7,[sp,#0x14]
        0x0000cff0:    f7fffacf    ....    BL       am_hal_ble_blocking_hci_write ; 0xc592
        0x0000cff4:    2800        .(      CMP      r0,#0
        0x0000cff6:    f47faeff    ....    BNE      0xcdf8 ; am_hal_ble_patch_apply + 88
        0x0000cffa:    f8db0000    ....    LDR      r0,[r11,#0]
        0x0000cffe:    0600        ..      LSLS     r0,r0,#24
        0x0000d000:    d40c        ..      BMI      0xd01c ; am_hal_ble_patch_apply + 636
        0x0000d002:    f2442741    D.A'    MOV      r7,#0x4241
        0x0000d006:    f2c0070f    ....    MOVT     r7,#0xf
        0x0000d00a:    3f01        .?      SUBS     r7,#1
        0x0000d00c:    d03e        >.      BEQ      0xd08c ; am_hal_ble_patch_apply + 748
        0x0000d00e:    2010        .       MOVS     r0,#0x10
        0x0000d010:    f000fe76    ..v.    BL       am_hal_flash_delay ; 0xdd00
        0x0000d014:    f8db0000    ....    LDR      r0,[r11,#0]
        0x0000d018:    0600        ..      LSLS     r0,r0,#24
        0x0000d01a:    d5f6        ..      BPL      0xd00a ; am_hal_ble_patch_apply + 618
        0x0000d01c:    4650        PF      MOV      r0,r10
        0x0000d01e:    2114        .!      MOVS     r1,#0x14
        0x0000d020:    f7fff95b    ..[.    BL       __aeabi_memclr4 ; 0xc2da
        0x0000d024:    2002        .       MOVS     r0,#2
        0x0000d026:    f88d002e    ....    STRB     r0,[sp,#0x2e]
        0x0000d02a:    2005        .       MOVS     r0,#5
        0x0000d02c:    f8ad002c    ..,.    STRH     r0,[sp,#0x2c]
        0x0000d030:    4628        (F      MOV      r0,r5
        0x0000d032:    4621        !F      MOV      r1,r4
        0x0000d034:    9609        ..      STR      r6,[sp,#0x24]
        0x0000d036:    f7fffad7    ....    BL       am_hal_ble_blocking_transfer ; 0xc5e8
        0x0000d03a:    4607        .F      MOV      r7,r0
        0x0000d03c:    2800        .(      CMP      r0,#0
        0x0000d03e:    f47faedb    ....    BNE      0xcdf8 ; am_hal_ble_patch_apply + 88
        0x0000d042:    f8d81000    ....    LDR      r1,[r8,#0]
        0x0000d046:    2004        .       MOVS     r0,#4
        0x0000d048:    f88d103d    ..=.    STRB     r1,[sp,#0x3d]
        0x0000d04c:    f89d1014    ....    LDRB     r1,[sp,#0x14]
        0x0000d050:    f88d003c    ..<.    STRB     r0,[sp,#0x3c]
        0x0000d054:    f24010f3    @...    MOV      r0,#0x1f3
        0x0000d058:    f8ad003e    ..>.    STRH     r0,[sp,#0x3e]
        0x0000d05c:    2904        .)      CMP      r1,#4
        0x0000d05e:    f04f0000    O...    MOV      r0,#0
        0x0000d062:    f88d0040    ..@.    STRB     r0,[sp,#0x40]
        0x0000d066:    f47faf1b    ....    BNE      0xcea0 ; am_hal_ble_patch_apply + 256
        0x0000d06a:    9f00        ..      LDR      r7,[sp,#0]
        0x0000d06c:    1c70        p.      ADDS     r0,r6,#1
        0x0000d06e:    2200        ."      MOVS     r2,#0
        0x0000d070:    4611        .F      MOV      r1,r2
        0x0000d072:    2a04        .*      CMP      r2,#4
        0x0000d074:    d005        ..      BEQ      0xd082 ; am_hal_ble_patch_apply + 738
        0x0000d076:    5c42        B\      LDRB     r2,[r0,r1]
        0x0000d078:    5c7b        {\      LDRB     r3,[r7,r1]
        0x0000d07a:    429a        .B      CMP      r2,r3
        0x0000d07c:    f1010201    ....    ADD      r2,r1,#1
        0x0000d080:    d0f6        ..      BEQ      0xd070 ; am_hal_ble_patch_apply + 720
        0x0000d082:    2700        .'      MOVS     r7,#0
        0x0000d084:    2904        .)      CMP      r1,#4
        0x0000d086:    bf38        8.      IT       CC
        0x0000d088:    2701        .'      MOVCC    r7,#1
        0x0000d08a:    e6b5        ..      B        0xcdf8 ; am_hal_ble_patch_apply + 88
        0x0000d08c:    2704        .'      MOVS     r7,#4
        0x0000d08e:    f6c00700    ....    MOVT     r7,#0x800
        0x0000d092:    e6b1        ..      B        0xcdf8 ; am_hal_ble_patch_apply + 88
        0x0000d094:    2704        .'      MOVS     r7,#4
        0x0000d096:    f6c00700    ....    MOVT     r7,#0x800
        0x0000d09a:    9801        ..      LDR      r0,[sp,#4]
        0x0000d09c:    f88d003c    ..<.    STRB     r0,[sp,#0x3c]
        0x0000d0a0:    e6aa        ..      B        0xcdf8 ; am_hal_ble_patch_apply + 88
        0x0000d0a2:    4607        .F      MOV      r7,r0
        0x0000d0a4:    e7f9        ..      B        0xd09a ; am_hal_ble_patch_apply + 762
        0x0000d0a6:    2701        .'      MOVS     r7,#1
        0x0000d0a8:    2004        .       MOVS     r0,#4
        0x0000d0aa:    e7f7        ..      B        0xd09c ; am_hal_ble_patch_apply + 764
    am_hal_ble_patch_complete
        0x0000d0ac:    e92d47f0    -..G    PUSH     {r4-r10,lr}
        0x0000d0b0:    b08c        ..      SUB      sp,sp,#0x30
        0x0000d0b2:    2800        .(      CMP      r0,#0
        0x0000d0b4:    d078        x.      BEQ      0xd1a8 ; am_hal_ble_patch_complete + 252
        0x0000d0b6:    4604        .F      MOV      r4,r0
        0x0000d0b8:    6800        .h      LDR      r0,[r0,#0]
        0x0000d0ba:    f2452630    E.0&    MOV      r6,#0x5230
        0x0000d0be:    f2c01677    ..w.    MOVT     r6,#0x177
        0x0000d0c2:    f020407e     .~@    BIC      r0,r0,#0xfe000000
        0x0000d0c6:    42b0        .B      CMP      r0,r6
        0x0000d0c8:    d16e        n.      BNE      0xd1a8 ; am_hal_ble_patch_complete + 252
        0x0000d0ca:    ad06        ..      ADD      r5,sp,#0x18
        0x0000d0cc:    1d28        (.      ADDS     r0,r5,#4
        0x0000d0ce:    2114        .!      MOVS     r1,#0x14
        0x0000d0d0:    f7fff903    ....    BL       __aeabi_memclr4 ; 0xc2da
        0x0000d0d4:    2001        .       MOVS     r0,#1
        0x0000d0d6:    f88d0022    ..".    STRB     r0,[sp,#0x22]
        0x0000d0da:    2006        .       MOVS     r0,#6
        0x0000d0dc:    f8ad0020    .. .    STRH     r0,[sp,#0x20]
        0x0000d0e0:    f64e6001    N..`    MOV      r0,#0xee01
        0x0000d0e4:    f2c020f1    ...     MOVT     r0,#0x2f1
        0x0000d0e8:    f10d080c    ....    ADD      r8,sp,#0xc
        0x0000d0ec:    9003        ..      STR      r0,[sp,#0xc]
        0x0000d0ee:    2000        .       MOVS     r0,#0
        0x0000d0f0:    f2413787    A..7    MOV      r7,#0x1387
        0x0000d0f4:    f8cd8018    ....    STR      r8,[sp,#0x18]
        0x0000d0f8:    f8ad0010    ....    STRH     r0,[sp,#0x10]
        0x0000d0fc:    4620         F      MOV      r0,r4
        0x0000d0fe:    4629        )F      MOV      r1,r5
        0x0000d100:    f7fffa72    ..r.    BL       am_hal_ble_blocking_transfer ; 0xc5e8
        0x0000d104:    b118        ..      CBZ      r0,0xd10e ; am_hal_ble_patch_complete + 98
        0x0000d106:    2f00        ./      CMP      r7,#0
        0x0000d108:    f1a70701    ....    SUB      r7,r7,#1
        0x0000d10c:    d1f6        ..      BNE      0xd0fc ; am_hal_ble_patch_complete + 80
        0x0000d10e:    f24c3704    L..7    MOV      r7,#0xc304
        0x0000d112:    f2c50700    ....    MOVT     r7,#0x5000
        0x0000d116:    68b8        .h      LDR      r0,[r7,#8]
        0x0000d118:    0600        ..      LSLS     r0,r0,#24
        0x0000d11a:    d40c        ..      BMI      0xd136 ; am_hal_ble_patch_complete + 138
        0x0000d11c:    f24865a1    H..e    MOV      r5,#0x86a1
        0x0000d120:    f2c00501    ....    MOVT     r5,#1
        0x0000d124:    3d01        .=      SUBS     r5,#1
        0x0000d126:    f000809f    ....    BEQ.W    0xd268 ; am_hal_ble_patch_complete + 444
        0x0000d12a:    2010        .       MOVS     r0,#0x10
        0x0000d12c:    f000fde8    ....    BL       am_hal_flash_delay ; 0xdd00
        0x0000d130:    68b8        .h      LDR      r0,[r7,#8]
        0x0000d132:    0600        ..      LSLS     r0,r0,#24
        0x0000d134:    d5f6        ..      BPL      0xd124 ; am_hal_ble_patch_complete + 120
        0x0000d136:    2002        .       MOVS     r0,#2
        0x0000d138:    f88d0022    ..".    STRB     r0,[sp,#0x22]
        0x0000d13c:    46e9        .F      MOV      r9,sp
        0x0000d13e:    f8ad0020    .. .    STRH     r0,[sp,#0x20]
        0x0000d142:    a906        ..      ADD      r1,sp,#0x18
        0x0000d144:    4620         F      MOV      r0,r4
        0x0000d146:    f8cd9018    ....    STR      r9,[sp,#0x18]
        0x0000d14a:    f7fffa4d    ..M.    BL       am_hal_ble_blocking_transfer ; 0xc5e8
        0x0000d14e:    bb60        `.      CBNZ     r0,0xd1aa ; am_hal_ble_patch_complete + 254
        0x0000d150:    f89d0001    ....    LDRB     r0,[sp,#1]
        0x0000d154:    28ee        .(      CMP      r0,#0xee
        0x0000d156:    d12b        +.      BNE      0xd1b0 ; am_hal_ble_patch_complete + 260
        0x0000d158:    2003        .       MOVS     r0,#3
        0x0000d15a:    f10d0a18    ....    ADD      r10,sp,#0x18
        0x0000d15e:    f8ad0020    .. .    STRH     r0,[sp,#0x20]
        0x0000d162:    4620         F      MOV      r0,r4
        0x0000d164:    4651        QF      MOV      r1,r10
        0x0000d166:    f7fffa3f    ..?.    BL       am_hal_ble_blocking_transfer ; 0xc5e8
        0x0000d16a:    b9f0        ..      CBNZ     r0,0xd1aa ; am_hal_ble_patch_complete + 254
        0x0000d16c:    f10a0004    ....    ADD      r0,r10,#4
        0x0000d170:    2114        .!      MOVS     r1,#0x14
        0x0000d172:    f7fff8b2    ....    BL       __aeabi_memclr4 ; 0xc2da
        0x0000d176:    2105        .!      MOVS     r1,#5
        0x0000d178:    f8ad1020    .. .    STRH     r1,[sp,#0x20]
        0x0000d17c:    f2404101    @..A    MOV      r1,#0x401
        0x0000d180:    2001        .       MOVS     r0,#1
        0x0000d182:    f2c011fd    ....    MOVT     r1,#0x1fd
        0x0000d186:    f88d0022    ..".    STRB     r0,[sp,#0x22]
        0x0000d18a:    f8cd8018    ....    STR      r8,[sp,#0x18]
        0x0000d18e:    9103        ..      STR      r1,[sp,#0xc]
        0x0000d190:    f88d0010    ....    STRB     r0,[sp,#0x10]
        0x0000d194:    f2413588    A..5    MOV      r5,#0x1388
        0x0000d198:    4620         F      MOV      r0,r4
        0x0000d19a:    4651        QF      MOV      r1,r10
        0x0000d19c:    f7fffa24    ..$.    BL       am_hal_ble_blocking_transfer ; 0xc5e8
        0x0000d1a0:    b1b8        ..      CBZ      r0,0xd1d2 ; am_hal_ble_patch_complete + 294
        0x0000d1a2:    3d01        .=      SUBS     r5,#1
        0x0000d1a4:    d1f8        ..      BNE      0xd198 ; am_hal_ble_patch_complete + 236
        0x0000d1a6:    e000        ..      B        0xd1aa ; am_hal_ble_patch_complete + 254
        0x0000d1a8:    2002        .       MOVS     r0,#2
        0x0000d1aa:    b00c        ..      ADD      sp,sp,#0x30
        0x0000d1ac:    e8bd87f0    ....    POP      {r4-r10,pc}
        0x0000d1b0:    f89d1000    ....    LDRB     r1,[sp,#0]
        0x0000d1b4:    ea412000    A..     ORR      r0,r1,r0,LSL #8
        0x0000d1b8:    f8ad0020    .. .    STRH     r0,[sp,#0x20]
        0x0000d1bc:    a906        ..      ADD      r1,sp,#0x18
        0x0000d1be:    4620         F      MOV      r0,r4
        0x0000d1c0:    f7fffa12    ....    BL       am_hal_ble_blocking_transfer ; 0xc5e8
        0x0000d1c4:    2800        .(      CMP      r0,#0
        0x0000d1c6:    d1f0        ..      BNE      0xd1aa ; am_hal_ble_patch_complete + 254
        0x0000d1c8:    2001        .       MOVS     r0,#1
        0x0000d1ca:    f8840040    ..@.    STRB     r0,[r4,#0x40]
        0x0000d1ce:    2000        .       MOVS     r0,#0
        0x0000d1d0:    e7eb        ..      B        0xd1aa ; am_hal_ble_patch_complete + 254
        0x0000d1d2:    68b8        .h      LDR      r0,[r7,#8]
        0x0000d1d4:    0600        ..      LSLS     r0,r0,#24
        0x0000d1d6:    d40b        ..      BMI      0xd1f0 ; am_hal_ble_patch_complete + 324
        0x0000d1d8:    f24865a1    H..e    MOV      r5,#0x86a1
        0x0000d1dc:    f2c00501    ....    MOVT     r5,#1
        0x0000d1e0:    3d01        .=      SUBS     r5,#1
        0x0000d1e2:    d041        A.      BEQ      0xd268 ; am_hal_ble_patch_complete + 444
        0x0000d1e4:    2010        .       MOVS     r0,#0x10
        0x0000d1e6:    f000fd8b    ....    BL       am_hal_flash_delay ; 0xdd00
        0x0000d1ea:    68b8        .h      LDR      r0,[r7,#8]
        0x0000d1ec:    0600        ..      LSLS     r0,r0,#24
        0x0000d1ee:    d5f7        ..      BPL      0xd1e0 ; am_hal_ble_patch_complete + 308
        0x0000d1f0:    2002        .       MOVS     r0,#2
        0x0000d1f2:    f88d0022    ..".    STRB     r0,[sp,#0x22]
        0x0000d1f6:    2009        .       MOVS     r0,#9
        0x0000d1f8:    f8ad0020    .. .    STRH     r0,[sp,#0x20]
        0x0000d1fc:    a906        ..      ADD      r1,sp,#0x18
        0x0000d1fe:    4620         F      MOV      r0,r4
        0x0000d200:    f8cd9018    ....    STR      r9,[sp,#0x18]
        0x0000d204:    f7fff9f0    ....    BL       am_hal_ble_blocking_transfer ; 0xc5e8
        0x0000d208:    2800        .(      CMP      r0,#0
        0x0000d20a:    d1ce        ..      BNE      0xd1aa ; am_hal_ble_patch_complete + 254
        0x0000d20c:    6820         h      LDR      r0,[r4,#0]
        0x0000d20e:    f020407e     .~@    BIC      r0,r0,#0xfe000000
        0x0000d212:    42b0        .B      CMP      r0,r6
        0x0000d214:    d104        ..      BNE      0xd220 ; am_hal_ble_patch_complete + 372
        0x0000d216:    6838        8h      LDR      r0,[r7,#0]
        0x0000d218:    2102        .!      MOVS     r1,#2
        0x0000d21a:    f3610083    a...    BFI      r0,r1,#2,#2
        0x0000d21e:    6038        8`      STR      r0,[r7,#0]
        0x0000d220:    2001        .       MOVS     r0,#1
        0x0000d222:    f8840040    ..@.    STRB     r0,[r4,#0x40]
        0x0000d226:    f2412000    A..     MOVW     r0,#0x1200
        0x0000d22a:    f2c0007a    ..z.    MOVT     r0,#0x7a
        0x0000d22e:    f000fd67    ..g.    BL       am_hal_flash_delay ; 0xdd00
        0x0000d232:    f6430008    C...    MOV      r0,#0x3808
        0x0000d236:    f2c50002    ....    MOVT     r0,#0x5002
        0x0000d23a:    6801        .h      LDR      r1,[r0,#0]
        0x0000d23c:    f2424206    B..B    MOV      r2,#0x2406
        0x0000d240:    f2c00218    ....    MOVT     r2,#0x18
        0x0000d244:    ebb22f11    .../    CMP      r2,r1,LSR #8
        0x0000d248:    f04f0000    O...    MOV      r0,#0
        0x0000d24c:    bf18        ..      IT       NE
        0x0000d24e:    4601        .F      MOVNE    r1,r0
        0x0000d250:    060a        ..      LSLS     r2,r1,#24
        0x0000d252:    d0aa        ..      BEQ      0xd1aa ; am_hal_ble_patch_complete + 254
        0x0000d254:    f1a10220    .. .    SUB      r2,r1,#0x20
        0x0000d258:    b2d2        ..      UXTB     r2,r2
        0x0000d25a:    2a30        0*      CMP      r2,#0x30
        0x0000d25c:    d8a5        ..      BHI      0xd1aa ; am_hal_ble_patch_complete + 254
        0x0000d25e:    b2c9        ..      UXTB     r1,r1
        0x0000d260:    4620         F      MOV      r0,r4
        0x0000d262:    f000fb10    ....    BL       am_hal_ble_transmitter_modex_set ; 0xd886
        0x0000d266:    e7b2        ..      B        0xd1ce ; am_hal_ble_patch_complete + 290
        0x0000d268:    2004        .       MOVS     r0,#4
        0x0000d26a:    f6c00000    ....    MOVT     r0,#0x800
        0x0000d26e:    e79c        ..      B        0xd1aa ; am_hal_ble_patch_complete + 254
    am_hal_ble_patch_copy_end_apply
        0x0000d270:    e92d41f0    -..A    PUSH     {r4-r8,lr}
        0x0000d274:    b092        ..      SUB      sp,sp,#0x48
        0x0000d276:    b300        ..      CBZ      r0,0xd2ba ; am_hal_ble_patch_copy_end_apply + 74
        0x0000d278:    4605        .F      MOV      r5,r0
        0x0000d27a:    6800        .h      LDR      r0,[r0,#0]
        0x0000d27c:    f2452130    E.0!    MOV      r1,#0x5230
        0x0000d280:    f020407e     .~@    BIC      r0,r0,#0xfe000000
        0x0000d284:    f2c01177    ..w.    MOVT     r1,#0x177
        0x0000d288:    4288        .B      CMP      r0,r1
        0x0000d28a:    d116        ..      BNE      0xd2ba ; am_hal_ble_patch_copy_end_apply + 74
        0x0000d28c:    f64e6001    N..`    MOV      r0,#0xee01
        0x0000d290:    f2c020f1    ...     MOVT     r0,#0x2f1
        0x0000d294:    9000        ..      STR      r0,[sp,#0]
        0x0000d296:    2000        .       MOVS     r0,#0
        0x0000d298:    f8ad0004    ....    STRH     r0,[sp,#4]
        0x0000d29c:    f2413788    A..7    MOV      r7,#0x1388
        0x0000d2a0:    466c        lF      MOV      r4,sp
        0x0000d2a2:    bf00        ..      NOP      
        0x0000d2a4:    4628        (F      MOV      r0,r5
        0x0000d2a6:    2100        .!      MOVS     r1,#0
        0x0000d2a8:    4622        "F      MOV      r2,r4
        0x0000d2aa:    2306        .#      MOVS     r3,#6
        0x0000d2ac:    f7fff971    ..q.    BL       am_hal_ble_blocking_hci_write ; 0xc592
        0x0000d2b0:    b140        @.      CBZ      r0,0xd2c4 ; am_hal_ble_patch_copy_end_apply + 84
        0x0000d2b2:    4606        .F      MOV      r6,r0
        0x0000d2b4:    3f01        .?      SUBS     r7,#1
        0x0000d2b6:    d1f5        ..      BNE      0xd2a4 ; am_hal_ble_patch_copy_end_apply + 52
        0x0000d2b8:    e000        ..      B        0xd2bc ; am_hal_ble_patch_copy_end_apply + 76
        0x0000d2ba:    2602        .&      MOVS     r6,#2
        0x0000d2bc:    4630        0F      MOV      r0,r6
        0x0000d2be:    b012        ..      ADD      sp,sp,#0x48
        0x0000d2c0:    e8bd81f0    ....    POP      {r4-r8,pc}
        0x0000d2c4:    f24c380c    L..8    MOV      r8,#0xc30c
        0x0000d2c8:    f2c50800    ....    MOVT     r8,#0x5000
        0x0000d2cc:    f8d80000    ....    LDR      r0,[r8,#0]
        0x0000d2d0:    0600        ..      LSLS     r0,r0,#24
        0x0000d2d2:    d410        ..      BMI      0xd2f6 ; am_hal_ble_patch_copy_end_apply + 134
        0x0000d2d4:    f2442741    D.A'    MOV      r7,#0x4241
        0x0000d2d8:    2604        .&      MOVS     r6,#4
        0x0000d2da:    f2c0070f    ....    MOVT     r7,#0xf
        0x0000d2de:    f6c00600    ....    MOVT     r6,#0x800
        0x0000d2e2:    bf00        ..      NOP      
        0x0000d2e4:    3f01        .?      SUBS     r7,#1
        0x0000d2e6:    d0e9        ..      BEQ      0xd2bc ; am_hal_ble_patch_copy_end_apply + 76
        0x0000d2e8:    2010        .       MOVS     r0,#0x10
        0x0000d2ea:    f000fd09    ....    BL       am_hal_flash_delay ; 0xdd00
        0x0000d2ee:    f8d80000    ....    LDR      r0,[r8,#0]
        0x0000d2f2:    0600        ..      LSLS     r0,r0,#24
        0x0000d2f4:    d5f6        ..      BPL      0xd2e4 ; am_hal_ble_patch_copy_end_apply + 116
        0x0000d2f6:    ae04        ..      ADD      r6,sp,#0x10
        0x0000d2f8:    1d30        0.      ADDS     r0,r6,#4
        0x0000d2fa:    2114        .!      MOVS     r1,#0x14
        0x0000d2fc:    f7feffed    ....    BL       __aeabi_memclr4 ; 0xc2da
        0x0000d300:    2002        .       MOVS     r0,#2
        0x0000d302:    f88d001a    ....    STRB     r0,[sp,#0x1a]
        0x0000d306:    2005        .       MOVS     r0,#5
        0x0000d308:    f8ad0018    ....    STRH     r0,[sp,#0x18]
        0x0000d30c:    4628        (F      MOV      r0,r5
        0x0000d30e:    4631        1F      MOV      r1,r6
        0x0000d310:    9404        ..      STR      r4,[sp,#0x10]
        0x0000d312:    f7fff969    ..i.    BL       am_hal_ble_blocking_transfer ; 0xc5e8
        0x0000d316:    4606        .F      MOV      r6,r0
        0x0000d318:    2800        .(      CMP      r0,#0
        0x0000d31a:    d1cf        ..      BNE      0xd2bc ; am_hal_ble_patch_copy_end_apply + 76
        0x0000d31c:    f64e6004    N..`    MOV      r0,#0xee04
        0x0000d320:    f2c010f1    ....    MOVT     r0,#0x1f1
        0x0000d324:    900a        ..      STR      r0,[sp,#0x28]
        0x0000d326:    f89d0000    ....    LDRB     r0,[sp,#0]
        0x0000d32a:    2100        .!      MOVS     r1,#0
        0x0000d32c:    2804        .(      CMP      r0,#4
        0x0000d32e:    f88d102c    ..,.    STRB     r1,[sp,#0x2c]
        0x0000d332:    d111        ..      BNE      0xd358 ; am_hal_ble_patch_copy_end_apply + 232
        0x0000d334:    a90a        ..      ADD      r1,sp,#0x28
        0x0000d336:    1c60        `.      ADDS     r0,r4,#1
        0x0000d338:    3101        .1      ADDS     r1,#1
        0x0000d33a:    2300        .#      MOVS     r3,#0
        0x0000d33c:    461a        .F      MOV      r2,r3
        0x0000d33e:    2b04        .+      CMP      r3,#4
        0x0000d340:    d005        ..      BEQ      0xd34e ; am_hal_ble_patch_copy_end_apply + 222
        0x0000d342:    5c83        .\      LDRB     r3,[r0,r2]
        0x0000d344:    5c8f        .\      LDRB     r7,[r1,r2]
        0x0000d346:    42bb        .B      CMP      r3,r7
        0x0000d348:    f1020301    ....    ADD      r3,r2,#1
        0x0000d34c:    d0f6        ..      BEQ      0xd33c ; am_hal_ble_patch_copy_end_apply + 204
        0x0000d34e:    2600        .&      MOVS     r6,#0
        0x0000d350:    2a04        .*      CMP      r2,#4
        0x0000d352:    bf38        8.      IT       CC
        0x0000d354:    2601        .&      MOVCC    r6,#1
        0x0000d356:    e7b1        ..      B        0xd2bc ; am_hal_ble_patch_copy_end_apply + 76
        0x0000d358:    2601        .&      MOVS     r6,#1
        0x0000d35a:    e7af        ..      B        0xd2bc ; am_hal_ble_patch_copy_end_apply + 76
    am_hal_ble_patch_preload
        0x0000d35c:    e92d41f0    -..A    PUSH     {r4-r8,lr}
        0x0000d360:    b088        ..      SUB      sp,sp,#0x20
        0x0000d362:    210c        .!      MOVS     r1,#0xc
        0x0000d364:    f2c40102    ....    MOVT     r1,#0x4002
        0x0000d368:    680a        .h      LDR      r2,[r1,#0]
        0x0000d36a:    4604        .F      MOV      r4,r0
        0x0000d36c:    b2d2        ..      UXTB     r2,r2
        0x0000d36e:    2a21        !*      CMP      r2,#0x21
        0x0000d370:    d003        ..      BEQ      0xd37a ; am_hal_ble_patch_preload + 30
        0x0000d372:    6808        .h      LDR      r0,[r1,#0]
        0x0000d374:    b2c0        ..      UXTB     r0,r0
        0x0000d376:    2821        !(      CMP      r0,#0x21
        0x0000d378:    d304        ..      BCC      0xd384 ; am_hal_ble_patch_preload + 40
        0x0000d37a:    f240205c    @.\     MOVW     r0,#0x25c
        0x0000d37e:    f2c10000    ....    MOVT     r0,#0x1000
        0x0000d382:    68c6        .h      LDR      r6,[r0,#0xc]
        0x0000d384:    f7fffc78    ..x.    BL       am_hal_ble_default_trim_set_ramcode ; 0xcc78
        0x0000d388:    4620         F      MOV      r0,r4
        0x0000d38a:    f7fffe8f    ....    BL       am_hal_ble_patch_complete ; 0xd0ac
        0x0000d38e:    2104        .!      MOVS     r1,#4
        0x0000d390:    f2c43100    ...1    MOVT     r1,#0x4300
        0x0000d394:    4620         F      MOV      r0,r4
        0x0000d396:    f04f32ff    O..2    MOV      r2,#0xffffffff
        0x0000d39a:    f000f92f    ../.    BL       am_hal_ble_plf_reg_write ; 0xd5fc
        0x0000d39e:    2500        .%      MOVS     r5,#0
        0x0000d3a0:    68b2        .h      LDR      r2,[r6,#8]
        0x0000d3a2:    f2c435c0    ...5    MOVT     r5,#0x43c0
        0x0000d3a6:    f1050108    ....    ADD      r1,r5,#8
        0x0000d3aa:    4620         F      MOV      r0,r4
        0x0000d3ac:    f000f926    ..&.    BL       am_hal_ble_plf_reg_write ; 0xd5fc
        0x0000d3b0:    68f2        .h      LDR      r2,[r6,#0xc]
        0x0000d3b2:    4620         F      MOV      r0,r4
        0x0000d3b4:    4629        )F      MOV      r1,r5
        0x0000d3b6:    f000f921    ..!.    BL       am_hal_ble_plf_reg_write ; 0xd5fc
        0x0000d3ba:    2508        .%      MOVS     r5,#8
        0x0000d3bc:    f2c45580    ...U    MOVT     r5,#0x4580
        0x0000d3c0:    4620         F      MOV      r0,r4
        0x0000d3c2:    4629        )F      MOV      r1,r5
        0x0000d3c4:    f640226a    @.j"    MOV      r2,#0xa6a
        0x0000d3c8:    f000f918    ....    BL       am_hal_ble_plf_reg_write ; 0xd5fc
        0x0000d3cc:    1d29        ).      ADDS     r1,r5,#4
        0x0000d3ce:    4620         F      MOV      r0,r4
        0x0000d3d0:    f2405235    @.5R    MOV      r2,#0x535
        0x0000d3d4:    f000f912    ....    BL       am_hal_ble_plf_reg_write ; 0xd5fc
        0x0000d3d8:    f1050108    ....    ADD      r1,r5,#8
        0x0000d3dc:    4620         F      MOV      r0,r4
        0x0000d3de:    f640226a    @.j"    MOV      r2,#0xa6a
        0x0000d3e2:    f000f90b    ....    BL       am_hal_ble_plf_reg_write ; 0xd5fc
        0x0000d3e6:    f105010c    ....    ADD      r1,r5,#0xc
        0x0000d3ea:    4620         F      MOV      r0,r4
        0x0000d3ec:    f2405235    @.5R    MOV      r2,#0x535
        0x0000d3f0:    f000f904    ....    BL       am_hal_ble_plf_reg_write ; 0xd5fc
        0x0000d3f4:    f1050110    ....    ADD      r1,r5,#0x10
        0x0000d3f8:    4620         F      MOV      r0,r4
        0x0000d3fa:    f44f7285    O..r    MOV      r2,#0x10a
        0x0000d3fe:    f000f8fd    ....    BL       am_hal_ble_plf_reg_write ; 0xd5fc
        0x0000d402:    f1050114    ....    ADD      r1,r5,#0x14
        0x0000d406:    4620         F      MOV      r0,r4
        0x0000d408:    2242        B"      MOVS     r2,#0x42
        0x0000d40a:    f000f8f7    ....    BL       am_hal_ble_plf_reg_write ; 0xd5fc
        0x0000d40e:    f1050118    ....    ADD      r1,r5,#0x18
        0x0000d412:    4620         F      MOV      r0,r4
        0x0000d414:    2242        B"      MOVS     r2,#0x42
        0x0000d416:    f000f8f1    ....    BL       am_hal_ble_plf_reg_write ; 0xd5fc
        0x0000d41a:    f105011c    ....    ADD      r1,r5,#0x1c
        0x0000d41e:    4620         F      MOV      r0,r4
        0x0000d420:    2242        B"      MOVS     r2,#0x42
        0x0000d422:    f000f8eb    ....    BL       am_hal_ble_plf_reg_write ; 0xd5fc
        0x0000d426:    f1050120    .. .    ADD      r1,r5,#0x20
        0x0000d42a:    4620         F      MOV      r0,r4
        0x0000d42c:    f44f7285    O..r    MOV      r2,#0x10a
        0x0000d430:    f000f8e4    ....    BL       am_hal_ble_plf_reg_write ; 0xd5fc
        0x0000d434:    f1050124    ..$.    ADD      r1,r5,#0x24
        0x0000d438:    4620         F      MOV      r0,r4
        0x0000d43a:    f44f7285    O..r    MOV      r2,#0x10a
        0x0000d43e:    f000f8dd    ....    BL       am_hal_ble_plf_reg_write ; 0xd5fc
        0x0000d442:    f1050148    ..H.    ADD      r1,r5,#0x48
        0x0000d446:    4620         F      MOV      r0,r4
        0x0000d448:    2260        `"      MOVS     r2,#0x60
        0x0000d44a:    f000f8d7    ....    BL       am_hal_ble_plf_reg_write ; 0xd5fc
        0x0000d44e:    f105015c    ..\.    ADD      r1,r5,#0x5c
        0x0000d452:    4620         F      MOV      r0,r4
        0x0000d454:    2204        ."      MOVS     r2,#4
        0x0000d456:    f000f8d1    ....    BL       am_hal_ble_plf_reg_write ; 0xd5fc
        0x0000d45a:    f1050170    ..p.    ADD      r1,r5,#0x70
        0x0000d45e:    4620         F      MOV      r0,r4
        0x0000d460:    2260        `"      MOVS     r2,#0x60
        0x0000d462:    f000f8cb    ....    BL       am_hal_ble_plf_reg_write ; 0xd5fc
        0x0000d466:    f1050178    ..x.    ADD      r1,r5,#0x78
        0x0000d46a:    4620         F      MOV      r0,r4
        0x0000d46c:    2260        `"      MOVS     r2,#0x60
        0x0000d46e:    f000f8c5    ....    BL       am_hal_ble_plf_reg_write ; 0xd5fc
        0x0000d472:    f105018c    ....    ADD      r1,r5,#0x8c
        0x0000d476:    4620         F      MOV      r0,r4
        0x0000d478:    f240221e    @.."    MOV      r2,#0x21e
        0x0000d47c:    f000f8be    ....    BL       am_hal_ble_plf_reg_write ; 0xd5fc
        0x0000d480:    f1050198    ....    ADD      r1,r5,#0x98
        0x0000d484:    4620         F      MOV      r0,r4
        0x0000d486:    2220         "      MOVS     r2,#0x20
        0x0000d488:    f000f8b8    ....    BL       am_hal_ble_plf_reg_write ; 0xd5fc
        0x0000d48c:    f643679c    C..g    MOV      r7,#0x3e9c
        0x0000d490:    f24015a8    @...    MOVW     r5,#0x1a8
        0x0000d494:    2600        .&      MOVS     r6,#0
        0x0000d496:    f2c20700    ....    MOVT     r7,#0x2000
        0x0000d49a:    f2c10500    ....    MOVT     r5,#0x1000
        0x0000d49e:    bf00        ..      NOP      
        0x0000d4a0:    68e8        .h      LDR      r0,[r5,#0xc]
        0x0000d4a2:    19f1        ..      ADDS     r1,r6,r7
        0x0000d4a4:    5982        .Y      LDR      r2,[r0,r6]
        0x0000d4a6:    4620         F      MOV      r0,r4
        0x0000d4a8:    f000f8a8    ....    BL       am_hal_ble_plf_reg_write ; 0xd5fc
        0x0000d4ac:    3604        .6      ADDS     r6,#4
        0x0000d4ae:    2e64        d.      CMP      r6,#0x64
        0x0000d4b0:    d1f6        ..      BNE      0xd4a0 ; am_hal_ble_patch_preload + 324
        0x0000d4b2:    68e8        .h      LDR      r0,[r5,#0xc]
        0x0000d4b4:    2614        .&      MOVS     r6,#0x14
        0x0000d4b6:    6882        .h      LDR      r2,[r0,#8]
        0x0000d4b8:    f2c516c0    ....    MOVT     r6,#0x51c0
        0x0000d4bc:    f24c2720    L. '    MOV      r7,#0xc220
        0x0000d4c0:    f2435800    C..X    MOVW     r8,#0x3500
        0x0000d4c4:    1d31        1.      ADDS     r1,r6,#4
        0x0000d4c6:    4620         F      MOV      r0,r4
        0x0000d4c8:    f2c50700    ....    MOVT     r7,#0x5000
        0x0000d4cc:    f2c0080c    ....    MOVT     r8,#0xc
        0x0000d4d0:    f000f894    ....    BL       am_hal_ble_plf_reg_write ; 0xd5fc
        0x0000d4d4:    68e8        .h      LDR      r0,[r5,#0xc]
        0x0000d4d6:    4631        1F      MOV      r1,r6
        0x0000d4d8:    6842        Bh      LDR      r2,[r0,#4]
        0x0000d4da:    4620         F      MOV      r0,r4
        0x0000d4dc:    f000f88e    ....    BL       am_hal_ble_plf_reg_write ; 0xd5fc
        0x0000d4e0:    4640        @F      MOV      r0,r8
        0x0000d4e2:    f000fc0d    ....    BL       am_hal_flash_delay ; 0xdd00
        0x0000d4e6:    f2411001    A...    MOV      r0,#0x1101
        0x0000d4ea:    f2c000fc    ....    MOVT     r0,#0xfc
        0x0000d4ee:    9004        ..      STR      r0,[sp,#0x10]
        0x0000d4f0:    2000        .       MOVS     r0,#0
        0x0000d4f2:    683e        >h      LDR      r6,[r7,#0]
        0x0000d4f4:    6038        8`      STR      r0,[r7,#0]
        0x0000d4f6:    aa04        ..      ADD      r2,sp,#0x10
        0x0000d4f8:    4620         F      MOV      r0,r4
        0x0000d4fa:    2100        .!      MOVS     r1,#0
        0x0000d4fc:    2304        .#      MOVS     r3,#4
        0x0000d4fe:    f7fff848    ..H.    BL       am_hal_ble_blocking_hci_write ; 0xc592
        0x0000d502:    f8d701f0    ....    LDR      r0,[r7,#0x1f0]
        0x0000d506:    f0400002    @...    ORR      r0,r0,#2
        0x0000d50a:    f8c701f0    ....    STR      r0,[r7,#0x1f0]
        0x0000d50e:    f8d700ec    ....    LDR      r0,[r7,#0xec]
        0x0000d512:    0600        ..      LSLS     r0,r0,#24
        0x0000d514:    d40c        ..      BMI      0xd530 ; am_hal_ble_patch_preload + 468
        0x0000d516:    f44f757a    O.zu    MOV      r5,#0x3e8
        0x0000d51a:    bf00        ..      NOP      
        0x0000d51c:    3d01        .=      SUBS     r5,#1
        0x0000d51e:    d00e        ..      BEQ      0xd53e ; am_hal_ble_patch_preload + 482
        0x0000d520:    f44f507a    O.zP    MOV      r0,#0x3e80
        0x0000d524:    f000fbec    ....    BL       am_hal_flash_delay ; 0xdd00
        0x0000d528:    f8d700ec    ....    LDR      r0,[r7,#0xec]
        0x0000d52c:    0600        ..      LSLS     r0,r0,#24
        0x0000d52e:    d5f5        ..      BPL      0xd51c ; am_hal_ble_patch_preload + 448
        0x0000d530:    4669        iF      MOV      r1,sp
        0x0000d532:    4620         F      MOV      r0,r4
        0x0000d534:    2200        ."      MOVS     r2,#0
        0x0000d536:    f7feffee    ....    BL       am_hal_ble_blocking_hci_read ; 0xc516
        0x0000d53a:    60be        .`      STR      r6,[r7,#8]
        0x0000d53c:    603e        >`      STR      r6,[r7,#0]
        0x0000d53e:    4640        @F      MOV      r0,r8
        0x0000d540:    f000fbde    ....    BL       am_hal_flash_delay ; 0xdd00
        0x0000d544:    2100        .!      MOVS     r1,#0
        0x0000d546:    2000        .       MOVS     r0,#0
        0x0000d548:    f8841040    ..@.    STRB     r1,[r4,#0x40]
        0x0000d54c:    b008        ..      ADD      sp,sp,#0x20
        0x0000d54e:    e8bd81f0    ....    POP      {r4-r8,pc}
        0x0000d552:    0000        ..      MOVS     r0,r0
    am_hal_ble_plf_reg_read
        0x0000d554:    e92d43f0    -..C    PUSH     {r4-r9,lr}
        0x0000d558:    b08b        ..      SUB      sp,sp,#0x2c
        0x0000d55a:    f2402401    @..$    MOV      r4,#0x201
        0x0000d55e:    4690        .F      MOV      r8,r2
        0x0000d560:    4605        .F      MOV      r5,r0
        0x0000d562:    f24c2720    L. '    MOV      r7,#0xc220
        0x0000d566:    0a08        ..      LSRS     r0,r1,#8
        0x0000d568:    0c0a        ..      LSRS     r2,r1,#16
        0x0000d56a:    0e0b        ..      LSRS     r3,r1,#24
        0x0000d56c:    2600        .&      MOVS     r6,#0
        0x0000d56e:    f2c044fd    ...D    MOVT     r4,#0x4fd
        0x0000d572:    f2c50700    ....    MOVT     r7,#0x5000
        0x0000d576:    e9cd6601    ...f    STRD     r6,r6,[sp,#4]
        0x0000d57a:    9603        ..      STR      r6,[sp,#0xc]
        0x0000d57c:    9409        ..      STR      r4,[sp,#0x24]
        0x0000d57e:    f88d1028    ..(.    STRB     r1,[sp,#0x28]
        0x0000d582:    f88d0029    ..).    STRB     r0,[sp,#0x29]
        0x0000d586:    f88d202a    ..*     STRB     r2,[sp,#0x2a]
        0x0000d58a:    f88d302b    ..+0    STRB     r3,[sp,#0x2b]
        0x0000d58e:    f8d79000    ....    LDR      r9,[r7,#0]
        0x0000d592:    aa09        ..      ADD      r2,sp,#0x24
        0x0000d594:    4628        (F      MOV      r0,r5
        0x0000d596:    2100        .!      MOVS     r1,#0
        0x0000d598:    2308        .#      MOVS     r3,#8
        0x0000d59a:    603e        >`      STR      r6,[r7,#0]
        0x0000d59c:    f7fefff9    ....    BL       am_hal_ble_blocking_hci_write ; 0xc592
        0x0000d5a0:    f8d701f0    ....    LDR      r0,[r7,#0x1f0]
        0x0000d5a4:    f0400002    @...    ORR      r0,r0,#2
        0x0000d5a8:    f8c701f0    ....    STR      r0,[r7,#0x1f0]
        0x0000d5ac:    f8d700ec    ....    LDR      r0,[r7,#0xec]
        0x0000d5b0:    0600        ..      LSLS     r0,r0,#24
        0x0000d5b2:    d410        ..      BMI      0xd5d6 ; am_hal_ble_plf_reg_read + 130
        0x0000d5b4:    f24a1421    J.!.    MOV      r4,#0xa121
        0x0000d5b8:    2604        .&      MOVS     r6,#4
        0x0000d5ba:    f2c00407    ....    MOVT     r4,#7
        0x0000d5be:    f6c00600    ....    MOVT     r6,#0x800
        0x0000d5c2:    bf00        ..      NOP      
        0x0000d5c4:    3c01        .<      SUBS     r4,#1
        0x0000d5c6:    d014        ..      BEQ      0xd5f2 ; am_hal_ble_plf_reg_read + 158
        0x0000d5c8:    2010        .       MOVS     r0,#0x10
        0x0000d5ca:    f000fb99    ....    BL       am_hal_flash_delay ; 0xdd00
        0x0000d5ce:    f8d700ec    ....    LDR      r0,[r7,#0xec]
        0x0000d5d2:    0600        ..      LSLS     r0,r0,#24
        0x0000d5d4:    d5f6        ..      BPL      0xd5c4 ; am_hal_ble_plf_reg_read + 112
        0x0000d5d6:    a901        ..      ADD      r1,sp,#4
        0x0000d5d8:    4628        (F      MOV      r0,r5
        0x0000d5da:    2200        ."      MOVS     r2,#0
        0x0000d5dc:    2600        .&      MOVS     r6,#0
        0x0000d5de:    f7feff9a    ....    BL       am_hal_ble_blocking_hci_read ; 0xc516
        0x0000d5e2:    f8dd000b    ....    LDR      r0,[sp,#0xb]
        0x0000d5e6:    f8c80000    ....    STR      r0,[r8,#0]
        0x0000d5ea:    f8c79008    ....    STR      r9,[r7,#8]
        0x0000d5ee:    f8c79000    ....    STR      r9,[r7,#0]
        0x0000d5f2:    4630        0F      MOV      r0,r6
        0x0000d5f4:    b00b        ..      ADD      sp,sp,#0x2c
        0x0000d5f6:    e8bd83f0    ....    POP      {r4-r9,pc}
        0x0000d5fa:    0000        ..      MOVS     r0,r0
    am_hal_ble_plf_reg_write
        0x0000d5fc:    e92d41f0    -..A    PUSH     {r4-r8,lr}
        0x0000d600:    b088        ..      SUB      sp,sp,#0x20
        0x0000d602:    f2403401    @..4    MOV      r4,#0x301
        0x0000d606:    4680        .F      MOV      r8,r0
        0x0000d608:    f24c2620    L. &    MOV      r6,#0xc220
        0x0000d60c:    0a08        ..      LSRS     r0,r1,#8
        0x0000d60e:    0c0b        ..      LSRS     r3,r1,#16
        0x0000d610:    0e0f        ..      LSRS     r7,r1,#24
        0x0000d612:    0a15        ..      LSRS     r5,r2,#8
        0x0000d614:    ea4f4e12    O..N    LSR      lr,r2,#16
        0x0000d618:    ea4f6c12    O..l    LSR      r12,r2,#24
        0x0000d61c:    f6c004fd    ....    MOVT     r4,#0x8fd
        0x0000d620:    f2c50600    ....    MOVT     r6,#0x5000
        0x0000d624:    9405        ..      STR      r4,[sp,#0x14]
        0x0000d626:    f88d1018    ....    STRB     r1,[sp,#0x18]
        0x0000d62a:    f88d0019    ....    STRB     r0,[sp,#0x19]
        0x0000d62e:    f88d301a    ...0    STRB     r3,[sp,#0x1a]
        0x0000d632:    f88d701b    ...p    STRB     r7,[sp,#0x1b]
        0x0000d636:    f88d201c    ...     STRB     r2,[sp,#0x1c]
        0x0000d63a:    f88d501d    ...P    STRB     r5,[sp,#0x1d]
        0x0000d63e:    f88de01e    ....    STRB     lr,[sp,#0x1e]
        0x0000d642:    f88dc01f    ....    STRB     r12,[sp,#0x1f]
        0x0000d646:    2000        .       MOVS     r0,#0
        0x0000d648:    6837        7h      LDR      r7,[r6,#0]
        0x0000d64a:    6030        0`      STR      r0,[r6,#0]
        0x0000d64c:    aa05        ..      ADD      r2,sp,#0x14
        0x0000d64e:    4640        @F      MOV      r0,r8
        0x0000d650:    2100        .!      MOVS     r1,#0
        0x0000d652:    230c        .#      MOVS     r3,#0xc
        0x0000d654:    f7feff9d    ....    BL       am_hal_ble_blocking_hci_write ; 0xc592
        0x0000d658:    f8d601f0    ....    LDR      r0,[r6,#0x1f0]
        0x0000d65c:    f0400002    @...    ORR      r0,r0,#2
        0x0000d660:    f8c601f0    ....    STR      r0,[r6,#0x1f0]
        0x0000d664:    f8d600ec    ....    LDR      r0,[r6,#0xec]
        0x0000d668:    0600        ..      LSLS     r0,r0,#24
        0x0000d66a:    d40e        ..      BMI      0xd68a ; am_hal_ble_plf_reg_write + 142
        0x0000d66c:    2504        .%      MOVS     r5,#4
        0x0000d66e:    f24c3451    L.Q4    MOV      r4,#0xc351
        0x0000d672:    f6c00500    ....    MOVT     r5,#0x800
        0x0000d676:    bf00        ..      NOP      
        0x0000d678:    3c01        .<      SUBS     r4,#1
        0x0000d67a:    d00e        ..      BEQ      0xd69a ; am_hal_ble_plf_reg_write + 158
        0x0000d67c:    2010        .       MOVS     r0,#0x10
        0x0000d67e:    f000fb3f    ..?.    BL       am_hal_flash_delay ; 0xdd00
        0x0000d682:    f8d600ec    ....    LDR      r0,[r6,#0xec]
        0x0000d686:    0600        ..      LSLS     r0,r0,#24
        0x0000d688:    d5f6        ..      BPL      0xd678 ; am_hal_ble_plf_reg_write + 124
        0x0000d68a:    a901        ..      ADD      r1,sp,#4
        0x0000d68c:    4640        @F      MOV      r0,r8
        0x0000d68e:    2200        ."      MOVS     r2,#0
        0x0000d690:    2500        .%      MOVS     r5,#0
        0x0000d692:    f7feff40    ..@.    BL       am_hal_ble_blocking_hci_read ; 0xc516
        0x0000d696:    60b7        .`      STR      r7,[r6,#8]
        0x0000d698:    6037        7`      STR      r7,[r6,#0]
        0x0000d69a:    4628        (F      MOV      r0,r5
        0x0000d69c:    b008        ..      ADD      sp,sp,#0x20
        0x0000d69e:    e8bd81f0    ....    POP      {r4-r8,pc}
        0x0000d6a2:    0000        ..      MOVS     r0,r0
    am_hal_ble_power_control
        0x0000d6a4:    b5f0        ..      PUSH     {r4-r7,lr}
        0x0000d6a6:    b081        ..      SUB      sp,sp,#4
        0x0000d6a8:    b3c0        ..      CBZ      r0,0xd71c ; am_hal_ble_power_control + 120
        0x0000d6aa:    6800        .h      LDR      r0,[r0,#0]
        0x0000d6ac:    f2452230    E.0"    MOV      r2,#0x5230
        0x0000d6b0:    f020407e     .~@    BIC      r0,r0,#0xfe000000
        0x0000d6b4:    f2c01277    ..w.    MOVT     r2,#0x177
        0x0000d6b8:    4290        .B      CMP      r0,r2
        0x0000d6ba:    d12f        /.      BNE      0xd71c ; am_hal_ble_power_control + 120
        0x0000d6bc:    2901        .)      CMP      r1,#1
        0x0000d6be:    d030        0.      BEQ      0xd722 ; am_hal_ble_power_control + 126
        0x0000d6c0:    2900        .)      CMP      r1,#0
        0x0000d6c2:    d15d        ].      BNE      0xd780 ; am_hal_ble_power_control + 220
        0x0000d6c4:    f2410018    A...    MOV      r0,#0x1018
        0x0000d6c8:    f2c40002    ....    MOVT     r0,#0x4002
        0x0000d6cc:    6800        .h      LDR      r0,[r0,#0]
        0x0000d6ce:    05c0        ..      LSLS     r0,r0,#23
        0x0000d6d0:    d45c        \.      BMI      0xd78c ; am_hal_ble_power_control + 232
        0x0000d6d2:    240c        .$      MOVS     r4,#0xc
        0x0000d6d4:    f2c40402    ....    MOVT     r4,#0x4002
        0x0000d6d8:    68e0        .h      LDR      r0,[r4,#0xc]
        0x0000d6da:    f0400001    @...    ORR      r0,r0,#1
        0x0000d6de:    60e0        .`      STR      r0,[r4,#0xc]
        0x0000d6e0:    68e0        .h      LDR      r0,[r4,#0xc]
        0x0000d6e2:    f0000007    ....    AND      r0,r0,#7
        0x0000d6e6:    2807        .(      CMP      r0,#7
        0x0000d6e8:    d00f        ..      BEQ      0xd70a ; am_hal_ble_power_control + 102
        0x0000d6ea:    f24865a1    H..e    MOV      r5,#0x86a1
        0x0000d6ee:    f2c00501    ....    MOVT     r5,#1
        0x0000d6f2:    bf00        ..      NOP      
        0x0000d6f4:    3d01        .=      SUBS     r5,#1
        0x0000d6f6:    f000808d    ....    BEQ.W    0xd814 ; am_hal_ble_power_control + 368
        0x0000d6fa:    2010        .       MOVS     r0,#0x10
        0x0000d6fc:    f000fb00    ....    BL       am_hal_flash_delay ; 0xdd00
        0x0000d700:    68e0        .h      LDR      r0,[r4,#0xc]
        0x0000d702:    f0000007    ....    AND      r0,r0,#7
        0x0000d706:    2807        .(      CMP      r0,#7
        0x0000d708:    d1f4        ..      BNE      0xd6f4 ; am_hal_ble_power_control + 80
        0x0000d70a:    2605        .&      MOVS     r6,#5
        0x0000d70c:    200e        .       MOVS     r0,#0xe
        0x0000d70e:    f6c00600    ....    MOVT     r6,#0x800
        0x0000d712:    f000fea5    ....    BL       am_hal_pwrctrl_periph_enable ; 0xe460
        0x0000d716:    b3d8        ..      CBZ      r0,0xd790 ; am_hal_ble_power_control + 236
        0x0000d718:    1cb0        ..      ADDS     r0,r6,#2
        0x0000d71a:    e000        ..      B        0xd71e ; am_hal_ble_power_control + 122
        0x0000d71c:    2002        .       MOVS     r0,#2
        0x0000d71e:    b001        ..      ADD      sp,sp,#4
        0x0000d720:    bdf0        ..      POP      {r4-r7,pc}
        0x0000d722:    f64f60fc    O..`    MOV      r0,#0xfefc
        0x0000d726:    f24c3104    L..1    MOV      r1,#0xc304
        0x0000d72a:    f6cf70ff    ...p    MOVT     r0,#0xffff
        0x0000d72e:    f2c50100    ....    MOVT     r1,#0x5000
        0x0000d732:    2200        ."      MOVS     r2,#0
        0x0000d734:    500a        .P      STR      r2,[r1,r0]
        0x0000d736:    f8d1010c    ....    LDR      r0,[r1,#0x10c]
        0x0000d73a:    f06f0704    o...    MVN      r7,#4
        0x0000d73e:    f0000007    ....    AND      r0,r0,#7
        0x0000d742:    f8c1010c    ....    STR      r0,[r1,#0x10c]
        0x0000d746:    200c        .       MOVS     r0,#0xc
        0x0000d748:    f2c40002    ....    MOVT     r0,#0x4002
        0x0000d74c:    6802        .h      LDR      r2,[r0,#0]
        0x0000d74e:    f8d0318c    ...1    LDR      r3,[r0,#0x18c]
        0x0000d752:    f00202fe    ....    AND      r2,r2,#0xfe
        0x0000d756:    2a11        .*      CMP      r2,#0x11
        0x0000d758:    bf88        ..      IT       HI
        0x0000d75a:    f06f0720    o. .    MVNHI    r7,#0x20
        0x0000d75e:    ea030207    ....    AND      r2,r3,r7
        0x0000d762:    f8c0218c    ...!    STR      r2,[r0,#0x18c]
        0x0000d766:    6808        .h      LDR      r0,[r1,#0]
        0x0000d768:    f0200001     ...    BIC      r0,r0,#1
        0x0000d76c:    6008        .`      STR      r0,[r1,#0]
        0x0000d76e:    200e        .       MOVS     r0,#0xe
        0x0000d770:    f000fe32    ..2.    BL       am_hal_pwrctrl_periph_disable ; 0xe3d8
        0x0000d774:    b130        0.      CBZ      r0,0xd784 ; am_hal_ble_power_control + 224
        0x0000d776:    2005        .       MOVS     r0,#5
        0x0000d778:    f6c00000    ....    MOVT     r0,#0x800
        0x0000d77c:    3001        .0      ADDS     r0,#1
        0x0000d77e:    e7ce        ..      B        0xd71e ; am_hal_ble_power_control + 122
        0x0000d780:    2007        .       MOVS     r0,#7
        0x0000d782:    e7cc        ..      B        0xd71e ; am_hal_ble_power_control + 122
        0x0000d784:    f44f60c8    O..`    MOV      r0,#0x640
        0x0000d788:    f000faba    ....    BL       am_hal_flash_delay ; 0xdd00
        0x0000d78c:    2000        .       MOVS     r0,#0
        0x0000d78e:    e7c6        ..      B        0xd71e ; am_hal_ble_power_control + 122
        0x0000d790:    f24c3504    L..5    MOV      r5,#0xc304
        0x0000d794:    f64f60fc    O..`    MOV      r0,#0xfefc
        0x0000d798:    f2c50500    ....    MOVT     r5,#0x5000
        0x0000d79c:    f6cf70ff    ...p    MOVT     r0,#0xffff
        0x0000d7a0:    f44f6100    O..a    MOV      r1,#0x800
        0x0000d7a4:    5029        )P      STR      r1,[r5,r0]
        0x0000d7a6:    f8d5010c    ....    LDR      r0,[r5,#0x10c]
        0x0000d7aa:    f44f4180    O..A    MOV      r1,#0x4000
        0x0000d7ae:    f36100df    a...    BFI      r0,r1,#3,#29
        0x0000d7b2:    f8c5010c    ....    STR      r0,[r5,#0x10c]
        0x0000d7b6:    6820         h      LDR      r0,[r4,#0]
        0x0000d7b8:    f00000fe    ....    AND      r0,r0,#0xfe
        0x0000d7bc:    2812        .(      CMP      r0,#0x12
        0x0000d7be:    bf26        &.      ITTE     CS
        0x0000d7c0:    f8d4018c    ....    LDRCS    r0,[r4,#0x18c]
        0x0000d7c4:    f0400020    @. .    ORRCS    r0,r0,#0x20
        0x0000d7c8:    2004        .       MOVCC    r0,#4
        0x0000d7ca:    f8c4018c    ....    STR      r0,[r4,#0x18c]
        0x0000d7ce:    f6430080    C...    MOVW     r0,#0x3880
        0x0000d7d2:    f2c00001    ....    MOVT     r0,#1
        0x0000d7d6:    f000fa93    ....    BL       am_hal_flash_delay ; 0xdd00
        0x0000d7da:    6828        (h      LDR      r0,[r5,#0]
        0x0000d7dc:    f0400001    @...    ORR      r0,r0,#1
        0x0000d7e0:    6028        (`      STR      r0,[r5,#0]
        0x0000d7e2:    68a8        .h      LDR      r0,[r5,#8]
        0x0000d7e4:    f40060e0    ...`    AND      r0,r0,#0x700
        0x0000d7e8:    f5b07f40    ..@.    CMP      r0,#0x300
        0x0000d7ec:    d0ce        ..      BEQ      0xd78c ; am_hal_ble_power_control + 232
        0x0000d7ee:    f2442741    D.A'    MOV      r7,#0x4241
        0x0000d7f2:    f2c0070f    ....    MOVT     r7,#0xf
        0x0000d7f6:    1cf4        ..      ADDS     r4,r6,#3
        0x0000d7f8:    3f01        .?      SUBS     r7,#1
        0x0000d7fa:    d00f        ..      BEQ      0xd81c ; am_hal_ble_power_control + 376
        0x0000d7fc:    2010        .       MOVS     r0,#0x10
        0x0000d7fe:    f000fa7f    ....    BL       am_hal_flash_delay ; 0xdd00
        0x0000d802:    68a8        .h      LDR      r0,[r5,#8]
        0x0000d804:    f40060e0    ...`    AND      r0,r0,#0x700
        0x0000d808:    f5b07f40    ..@.    CMP      r0,#0x300
        0x0000d80c:    f04f0000    O...    MOV      r0,#0
        0x0000d810:    d1f2        ..      BNE      0xd7f8 ; am_hal_ble_power_control + 340
        0x0000d812:    e784        ..      B        0xd71e ; am_hal_ble_power_control + 122
        0x0000d814:    2005        .       MOVS     r0,#5
        0x0000d816:    f6c00000    ....    MOVT     r0,#0x800
        0x0000d81a:    e780        ..      B        0xd71e ; am_hal_ble_power_control + 122
        0x0000d81c:    4620         F      MOV      r0,r4
        0x0000d81e:    e77e        ~.      B        0xd71e ; am_hal_ble_power_control + 122
    am_hal_ble_sleep_set
        0x0000d820:    b5f0        ..      PUSH     {r4-r7,lr}
        0x0000d822:    b081        ..      SUB      sp,sp,#4
        0x0000d824:    460c        .F      MOV      r4,r1
        0x0000d826:    2100        .!      MOVS     r1,#0
        0x0000d828:    270c        .'      MOVS     r7,#0xc
        0x0000d82a:    9100        ..      STR      r1,[sp,#0]
        0x0000d82c:    f2c40702    ....    MOVT     r7,#0x4002
        0x0000d830:    6839        9h      LDR      r1,[r7,#0]
        0x0000d832:    f24676c4    F..v    MOV      r6,#0x67c4
        0x0000d836:    4605        .F      MOV      r5,r0
        0x0000d838:    b2c8        ..      UXTB     r0,r1
        0x0000d83a:    f2c20600    ....    MOVT     r6,#0x2000
        0x0000d83e:    2821        !(      CMP      r0,#0x21
        0x0000d840:    4631        1F      MOV      r1,r6
        0x0000d842:    466a        jF      MOV      r2,sp
        0x0000d844:    4628        (F      MOV      r0,r5
        0x0000d846:    bf04        ..      ITT      EQ
        0x0000d848:    f6466118    F..a    MOVEQ    r1,#0x6e18
        0x0000d84c:    f2c20100    ....    MOVTEQ   r1,#0x2000
        0x0000d850:    f7fffe80    ....    BL       am_hal_ble_plf_reg_read ; 0xd554
        0x0000d854:    9800        ..      LDR      r0,[sp,#0]
        0x0000d856:    f64f61ff    O..a    MOV      r1,#0xfeff
        0x0000d85a:    ea200201     ...    BIC      r2,r0,r1
        0x0000d85e:    6839        9h      LDR      r1,[r7,#0]
        0x0000d860:    f2401001    @...    MOV      r0,#0x101
        0x0000d864:    2c00        .,      CMP      r4,#0
        0x0000d866:    bf18        ..      IT       NE
        0x0000d868:    4302        .C      ORRNE    r2,r2,r0
        0x0000d86a:    b2c8        ..      UXTB     r0,r1
        0x0000d86c:    2821        !(      CMP      r0,#0x21
        0x0000d86e:    bf04        ..      ITT      EQ
        0x0000d870:    f6466618    F..f    MOVEQ    r6,#0x6e18
        0x0000d874:    f2c20600    ....    MOVTEQ   r6,#0x2000
        0x0000d878:    4628        (F      MOV      r0,r5
        0x0000d87a:    4631        1F      MOV      r1,r6
        0x0000d87c:    f7fffebe    ....    BL       am_hal_ble_plf_reg_write ; 0xd5fc
        0x0000d880:    2000        .       MOVS     r0,#0
        0x0000d882:    b001        ..      ADD      sp,sp,#4
        0x0000d884:    bdf0        ..      POP      {r4-r7,pc}
    am_hal_ble_transmitter_modex_set
        0x0000d886:    e92d43f0    -..C    PUSH     {r4-r9,lr}
        0x0000d88a:    b085        ..      SUB      sp,sp,#0x14
        0x0000d88c:    f2400804    @...    MOVW     r8,#4
        0x0000d890:    4604        .F      MOV      r4,r0
        0x0000d892:    2000        .       MOVS     r0,#0
        0x0000d894:    f2c43800    ...8    MOVT     r8,#0x4300
        0x0000d898:    4689        .F      MOV      r9,r1
        0x0000d89a:    9001        ..      STR      r0,[sp,#4]
        0x0000d89c:    aa04        ..      ADD      r2,sp,#0x10
        0x0000d89e:    4620         F      MOV      r0,r4
        0x0000d8a0:    4641        AF      MOV      r1,r8
        0x0000d8a2:    f7fffe57    ..W.    BL       am_hal_ble_plf_reg_read ; 0xd554
        0x0000d8a6:    4620         F      MOV      r0,r4
        0x0000d8a8:    4641        AF      MOV      r1,r8
        0x0000d8aa:    f04f32ff    O..2    MOV      r2,#0xffffffff
        0x0000d8ae:    f7fffea5    ....    BL       am_hal_ble_plf_reg_write ; 0xd5fc
        0x0000d8b2:    2708        .'      MOVS     r7,#8
        0x0000d8b4:    f2c52700    ...'    MOVT     r7,#0x5200
        0x0000d8b8:    aa01        ..      ADD      r2,sp,#4
        0x0000d8ba:    4620         F      MOV      r0,r4
        0x0000d8bc:    4639        9F      MOV      r1,r7
        0x0000d8be:    f7fffe49    ..I.    BL       am_hal_ble_plf_reg_read ; 0xd554
        0x0000d8c2:    9801        ..      LDR      r0,[sp,#4]
        0x0000d8c4:    aa02        ..      ADD      r2,sp,#8
        0x0000d8c6:    f0400508    @...    ORR      r5,r0,#8
        0x0000d8ca:    4620         F      MOV      r0,r4
        0x0000d8cc:    f04f41a4    O..A    MOV      r1,#0x52000000
        0x0000d8d0:    f7fffe40    ..@.    BL       am_hal_ble_plf_reg_read ; 0xd554
        0x0000d8d4:    9802        ..      LDR      r0,[sp,#8]
        0x0000d8d6:    f04f41a4    O..A    MOV      r1,#0x52000000
        0x0000d8da:    f4406280    @..b    ORR      r2,r0,#0x400
        0x0000d8de:    4620         F      MOV      r0,r4
        0x0000d8e0:    f7fffe8c    ....    BL       am_hal_ble_plf_reg_write ; 0xd5fc
        0x0000d8e4:    2670        p&      MOVS     r6,#0x70
        0x0000d8e6:    f2c45680    ...V    MOVT     r6,#0x4580
        0x0000d8ea:    aa03        ..      ADD      r2,sp,#0xc
        0x0000d8ec:    4620         F      MOV      r0,r4
        0x0000d8ee:    4631        1F      MOV      r1,r6
        0x0000d8f0:    f7fffe30    ..0.    BL       am_hal_ble_plf_reg_read ; 0xd554
        0x0000d8f4:    9803        ..      LDR      r0,[sp,#0xc]
        0x0000d8f6:    4631        1F      MOV      r1,r6
        0x0000d8f8:    f0400208    @...    ORR      r2,r0,#8
        0x0000d8fc:    4620         F      MOV      r0,r4
        0x0000d8fe:    f7fffe7d    ..}.    BL       am_hal_ble_plf_reg_write ; 0xd5fc
        0x0000d902:    f009067f    ....    AND      r6,r9,#0x7f
        0x0000d906:    0070        p.      LSLS     r0,r6,#1
        0x0000d908:    1c42        B.      ADDS     r2,r0,#1
        0x0000d90a:    f107010c    ....    ADD      r1,r7,#0xc
        0x0000d90e:    4620         F      MOV      r0,r4
        0x0000d910:    f7fffe74    ..t.    BL       am_hal_ble_plf_reg_write ; 0xd5fc
        0x0000d914:    4620         F      MOV      r0,r4
        0x0000d916:    4639        9F      MOV      r1,r7
        0x0000d918:    462a        *F      MOV      r2,r5
        0x0000d91a:    f7fffe6f    ..o.    BL       am_hal_ble_plf_reg_write ; 0xd5fc
        0x0000d91e:    200c        .       MOVS     r0,#0xc
        0x0000d920:    f2c40002    ....    MOVT     r0,#0x4002
        0x0000d924:    6800        .h      LDR      r0,[r0,#0]
        0x0000d926:    f2460170    F.p.    MOV      r1,#0x6070
        0x0000d92a:    b2c0        ..      UXTB     r0,r0
        0x0000d92c:    f2c20100    ....    MOVT     r1,#0x2000
        0x0000d930:    2821        !(      CMP      r0,#0x21
        0x0000d932:    4620         F      MOV      r0,r4
        0x0000d934:    4632        2F      MOV      r2,r6
        0x0000d936:    bf04        ..      ITT      EQ
        0x0000d938:    f6460174    F.t.    MOVEQ    r1,#0x6874
        0x0000d93c:    f2c20100    ....    MOVTEQ   r1,#0x2000
        0x0000d940:    f7fffe5c    ..\.    BL       am_hal_ble_plf_reg_write ; 0xd5fc
        0x0000d944:    9a04        ..      LDR      r2,[sp,#0x10]
        0x0000d946:    4620         F      MOV      r0,r4
        0x0000d948:    4641        AF      MOV      r1,r8
        0x0000d94a:    f7fffe57    ..W.    BL       am_hal_ble_plf_reg_write ; 0xd5fc
        0x0000d94e:    2000        .       MOVS     r0,#0
        0x0000d950:    b005        ..      ADD      sp,sp,#0x14
        0x0000d952:    e8bd83f0    ....    POP      {r4-r9,pc}
    am_hal_ble_tx_power_set
        0x0000d956:    e92d41f0    -..A    PUSH     {r4-r8,lr}
        0x0000d95a:    b082        ..      SUB      sp,sp,#8
        0x0000d95c:    2704        .'      MOVS     r7,#4
        0x0000d95e:    4604        .F      MOV      r4,r0
        0x0000d960:    2000        .       MOVS     r0,#0
        0x0000d962:    2608        .&      MOVS     r6,#8
        0x0000d964:    f2c43700    ...7    MOVT     r7,#0x4300
        0x0000d968:    460d        .F      MOV      r5,r1
        0x0000d96a:    9000        ..      STR      r0,[sp,#0]
        0x0000d96c:    f3614613    a..F    BFI      r6,r1,#16,#4
        0x0000d970:    aa01        ..      ADD      r2,sp,#4
        0x0000d972:    4620         F      MOV      r0,r4
        0x0000d974:    4639        9F      MOV      r1,r7
        0x0000d976:    f7fffded    ....    BL       am_hal_ble_plf_reg_read ; 0xd554
        0x0000d97a:    4620         F      MOV      r0,r4
        0x0000d97c:    4639        9F      MOV      r1,r7
        0x0000d97e:    f04f32ff    O..2    MOV      r2,#0xffffffff
        0x0000d982:    f7fffe3b    ..;.    BL       am_hal_ble_plf_reg_write ; 0xd5fc
        0x0000d986:    2118        .!      MOVS     r1,#0x18
        0x0000d988:    f2c52140    ..@!    MOVT     r1,#0x5240
        0x0000d98c:    4620         F      MOV      r0,r4
        0x0000d98e:    4632        2F      MOV      r2,r6
        0x0000d990:    f7fffe34    ..4.    BL       am_hal_ble_plf_reg_write ; 0xd5fc
        0x0000d994:    9a01        ..      LDR      r2,[sp,#4]
        0x0000d996:    4620         F      MOV      r0,r4
        0x0000d998:    4639        9F      MOV      r1,r7
        0x0000d99a:    f7fffe2f    ../.    BL       am_hal_ble_plf_reg_write ; 0xd5fc
        0x0000d99e:    f240080c    @...    MOVW     r8,#0xc
        0x0000d9a2:    f2c40802    ....    MOVT     r8,#0x4002
        0x0000d9a6:    f8d80000    ....    LDR      r0,[r8,#0]
        0x0000d9aa:    f2460638    F.8.    MOV      r6,#0x6038
        0x0000d9ae:    b2c0        ..      UXTB     r0,r0
        0x0000d9b0:    f2c20600    ....    MOVT     r6,#0x2000
        0x0000d9b4:    2821        !(      CMP      r0,#0x21
        0x0000d9b6:    4631        1F      MOV      r1,r6
        0x0000d9b8:    466a        jF      MOV      r2,sp
        0x0000d9ba:    4620         F      MOV      r0,r4
        0x0000d9bc:    f5066700    ...g    ADD      r7,r6,#0x800
        0x0000d9c0:    bf08        ..      IT       EQ
        0x0000d9c2:    4639        9F      MOVEQ    r1,r7
        0x0000d9c4:    f7fffdc6    ....    BL       am_hal_ble_plf_reg_read ; 0xd554
        0x0000d9c8:    9800        ..      LDR      r0,[sp,#0]
        0x0000d9ca:    f8d81000    ....    LDR      r1,[r8,#0]
        0x0000d9ce:    f02000ff     ...    BIC      r0,r0,#0xff
        0x0000d9d2:    1942        B.      ADDS     r2,r0,r5
        0x0000d9d4:    b2c8        ..      UXTB     r0,r1
        0x0000d9d6:    2821        !(      CMP      r0,#0x21
        0x0000d9d8:    bf08        ..      IT       EQ
        0x0000d9da:    463e        >F      MOVEQ    r6,r7
        0x0000d9dc:    4620         F      MOV      r0,r4
        0x0000d9de:    4631        1F      MOV      r1,r6
        0x0000d9e0:    f7fffe0c    ....    BL       am_hal_ble_plf_reg_write ; 0xd5fc
        0x0000d9e4:    2000        .       MOVS     r0,#0
        0x0000d9e6:    b002        ..      ADD      sp,sp,#8
        0x0000d9e8:    e8bd81f0    ....    POP      {r4-r8,pc}
    am_hal_ble_wakeup_set
        0x0000d9ec:    b190        ..      CBZ      r0,0xda14 ; am_hal_ble_wakeup_set + 40
        0x0000d9ee:    6800        .h      LDR      r0,[r0,#0]
        0x0000d9f0:    f2452230    E.0"    MOV      r2,#0x5230
        0x0000d9f4:    f020407e     .~@    BIC      r0,r0,#0xfe000000
        0x0000d9f8:    f2c01277    ..w.    MOVT     r2,#0x177
        0x0000d9fc:    4290        .B      CMP      r0,r2
        0x0000d9fe:    d109        ..      BNE      0xda14 ; am_hal_ble_wakeup_set + 40
        0x0000da00:    f24c3004    L..0    MOV      r0,#0xc304
        0x0000da04:    f2c50000    ....    MOVT     r0,#0x5000
        0x0000da08:    6802        .h      LDR      r2,[r0,#0]
        0x0000da0a:    b129        ).      CBZ      r1,0xda18 ; am_hal_ble_wakeup_set + 44
        0x0000da0c:    f042010c    B...    ORR      r1,r2,#0xc
        0x0000da10:    6001        .`      STR      r1,[r0,#0]
        0x0000da12:    e005        ..      B        0xda20 ; am_hal_ble_wakeup_set + 52
        0x0000da14:    2002        .       MOVS     r0,#2
        0x0000da16:    4770        pG      BX       lr
        0x0000da18:    2102        .!      MOVS     r1,#2
        0x0000da1a:    f3610283    a...    BFI      r2,r1,#2,#2
        0x0000da1e:    6002        .`      STR      r2,[r0,#0]
        0x0000da20:    2000        .       MOVS     r0,#0
        0x0000da22:    4770        pG      BX       lr
    am_hal_cachectrl_control
        0x0000da24:    b510        ..      PUSH     {r4,lr}
        0x0000da26:    b082        ..      SUB      sp,sp,#8
        0x0000da28:    1e42        B.      SUBS     r2,r0,#1
        0x0000da2a:    2a10        .*      CMP      r2,#0x10
        0x0000da2c:    f200807e    ..~.    BHI.W    0xdb2c ; am_hal_cachectrl_control + 264
        0x0000da30:    2001        .       MOVS     r0,#1
        0x0000da32:    e8dff002    ....    TBB      [pc,r2]
    $d.4
        0x0000da36:    097e        ~.      DCW    2430
        0x0000da38:    1a181512    ....    DCD    437785874
        0x0000da3c:    2f221f1c    .."/    DCD    790765340
        0x0000da40:    604f483e    >HO`    DCD    1615808574
        0x0000da44:    00716a65    ejq.    DCD    7432805
    $t.5
        0x0000da48:    f2480000    H...    MOVW     r0,#0x8000
        0x0000da4c:    f2c40001    ....    MOVT     r0,#0x4001
        0x0000da50:    6800        .h      LDR      r0,[r0,#0]
        0x0000da52:    01c0        ..      LSLS     r0,r0,#7
        0x0000da54:    d46c        l.      BMI      0xdb30 ; am_hal_cachectrl_control + 268
        0x0000da56:    2407        .$      MOVS     r4,#7
        0x0000da58:    e071        q.      B        0xdb3e ; am_hal_cachectrl_control + 282
        0x0000da5a:    f44f6088    O..`    MOV      r0,#0x440
        0x0000da5e:    e068        h.      B        0xdb32 ; am_hal_cachectrl_control + 270
        0x0000da60:    f44f7008    O..p    MOV      r0,#0x220
        0x0000da64:    e065        e.      B        0xdb32 ; am_hal_cachectrl_control + 270
        0x0000da66:    2040        @       MOVS     r0,#0x40
        0x0000da68:    e063        c.      B        0xdb32 ; am_hal_cachectrl_control + 270
        0x0000da6a:    2020                MOVS     r0,#0x20
        0x0000da6c:    e061        a.      B        0xdb32 ; am_hal_cachectrl_control + 270
        0x0000da6e:    f44f6080    O..`    MOV      r0,#0x400
        0x0000da72:    e05e        ^.      B        0xdb32 ; am_hal_cachectrl_control + 270
        0x0000da74:    f44f7000    O..p    MOV      r0,#0x200
        0x0000da78:    e05b        [.      B        0xdb32 ; am_hal_cachectrl_control + 270
        0x0000da7a:    f000fb1d    ....    BL       am_hal_interrupt_master_disable ; 0xe0b8
        0x0000da7e:    9001        ..      STR      r0,[sp,#4]
        0x0000da80:    f2480000    H...    MOVW     r0,#0x8000
        0x0000da84:    f2c40001    ....    MOVT     r0,#0x4001
        0x0000da88:    6801        .h      LDR      r1,[r0,#0]
        0x0000da8a:    f0417180    A..q    ORR      r1,r1,#0x1000000
        0x0000da8e:    6001        .`      STR      r1,[r0,#0]
        0x0000da90:    9801        ..      LDR      r0,[sp,#4]
        0x0000da92:    e00b        ..      B        0xdaac ; am_hal_cachectrl_control + 136
        0x0000da94:    f000fb10    ....    BL       am_hal_interrupt_master_disable ; 0xe0b8
        0x0000da98:    9000        ..      STR      r0,[sp,#0]
        0x0000da9a:    f2480000    H...    MOVW     r0,#0x8000
        0x0000da9e:    f2c40001    ....    MOVT     r0,#0x4001
        0x0000daa2:    6801        .h      LDR      r1,[r0,#0]
        0x0000daa4:    f0217180    !..q    BIC      r1,r1,#0x1000000
        0x0000daa8:    6001        .`      STR      r1,[r0,#0]
        0x0000daaa:    9800        ..      LDR      r0,[sp,#0]
        0x0000daac:    f000fb0c    ....    BL       am_hal_interrupt_master_set ; 0xe0c8
        0x0000dab0:    e044        D.      B        0xdb3c ; am_hal_cachectrl_control + 280
        0x0000dab2:    2000        .       MOVS     r0,#0
        0x0000dab4:    f002fe56    ..V.    BL       set_LPMMODE ; 0x10764
        0x0000dab8:    b360        `.      CBZ      r0,0xdb14 ; am_hal_cachectrl_control + 240
        0x0000daba:    2007        .       MOVS     r0,#7
        0x0000dabc:    f002fe94    ....    BL       set_SEDELAY ; 0x107e8
        0x0000dac0:    b340        @.      CBZ      r0,0xdb14 ; am_hal_cachectrl_control + 240
        0x0000dac2:    2003        .       MOVS     r0,#3
        0x0000dac4:    e023        #.      B        0xdb0e ; am_hal_cachectrl_control + 234
        0x0000dac6:    2001        .       MOVS     r0,#1
        0x0000dac8:    2401        .$      MOVS     r4,#1
        0x0000daca:    f002fe4b    ..K.    BL       set_LPMMODE ; 0x10764
        0x0000dace:    b3b0        ..      CBZ      r0,0xdb3e ; am_hal_cachectrl_control + 282
        0x0000dad0:    2005        .       MOVS     r0,#5
        0x0000dad2:    e005        ..      B        0xdae0 ; am_hal_cachectrl_control + 188
        0x0000dad4:    2001        .       MOVS     r0,#1
        0x0000dad6:    2401        .$      MOVS     r4,#1
        0x0000dad8:    f002fe44    ..D.    BL       set_LPMMODE ; 0x10764
        0x0000dadc:    b378        x.      CBZ      r0,0xdb3e ; am_hal_cachectrl_control + 282
        0x0000dade:    2006        .       MOVS     r0,#6
        0x0000dae0:    f002fe82    ....    BL       set_SEDELAY ; 0x107e8
        0x0000dae4:    b1b0        ..      CBZ      r0,0xdb14 ; am_hal_cachectrl_control + 240
        0x0000dae6:    2001        .       MOVS     r0,#1
        0x0000dae8:    2401        .$      MOVS     r4,#1
        0x0000daea:    f002fe5c    ..\.    BL       set_RDWAIT ; 0x107a6
        0x0000daee:    2800        .(      CMP      r0,#0
        0x0000daf0:    bf18        ..      IT       NE
        0x0000daf2:    2400        .$      MOVNE    r4,#0
        0x0000daf4:    e023        #.      B        0xdb3e ; am_hal_cachectrl_control + 282
        0x0000daf6:    b1c9        ..      CBZ      r1,0xdb2c ; am_hal_cachectrl_control + 264
        0x0000daf8:    6808        .h      LDR      r0,[r1,#0]
        0x0000dafa:    f002fe33    ..3.    BL       set_LPMMODE ; 0x10764
        0x0000dafe:    e008        ..      B        0xdb12 ; am_hal_cachectrl_control + 238
        0x0000db00:    b1a1        ..      CBZ      r1,0xdb2c ; am_hal_cachectrl_control + 264
        0x0000db02:    6808        .h      LDR      r0,[r1,#0]
        0x0000db04:    f002fe70    ..p.    BL       set_SEDELAY ; 0x107e8
        0x0000db08:    e003        ..      B        0xdb12 ; am_hal_cachectrl_control + 238
        0x0000db0a:    b179        y.      CBZ      r1,0xdb2c ; am_hal_cachectrl_control + 264
        0x0000db0c:    6808        .h      LDR      r0,[r1,#0]
        0x0000db0e:    f002fe4a    ..J.    BL       set_RDWAIT ; 0x107a6
        0x0000db12:    b998        ..      CBNZ     r0,0xdb3c ; am_hal_cachectrl_control + 280
        0x0000db14:    2401        .$      MOVS     r4,#1
        0x0000db16:    e012        ..      B        0xdb3e ; am_hal_cachectrl_control + 282
        0x0000db18:    b141        A.      CBZ      r1,0xdb2c ; am_hal_cachectrl_control + 264
        0x0000db1a:    6848        Hh      LDR      r0,[r1,#4]
        0x0000db1c:    220f        ."      MOVS     r2,#0xf
        0x0000db1e:    f6cf0200    ....    MOVT     r2,#0xf800
        0x0000db22:    4210        .B      TST      r0,r2
        0x0000db24:    d102        ..      BNE      0xdb2c ; am_hal_cachectrl_control + 264
        0x0000db26:    688b        .h      LDR      r3,[r1,#8]
        0x0000db28:    4213        .B      TST      r3,r2
        0x0000db2a:    d00b        ..      BEQ      0xdb44 ; am_hal_cachectrl_control + 288
        0x0000db2c:    2406        .$      MOVS     r4,#6
        0x0000db2e:    e006        ..      B        0xdb3e ; am_hal_cachectrl_control + 282
        0x0000db30:    2002        .       MOVS     r0,#2
        0x0000db32:    f2480100    H...    MOVW     r1,#0x8000
        0x0000db36:    f2c40101    ....    MOVT     r1,#0x4001
        0x0000db3a:    6088        .`      STR      r0,[r1,#8]
        0x0000db3c:    2400        .$      MOVS     r4,#0
        0x0000db3e:    4620         F      MOV      r0,r4
        0x0000db40:    b002        ..      ADD      sp,sp,#8
        0x0000db42:    bd10        ..      POP      {r4,pc}
        0x0000db44:    780a        .x      LDRB     r2,[r1,#0]
        0x0000db46:    2a01        .*      CMP      r2,#1
        0x0000db48:    d011        ..      BEQ      0xdb6e ; am_hal_cachectrl_control + 330
        0x0000db4a:    2a00        .*      CMP      r2,#0
        0x0000db4c:    d1ee        ..      BNE      0xdb2c ; am_hal_cachectrl_control + 264
        0x0000db4e:    f2480200    H...    MOVW     r2,#0x8000
        0x0000db52:    f2c40201    ....    MOVT     r2,#0x4001
        0x0000db56:    6110        .a      STR      r0,[r2,#0x10]
        0x0000db58:    6888        .h      LDR      r0,[r1,#8]
        0x0000db5a:    6150        Pa      STR      r0,[r2,#0x14]
        0x0000db5c:    7848        Hx      LDRB     r0,[r1,#1]
        0x0000db5e:    6811        .h      LDR      r1,[r2,#0]
        0x0000db60:    f000003f    ..?.    AND      r0,r0,#0x3f
        0x0000db64:    f0210104    !...    BIC      r1,r1,#4
        0x0000db68:    ea410080    A...    ORR      r0,r1,r0,LSL #2
        0x0000db6c:    e00e        ..      B        0xdb8c ; am_hal_cachectrl_control + 360
        0x0000db6e:    f2480200    H...    MOVW     r2,#0x8000
        0x0000db72:    f2c40201    ....    MOVT     r2,#0x4001
        0x0000db76:    6190        .a      STR      r0,[r2,#0x18]
        0x0000db78:    6888        .h      LDR      r0,[r1,#8]
        0x0000db7a:    61d0        .a      STR      r0,[r2,#0x1c]
        0x0000db7c:    7848        Hx      LDRB     r0,[r1,#1]
        0x0000db7e:    6811        .h      LDR      r1,[r2,#0]
        0x0000db80:    f000001f    ....    AND      r0,r0,#0x1f
        0x0000db84:    f0210108    !...    BIC      r1,r1,#8
        0x0000db88:    ea4100c0    A...    ORR      r0,r1,r0,LSL #3
        0x0000db8c:    6010        .`      STR      r0,[r2,#0]
        0x0000db8e:    e7d5        ..      B        0xdb3c ; am_hal_cachectrl_control + 280
    am_hal_clkgen_control
        0x0000db90:    b510        ..      PUSH     {r4,lr}
        0x0000db92:    f24262dc    B..b    MOV      r2,#0x26dc
        0x0000db96:    f2c10200    ....    MOVT     r2,#0x1000
        0x0000db9a:    6813        .h      LDR      r3,[r2,#0]
        0x0000db9c:    460c        .F      MOV      r4,r1
        0x0000db9e:    b92b        +.      CBNZ     r3,0xdbac ; am_hal_clkgen_control + 28
        0x0000dba0:    f24f0100    O...    MOVW     r1,#0xf000
        0x0000dba4:    f6c471ff    ...q    MOVT     r1,#0x4fff
        0x0000dba8:    6809        .h      LDR      r1,[r1,#0]
        0x0000dbaa:    6011        .`      STR      r1,[r2,#0]
        0x0000dbac:    2809        .(      CMP      r0,#9
        0x0000dbae:    d80f        ..      BHI      0xdbd0 ; am_hal_clkgen_control + 64
        0x0000dbb0:    e8dff000    ....    TBB      [pc,r0]
    $d.1
        0x0000dbb4:    20181005    ...     DCD    538447877
        0x0000dbb8:    544c4139    9ALT    DCD    1414283577
        0x0000dbbc:    775e        ^w      DCW    30558
    $t.2
        0x0000dbbe:    f244010c    D...    MOV      r1,#0x400c
        0x0000dbc2:    f2c40100    ....    MOVT     r1,#0x4000
        0x0000dbc6:    2047        G       MOVS     r0,#0x47
        0x0000dbc8:    6088        .`      STR      r0,[r1,#8]
        0x0000dbca:    2000        .       MOVS     r0,#0
        0x0000dbcc:    60c8        .`      STR      r0,[r1,#0xc]
        0x0000dbce:    e03b        ;.      B        0xdc48 ; am_hal_clkgen_control + 184
        0x0000dbd0:    2006        .       MOVS     r0,#6
        0x0000dbd2:    bd10        ..      POP      {r4,pc}
        0x0000dbd4:    f244000c    D...    MOV      r0,#0x400c
        0x0000dbd8:    f2c40000    ....    MOVT     r0,#0x4000
        0x0000dbdc:    6801        .h      LDR      r1,[r0,#0]
        0x0000dbde:    f0210101    !...    BIC      r1,r1,#1
        0x0000dbe2:    e042        B.      B        0xdc6a ; am_hal_clkgen_control + 218
        0x0000dbe4:    f244000c    D...    MOV      r0,#0x400c
        0x0000dbe8:    f2c40000    ....    MOVT     r0,#0x4000
        0x0000dbec:    6801        .h      LDR      r1,[r0,#0]
        0x0000dbee:    f0210102    !...    BIC      r1,r1,#2
        0x0000dbf2:    e03a        :.      B        0xdc6a ; am_hal_clkgen_control + 218
        0x0000dbf4:    f2401020    @. .    MOVW     r0,#0x120
        0x0000dbf8:    f64f61ec    O..a    MOV      r1,#0xfeec
        0x0000dbfc:    f2c40002    ....    MOVT     r0,#0x4002
        0x0000dc00:    f6cf71ff    ...q    MOVT     r1,#0xffff
        0x0000dc04:    5841        AX      LDR      r1,[r0,r1]
        0x0000dc06:    b2c9        ..      UXTB     r1,r1
        0x0000dc08:    2921        !)      CMP      r1,#0x21
        0x0000dc0a:    d104        ..      BNE      0xdc16 ; am_hal_clkgen_control + 134
        0x0000dc0c:    6801        .h      LDR      r1,[r0,#0]
        0x0000dc0e:    2201        ."      MOVS     r2,#1
        0x0000dc10:    f3622109    b..!    BFI      r1,r2,#8,#2
        0x0000dc14:    6001        .`      STR      r1,[r0,#0]
        0x0000dc16:    f244000c    D...    MOV      r0,#0x400c
        0x0000dc1a:    f2c40000    ....    MOVT     r0,#0x4000
        0x0000dc1e:    6801        .h      LDR      r1,[r0,#0]
        0x0000dc20:    f0410101    A...    ORR      r1,r1,#1
        0x0000dc24:    e021        !.      B        0xdc6a ; am_hal_clkgen_control + 218
        0x0000dc26:    f244000c    D...    MOV      r0,#0x400c
        0x0000dc2a:    f2c40000    ....    MOVT     r0,#0x4000
        0x0000dc2e:    6801        .h      LDR      r1,[r0,#0]
        0x0000dc30:    f0410102    A...    ORR      r1,r1,#2
        0x0000dc34:    e019        ..      B        0xdc6a ; am_hal_clkgen_control + 218
        0x0000dc36:    f244010c    D...    MOV      r1,#0x400c
        0x0000dc3a:    f2c40100    ....    MOVT     r1,#0x4000
        0x0000dc3e:    2047        G       MOVS     r0,#0x47
        0x0000dc40:    6088        .`      STR      r0,[r1,#8]
        0x0000dc42:    2001        .       MOVS     r0,#1
        0x0000dc44:    60c8        .`      STR      r0,[r1,#0xc]
        0x0000dc46:    2000        .       MOVS     r0,#0
        0x0000dc48:    6088        .`      STR      r0,[r1,#8]
        0x0000dc4a:    bd10        ..      POP      {r4,pc}
        0x0000dc4c:    f244000c    D...    MOV      r0,#0x400c
        0x0000dc50:    f2c40000    ....    MOVT     r0,#0x4000
        0x0000dc54:    6801        .h      LDR      r1,[r0,#0]
        0x0000dc56:    f0210180    !...    BIC      r1,r1,#0x80
        0x0000dc5a:    e006        ..      B        0xdc6a ; am_hal_clkgen_control + 218
        0x0000dc5c:    f244000c    D...    MOV      r0,#0x400c
        0x0000dc60:    f2c40000    ....    MOVT     r0,#0x4000
        0x0000dc64:    6801        .h      LDR      r1,[r0,#0]
        0x0000dc66:    f0410180    A...    ORR      r1,r1,#0x80
        0x0000dc6a:    6001        .`      STR      r1,[r0,#0]
        0x0000dc6c:    2000        .       MOVS     r0,#0
        0x0000dc6e:    bd10        ..      POP      {r4,pc}
        0x0000dc70:    f2401020    @. .    MOVW     r0,#0x120
        0x0000dc74:    f64f61ec    O..a    MOV      r1,#0xfeec
        0x0000dc78:    f2c40002    ....    MOVT     r0,#0x4002
        0x0000dc7c:    f6cf71ff    ...q    MOVT     r1,#0xffff
        0x0000dc80:    5841        AX      LDR      r1,[r0,r1]
        0x0000dc82:    b2c9        ..      UXTB     r1,r1
        0x0000dc84:    2921        !)      CMP      r1,#0x21
        0x0000dc86:    d107        ..      BNE      0xdc98 ; am_hal_clkgen_control + 264
        0x0000dc88:    6801        .h      LDR      r1,[r0,#0]
        0x0000dc8a:    f4417140    A.@q    ORR      r1,r1,#0x300
        0x0000dc8e:    6001        .`      STR      r1,[r0,#0]
        0x0000dc90:    f44f507a    O.zP    MOV      r0,#0x3e80
        0x0000dc94:    f000f834    ..4.    BL       am_hal_flash_delay ; 0xdd00
        0x0000dc98:    b164        d.      CBZ      r4,0xdcb4 ; am_hal_clkgen_control + 292
        0x0000dc9a:    6820         h      LDR      r0,[r4,#0]
        0x0000dc9c:    f0400001    @...    ORR      r0,r0,#1
        0x0000dca0:    e00c        ..      B        0xdcbc ; am_hal_clkgen_control + 300
        0x0000dca2:    f244000c    D...    MOV      r0,#0x400c
        0x0000dca6:    f2c40000    ....    MOVT     r0,#0x4000
        0x0000dcaa:    6941        Ai      LDR      r1,[r0,#0x14]
        0x0000dcac:    f0210101    !...    BIC      r1,r1,#1
        0x0000dcb0:    6141        Aa      STR      r1,[r0,#0x14]
        0x0000dcb2:    e7db        ..      B        0xdc6c ; am_hal_clkgen_control + 220
        0x0000dcb4:    f64b0001    K...    MOV      r0,#0xb801
        0x0000dcb8:    f2c00025    ..%.    MOVT     r0,#0x25
        0x0000dcbc:    f244010c    D...    MOV      r1,#0x400c
        0x0000dcc0:    f2c40100    ....    MOVT     r1,#0x4000
        0x0000dcc4:    6148        Ha      STR      r0,[r1,#0x14]
        0x0000dcc6:    e7d1        ..      B        0xdc6c ; am_hal_clkgen_control + 220
    am_hal_clkgen_status_get
        0x0000dcc8:    b1c0        ..      CBZ      r0,0xdcfc ; am_hal_clkgen_status_get + 52
        0x0000dcca:    f2440118    D...    MOV      r1,#0x4018
        0x0000dcce:    f2c40100    ....    MOVT     r1,#0x4000
        0x0000dcd2:    680a        .h      LDR      r2,[r1,#0]
        0x0000dcd4:    07d2        ..      LSLS     r2,r2,#31
        0x0000dcd6:    f2436200    C..b    MOVW     r2,#0x3600
        0x0000dcda:    f2c0126e    ..n.    MOVT     r2,#0x16e
        0x0000dcde:    bf04        ..      ITT      EQ
        0x0000dce0:    f6464200    F..B    MOVWEQ   r2,#0x6c00
        0x0000dce4:    f2c022dc    ..."    MOVTEQ   r2,#0x2dc
        0x0000dce8:    6002        .`      STR      r2,[r0,#0]
        0x0000dcea:    6849        Ih      LDR      r1,[r1,#4]
        0x0000dcec:    f0010201    ....    AND      r2,r1,#1
        0x0000dcf0:    f3c10140    ..@.    UBFX     r1,r1,#1,#1
        0x0000dcf4:    6042        B`      STR      r2,[r0,#4]
        0x0000dcf6:    7201        .r      STRB     r1,[r0,#8]
        0x0000dcf8:    2000        .       MOVS     r0,#0
        0x0000dcfa:    4770        pG      BX       lr
        0x0000dcfc:    2006        .       MOVS     r0,#6
        0x0000dcfe:    4770        pG      BX       lr
    am_hal_flash_delay
        0x0000dd00:    f2440134    D.4.    MOV      r1,#0x4034
        0x0000dd04:    f2c40100    ....    MOVT     r1,#0x4000
        0x0000dd08:    680a        .h      LDR      r2,[r1,#0]
        0x0000dd0a:    f3c20180    ....    UBFX     r1,r2,#2,#1
        0x0000dd0e:    4088        .@      LSLS     r0,r0,r1
        0x0000dd10:    210e        .!      MOVS     r1,#0xe
        0x0000dd12:    f0120f04    ....    TST      r2,#4
        0x0000dd16:    bf08        ..      IT       EQ
        0x0000dd18:    210b        .!      MOVEQ    r1,#0xb
        0x0000dd1a:    4281        .B      CMP      r1,r0
        0x0000dd1c:    bf28        (.      IT       CS
        0x0000dd1e:    4770        pG      BXCS     lr
        0x0000dd20:    1a40        @.      SUBS     r0,r0,r1
        0x0000dd22:    219d        .!      MOVS     r1,#0x9d
        0x0000dd24:    f6c00100    ....    MOVT     r1,#0x800
        0x0000dd28:    4708        .G      BX       r1
        0x0000dd2a:    0000        ..      MOVS     r0,r0
    am_hal_flash_delay_status_check
        0x0000dd2c:    e92d4ff0    -..O    PUSH     {r4-r11,lr}
        0x0000dd30:    b081        ..      SUB      sp,sp,#4
        0x0000dd32:    f8dd8028    ..(.    LDR      r8,[sp,#0x28]
        0x0000dd36:    f2440934    D.4.    MOV      r9,#0x4034
        0x0000dd3a:    f2400b9d    @...    MOVW     r11,#0x9d
        0x0000dd3e:    461c        .F      MOV      r4,r3
        0x0000dd40:    4615        .F      MOV      r5,r2
        0x0000dd42:    460e        .F      MOV      r6,r1
        0x0000dd44:    4607        .F      MOV      r7,r0
        0x0000dd46:    f2c40900    ....    MOVT     r9,#0x4000
        0x0000dd4a:    f04f0a10    O...    MOV      r10,#0x10
        0x0000dd4e:    f6c00b00    ....    MOVT     r11,#0x800
        0x0000dd52:    bf00        ..      NOP      
        0x0000dd54:    6830        0h      LDR      r0,[r6,#0]
        0x0000dd56:    f1b80f00    ....    CMP      r8,#0
        0x0000dd5a:    ea000005    ....    AND      r0,r0,r5
        0x0000dd5e:    d003        ..      BEQ      0xdd68 ; am_hal_flash_delay_status_check + 60
        0x0000dd60:    42a0        .B      CMP      r0,r4
        0x0000dd62:    d103        ..      BNE      0xdd6c ; am_hal_flash_delay_status_check + 64
        0x0000dd64:    e014        ..      B        0xdd90 ; am_hal_flash_delay_status_check + 100
        0x0000dd66:    bf00        ..      NOP      
        0x0000dd68:    42a0        .B      CMP      r0,r4
        0x0000dd6a:    d111        ..      BNE      0xdd90 ; am_hal_flash_delay_status_check + 100
        0x0000dd6c:    b197        ..      CBZ      r7,0xdd94 ; am_hal_flash_delay_status_check + 104
        0x0000dd6e:    f8d90000    ....    LDR      r0,[r9,#0]
        0x0000dd72:    3f01        .?      SUBS     r7,#1
        0x0000dd74:    f3c00180    ....    UBFX     r1,r0,#2,#1
        0x0000dd78:    f0100f04    ....    TST      r0,#4
        0x0000dd7c:    f06f000d    o...    MVN      r0,#0xd
        0x0000dd80:    bf08        ..      IT       EQ
        0x0000dd82:    f06f000a    o...    MVNEQ    r0,#0xa
        0x0000dd86:    fa0af101    ....    LSL      r1,r10,r1
        0x0000dd8a:    4408        .D      ADD      r0,r0,r1
        0x0000dd8c:    47d8        .G      BLX      r11
        0x0000dd8e:    e7e1        ..      B        0xdd54 ; am_hal_flash_delay_status_check + 40
        0x0000dd90:    2000        .       MOVS     r0,#0
        0x0000dd92:    e000        ..      B        0xdd96 ; am_hal_flash_delay_status_check + 106
        0x0000dd94:    2004        .       MOVS     r0,#4
        0x0000dd96:    b001        ..      ADD      sp,sp,#4
        0x0000dd98:    e8bd8ff0    ....    POP      {r4-r11,pc}
    am_hal_flash_load_ui32
        0x0000dd9c:    2175        u!      MOVS     r1,#0x75
        0x0000dd9e:    f6c00100    ....    MOVT     r1,#0x800
        0x0000dda2:    4708        .G      BX       r1
    am_hal_flash_store_ui32
        0x0000dda4:    b580        ..      PUSH     {r7,lr}
        0x0000dda6:    b084        ..      SUB      sp,sp,#0x10
        0x0000dda8:    f64032a4    @..2    MOV      r2,#0xba4
        0x0000ddac:    f2c00201    ....    MOVT     r2,#1
        0x0000ddb0:    e9d23c00    ...<    LDRD     r3,r12,[r2,#0]
        0x0000ddb4:    6892        .h      LDR      r2,[r2,#8]
        0x0000ddb6:    e9cd3c01    ...<    STRD     r3,r12,[sp,#4]
        0x0000ddba:    9203        ..      STR      r2,[sp,#0xc]
        0x0000ddbc:    aa01        ..      ADD      r2,sp,#4
        0x0000ddbe:    3201        .2      ADDS     r2,#1
        0x0000ddc0:    4790        .G      BLX      r2
        0x0000ddc2:    b004        ..      ADD      sp,sp,#0x10
        0x0000ddc4:    bd80        ..      POP      {r7,pc}
        0x0000ddc6:    0000        ..      MOVS     r0,r0
    am_hal_gpio_pinconfig
        0x0000ddc8:    e92d4ff0    -..O    PUSH     {r4-r11,lr}
        0x0000ddcc:    b085        ..      SUB      sp,sp,#0x14
        0x0000ddce:    2831        1(      CMP      r0,#0x31
        0x0000ddd0:    d904        ..      BLS      0xdddc ; am_hal_gpio_pinconfig + 20
        0x0000ddd2:    2506        .%      MOVS     r5,#6
        0x0000ddd4:    4628        (F      MOV      r0,r5
        0x0000ddd6:    b005        ..      ADD      sp,sp,#0x14
        0x0000ddd8:    e8bd8ff0    ....    POP      {r4-r11,pc}
        0x0000dddc:    b2ce        ..      UXTB     r6,r1
        0x0000ddde:    4604        .F      MOV      r4,r0
        0x0000dde0:    f2401200    @...    MOVW     r2,#0x100
        0x0000dde4:    f0060307    ....    AND      r3,r6,#7
        0x0000dde8:    2000        .       MOVS     r0,#0
        0x0000ddea:    f6c00200    ....    MOVT     r2,#0x800
        0x0000ddee:    ebb01f56    ..V.    CMP      r0,r6,LSR #5
        0x0000ddf2:    ea4f00c3    O...    LSL      r0,r3,#3
        0x0000ddf6:    d01a        ..      BEQ      0xde2e ; am_hal_gpio_pinconfig + 102
        0x0000ddf8:    0977        w.      LSRS     r7,r6,#5
        0x0000ddfa:    2ebf        ..      CMP      r6,#0xbf
        0x0000ddfc:    f0400001    @...    ORR      r0,r0,#1
        0x0000de00:    d80a        ..      BHI      0xde18 ; am_hal_gpio_pinconfig + 80
        0x0000de02:    2f01        ./      CMP      r7,#1
        0x0000de04:    d008        ..      BEQ      0xde18 ; am_hal_gpio_pinconfig + 80
        0x0000de06:    a66c        l.      ADR      r6,{pc}+0x1b2 ; 0xdfb8
        0x0000de08:    5d36        6]      LDRB     r6,[r6,r4]
        0x0000de0a:    4615        .F      MOV      r5,r2
        0x0000de0c:    07f6        ..      LSLS     r6,r6,#31
        0x0000de0e:    d0e1        ..      BEQ      0xddd4 ; am_hal_gpio_pinconfig + 12
        0x0000de10:    ea401087    @...    ORR      r0,r0,r7,LSL #6
        0x0000de14:    3880        .8      SUBS     r0,r0,#0x80
        0x0000de16:    e00a        ..      B        0xde2e ; am_hal_gpio_pinconfig + 102
        0x0000de18:    2f06        ./      CMP      r7,#6
        0x0000de1a:    d103        ..      BNE      0xde24 ; am_hal_gpio_pinconfig + 92
        0x0000de1c:    2c14        .,      CMP      r4,#0x14
        0x0000de1e:    d006        ..      BEQ      0xde2e ; am_hal_gpio_pinconfig + 102
        0x0000de20:    1c55        U.      ADDS     r5,r2,#1
        0x0000de22:    e7d7        ..      B        0xddd4 ; am_hal_gpio_pinconfig + 12
        0x0000de24:    2c14        .,      CMP      r4,#0x14
        0x0000de26:    d102        ..      BNE      0xde2e ; am_hal_gpio_pinconfig + 102
        0x0000de28:    2f01        ./      CMP      r7,#1
        0x0000de2a:    4615        .F      MOV      r5,r2
        0x0000de2c:    d0d2        ..      BEQ      0xddd4 ; am_hal_gpio_pinconfig + 12
        0x0000de2e:    f3c107c1    ....    UBFX     r7,r1,#3,#2
        0x0000de32:    b197        ..      CBZ      r7,0xde5a ; am_hal_gpio_pinconfig + 146
        0x0000de34:    2f02        ./      CMP      r7,#2
        0x0000de36:    f1020502    ....    ADD      r5,r2,#2
        0x0000de3a:    d008        ..      BEQ      0xde4e ; am_hal_gpio_pinconfig + 134
        0x0000de3c:    2f01        ./      CMP      r7,#1
        0x0000de3e:    d1c9        ..      BNE      0xddd4 ; am_hal_gpio_pinconfig + 12
        0x0000de40:    2c24        $,      CMP      r4,#0x24
        0x0000de42:    d001        ..      BEQ      0xde48 ; am_hal_gpio_pinconfig + 128
        0x0000de44:    2c03        .,      CMP      r4,#3
        0x0000de46:    d1c5        ..      BNE      0xddd4 ; am_hal_gpio_pinconfig + 12
        0x0000de48:    f0400040    @.@.    ORR      r0,r0,#0x40
        0x0000de4c:    e005        ..      B        0xde5a ; am_hal_gpio_pinconfig + 146
        0x0000de4e:    2c29        ),      CMP      r4,#0x29
        0x0000de50:    d001        ..      BEQ      0xde56 ; am_hal_gpio_pinconfig + 142
        0x0000de52:    2c25        %,      CMP      r4,#0x25
        0x0000de54:    d1be        ..      BNE      0xddd4 ; am_hal_gpio_pinconfig + 12
        0x0000de56:    f0400080    @...    ORR      r0,r0,#0x80
        0x0000de5a:    f6424780    B..G    MOVW     r7,#0x2c80
        0x0000de5e:    f2c00701    ....    MOVT     r7,#1
        0x0000de62:    5d3f        ?]      LDRB     r7,[r7,r4]
        0x0000de64:    40df        .@      LSRS     r7,r7,r3
        0x0000de66:    07ff        ..      LSLS     r7,r7,#31
        0x0000de68:    a760        `.      ADR      r7,{pc}+0x184 ; 0xdfec
        0x0000de6a:    5d3f        ?]      LDRB     r7,[r7,r4]
        0x0000de6c:    bf18        ..      IT       NE
        0x0000de6e:    f0400002    @...    ORRNE    r0,r0,#2
        0x0000de72:    429f        .B      CMP      r7,r3
        0x0000de74:    d106        ..      BNE      0xde84 ; am_hal_gpio_pinconfig + 188
        0x0000de76:    0c0b        ..      LSRS     r3,r1,#16
        0x0000de78:    f0030307    ....    AND      r3,r3,#7
        0x0000de7c:    2b07        .+      CMP      r3,#7
        0x0000de7e:    d122        ".      BNE      0xdec6 ; am_hal_gpio_pinconfig + 254
        0x0000de80:    1cd5        ..      ADDS     r5,r2,#3
        0x0000de82:    e7a7        ..      B        0xddd4 ; am_hal_gpio_pinconfig + 12
        0x0000de84:    2202        ."      MOVS     r2,#2
        0x0000de86:    ea0222d1    ..."    AND      r2,r2,r1,LSR #11
        0x0000de8a:    4310        .C      ORRS     r0,r0,r2
        0x0000de8c:    2208        ."      MOVS     r2,#8
        0x0000de8e:    f3c12381    ...#    UBFX     r3,r1,#10,#2
        0x0000de92:    ea022291    ..."    AND      r2,r2,r1,LSR #10
        0x0000de96:    ea420243    B.C.    ORR      r2,r2,r3,LSL #1
        0x0000de9a:    3b01        .;      SUBS     r3,#1
        0x0000de9c:    1ecf        ..      SUBS     r7,r1,#3
        0x0000de9e:    fab3f383    ....    CLZ      r3,r3
        0x0000dea2:    fab7f787    ....    CLZ      r7,r7
        0x0000dea6:    095b        [.      LSRS     r3,r3,#5
        0x0000dea8:    097f        ..      LSRS     r7,r7,#5
        0x0000deaa:    433b        ;C      ORRS     r3,r3,r7
        0x0000deac:    f4114fc0    ...O    TST      r1,#0x6000
        0x0000deb0:    9300        ..      STR      r3,[sp,#0]
        0x0000deb2:    bf07        ..      ITTEE    EQ
        0x0000deb4:    f3c133c0    ...3    UBFXEQ   r3,r1,#15,#1
        0x0000deb8:    ea420c03    B...    ORREQ    r12,r2,r3
        0x0000debc:    f3c13380    ...3    UBFXNE   r3,r1,#14,#1
        0x0000dec0:    eb020c03    ....    ADDNE    r12,r2,r3
        0x0000dec4:    e01b        ..      B        0xdefe ; am_hal_gpio_pinconfig + 310
        0x0000dec6:    f3c147c1    ...G    UBFX     r7,r1,#19,#2
        0x0000deca:    ea471703    G...    ORR      r7,r7,r3,LSL #4
        0x0000dece:    f64243b2    B..C    MOV      r3,#0x2cb2
        0x0000ded2:    f2c00301    ....    MOVT     r3,#1
        0x0000ded6:    eb030684    ....    ADD      r6,r3,r4,LSL #2
        0x0000deda:    2300        .#      MOVS     r3,#0
        0x0000dedc:    7835        5x      LDRB     r5,[r6,#0]
        0x0000dede:    42af        .B      CMP      r7,r5
        0x0000dee0:    d006        ..      BEQ      0xdef0 ; am_hal_gpio_pinconfig + 296
        0x0000dee2:    3302        .3      ADDS     r3,#2
        0x0000dee4:    2b08        .+      CMP      r3,#8
        0x0000dee6:    f1060601    ....    ADD      r6,r6,#1
        0x0000deea:    d1f7        ..      BNE      0xdedc ; am_hal_gpio_pinconfig + 276
        0x0000deec:    1d15        ..      ADDS     r5,r2,#4
        0x0000deee:    e771        q.      B        0xddd4 ; am_hal_gpio_pinconfig + 12
        0x0000def0:    2208        ."      MOVS     r2,#8
        0x0000def2:    ea024291    ...B    AND      r2,r2,r1,LSR #18
        0x0000def6:    ea430c02    C...    ORR      r12,r3,r2
        0x0000defa:    2200        ."      MOVS     r2,#0
        0x0000defc:    9200        ..      STR      r2,[sp,#0]
        0x0000defe:    0a09        ..      LSRS     r1,r1,#8
        0x0000df00:    f0010103    ....    AND      r1,r1,#3
        0x0000df04:    e8dff001    ....    TBB      [pc,r1]
    $d.1
        0x0000df08:    06080209    ....    DCD    101188105
    $t.2
        0x0000df0c:    f0400004    @...    ORR      r0,r0,#4
        0x0000df10:    2100        .!      MOVS     r1,#0
        0x0000df12:    e002        ..      B        0xdf1a ; am_hal_gpio_pinconfig + 338
        0x0000df14:    f0400004    @...    ORR      r0,r0,#4
        0x0000df18:    2101        .!      MOVS     r1,#1
        0x0000df1a:    f06f0303    o...    MVN      r3,#3
        0x0000df1e:    ea030a54    ..T.    AND      r10,r3,r4,LSR #1
        0x0000df22:    231c        .#      MOVS     r3,#0x1c
        0x0000df24:    2518        .%      MOVS     r5,#0x18
        0x0000df26:    ea030384    ....    AND      r3,r3,r4,LSL #2
        0x0000df2a:    ea0502c4    ....    AND      r2,r5,r4,LSL #3
        0x0000df2e:    250f        .%      MOVS     r5,#0xf
        0x0000df30:    409d        .@      LSLS     r5,r5,r3
        0x0000df32:    43ed        .C      MVNS     r5,r5
        0x0000df34:    2600        .&      MOVS     r6,#0
        0x0000df36:    9503        ..      STR      r5,[sp,#0xc]
        0x0000df38:    25ff        .%      MOVS     r5,#0xff
        0x0000df3a:    fa00f802    ....    LSL      r8,r0,r2
        0x0000df3e:    fa01f002    ....    LSL      r0,r1,r2
        0x0000df42:    f2c40601    ....    MOVT     r6,#0x4001
        0x0000df46:    4095        .@      LSLS     r5,r5,r2
        0x0000df48:    9002        ..      STR      r0,[sp,#8]
        0x0000df4a:    fa0cf003    ....    LSL      r0,r12,r3
        0x0000df4e:    f1060b40    ..@.    ADD      r11,r6,#0x40
        0x0000df52:    f0240703    $...    BIC      r7,r4,#3
        0x0000df56:    f10609e0    ....    ADD      r9,r6,#0xe0
        0x0000df5a:    43ed        .C      MVNS     r5,r5
        0x0000df5c:    9001        ..      STR      r0,[sp,#4]
        0x0000df5e:    f000f8ab    ....    BL       am_hal_interrupt_master_disable ; 0xe0b8
        0x0000df62:    9900        ..      LDR      r1,[sp,#0]
        0x0000df64:    9004        ..      STR      r0,[sp,#0x10]
        0x0000df66:    b151        Q.      CBZ      r1,0xdf7e ; am_hal_gpio_pinconfig + 438
        0x0000df68:    f004001f    ....    AND      r0,r4,#0x1f
        0x0000df6c:    2101        .!      MOVS     r1,#1
        0x0000df6e:    fa01f000    ....    LSL      r0,r1,r0
        0x0000df72:    f3c41140    ..@.    UBFX     r1,r4,#5,#1
        0x0000df76:    eb060181    ....    ADD      r1,r6,r1,LSL #2
        0x0000df7a:    f8c100b4    ....    STR      r0,[r1,#0xb4]
        0x0000df7e:    2073        s       MOVS     r0,#0x73
        0x0000df80:    6630        0f      STR      r0,[r6,#0x60]
        0x0000df82:    59f0        .Y      LDR      r0,[r6,r7]
        0x0000df84:    4028        (@      ANDS     r0,r0,r5
        0x0000df86:    ea400008    @...    ORR      r0,r0,r8
        0x0000df8a:    51f0        .Q      STR      r0,[r6,r7]
        0x0000df8c:    f85a000b    Z...    LDR      r0,[r10,r11]
        0x0000df90:    9903        ..      LDR      r1,[sp,#0xc]
        0x0000df92:    4008        .@      ANDS     r0,r0,r1
        0x0000df94:    9901        ..      LDR      r1,[sp,#4]
        0x0000df96:    4308        .C      ORRS     r0,r0,r1
        0x0000df98:    f84a000b    J...    STR      r0,[r10,r11]
        0x0000df9c:    f8570009    W...    LDR      r0,[r7,r9]
        0x0000dfa0:    9902        ..      LDR      r1,[sp,#8]
        0x0000dfa2:    4028        (@      ANDS     r0,r0,r5
        0x0000dfa4:    4308        .C      ORRS     r0,r0,r1
        0x0000dfa6:    2500        .%      MOVS     r5,#0
        0x0000dfa8:    f8470009    G...    STR      r0,[r7,r9]
        0x0000dfac:    6635        5f      STR      r5,[r6,#0x60]
        0x0000dfae:    9804        ..      LDR      r0,[sp,#0x10]
        0x0000dfb0:    f000f88a    ....    BL       am_hal_interrupt_master_set ; 0xe0c8
        0x0000dfb4:    e70e        ..      B        0xddd4 ; am_hal_gpio_pinconfig + 12
        0x0000dfb6:    bf00        ..      NOP      
    $d.3
    g_ui8Bit76Capabilities
        0x0000dfb8:    02800101    ....    DCD    41943297
        0x0000dfbc:    80010180    ....    DCD    2147549568
        0x0000dfc0:    80800101    ....    DCD    2155872513
        0x0000dfc4:    80808080    ....    DCD    2155905152
        0x0000dfc8:    80808080    ....    DCD    2155905152
        0x0000dfcc:    80808008    ....    DCD    2155905032
        0x0000dfd0:    01800180    ....    DCD    25166208
        0x0000dfd4:    80808080    ....    DCD    2155905152
        0x0000dfd8:    80808080    ....    DCD    2155905152
        0x0000dfdc:    01800402    ....    DCD    25166850
        0x0000dfe0:    01010401    ....    DCD    16843777
        0x0000dfe4:    80808080    ....    DCD    2155905152
        0x0000dfe8:    00000101    ....    DCD    257
    g_ui8nCEpins
        0x0000dfec:    02070707    ....    DCD    34014983
        0x0000dff0:    00080802    ....    DCD    526338
        0x0000dff4:    01020202    ....    DCD    16908802
        0x0000dff8:    01010101    ....    DCD    16843009
        0x0000dffc:    01010101    ....    DCD    16843009
        0x0000e000:    01010101    ....    DCD    16843009
        0x0000e004:    01010101    ....    DCD    16843009
        0x0000e008:    01010101    ....    DCD    16843009
        0x0000e00c:    01010101    ....    DCD    16843009
        0x0000e010:    08010101    ....    DCD    134283521
        0x0000e014:    01010008    ....    DCD    16842760
        0x0000e018:    01010101    ....    DCD    16843009
        0x0000e01c:    00000101    ....    DCD    257
    $t.7
    am_hal_gpio_state_write
        0x0000e020:    b5b0        ..      PUSH     {r4,r5,r7,lr}
        0x0000e022:    b082        ..      SUB      sp,sp,#8
        0x0000e024:    2831        1(      CMP      r0,#0x31
        0x0000e026:    d901        ..      BLS      0xe02c ; am_hal_gpio_state_write + 12
        0x0000e028:    2405        .$      MOVS     r4,#5
        0x0000e02a:    e040        @.      B        0xe0ae ; am_hal_gpio_state_write + 142
        0x0000e02c:    460d        .F      MOV      r5,r1
        0x0000e02e:    2905        .)      CMP      r1,#5
        0x0000e030:    d901        ..      BLS      0xe036 ; am_hal_gpio_state_write + 22
        0x0000e032:    2406        .$      MOVS     r4,#6
        0x0000e034:    e03b        ;.      B        0xe0ae ; am_hal_gpio_state_write + 142
        0x0000e036:    4604        .F      MOV      r4,r0
        0x0000e038:    f000f83e    ..>.    BL       am_hal_interrupt_master_disable ; 0xe0b8
        0x0000e03c:    2d05        .-      CMP      r5,#5
        0x0000e03e:    9001        ..      STR      r0,[sp,#4]
        0x0000e040:    d838        8.      BHI      0xe0b4 ; am_hal_gpio_state_write + 148
        0x0000e042:    f004001f    ....    AND      r0,r4,#0x1f
        0x0000e046:    2101        .!      MOVS     r1,#1
        0x0000e048:    fa01f000    ....    LSL      r0,r1,r0
        0x0000e04c:    2104        .!      MOVS     r1,#4
        0x0000e04e:    ea0101d4    ....    AND      r1,r1,r4,LSR #3
        0x0000e052:    e8dff005    ....    TBB      [pc,r5]
    $d.8
        0x0000e056:    0903        ..      DCW    2307
        0x0000e058:    211b160f    ...!    DCD    555423247
    $t.9
        0x0000e05c:    2288        ."      MOVS     r2,#0x88
        0x0000e05e:    f2c40201    ....    MOVT     r2,#0x4001
        0x0000e062:    4311        .C      ORRS     r1,r1,r2
        0x0000e064:    6108        .a      STR      r0,[r1,#0x10]
        0x0000e066:    e01e        ..      B        0xe0a6 ; am_hal_gpio_state_write + 134
        0x0000e068:    2288        ."      MOVS     r2,#0x88
        0x0000e06a:    f2c40201    ....    MOVT     r2,#0x4001
        0x0000e06e:    4311        .C      ORRS     r1,r1,r2
        0x0000e070:    6088        .`      STR      r0,[r1,#8]
        0x0000e072:    e018        ..      B        0xe0a6 ; am_hal_gpio_state_write + 134
        0x0000e074:    2288        ."      MOVS     r2,#0x88
        0x0000e076:    f2c40201    ....    MOVT     r2,#0x4001
        0x0000e07a:    588b        .X      LDR      r3,[r1,r2]
        0x0000e07c:    4058        X@      EORS     r0,r0,r3
        0x0000e07e:    5088        .P      STR      r0,[r1,r2]
        0x0000e080:    e011        ..      B        0xe0a6 ; am_hal_gpio_state_write + 134
        0x0000e082:    2288        ."      MOVS     r2,#0x88
        0x0000e084:    f2c40201    ....    MOVT     r2,#0x4001
        0x0000e088:    4311        .C      ORRS     r1,r1,r2
        0x0000e08a:    e00b        ..      B        0xe0a4 ; am_hal_gpio_state_write + 132
        0x0000e08c:    2288        ."      MOVS     r2,#0x88
        0x0000e08e:    f2c40201    ....    MOVT     r2,#0x4001
        0x0000e092:    4311        .C      ORRS     r1,r1,r2
        0x0000e094:    6208        .b      STR      r0,[r1,#0x20]
        0x0000e096:    e006        ..      B        0xe0a6 ; am_hal_gpio_state_write + 134
        0x0000e098:    2288        ."      MOVS     r2,#0x88
        0x0000e09a:    f2c40201    ....    MOVT     r2,#0x4001
        0x0000e09e:    4311        .C      ORRS     r1,r1,r2
        0x0000e0a0:    6aca        .j      LDR      r2,[r1,#0x2c]
        0x0000e0a2:    4050        P@      EORS     r0,r0,r2
        0x0000e0a4:    62c8        .b      STR      r0,[r1,#0x2c]
        0x0000e0a6:    2400        .$      MOVS     r4,#0
        0x0000e0a8:    9801        ..      LDR      r0,[sp,#4]
        0x0000e0aa:    f000f80d    ....    BL       am_hal_interrupt_master_set ; 0xe0c8
        0x0000e0ae:    4620         F      MOV      r0,r4
        0x0000e0b0:    b002        ..      ADD      sp,sp,#8
        0x0000e0b2:    bdb0        ..      POP      {r4,r5,r7,pc}
        0x0000e0b4:    2406        .$      MOVS     r4,#6
        0x0000e0b6:    e7f7        ..      B        0xe0a8 ; am_hal_gpio_state_write + 136
    am_hal_interrupt_master_disable
        0x0000e0b8:    f3ef8010    ....    MRS      r0,PRIMASK
        0x0000e0bc:    b672        r.      CPSID    i
        0x0000e0be:    4770        pG      BX       lr
    am_hal_interrupt_master_enable
        0x0000e0c0:    f3ef8010    ....    MRS      r0,PRIMASK
        0x0000e0c4:    b662        b.      CPSIE    i
        0x0000e0c6:    4770        pG      BX       lr
    am_hal_interrupt_master_set
        0x0000e0c8:    f3808810    ....    MSR      PRIMASK,r0
        0x0000e0cc:    4770        pG      BX       lr
        0x0000e0ce:    0000        ..      MOVS     r0,r0
    am_hal_itm_enable
        0x0000e0d0:    f64e50fc    N..P    MOV      r0,#0xedfc
        0x0000e0d4:    f2ce0000    ....    MOVT     r0,#0xe000
        0x0000e0d8:    6801        .h      LDR      r1,[r0,#0]
        0x0000e0da:    f0417180    A..q    ORR      r1,r1,#0x1000000
        0x0000e0de:    6001        .`      STR      r1,[r0,#0]
        0x0000e0e0:    6801        .h      LDR      r1,[r0,#0]
        0x0000e0e2:    01c9        ..      LSLS     r1,r1,#7
        0x0000e0e4:    d5fc        ..      BPL      0xe0e0 ; am_hal_itm_enable + 16
        0x0000e0e6:    f6406000    @..`    MOVW     r0,#0xe00
        0x0000e0ea:    f64c6155    L.Ua    MOV      r1,#0xce55
        0x0000e0ee:    f2ce0000    ....    MOVT     r0,#0xe000
        0x0000e0f2:    f2cc51ac    ...Q    MOVT     r1,#0xc5ac
        0x0000e0f6:    f8c011b0    ....    STR      r1,[r0,#0x1b0]
        0x0000e0fa:    210f        .!      MOVS     r1,#0xf
        0x0000e0fc:    6401        .d      STR      r1,[r0,#0x40]
        0x0000e0fe:    f04f31ff    O..1    MOV      r1,#0xffffffff
        0x0000e102:    6001        .`      STR      r1,[r0,#0]
        0x0000e104:    f2405111    @..Q    MOV      r1,#0x511
        0x0000e108:    f2c00115    ....    MOVT     r1,#0x15
        0x0000e10c:    f8c01080    ....    STR      r1,[r0,#0x80]
        0x0000e110:    4770        pG      BX       lr
        0x0000e112:    0000        ..      MOVS     r0,r0
    am_hal_itm_print
        0x0000e114:    2100        .!      MOVS     r1,#0
        0x0000e116:    bf00        ..      NOP      
        0x0000e118:    5c42        B\      LDRB     r2,[r0,r1]
        0x0000e11a:    3101        .1      ADDS     r1,#1
        0x0000e11c:    2a00        .*      CMP      r2,#0
        0x0000e11e:    d1fb        ..      BNE      0xe118 ; am_hal_itm_print + 4
        0x0000e120:    3901        .9      SUBS     r1,#1
        0x0000e122:    bf08        ..      IT       EQ
        0x0000e124:    4770        pG      BXEQ     lr
        0x0000e126:    f04f4260    O.`B    MOV      r2,#0xe0000000
        0x0000e12a:    bf00        ..      NOP      
        0x0000e12c:    f890c000    ....    LDRB     r12,[r0,#0]
        0x0000e130:    6813        .h      LDR      r3,[r2,#0]
        0x0000e132:    2b00        .+      CMP      r3,#0
        0x0000e134:    d0fc        ..      BEQ      0xe130 ; am_hal_itm_print + 28
        0x0000e136:    3001        .0      ADDS     r0,#1
        0x0000e138:    3901        .9      SUBS     r1,#1
        0x0000e13a:    f882c000    ....    STRB     r12,[r2,#0]
        0x0000e13e:    d1f5        ..      BNE      0xe12c ; am_hal_itm_print + 24
        0x0000e140:    4770        pG      BX       lr
    am_hal_mcuctrl_info_get
        0x0000e142:    b1e1        ..      CBZ      r1,0xe17e ; am_hal_mcuctrl_info_get + 60
        0x0000e144:    2802        .(      CMP      r0,#2
        0x0000e146:    d01c        ..      BEQ      0xe182 ; am_hal_mcuctrl_info_get + 64
        0x0000e148:    2801        .(      CMP      r0,#1
        0x0000e14a:    d037        7.      BEQ      0xe1bc ; am_hal_mcuctrl_info_get + 122
        0x0000e14c:    b9b8        ..      CBNZ     r0,0xe17e ; am_hal_mcuctrl_info_get + 60
        0x0000e14e:    2000        .       MOVS     r0,#0
        0x0000e150:    f2c40002    ....    MOVT     r0,#0x4002
        0x0000e154:    6982        .i      LDR      r2,[r0,#0x18]
        0x0000e156:    b2d2        ..      UXTB     r2,r2
        0x0000e158:    f3c21380    ....    UBFX     r3,r2,#6,#1
        0x0000e15c:    f3c20280    ....    UBFX     r2,r2,#2,#1
        0x0000e160:    700b        .p      STRB     r3,[r1,#0]
        0x0000e162:    704a        Jp      STRB     r2,[r1,#1]
        0x0000e164:    f8d021a0    ...!    LDR      r2,[r0,#0x1a0]
        0x0000e168:    f3c26281    ...b    UBFX     r2,r2,#26,#2
        0x0000e16c:    710a        .q      STRB     r2,[r1,#4]
        0x0000e16e:    6940        @i      LDR      r0,[r0,#0x14]
        0x0000e170:    f3c00240    ..@.    UBFX     r2,r0,#1,#1
        0x0000e174:    f0000001    ....    AND      r0,r0,#1
        0x0000e178:    708a        .p      STRB     r2,[r1,#2]
        0x0000e17a:    70c8        .p      STRB     r0,[r1,#3]
        0x0000e17c:    e06c        l.      B        0xe258 ; am_hal_mcuctrl_info_get + 278
        0x0000e17e:    2006        .       MOVS     r0,#6
        0x0000e180:    4770        pG      BX       lr
        0x0000e182:    2000        .       MOVS     r0,#0
        0x0000e184:    f2c40002    ....    MOVT     r0,#0x4002
        0x0000e188:    f8d021cc    ...!    LDR      r2,[r0,#0x1cc]
        0x0000e18c:    b2d3        ..      UXTB     r3,r2
        0x0000e18e:    f0020201    ....    AND      r2,r2,#1
        0x0000e192:    700a        .p      STRB     r2,[r1,#0]
        0x0000e194:    f3c30240    ..@.    UBFX     r2,r3,#1,#1
        0x0000e198:    720a        .r      STRB     r2,[r1,#8]
        0x0000e19a:    f3c30280    ....    UBFX     r2,r3,#2,#1
        0x0000e19e:    740a        .t      STRB     r2,[r1,#0x10]
        0x0000e1a0:    f8d021c4    ...!    LDR      r2,[r0,#0x1c4]
        0x0000e1a4:    60ca        .`      STR      r2,[r1,#0xc]
        0x0000e1a6:    f8d021c0    ...!    LDR      r2,[r0,#0x1c0]
        0x0000e1aa:    684b        Kh      LDR      r3,[r1,#4]
        0x0000e1ac:    431a        .C      ORRS     r2,r2,r3
        0x0000e1ae:    604a        J`      STR      r2,[r1,#4]
        0x0000e1b0:    f8d001c8    ....    LDR      r0,[r0,#0x1c8]
        0x0000e1b4:    694a        Ji      LDR      r2,[r1,#0x14]
        0x0000e1b6:    4310        .C      ORRS     r0,r0,r2
        0x0000e1b8:    6148        Ha      STR      r0,[r1,#0x14]
        0x0000e1ba:    e04d        M.      B        0xe258 ; am_hal_mcuctrl_info_get + 278
        0x0000e1bc:    2000        .       MOVS     r0,#0
        0x0000e1be:    f2c40002    ....    MOVT     r0,#0x4002
        0x0000e1c2:    6802        .h      LDR      r2,[r0,#0]
        0x0000e1c4:    600a        .`      STR      r2,[r1,#0]
        0x0000e1c6:    6843        Ch      LDR      r3,[r0,#4]
        0x0000e1c8:    604b        K`      STR      r3,[r1,#4]
        0x0000e1ca:    6883        .h      LDR      r3,[r0,#8]
        0x0000e1cc:    608b        .`      STR      r3,[r1,#8]
        0x0000e1ce:    68c3        .h      LDR      r3,[r0,#0xc]
        0x0000e1d0:    60cb        .`      STR      r3,[r1,#0xc]
        0x0000e1d2:    6903        .i      LDR      r3,[r0,#0x10]
        0x0000e1d4:    610b        .a      STR      r3,[r1,#0x10]
        0x0000e1d6:    6940        @i      LDR      r0,[r0,#0x14]
        0x0000e1d8:    f6424300    B..C    MOVW     r3,#0x2c00
        0x0000e1dc:    6148        Ha      STR      r0,[r1,#0x14]
        0x0000e1de:    2001        .       MOVS     r0,#1
        0x0000e1e0:    6188        .a      STR      r0,[r1,#0x18]
        0x0000e1e2:    f3c25003    ...P    UBFX     r0,r2,#20,#4
        0x0000e1e6:    f2c00301    ....    MOVT     r3,#1
        0x0000e1ea:    f8530020    S. .    LDR      r0,[r3,r0,LSL #2]
        0x0000e1ee:    f6424340    B.@C    MOVW     r3,#0x2c40
        0x0000e1f2:    f3c24203    ...B    UBFX     r2,r2,#16,#4
        0x0000e1f6:    f2c00301    ....    MOVT     r3,#1
        0x0000e1fa:    f8532022    S."     LDR      r2,[r3,r2,LSL #2]
        0x0000e1fe:    e9c10207    ....    STRD     r0,r2,[r1,#0x1c]
        0x0000e202:    f64070e0    @..p    MOVW     r0,#0xfe0
        0x0000e206:    f2cf0000    ....    MOVT     r0,#0xf000
        0x0000e20a:    6802        .h      LDR      r2,[r0,#0]
        0x0000e20c:    b2d2        ..      UXTB     r2,r2
        0x0000e20e:    624a        Jb      STR      r2,[r1,#0x24]
        0x0000e210:    6843        Ch      LDR      r3,[r0,#4]
        0x0000e212:    f363220b    c.."    BFI      r2,r3,#8,#4
        0x0000e216:    624a        Jb      STR      r2,[r1,#0x24]
        0x0000e218:    6842        Bh      LDR      r2,[r0,#4]
        0x0000e21a:    f3c21203    ....    UBFX     r2,r2,#4,#4
        0x0000e21e:    628a        .b      STR      r2,[r1,#0x28]
        0x0000e220:    6883        .h      LDR      r3,[r0,#8]
        0x0000e222:    f3631207    c...    BFI      r2,r3,#4,#4
        0x0000e226:    628a        .b      STR      r2,[r1,#0x28]
        0x0000e228:    6882        .h      LDR      r2,[r0,#8]
        0x0000e22a:    f00202f0    ....    AND      r2,r2,#0xf0
        0x0000e22e:    62ca        .b      STR      r2,[r1,#0x2c]
        0x0000e230:    68c3        .h      LDR      r3,[r0,#0xc]
        0x0000e232:    f3c31303    ....    UBFX     r3,r3,#4,#4
        0x0000e236:    441a        .D      ADD      r2,r2,r3
        0x0000e238:    62ca        .b      STR      r2,[r1,#0x2c]
        0x0000e23a:    69c2        .i      LDR      r2,[r0,#0x1c]
        0x0000e23c:    0612        ..      LSLS     r2,r2,#24
        0x0000e23e:    630a        .c      STR      r2,[r1,#0x30]
        0x0000e240:    6983        .i      LDR      r3,[r0,#0x18]
        0x0000e242:    f3634217    c..B    BFI      r2,r3,#16,#8
        0x0000e246:    630a        .c      STR      r2,[r1,#0x30]
        0x0000e248:    6943        Ci      LDR      r3,[r0,#0x14]
        0x0000e24a:    f363220f    c.."    BFI      r2,r3,#8,#8
        0x0000e24e:    630a        .c      STR      r2,[r1,#0x30]
        0x0000e250:    6900        .i      LDR      r0,[r0,#0x10]
        0x0000e252:    b2c0        ..      UXTB     r0,r0
        0x0000e254:    4410        .D      ADD      r0,r0,r2
        0x0000e256:    6308        .c      STR      r0,[r1,#0x30]
        0x0000e258:    2000        .       MOVS     r0,#0
        0x0000e25a:    4770        pG      BX       lr
    am_hal_pwrctrl_blebuck_trim
        0x0000e25c:    b510        ..      PUSH     {r4,lr}
        0x0000e25e:    b082        ..      SUB      sp,sp,#8
        0x0000e260:    f2403468    @.h4    MOVW     r4,#0x368
        0x0000e264:    f64f40a4    O..@    MOV      r0,#0xfca4
        0x0000e268:    f2c40402    ....    MOVT     r4,#0x4002
        0x0000e26c:    f6cf70ff    ...p    MOVT     r0,#0xffff
        0x0000e270:    5820         X      LDR      r0,[r4,r0]
        0x0000e272:    f00000fe    ....    AND      r0,r0,#0xfe
        0x0000e276:    2812        .(      CMP      r0,#0x12
        0x0000e278:    d317        ..      BCC      0xe2aa ; am_hal_pwrctrl_blebuck_trim + 78
        0x0000e27a:    f7ffff1d    ....    BL       am_hal_interrupt_master_disable ; 0xe0b8
        0x0000e27e:    9001        ..      STR      r0,[sp,#4]
        0x0000e280:    6820         h      LDR      r0,[r4,#0]
        0x0000e282:    2119        .!      MOVS     r1,#0x19
        0x0000e284:    f361108b    a...    BFI      r0,r1,#6,#6
        0x0000e288:    6020         `      STR      r0,[r4,#0]
        0x0000e28a:    6820         h      LDR      r0,[r4,#0]
        0x0000e28c:    210c        .!      MOVS     r1,#0xc
        0x0000e28e:    f3610005    a...    BFI      r0,r1,#0,#6
        0x0000e292:    6020         `      STR      r0,[r4,#0]
        0x0000e294:    f244003c    D.<.    MOV      r0,#0x403c
        0x0000e298:    f2c40000    ....    MOVT     r0,#0x4000
        0x0000e29c:    6801        .h      LDR      r1,[r0,#0]
        0x0000e29e:    f4210180    !...    BIC      r1,r1,#0x400000
        0x0000e2a2:    6001        .`      STR      r1,[r0,#0]
        0x0000e2a4:    9801        ..      LDR      r0,[sp,#4]
        0x0000e2a6:    f7ffff0f    ....    BL       am_hal_interrupt_master_set ; 0xe0c8
        0x0000e2aa:    b002        ..      ADD      sp,sp,#8
        0x0000e2ac:    bd10        ..      POP      {r4,pc}
    am_hal_pwrctrl_low_power_init
        0x0000e2ae:    b5f0        ..      PUSH     {r4-r7,lr}
        0x0000e2b0:    b081        ..      SUB      sp,sp,#4
        0x0000e2b2:    f24260dc    B..`    MOV      r0,#0x26dc
        0x0000e2b6:    f2c10000    ....    MOVT     r0,#0x1000
        0x0000e2ba:    6801        .h      LDR      r1,[r0,#0]
        0x0000e2bc:    b929        ).      CBNZ     r1,0xe2ca ; am_hal_pwrctrl_low_power_init + 28
        0x0000e2be:    f24f0100    O...    MOVW     r1,#0xf000
        0x0000e2c2:    f6c471ff    ...q    MOVT     r1,#0x4fff
        0x0000e2c6:    6809        .h      LDR      r1,[r1,#0]
        0x0000e2c8:    6001        .`      STR      r1,[r0,#0]
        0x0000e2ca:    f2403554    @.T5    MOVW     r5,#0x354
        0x0000e2ce:    f64f46b8    O..F    MOV      r6,#0xfcb8
        0x0000e2d2:    f2c40502    ....    MOVT     r5,#0x4002
        0x0000e2d6:    f6cf76ff    ...v    MOVT     r6,#0xffff
        0x0000e2da:    59a8        .Y      LDR      r0,[r5,r6]
        0x0000e2dc:    f2410700    A...    MOVW     r7,#0x1000
        0x0000e2e0:    b2c0        ..      UXTB     r0,r0
        0x0000e2e2:    2812        .(      CMP      r0,#0x12
        0x0000e2e4:    f2c40702    ....    MOVT     r7,#0x4002
        0x0000e2e8:    d108        ..      BNE      0xe2fc ; am_hal_pwrctrl_low_power_init + 78
        0x0000e2ea:    6878        xh      LDR      r0,[r7,#4]
        0x0000e2ec:    07c0        ..      LSLS     r0,r0,#31
        0x0000e2ee:    d005        ..      BEQ      0xe2fc ; am_hal_pwrctrl_low_power_init + 78
        0x0000e2f0:    200d        .       MOVS     r0,#0xd
        0x0000e2f2:    f000f8b5    ....    BL       am_hal_pwrctrl_periph_enable ; 0xe460
        0x0000e2f6:    4604        .F      MOV      r4,r0
        0x0000e2f8:    2800        .(      CMP      r0,#0
        0x0000e2fa:    d16a        j.      BNE      0xe3d2 ; am_hal_pwrctrl_low_power_init + 292
        0x0000e2fc:    59a8        .Y      LDR      r0,[r5,r6]
        0x0000e2fe:    b2c0        ..      UXTB     r0,r0
        0x0000e300:    2821        !(      CMP      r0,#0x21
        0x0000e302:    d324        $.      BCC      0xe34e ; am_hal_pwrctrl_low_power_init + 160
        0x0000e304:    6828        (h      LDR      r0,[r5,#0]
        0x0000e306:    2102        .!      MOVS     r1,#2
        0x0000e308:    f3614013    a..@    BFI      r0,r1,#16,#4
        0x0000e30c:    6028        (`      STR      r0,[r5,#0]
        0x0000e30e:    682a        *h      LDR      r2,[r5,#0]
        0x0000e310:    2003        .       MOVS     r0,#3
        0x0000e312:    f3605217    `..R    BFI      r2,r0,#20,#4
        0x0000e316:    602a        *`      STR      r2,[r5,#0]
        0x0000e318:    686a        jh      LDR      r2,[r5,#4]
        0x0000e31a:    2305        .#      MOVS     r3,#5
        0x0000e31c:    f3630203    c...    BFI      r2,r3,#0,#4
        0x0000e320:    606a        j`      STR      r2,[r5,#4]
        0x0000e322:    686a        jh      LDR      r2,[r5,#4]
        0x0000e324:    f3611207    a...    BFI      r2,r1,#4,#4
        0x0000e328:    606a        j`      STR      r2,[r5,#4]
        0x0000e32a:    6869        ih      LDR      r1,[r5,#4]
        0x0000e32c:    2206        ."      MOVS     r2,#6
        0x0000e32e:    f362210b    b..!    BFI      r1,r2,#8,#4
        0x0000e332:    6069        i`      STR      r1,[r5,#4]
        0x0000e334:    6869        ih      LDR      r1,[r5,#4]
        0x0000e336:    2201        ."      MOVS     r2,#1
        0x0000e338:    f362310f    b..1    BFI      r1,r2,#12,#4
        0x0000e33c:    6069        i`      STR      r1,[r5,#4]
        0x0000e33e:    6869        ih      LDR      r1,[r5,#4]
        0x0000e340:    f36061de    `..a    BFI      r1,r0,#27,#4
        0x0000e344:    6069        i`      STR      r1,[r5,#4]
        0x0000e346:    68a9        .h      LDR      r1,[r5,#8]
        0x0000e348:    f3600103    `...    BFI      r1,r0,#0,#4
        0x0000e34c:    60a9        .`      STR      r1,[r5,#8]
        0x0000e34e:    59a8        .Y      LDR      r0,[r5,r6]
        0x0000e350:    f00000fe    ....    AND      r0,r0,#0xfe
        0x0000e354:    2812        .(      CMP      r0,#0x12
        0x0000e356:    d303        ..      BCC      0xe360 ; am_hal_pwrctrl_low_power_init + 178
        0x0000e358:    68a8        .h      LDR      r0,[r5,#8]
        0x0000e35a:    f0207080     ..p    BIC      r0,r0,#0x1000000
        0x0000e35e:    60a8        .`      STR      r0,[r5,#8]
        0x0000e360:    200c        .       MOVS     r0,#0xc
        0x0000e362:    2100        .!      MOVS     r1,#0
        0x0000e364:    2400        .$      MOVS     r4,#0
        0x0000e366:    f7fffb5d    ..].    BL       am_hal_cachectrl_control ; 0xda24
        0x0000e36a:    69b8        .i      LDR      r0,[r7,#0x18]
        0x0000e36c:    05c0        ..      LSLS     r0,r0,#23
        0x0000e36e:    d430        0.      BMI      0xe3d2 ; am_hal_pwrctrl_low_power_init + 292
        0x0000e370:    f7ffff74    ..t.    BL       am_hal_pwrctrl_blebuck_trim ; 0xe25c
        0x0000e374:    f64f40c4    O..@    MOV      r0,#0xfcc4
        0x0000e378:    f6cf70ff    ...p    MOVT     r0,#0xffff
        0x0000e37c:    582a        *X      LDR      r2,[r5,r0]
        0x0000e37e:    f5a5714f    ..Oq    SUB      r1,r5,#0x33c
        0x0000e382:    f0420201    B...    ORR      r2,r2,#1
        0x0000e386:    502a        *P      STR      r2,[r5,r0]
        0x0000e388:    2401        .$      MOVS     r4,#1
        0x0000e38a:    f2427010    B..p    MOV      r0,#0x2710
        0x0000e38e:    2207        ."      MOVS     r2,#7
        0x0000e390:    2307        .#      MOVS     r3,#7
        0x0000e392:    9400        ..      STR      r4,[sp,#0]
        0x0000e394:    f7fffcca    ....    BL       am_hal_flash_delay_status_check ; 0xdd2c
        0x0000e398:    b108        ..      CBZ      r0,0xe39e ; am_hal_pwrctrl_low_power_init + 240
        0x0000e39a:    2404        .$      MOVS     r4,#4
        0x0000e39c:    e019        ..      B        0xe3d2 ; am_hal_pwrctrl_low_power_init + 292
        0x0000e39e:    6838        8h      LDR      r0,[r7,#0]
        0x0000e3a0:    f0400001    @...    ORR      r0,r0,#1
        0x0000e3a4:    6038        8`      STR      r0,[r7,#0]
        0x0000e3a6:    6a78        xj      LDR      r0,[r7,#0x24]
        0x0000e3a8:    f0400040    @.@.    ORR      r0,r0,#0x40
        0x0000e3ac:    6278        xb      STR      r0,[r7,#0x24]
        0x0000e3ae:    59a8        .Y      LDR      r0,[r5,r6]
        0x0000e3b0:    b2c0        ..      UXTB     r0,r0
        0x0000e3b2:    2811        .(      CMP      r0,#0x11
        0x0000e3b4:    d10c        ..      BNE      0xe3d0 ; am_hal_pwrctrl_low_power_init + 290
        0x0000e3b6:    68a8        .h      LDR      r0,[r5,#8]
        0x0000e3b8:    210f        .!      MOVS     r1,#0xf
        0x0000e3ba:    f42000c0     ...    BIC      r0,r0,#0x600000
        0x0000e3be:    60a8        .`      STR      r0,[r5,#8]
        0x0000e3c0:    6968        hi      LDR      r0,[r5,#0x14]
        0x0000e3c2:    f361108b    a...    BFI      r0,r1,#6,#6
        0x0000e3c6:    6168        ha      STR      r0,[r5,#0x14]
        0x0000e3c8:    6968        hi      LDR      r0,[r5,#0x14]
        0x0000e3ca:    f3610005    a...    BFI      r0,r1,#0,#6
        0x0000e3ce:    6168        ha      STR      r0,[r5,#0x14]
        0x0000e3d0:    2400        .$      MOVS     r4,#0
        0x0000e3d2:    4620         F      MOV      r0,r4
        0x0000e3d4:    b001        ..      ADD      sp,sp,#4
        0x0000e3d6:    bdf0        ..      POP      {r4-r7,pc}
    am_hal_pwrctrl_periph_disable
        0x0000e3d8:    b5f0        ..      PUSH     {r4-r7,lr}
        0x0000e3da:    b081        ..      SUB      sp,sp,#4
        0x0000e3dc:    f2410508    A...    MOV      r5,#0x1008
        0x0000e3e0:    4604        .F      MOV      r4,r0
        0x0000e3e2:    f2c40502    ....    MOVT     r5,#0x4002
        0x0000e3e6:    f7fffe67    ..g.    BL       am_hal_interrupt_master_disable ; 0xe0b8
        0x0000e3ea:    f642113c    B.<.    MOV      r1,#0x293c
        0x0000e3ee:    9000        ..      STR      r0,[sp,#0]
        0x0000e3f0:    eb040044    ..D.    ADD      r0,r4,r4,LSL #1
        0x0000e3f4:    f2c00101    ....    MOVT     r1,#1
        0x0000e3f8:    eb010680    ....    ADD      r6,r1,r0,LSL #2
        0x0000e3fc:    f8564b04    V..K    LDR      r4,[r6],#4
        0x0000e400:    6828        (h      LDR      r0,[r5,#0]
        0x0000e402:    43a0        .C      BICS     r0,r0,r4
        0x0000e404:    6028        (`      STR      r0,[r5,#0]
        0x0000e406:    9800        ..      LDR      r0,[sp,#0]
        0x0000e408:    f7fffe5e    ..^.    BL       am_hal_interrupt_master_set ; 0xe0c8
        0x0000e40c:    6836        6h      LDR      r6,[r6,#0]
        0x0000e40e:    2700        .'      MOVS     r7,#0
        0x0000e410:    20a0        .       MOVS     r0,#0xa0
        0x0000e412:    f7fffc75    ..u.    BL       am_hal_flash_delay ; 0xdd00
        0x0000e416:    6928        (i      LDR      r0,[r5,#0x10]
        0x0000e418:    4206        .B      TST      r6,r0
        0x0000e41a:    d003        ..      BEQ      0xe424 ; am_hal_pwrctrl_periph_disable + 76
        0x0000e41c:    2f0a        ./      CMP      r7,#0xa
        0x0000e41e:    f107070a    ....    ADD      r7,r7,#0xa
        0x0000e422:    d3f5        ..      BCC      0xe410 ; am_hal_pwrctrl_periph_disable + 56
        0x0000e424:    6928        (i      LDR      r0,[r5,#0x10]
        0x0000e426:    4206        .B      TST      r6,r0
        0x0000e428:    d00b        ..      BEQ      0xe442 ; am_hal_pwrctrl_periph_disable + 106
        0x0000e42a:    6828        (h      LDR      r0,[r5,#0]
        0x0000e42c:    2e10        ..      CMP      r6,#0x10
        0x0000e42e:    d00a        ..      BEQ      0xe446 ; am_hal_pwrctrl_periph_disable + 110
        0x0000e430:    2e08        ..      CMP      r6,#8
        0x0000e432:    d00f        ..      BEQ      0xe454 ; am_hal_pwrctrl_periph_disable + 124
        0x0000e434:    2e04        ..      CMP      r6,#4
        0x0000e436:    d110        ..      BNE      0xe45a ; am_hal_pwrctrl_periph_disable + 130
        0x0000e438:    f2405181    @..Q    MOV      r1,#0x581
        0x0000e43c:    4208        .B      TST      r0,r1
        0x0000e43e:    d105        ..      BNE      0xe44c ; am_hal_pwrctrl_periph_disable + 116
        0x0000e440:    e00b        ..      B        0xe45a ; am_hal_pwrctrl_periph_disable + 130
        0x0000e442:    2000        .       MOVS     r0,#0
        0x0000e444:    e00a        ..      B        0xe45c ; am_hal_pwrctrl_periph_disable + 132
        0x0000e446:    f0100f70    ..p.    TST      r0,#0x70
        0x0000e44a:    d006        ..      BEQ      0xe45a ; am_hal_pwrctrl_periph_disable + 130
        0x0000e44c:    4020         @      ANDS     r0,r0,r4
        0x0000e44e:    bf18        ..      IT       NE
        0x0000e450:    2001        .       MOVNE    r0,#1
        0x0000e452:    e003        ..      B        0xe45c ; am_hal_pwrctrl_periph_disable + 132
        0x0000e454:    f0100f0e    ....    TST      r0,#0xe
        0x0000e458:    d1f8        ..      BNE      0xe44c ; am_hal_pwrctrl_periph_disable + 116
        0x0000e45a:    2001        .       MOVS     r0,#1
        0x0000e45c:    b001        ..      ADD      sp,sp,#4
        0x0000e45e:    bdf0        ..      POP      {r4-r7,pc}
    am_hal_pwrctrl_periph_enable
        0x0000e460:    b5f0        ..      PUSH     {r4-r7,lr}
        0x0000e462:    b083        ..      SUB      sp,sp,#0xc
        0x0000e464:    f2410508    A...    MOV      r5,#0x1008
        0x0000e468:    4604        .F      MOV      r4,r0
        0x0000e46a:    f2c40502    ....    MOVT     r5,#0x4002
        0x0000e46e:    f7fffe23    ..#.    BL       am_hal_interrupt_master_disable ; 0xe0b8
        0x0000e472:    f642113c    B.<.    MOV      r1,#0x293c
        0x0000e476:    9002        ..      STR      r0,[sp,#8]
        0x0000e478:    eb040044    ..D.    ADD      r0,r4,r4,LSL #1
        0x0000e47c:    f2c00101    ....    MOVT     r1,#1
        0x0000e480:    eb010680    ....    ADD      r6,r1,r0,LSL #2
        0x0000e484:    f8564b04    V..K    LDR      r4,[r6],#4
        0x0000e488:    6828        (h      LDR      r0,[r5,#0]
        0x0000e48a:    4320         C      ORRS     r0,r0,r4
        0x0000e48c:    6028        (`      STR      r0,[r5,#0]
        0x0000e48e:    9802        ..      LDR      r0,[sp,#8]
        0x0000e490:    f7fffe1a    ....    BL       am_hal_interrupt_master_set ; 0xe0c8
        0x0000e494:    6836        6h      LDR      r6,[r6,#0]
        0x0000e496:    2700        .'      MOVS     r7,#0
        0x0000e498:    20a0        .       MOVS     r0,#0xa0
        0x0000e49a:    f7fffc31    ..1.    BL       am_hal_flash_delay ; 0xdd00
        0x0000e49e:    6928        (i      LDR      r0,[r5,#0x10]
        0x0000e4a0:    4206        .B      TST      r6,r0
        0x0000e4a2:    d103        ..      BNE      0xe4ac ; am_hal_pwrctrl_periph_enable + 76
        0x0000e4a4:    2f0a        ./      CMP      r7,#0xa
        0x0000e4a6:    f107070a    ....    ADD      r7,r7,#0xa
        0x0000e4aa:    d3f5        ..      BCC      0xe498 ; am_hal_pwrctrl_periph_enable + 56
        0x0000e4ac:    6928        (i      LDR      r0,[r5,#0x10]
        0x0000e4ae:    4206        .B      TST      r6,r0
        0x0000e4b0:    d001        ..      BEQ      0xe4b6 ; am_hal_pwrctrl_periph_enable + 86
        0x0000e4b2:    2000        .       MOVS     r0,#0
        0x0000e4b4:    e009        ..      B        0xe4ca ; am_hal_pwrctrl_periph_enable + 106
        0x0000e4b6:    f7fffdff    ....    BL       am_hal_interrupt_master_disable ; 0xe0b8
        0x0000e4ba:    9001        ..      STR      r0,[sp,#4]
        0x0000e4bc:    6828        (h      LDR      r0,[r5,#0]
        0x0000e4be:    43a0        .C      BICS     r0,r0,r4
        0x0000e4c0:    6028        (`      STR      r0,[r5,#0]
        0x0000e4c2:    9801        ..      LDR      r0,[sp,#4]
        0x0000e4c4:    f7fffe00    ....    BL       am_hal_interrupt_master_set ; 0xe0c8
        0x0000e4c8:    2001        .       MOVS     r0,#1
        0x0000e4ca:    b003        ..      ADD      sp,sp,#0xc
        0x0000e4cc:    bdf0        ..      POP      {r4-r7,pc}
    am_hal_queue_init
        0x0000e4ce:    f04f0c00    O...    MOV      r12,#0
        0x0000e4d2:    f8c0c000    ....    STR      r12,[r0,#0]
        0x0000e4d6:    f8c0c004    ....    STR      r12,[r0,#4]
        0x0000e4da:    f8c0c008    ....    STR      r12,[r0,#8]
        0x0000e4de:    e9c03203    ...2    STRD     r3,r2,[r0,#0xc]
        0x0000e4e2:    6141        Aa      STR      r1,[r0,#0x14]
        0x0000e4e4:    4770        pG      BX       lr
        0x0000e4e6:    0000        ..      MOVS     r0,r0
    am_hal_queue_item_add
        0x0000e4e8:    b5f0        ..      PUSH     {r4-r7,lr}
        0x0000e4ea:    b081        ..      SUB      sp,sp,#4
        0x0000e4ec:    4604        .F      MOV      r4,r0
        0x0000e4ee:    6900        .i      LDR      r0,[r0,#0x10]
        0x0000e4f0:    460d        .F      MOV      r5,r1
        0x0000e4f2:    fb00f702    ....    MUL      r7,r0,r2
        0x0000e4f6:    f7fffddf    ....    BL       am_hal_interrupt_master_disable ; 0xe0b8
        0x0000e4fa:    9000        ..      STR      r0,[sp,#0]
        0x0000e4fc:    68e1        .h      LDR      r1,[r4,#0xc]
        0x0000e4fe:    68a0        .h      LDR      r0,[r4,#8]
        0x0000e500:    eba10c00    ....    SUB      r12,r1,r0
        0x0000e504:    45bc        .E      CMP      r12,r7
        0x0000e506:    d318        ..      BCC      0xe53a ; am_hal_queue_item_add + 82
        0x0000e508:    b1a7        ..      CBZ      r7,0xe534 ; am_hal_queue_item_add + 76
        0x0000e50a:    462a        *F      MOV      r2,r5
        0x0000e50c:    463b        ;F      MOV      r3,r7
        0x0000e50e:    bf00        ..      NOP      
        0x0000e510:    b125        %.      CBZ      r5,0xe51c ; am_hal_queue_item_add + 52
        0x0000e512:    7811        .x      LDRB     r1,[r2,#0]
        0x0000e514:    6960        `i      LDR      r0,[r4,#0x14]
        0x0000e516:    6826        &h      LDR      r6,[r4,#0]
        0x0000e518:    5581        .U      STRB     r1,[r0,r6]
        0x0000e51a:    68e1        .h      LDR      r1,[r4,#0xc]
        0x0000e51c:    6820         h      LDR      r0,[r4,#0]
        0x0000e51e:    3b01        .;      SUBS     r3,#1
        0x0000e520:    f1000001    ....    ADD      r0,r0,#1
        0x0000e524:    fbb0f6f1    ....    UDIV     r6,r0,r1
        0x0000e528:    f1020201    ....    ADD      r2,r2,#1
        0x0000e52c:    fb060011    ....    MLS      r0,r6,r1,r0
        0x0000e530:    6020         `      STR      r0,[r4,#0]
        0x0000e532:    d1ed        ..      BNE      0xe510 ; am_hal_queue_item_add + 40
        0x0000e534:    68a1        .h      LDR      r1,[r4,#8]
        0x0000e536:    4439        9D      ADD      r1,r1,r7
        0x0000e538:    60a1        .`      STR      r1,[r4,#8]
        0x0000e53a:    9800        ..      LDR      r0,[sp,#0]
        0x0000e53c:    2400        .$      MOVS     r4,#0
        0x0000e53e:    45bc        .E      CMP      r12,r7
        0x0000e540:    bf28        (.      IT       CS
        0x0000e542:    2401        .$      MOVCS    r4,#1
        0x0000e544:    f7fffdc0    ....    BL       am_hal_interrupt_master_set ; 0xe0c8
        0x0000e548:    4620         F      MOV      r0,r4
        0x0000e54a:    b001        ..      ADD      sp,sp,#4
        0x0000e54c:    bdf0        ..      POP      {r4-r7,pc}
        0x0000e54e:    0000        ..      MOVS     r0,r0
    am_hal_queue_item_get
        0x0000e550:    b5f0        ..      PUSH     {r4-r7,lr}
        0x0000e552:    b081        ..      SUB      sp,sp,#4
        0x0000e554:    4604        .F      MOV      r4,r0
        0x0000e556:    6900        .i      LDR      r0,[r0,#0x10]
        0x0000e558:    460d        .F      MOV      r5,r1
        0x0000e55a:    fb00f702    ....    MUL      r7,r0,r2
        0x0000e55e:    f7fffdab    ....    BL       am_hal_interrupt_master_disable ; 0xe0b8
        0x0000e562:    9000        ..      STR      r0,[sp,#0]
        0x0000e564:    f8d4c008    ....    LDR      r12,[r4,#8]
        0x0000e568:    45bc        .E      CMP      r12,r7
        0x0000e56a:    d317        ..      BCC      0xe59c ; am_hal_queue_item_get + 76
        0x0000e56c:    b19f        ..      CBZ      r7,0xe596 ; am_hal_queue_item_get + 70
        0x0000e56e:    4629        )F      MOV      r1,r5
        0x0000e570:    463a        :F      MOV      r2,r7
        0x0000e572:    bf00        ..      NOP      
        0x0000e574:    b11d        ..      CBZ      r5,0xe57e ; am_hal_queue_item_get + 46
        0x0000e576:    6863        ch      LDR      r3,[r4,#4]
        0x0000e578:    6960        `i      LDR      r0,[r4,#0x14]
        0x0000e57a:    5cc0        .\      LDRB     r0,[r0,r3]
        0x0000e57c:    7008        .p      STRB     r0,[r1,#0]
        0x0000e57e:    6860        `h      LDR      r0,[r4,#4]
        0x0000e580:    68e3        .h      LDR      r3,[r4,#0xc]
        0x0000e582:    3001        .0      ADDS     r0,#1
        0x0000e584:    fbb0f6f3    ....    UDIV     r6,r0,r3
        0x0000e588:    3a01        .:      SUBS     r2,#1
        0x0000e58a:    fb060013    ....    MLS      r0,r6,r3,r0
        0x0000e58e:    f1010101    ....    ADD      r1,r1,#1
        0x0000e592:    6060        ``      STR      r0,[r4,#4]
        0x0000e594:    d1ee        ..      BNE      0xe574 ; am_hal_queue_item_get + 36
        0x0000e596:    68a1        .h      LDR      r1,[r4,#8]
        0x0000e598:    1bc9        ..      SUBS     r1,r1,r7
        0x0000e59a:    60a1        .`      STR      r1,[r4,#8]
        0x0000e59c:    9800        ..      LDR      r0,[sp,#0]
        0x0000e59e:    2400        .$      MOVS     r4,#0
        0x0000e5a0:    45bc        .E      CMP      r12,r7
        0x0000e5a2:    bf28        (.      IT       CS
        0x0000e5a4:    2401        .$      MOVCS    r4,#1
        0x0000e5a6:    f7fffd8f    ....    BL       am_hal_interrupt_master_set ; 0xe0c8
        0x0000e5aa:    4620         F      MOV      r0,r4
        0x0000e5ac:    b001        ..      ADD      sp,sp,#4
        0x0000e5ae:    bdf0        ..      POP      {r4-r7,pc}
    am_hal_reset_control
        0x0000e5b0:    2803        .(      CMP      r0,#3
        0x0000e5b2:    bf84        ..      ITT      HI
        0x0000e5b4:    2006        .       MOVHI    r0,#6
        0x0000e5b6:    4770        pG      BXHI     lr
        0x0000e5b8:    e8dff000    ....    TBB      [pc,r0]
    $d.4
        0x0000e5bc:    0f081502    ....    DCD    252187906
    $t.5
        0x0000e5c0:    2004        .       MOVS     r0,#4
        0x0000e5c2:    f2c40000    ....    MOVT     r0,#0x4000
        0x0000e5c6:    21d4        .!      MOVS     r1,#0xd4
        0x0000e5c8:    6041        A`      STR      r1,[r0,#4]
        0x0000e5ca:    e011        ..      B        0xe5f0 ; am_hal_reset_control + 64
        0x0000e5cc:    f24f0100    O...    MOVW     r1,#0xf000
        0x0000e5d0:    f6c471ff    ...q    MOVT     r1,#0x4fff
        0x0000e5d4:    2000        .       MOVS     r0,#0
        0x0000e5d6:    6008        .`      STR      r0,[r1,#0]
        0x0000e5d8:    4770        pG      BX       lr
        0x0000e5da:    2004        .       MOVS     r0,#4
        0x0000e5dc:    f2c40000    ....    MOVT     r0,#0x4000
        0x0000e5e0:    2101        .!      MOVS     r1,#1
        0x0000e5e2:    6101        .a      STR      r1,[r0,#0x10]
        0x0000e5e4:    e004        ..      B        0xe5f0 ; am_hal_reset_control + 64
        0x0000e5e6:    2004        .       MOVS     r0,#4
        0x0000e5e8:    f2c40000    ....    MOVT     r0,#0x4000
        0x0000e5ec:    211b        .!      MOVS     r1,#0x1b
        0x0000e5ee:    6001        .`      STR      r1,[r0,#0]
        0x0000e5f0:    2000        .       MOVS     r0,#0
        0x0000e5f2:    4770        pG      BX       lr
    am_hal_rtc_osc_disable
        0x0000e5f4:    f2442050    D.P     MOV      r0,#0x4250
        0x0000e5f8:    f2c40000    ....    MOVT     r0,#0x4000
        0x0000e5fc:    6801        .h      LDR      r1,[r0,#0]
        0x0000e5fe:    f0410110    A...    ORR      r1,r1,#0x10
        0x0000e602:    6001        .`      STR      r1,[r0,#0]
        0x0000e604:    4770        pG      BX       lr
    am_hal_tpiu_enable
        0x0000e606:    b570        p.      PUSH     {r4-r6,lr}
        0x0000e608:    b084        ..      SUB      sp,sp,#0x10
        0x0000e60a:    6806        .h      LDR      r6,[r0,#0]
        0x0000e60c:    f6407400    @..t    MOVW     r4,#0xf00
        0x0000e610:    2504        .%      MOVS     r5,#4
        0x0000e612:    f2ce0404    ....    MOVT     r4,#0xe004
        0x0000e616:    f2ce0504    ....    MOVT     r5,#0xe004
        0x0000e61a:    2200        ."      MOVS     r2,#0
        0x0000e61c:    f8c52300    ...#    STR      r2,[r5,#0x300]
        0x0000e620:    b1ce        ..      CBZ      r6,0xe656 ; am_hal_tpiu_enable + 80
        0x0000e622:    2001        .       MOVS     r0,#1
        0x0000e624:    6028        (`      STR      r0,[r5,#0]
        0x0000e626:    a801        ..      ADD      r0,sp,#4
        0x0000e628:    f7fffb4e    ..N.    BL       am_hal_clkgen_status_get ; 0xdcc8
        0x0000e62c:    9801        ..      LDR      r0,[sp,#4]
        0x0000e62e:    1c41        A.      ADDS     r1,r0,#1
        0x0000e630:    d01f        ..      BEQ      0xe672 ; am_hal_tpiu_enable + 108
        0x0000e632:    f24a3280    J..2    MOV      r2,#0xa380
        0x0000e636:    f5a64161    ..aA    SUB      r1,r6,#0xe100
        0x0000e63a:    f2c0021d    ....    MOVT     r2,#0x1d
        0x0000e63e:    08c0        ..      LSRS     r0,r0,#3
        0x0000e640:    4291        .B      CMP      r1,r2
        0x0000e642:    bf84        ..      ITT      HI
        0x0000e644:    f2442640    D.@&    MOVHI    r6,#0x4240
        0x0000e648:    f2c0060f    ....    MOVTHI   r6,#0xf
        0x0000e64c:    fbb0f0f6    ....    UDIV     r0,r0,r6
        0x0000e650:    3801        .8      SUBS     r0,#1
        0x0000e652:    b280        ..      UXTH     r0,r0
        0x0000e654:    e00e        ..      B        0xe674 ; am_hal_tpiu_enable + 110
        0x0000e656:    e9d01301    ....    LDRD     r1,r3,[r0,#4]
        0x0000e65a:    e9d00603    ....    LDRD     r0,r6,[r0,#0xc]
        0x0000e65e:    60ee        .`      STR      r6,[r5,#0xc]
        0x0000e660:    f8c530ec    ...0    STR      r3,[r5,#0xec]
        0x0000e664:    3801        .8      SUBS     r0,#1
        0x0000e666:    2301        .#      MOVS     r3,#1
        0x0000e668:    fa03f000    ....    LSL      r0,r3,r0
        0x0000e66c:    6028        (`      STR      r0,[r5,#0]
        0x0000e66e:    6022        "`      STR      r2,[r4,#0]
        0x0000e670:    e008        ..      B        0xe684 ; am_hal_tpiu_enable + 126
        0x0000e672:    2005        .       MOVS     r0,#5
        0x0000e674:    60e8        .`      STR      r0,[r5,#0xc]
        0x0000e676:    2002        .       MOVS     r0,#2
        0x0000e678:    f8c500ec    ....    STR      r0,[r5,#0xec]
        0x0000e67c:    2000        .       MOVS     r0,#0
        0x0000e67e:    6020         `      STR      r0,[r4,#0]
        0x0000e680:    f2402101    @..!    MOV      r1,#0x201
        0x0000e684:    f2402050    @.P     MOVW     r0,#0x250
        0x0000e688:    f2c40002    ....    MOVT     r0,#0x4002
        0x0000e68c:    6001        .`      STR      r1,[r0,#0]
        0x0000e68e:    f44f7048    O.Hp    MOV      r0,#0x320
        0x0000e692:    f7fffb35    ..5.    BL       am_hal_flash_delay ; 0xdd00
        0x0000e696:    b004        ..      ADD      sp,sp,#0x10
        0x0000e698:    bd70        p.      POP      {r4-r6,pc}
        0x0000e69a:    0000        ..      MOVS     r0,r0
    am_hal_uart_configure
        0x0000e69c:    e92d4ff0    -..O    PUSH     {r4-r11,lr}
        0x0000e6a0:    b083        ..      SUB      sp,sp,#0xc
        0x0000e6a2:    4604        .F      MOV      r4,r0
        0x0000e6a4:    6800        .h      LDR      r0,[r0,#0]
        0x0000e6a6:    f6496a06    I..j    MOV      r10,#0x9e06
        0x0000e6aa:    f2c01aea    ....    MOVT     r10,#0x1ea
        0x0000e6ae:    f020407e     .~@    BIC      r0,r0,#0xfe000000
        0x0000e6b2:    4550        PE      CMP      r0,r10
        0x0000e6b4:    d10e        ..      BNE      0xe6d4 ; am_hal_uart_configure + 56
        0x0000e6b6:    6a60        `j      LDR      r0,[r4,#0x24]
        0x0000e6b8:    f24c0900    L...    MOVW     r9,#0xc000
        0x0000e6bc:    f2c40901    ....    MOVT     r9,#0x4001
        0x0000e6c0:    eb093700    ...7    ADD      r7,r9,r0,LSL #12
        0x0000e6c4:    2000        .       MOVS     r0,#0
        0x0000e6c6:    6338        8c      STR      r0,[r7,#0x30]
        0x0000e6c8:    f8945064    ..dP    LDRB     r5,[r4,#0x64]
        0x0000e6cc:    2d05        .-      CMP      r5,#5
        0x0000e6ce:    d906        ..      BLS      0xe6de ; am_hal_uart_configure + 66
        0x0000e6d0:    2606        .&      MOVS     r6,#6
        0x0000e6d2:    e000        ..      B        0xe6d6 ; am_hal_uart_configure + 58
        0x0000e6d4:    2602        .&      MOVS     r6,#2
        0x0000e6d6:    4630        0F      MOV      r0,r6
        0x0000e6d8:    b003        ..      ADD      sp,sp,#0xc
        0x0000e6da:    e8bd8ff0    ....    POP      {r4-r11,pc}
        0x0000e6de:    f240080c    @...    MOVW     r8,#0xc
        0x0000e6e2:    2603        .&      MOVS     r6,#3
        0x0000e6e4:    468b        .F      MOV      r11,r1
        0x0000e6e6:    f2c40802    ....    MOVT     r8,#0x4002
        0x0000e6ea:    f6c00600    ....    MOVT     r6,#0x800
        0x0000e6ee:    f7fffce3    ....    BL       am_hal_interrupt_master_disable ; 0xe0b8
        0x0000e6f2:    9002        ..      STR      r0,[sp,#8]
        0x0000e6f4:    6b38        8k      LDR      r0,[r7,#0x30]
        0x0000e6f6:    2170        p!      MOVS     r1,#0x70
        0x0000e6f8:    f0400008    @...    ORR      r0,r0,#8
        0x0000e6fc:    6338        8c      STR      r0,[r7,#0x30]
        0x0000e6fe:    6b38        8k      LDR      r0,[r7,#0x30]
        0x0000e700:    eb011105    ....    ADD      r1,r1,r5,LSL #4
        0x0000e704:    f0010170    ..p.    AND      r1,r1,#0x70
        0x0000e708:    f0200070     .p.    BIC      r0,r0,#0x70
        0x0000e70c:    2d00        .-      CMP      r5,#0
        0x0000e70e:    bf08        ..      IT       EQ
        0x0000e710:    2110        .!      MOVEQ    r1,#0x10
        0x0000e712:    4408        .D      ADD      r0,r0,r1
        0x0000e714:    6338        8c      STR      r0,[r7,#0x30]
        0x0000e716:    9802        ..      LDR      r0,[sp,#8]
        0x0000e718:    f7fffcd6    ....    BL       am_hal_interrupt_master_set ; 0xe0c8
        0x0000e71c:    f7fffccc    ....    BL       am_hal_interrupt_master_disable ; 0xe0b8
        0x0000e720:    9001        ..      STR      r0,[sp,#4]
        0x0000e722:    6b38        8k      LDR      r0,[r7,#0x30]
        0x0000e724:    f0200001     ...    BIC      r0,r0,#1
        0x0000e728:    6338        8c      STR      r0,[r7,#0x30]
        0x0000e72a:    6b38        8k      LDR      r0,[r7,#0x30]
        0x0000e72c:    f4207000     ..p    BIC      r0,r0,#0x200
        0x0000e730:    6338        8c      STR      r0,[r7,#0x30]
        0x0000e732:    6b38        8k      LDR      r0,[r7,#0x30]
        0x0000e734:    f4207080     ..p    BIC      r0,r0,#0x100
        0x0000e738:    6338        8c      STR      r0,[r7,#0x30]
        0x0000e73a:    9801        ..      LDR      r0,[sp,#4]
        0x0000e73c:    f7fffcc4    ....    BL       am_hal_interrupt_master_set ; 0xe0c8
        0x0000e740:    f8db0000    ....    LDR      r0,[r11,#0]
        0x0000e744:    f8d81000    ....    LDR      r1,[r8,#0]
        0x0000e748:    f5b02f61    ..a/    CMP      r0,#0xe1000
        0x0000e74c:    d902        ..      BLS      0xe754 ; am_hal_uart_configure + 184
        0x0000e74e:    b2c9        ..      UXTB     r1,r1
        0x0000e750:    2912        .)      CMP      r1,#0x12
        0x0000e752:    d0c0        ..      BEQ      0xe6d6 ; am_hal_uart_configure + 58
        0x0000e754:    f24e3261    N.a2    MOV      r2,#0xe361
        0x0000e758:    f8d81000    ....    LDR      r1,[r8,#0]
        0x0000e75c:    f2c00216    ....    MOVT     r2,#0x16
        0x0000e760:    4290        .B      CMP      r0,r2
        0x0000e762:    d302        ..      BCC      0xe76a ; am_hal_uart_configure + 206
        0x0000e764:    b2c9        ..      UXTB     r1,r1
        0x0000e766:    2920         )      CMP      r1,#0x20
        0x0000e768:    d8b5        ..      BHI      0xe6d6 ; am_hal_uart_configure + 58
        0x0000e76a:    6b39        9k      LDR      r1,[r7,#0x30]
        0x0000e76c:    f3c11102    ....    UBFX     r1,r1,#4,#3
        0x0000e770:    3901        .9      SUBS     r1,#1
        0x0000e772:    2904        .)      CMP      r1,#4
        0x0000e774:    d208        ..      BCS      0xe788 ; am_hal_uart_configure + 236
        0x0000e776:    a24f        O.      ADR      r2,{pc}+0x13e ; 0xe8b4
        0x0000e778:    f8521021    R.!.    LDR      r1,[r2,r1,LSL #2]
        0x0000e77c:    ebb11f00    ....    CMP      r1,r0,LSL #4
        0x0000e780:    d206        ..      BCS      0xe790 ; am_hal_uart_configure + 244
        0x0000e782:    2000        .       MOVS     r0,#0
        0x0000e784:    6620         f      STR      r0,[r4,#0x60]
        0x0000e786:    e7a6        ..      B        0xe6d6 ; am_hal_uart_configure + 58
        0x0000e788:    2000        .       MOVS     r0,#0
        0x0000e78a:    6620         f      STR      r0,[r4,#0x60]
        0x0000e78c:    3e01        .>      SUBS     r6,#1
        0x0000e78e:    e7a2        ..      B        0xe6d6 ; am_hal_uart_configure + 58
        0x0000e790:    0100        ..      LSLS     r0,r0,#4
        0x0000e792:    018b        ..      LSLS     r3,r1,#6
        0x0000e794:    fbb1f2f0    ....    UDIV     r2,r1,r0
        0x0000e798:    fbb3f0f0    ....    UDIV     r0,r3,r0
        0x0000e79c:    627a        zb      STR      r2,[r7,#0x24]
        0x0000e79e:    eba01082    ....    SUB      r0,r0,r2,LSL #6
        0x0000e7a2:    0883        ..      LSRS     r3,r0,#2
        0x0000e7a4:    627a        zb      STR      r2,[r7,#0x24]
        0x0000e7a6:    eb031202    ....    ADD      r2,r3,r2,LSL #4
        0x0000e7aa:    fbb1f1f2    ....    UDIV     r1,r1,r2
        0x0000e7ae:    62b8        .b      STR      r0,[r7,#0x28]
        0x0000e7b0:    6621        !f      STR      r1,[r4,#0x60]
        0x0000e7b2:    6b38        8k      LDR      r0,[r7,#0x30]
        0x0000e7b4:    f10b0204    ....    ADD      r2,r11,#4
        0x0000e7b8:    f4204080     ..@    BIC      r0,r0,#0x4000
        0x0000e7bc:    6338        8c      STR      r0,[r7,#0x30]
        0x0000e7be:    6b38        8k      LDR      r0,[r7,#0x30]
        0x0000e7c0:    f4204000     ..@    BIC      r0,r0,#0x8000
        0x0000e7c4:    6338        8c      STR      r0,[r7,#0x30]
        0x0000e7c6:    f8db0010    ....    LDR      r0,[r11,#0x10]
        0x0000e7ca:    6b39        9k      LDR      r1,[r7,#0x30]
        0x0000e7cc:    4308        .C      ORRS     r0,r0,r1
        0x0000e7ce:    6338        8c      STR      r0,[r7,#0x30]
        0x0000e7d0:    f8db0014    ....    LDR      r0,[r11,#0x14]
        0x0000e7d4:    6378        xc      STR      r0,[r7,#0x34]
        0x0000e7d6:    ca07        ..      LDM      r2,{r0-r2}
        0x0000e7d8:    4308        .C      ORRS     r0,r0,r1
        0x0000e7da:    4310        .C      ORRS     r0,r0,r2
        0x0000e7dc:    f0400010    @...    ORR      r0,r0,#0x10
        0x0000e7e0:    62f8        .b      STR      r0,[r7,#0x2c]
        0x0000e7e2:    f7fffc69    ..i.    BL       am_hal_interrupt_master_disable ; 0xe0b8
        0x0000e7e6:    9000        ..      STR      r0,[sp,#0]
        0x0000e7e8:    6b38        8k      LDR      r0,[r7,#0x30]
        0x0000e7ea:    f0400001    @...    ORR      r0,r0,#1
        0x0000e7ee:    6338        8c      STR      r0,[r7,#0x30]
        0x0000e7f0:    6b38        8k      LDR      r0,[r7,#0x30]
        0x0000e7f2:    f4407000    @..p    ORR      r0,r0,#0x200
        0x0000e7f6:    6338        8c      STR      r0,[r7,#0x30]
        0x0000e7f8:    6b38        8k      LDR      r0,[r7,#0x30]
        0x0000e7fa:    f4407080    @..p    ORR      r0,r0,#0x100
        0x0000e7fe:    6338        8c      STR      r0,[r7,#0x30]
        0x0000e800:    9800        ..      LDR      r0,[sp,#0]
        0x0000e802:    f7fffc61    ..a.    BL       am_hal_interrupt_master_set ; 0xe0c8
        0x0000e806:    6820         h      LDR      r0,[r4,#0]
        0x0000e808:    f020407e     .~@    BIC      r0,r0,#0xfe000000
        0x0000e80c:    4550        PE      CMP      r0,r10
        0x0000e80e:    d14f        O.      BNE      0xe8b0 ; am_hal_uart_configure + 532
        0x0000e810:    f8db1018    ....    LDR      r1,[r11,#0x18]
        0x0000e814:    e9db6808    ...h    LDRD     r6,r8,[r11,#0x20]
        0x0000e818:    b1b1        ..      CBZ      r1,0xe848 ; am_hal_uart_configure + 428
        0x0000e81a:    f8db301c    ...0    LDR      r3,[r11,#0x1c]
        0x0000e81e:    b19b        ..      CBZ      r3,0xe848 ; am_hal_uart_configure + 428
        0x0000e820:    2001        .       MOVS     r0,#1
        0x0000e822:    f8840028    ..(.    STRB     r0,[r4,#0x28]
        0x0000e826:    f104002c    ..,.    ADD      r0,r4,#0x2c
        0x0000e82a:    2201        ."      MOVS     r2,#1
        0x0000e82c:    f7fffe4f    ..O.    BL       am_hal_queue_init ; 0xe4ce
        0x0000e830:    6820         h      LDR      r0,[r4,#0]
        0x0000e832:    f020407e     .~@    BIC      r0,r0,#0xfe000000
        0x0000e836:    4550        PE      CMP      r0,r10
        0x0000e838:    d13a        :.      BNE      0xe8b0 ; am_hal_uart_configure + 532
        0x0000e83a:    6a60        `j      LDR      r0,[r4,#0x24]
        0x0000e83c:    eb093000    ...0    ADD      r0,r9,r0,LSL #12
        0x0000e840:    6b81        .k      LDR      r1,[r0,#0x38]
        0x0000e842:    f0410120    A. .    ORR      r1,r1,#0x20
        0x0000e846:    e008        ..      B        0xe85a ; am_hal_uart_configure + 446
        0x0000e848:    6a61        aj      LDR      r1,[r4,#0x24]
        0x0000e84a:    2000        .       MOVS     r0,#0
        0x0000e84c:    f8840028    ..(.    STRB     r0,[r4,#0x28]
        0x0000e850:    eb093001    ...0    ADD      r0,r9,r1,LSL #12
        0x0000e854:    6b81        .k      LDR      r1,[r0,#0x38]
        0x0000e856:    f0210120    !. .    BIC      r1,r1,#0x20
        0x0000e85a:    6381        .c      STR      r1,[r0,#0x38]
        0x0000e85c:    b1c6        ..      CBZ      r6,0xe890 ; am_hal_uart_configure + 500
        0x0000e85e:    f1b80f00    ....    CMP      r8,#0
        0x0000e862:    d015        ..      BEQ      0xe890 ; am_hal_uart_configure + 500
        0x0000e864:    2001        .       MOVS     r0,#1
        0x0000e866:    f8840044    ..D.    STRB     r0,[r4,#0x44]
        0x0000e86a:    f1040048    ..H.    ADD      r0,r4,#0x48
        0x0000e86e:    4631        1F      MOV      r1,r6
        0x0000e870:    2201        ."      MOVS     r2,#1
        0x0000e872:    4643        CF      MOV      r3,r8
        0x0000e874:    f7fffe2b    ..+.    BL       am_hal_queue_init ; 0xe4ce
        0x0000e878:    6820         h      LDR      r0,[r4,#0]
        0x0000e87a:    f020407e     .~@    BIC      r0,r0,#0xfe000000
        0x0000e87e:    4550        PE      CMP      r0,r10
        0x0000e880:    d116        ..      BNE      0xe8b0 ; am_hal_uart_configure + 532
        0x0000e882:    6a60        `j      LDR      r0,[r4,#0x24]
        0x0000e884:    eb093000    ...0    ADD      r0,r9,r0,LSL #12
        0x0000e888:    6b81        .k      LDR      r1,[r0,#0x38]
        0x0000e88a:    f0410150    A.P.    ORR      r1,r1,#0x50
        0x0000e88e:    e00e        ..      B        0xe8ae ; am_hal_uart_configure + 530
        0x0000e890:    6820         h      LDR      r0,[r4,#0]
        0x0000e892:    2600        .&      MOVS     r6,#0
        0x0000e894:    f020407e     .~@    BIC      r0,r0,#0xfe000000
        0x0000e898:    4550        PE      CMP      r0,r10
        0x0000e89a:    f8846044    ..D`    STRB     r6,[r4,#0x44]
        0x0000e89e:    f47faf1a    ....    BNE      0xe6d6 ; am_hal_uart_configure + 58
        0x0000e8a2:    6a60        `j      LDR      r0,[r4,#0x24]
        0x0000e8a4:    eb093000    ...0    ADD      r0,r9,r0,LSL #12
        0x0000e8a8:    6b81        .k      LDR      r1,[r0,#0x38]
        0x0000e8aa:    f0210150    !.P.    BIC      r1,r1,#0x50
        0x0000e8ae:    6381        .c      STR      r1,[r0,#0x38]
        0x0000e8b0:    2600        .&      MOVS     r6,#0
        0x0000e8b2:    e710        ..      B        0xe6d6 ; am_hal_uart_configure + 58
    $d.5
        0x0000e8b4:    016e3600    .6n.    DCD    24000000
        0x0000e8b8:    00b71b00    ....    DCD    12000000
        0x0000e8bc:    005b8d80    ..[.    DCD    6000000
        0x0000e8c0:    002dc6c0    ..-.    DCD    3000000
    $t.0
    am_hal_uart_initialize
        0x0000e8c4:    b580        ..      PUSH     {r7,lr}
        0x0000e8c6:    2801        .(      CMP      r0,#1
        0x0000e8c8:    bf84        ..      ITT      HI
        0x0000e8ca:    2005        .       MOVHI    r0,#5
        0x0000e8cc:    bd80        ..      POPHI    {r7,pc}
        0x0000e8ce:    b309        ..      CBZ      r1,0xe914 ; am_hal_uart_initialize + 80
        0x0000e8d0:    f2426ce0    B..l    MOV      r12,#0x26e0
        0x0000e8d4:    f04f0e68    O.h.    MOV      lr,#0x68
        0x0000e8d8:    f2c10c00    ....    MOVT     r12,#0x1000
        0x0000e8dc:    fb00f20e    ....    MUL      r2,r0,lr
        0x0000e8e0:    f85c2002    \..     LDR      r2,[r12,r2]
        0x0000e8e4:    01d3        ..      LSLS     r3,r2,#7
        0x0000e8e6:    bf44        D.      ITT      MI
        0x0000e8e8:    2007        .       MOVMI    r0,#7
        0x0000e8ea:    bd80        ..      POPMI    {r7,pc}
        0x0000e8ec:    fb00cc0e    ....    MLA      r12,r0,lr,r12
        0x0000e8f0:    f6496306    I..c    MOV      r3,#0x9e06
        0x0000e8f4:    f2c013ea    ....    MOVT     r3,#0x1ea
        0x0000e8f8:    f3630218    c...    BFI      r2,r3,#0,#25
        0x0000e8fc:    f8cc0024    ..$.    STR      r0,[r12,#0x24]
        0x0000e900:    2000        .       MOVS     r0,#0
        0x0000e902:    f8cc2000    ...     STR      r2,[r12,#0]
        0x0000e906:    f88c0004    ....    STRB     r0,[r12,#4]
        0x0000e90a:    f8cc0060    ..`.    STR      r0,[r12,#0x60]
        0x0000e90e:    f8c1c000    ....    STR      r12,[r1,#0]
        0x0000e912:    bd80        ..      POP      {r7,pc}
        0x0000e914:    2006        .       MOVS     r0,#6
        0x0000e916:    bd80        ..      POP      {r7,pc}
    am_hal_uart_interrupt_clear
        0x0000e918:    6802        .h      LDR      r2,[r0,#0]
        0x0000e91a:    f6496306    I..c    MOV      r3,#0x9e06
        0x0000e91e:    f022427e    ".~B    BIC      r2,r2,#0xfe000000
        0x0000e922:    f2c013ea    ....    MOVT     r3,#0x1ea
        0x0000e926:    429a        .B      CMP      r2,r3
        0x0000e928:    bf1c        ..      ITT      NE
        0x0000e92a:    2002        .       MOVNE    r0,#2
        0x0000e92c:    4770        pG      BXNE     lr
        0x0000e92e:    6a40        @j      LDR      r0,[r0,#0x24]
        0x0000e930:    f24c0244    L.D.    MOV      r2,#0xc044
        0x0000e934:    0300        ..      LSLS     r0,r0,#12
        0x0000e936:    f2c40201    ....    MOVT     r2,#0x4001
        0x0000e93a:    5011        .P      STR      r1,[r2,r0]
        0x0000e93c:    2000        .       MOVS     r0,#0
        0x0000e93e:    4770        pG      BX       lr
    am_hal_uart_interrupt_enable
        0x0000e940:    6802        .h      LDR      r2,[r0,#0]
        0x0000e942:    f6496306    I..c    MOV      r3,#0x9e06
        0x0000e946:    f022427e    ".~B    BIC      r2,r2,#0xfe000000
        0x0000e94a:    f2c013ea    ....    MOVT     r3,#0x1ea
        0x0000e94e:    429a        .B      CMP      r2,r3
        0x0000e950:    bf1c        ..      ITT      NE
        0x0000e952:    2002        .       MOVNE    r0,#2
        0x0000e954:    4770        pG      BXNE     lr
        0x0000e956:    6a40        @j      LDR      r0,[r0,#0x24]
        0x0000e958:    f24c0238    L.8.    MOV      r2,#0xc038
        0x0000e95c:    0300        ..      LSLS     r0,r0,#12
        0x0000e95e:    f2c40201    ....    MOVT     r2,#0x4001
        0x0000e962:    5813        .X      LDR      r3,[r2,r0]
        0x0000e964:    4319        .C      ORRS     r1,r1,r3
        0x0000e966:    5011        .P      STR      r1,[r2,r0]
        0x0000e968:    2000        .       MOVS     r0,#0
        0x0000e96a:    4770        pG      BX       lr
    am_hal_uart_interrupt_service
        0x0000e96c:    b5f0        ..      PUSH     {r4-r7,lr}
        0x0000e96e:    b081        ..      SUB      sp,sp,#4
        0x0000e970:    4605        .F      MOV      r5,r0
        0x0000e972:    6800        .h      LDR      r0,[r0,#0]
        0x0000e974:    4614        .F      MOV      r4,r2
        0x0000e976:    f6496206    I..b    MOV      r2,#0x9e06
        0x0000e97a:    f020407e     .~@    BIC      r0,r0,#0xfe000000
        0x0000e97e:    f2c012ea    ....    MOVT     r2,#0x1ea
        0x0000e982:    4290        .B      CMP      r0,r2
        0x0000e984:    d123        #.      BNE      0xe9ce ; am_hal_uart_interrupt_service + 98
        0x0000e986:    6a6f        oj      LDR      r7,[r5,#0x24]
        0x0000e988:    460e        .F      MOV      r6,r1
        0x0000e98a:    f0110f50    ..P.    TST      r1,#0x50
        0x0000e98e:    d006        ..      BEQ      0xe99e ; am_hal_uart_interrupt_service + 50
        0x0000e990:    f8950044    ..D.    LDRB     r0,[r5,#0x44]
        0x0000e994:    b118        ..      CBZ      r0,0xe99e ; am_hal_uart_interrupt_service + 50
        0x0000e996:    4628        (F      MOV      r0,r5
        0x0000e998:    f001feb4    ....    BL       rx_queue_update ; 0x10704
        0x0000e99c:    bb28        (.      CBNZ     r0,0xe9ea ; am_hal_uart_interrupt_service + 126
        0x0000e99e:    06b0        ..      LSLS     r0,r6,#26
        0x0000e9a0:    d505        ..      BPL      0xe9ae ; am_hal_uart_interrupt_service + 66
        0x0000e9a2:    f8950028    ..(.    LDRB     r0,[r5,#0x28]
        0x0000e9a6:    b110        ..      CBZ      r0,0xe9ae ; am_hal_uart_interrupt_service + 66
        0x0000e9a8:    4628        (F      MOV      r0,r5
        0x0000e9aa:    f001ff5b    ..[.    BL       tx_queue_update ; 0x10864
        0x0000e9ae:    b1dc        ..      CBZ      r4,0xe9e8 ; am_hal_uart_interrupt_service + 124
        0x0000e9b0:    f8950028    ..(.    LDRB     r0,[r5,#0x28]
        0x0000e9b4:    b168        h.      CBZ      r0,0xe9d2 ; am_hal_uart_interrupt_service + 102
        0x0000e9b6:    6b68        hk      LDR      r0,[r5,#0x34]
        0x0000e9b8:    b9b0        ..      CBNZ     r0,0xe9e8 ; am_hal_uart_interrupt_service + 124
        0x0000e9ba:    f24c0000    L...    MOVW     r0,#0xc000
        0x0000e9be:    f2c40001    ....    MOVT     r0,#0x4001
        0x0000e9c2:    eb003007    ...0    ADD      r0,r0,r7,LSL #12
        0x0000e9c6:    6980        .i      LDR      r0,[r0,#0x18]
        0x0000e9c8:    0700        ..      LSLS     r0,r0,#28
        0x0000e9ca:    d50b        ..      BPL      0xe9e4 ; am_hal_uart_interrupt_service + 120
        0x0000e9cc:    e00c        ..      B        0xe9e8 ; am_hal_uart_interrupt_service + 124
        0x0000e9ce:    2002        .       MOVS     r0,#2
        0x0000e9d0:    e00b        ..      B        0xe9ea ; am_hal_uart_interrupt_service + 126
        0x0000e9d2:    f24c0000    L...    MOVW     r0,#0xc000
        0x0000e9d6:    f2c40001    ....    MOVT     r0,#0x4001
        0x0000e9da:    eb003007    ...0    ADD      r0,r0,r7,LSL #12
        0x0000e9de:    6980        .i      LDR      r0,[r0,#0x18]
        0x0000e9e0:    0700        ..      LSLS     r0,r0,#28
        0x0000e9e2:    d404        ..      BMI      0xe9ee ; am_hal_uart_interrupt_service + 130
        0x0000e9e4:    2001        .       MOVS     r0,#1
        0x0000e9e6:    6020         `      STR      r0,[r4,#0]
        0x0000e9e8:    2000        .       MOVS     r0,#0
        0x0000e9ea:    b001        ..      ADD      sp,sp,#4
        0x0000e9ec:    bdf0        ..      POP      {r4-r7,pc}
        0x0000e9ee:    2000        .       MOVS     r0,#0
        0x0000e9f0:    6020         `      STR      r0,[r4,#0]
        0x0000e9f2:    e7fa        ..      B        0xe9ea ; am_hal_uart_interrupt_service + 126
    am_hal_uart_interrupt_status_get
        0x0000e9f4:    6803        .h      LDR      r3,[r0,#0]
        0x0000e9f6:    f0234c7e    #.~L    BIC      r12,r3,#0xfe000000
        0x0000e9fa:    f6496306    I..c    MOV      r3,#0x9e06
        0x0000e9fe:    f2c013ea    ....    MOVT     r3,#0x1ea
        0x0000ea02:    459c        .E      CMP      r12,r3
        0x0000ea04:    bf1c        ..      ITT      NE
        0x0000ea06:    2002        .       MOVNE    r0,#2
        0x0000ea08:    4770        pG      BXNE     lr
        0x0000ea0a:    6a40        @j      LDR      r0,[r0,#0x24]
        0x0000ea0c:    233c        <#      MOVS     r3,#0x3c
        0x0000ea0e:    2a00        .*      CMP      r2,#0
        0x0000ea10:    f24c0200    L...    MOVW     r2,#0xc000
        0x0000ea14:    bf18        ..      IT       NE
        0x0000ea16:    2340        @#      MOVNE    r3,#0x40
        0x0000ea18:    ea433000    C..0    ORR      r0,r3,r0,LSL #12
        0x0000ea1c:    f2c40201    ....    MOVT     r2,#0x4001
        0x0000ea20:    5880        .X      LDR      r0,[r0,r2]
        0x0000ea22:    6008        .`      STR      r0,[r1,#0]
        0x0000ea24:    2000        .       MOVS     r0,#0
        0x0000ea26:    4770        pG      BX       lr
    am_hal_uart_power_control
        0x0000ea28:    e92d41f0    -..A    PUSH     {r4-r8,lr}
        0x0000ea2c:    b082        ..      SUB      sp,sp,#8
        0x0000ea2e:    4604        .F      MOV      r4,r0
        0x0000ea30:    6800        .h      LDR      r0,[r0,#0]
        0x0000ea32:    f6496706    I..g    MOV      r7,#0x9e06
        0x0000ea36:    f2c017ea    ....    MOVT     r7,#0x1ea
        0x0000ea3a:    f020437e     .~C    BIC      r3,r0,#0xfe000000
        0x0000ea3e:    42bb        .B      CMP      r3,r7
        0x0000ea40:    d135        5.      BNE      0xeaae ; am_hal_uart_power_control + 134
        0x0000ea42:    6a65        ej      LDR      r5,[r4,#0x24]
        0x0000ea44:    1e4b        K.      SUBS     r3,r1,#1
        0x0000ea46:    2b02        .+      CMP      r3,#2
        0x0000ea48:    f1050608    ....    ADD      r6,r5,#8
        0x0000ea4c:    d234        4.      BCS      0xeab8 ; am_hal_uart_power_control + 144
        0x0000ea4e:    f24c0800    L...    MOVW     r8,#0xc000
        0x0000ea52:    f2c40801    ....    MOVT     r8,#0x4001
        0x0000ea56:    b1c2        ..      CBZ      r2,0xea8a ; am_hal_uart_power_control + 98
        0x0000ea58:    f7fffb2e    ....    BL       am_hal_interrupt_master_disable ; 0xe0b8
        0x0000ea5c:    9000        ..      STR      r0,[sp,#0]
        0x0000ea5e:    eb083005    ...0    ADD      r0,r8,r5,LSL #12
        0x0000ea62:    6a01        .j      LDR      r1,[r0,#0x20]
        0x0000ea64:    60a1        .`      STR      r1,[r4,#8]
        0x0000ea66:    6a41        Aj      LDR      r1,[r0,#0x24]
        0x0000ea68:    60e1        .`      STR      r1,[r4,#0xc]
        0x0000ea6a:    6a81        .j      LDR      r1,[r0,#0x28]
        0x0000ea6c:    6121        !a      STR      r1,[r4,#0x10]
        0x0000ea6e:    6ac1        .j      LDR      r1,[r0,#0x2c]
        0x0000ea70:    6161        aa      STR      r1,[r4,#0x14]
        0x0000ea72:    6b01        .k      LDR      r1,[r0,#0x30]
        0x0000ea74:    61a1        .a      STR      r1,[r4,#0x18]
        0x0000ea76:    6b41        Ak      LDR      r1,[r0,#0x34]
        0x0000ea78:    61e1        .a      STR      r1,[r4,#0x1c]
        0x0000ea7a:    6b80        .k      LDR      r0,[r0,#0x38]
        0x0000ea7c:    6220         b      STR      r0,[r4,#0x20]
        0x0000ea7e:    2001        .       MOVS     r0,#1
        0x0000ea80:    7120         q      STRB     r0,[r4,#4]
        0x0000ea82:    9800        ..      LDR      r0,[sp,#0]
        0x0000ea84:    f7fffb20    .. .    BL       am_hal_interrupt_master_set ; 0xe0c8
        0x0000ea88:    6820         h      LDR      r0,[r4,#0]
        0x0000ea8a:    f020407e     .~@    BIC      r0,r0,#0xfe000000
        0x0000ea8e:    42b8        .B      CMP      r0,r7
        0x0000ea90:    d105        ..      BNE      0xea9e ; am_hal_uart_power_control + 118
        0x0000ea92:    6a60        `j      LDR      r0,[r4,#0x24]
        0x0000ea94:    f04f31ff    O..1    MOV      r1,#0xffffffff
        0x0000ea98:    eb083000    ...0    ADD      r0,r8,r0,LSL #12
        0x0000ea9c:    6441        Ad      STR      r1,[r0,#0x44]
        0x0000ea9e:    eb083005    ...0    ADD      r0,r8,r5,LSL #12
        0x0000eaa2:    2500        .%      MOVS     r5,#0
        0x0000eaa4:    6305        .c      STR      r5,[r0,#0x30]
        0x0000eaa6:    b2f0        ..      UXTB     r0,r6
        0x0000eaa8:    f7fffc96    ....    BL       am_hal_pwrctrl_periph_disable ; 0xe3d8
        0x0000eaac:    e000        ..      B        0xeab0 ; am_hal_uart_power_control + 136
        0x0000eaae:    2502        .%      MOVS     r5,#2
        0x0000eab0:    4628        (F      MOV      r0,r5
        0x0000eab2:    b002        ..      ADD      sp,sp,#8
        0x0000eab4:    e8bd81f0    ....    POP      {r4-r8,pc}
        0x0000eab8:    bb11        ..      CBNZ     r1,0xeb00 ; am_hal_uart_power_control + 216
        0x0000eaba:    b31a        ..      CBZ      r2,0xeb04 ; am_hal_uart_power_control + 220
        0x0000eabc:    7920         y      LDRB     r0,[r4,#4]
        0x0000eabe:    b330        0.      CBZ      r0,0xeb0e ; am_hal_uart_power_control + 230
        0x0000eac0:    b2f0        ..      UXTB     r0,r6
        0x0000eac2:    f7fffccd    ....    BL       am_hal_pwrctrl_periph_enable ; 0xe460
        0x0000eac6:    f7fffaf7    ....    BL       am_hal_interrupt_master_disable ; 0xe0b8
        0x0000eaca:    9001        ..      STR      r0,[sp,#4]
        0x0000eacc:    f24c0100    L...    MOVW     r1,#0xc000
        0x0000ead0:    68a0        .h      LDR      r0,[r4,#8]
        0x0000ead2:    f2c40101    ....    MOVT     r1,#0x4001
        0x0000ead6:    eb013105    ...1    ADD      r1,r1,r5,LSL #12
        0x0000eada:    6208        .b      STR      r0,[r1,#0x20]
        0x0000eadc:    68e0        .h      LDR      r0,[r4,#0xc]
        0x0000eade:    2500        .%      MOVS     r5,#0
        0x0000eae0:    6248        Hb      STR      r0,[r1,#0x24]
        0x0000eae2:    6920         i      LDR      r0,[r4,#0x10]
        0x0000eae4:    6288        .b      STR      r0,[r1,#0x28]
        0x0000eae6:    6960        `i      LDR      r0,[r4,#0x14]
        0x0000eae8:    62c8        .b      STR      r0,[r1,#0x2c]
        0x0000eaea:    69a0        .i      LDR      r0,[r4,#0x18]
        0x0000eaec:    6308        .c      STR      r0,[r1,#0x30]
        0x0000eaee:    69e0        .i      LDR      r0,[r4,#0x1c]
        0x0000eaf0:    6348        Hc      STR      r0,[r1,#0x34]
        0x0000eaf2:    6a20         j      LDR      r0,[r4,#0x20]
        0x0000eaf4:    6388        .c      STR      r0,[r1,#0x38]
        0x0000eaf6:    7125        %q      STRB     r5,[r4,#4]
        0x0000eaf8:    9801        ..      LDR      r0,[sp,#4]
        0x0000eafa:    f7fffae5    ....    BL       am_hal_interrupt_master_set ; 0xe0c8
        0x0000eafe:    e7d7        ..      B        0xeab0 ; am_hal_uart_power_control + 136
        0x0000eb00:    2506        .%      MOVS     r5,#6
        0x0000eb02:    e7d5        ..      B        0xeab0 ; am_hal_uart_power_control + 136
        0x0000eb04:    b2f0        ..      UXTB     r0,r6
        0x0000eb06:    f7fffcab    ....    BL       am_hal_pwrctrl_periph_enable ; 0xe460
        0x0000eb0a:    2500        .%      MOVS     r5,#0
        0x0000eb0c:    e7d0        ..      B        0xeab0 ; am_hal_uart_power_control + 136
        0x0000eb0e:    2507        .%      MOVS     r5,#7
        0x0000eb10:    e7ce        ..      B        0xeab0 ; am_hal_uart_power_control + 136
        0x0000eb12:    0000        ..      MOVS     r0,r0
    am_hal_uart_transfer
        0x0000eb14:    e92d4ff0    -..O    PUSH     {r4-r11,lr}
        0x0000eb18:    b083        ..      SUB      sp,sp,#0xc
        0x0000eb1a:    680a        .h      LDR      r2,[r1,#0]
        0x0000eb1c:    4604        .F      MOV      r4,r0
        0x0000eb1e:    2a01        .*      CMP      r2,#1
        0x0000eb20:    d02e        ..      BEQ      0xeb80 ; am_hal_uart_transfer + 108
        0x0000eb22:    2a00        .*      CMP      r2,#0
        0x0000eb24:    d158        X.      BNE      0xebd8 ; am_hal_uart_transfer + 196
        0x0000eb26:    f1010a04    ....    ADD      r10,r1,#4
        0x0000eb2a:    e89a04c0    ....    LDM      r10,{r6,r7,r10}
        0x0000eb2e:    690b        .i      LDR      r3,[r1,#0x10]
        0x0000eb30:    f1ba0f00    ....    CMP      r10,#0
        0x0000eb34:    d055        U.      BEQ      0xebe2 ; am_hal_uart_transfer + 206
        0x0000eb36:    2f00        ./      CMP      r7,#0
        0x0000eb38:    d050        P.      BEQ      0xebdc ; am_hal_uart_transfer + 200
        0x0000eb3a:    f1ba38ff    ...8    SUBS     r8,r10,#0xffffffff
        0x0000eb3e:    f10d0904    ....    ADD      r9,sp,#4
        0x0000eb42:    f04f0500    O...    MOV      r5,#0
        0x0000eb46:    f04f0b00    O...    MOV      r11,#0
        0x0000eb4a:    9300        ..      STR      r3,[sp,#0]
        0x0000eb4c:    bf18        ..      IT       NE
        0x0000eb4e:    f04f0801    O...    MOVNE    r8,#1
        0x0000eb52:    bf00        ..      NOP      
        0x0000eb54:    2000        .       MOVS     r0,#0
        0x0000eb56:    9001        ..      STR      r0,[sp,#4]
        0x0000eb58:    1971        q.      ADDS     r1,r6,r5
        0x0000eb5a:    4620         F      MOV      r0,r4
        0x0000eb5c:    463a        :F      MOV      r2,r7
        0x0000eb5e:    464b        KF      MOV      r3,r9
        0x0000eb60:    f001ff52    ..R.    BL       write_nonblocking ; 0x10a08
        0x0000eb64:    9901        ..      LDR      r1,[sp,#4]
        0x0000eb66:    2800        .(      CMP      r0,#0
        0x0000eb68:    440d        .D      ADD      r5,r5,r1
        0x0000eb6a:    d146        F.      BNE      0xebfa ; am_hal_uart_transfer + 230
        0x0000eb6c:    1a7f        ..      SUBS     r7,r7,r1
        0x0000eb6e:    d048        H.      BEQ      0xec02 ; am_hal_uart_transfer + 238
        0x0000eb70:    f44f507a    O.zP    MOV      r0,#0x3e80
        0x0000eb74:    f7fff8c4    ....    BL       am_hal_flash_delay ; 0xdd00
        0x0000eb78:    44c3        .D      ADD      r11,r11,r8
        0x0000eb7a:    45d3        .E      CMP      r11,r10
        0x0000eb7c:    d3ea        ..      BCC      0xeb54 ; am_hal_uart_transfer + 64
        0x0000eb7e:    e029        ).      B        0xebd4 ; am_hal_uart_transfer + 192
        0x0000eb80:    f1010a04    ....    ADD      r10,r1,#4
        0x0000eb84:    e89a04c0    ....    LDM      r10,{r6,r7,r10}
        0x0000eb88:    690b        .i      LDR      r3,[r1,#0x10]
        0x0000eb8a:    f1ba0f00    ....    CMP      r10,#0
        0x0000eb8e:    d02e        ..      BEQ      0xebee ; am_hal_uart_transfer + 218
        0x0000eb90:    b327        '.      CBZ      r7,0xebdc ; am_hal_uart_transfer + 200
        0x0000eb92:    f1ba38ff    ...8    SUBS     r8,r10,#0xffffffff
        0x0000eb96:    f10d0908    ....    ADD      r9,sp,#8
        0x0000eb9a:    f04f0500    O...    MOV      r5,#0
        0x0000eb9e:    f04f0b00    O...    MOV      r11,#0
        0x0000eba2:    9300        ..      STR      r3,[sp,#0]
        0x0000eba4:    bf18        ..      IT       NE
        0x0000eba6:    f04f0801    O...    MOVNE    r8,#1
        0x0000ebaa:    bf00        ..      NOP      
        0x0000ebac:    2000        .       MOVS     r0,#0
        0x0000ebae:    9002        ..      STR      r0,[sp,#8]
        0x0000ebb0:    1971        q.      ADDS     r1,r6,r5
        0x0000ebb2:    4620         F      MOV      r0,r4
        0x0000ebb4:    463a        :F      MOV      r2,r7
        0x0000ebb6:    464b        KF      MOV      r3,r9
        0x0000ebb8:    f001fd54    ..T.    BL       read_nonblocking ; 0x10664
        0x0000ebbc:    9902        ..      LDR      r1,[sp,#8]
        0x0000ebbe:    440d        .D      ADD      r5,r5,r1
        0x0000ebc0:    b9d8        ..      CBNZ     r0,0xebfa ; am_hal_uart_transfer + 230
        0x0000ebc2:    1a7f        ..      SUBS     r7,r7,r1
        0x0000ebc4:    d01d        ..      BEQ      0xec02 ; am_hal_uart_transfer + 238
        0x0000ebc6:    f44f507a    O.zP    MOV      r0,#0x3e80
        0x0000ebca:    f7fff899    ....    BL       am_hal_flash_delay ; 0xdd00
        0x0000ebce:    44c3        .D      ADD      r11,r11,r8
        0x0000ebd0:    45d3        .E      CMP      r11,r10
        0x0000ebd2:    d3eb        ..      BCC      0xebac ; am_hal_uart_transfer + 152
        0x0000ebd4:    2000        .       MOVS     r0,#0
        0x0000ebd6:    e018        ..      B        0xec0a ; am_hal_uart_transfer + 246
        0x0000ebd8:    2007        .       MOVS     r0,#7
        0x0000ebda:    e021        !.      B        0xec20 ; am_hal_uart_transfer + 268
        0x0000ebdc:    2001        .       MOVS     r0,#1
        0x0000ebde:    2500        .%      MOVS     r5,#0
        0x0000ebe0:    e014        ..      B        0xec0c ; am_hal_uart_transfer + 248
        0x0000ebe2:    4620         F      MOV      r0,r4
        0x0000ebe4:    4631        1F      MOV      r1,r6
        0x0000ebe6:    463a        :F      MOV      r2,r7
        0x0000ebe8:    f001ff0e    ....    BL       write_nonblocking ; 0x10a08
        0x0000ebec:    e018        ..      B        0xec20 ; am_hal_uart_transfer + 268
        0x0000ebee:    4620         F      MOV      r0,r4
        0x0000ebf0:    4631        1F      MOV      r1,r6
        0x0000ebf2:    463a        :F      MOV      r2,r7
        0x0000ebf4:    f001fd36    ..6.    BL       read_nonblocking ; 0x10664
        0x0000ebf8:    e012        ..      B        0xec20 ; am_hal_uart_transfer + 268
        0x0000ebfa:    9900        ..      LDR      r1,[sp,#0]
        0x0000ebfc:    b181        ..      CBZ      r1,0xec20 ; am_hal_uart_transfer + 268
        0x0000ebfe:    600d        .`      STR      r5,[r1,#0]
        0x0000ec00:    e00e        ..      B        0xec20 ; am_hal_uart_transfer + 268
        0x0000ec02:    2000        .       MOVS     r0,#0
        0x0000ec04:    45d3        .E      CMP      r11,r10
        0x0000ec06:    bf38        8.      IT       CC
        0x0000ec08:    2001        .       MOVCC    r0,#1
        0x0000ec0a:    9b00        ..      LDR      r3,[sp,#0]
        0x0000ec0c:    b103        ..      CBZ      r3,0xec10 ; am_hal_uart_transfer + 252
        0x0000ec0e:    601d        .`      STR      r5,[r3,#0]
        0x0000ec10:    2104        .!      MOVS     r1,#4
        0x0000ec12:    2800        .(      CMP      r0,#0
        0x0000ec14:    bf18        ..      IT       NE
        0x0000ec16:    2100        .!      MOVNE    r1,#0
        0x0000ec18:    f1ba30ff    ...0    SUBS     r0,r10,#0xffffffff
        0x0000ec1c:    bf18        ..      IT       NE
        0x0000ec1e:    4608        .F      MOVNE    r0,r1
        0x0000ec20:    b003        ..      ADD      sp,sp,#0xc
        0x0000ec22:    e8bd8ff0    ....    POP      {r4-r11,pc}
        0x0000ec26:    0000        ..      MOVS     r0,r0
    am_uart_isr
        0x0000ec28:    b580        ..      PUSH     {r7,lr}
        0x0000ec2a:    b08a        ..      SUB      sp,sp,#0x28
        0x0000ec2c:    f6434090    C..@    MOV      r0,#0x3c90
        0x0000ec30:    f2c10000    ....    MOVT     r0,#0x1000
        0x0000ec34:    6801        .h      LDR      r1,[r0,#0]
        0x0000ec36:    f243003c    C.<.    MOV      r0,#0x303c
        0x0000ec3a:    f2c10000    ....    MOVT     r0,#0x1000
        0x0000ec3e:    4408        .D      ADD      r0,r0,r1
        0x0000ec40:    9008        ..      STR      r0,[sp,#0x20]
        0x0000ec42:    f6434040    C.@@    MOVW     r0,#0x3c40
        0x0000ec46:    f2c10000    ....    MOVT     r0,#0x1000
        0x0000ec4a:    9001        ..      STR      r0,[sp,#4]
        0x0000ec4c:    6800        .h      LDR      r0,[r0,#0]
        0x0000ec4e:    a909        ..      ADD      r1,sp,#0x24
        0x0000ec50:    2201        ."      MOVS     r2,#1
        0x0000ec52:    f7fffecf    ....    BL       am_hal_uart_interrupt_status_get ; 0xe9f4
        0x0000ec56:    9801        ..      LDR      r0,[sp,#4]
        0x0000ec58:    6800        .h      LDR      r0,[r0,#0]
        0x0000ec5a:    9909        ..      LDR      r1,[sp,#0x24]
        0x0000ec5c:    f7fffe5c    ..\.    BL       am_hal_uart_interrupt_clear ; 0xe918
        0x0000ec60:    9801        ..      LDR      r0,[sp,#4]
        0x0000ec62:    6800        .h      LDR      r0,[r0,#0]
        0x0000ec64:    9909        ..      LDR      r1,[sp,#0x24]
        0x0000ec66:    2200        ."      MOVS     r2,#0
        0x0000ec68:    f7fffe80    ....    BL       am_hal_uart_interrupt_service ; 0xe96c
        0x0000ec6c:    f89d0024    ..$.    LDRB     r0,[sp,#0x24]
        0x0000ec70:    f0100f50    ..P.    TST      r0,#0x50
        0x0000ec74:    d026        &.      BEQ      0xecc4 ; am_uart_isr + 156
        0x0000ec76:    e7ff        ..      B        0xec78 ; am_uart_isr + 80
        0x0000ec78:    2001        .       MOVS     r0,#1
        0x0000ec7a:    9002        ..      STR      r0,[sp,#8]
        0x0000ec7c:    f6434190    C..A    MOV      r1,#0x3c90
        0x0000ec80:    f2c10100    ....    MOVT     r1,#0x1000
        0x0000ec84:    9100        ..      STR      r1,[sp,#0]
        0x0000ec86:    680a        .h      LDR      r2,[r1,#0]
        0x0000ec88:    f243013c    C.<.    MOV      r1,#0x303c
        0x0000ec8c:    f2c10100    ....    MOVT     r1,#0x1000
        0x0000ec90:    4411        .D      ADD      r1,r1,r2
        0x0000ec92:    9103        ..      STR      r1,[sp,#0xc]
        0x0000ec94:    2117        .!      MOVS     r1,#0x17
        0x0000ec96:    9104        ..      STR      r1,[sp,#0x10]
        0x0000ec98:    9005        ..      STR      r0,[sp,#0x14]
        0x0000ec9a:    a807        ..      ADD      r0,sp,#0x1c
        0x0000ec9c:    9006        ..      STR      r0,[sp,#0x18]
        0x0000ec9e:    f6434040    C.@@    MOVW     r0,#0x3c40
        0x0000eca2:    f2c10000    ....    MOVT     r0,#0x1000
        0x0000eca6:    6800        .h      LDR      r0,[r0,#0]
        0x0000eca8:    a902        ..      ADD      r1,sp,#8
        0x0000ecaa:    f7ffff33    ..3.    BL       am_hal_uart_transfer ; 0xeb14
        0x0000ecae:    9808        ..      LDR      r0,[sp,#0x20]
        0x0000ecb0:    f8bd101c    ....    LDRH     r1,[sp,#0x1c]
        0x0000ecb4:    f001f978    ..x.    BL       hciUartRxIncoming ; 0xffa8
        0x0000ecb8:    9900        ..      LDR      r1,[sp,#0]
        0x0000ecba:    9a07        ..      LDR      r2,[sp,#0x1c]
        0x0000ecbc:    6808        .h      LDR      r0,[r1,#0]
        0x0000ecbe:    4410        .D      ADD      r0,r0,r2
        0x0000ecc0:    6008        .`      STR      r0,[r1,#0]
        0x0000ecc2:    e7ff        ..      B        0xecc4 ; am_uart_isr + 156
        0x0000ecc4:    b00a        ..      ADD      sp,sp,#0x28
        0x0000ecc6:    bd80        ..      POP      {r7,pc}
    am_util_ble_crystal_trim_set
        0x0000ecc8:    b580        ..      PUSH     {r7,lr}
        0x0000ecca:    b086        ..      SUB      sp,sp,#0x18
        0x0000eccc:    9005        ..      STR      r0,[sp,#0x14]
        0x0000ecce:    9104        ..      STR      r1,[sp,#0x10]
        0x0000ecd0:    9805        ..      LDR      r0,[sp,#0x14]
        0x0000ecd2:    9003        ..      STR      r0,[sp,#0xc]
        0x0000ecd4:    9804        ..      LDR      r0,[sp,#0x10]
        0x0000ecd6:    f36f20df    o..     BFC      r0,#11,#21
        0x0000ecda:    9004        ..      STR      r0,[sp,#0x10]
        0x0000ecdc:    9803        ..      LDR      r0,[sp,#0xc]
        0x0000ecde:    2104        .!      MOVS     r1,#4
        0x0000ece0:    f2c43100    ...1    MOVT     r1,#0x4300
        0x0000ece4:    9101        ..      STR      r1,[sp,#4]
        0x0000ece6:    aa02        ..      ADD      r2,sp,#8
        0x0000ece8:    f7fefc34    ..4.    BL       am_hal_ble_plf_reg_read ; 0xd554
        0x0000ecec:    9901        ..      LDR      r1,[sp,#4]
        0x0000ecee:    9803        ..      LDR      r0,[sp,#0xc]
        0x0000ecf0:    f04f32ff    O..2    MOV      r2,#0xffffffff
        0x0000ecf4:    f7fefc82    ....    BL       am_hal_ble_plf_reg_write ; 0xd5fc
        0x0000ecf8:    9803        ..      LDR      r0,[sp,#0xc]
        0x0000ecfa:    9a04        ..      LDR      r2,[sp,#0x10]
        0x0000ecfc:    2104        .!      MOVS     r1,#4
        0x0000ecfe:    f2c43180    ...1    MOVT     r1,#0x4380
        0x0000ed02:    f7fefc7b    ..{.    BL       am_hal_ble_plf_reg_write ; 0xd5fc
        0x0000ed06:    9901        ..      LDR      r1,[sp,#4]
        0x0000ed08:    9803        ..      LDR      r0,[sp,#0xc]
        0x0000ed0a:    9a02        ..      LDR      r2,[sp,#8]
        0x0000ed0c:    f7fefc76    ..v.    BL       am_hal_ble_plf_reg_write ; 0xd5fc
        0x0000ed10:    2000        .       MOVS     r0,#0
        0x0000ed12:    b006        ..      ADD      sp,sp,#0x18
        0x0000ed14:    bd80        ..      POP      {r7,pc}
        0x0000ed16:    0000        ..      MOVS     r0,r0
    am_util_ble_init_rf_channel
        0x0000ed18:    b580        ..      PUSH     {r7,lr}
        0x0000ed1a:    b08e        ..      SUB      sp,sp,#0x38
        0x0000ed1c:    900d        ..      STR      r0,[sp,#0x34]
        0x0000ed1e:    200c        .       MOVS     r0,#0xc
        0x0000ed20:    f2c40002    ....    MOVT     r0,#0x4002
        0x0000ed24:    6800        .h      LDR      r0,[r0,#0]
        0x0000ed26:    b2c0        ..      UXTB     r0,r0
        0x0000ed28:    2820         (      CMP      r0,#0x20
        0x0000ed2a:    d876        v.      BHI      0xee1a ; am_util_ble_init_rf_channel + 258
        0x0000ed2c:    e7ff        ..      B        0xed2e ; am_util_ble_init_rf_channel + 22
        0x0000ed2e:    980d        ..      LDR      r0,[sp,#0x34]
        0x0000ed30:    9004        ..      STR      r0,[sp,#0x10]
        0x0000ed32:    9804        ..      LDR      r0,[sp,#0x10]
        0x0000ed34:    6840        @h      LDR      r0,[r0,#4]
        0x0000ed36:    9002        ..      STR      r0,[sp,#8]
        0x0000ed38:    9804        ..      LDR      r0,[sp,#0x10]
        0x0000ed3a:    2100        .!      MOVS     r1,#0
        0x0000ed3c:    9101        ..      STR      r1,[sp,#4]
        0x0000ed3e:    f7fefd6f    ..o.    BL       am_hal_ble_sleep_set ; 0xd820
        0x0000ed42:    9901        ..      LDR      r1,[sp,#4]
        0x0000ed44:    2001        .       MOVS     r0,#1
        0x0000ed46:    f88d0024    ..$.    STRB     r0,[sp,#0x24]
        0x0000ed4a:    221d        ."      MOVS     r2,#0x1d
        0x0000ed4c:    f88d2025    ..%     STRB     r2,[sp,#0x25]
        0x0000ed50:    2220         "      MOVS     r2,#0x20
        0x0000ed52:    f88d2026    ..&     STRB     r2,[sp,#0x26]
        0x0000ed56:    f88d0027    ..'.    STRB     r0,[sp,#0x27]
        0x0000ed5a:    f88d1028    ..(.    STRB     r1,[sp,#0x28]
        0x0000ed5e:    f24c2020    L.      MOV      r0,#0xc220
        0x0000ed62:    f2c50000    ....    MOVT     r0,#0x5000
        0x0000ed66:    6802        .h      LDR      r2,[r0,#0]
        0x0000ed68:    9203        ..      STR      r2,[sp,#0xc]
        0x0000ed6a:    6001        .`      STR      r1,[r0,#0]
        0x0000ed6c:    9804        ..      LDR      r0,[sp,#0x10]
        0x0000ed6e:    aa09        ..      ADD      r2,sp,#0x24
        0x0000ed70:    2305        .#      MOVS     r3,#5
        0x0000ed72:    f7fdfc0e    ....    BL       am_hal_ble_blocking_hci_write ; 0xc592
        0x0000ed76:    f24c4110    L..A    MOV      r1,#0xc410
        0x0000ed7a:    f2c50100    ....    MOVT     r1,#0x5000
        0x0000ed7e:    6808        .h      LDR      r0,[r1,#0]
        0x0000ed80:    f0400002    @...    ORR      r0,r0,#2
        0x0000ed84:    6008        .`      STR      r0,[r1,#0]
        0x0000ed86:    e7ff        ..      B        0xed88 ; am_util_ble_init_rf_channel + 112
        0x0000ed88:    f24c300c    L..0    MOV      r0,#0xc30c
        0x0000ed8c:    f2c50000    ....    MOVT     r0,#0x5000
        0x0000ed90:    6800        .h      LDR      r0,[r0,#0]
        0x0000ed92:    09c0        ..      LSRS     r0,r0,#7
        0x0000ed94:    07c0        ..      LSLS     r0,r0,#31
        0x0000ed96:    b908        ..      CBNZ     r0,0xed9c ; am_util_ble_init_rf_channel + 132
        0x0000ed98:    e7ff        ..      B        0xed9a ; am_util_ble_init_rf_channel + 130
        0x0000ed9a:    e7f5        ..      B        0xed88 ; am_util_ble_init_rf_channel + 112
        0x0000ed9c:    9804        ..      LDR      r0,[sp,#0x10]
        0x0000ed9e:    a905        ..      ADD      r1,sp,#0x14
        0x0000eda0:    2200        ."      MOVS     r2,#0
        0x0000eda2:    9200        ..      STR      r2,[sp,#0]
        0x0000eda4:    f7fdfbb7    ....    BL       am_hal_ble_blocking_hci_read ; 0xc516
        0x0000eda8:    200a        .       MOVS     r0,#0xa
        0x0000edaa:    f000f9a5    ....    BL       am_util_delay_ms ; 0xf0f8
        0x0000edae:    9900        ..      LDR      r1,[sp,#0]
        0x0000edb0:    2001        .       MOVS     r0,#1
        0x0000edb2:    f88d0024    ..$.    STRB     r0,[sp,#0x24]
        0x0000edb6:    201f        .       MOVS     r0,#0x1f
        0x0000edb8:    f88d0025    ..%.    STRB     r0,[sp,#0x25]
        0x0000edbc:    2020                MOVS     r0,#0x20
        0x0000edbe:    f88d0026    ..&.    STRB     r0,[sp,#0x26]
        0x0000edc2:    f88d1027    ..'.    STRB     r1,[sp,#0x27]
        0x0000edc6:    9804        ..      LDR      r0,[sp,#0x10]
        0x0000edc8:    aa09        ..      ADD      r2,sp,#0x24
        0x0000edca:    2304        .#      MOVS     r3,#4
        0x0000edcc:    f7fdfbe1    ....    BL       am_hal_ble_blocking_hci_write ; 0xc592
        0x0000edd0:    f24c4110    L..A    MOV      r1,#0xc410
        0x0000edd4:    f2c50100    ....    MOVT     r1,#0x5000
        0x0000edd8:    6808        .h      LDR      r0,[r1,#0]
        0x0000edda:    f0400002    @...    ORR      r0,r0,#2
        0x0000edde:    6008        .`      STR      r0,[r1,#0]
        0x0000ede0:    e7ff        ..      B        0xede2 ; am_util_ble_init_rf_channel + 202
        0x0000ede2:    f24c300c    L..0    MOV      r0,#0xc30c
        0x0000ede6:    f2c50000    ....    MOVT     r0,#0x5000
        0x0000edea:    6800        .h      LDR      r0,[r0,#0]
        0x0000edec:    09c0        ..      LSRS     r0,r0,#7
        0x0000edee:    07c0        ..      LSLS     r0,r0,#31
        0x0000edf0:    b908        ..      CBNZ     r0,0xedf6 ; am_util_ble_init_rf_channel + 222
        0x0000edf2:    e7ff        ..      B        0xedf4 ; am_util_ble_init_rf_channel + 220
        0x0000edf4:    e7f5        ..      B        0xede2 ; am_util_ble_init_rf_channel + 202
        0x0000edf6:    9804        ..      LDR      r0,[sp,#0x10]
        0x0000edf8:    a905        ..      ADD      r1,sp,#0x14
        0x0000edfa:    2200        ."      MOVS     r2,#0
        0x0000edfc:    f7fdfb8b    ....    BL       am_hal_ble_blocking_hci_read ; 0xc516
        0x0000ee00:    9803        ..      LDR      r0,[sp,#0xc]
        0x0000ee02:    f24c2128    L.(!    MOV      r1,#0xc228
        0x0000ee06:    f2c50100    ....    MOVT     r1,#0x5000
        0x0000ee0a:    6008        .`      STR      r0,[r1,#0]
        0x0000ee0c:    9803        ..      LDR      r0,[sp,#0xc]
        0x0000ee0e:    f24c2120    L. !    MOV      r1,#0xc220
        0x0000ee12:    f2c50100    ....    MOVT     r1,#0x5000
        0x0000ee16:    6008        .`      STR      r0,[r1,#0]
        0x0000ee18:    e7ff        ..      B        0xee1a ; am_util_ble_init_rf_channel + 258
        0x0000ee1a:    2000        .       MOVS     r0,#0
        0x0000ee1c:    b00e        ..      ADD      sp,sp,#0x38
        0x0000ee1e:    bd80        ..      POP      {r7,pc}
    am_util_ble_set_carrier_wave_ex
        0x0000ee20:    b580        ..      PUSH     {r7,lr}
        0x0000ee22:    b092        ..      SUB      sp,sp,#0x48
        0x0000ee24:    9010        ..      STR      r0,[sp,#0x40]
        0x0000ee26:    f88d103f    ..?.    STRB     r1,[sp,#0x3f]
        0x0000ee2a:    9810        ..      LDR      r0,[sp,#0x40]
        0x0000ee2c:    9006        ..      STR      r0,[sp,#0x18]
        0x0000ee2e:    f89d003f    ..?.    LDRB     r0,[sp,#0x3f]
        0x0000ee32:    28ff        .(      CMP      r0,#0xff
        0x0000ee34:    d108        ..      BNE      0xee48 ; am_util_ble_set_carrier_wave_ex + 40
        0x0000ee36:    e7ff        ..      B        0xee38 ; am_util_ble_set_carrier_wave_ex + 24
        0x0000ee38:    9806        ..      LDR      r0,[sp,#0x18]
        0x0000ee3a:    2100        .!      MOVS     r1,#0
        0x0000ee3c:    9102        ..      STR      r1,[sp,#8]
        0x0000ee3e:    f000f925    ..%.    BL       am_util_ble_transmitter_control ; 0xf08c
        0x0000ee42:    9802        ..      LDR      r0,[sp,#8]
        0x0000ee44:    9011        ..      STR      r0,[sp,#0x44]
        0x0000ee46:    e06e        n.      B        0xef26 ; am_util_ble_set_carrier_wave_ex + 262
        0x0000ee48:    9806        ..      LDR      r0,[sp,#0x18]
        0x0000ee4a:    2100        .!      MOVS     r1,#0
        0x0000ee4c:    9101        ..      STR      r1,[sp,#4]
        0x0000ee4e:    f7fefce7    ....    BL       am_hal_ble_sleep_set ; 0xd820
        0x0000ee52:    9901        ..      LDR      r1,[sp,#4]
        0x0000ee54:    9806        ..      LDR      r0,[sp,#0x18]
        0x0000ee56:    6840        @h      LDR      r0,[r0,#4]
        0x0000ee58:    9004        ..      STR      r0,[sp,#0x10]
        0x0000ee5a:    2001        .       MOVS     r0,#1
        0x0000ee5c:    f88d002c    ..,.    STRB     r0,[sp,#0x2c]
        0x0000ee60:    201e        .       MOVS     r0,#0x1e
        0x0000ee62:    f88d002d    ..-.    STRB     r0,[sp,#0x2d]
        0x0000ee66:    2020                MOVS     r0,#0x20
        0x0000ee68:    f88d002e    ....    STRB     r0,[sp,#0x2e]
        0x0000ee6c:    2003        .       MOVS     r0,#3
        0x0000ee6e:    f88d002f    ../.    STRB     r0,[sp,#0x2f]
        0x0000ee72:    f89d003f    ..?.    LDRB     r0,[sp,#0x3f]
        0x0000ee76:    f88d0030    ..0.    STRB     r0,[sp,#0x30]
        0x0000ee7a:    2025        %       MOVS     r0,#0x25
        0x0000ee7c:    f88d0031    ..1.    STRB     r0,[sp,#0x31]
        0x0000ee80:    f88d1032    ..2.    STRB     r1,[sp,#0x32]
        0x0000ee84:    f24c2020    L.      MOV      r0,#0xc220
        0x0000ee88:    f2c50000    ....    MOVT     r0,#0x5000
        0x0000ee8c:    6802        .h      LDR      r2,[r0,#0]
        0x0000ee8e:    9205        ..      STR      r2,[sp,#0x14]
        0x0000ee90:    6001        .`      STR      r1,[r0,#0]
        0x0000ee92:    9806        ..      LDR      r0,[sp,#0x18]
        0x0000ee94:    aa0b        ..      ADD      r2,sp,#0x2c
        0x0000ee96:    2307        .#      MOVS     r3,#7
        0x0000ee98:    f7fdfb7b    ..{.    BL       am_hal_ble_blocking_hci_write ; 0xc592
        0x0000ee9c:    9801        ..      LDR      r0,[sp,#4]
        0x0000ee9e:    f24c4210    L..B    MOV      r2,#0xc410
        0x0000eea2:    f2c50200    ....    MOVT     r2,#0x5000
        0x0000eea6:    6811        .h      LDR      r1,[r2,#0]
        0x0000eea8:    f0410102    A...    ORR      r1,r1,#2
        0x0000eeac:    6011        .`      STR      r1,[r2,#0]
        0x0000eeae:    9003        ..      STR      r0,[sp,#0xc]
        0x0000eeb0:    e7ff        ..      B        0xeeb2 ; am_util_ble_set_carrier_wave_ex + 146
        0x0000eeb2:    9803        ..      LDR      r0,[sp,#0xc]
        0x0000eeb4:    2863        c(      CMP      r0,#0x63
        0x0000eeb6:    d81d        ..      BHI      0xeef4 ; am_util_ble_set_carrier_wave_ex + 212
        0x0000eeb8:    e7ff        ..      B        0xeeba ; am_util_ble_set_carrier_wave_ex + 154
        0x0000eeba:    f24c300c    L..0    MOV      r0,#0xc30c
        0x0000eebe:    f2c50000    ....    MOVT     r0,#0x5000
        0x0000eec2:    6800        .h      LDR      r0,[r0,#0]
        0x0000eec4:    09c0        ..      LSRS     r0,r0,#7
        0x0000eec6:    07c0        ..      LSLS     r0,r0,#31
        0x0000eec8:    b108        ..      CBZ      r0,0xeece ; am_util_ble_set_carrier_wave_ex + 174
        0x0000eeca:    e7ff        ..      B        0xeecc ; am_util_ble_set_carrier_wave_ex + 172
        0x0000eecc:    e012        ..      B        0xeef4 ; am_util_ble_set_carrier_wave_ex + 212
        0x0000eece:    9803        ..      LDR      r0,[sp,#0xc]
        0x0000eed0:    2863        c(      CMP      r0,#0x63
        0x0000eed2:    d105        ..      BNE      0xeee0 ; am_util_ble_set_carrier_wave_ex + 192
        0x0000eed4:    e7ff        ..      B        0xeed6 ; am_util_ble_set_carrier_wave_ex + 182
        0x0000eed6:    2004        .       MOVS     r0,#4
        0x0000eed8:    f6c00000    ....    MOVT     r0,#0x800
        0x0000eedc:    9011        ..      STR      r0,[sp,#0x44]
        0x0000eede:    e022        ".      B        0xef26 ; am_util_ble_set_carrier_wave_ex + 262
        0x0000eee0:    2001        .       MOVS     r0,#1
        0x0000eee2:    f000f909    ....    BL       am_util_delay_ms ; 0xf0f8
        0x0000eee6:    e7ff        ..      B        0xeee8 ; am_util_ble_set_carrier_wave_ex + 200
        0x0000eee8:    e7ff        ..      B        0xeeea ; am_util_ble_set_carrier_wave_ex + 202
        0x0000eeea:    e7ff        ..      B        0xeeec ; am_util_ble_set_carrier_wave_ex + 204
        0x0000eeec:    9803        ..      LDR      r0,[sp,#0xc]
        0x0000eeee:    3001        .0      ADDS     r0,#1
        0x0000eef0:    9003        ..      STR      r0,[sp,#0xc]
        0x0000eef2:    e7de        ..      B        0xeeb2 ; am_util_ble_set_carrier_wave_ex + 146
        0x0000eef4:    9806        ..      LDR      r0,[sp,#0x18]
        0x0000eef6:    a907        ..      ADD      r1,sp,#0x1c
        0x0000eef8:    2200        ."      MOVS     r2,#0
        0x0000eefa:    9200        ..      STR      r2,[sp,#0]
        0x0000eefc:    f7fdfb0b    ....    BL       am_hal_ble_blocking_hci_read ; 0xc516
        0x0000ef00:    9805        ..      LDR      r0,[sp,#0x14]
        0x0000ef02:    f24c2128    L.(!    MOV      r1,#0xc228
        0x0000ef06:    f2c50100    ....    MOVT     r1,#0x5000
        0x0000ef0a:    6008        .`      STR      r0,[r1,#0]
        0x0000ef0c:    9805        ..      LDR      r0,[sp,#0x14]
        0x0000ef0e:    f24c2120    L. !    MOV      r1,#0xc220
        0x0000ef12:    f2c50100    ....    MOVT     r1,#0x5000
        0x0000ef16:    6008        .`      STR      r0,[r1,#0]
        0x0000ef18:    9806        ..      LDR      r0,[sp,#0x18]
        0x0000ef1a:    2101        .!      MOVS     r1,#1
        0x0000ef1c:    f000f8b6    ....    BL       am_util_ble_transmitter_control ; 0xf08c
        0x0000ef20:    9800        ..      LDR      r0,[sp,#0]
        0x0000ef22:    9011        ..      STR      r0,[sp,#0x44]
        0x0000ef24:    e7ff        ..      B        0xef26 ; am_util_ble_set_carrier_wave_ex + 262
        0x0000ef26:    9811        ..      LDR      r0,[sp,#0x44]
        0x0000ef28:    b012        ..      ADD      sp,sp,#0x48
        0x0000ef2a:    bd80        ..      POP      {r7,pc}
    am_util_ble_set_constant_transmission
        0x0000ef2c:    b580        ..      PUSH     {r7,lr}
        0x0000ef2e:    b084        ..      SUB      sp,sp,#0x10
        0x0000ef30:    9003        ..      STR      r0,[sp,#0xc]
        0x0000ef32:    f88d100b    ....    STRB     r1,[sp,#0xb]
        0x0000ef36:    9803        ..      LDR      r0,[sp,#0xc]
        0x0000ef38:    9001        ..      STR      r0,[sp,#4]
        0x0000ef3a:    9801        ..      LDR      r0,[sp,#4]
        0x0000ef3c:    2100        .!      MOVS     r1,#0
        0x0000ef3e:    f7fefc6f    ..o.    BL       am_hal_ble_sleep_set ; 0xd820
        0x0000ef42:    9801        ..      LDR      r0,[sp,#4]
        0x0000ef44:    2104        .!      MOVS     r1,#4
        0x0000ef46:    f2c43100    ...1    MOVT     r1,#0x4300
        0x0000ef4a:    f04f32ff    O..2    MOV      r2,#0xffffffff
        0x0000ef4e:    f7fefb55    ..U.    BL       am_hal_ble_plf_reg_write ; 0xd5fc
        0x0000ef52:    f89d000b    ....    LDRB     r0,[sp,#0xb]
        0x0000ef56:    07c0        ..      LSLS     r0,r0,#31
        0x0000ef58:    b148        H.      CBZ      r0,0xef6e ; am_util_ble_set_constant_transmission + 66
        0x0000ef5a:    e7ff        ..      B        0xef5c ; am_util_ble_set_constant_transmission + 48
        0x0000ef5c:    9801        ..      LDR      r0,[sp,#4]
        0x0000ef5e:    21e0        .!      MOVS     r1,#0xe0
        0x0000ef60:    f2c50180    ....    MOVT     r1,#0x5080
        0x0000ef64:    f44f4200    O..B    MOV      r2,#0x8000
        0x0000ef68:    f7fefb48    ..H.    BL       am_hal_ble_plf_reg_write ; 0xd5fc
        0x0000ef6c:    e007        ..      B        0xef7e ; am_util_ble_set_constant_transmission + 82
        0x0000ef6e:    9801        ..      LDR      r0,[sp,#4]
        0x0000ef70:    21e0        .!      MOVS     r1,#0xe0
        0x0000ef72:    f2c50180    ....    MOVT     r1,#0x5080
        0x0000ef76:    2200        ."      MOVS     r2,#0
        0x0000ef78:    f7fefb40    ..@.    BL       am_hal_ble_plf_reg_write ; 0xd5fc
        0x0000ef7c:    e7ff        ..      B        0xef7e ; am_util_ble_set_constant_transmission + 82
        0x0000ef7e:    2000        .       MOVS     r0,#0
        0x0000ef80:    b004        ..      ADD      sp,sp,#0x10
        0x0000ef82:    bd80        ..      POP      {r7,pc}
    am_util_ble_set_constant_transmission_ex
        0x0000ef84:    b580        ..      PUSH     {r7,lr}
        0x0000ef86:    b094        ..      SUB      sp,sp,#0x50
        0x0000ef88:    9012        ..      STR      r0,[sp,#0x48]
        0x0000ef8a:    f88d1047    ..G.    STRB     r1,[sp,#0x47]
        0x0000ef8e:    9812        ..      LDR      r0,[sp,#0x48]
        0x0000ef90:    9008        ..      STR      r0,[sp,#0x20]
        0x0000ef92:    f89d0047    ..G.    LDRB     r0,[sp,#0x47]
        0x0000ef96:    28ff        .(      CMP      r0,#0xff
        0x0000ef98:    d108        ..      BNE      0xefac ; am_util_ble_set_constant_transmission_ex + 40
        0x0000ef9a:    e7ff        ..      B        0xef9c ; am_util_ble_set_constant_transmission_ex + 24
        0x0000ef9c:    9808        ..      LDR      r0,[sp,#0x20]
        0x0000ef9e:    2100        .!      MOVS     r1,#0
        0x0000efa0:    9104        ..      STR      r1,[sp,#0x10]
        0x0000efa2:    f7ffffc3    ....    BL       am_util_ble_set_constant_transmission ; 0xef2c
        0x0000efa6:    9804        ..      LDR      r0,[sp,#0x10]
        0x0000efa8:    9013        ..      STR      r0,[sp,#0x4c]
        0x0000efaa:    e06b        k.      B        0xf084 ; am_util_ble_set_constant_transmission_ex + 256
        0x0000efac:    9808        ..      LDR      r0,[sp,#0x20]
        0x0000efae:    6840        @h      LDR      r0,[r0,#4]
        0x0000efb0:    9006        ..      STR      r0,[sp,#0x18]
        0x0000efb2:    9808        ..      LDR      r0,[sp,#0x20]
        0x0000efb4:    2101        .!      MOVS     r1,#1
        0x0000efb6:    9102        ..      STR      r1,[sp,#8]
        0x0000efb8:    f7ffffb8    ....    BL       am_util_ble_set_constant_transmission ; 0xef2c
        0x0000efbc:    9802        ..      LDR      r0,[sp,#8]
        0x0000efbe:    f88d0034    ..4.    STRB     r0,[sp,#0x34]
        0x0000efc2:    201e        .       MOVS     r0,#0x1e
        0x0000efc4:    f88d0035    ..5.    STRB     r0,[sp,#0x35]
        0x0000efc8:    2020                MOVS     r0,#0x20
        0x0000efca:    f88d0036    ..6.    STRB     r0,[sp,#0x36]
        0x0000efce:    2003        .       MOVS     r0,#3
        0x0000efd0:    f88d0037    ..7.    STRB     r0,[sp,#0x37]
        0x0000efd4:    f89d0047    ..G.    LDRB     r0,[sp,#0x47]
        0x0000efd8:    f88d0038    ..8.    STRB     r0,[sp,#0x38]
        0x0000efdc:    2025        %       MOVS     r0,#0x25
        0x0000efde:    f88d0039    ..9.    STRB     r0,[sp,#0x39]
        0x0000efe2:    2100        .!      MOVS     r1,#0
        0x0000efe4:    9103        ..      STR      r1,[sp,#0xc]
        0x0000efe6:    f88d103a    ..:.    STRB     r1,[sp,#0x3a]
        0x0000efea:    f24c2020    L.      MOV      r0,#0xc220
        0x0000efee:    f2c50000    ....    MOVT     r0,#0x5000
        0x0000eff2:    6802        .h      LDR      r2,[r0,#0]
        0x0000eff4:    9207        ..      STR      r2,[sp,#0x1c]
        0x0000eff6:    6001        .`      STR      r1,[r0,#0]
        0x0000eff8:    9808        ..      LDR      r0,[sp,#0x20]
        0x0000effa:    aa0d        ..      ADD      r2,sp,#0x34
        0x0000effc:    2307        .#      MOVS     r3,#7
        0x0000effe:    f7fdfac8    ....    BL       am_hal_ble_blocking_hci_write ; 0xc592
        0x0000f002:    9803        ..      LDR      r0,[sp,#0xc]
        0x0000f004:    f24c4210    L..B    MOV      r2,#0xc410
        0x0000f008:    f2c50200    ....    MOVT     r2,#0x5000
        0x0000f00c:    6811        .h      LDR      r1,[r2,#0]
        0x0000f00e:    f0410102    A...    ORR      r1,r1,#2
        0x0000f012:    6011        .`      STR      r1,[r2,#0]
        0x0000f014:    9005        ..      STR      r0,[sp,#0x14]
        0x0000f016:    e7ff        ..      B        0xf018 ; am_util_ble_set_constant_transmission_ex + 148
        0x0000f018:    9805        ..      LDR      r0,[sp,#0x14]
        0x0000f01a:    2863        c(      CMP      r0,#0x63
        0x0000f01c:    d81d        ..      BHI      0xf05a ; am_util_ble_set_constant_transmission_ex + 214
        0x0000f01e:    e7ff        ..      B        0xf020 ; am_util_ble_set_constant_transmission_ex + 156
        0x0000f020:    f24c300c    L..0    MOV      r0,#0xc30c
        0x0000f024:    f2c50000    ....    MOVT     r0,#0x5000
        0x0000f028:    6800        .h      LDR      r0,[r0,#0]
        0x0000f02a:    09c0        ..      LSRS     r0,r0,#7
        0x0000f02c:    07c0        ..      LSLS     r0,r0,#31
        0x0000f02e:    b108        ..      CBZ      r0,0xf034 ; am_util_ble_set_constant_transmission_ex + 176
        0x0000f030:    e7ff        ..      B        0xf032 ; am_util_ble_set_constant_transmission_ex + 174
        0x0000f032:    e012        ..      B        0xf05a ; am_util_ble_set_constant_transmission_ex + 214
        0x0000f034:    9805        ..      LDR      r0,[sp,#0x14]
        0x0000f036:    2863        c(      CMP      r0,#0x63
        0x0000f038:    d105        ..      BNE      0xf046 ; am_util_ble_set_constant_transmission_ex + 194
        0x0000f03a:    e7ff        ..      B        0xf03c ; am_util_ble_set_constant_transmission_ex + 184
        0x0000f03c:    2004        .       MOVS     r0,#4
        0x0000f03e:    f6c00000    ....    MOVT     r0,#0x800
        0x0000f042:    9013        ..      STR      r0,[sp,#0x4c]
        0x0000f044:    e01e        ..      B        0xf084 ; am_util_ble_set_constant_transmission_ex + 256
        0x0000f046:    2001        .       MOVS     r0,#1
        0x0000f048:    f000f856    ..V.    BL       am_util_delay_ms ; 0xf0f8
        0x0000f04c:    e7ff        ..      B        0xf04e ; am_util_ble_set_constant_transmission_ex + 202
        0x0000f04e:    e7ff        ..      B        0xf050 ; am_util_ble_set_constant_transmission_ex + 204
        0x0000f050:    e7ff        ..      B        0xf052 ; am_util_ble_set_constant_transmission_ex + 206
        0x0000f052:    9805        ..      LDR      r0,[sp,#0x14]
        0x0000f054:    3001        .0      ADDS     r0,#1
        0x0000f056:    9005        ..      STR      r0,[sp,#0x14]
        0x0000f058:    e7de        ..      B        0xf018 ; am_util_ble_set_constant_transmission_ex + 148
        0x0000f05a:    9808        ..      LDR      r0,[sp,#0x20]
        0x0000f05c:    a909        ..      ADD      r1,sp,#0x24
        0x0000f05e:    2200        ."      MOVS     r2,#0
        0x0000f060:    9201        ..      STR      r2,[sp,#4]
        0x0000f062:    f7fdfa58    ..X.    BL       am_hal_ble_blocking_hci_read ; 0xc516
        0x0000f066:    9801        ..      LDR      r0,[sp,#4]
        0x0000f068:    9907        ..      LDR      r1,[sp,#0x1c]
        0x0000f06a:    f24c2228    L.("    MOV      r2,#0xc228
        0x0000f06e:    f2c50200    ....    MOVT     r2,#0x5000
        0x0000f072:    6011        .`      STR      r1,[r2,#0]
        0x0000f074:    9907        ..      LDR      r1,[sp,#0x1c]
        0x0000f076:    f24c2220    L. "    MOV      r2,#0xc220
        0x0000f07a:    f2c50200    ....    MOVT     r2,#0x5000
        0x0000f07e:    6011        .`      STR      r1,[r2,#0]
        0x0000f080:    9013        ..      STR      r0,[sp,#0x4c]
        0x0000f082:    e7ff        ..      B        0xf084 ; am_util_ble_set_constant_transmission_ex + 256
        0x0000f084:    9813        ..      LDR      r0,[sp,#0x4c]
        0x0000f086:    b014        ..      ADD      sp,sp,#0x50
        0x0000f088:    bd80        ..      POP      {r7,pc}
        0x0000f08a:    0000        ..      MOVS     r0,r0
    am_util_ble_transmitter_control
        0x0000f08c:    b580        ..      PUSH     {r7,lr}
        0x0000f08e:    b084        ..      SUB      sp,sp,#0x10
        0x0000f090:    9003        ..      STR      r0,[sp,#0xc]
        0x0000f092:    f88d100b    ....    STRB     r1,[sp,#0xb]
        0x0000f096:    9803        ..      LDR      r0,[sp,#0xc]
        0x0000f098:    9001        ..      STR      r0,[sp,#4]
        0x0000f09a:    9801        ..      LDR      r0,[sp,#4]
        0x0000f09c:    2100        .!      MOVS     r1,#0
        0x0000f09e:    f7fefbbf    ....    BL       am_hal_ble_sleep_set ; 0xd820
        0x0000f0a2:    f89d000b    ....    LDRB     r0,[sp,#0xb]
        0x0000f0a6:    b128        (.      CBZ      r0,0xf0b4 ; am_util_ble_transmitter_control + 40
        0x0000f0a8:    e7ff        ..      B        0xf0aa ; am_util_ble_transmitter_control + 30
        0x0000f0aa:    200a        .       MOVS     r0,#0xa
        0x0000f0ac:    f2c00002    ....    MOVT     r0,#2
        0x0000f0b0:    9000        ..      STR      r0,[sp,#0]
        0x0000f0b2:    e002        ..      B        0xf0ba ; am_util_ble_transmitter_control + 46
        0x0000f0b4:    2008        .       MOVS     r0,#8
        0x0000f0b6:    9000        ..      STR      r0,[sp,#0]
        0x0000f0b8:    e7ff        ..      B        0xf0ba ; am_util_ble_transmitter_control + 46
        0x0000f0ba:    9801        ..      LDR      r0,[sp,#4]
        0x0000f0bc:    2104        .!      MOVS     r1,#4
        0x0000f0be:    f2c43100    ...1    MOVT     r1,#0x4300
        0x0000f0c2:    f04f32ff    O..2    MOV      r2,#0xffffffff
        0x0000f0c6:    f7fefa99    ....    BL       am_hal_ble_plf_reg_write ; 0xd5fc
        0x0000f0ca:    9801        ..      LDR      r0,[sp,#4]
        0x0000f0cc:    9a00        ..      LDR      r2,[sp,#0]
        0x0000f0ce:    2100        .!      MOVS     r1,#0
        0x0000f0d0:    f2c52140    ..@!    MOVT     r1,#0x5240
        0x0000f0d4:    f7fefa92    ....    BL       am_hal_ble_plf_reg_write ; 0xd5fc
        0x0000f0d8:    2000        .       MOVS     r0,#0
        0x0000f0da:    b004        ..      ADD      sp,sp,#0x10
        0x0000f0dc:    bd80        ..      POP      {r7,pc}
        0x0000f0de:    0000        ..      MOVS     r0,r0
    am_util_ble_transmitter_control_ex
        0x0000f0e0:    b580        ..      PUSH     {r7,lr}
        0x0000f0e2:    b082        ..      SUB      sp,sp,#8
        0x0000f0e4:    9001        ..      STR      r0,[sp,#4]
        0x0000f0e6:    f88d1003    ....    STRB     r1,[sp,#3]
        0x0000f0ea:    9801        ..      LDR      r0,[sp,#4]
        0x0000f0ec:    f89d1003    ....    LDRB     r1,[sp,#3]
        0x0000f0f0:    f7fffe96    ....    BL       am_util_ble_set_carrier_wave_ex ; 0xee20
        0x0000f0f4:    b002        ..      ADD      sp,sp,#8
        0x0000f0f6:    bd80        ..      POP      {r7,pc}
    am_util_delay_ms
        0x0000f0f8:    b580        ..      PUSH     {r7,lr}
        0x0000f0fa:    b086        ..      SUB      sp,sp,#0x18
        0x0000f0fc:    9005        ..      STR      r0,[sp,#0x14]
        0x0000f0fe:    4668        hF      MOV      r0,sp
        0x0000f100:    f7fefde2    ....    BL       am_hal_clkgen_status_get ; 0xdcc8
        0x0000f104:    9800        ..      LDR      r0,[sp,#0]
        0x0000f106:    9003        ..      STR      r0,[sp,#0xc]
        0x0000f108:    9805        ..      LDR      r0,[sp,#0x14]
        0x0000f10a:    9903        ..      LDR      r1,[sp,#0xc]
        0x0000f10c:    f64112f1    A...    MOV      r2,#0x19f1
        0x0000f110:    f2c05276    ..vR    MOVT     r2,#0x576
        0x0000f114:    fba12102    ...!    UMULL    r2,r1,r1,r2
        0x0000f118:    0989        ..      LSRS     r1,r1,#6
        0x0000f11a:    4348        HC      MULS     r0,r1,r0
        0x0000f11c:    9004        ..      STR      r0,[sp,#0x10]
        0x0000f11e:    9804        ..      LDR      r0,[sp,#0x10]
        0x0000f120:    f7fefdee    ....    BL       am_hal_flash_delay ; 0xdd00
        0x0000f124:    b006        ..      ADD      sp,sp,#0x18
        0x0000f126:    bd80        ..      POP      {r7,pc}
    am_util_faultisr_collect_data
        0x0000f128:    b580        ..      PUSH     {r7,lr}
        0x0000f12a:    b098        ..      SUB      sp,sp,#0x60
        0x0000f12c:    9017        ..      STR      r0,[sp,#0x5c]
        0x0000f12e:    2000        .       MOVS     r0,#0
        0x0000f130:    900a        ..      STR      r0,[sp,#0x28]
        0x0000f132:    9009        ..      STR      r0,[sp,#0x24]
        0x0000f134:    9008        ..      STR      r0,[sp,#0x20]
        0x0000f136:    9007        ..      STR      r0,[sp,#0x1c]
        0x0000f138:    9006        ..      STR      r0,[sp,#0x18]
        0x0000f13a:    9005        ..      STR      r0,[sp,#0x14]
        0x0000f13c:    9004        ..      STR      r0,[sp,#0x10]
        0x0000f13e:    9804        ..      LDR      r0,[sp,#0x10]
        0x0000f140:    9015        ..      STR      r0,[sp,#0x54]
        0x0000f142:    f64e5028    N.(P    MOV      r0,#0xed28
        0x0000f146:    f2ce0000    ....    MOVT     r0,#0xe000
        0x0000f14a:    6800        .h      LDR      r0,[r0,#0]
        0x0000f14c:    9015        ..      STR      r0,[sp,#0x54]
        0x0000f14e:    9815        ..      LDR      r0,[sp,#0x54]
        0x0000f150:    f88d0058    ..X.    STRB     r0,[sp,#0x58]
        0x0000f154:    9815        ..      LDR      r0,[sp,#0x54]
        0x0000f156:    0a00        ..      LSRS     r0,r0,#8
        0x0000f158:    f88d0059    ..Y.    STRB     r0,[sp,#0x59]
        0x0000f15c:    9815        ..      LDR      r0,[sp,#0x54]
        0x0000f15e:    0c00        ..      LSRS     r0,r0,#16
        0x0000f160:    f8ad005a    ..Z.    STRH     r0,[sp,#0x5a]
        0x0000f164:    f64e5038    N.8P    MOV      r0,#0xed38
        0x0000f168:    f2ce0000    ....    MOVT     r0,#0xe000
        0x0000f16c:    6800        .h      LDR      r0,[r0,#0]
        0x0000f16e:    9014        ..      STR      r0,[sp,#0x50]
        0x0000f170:    f89d0059    ..Y.    LDRB     r0,[sp,#0x59]
        0x0000f174:    0780        ..      LSLS     r0,r0,#30
        0x0000f176:    2800        .(      CMP      r0,#0
        0x0000f178:    d506        ..      BPL      0xf188 ; am_util_faultisr_collect_data + 96
        0x0000f17a:    e7ff        ..      B        0xf17c ; am_util_faultisr_collect_data + 84
        0x0000f17c:    9917        ..      LDR      r1,[sp,#0x5c]
        0x0000f17e:    2006        .       MOVS     r0,#6
        0x0000f180:    f000ff0e    ....    BL       getStackedReg ; 0xffa0
        0x0000f184:    9003        ..      STR      r0,[sp,#0xc]
        0x0000f186:    e003        ..      B        0xf190 ; am_util_faultisr_collect_data + 104
        0x0000f188:    f04f30ff    O..0    MOV      r0,#0xffffffff
        0x0000f18c:    9003        ..      STR      r0,[sp,#0xc]
        0x0000f18e:    e7ff        ..      B        0xf190 ; am_util_faultisr_collect_data + 104
        0x0000f190:    9803        ..      LDR      r0,[sp,#0xc]
        0x0000f192:    9013        ..      STR      r0,[sp,#0x4c]
        0x0000f194:    9917        ..      LDR      r1,[sp,#0x5c]
        0x0000f196:    2000        .       MOVS     r0,#0
        0x0000f198:    9002        ..      STR      r0,[sp,#8]
        0x0000f19a:    f000ff01    ....    BL       getStackedReg ; 0xffa0
        0x0000f19e:    900b        ..      STR      r0,[sp,#0x2c]
        0x0000f1a0:    9917        ..      LDR      r1,[sp,#0x5c]
        0x0000f1a2:    2001        .       MOVS     r0,#1
        0x0000f1a4:    f000fefc    ....    BL       getStackedReg ; 0xffa0
        0x0000f1a8:    900c        ..      STR      r0,[sp,#0x30]
        0x0000f1aa:    9917        ..      LDR      r1,[sp,#0x5c]
        0x0000f1ac:    2002        .       MOVS     r0,#2
        0x0000f1ae:    9001        ..      STR      r0,[sp,#4]
        0x0000f1b0:    f000fef6    ....    BL       getStackedReg ; 0xffa0
        0x0000f1b4:    900d        ..      STR      r0,[sp,#0x34]
        0x0000f1b6:    9917        ..      LDR      r1,[sp,#0x5c]
        0x0000f1b8:    2003        .       MOVS     r0,#3
        0x0000f1ba:    f000fef1    ....    BL       getStackedReg ; 0xffa0
        0x0000f1be:    900e        ..      STR      r0,[sp,#0x38]
        0x0000f1c0:    9917        ..      LDR      r1,[sp,#0x5c]
        0x0000f1c2:    2004        .       MOVS     r0,#4
        0x0000f1c4:    f000feec    ....    BL       getStackedReg ; 0xffa0
        0x0000f1c8:    900f        ..      STR      r0,[sp,#0x3c]
        0x0000f1ca:    9917        ..      LDR      r1,[sp,#0x5c]
        0x0000f1cc:    2005        .       MOVS     r0,#5
        0x0000f1ce:    f000fee7    ....    BL       getStackedReg ; 0xffa0
        0x0000f1d2:    9010        ..      STR      r0,[sp,#0x40]
        0x0000f1d4:    9917        ..      LDR      r1,[sp,#0x5c]
        0x0000f1d6:    2006        .       MOVS     r0,#6
        0x0000f1d8:    f000fee2    ....    BL       getStackedReg ; 0xffa0
        0x0000f1dc:    9011        ..      STR      r0,[sp,#0x44]
        0x0000f1de:    9917        ..      LDR      r1,[sp,#0x5c]
        0x0000f1e0:    2007        .       MOVS     r0,#7
        0x0000f1e2:    f000fedd    ....    BL       getStackedReg ; 0xffa0
        0x0000f1e6:    4601        .F      MOV      r1,r0
        0x0000f1e8:    9801        ..      LDR      r0,[sp,#4]
        0x0000f1ea:    9112        ..      STR      r1,[sp,#0x48]
        0x0000f1ec:    a905        ..      ADD      r1,sp,#0x14
        0x0000f1ee:    f7feffa8    ....    BL       am_hal_mcuctrl_info_get ; 0xe142
        0x0000f1f2:    9802        ..      LDR      r0,[sp,#8]
        0x0000f1f4:    9004        ..      STR      r0,[sp,#0x10]
        0x0000f1f6:    e7ff        ..      B        0xf1f8 ; am_util_faultisr_collect_data + 208
        0x0000f1f8:    e7fe        ..      B        0xf1f8 ; am_util_faultisr_collect_data + 208
        0x0000f1fa:    0000        ..      MOVS     r0,r0
    am_util_stdio_printf
        0x0000f1fc:    b083        ..      SUB      sp,sp,#0xc
        0x0000f1fe:    b580        ..      PUSH     {r7,lr}
        0x0000f200:    b085        ..      SUB      sp,sp,#0x14
        0x0000f202:    9309        ..      STR      r3,[sp,#0x24]
        0x0000f204:    9208        ..      STR      r2,[sp,#0x20]
        0x0000f206:    9107        ..      STR      r1,[sp,#0x1c]
        0x0000f208:    9003        ..      STR      r0,[sp,#0xc]
        0x0000f20a:    f24270b4    B..p    MOV      r0,#0x27b4
        0x0000f20e:    f2c10000    ....    MOVT     r0,#0x1000
        0x0000f212:    6800        .h      LDR      r0,[r0,#0]
        0x0000f214:    b918        ..      CBNZ     r0,0xf21e ; am_util_stdio_printf + 34
        0x0000f216:    e7ff        ..      B        0xf218 ; am_util_stdio_printf + 28
        0x0000f218:    2000        .       MOVS     r0,#0
        0x0000f21a:    9004        ..      STR      r0,[sp,#0x10]
        0x0000f21c:    e016        ..      B        0xf24c ; am_util_stdio_printf + 80
        0x0000f21e:    a807        ..      ADD      r0,sp,#0x1c
        0x0000f220:    9001        ..      STR      r0,[sp,#4]
        0x0000f222:    9903        ..      LDR      r1,[sp,#0xc]
        0x0000f224:    9a01        ..      LDR      r2,[sp,#4]
        0x0000f226:    f24270b8    B..p    MOV      r0,#0x27b8
        0x0000f22a:    f2c10000    ....    MOVT     r0,#0x1000
        0x0000f22e:    9000        ..      STR      r0,[sp,#0]
        0x0000f230:    f000f81c    ....    BL       am_util_stdio_vsprintf ; 0xf26c
        0x0000f234:    4601        .F      MOV      r1,r0
        0x0000f236:    9800        ..      LDR      r0,[sp,#0]
        0x0000f238:    9102        ..      STR      r1,[sp,#8]
        0x0000f23a:    f24271b4    B..q    MOV      r1,#0x27b4
        0x0000f23e:    f2c10100    ....    MOVT     r1,#0x1000
        0x0000f242:    6809        .h      LDR      r1,[r1,#0]
        0x0000f244:    4788        .G      BLX      r1
        0x0000f246:    9802        ..      LDR      r0,[sp,#8]
        0x0000f248:    9004        ..      STR      r0,[sp,#0x10]
        0x0000f24a:    e7ff        ..      B        0xf24c ; am_util_stdio_printf + 80
        0x0000f24c:    9804        ..      LDR      r0,[sp,#0x10]
        0x0000f24e:    b005        ..      ADD      sp,sp,#0x14
        0x0000f250:    e8bd4080    ...@    POP      {r7,lr}
        0x0000f254:    b003        ..      ADD      sp,sp,#0xc
        0x0000f256:    4770        pG      BX       lr
    am_util_stdio_printf_init
        0x0000f258:    b081        ..      SUB      sp,sp,#4
        0x0000f25a:    9000        ..      STR      r0,[sp,#0]
        0x0000f25c:    9800        ..      LDR      r0,[sp,#0]
        0x0000f25e:    f24271b4    B..q    MOV      r1,#0x27b4
        0x0000f262:    f2c10100    ....    MOVT     r1,#0x1000
        0x0000f266:    6008        .`      STR      r0,[r1,#0]
        0x0000f268:    b001        ..      ADD      sp,sp,#4
        0x0000f26a:    4770        pG      BX       lr
    am_util_stdio_vsprintf
        0x0000f26c:    b580        ..      PUSH     {r7,lr}
        0x0000f26e:    b09e        ..      SUB      sp,sp,#0x78
        0x0000f270:    921d        ..      STR      r2,[sp,#0x74]
        0x0000f272:    901c        ..      STR      r0,[sp,#0x70]
        0x0000f274:    911b        ..      STR      r1,[sp,#0x6c]
        0x0000f276:    2000        .       MOVS     r0,#0
        0x0000f278:    9014        ..      STR      r0,[sp,#0x50]
        0x0000f27a:    900e        ..      STR      r0,[sp,#0x38]
        0x0000f27c:    e7ff        ..      B        0xf27e ; am_util_stdio_vsprintf + 18
        0x0000f27e:    981b        ..      LDR      r0,[sp,#0x6c]
        0x0000f280:    7800        .x      LDRB     r0,[r0,#0]
        0x0000f282:    2800        .(      CMP      r0,#0
        0x0000f284:    f0008312    ....    BEQ.W    0xf8ac ; am_util_stdio_vsprintf + 1600
        0x0000f288:    e7ff        ..      B        0xf28a ; am_util_stdio_vsprintf + 30
        0x0000f28a:    2006        .       MOVS     r0,#6
        0x0000f28c:    9011        ..      STR      r0,[sp,#0x44]
        0x0000f28e:    981b        ..      LDR      r0,[sp,#0x6c]
        0x0000f290:    7800        .x      LDRB     r0,[r0,#0]
        0x0000f292:    2825        %(      CMP      r0,#0x25
        0x0000f294:    d027        '.      BEQ      0xf2e6 ; am_util_stdio_vsprintf + 122
        0x0000f296:    e7ff        ..      B        0xf298 ; am_util_stdio_vsprintf + 44
        0x0000f298:    981c        ..      LDR      r0,[sp,#0x70]
        0x0000f29a:    b1e8        ..      CBZ      r0,0xf2d8 ; am_util_stdio_vsprintf + 108
        0x0000f29c:    e7ff        ..      B        0xf29e ; am_util_stdio_vsprintf + 50
        0x0000f29e:    981b        ..      LDR      r0,[sp,#0x6c]
        0x0000f2a0:    7800        .x      LDRB     r0,[r0,#0]
        0x0000f2a2:    280a        .(      CMP      r0,#0xa
        0x0000f2a4:    d111        ..      BNE      0xf2ca ; am_util_stdio_vsprintf + 94
        0x0000f2a6:    e7ff        ..      B        0xf2a8 ; am_util_stdio_vsprintf + 60
        0x0000f2a8:    f24270b2    B..p    MOV      r0,#0x27b2
        0x0000f2ac:    f2c10000    ....    MOVT     r0,#0x1000
        0x0000f2b0:    7800        .x      LDRB     r0,[r0,#0]
        0x0000f2b2:    07c0        ..      LSLS     r0,r0,#31
        0x0000f2b4:    b148        H.      CBZ      r0,0xf2ca ; am_util_stdio_vsprintf + 94
        0x0000f2b6:    e7ff        ..      B        0xf2b8 ; am_util_stdio_vsprintf + 76
        0x0000f2b8:    991c        ..      LDR      r1,[sp,#0x70]
        0x0000f2ba:    1c48        H.      ADDS     r0,r1,#1
        0x0000f2bc:    901c        ..      STR      r0,[sp,#0x70]
        0x0000f2be:    200d        .       MOVS     r0,#0xd
        0x0000f2c0:    7008        .p      STRB     r0,[r1,#0]
        0x0000f2c2:    9814        ..      LDR      r0,[sp,#0x50]
        0x0000f2c4:    3001        .0      ADDS     r0,#1
        0x0000f2c6:    9014        ..      STR      r0,[sp,#0x50]
        0x0000f2c8:    e7ff        ..      B        0xf2ca ; am_util_stdio_vsprintf + 94
        0x0000f2ca:    981b        ..      LDR      r0,[sp,#0x6c]
        0x0000f2cc:    7800        .x      LDRB     r0,[r0,#0]
        0x0000f2ce:    991c        ..      LDR      r1,[sp,#0x70]
        0x0000f2d0:    1c4a        J.      ADDS     r2,r1,#1
        0x0000f2d2:    921c        ..      STR      r2,[sp,#0x70]
        0x0000f2d4:    7008        .p      STRB     r0,[r1,#0]
        0x0000f2d6:    e7ff        ..      B        0xf2d8 ; am_util_stdio_vsprintf + 108
        0x0000f2d8:    981b        ..      LDR      r0,[sp,#0x6c]
        0x0000f2da:    3001        .0      ADDS     r0,#1
        0x0000f2dc:    901b        ..      STR      r0,[sp,#0x6c]
        0x0000f2de:    9814        ..      LDR      r0,[sp,#0x50]
        0x0000f2e0:    3001        .0      ADDS     r0,#1
        0x0000f2e2:    9014        ..      STR      r0,[sp,#0x50]
        0x0000f2e4:    e7cb        ..      B        0xf27e ; am_util_stdio_vsprintf + 18
        0x0000f2e6:    981b        ..      LDR      r0,[sp,#0x6c]
        0x0000f2e8:    3001        .0      ADDS     r0,#1
        0x0000f2ea:    901b        ..      STR      r0,[sp,#0x6c]
        0x0000f2ec:    2000        .       MOVS     r0,#0
        0x0000f2ee:    f88d0040    ..@.    STRB     r0,[sp,#0x40]
        0x0000f2f2:    f88d0041    ..A.    STRB     r0,[sp,#0x41]
        0x0000f2f6:    2020                MOVS     r0,#0x20
        0x0000f2f8:    f88d0042    ..B.    STRB     r0,[sp,#0x42]
        0x0000f2fc:    981b        ..      LDR      r0,[sp,#0x6c]
        0x0000f2fe:    7800        .x      LDRB     r0,[r0,#0]
        0x0000f300:    2830        0(      CMP      r0,#0x30
        0x0000f302:    d107        ..      BNE      0xf314 ; am_util_stdio_vsprintf + 168
        0x0000f304:    e7ff        ..      B        0xf306 ; am_util_stdio_vsprintf + 154
        0x0000f306:    2030        0       MOVS     r0,#0x30
        0x0000f308:    f88d0042    ..B.    STRB     r0,[sp,#0x42]
        0x0000f30c:    981b        ..      LDR      r0,[sp,#0x6c]
        0x0000f30e:    3001        .0      ADDS     r0,#1
        0x0000f310:    901b        ..      STR      r0,[sp,#0x6c]
        0x0000f312:    e7ff        ..      B        0xf314 ; am_util_stdio_vsprintf + 168
        0x0000f314:    981b        ..      LDR      r0,[sp,#0x6c]
        0x0000f316:    a915        ..      ADD      r1,sp,#0x54
        0x0000f318:    f000fc10    ....    BL       decstr_to_int ; 0xfb3c
        0x0000f31c:    9013        ..      STR      r0,[sp,#0x4c]
        0x0000f31e:    9915        ..      LDR      r1,[sp,#0x54]
        0x0000f320:    981b        ..      LDR      r0,[sp,#0x6c]
        0x0000f322:    4408        .D      ADD      r0,r0,r1
        0x0000f324:    901b        ..      STR      r0,[sp,#0x6c]
        0x0000f326:    981b        ..      LDR      r0,[sp,#0x6c]
        0x0000f328:    7800        .x      LDRB     r0,[r0,#0]
        0x0000f32a:    2873        s(      CMP      r0,#0x73
        0x0000f32c:    d009        ..      BEQ      0xf342 ; am_util_stdio_vsprintf + 214
        0x0000f32e:    e7ff        ..      B        0xf330 ; am_util_stdio_vsprintf + 196
        0x0000f330:    9813        ..      LDR      r0,[sp,#0x4c]
        0x0000f332:    f1b03fff    ...?    CMP      r0,#0xffffffff
        0x0000f336:    dc04        ..      BGT      0xf342 ; am_util_stdio_vsprintf + 214
        0x0000f338:    e7ff        ..      B        0xf33a ; am_util_stdio_vsprintf + 206
        0x0000f33a:    9813        ..      LDR      r0,[sp,#0x4c]
        0x0000f33c:    4240        @B      RSBS     r0,r0,#0
        0x0000f33e:    9013        ..      STR      r0,[sp,#0x4c]
        0x0000f340:    e7ff        ..      B        0xf342 ; am_util_stdio_vsprintf + 214
        0x0000f342:    981b        ..      LDR      r0,[sp,#0x6c]
        0x0000f344:    7800        .x      LDRB     r0,[r0,#0]
        0x0000f346:    282e        .(      CMP      r0,#0x2e
        0x0000f348:    d10d        ..      BNE      0xf366 ; am_util_stdio_vsprintf + 250
        0x0000f34a:    e7ff        ..      B        0xf34c ; am_util_stdio_vsprintf + 224
        0x0000f34c:    981b        ..      LDR      r0,[sp,#0x6c]
        0x0000f34e:    3001        .0      ADDS     r0,#1
        0x0000f350:    901b        ..      STR      r0,[sp,#0x6c]
        0x0000f352:    981b        ..      LDR      r0,[sp,#0x6c]
        0x0000f354:    a915        ..      ADD      r1,sp,#0x54
        0x0000f356:    f000fbf1    ....    BL       decstr_to_int ; 0xfb3c
        0x0000f35a:    9011        ..      STR      r0,[sp,#0x44]
        0x0000f35c:    9915        ..      LDR      r1,[sp,#0x54]
        0x0000f35e:    981b        ..      LDR      r0,[sp,#0x6c]
        0x0000f360:    4408        .D      ADD      r0,r0,r1
        0x0000f362:    901b        ..      STR      r0,[sp,#0x6c]
        0x0000f364:    e7ff        ..      B        0xf366 ; am_util_stdio_vsprintf + 250
        0x0000f366:    981b        ..      LDR      r0,[sp,#0x6c]
        0x0000f368:    7800        .x      LDRB     r0,[r0,#0]
        0x0000f36a:    286c        l(      CMP      r0,#0x6c
        0x0000f36c:    d110        ..      BNE      0xf390 ; am_util_stdio_vsprintf + 292
        0x0000f36e:    e7ff        ..      B        0xf370 ; am_util_stdio_vsprintf + 260
        0x0000f370:    981b        ..      LDR      r0,[sp,#0x6c]
        0x0000f372:    3001        .0      ADDS     r0,#1
        0x0000f374:    901b        ..      STR      r0,[sp,#0x6c]
        0x0000f376:    981b        ..      LDR      r0,[sp,#0x6c]
        0x0000f378:    7800        .x      LDRB     r0,[r0,#0]
        0x0000f37a:    286c        l(      CMP      r0,#0x6c
        0x0000f37c:    d107        ..      BNE      0xf38e ; am_util_stdio_vsprintf + 290
        0x0000f37e:    e7ff        ..      B        0xf380 ; am_util_stdio_vsprintf + 276
        0x0000f380:    981b        ..      LDR      r0,[sp,#0x6c]
        0x0000f382:    3001        .0      ADDS     r0,#1
        0x0000f384:    901b        ..      STR      r0,[sp,#0x6c]
        0x0000f386:    2001        .       MOVS     r0,#1
        0x0000f388:    f88d0040    ..@.    STRB     r0,[sp,#0x40]
        0x0000f38c:    e7ff        ..      B        0xf38e ; am_util_stdio_vsprintf + 290
        0x0000f38e:    e7ff        ..      B        0xf390 ; am_util_stdio_vsprintf + 292
        0x0000f390:    981b        ..      LDR      r0,[sp,#0x6c]
        0x0000f392:    7800        .x      LDRB     r0,[r0,#0]
        0x0000f394:    3846        F8      SUBS     r0,r0,#0x46
        0x0000f396:    4601        .F      MOV      r1,r0
        0x0000f398:    910b        ..      STR      r1,[sp,#0x2c]
        0x0000f39a:    2832        2(      CMP      r0,#0x32
        0x0000f39c:    f2008273    ..s.    BHI.W    0xf886 ; am_util_stdio_vsprintf + 1562
        0x0000f3a0:    990b        ..      LDR      r1,[sp,#0x2c]
        0x0000f3a2:    e8dff011    ....    TBH      [pc,r1,LSL #1]
    $d.4
        0x0000f3a6:    0224        $.      DCW    548
        0x0000f3a8:    02700270    p.p.    DCD    40895088
        0x0000f3ac:    02700270    p.p.    DCD    40895088
        0x0000f3b0:    02700270    p.p.    DCD    40895088
        0x0000f3b4:    02700270    p.p.    DCD    40895088
        0x0000f3b8:    02700270    p.p.    DCD    40895088
        0x0000f3bc:    02700270    p.p.    DCD    40895088
        0x0000f3c0:    02700270    p.p.    DCD    40895088
        0x0000f3c4:    02700270    p.p.    DCD    40895088
        0x0000f3c8:    00bf0270    p...    DCD    12518000
        0x0000f3cc:    02700270    p.p.    DCD    40895088
        0x0000f3d0:    02700270    p.p.    DCD    40895088
        0x0000f3d4:    02700270    p.p.    DCD    40895088
        0x0000f3d8:    02700270    p.p.    DCD    40895088
        0x0000f3dc:    02700270    p.p.    DCD    40895088
        0x0000f3e0:    016f0033    3.o.    DCD    24051763
        0x0000f3e4:    02240270    p.$.    DCD    35914352
        0x0000f3e8:    02700270    p.p.    DCD    40895088
        0x0000f3ec:    0270016f    o.p.    DCD    40894831
        0x0000f3f0:    02700270    p.p.    DCD    40895088
        0x0000f3f4:    02700270    p.p.    DCD    40895088
        0x0000f3f8:    02700270    p.p.    DCD    40895088
        0x0000f3fc:    02700270    p.p.    DCD    40895088
        0x0000f400:    02700047    G.p.    DCD    40894535
        0x0000f404:    02700119    ..p.    DCD    40894745
        0x0000f408:    00bb0270    p...    DCD    12255856
    $t.5
        0x0000f40c:    981d        ..      LDR      r0,[sp,#0x74]
        0x0000f40e:    1d01        ..      ADDS     r1,r0,#4
        0x0000f410:    911d        ..      STR      r1,[sp,#0x74]
        0x0000f412:    6800        .h      LDR      r0,[r0,#0]
        0x0000f414:    f88d0043    ..C.    STRB     r0,[sp,#0x43]
        0x0000f418:    981c        ..      LDR      r0,[sp,#0x70]
        0x0000f41a:    b138        8.      CBZ      r0,0xf42c ; am_util_stdio_vsprintf + 448
        0x0000f41c:    e7ff        ..      B        0xf41e ; am_util_stdio_vsprintf + 434
        0x0000f41e:    f89d0043    ..C.    LDRB     r0,[sp,#0x43]
        0x0000f422:    991c        ..      LDR      r1,[sp,#0x70]
        0x0000f424:    1c4a        J.      ADDS     r2,r1,#1
        0x0000f426:    921c        ..      STR      r2,[sp,#0x70]
        0x0000f428:    7008        .p      STRB     r0,[r1,#0]
        0x0000f42a:    e7ff        ..      B        0xf42c ; am_util_stdio_vsprintf + 448
        0x0000f42c:    9814        ..      LDR      r0,[sp,#0x50]
        0x0000f42e:    3001        .0      ADDS     r0,#1
        0x0000f430:    9014        ..      STR      r0,[sp,#0x50]
        0x0000f432:    e236        6.      B        0xf8a2 ; am_util_stdio_vsprintf + 1590
        0x0000f434:    981d        ..      LDR      r0,[sp,#0x74]
        0x0000f436:    1d01        ..      ADDS     r1,r0,#4
        0x0000f438:    911d        ..      STR      r1,[sp,#0x74]
        0x0000f43a:    6800        .h      LDR      r0,[r0,#0]
        0x0000f43c:    901a        ..      STR      r0,[sp,#0x68]
        0x0000f43e:    981a        ..      LDR      r0,[sp,#0x68]
        0x0000f440:    f001f9f4    ....    BL       simple_strlen ; 0x1082c
        0x0000f444:    900e        ..      STR      r0,[sp,#0x38]
        0x0000f446:    9813        ..      LDR      r0,[sp,#0x4c]
        0x0000f448:    2801        .(      CMP      r0,#1
        0x0000f44a:    db25        %.      BLT      0xf498 ; am_util_stdio_vsprintf + 556
        0x0000f44c:    e7ff        ..      B        0xf44e ; am_util_stdio_vsprintf + 482
        0x0000f44e:    980e        ..      LDR      r0,[sp,#0x38]
        0x0000f450:    9913        ..      LDR      r1,[sp,#0x4c]
        0x0000f452:    4288        .B      CMP      r0,r1
        0x0000f454:    d21f        ..      BCS      0xf496 ; am_util_stdio_vsprintf + 554
        0x0000f456:    e7ff        ..      B        0xf458 ; am_util_stdio_vsprintf + 492
        0x0000f458:    990e        ..      LDR      r1,[sp,#0x38]
        0x0000f45a:    9813        ..      LDR      r0,[sp,#0x4c]
        0x0000f45c:    1a40        @.      SUBS     r0,r0,r1
        0x0000f45e:    9013        ..      STR      r0,[sp,#0x4c]
        0x0000f460:    981c        ..      LDR      r0,[sp,#0x70]
        0x0000f462:    f89d1042    ..B.    LDRB     r1,[sp,#0x42]
        0x0000f466:    9a13        ..      LDR      r2,[sp,#0x4c]
        0x0000f468:    f001f8d4    ....    BL       padbuffer ; 0x10614
        0x0000f46c:    9013        ..      STR      r0,[sp,#0x4c]
        0x0000f46e:    981c        ..      LDR      r0,[sp,#0x70]
        0x0000f470:    b118        ..      CBZ      r0,0xf47a ; am_util_stdio_vsprintf + 526
        0x0000f472:    e7ff        ..      B        0xf474 ; am_util_stdio_vsprintf + 520
        0x0000f474:    9813        ..      LDR      r0,[sp,#0x4c]
        0x0000f476:    900a        ..      STR      r0,[sp,#0x28]
        0x0000f478:    e002        ..      B        0xf480 ; am_util_stdio_vsprintf + 532
        0x0000f47a:    2000        .       MOVS     r0,#0
        0x0000f47c:    900a        ..      STR      r0,[sp,#0x28]
        0x0000f47e:    e7ff        ..      B        0xf480 ; am_util_stdio_vsprintf + 532
        0x0000f480:    990a        ..      LDR      r1,[sp,#0x28]
        0x0000f482:    981c        ..      LDR      r0,[sp,#0x70]
        0x0000f484:    4408        .D      ADD      r0,r0,r1
        0x0000f486:    901c        ..      STR      r0,[sp,#0x70]
        0x0000f488:    9913        ..      LDR      r1,[sp,#0x4c]
        0x0000f48a:    9814        ..      LDR      r0,[sp,#0x50]
        0x0000f48c:    4408        .D      ADD      r0,r0,r1
        0x0000f48e:    9014        ..      STR      r0,[sp,#0x50]
        0x0000f490:    2000        .       MOVS     r0,#0
        0x0000f492:    9013        ..      STR      r0,[sp,#0x4c]
        0x0000f494:    e7ff        ..      B        0xf496 ; am_util_stdio_vsprintf + 554
        0x0000f496:    e7ff        ..      B        0xf498 ; am_util_stdio_vsprintf + 556
        0x0000f498:    e7ff        ..      B        0xf49a ; am_util_stdio_vsprintf + 558
        0x0000f49a:    981a        ..      LDR      r0,[sp,#0x68]
        0x0000f49c:    7800        .x      LDRB     r0,[r0,#0]
        0x0000f49e:    b188        ..      CBZ      r0,0xf4c4 ; am_util_stdio_vsprintf + 600
        0x0000f4a0:    e7ff        ..      B        0xf4a2 ; am_util_stdio_vsprintf + 566
        0x0000f4a2:    981c        ..      LDR      r0,[sp,#0x70]
        0x0000f4a4:    b138        8.      CBZ      r0,0xf4b6 ; am_util_stdio_vsprintf + 586
        0x0000f4a6:    e7ff        ..      B        0xf4a8 ; am_util_stdio_vsprintf + 572
        0x0000f4a8:    981a        ..      LDR      r0,[sp,#0x68]
        0x0000f4aa:    7800        .x      LDRB     r0,[r0,#0]
        0x0000f4ac:    991c        ..      LDR      r1,[sp,#0x70]
        0x0000f4ae:    1c4a        J.      ADDS     r2,r1,#1
        0x0000f4b0:    921c        ..      STR      r2,[sp,#0x70]
        0x0000f4b2:    7008        .p      STRB     r0,[r1,#0]
        0x0000f4b4:    e7ff        ..      B        0xf4b6 ; am_util_stdio_vsprintf + 586
        0x0000f4b6:    981a        ..      LDR      r0,[sp,#0x68]
        0x0000f4b8:    3001        .0      ADDS     r0,#1
        0x0000f4ba:    901a        ..      STR      r0,[sp,#0x68]
        0x0000f4bc:    9814        ..      LDR      r0,[sp,#0x50]
        0x0000f4be:    3001        .0      ADDS     r0,#1
        0x0000f4c0:    9014        ..      STR      r0,[sp,#0x50]
        0x0000f4c2:    e7ea        ..      B        0xf49a ; am_util_stdio_vsprintf + 558
        0x0000f4c4:    9813        ..      LDR      r0,[sp,#0x4c]
        0x0000f4c6:    b340        @.      CBZ      r0,0xf51a ; am_util_stdio_vsprintf + 686
        0x0000f4c8:    e7ff        ..      B        0xf4ca ; am_util_stdio_vsprintf + 606
        0x0000f4ca:    9813        ..      LDR      r0,[sp,#0x4c]
        0x0000f4cc:    4240        @B      RSBS     r0,r0,#0
        0x0000f4ce:    9013        ..      STR      r0,[sp,#0x4c]
        0x0000f4d0:    980e        ..      LDR      r0,[sp,#0x38]
        0x0000f4d2:    9913        ..      LDR      r1,[sp,#0x4c]
        0x0000f4d4:    4288        .B      CMP      r0,r1
        0x0000f4d6:    d21f        ..      BCS      0xf518 ; am_util_stdio_vsprintf + 684
        0x0000f4d8:    e7ff        ..      B        0xf4da ; am_util_stdio_vsprintf + 622
        0x0000f4da:    990e        ..      LDR      r1,[sp,#0x38]
        0x0000f4dc:    9813        ..      LDR      r0,[sp,#0x4c]
        0x0000f4de:    1a40        @.      SUBS     r0,r0,r1
        0x0000f4e0:    9013        ..      STR      r0,[sp,#0x4c]
        0x0000f4e2:    981c        ..      LDR      r0,[sp,#0x70]
        0x0000f4e4:    f89d1042    ..B.    LDRB     r1,[sp,#0x42]
        0x0000f4e8:    9a13        ..      LDR      r2,[sp,#0x4c]
        0x0000f4ea:    f001f893    ....    BL       padbuffer ; 0x10614
        0x0000f4ee:    9013        ..      STR      r0,[sp,#0x4c]
        0x0000f4f0:    981c        ..      LDR      r0,[sp,#0x70]
        0x0000f4f2:    b118        ..      CBZ      r0,0xf4fc ; am_util_stdio_vsprintf + 656
        0x0000f4f4:    e7ff        ..      B        0xf4f6 ; am_util_stdio_vsprintf + 650
        0x0000f4f6:    9813        ..      LDR      r0,[sp,#0x4c]
        0x0000f4f8:    9009        ..      STR      r0,[sp,#0x24]
        0x0000f4fa:    e002        ..      B        0xf502 ; am_util_stdio_vsprintf + 662
        0x0000f4fc:    2000        .       MOVS     r0,#0
        0x0000f4fe:    9009        ..      STR      r0,[sp,#0x24]
        0x0000f500:    e7ff        ..      B        0xf502 ; am_util_stdio_vsprintf + 662
        0x0000f502:    9909        ..      LDR      r1,[sp,#0x24]
        0x0000f504:    981c        ..      LDR      r0,[sp,#0x70]
        0x0000f506:    4408        .D      ADD      r0,r0,r1
        0x0000f508:    901c        ..      STR      r0,[sp,#0x70]
        0x0000f50a:    9913        ..      LDR      r1,[sp,#0x4c]
        0x0000f50c:    9814        ..      LDR      r0,[sp,#0x50]
        0x0000f50e:    4408        .D      ADD      r0,r0,r1
        0x0000f510:    9014        ..      STR      r0,[sp,#0x50]
        0x0000f512:    2000        .       MOVS     r0,#0
        0x0000f514:    9013        ..      STR      r0,[sp,#0x4c]
        0x0000f516:    e7ff        ..      B        0xf518 ; am_util_stdio_vsprintf + 684
        0x0000f518:    e7ff        ..      B        0xf51a ; am_util_stdio_vsprintf + 686
        0x0000f51a:    e1c2        ..      B        0xf8a2 ; am_util_stdio_vsprintf + 1590
        0x0000f51c:    2001        .       MOVS     r0,#1
        0x0000f51e:    f88d0041    ..A.    STRB     r0,[sp,#0x41]
        0x0000f522:    e7ff        ..      B        0xf524 ; am_util_stdio_vsprintf + 696
        0x0000f524:    f89d0040    ..@.    LDRB     r0,[sp,#0x40]
        0x0000f528:    07c0        ..      LSLS     r0,r0,#31
        0x0000f52a:    b160        `.      CBZ      r0,0xf546 ; am_util_stdio_vsprintf + 730
        0x0000f52c:    e7ff        ..      B        0xf52e ; am_util_stdio_vsprintf + 706
        0x0000f52e:    981d        ..      LDR      r0,[sp,#0x74]
        0x0000f530:    3007        .0      ADDS     r0,#7
        0x0000f532:    f0200007     ...    BIC      r0,r0,#7
        0x0000f536:    f1000108    ....    ADD      r1,r0,#8
        0x0000f53a:    911d        ..      STR      r1,[sp,#0x74]
        0x0000f53c:    6801        .h      LDR      r1,[r0,#0]
        0x0000f53e:    6840        @h      LDR      r0,[r0,#4]
        0x0000f540:    9107        ..      STR      r1,[sp,#0x1c]
        0x0000f542:    9008        ..      STR      r0,[sp,#0x20]
        0x0000f544:    e007        ..      B        0xf556 ; am_util_stdio_vsprintf + 746
        0x0000f546:    981d        ..      LDR      r0,[sp,#0x74]
        0x0000f548:    1d01        ..      ADDS     r1,r0,#4
        0x0000f54a:    911d        ..      STR      r1,[sp,#0x74]
        0x0000f54c:    6801        .h      LDR      r1,[r0,#0]
        0x0000f54e:    2000        .       MOVS     r0,#0
        0x0000f550:    9107        ..      STR      r1,[sp,#0x1c]
        0x0000f552:    9008        ..      STR      r0,[sp,#0x20]
        0x0000f554:    e7ff        ..      B        0xf556 ; am_util_stdio_vsprintf + 746
        0x0000f556:    9907        ..      LDR      r1,[sp,#0x1c]
        0x0000f558:    9808        ..      LDR      r0,[sp,#0x20]
        0x0000f55a:    9118        ..      STR      r1,[sp,#0x60]
        0x0000f55c:    9019        ..      STR      r0,[sp,#0x64]
        0x0000f55e:    9813        ..      LDR      r0,[sp,#0x4c]
        0x0000f560:    b318        ..      CBZ      r0,0xf5aa ; am_util_stdio_vsprintf + 830
        0x0000f562:    e7ff        ..      B        0xf564 ; am_util_stdio_vsprintf + 760
        0x0000f564:    9818        ..      LDR      r0,[sp,#0x60]
        0x0000f566:    9919        ..      LDR      r1,[sp,#0x64]
        0x0000f568:    f000fffe    ....    BL       ndigits_in_hex ; 0x10568
        0x0000f56c:    4601        .F      MOV      r1,r0
        0x0000f56e:    9813        ..      LDR      r0,[sp,#0x4c]
        0x0000f570:    1a40        @.      SUBS     r0,r0,r1
        0x0000f572:    9013        ..      STR      r0,[sp,#0x4c]
        0x0000f574:    981c        ..      LDR      r0,[sp,#0x70]
        0x0000f576:    f89d1042    ..B.    LDRB     r1,[sp,#0x42]
        0x0000f57a:    9a13        ..      LDR      r2,[sp,#0x4c]
        0x0000f57c:    f001f84a    ..J.    BL       padbuffer ; 0x10614
        0x0000f580:    9013        ..      STR      r0,[sp,#0x4c]
        0x0000f582:    981c        ..      LDR      r0,[sp,#0x70]
        0x0000f584:    b118        ..      CBZ      r0,0xf58e ; am_util_stdio_vsprintf + 802
        0x0000f586:    e7ff        ..      B        0xf588 ; am_util_stdio_vsprintf + 796
        0x0000f588:    9813        ..      LDR      r0,[sp,#0x4c]
        0x0000f58a:    9006        ..      STR      r0,[sp,#0x18]
        0x0000f58c:    e002        ..      B        0xf594 ; am_util_stdio_vsprintf + 808
        0x0000f58e:    2000        .       MOVS     r0,#0
        0x0000f590:    9006        ..      STR      r0,[sp,#0x18]
        0x0000f592:    e7ff        ..      B        0xf594 ; am_util_stdio_vsprintf + 808
        0x0000f594:    9906        ..      LDR      r1,[sp,#0x18]
        0x0000f596:    981c        ..      LDR      r0,[sp,#0x70]
        0x0000f598:    4408        .D      ADD      r0,r0,r1
        0x0000f59a:    901c        ..      STR      r0,[sp,#0x70]
        0x0000f59c:    9913        ..      LDR      r1,[sp,#0x4c]
        0x0000f59e:    9814        ..      LDR      r0,[sp,#0x50]
        0x0000f5a0:    4408        .D      ADD      r0,r0,r1
        0x0000f5a2:    9014        ..      STR      r0,[sp,#0x50]
        0x0000f5a4:    2000        .       MOVS     r0,#0
        0x0000f5a6:    9013        ..      STR      r0,[sp,#0x4c]
        0x0000f5a8:    e7ff        ..      B        0xf5aa ; am_util_stdio_vsprintf + 830
        0x0000f5aa:    9818        ..      LDR      r0,[sp,#0x60]
        0x0000f5ac:    9919        ..      LDR      r1,[sp,#0x64]
        0x0000f5ae:    9a1c        ..      LDR      r2,[sp,#0x70]
        0x0000f5b0:    f89d3041    ..A0    LDRB     r3,[sp,#0x41]
        0x0000f5b4:    f0030301    ....    AND      r3,r3,#1
        0x0000f5b8:    f001f982    ....    BL       uint64_to_hexstr ; 0x108c0
        0x0000f5bc:    9012        ..      STR      r0,[sp,#0x48]
        0x0000f5be:    981c        ..      LDR      r0,[sp,#0x70]
        0x0000f5c0:    b128        (.      CBZ      r0,0xf5ce ; am_util_stdio_vsprintf + 866
        0x0000f5c2:    e7ff        ..      B        0xf5c4 ; am_util_stdio_vsprintf + 856
        0x0000f5c4:    9912        ..      LDR      r1,[sp,#0x48]
        0x0000f5c6:    981c        ..      LDR      r0,[sp,#0x70]
        0x0000f5c8:    4408        .D      ADD      r0,r0,r1
        0x0000f5ca:    901c        ..      STR      r0,[sp,#0x70]
        0x0000f5cc:    e7ff        ..      B        0xf5ce ; am_util_stdio_vsprintf + 866
        0x0000f5ce:    9912        ..      LDR      r1,[sp,#0x48]
        0x0000f5d0:    9814        ..      LDR      r0,[sp,#0x50]
        0x0000f5d2:    4408        .D      ADD      r0,r0,r1
        0x0000f5d4:    9014        ..      STR      r0,[sp,#0x50]
        0x0000f5d6:    e164        d.      B        0xf8a2 ; am_util_stdio_vsprintf + 1590
        0x0000f5d8:    f89d0040    ..@.    LDRB     r0,[sp,#0x40]
        0x0000f5dc:    07c0        ..      LSLS     r0,r0,#31
        0x0000f5de:    b160        `.      CBZ      r0,0xf5fa ; am_util_stdio_vsprintf + 910
        0x0000f5e0:    e7ff        ..      B        0xf5e2 ; am_util_stdio_vsprintf + 886
        0x0000f5e2:    981d        ..      LDR      r0,[sp,#0x74]
        0x0000f5e4:    3007        .0      ADDS     r0,#7
        0x0000f5e6:    f0200007     ...    BIC      r0,r0,#7
        0x0000f5ea:    f1000108    ....    ADD      r1,r0,#8
        0x0000f5ee:    911d        ..      STR      r1,[sp,#0x74]
        0x0000f5f0:    6801        .h      LDR      r1,[r0,#0]
        0x0000f5f2:    6840        @h      LDR      r0,[r0,#4]
        0x0000f5f4:    9104        ..      STR      r1,[sp,#0x10]
        0x0000f5f6:    9005        ..      STR      r0,[sp,#0x14]
        0x0000f5f8:    e007        ..      B        0xf60a ; am_util_stdio_vsprintf + 926
        0x0000f5fa:    981d        ..      LDR      r0,[sp,#0x74]
        0x0000f5fc:    1d01        ..      ADDS     r1,r0,#4
        0x0000f5fe:    911d        ..      STR      r1,[sp,#0x74]
        0x0000f600:    6801        .h      LDR      r1,[r0,#0]
        0x0000f602:    2000        .       MOVS     r0,#0
        0x0000f604:    9104        ..      STR      r1,[sp,#0x10]
        0x0000f606:    9005        ..      STR      r0,[sp,#0x14]
        0x0000f608:    e7ff        ..      B        0xf60a ; am_util_stdio_vsprintf + 926
        0x0000f60a:    9904        ..      LDR      r1,[sp,#0x10]
        0x0000f60c:    9805        ..      LDR      r0,[sp,#0x14]
        0x0000f60e:    9118        ..      STR      r1,[sp,#0x60]
        0x0000f610:    9019        ..      STR      r0,[sp,#0x64]
        0x0000f612:    9813        ..      LDR      r0,[sp,#0x4c]
        0x0000f614:    b318        ..      CBZ      r0,0xf65e ; am_util_stdio_vsprintf + 1010
        0x0000f616:    e7ff        ..      B        0xf618 ; am_util_stdio_vsprintf + 940
        0x0000f618:    9818        ..      LDR      r0,[sp,#0x60]
        0x0000f61a:    9919        ..      LDR      r1,[sp,#0x64]
        0x0000f61c:    f000ffdc    ....    BL       ndigits_in_u64 ; 0x105d8
        0x0000f620:    4601        .F      MOV      r1,r0
        0x0000f622:    9813        ..      LDR      r0,[sp,#0x4c]
        0x0000f624:    1a40        @.      SUBS     r0,r0,r1
        0x0000f626:    9013        ..      STR      r0,[sp,#0x4c]
        0x0000f628:    981c        ..      LDR      r0,[sp,#0x70]
        0x0000f62a:    f89d1042    ..B.    LDRB     r1,[sp,#0x42]
        0x0000f62e:    9a13        ..      LDR      r2,[sp,#0x4c]
        0x0000f630:    f000fff0    ....    BL       padbuffer ; 0x10614
        0x0000f634:    9013        ..      STR      r0,[sp,#0x4c]
        0x0000f636:    981c        ..      LDR      r0,[sp,#0x70]
        0x0000f638:    b118        ..      CBZ      r0,0xf642 ; am_util_stdio_vsprintf + 982
        0x0000f63a:    e7ff        ..      B        0xf63c ; am_util_stdio_vsprintf + 976
        0x0000f63c:    9813        ..      LDR      r0,[sp,#0x4c]
        0x0000f63e:    9003        ..      STR      r0,[sp,#0xc]
        0x0000f640:    e002        ..      B        0xf648 ; am_util_stdio_vsprintf + 988
        0x0000f642:    2000        .       MOVS     r0,#0
        0x0000f644:    9003        ..      STR      r0,[sp,#0xc]
        0x0000f646:    e7ff        ..      B        0xf648 ; am_util_stdio_vsprintf + 988
        0x0000f648:    9903        ..      LDR      r1,[sp,#0xc]
        0x0000f64a:    981c        ..      LDR      r0,[sp,#0x70]
        0x0000f64c:    4408        .D      ADD      r0,r0,r1
        0x0000f64e:    901c        ..      STR      r0,[sp,#0x70]
        0x0000f650:    9913        ..      LDR      r1,[sp,#0x4c]
        0x0000f652:    9814        ..      LDR      r0,[sp,#0x50]
        0x0000f654:    4408        .D      ADD      r0,r0,r1
        0x0000f656:    9014        ..      STR      r0,[sp,#0x50]
        0x0000f658:    2000        .       MOVS     r0,#0
        0x0000f65a:    9013        ..      STR      r0,[sp,#0x4c]
        0x0000f65c:    e7ff        ..      B        0xf65e ; am_util_stdio_vsprintf + 1010
        0x0000f65e:    9818        ..      LDR      r0,[sp,#0x60]
        0x0000f660:    9919        ..      LDR      r1,[sp,#0x64]
        0x0000f662:    9a1c        ..      LDR      r2,[sp,#0x70]
        0x0000f664:    f001f98c    ....    BL       uint64_to_str ; 0x10980
        0x0000f668:    9012        ..      STR      r0,[sp,#0x48]
        0x0000f66a:    981c        ..      LDR      r0,[sp,#0x70]
        0x0000f66c:    b128        (.      CBZ      r0,0xf67a ; am_util_stdio_vsprintf + 1038
        0x0000f66e:    e7ff        ..      B        0xf670 ; am_util_stdio_vsprintf + 1028
        0x0000f670:    9912        ..      LDR      r1,[sp,#0x48]
        0x0000f672:    981c        ..      LDR      r0,[sp,#0x70]
        0x0000f674:    4408        .D      ADD      r0,r0,r1
        0x0000f676:    901c        ..      STR      r0,[sp,#0x70]
        0x0000f678:    e7ff        ..      B        0xf67a ; am_util_stdio_vsprintf + 1038
        0x0000f67a:    9912        ..      LDR      r1,[sp,#0x48]
        0x0000f67c:    9814        ..      LDR      r0,[sp,#0x50]
        0x0000f67e:    4408        .D      ADD      r0,r0,r1
        0x0000f680:    9014        ..      STR      r0,[sp,#0x50]
        0x0000f682:    e10e        ..      B        0xf8a2 ; am_util_stdio_vsprintf + 1590
        0x0000f684:    f89d0040    ..@.    LDRB     r0,[sp,#0x40]
        0x0000f688:    07c0        ..      LSLS     r0,r0,#31
        0x0000f68a:    b160        `.      CBZ      r0,0xf6a6 ; am_util_stdio_vsprintf + 1082
        0x0000f68c:    e7ff        ..      B        0xf68e ; am_util_stdio_vsprintf + 1058
        0x0000f68e:    981d        ..      LDR      r0,[sp,#0x74]
        0x0000f690:    3007        .0      ADDS     r0,#7
        0x0000f692:    f0200007     ...    BIC      r0,r0,#7
        0x0000f696:    f1000108    ....    ADD      r1,r0,#8
        0x0000f69a:    911d        ..      STR      r1,[sp,#0x74]
        0x0000f69c:    6801        .h      LDR      r1,[r0,#0]
        0x0000f69e:    6840        @h      LDR      r0,[r0,#4]
        0x0000f6a0:    9101        ..      STR      r1,[sp,#4]
        0x0000f6a2:    9002        ..      STR      r0,[sp,#8]
        0x0000f6a4:    e007        ..      B        0xf6b6 ; am_util_stdio_vsprintf + 1098
        0x0000f6a6:    981d        ..      LDR      r0,[sp,#0x74]
        0x0000f6a8:    1d01        ..      ADDS     r1,r0,#4
        0x0000f6aa:    911d        ..      STR      r1,[sp,#0x74]
        0x0000f6ac:    6801        .h      LDR      r1,[r0,#0]
        0x0000f6ae:    17c8        ..      ASRS     r0,r1,#31
        0x0000f6b0:    9101        ..      STR      r1,[sp,#4]
        0x0000f6b2:    9002        ..      STR      r0,[sp,#8]
        0x0000f6b4:    e7ff        ..      B        0xf6b6 ; am_util_stdio_vsprintf + 1098
        0x0000f6b6:    9901        ..      LDR      r1,[sp,#4]
        0x0000f6b8:    9802        ..      LDR      r0,[sp,#8]
        0x0000f6ba:    9116        ..      STR      r1,[sp,#0x58]
        0x0000f6bc:    9017        ..      STR      r0,[sp,#0x5c]
        0x0000f6be:    9817        ..      LDR      r0,[sp,#0x5c]
        0x0000f6c0:    f1b03fff    ...?    CMP      r0,#0xffffffff
        0x0000f6c4:    dc0c        ..      BGT      0xf6e0 ; am_util_stdio_vsprintf + 1140
        0x0000f6c6:    e7ff        ..      B        0xf6c8 ; am_util_stdio_vsprintf + 1116
        0x0000f6c8:    9816        ..      LDR      r0,[sp,#0x58]
        0x0000f6ca:    9a17        ..      LDR      r2,[sp,#0x5c]
        0x0000f6cc:    4241        AB      RSBS     r1,r0,#0
        0x0000f6ce:    f04f0000    O...    MOV      r0,#0
        0x0000f6d2:    4190        .A      SBCS     r0,r0,r2
        0x0000f6d4:    9118        ..      STR      r1,[sp,#0x60]
        0x0000f6d6:    9019        ..      STR      r0,[sp,#0x64]
        0x0000f6d8:    2001        .       MOVS     r0,#1
        0x0000f6da:    f88d003f    ..?.    STRB     r0,[sp,#0x3f]
        0x0000f6de:    e007        ..      B        0xf6f0 ; am_util_stdio_vsprintf + 1156
        0x0000f6e0:    9816        ..      LDR      r0,[sp,#0x58]
        0x0000f6e2:    9917        ..      LDR      r1,[sp,#0x5c]
        0x0000f6e4:    9119        ..      STR      r1,[sp,#0x64]
        0x0000f6e6:    9018        ..      STR      r0,[sp,#0x60]
        0x0000f6e8:    2000        .       MOVS     r0,#0
        0x0000f6ea:    f88d003f    ..?.    STRB     r0,[sp,#0x3f]
        0x0000f6ee:    e7ff        ..      B        0xf6f0 ; am_util_stdio_vsprintf + 1156
        0x0000f6f0:    9813        ..      LDR      r0,[sp,#0x4c]
        0x0000f6f2:    2800        .(      CMP      r0,#0
        0x0000f6f4:    d055        U.      BEQ      0xf7a2 ; am_util_stdio_vsprintf + 1334
        0x0000f6f6:    e7ff        ..      B        0xf6f8 ; am_util_stdio_vsprintf + 1164
        0x0000f6f8:    9818        ..      LDR      r0,[sp,#0x60]
        0x0000f6fa:    9919        ..      LDR      r1,[sp,#0x64]
        0x0000f6fc:    f000ff54    ..T.    BL       ndigits_in_i64 ; 0x105a8
        0x0000f700:    4601        .F      MOV      r1,r0
        0x0000f702:    9813        ..      LDR      r0,[sp,#0x4c]
        0x0000f704:    1a40        @.      SUBS     r0,r0,r1
        0x0000f706:    9013        ..      STR      r0,[sp,#0x4c]
        0x0000f708:    f89d003f    ..?.    LDRB     r0,[sp,#0x3f]
        0x0000f70c:    07c0        ..      LSLS     r0,r0,#31
        0x0000f70e:    b1b0        ..      CBZ      r0,0xf73e ; am_util_stdio_vsprintf + 1234
        0x0000f710:    e7ff        ..      B        0xf712 ; am_util_stdio_vsprintf + 1190
        0x0000f712:    9813        ..      LDR      r0,[sp,#0x4c]
        0x0000f714:    3801        .8      SUBS     r0,#1
        0x0000f716:    9013        ..      STR      r0,[sp,#0x4c]
        0x0000f718:    f89d0042    ..B.    LDRB     r0,[sp,#0x42]
        0x0000f71c:    2830        0(      CMP      r0,#0x30
        0x0000f71e:    d10d        ..      BNE      0xf73c ; am_util_stdio_vsprintf + 1232
        0x0000f720:    e7ff        ..      B        0xf722 ; am_util_stdio_vsprintf + 1206
        0x0000f722:    981c        ..      LDR      r0,[sp,#0x70]
        0x0000f724:    b130        0.      CBZ      r0,0xf734 ; am_util_stdio_vsprintf + 1224
        0x0000f726:    e7ff        ..      B        0xf728 ; am_util_stdio_vsprintf + 1212
        0x0000f728:    991c        ..      LDR      r1,[sp,#0x70]
        0x0000f72a:    1c48        H.      ADDS     r0,r1,#1
        0x0000f72c:    901c        ..      STR      r0,[sp,#0x70]
        0x0000f72e:    202d        -       MOVS     r0,#0x2d
        0x0000f730:    7008        .p      STRB     r0,[r1,#0]
        0x0000f732:    e7ff        ..      B        0xf734 ; am_util_stdio_vsprintf + 1224
        0x0000f734:    9814        ..      LDR      r0,[sp,#0x50]
        0x0000f736:    3001        .0      ADDS     r0,#1
        0x0000f738:    9014        ..      STR      r0,[sp,#0x50]
        0x0000f73a:    e7ff        ..      B        0xf73c ; am_util_stdio_vsprintf + 1232
        0x0000f73c:    e7ff        ..      B        0xf73e ; am_util_stdio_vsprintf + 1234
        0x0000f73e:    981c        ..      LDR      r0,[sp,#0x70]
        0x0000f740:    f89d1042    ..B.    LDRB     r1,[sp,#0x42]
        0x0000f744:    9a13        ..      LDR      r2,[sp,#0x4c]
        0x0000f746:    f000ff65    ..e.    BL       padbuffer ; 0x10614
        0x0000f74a:    9013        ..      STR      r0,[sp,#0x4c]
        0x0000f74c:    981c        ..      LDR      r0,[sp,#0x70]
        0x0000f74e:    b118        ..      CBZ      r0,0xf758 ; am_util_stdio_vsprintf + 1260
        0x0000f750:    e7ff        ..      B        0xf752 ; am_util_stdio_vsprintf + 1254
        0x0000f752:    9813        ..      LDR      r0,[sp,#0x4c]
        0x0000f754:    9000        ..      STR      r0,[sp,#0]
        0x0000f756:    e002        ..      B        0xf75e ; am_util_stdio_vsprintf + 1266
        0x0000f758:    2000        .       MOVS     r0,#0
        0x0000f75a:    9000        ..      STR      r0,[sp,#0]
        0x0000f75c:    e7ff        ..      B        0xf75e ; am_util_stdio_vsprintf + 1266
        0x0000f75e:    9900        ..      LDR      r1,[sp,#0]
        0x0000f760:    981c        ..      LDR      r0,[sp,#0x70]
        0x0000f762:    4408        .D      ADD      r0,r0,r1
        0x0000f764:    901c        ..      STR      r0,[sp,#0x70]
        0x0000f766:    9913        ..      LDR      r1,[sp,#0x4c]
        0x0000f768:    9814        ..      LDR      r0,[sp,#0x50]
        0x0000f76a:    4408        .D      ADD      r0,r0,r1
        0x0000f76c:    9014        ..      STR      r0,[sp,#0x50]
        0x0000f76e:    2000        .       MOVS     r0,#0
        0x0000f770:    9013        ..      STR      r0,[sp,#0x4c]
        0x0000f772:    f89d003f    ..?.    LDRB     r0,[sp,#0x3f]
        0x0000f776:    07c0        ..      LSLS     r0,r0,#31
        0x0000f778:    b190        ..      CBZ      r0,0xf7a0 ; am_util_stdio_vsprintf + 1332
        0x0000f77a:    e7ff        ..      B        0xf77c ; am_util_stdio_vsprintf + 1296
        0x0000f77c:    f89d0042    ..B.    LDRB     r0,[sp,#0x42]
        0x0000f780:    2820         (      CMP      r0,#0x20
        0x0000f782:    d10d        ..      BNE      0xf7a0 ; am_util_stdio_vsprintf + 1332
        0x0000f784:    e7ff        ..      B        0xf786 ; am_util_stdio_vsprintf + 1306
        0x0000f786:    981c        ..      LDR      r0,[sp,#0x70]
        0x0000f788:    b130        0.      CBZ      r0,0xf798 ; am_util_stdio_vsprintf + 1324
        0x0000f78a:    e7ff        ..      B        0xf78c ; am_util_stdio_vsprintf + 1312
        0x0000f78c:    991c        ..      LDR      r1,[sp,#0x70]
        0x0000f78e:    1c48        H.      ADDS     r0,r1,#1
        0x0000f790:    901c        ..      STR      r0,[sp,#0x70]
        0x0000f792:    202d        -       MOVS     r0,#0x2d
        0x0000f794:    7008        .p      STRB     r0,[r1,#0]
        0x0000f796:    e7ff        ..      B        0xf798 ; am_util_stdio_vsprintf + 1324
        0x0000f798:    9814        ..      LDR      r0,[sp,#0x50]
        0x0000f79a:    3001        .0      ADDS     r0,#1
        0x0000f79c:    9014        ..      STR      r0,[sp,#0x50]
        0x0000f79e:    e7ff        ..      B        0xf7a0 ; am_util_stdio_vsprintf + 1332
        0x0000f7a0:    e012        ..      B        0xf7c8 ; am_util_stdio_vsprintf + 1372
        0x0000f7a2:    f89d003f    ..?.    LDRB     r0,[sp,#0x3f]
        0x0000f7a6:    07c0        ..      LSLS     r0,r0,#31
        0x0000f7a8:    b168        h.      CBZ      r0,0xf7c6 ; am_util_stdio_vsprintf + 1370
        0x0000f7aa:    e7ff        ..      B        0xf7ac ; am_util_stdio_vsprintf + 1344
        0x0000f7ac:    981c        ..      LDR      r0,[sp,#0x70]
        0x0000f7ae:    b130        0.      CBZ      r0,0xf7be ; am_util_stdio_vsprintf + 1362
        0x0000f7b0:    e7ff        ..      B        0xf7b2 ; am_util_stdio_vsprintf + 1350
        0x0000f7b2:    991c        ..      LDR      r1,[sp,#0x70]
        0x0000f7b4:    1c48        H.      ADDS     r0,r1,#1
        0x0000f7b6:    901c        ..      STR      r0,[sp,#0x70]
        0x0000f7b8:    202d        -       MOVS     r0,#0x2d
        0x0000f7ba:    7008        .p      STRB     r0,[r1,#0]
        0x0000f7bc:    e7ff        ..      B        0xf7be ; am_util_stdio_vsprintf + 1362
        0x0000f7be:    9814        ..      LDR      r0,[sp,#0x50]
        0x0000f7c0:    3001        .0      ADDS     r0,#1
        0x0000f7c2:    9014        ..      STR      r0,[sp,#0x50]
        0x0000f7c4:    e7ff        ..      B        0xf7c6 ; am_util_stdio_vsprintf + 1370
        0x0000f7c6:    e7ff        ..      B        0xf7c8 ; am_util_stdio_vsprintf + 1372
        0x0000f7c8:    9818        ..      LDR      r0,[sp,#0x60]
        0x0000f7ca:    9919        ..      LDR      r1,[sp,#0x64]
        0x0000f7cc:    9a1c        ..      LDR      r2,[sp,#0x70]
        0x0000f7ce:    f001f8d7    ....    BL       uint64_to_str ; 0x10980
        0x0000f7d2:    9012        ..      STR      r0,[sp,#0x48]
        0x0000f7d4:    981c        ..      LDR      r0,[sp,#0x70]
        0x0000f7d6:    b128        (.      CBZ      r0,0xf7e4 ; am_util_stdio_vsprintf + 1400
        0x0000f7d8:    e7ff        ..      B        0xf7da ; am_util_stdio_vsprintf + 1390
        0x0000f7da:    9912        ..      LDR      r1,[sp,#0x48]
        0x0000f7dc:    981c        ..      LDR      r0,[sp,#0x70]
        0x0000f7de:    4408        .D      ADD      r0,r0,r1
        0x0000f7e0:    901c        ..      STR      r0,[sp,#0x70]
        0x0000f7e2:    e7ff        ..      B        0xf7e4 ; am_util_stdio_vsprintf + 1400
        0x0000f7e4:    9912        ..      LDR      r1,[sp,#0x48]
        0x0000f7e6:    9814        ..      LDR      r0,[sp,#0x50]
        0x0000f7e8:    4408        .D      ADD      r0,r0,r1
        0x0000f7ea:    9014        ..      STR      r0,[sp,#0x50]
        0x0000f7ec:    e059        Y.      B        0xf8a2 ; am_util_stdio_vsprintf + 1590
        0x0000f7ee:    981c        ..      LDR      r0,[sp,#0x70]
        0x0000f7f0:    2800        .(      CMP      r0,#0
        0x0000f7f2:    d047        G.      BEQ      0xf884 ; am_util_stdio_vsprintf + 1560
        0x0000f7f4:    e7ff        ..      B        0xf7f6 ; am_util_stdio_vsprintf + 1418
        0x0000f7f6:    981d        ..      LDR      r0,[sp,#0x74]
        0x0000f7f8:    3007        .0      ADDS     r0,#7
        0x0000f7fa:    f0200007     ...    BIC      r0,r0,#7
        0x0000f7fe:    f1000108    ....    ADD      r1,r0,#8
        0x0000f802:    911d        ..      STR      r1,[sp,#0x74]
        0x0000f804:    ed900b00    ....    VLDR     d0,[r0,#0]
        0x0000f808:    ec510b10    Q...    VMOV     r0,r1,d0
        0x0000f80c:    f001f938    ..8.    BL       __aeabi_d2f ; 0x10a80
        0x0000f810:    900d        ..      STR      r0,[sp,#0x34]
        0x0000f812:    991c        ..      LDR      r1,[sp,#0x70]
        0x0000f814:    2014        .       MOVS     r0,#0x14
        0x0000f816:    6008        .`      STR      r0,[r1,#0]
        0x0000f818:    ed9d0a0d    ....    VLDR     s0,[sp,#0x34]
        0x0000f81c:    981c        ..      LDR      r0,[sp,#0x70]
        0x0000f81e:    9911        ..      LDR      r1,[sp,#0x44]
        0x0000f820:    f000faa6    ....    BL       ftoa ; 0xfd70
        0x0000f824:    9012        ..      STR      r0,[sp,#0x48]
        0x0000f826:    9812        ..      LDR      r0,[sp,#0x48]
        0x0000f828:    f1b03fff    ...?    CMP      r0,#0xffffffff
        0x0000f82c:    dc21        !.      BGT      0xf872 ; am_util_stdio_vsprintf + 1542
        0x0000f82e:    e7ff        ..      B        0xf830 ; am_util_stdio_vsprintf + 1476
        0x0000f830:    9812        ..      LDR      r0,[sp,#0x48]
        0x0000f832:    3001        .0      ADDS     r0,#1
        0x0000f834:    b930        0.      CBNZ     r0,0xf844 ; am_util_stdio_vsprintf + 1496
        0x0000f836:    e7ff        ..      B        0xf838 ; am_util_stdio_vsprintf + 1484
        0x0000f838:    f6426030    B.0`    MOV      r0,#0x2e30
        0x0000f83c:    f2c00030    ..0.    MOVT     r0,#0x30
        0x0000f840:    900c        ..      STR      r0,[sp,#0x30]
        0x0000f842:    e010        ..      B        0xf866 ; am_util_stdio_vsprintf + 1530
        0x0000f844:    9812        ..      LDR      r0,[sp,#0x48]
        0x0000f846:    3002        .0      ADDS     r0,#2
        0x0000f848:    b930        0.      CBNZ     r0,0xf858 ; am_util_stdio_vsprintf + 1516
        0x0000f84a:    e7ff        ..      B        0xf84c ; am_util_stdio_vsprintf + 1504
        0x0000f84c:    f6426023    B.#`    MOV      r0,#0x2e23
        0x0000f850:    f2c00023    ..#.    MOVT     r0,#0x23
        0x0000f854:    900c        ..      STR      r0,[sp,#0x30]
        0x0000f856:    e005        ..      B        0xf864 ; am_util_stdio_vsprintf + 1528
        0x0000f858:    f642603f    B.?`    MOV      r0,#0x2e3f
        0x0000f85c:    f2c0003f    ..?.    MOVT     r0,#0x3f
        0x0000f860:    900c        ..      STR      r0,[sp,#0x30]
        0x0000f862:    e7ff        ..      B        0xf864 ; am_util_stdio_vsprintf + 1528
        0x0000f864:    e7ff        ..      B        0xf866 ; am_util_stdio_vsprintf + 1530
        0x0000f866:    980c        ..      LDR      r0,[sp,#0x30]
        0x0000f868:    991c        ..      LDR      r1,[sp,#0x70]
        0x0000f86a:    6008        .`      STR      r0,[r1,#0]
        0x0000f86c:    2003        .       MOVS     r0,#3
        0x0000f86e:    9012        ..      STR      r0,[sp,#0x48]
        0x0000f870:    e7ff        ..      B        0xf872 ; am_util_stdio_vsprintf + 1542
        0x0000f872:    9912        ..      LDR      r1,[sp,#0x48]
        0x0000f874:    9814        ..      LDR      r0,[sp,#0x50]
        0x0000f876:    4408        .D      ADD      r0,r0,r1
        0x0000f878:    9014        ..      STR      r0,[sp,#0x50]
        0x0000f87a:    9912        ..      LDR      r1,[sp,#0x48]
        0x0000f87c:    981c        ..      LDR      r0,[sp,#0x70]
        0x0000f87e:    4408        .D      ADD      r0,r0,r1
        0x0000f880:    901c        ..      STR      r0,[sp,#0x70]
        0x0000f882:    e7ff        ..      B        0xf884 ; am_util_stdio_vsprintf + 1560
        0x0000f884:    e00d        ..      B        0xf8a2 ; am_util_stdio_vsprintf + 1590
        0x0000f886:    981c        ..      LDR      r0,[sp,#0x70]
        0x0000f888:    b138        8.      CBZ      r0,0xf89a ; am_util_stdio_vsprintf + 1582
        0x0000f88a:    e7ff        ..      B        0xf88c ; am_util_stdio_vsprintf + 1568
        0x0000f88c:    981b        ..      LDR      r0,[sp,#0x6c]
        0x0000f88e:    7800        .x      LDRB     r0,[r0,#0]
        0x0000f890:    991c        ..      LDR      r1,[sp,#0x70]
        0x0000f892:    1c4a        J.      ADDS     r2,r1,#1
        0x0000f894:    921c        ..      STR      r2,[sp,#0x70]
        0x0000f896:    7008        .p      STRB     r0,[r1,#0]
        0x0000f898:    e7ff        ..      B        0xf89a ; am_util_stdio_vsprintf + 1582
        0x0000f89a:    9814        ..      LDR      r0,[sp,#0x50]
        0x0000f89c:    3001        .0      ADDS     r0,#1
        0x0000f89e:    9014        ..      STR      r0,[sp,#0x50]
        0x0000f8a0:    e7ff        ..      B        0xf8a2 ; am_util_stdio_vsprintf + 1590
        0x0000f8a2:    981b        ..      LDR      r0,[sp,#0x6c]
        0x0000f8a4:    3001        .0      ADDS     r0,#1
        0x0000f8a6:    901b        ..      STR      r0,[sp,#0x6c]
        0x0000f8a8:    f7ffbce9    ....    B.W      0xf27e ; am_util_stdio_vsprintf + 18
        0x0000f8ac:    981c        ..      LDR      r0,[sp,#0x70]
        0x0000f8ae:    b120         .      CBZ      r0,0xf8ba ; am_util_stdio_vsprintf + 1614
        0x0000f8b0:    e7ff        ..      B        0xf8b2 ; am_util_stdio_vsprintf + 1606
        0x0000f8b2:    991c        ..      LDR      r1,[sp,#0x70]
        0x0000f8b4:    2000        .       MOVS     r0,#0
        0x0000f8b6:    7008        .p      STRB     r0,[r1,#0]
        0x0000f8b8:    e7ff        ..      B        0xf8ba ; am_util_stdio_vsprintf + 1614
        0x0000f8ba:    9814        ..      LDR      r0,[sp,#0x50]
        0x0000f8bc:    b01e        ..      ADD      sp,sp,#0x78
        0x0000f8be:    bd80        ..      POP      {r7,pc}
    cmd_handler
        0x0000f8c0:    b580        ..      PUSH     {r7,lr}
        0x0000f8c2:    b08a        ..      SUB      sp,sp,#0x28
        0x0000f8c4:    9009        ..      STR      r0,[sp,#0x24]
        0x0000f8c6:    9108        ..      STR      r1,[sp,#0x20]
        0x0000f8c8:    2000        .       MOVS     r0,#0
        0x0000f8ca:    9006        ..      STR      r0,[sp,#0x18]
        0x0000f8cc:    e7ff        ..      B        0xf8ce ; cmd_handler + 14
        0x0000f8ce:    9806        ..      LDR      r0,[sp,#0x18]
        0x0000f8d0:    9908        ..      LDR      r1,[sp,#0x20]
        0x0000f8d2:    4288        .B      CMP      r0,r1
        0x0000f8d4:    d20e        ..      BCS      0xf8f4 ; cmd_handler + 52
        0x0000f8d6:    e7ff        ..      B        0xf8d8 ; cmd_handler + 24
        0x0000f8d8:    9809        ..      LDR      r0,[sp,#0x24]
        0x0000f8da:    9906        ..      LDR      r1,[sp,#0x18]
        0x0000f8dc:    5c41        A\      LDRB     r1,[r0,r1]
        0x0000f8de:    f64260b4    B..`    MOV      r0,#0x2eb4
        0x0000f8e2:    f2c00001    ....    MOVT     r0,#1
        0x0000f8e6:    f7fffc89    ....    BL       am_util_stdio_printf ; 0xf1fc
        0x0000f8ea:    e7ff        ..      B        0xf8ec ; cmd_handler + 44
        0x0000f8ec:    9806        ..      LDR      r0,[sp,#0x18]
        0x0000f8ee:    3001        .0      ADDS     r0,#1
        0x0000f8f0:    9006        ..      STR      r0,[sp,#0x18]
        0x0000f8f2:    e7ec        ..      B        0xf8ce ; cmd_handler + 14
        0x0000f8f4:    f64260b2    B..`    MOV      r0,#0x2eb2
        0x0000f8f8:    f2c00001    ....    MOVT     r0,#1
        0x0000f8fc:    f7fffc7e    ..~.    BL       am_util_stdio_printf ; 0xf1fc
        0x0000f900:    f24261d8    B..a    MOV      r1,#0x26d8
        0x0000f904:    f2c10100    ....    MOVT     r1,#0x1000
        0x0000f908:    2000        .       MOVS     r0,#0
        0x0000f90a:    7008        .p      STRB     r0,[r1,#0]
        0x0000f90c:    9809        ..      LDR      r0,[sp,#0x24]
        0x0000f90e:    2800        .(      CMP      r0,#0
        0x0000f910:    d061        a.      BEQ      0xf9d6 ; cmd_handler + 278
        0x0000f912:    e7ff        ..      B        0xf914 ; cmd_handler + 84
        0x0000f914:    9809        ..      LDR      r0,[sp,#0x24]
        0x0000f916:    7800        .x      LDRB     r0,[r0,#0]
        0x0000f918:    2801        .(      CMP      r0,#1
        0x0000f91a:    d15c        \.      BNE      0xf9d6 ; cmd_handler + 278
        0x0000f91c:    e7ff        ..      B        0xf91e ; cmd_handler + 94
        0x0000f91e:    9809        ..      LDR      r0,[sp,#0x24]
        0x0000f920:    7840        @x      LDRB     r0,[r0,#1]
        0x0000f922:    281e        .(      CMP      r0,#0x1e
        0x0000f924:    d157        W.      BNE      0xf9d6 ; cmd_handler + 278
        0x0000f926:    e7ff        ..      B        0xf928 ; cmd_handler + 104
        0x0000f928:    9809        ..      LDR      r0,[sp,#0x24]
        0x0000f92a:    7880        .x      LDRB     r0,[r0,#2]
        0x0000f92c:    2820         (      CMP      r0,#0x20
        0x0000f92e:    d152        R.      BNE      0xf9d6 ; cmd_handler + 278
        0x0000f930:    e7ff        ..      B        0xf932 ; cmd_handler + 114
        0x0000f932:    9809        ..      LDR      r0,[sp,#0x24]
        0x0000f934:    7980        .y      LDRB     r0,[r0,#6]
        0x0000f936:    4601        .F      MOV      r1,r0
        0x0000f938:    9104        ..      STR      r1,[sp,#0x10]
        0x0000f93a:    2808        .(      CMP      r0,#8
        0x0000f93c:    d014        ..      BEQ      0xf968 ; cmd_handler + 168
        0x0000f93e:    e7ff        ..      B        0xf940 ; cmd_handler + 128
        0x0000f940:    9804        ..      LDR      r0,[sp,#0x10]
        0x0000f942:    2809        .(      CMP      r0,#9
        0x0000f944:    d004        ..      BEQ      0xf950 ; cmd_handler + 144
        0x0000f946:    e7ff        ..      B        0xf948 ; cmd_handler + 136
        0x0000f948:    9804        ..      LDR      r0,[sp,#0x10]
        0x0000f94a:    28ff        .(      CMP      r0,#0xff
        0x0000f94c:    d016        ..      BEQ      0xf97c ; cmd_handler + 188
        0x0000f94e:    e040        @.      B        0xf9d2 ; cmd_handler + 274
        0x0000f950:    f643403c    C.<@    MOV      r0,#0x3c3c
        0x0000f954:    f2c10000    ....    MOVT     r0,#0x1000
        0x0000f958:    6800        .h      LDR      r0,[r0,#0]
        0x0000f95a:    2101        .!      MOVS     r1,#1
        0x0000f95c:    f7fffae6    ....    BL       am_util_ble_set_constant_transmission ; 0xef2c
        0x0000f960:    9909        ..      LDR      r1,[sp,#0x24]
        0x0000f962:    2000        .       MOVS     r0,#0
        0x0000f964:    7188        .q      STRB     r0,[r1,#6]
        0x0000f966:    e035        5.      B        0xf9d4 ; cmd_handler + 276
        0x0000f968:    f24261d8    B..a    MOV      r1,#0x26d8
        0x0000f96c:    f2c10100    ....    MOVT     r1,#0x1000
        0x0000f970:    2001        .       MOVS     r0,#1
        0x0000f972:    7008        .p      STRB     r0,[r1,#0]
        0x0000f974:    9909        ..      LDR      r1,[sp,#0x24]
        0x0000f976:    2000        .       MOVS     r0,#0
        0x0000f978:    7188        .q      STRB     r0,[r1,#6]
        0x0000f97a:    e02b        +.      B        0xf9d4 ; cmd_handler + 276
        0x0000f97c:    f643403c    C.<@    MOV      r0,#0x3c3c
        0x0000f980:    f2c10000    ....    MOVT     r0,#0x1000
        0x0000f984:    9003        ..      STR      r0,[sp,#0xc]
        0x0000f986:    6800        .h      LDR      r0,[r0,#0]
        0x0000f988:    2100        .!      MOVS     r1,#0
        0x0000f98a:    9102        ..      STR      r1,[sp,#8]
        0x0000f98c:    f7fffb7e    ..~.    BL       am_util_ble_transmitter_control ; 0xf08c
        0x0000f990:    9902        ..      LDR      r1,[sp,#8]
        0x0000f992:    9803        ..      LDR      r0,[sp,#0xc]
        0x0000f994:    6800        .h      LDR      r0,[r0,#0]
        0x0000f996:    f7fffac9    ....    BL       am_util_ble_set_constant_transmission ; 0xef2c
        0x0000f99a:    9803        ..      LDR      r0,[sp,#0xc]
        0x0000f99c:    6800        .h      LDR      r0,[r0,#0]
        0x0000f99e:    2101        .!      MOVS     r1,#1
        0x0000f9a0:    f7fdfe80    ....    BL       am_hal_ble_power_control ; 0xd6a4
        0x0000f9a4:    e7ff        ..      B        0xf9a6 ; cmd_handler + 230
        0x0000f9a6:    f2410008    A...    MOV      r0,#0x1008
        0x0000f9aa:    f2c40002    ....    MOVT     r0,#0x4002
        0x0000f9ae:    6800        .h      LDR      r0,[r0,#0]
        0x0000f9b0:    0b40        @.      LSRS     r0,r0,#13
        0x0000f9b2:    07c0        ..      LSLS     r0,r0,#31
        0x0000f9b4:    b108        ..      CBZ      r0,0xf9ba ; cmd_handler + 250
        0x0000f9b6:    e7ff        ..      B        0xf9b8 ; cmd_handler + 248
        0x0000f9b8:    e7f5        ..      B        0xf9a6 ; cmd_handler + 230
        0x0000f9ba:    f643403c    C.<@    MOV      r0,#0x3c3c
        0x0000f9be:    f2c10000    ....    MOVT     r0,#0x1000
        0x0000f9c2:    6800        .h      LDR      r0,[r0,#0]
        0x0000f9c4:    f7fdf984    ....    BL       am_hal_ble_deinitialize ; 0xccd0
        0x0000f9c8:    2001        .       MOVS     r0,#1
        0x0000f9ca:    2100        .!      MOVS     r1,#0
        0x0000f9cc:    f7fefdf0    ....    BL       am_hal_reset_control ; 0xe5b0
        0x0000f9d0:    e000        ..      B        0xf9d4 ; cmd_handler + 276
        0x0000f9d2:    e7ff        ..      B        0xf9d4 ; cmd_handler + 276
        0x0000f9d4:    e7ff        ..      B        0xf9d6 ; cmd_handler + 278
        0x0000f9d6:    9809        ..      LDR      r0,[sp,#0x24]
        0x0000f9d8:    2800        .(      CMP      r0,#0
        0x0000f9da:    f00080a6    ....    BEQ.W    0xfb2a ; cmd_handler + 618
        0x0000f9de:    e7ff        ..      B        0xf9e0 ; cmd_handler + 288
        0x0000f9e0:    9808        ..      LDR      r0,[sp,#0x20]
        0x0000f9e2:    2805        .(      CMP      r0,#5
        0x0000f9e4:    f04080a1    @...    BNE.W    0xfb2a ; cmd_handler + 618
        0x0000f9e8:    e7ff        ..      B        0xf9ea ; cmd_handler + 298
        0x0000f9ea:    9809        ..      LDR      r0,[sp,#0x24]
        0x0000f9ec:    7800        .x      LDRB     r0,[r0,#0]
        0x0000f9ee:    2841        A(      CMP      r0,#0x41
        0x0000f9f0:    f040809b    @...    BNE.W    0xfb2a ; cmd_handler + 618
        0x0000f9f4:    e7ff        ..      B        0xf9f6 ; cmd_handler + 310
        0x0000f9f6:    9809        ..      LDR      r0,[sp,#0x24]
        0x0000f9f8:    7840        @x      LDRB     r0,[r0,#1]
        0x0000f9fa:    284d        M(      CMP      r0,#0x4d
        0x0000f9fc:    f0408095    @...    BNE.W    0xfb2a ; cmd_handler + 618
        0x0000fa00:    e7ff        ..      B        0xfa02 ; cmd_handler + 322
        0x0000fa02:    9809        ..      LDR      r0,[sp,#0x24]
        0x0000fa04:    78c1        .x      LDRB     r1,[r0,#3]
        0x0000fa06:    7900        .y      LDRB     r0,[r0,#4]
        0x0000fa08:    ea402001    @..     ORR      r0,r0,r1,LSL #8
        0x0000fa0c:    f8ad001e    ....    STRH     r0,[sp,#0x1e]
        0x0000fa10:    9809        ..      LDR      r0,[sp,#0x24]
        0x0000fa12:    7880        .x      LDRB     r0,[r0,#2]
        0x0000fa14:    3830        08      SUBS     r0,r0,#0x30
        0x0000fa16:    4601        .F      MOV      r1,r0
        0x0000fa18:    9101        ..      STR      r1,[sp,#4]
        0x0000fa1a:    2804        .(      CMP      r0,#4
        0x0000fa1c:    f2008076    ..v.    BHI.W    0xfb0c ; cmd_handler + 588
        0x0000fa20:    9901        ..      LDR      r1,[sp,#4]
        0x0000fa22:    e8dff001    ....    TBB      [pc,r1]
    $d.3
        0x0000fa26:    3303        .3      DCW    13059
        0x0000fa28:    00635343    CSc.    DCD    6509379
    $t.4
        0x0000fa2c:    f8bd001e    ....    LDRH     r0,[sp,#0x1e]
        0x0000fa30:    2801        .(      CMP      r0,#1
        0x0000fa32:    db21        !.      BLT      0xfa78 ; cmd_handler + 440
        0x0000fa34:    e7ff        ..      B        0xfa36 ; cmd_handler + 374
        0x0000fa36:    f8bd001e    ....    LDRH     r0,[sp,#0x1e]
        0x0000fa3a:    280f        .(      CMP      r0,#0xf
        0x0000fa3c:    dc1c        ..      BGT      0xfa78 ; cmd_handler + 440
        0x0000fa3e:    e7ff        ..      B        0xfa40 ; cmd_handler + 384
        0x0000fa40:    f643403c    C.<@    MOV      r0,#0x3c3c
        0x0000fa44:    f2c10000    ....    MOVT     r0,#0x1000
        0x0000fa48:    6800        .h      LDR      r0,[r0,#0]
        0x0000fa4a:    f89d101e    ....    LDRB     r1,[sp,#0x1e]
        0x0000fa4e:    f7fdff82    ....    BL       am_hal_ble_tx_power_set ; 0xd956
        0x0000fa52:    9005        ..      STR      r0,[sp,#0x14]
        0x0000fa54:    9805        ..      LDR      r0,[sp,#0x14]
        0x0000fa56:    b938        8.      CBNZ     r0,0xfa68 ; cmd_handler + 424
        0x0000fa58:    e7ff        ..      B        0xfa5a ; cmd_handler + 410
        0x0000fa5a:    f642509c    B..P    MOV      r0,#0x2d9c
        0x0000fa5e:    f2c00001    ....    MOVT     r0,#1
        0x0000fa62:    f7fffbcb    ....    BL       am_util_stdio_printf ; 0xf1fc
        0x0000fa66:    e006        ..      B        0xfa76 ; cmd_handler + 438
        0x0000fa68:    f6426056    B.V`    MOV      r0,#0x2e56
        0x0000fa6c:    f2c00001    ....    MOVT     r0,#1
        0x0000fa70:    f7fffbc4    ....    BL       am_util_stdio_printf ; 0xf1fc
        0x0000fa74:    e7ff        ..      B        0xfa76 ; cmd_handler + 438
        0x0000fa76:    e008        ..      B        0xfa8a ; cmd_handler + 458
        0x0000fa78:    f8bd101e    ....    LDRH     r1,[sp,#0x1e]
        0x0000fa7c:    f642603b    B.;`    MOV      r0,#0x2e3b
        0x0000fa80:    f2c00001    ....    MOVT     r0,#1
        0x0000fa84:    f7fffbba    ....    BL       am_util_stdio_printf ; 0xf1fc
        0x0000fa88:    e7ff        ..      B        0xfa8a ; cmd_handler + 458
        0x0000fa8a:    e047        G.      B        0xfb1c ; cmd_handler + 604
        0x0000fa8c:    f643403c    C.<@    MOV      r0,#0x3c3c
        0x0000fa90:    f2c10000    ....    MOVT     r0,#0x1000
        0x0000fa94:    6800        .h      LDR      r0,[r0,#0]
        0x0000fa96:    f8bd101e    ....    LDRH     r1,[sp,#0x1e]
        0x0000fa9a:    f7fff915    ....    BL       am_util_ble_crystal_trim_set ; 0xecc8
        0x0000fa9e:    f64250b9    B..P    MOV      r0,#0x2db9
        0x0000faa2:    f2c00001    ....    MOVT     r0,#1
        0x0000faa6:    f7fffba9    ....    BL       am_util_stdio_printf ; 0xf1fc
        0x0000faaa:    e037        7.      B        0xfb1c ; cmd_handler + 604
        0x0000faac:    f643403c    C.<@    MOV      r0,#0x3c3c
        0x0000fab0:    f2c10000    ....    MOVT     r0,#0x1000
        0x0000fab4:    6800        .h      LDR      r0,[r0,#0]
        0x0000fab6:    f89d101e    ....    LDRB     r1,[sp,#0x1e]
        0x0000faba:    f7fdfee4    ....    BL       am_hal_ble_transmitter_modex_set ; 0xd886
        0x0000fabe:    f64250d8    B..P    MOV      r0,#0x2dd8
        0x0000fac2:    f2c00001    ....    MOVT     r0,#1
        0x0000fac6:    f7fffb99    ....    BL       am_util_stdio_printf ; 0xf1fc
        0x0000faca:    e027        '.      B        0xfb1c ; cmd_handler + 604
        0x0000facc:    f643403c    C.<@    MOV      r0,#0x3c3c
        0x0000fad0:    f2c10000    ....    MOVT     r0,#0x1000
        0x0000fad4:    6800        .h      LDR      r0,[r0,#0]
        0x0000fad6:    f89d101e    ....    LDRB     r1,[sp,#0x1e]
        0x0000fada:    f7fffb01    ....    BL       am_util_ble_transmitter_control_ex ; 0xf0e0
        0x0000fade:    f6426021    B.!`    MOV      r0,#0x2e21
        0x0000fae2:    f2c00001    ....    MOVT     r0,#1
        0x0000fae6:    f7fffb89    ....    BL       am_util_stdio_printf ; 0xf1fc
        0x0000faea:    e017        ..      B        0xfb1c ; cmd_handler + 604
        0x0000faec:    f643403c    C.<@    MOV      r0,#0x3c3c
        0x0000faf0:    f2c10000    ....    MOVT     r0,#0x1000
        0x0000faf4:    6800        .h      LDR      r0,[r0,#0]
        0x0000faf6:    f89d101e    ....    LDRB     r1,[sp,#0x1e]
        0x0000fafa:    f7fffa43    ..C.    BL       am_util_ble_set_constant_transmission_ex ; 0xef84
        0x0000fafe:    f64250f5    B..P    MOV      r0,#0x2df5
        0x0000fb02:    f2c00001    ....    MOVT     r0,#1
        0x0000fb06:    f7fffb79    ..y.    BL       am_util_stdio_printf ; 0xf1fc
        0x0000fb0a:    e007        ..      B        0xfb1c ; cmd_handler + 604
        0x0000fb0c:    9909        ..      LDR      r1,[sp,#0x24]
        0x0000fb0e:    f642507a    B.zP    MOV      r0,#0x2d7a
        0x0000fb12:    f2c00001    ....    MOVT     r0,#1
        0x0000fb16:    f7fffb71    ..q.    BL       am_util_stdio_printf ; 0xf1fc
        0x0000fb1a:    e7ff        ..      B        0xfb1c ; cmd_handler + 604
        0x0000fb1c:    f24271b0    B..q    MOV      r1,#0x27b0
        0x0000fb20:    f2c10100    ....    MOVT     r1,#0x1000
        0x0000fb24:    2001        .       MOVS     r0,#1
        0x0000fb26:    7008        .p      STRB     r0,[r1,#0]
        0x0000fb28:    e006        ..      B        0xfb38 ; cmd_handler + 632
        0x0000fb2a:    f24271b0    B..q    MOV      r1,#0x27b0
        0x0000fb2e:    f2c10100    ....    MOVT     r1,#0x1000
        0x0000fb32:    2000        .       MOVS     r0,#0
        0x0000fb34:    7008        .p      STRB     r0,[r1,#0]
        0x0000fb36:    e7ff        ..      B        0xfb38 ; cmd_handler + 632
        0x0000fb38:    b00a        ..      ADD      sp,sp,#0x28
        0x0000fb3a:    bd80        ..      POP      {r7,pc}
    decstr_to_int
        0x0000fb3c:    b087        ..      SUB      sp,sp,#0x1c
        0x0000fb3e:    9006        ..      STR      r0,[sp,#0x18]
        0x0000fb40:    9105        ..      STR      r1,[sp,#0x14]
        0x0000fb42:    2000        .       MOVS     r0,#0
        0x0000fb44:    f88d0013    ....    STRB     r0,[sp,#0x13]
        0x0000fb48:    9003        ..      STR      r0,[sp,#0xc]
        0x0000fb4a:    9002        ..      STR      r0,[sp,#8]
        0x0000fb4c:    9806        ..      LDR      r0,[sp,#0x18]
        0x0000fb4e:    7800        .x      LDRB     r0,[r0,#0]
        0x0000fb50:    282d        -(      CMP      r0,#0x2d
        0x0000fb52:    d10a        ..      BNE      0xfb6a ; decstr_to_int + 46
        0x0000fb54:    e7ff        ..      B        0xfb56 ; decstr_to_int + 26
        0x0000fb56:    2001        .       MOVS     r0,#1
        0x0000fb58:    f88d0013    ....    STRB     r0,[sp,#0x13]
        0x0000fb5c:    9806        ..      LDR      r0,[sp,#0x18]
        0x0000fb5e:    3001        .0      ADDS     r0,#1
        0x0000fb60:    9006        ..      STR      r0,[sp,#0x18]
        0x0000fb62:    9802        ..      LDR      r0,[sp,#8]
        0x0000fb64:    3001        .0      ADDS     r0,#1
        0x0000fb66:    9002        ..      STR      r0,[sp,#8]
        0x0000fb68:    e7ff        ..      B        0xfb6a ; decstr_to_int + 46
        0x0000fb6a:    e7ff        ..      B        0xfb6c ; decstr_to_int + 48
        0x0000fb6c:    9806        ..      LDR      r0,[sp,#0x18]
        0x0000fb6e:    7801        .x      LDRB     r1,[r0,#0]
        0x0000fb70:    2000        .       MOVS     r0,#0
        0x0000fb72:    2930        0)      CMP      r1,#0x30
        0x0000fb74:    9001        ..      STR      r0,[sp,#4]
        0x0000fb76:    db08        ..      BLT      0xfb8a ; decstr_to_int + 78
        0x0000fb78:    e7ff        ..      B        0xfb7a ; decstr_to_int + 62
        0x0000fb7a:    9806        ..      LDR      r0,[sp,#0x18]
        0x0000fb7c:    7801        .x      LDRB     r1,[r0,#0]
        0x0000fb7e:    2000        .       MOVS     r0,#0
        0x0000fb80:    293a        :)      CMP      r1,#0x3a
        0x0000fb82:    bfb8        ..      IT       LT
        0x0000fb84:    2001        .       MOVLT    r0,#1
        0x0000fb86:    9001        ..      STR      r0,[sp,#4]
        0x0000fb88:    e7ff        ..      B        0xfb8a ; decstr_to_int + 78
        0x0000fb8a:    9801        ..      LDR      r0,[sp,#4]
        0x0000fb8c:    07c0        ..      LSLS     r0,r0,#31
        0x0000fb8e:    b190        ..      CBZ      r0,0xfbb6 ; decstr_to_int + 122
        0x0000fb90:    e7ff        ..      B        0xfb92 ; decstr_to_int + 86
        0x0000fb92:    9802        ..      LDR      r0,[sp,#8]
        0x0000fb94:    3001        .0      ADDS     r0,#1
        0x0000fb96:    9002        ..      STR      r0,[sp,#8]
        0x0000fb98:    9803        ..      LDR      r0,[sp,#0xc]
        0x0000fb9a:    eb000080    ....    ADD      r0,r0,r0,LSL #2
        0x0000fb9e:    0040        @.      LSLS     r0,r0,#1
        0x0000fba0:    9003        ..      STR      r0,[sp,#0xc]
        0x0000fba2:    9806        ..      LDR      r0,[sp,#0x18]
        0x0000fba4:    7800        .x      LDRB     r0,[r0,#0]
        0x0000fba6:    9903        ..      LDR      r1,[sp,#0xc]
        0x0000fba8:    4408        .D      ADD      r0,r0,r1
        0x0000fbaa:    3830        08      SUBS     r0,r0,#0x30
        0x0000fbac:    9003        ..      STR      r0,[sp,#0xc]
        0x0000fbae:    9806        ..      LDR      r0,[sp,#0x18]
        0x0000fbb0:    3001        .0      ADDS     r0,#1
        0x0000fbb2:    9006        ..      STR      r0,[sp,#0x18]
        0x0000fbb4:    e7da        ..      B        0xfb6c ; decstr_to_int + 48
        0x0000fbb6:    9805        ..      LDR      r0,[sp,#0x14]
        0x0000fbb8:    b120         .      CBZ      r0,0xfbc4 ; decstr_to_int + 136
        0x0000fbba:    e7ff        ..      B        0xfbbc ; decstr_to_int + 128
        0x0000fbbc:    9802        ..      LDR      r0,[sp,#8]
        0x0000fbbe:    9905        ..      LDR      r1,[sp,#0x14]
        0x0000fbc0:    6008        .`      STR      r0,[r1,#0]
        0x0000fbc2:    e7ff        ..      B        0xfbc4 ; decstr_to_int + 136
        0x0000fbc4:    f89d0013    ....    LDRB     r0,[sp,#0x13]
        0x0000fbc8:    07c0        ..      LSLS     r0,r0,#31
        0x0000fbca:    b120         .      CBZ      r0,0xfbd6 ; decstr_to_int + 154
        0x0000fbcc:    e7ff        ..      B        0xfbce ; decstr_to_int + 146
        0x0000fbce:    9803        ..      LDR      r0,[sp,#0xc]
        0x0000fbd0:    4240        @B      RSBS     r0,r0,#0
        0x0000fbd2:    9000        ..      STR      r0,[sp,#0]
        0x0000fbd4:    e002        ..      B        0xfbdc ; decstr_to_int + 160
        0x0000fbd6:    9803        ..      LDR      r0,[sp,#0xc]
        0x0000fbd8:    9000        ..      STR      r0,[sp,#0]
        0x0000fbda:    e7ff        ..      B        0xfbdc ; decstr_to_int + 160
        0x0000fbdc:    9800        ..      LDR      r0,[sp,#0]
        0x0000fbde:    b007        ..      ADD      sp,sp,#0x1c
        0x0000fbe0:    4770        pG      BX       lr
        0x0000fbe2:    0000        ..      MOVS     r0,r0
    divu64_10
        0x0000fbe4:    b08c        ..      SUB      sp,sp,#0x30
        0x0000fbe6:    9109        ..      STR      r1,[sp,#0x24]
        0x0000fbe8:    9008        ..      STR      r0,[sp,#0x20]
        0x0000fbea:    9809        ..      LDR      r0,[sp,#0x24]
        0x0000fbec:    2800        .(      CMP      r0,#0
        0x0000fbee:    d05b        [.      BEQ      0xfca8 ; divu64_10 + 196
        0x0000fbf0:    e7ff        ..      B        0xfbf2 ; divu64_10 + 14
        0x0000fbf2:    9b08        ..      LDR      r3,[sp,#0x20]
        0x0000fbf4:    9a09        ..      LDR      r2,[sp,#0x24]
        0x0000fbf6:    ea5f0052    _.R.    LSRS.W   r0,r2,#1
        0x0000fbfa:    ea4f0133    O.3.    RRX      r1,r3
        0x0000fbfe:    089b        ..      LSRS     r3,r3,#2
        0x0000fc00:    ea437382    C..s    ORR      r3,r3,r2,LSL #30
        0x0000fc04:    18c9        ..      ADDS     r1,r1,r3
        0x0000fc06:    eb400092    @...    ADC      r0,r0,r2,LSR #2
        0x0000fc0a:    9106        ..      STR      r1,[sp,#0x18]
        0x0000fc0c:    9007        ..      STR      r0,[sp,#0x1c]
        0x0000fc0e:    9906        ..      LDR      r1,[sp,#0x18]
        0x0000fc10:    9807        ..      LDR      r0,[sp,#0x1c]
        0x0000fc12:    090a        ..      LSRS     r2,r1,#4
        0x0000fc14:    ea427200    B..r    ORR      r2,r2,r0,LSL #28
        0x0000fc18:    1889        ..      ADDS     r1,r1,r2
        0x0000fc1a:    eb401010    @...    ADC      r0,r0,r0,LSR #4
        0x0000fc1e:    9106        ..      STR      r1,[sp,#0x18]
        0x0000fc20:    9007        ..      STR      r0,[sp,#0x1c]
        0x0000fc22:    9906        ..      LDR      r1,[sp,#0x18]
        0x0000fc24:    9807        ..      LDR      r0,[sp,#0x1c]
        0x0000fc26:    0a0a        ..      LSRS     r2,r1,#8
        0x0000fc28:    ea426200    B..b    ORR      r2,r2,r0,LSL #24
        0x0000fc2c:    1889        ..      ADDS     r1,r1,r2
        0x0000fc2e:    eb402010    @..     ADC      r0,r0,r0,LSR #8
        0x0000fc32:    9106        ..      STR      r1,[sp,#0x18]
        0x0000fc34:    9007        ..      STR      r0,[sp,#0x1c]
        0x0000fc36:    9906        ..      LDR      r1,[sp,#0x18]
        0x0000fc38:    9807        ..      LDR      r0,[sp,#0x1c]
        0x0000fc3a:    0c0a        ..      LSRS     r2,r1,#16
        0x0000fc3c:    ea424200    B..B    ORR      r2,r2,r0,LSL #16
        0x0000fc40:    1889        ..      ADDS     r1,r1,r2
        0x0000fc42:    eb404010    @..@    ADC      r0,r0,r0,LSR #16
        0x0000fc46:    9106        ..      STR      r1,[sp,#0x18]
        0x0000fc48:    9007        ..      STR      r0,[sp,#0x1c]
        0x0000fc4a:    9906        ..      LDR      r1,[sp,#0x18]
        0x0000fc4c:    9807        ..      LDR      r0,[sp,#0x1c]
        0x0000fc4e:    1809        ..      ADDS     r1,r1,r0
        0x0000fc50:    f1400000    @...    ADC      r0,r0,#0
        0x0000fc54:    9106        ..      STR      r1,[sp,#0x18]
        0x0000fc56:    9007        ..      STR      r0,[sp,#0x1c]
        0x0000fc58:    9806        ..      LDR      r0,[sp,#0x18]
        0x0000fc5a:    9907        ..      LDR      r1,[sp,#0x1c]
        0x0000fc5c:    08c0        ..      LSRS     r0,r0,#3
        0x0000fc5e:    ea407041    @.Ap    ORR      r0,r0,r1,LSL #29
        0x0000fc62:    08c9        ..      LSRS     r1,r1,#3
        0x0000fc64:    9107        ..      STR      r1,[sp,#0x1c]
        0x0000fc66:    9006        ..      STR      r0,[sp,#0x18]
        0x0000fc68:    9908        ..      LDR      r1,[sp,#0x20]
        0x0000fc6a:    9809        ..      LDR      r0,[sp,#0x24]
        0x0000fc6c:    9a06        ..      LDR      r2,[sp,#0x18]
        0x0000fc6e:    f8ddc01c    ....    LDR      r12,[sp,#0x1c]
        0x0000fc72:    230a        .#      MOVS     r3,#0xa
        0x0000fc74:    fba23203    ...2    UMULL    r3,r2,r2,r3
        0x0000fc78:    eb0c0c8c    ....    ADD      r12,r12,r12,LSL #2
        0x0000fc7c:    eb02024c    ..L.    ADD      r2,r2,r12,LSL #1
        0x0000fc80:    1ac9        ..      SUBS     r1,r1,r3
        0x0000fc82:    4190        .A      SBCS     r0,r0,r2
        0x0000fc84:    9104        ..      STR      r1,[sp,#0x10]
        0x0000fc86:    9005        ..      STR      r0,[sp,#0x14]
        0x0000fc88:    9906        ..      LDR      r1,[sp,#0x18]
        0x0000fc8a:    9807        ..      LDR      r0,[sp,#0x1c]
        0x0000fc8c:    9b04        ..      LDR      r3,[sp,#0x10]
        0x0000fc8e:    9a05        ..      LDR      r2,[sp,#0x14]
        0x0000fc90:    3306        .3      ADDS     r3,#6
        0x0000fc92:    f1420200    B...    ADC      r2,r2,#0
        0x0000fc96:    091b        ..      LSRS     r3,r3,#4
        0x0000fc98:    ea437302    C..s    ORR      r3,r3,r2,LSL #28
        0x0000fc9c:    18c9        ..      ADDS     r1,r1,r3
        0x0000fc9e:    eb401012    @...    ADC      r0,r0,r2,LSR #4
        0x0000fca2:    910a        ..      STR      r1,[sp,#0x28]
        0x0000fca4:    900b        ..      STR      r0,[sp,#0x2c]
        0x0000fca6:    e025        %.      B        0xfcf4 ; divu64_10 + 272
        0x0000fca8:    9808        ..      LDR      r0,[sp,#0x20]
        0x0000fcaa:    9001        ..      STR      r0,[sp,#4]
        0x0000fcac:    9901        ..      LDR      r1,[sp,#4]
        0x0000fcae:    0848        H.      LSRS     r0,r1,#1
        0x0000fcb0:    eb000091    ....    ADD      r0,r0,r1,LSR #2
        0x0000fcb4:    9003        ..      STR      r0,[sp,#0xc]
        0x0000fcb6:    9803        ..      LDR      r0,[sp,#0xc]
        0x0000fcb8:    eb001010    ....    ADD      r0,r0,r0,LSR #4
        0x0000fcbc:    9003        ..      STR      r0,[sp,#0xc]
        0x0000fcbe:    9803        ..      LDR      r0,[sp,#0xc]
        0x0000fcc0:    eb002010    ...     ADD      r0,r0,r0,LSR #8
        0x0000fcc4:    9003        ..      STR      r0,[sp,#0xc]
        0x0000fcc6:    9803        ..      LDR      r0,[sp,#0xc]
        0x0000fcc8:    eb004010    ...@    ADD      r0,r0,r0,LSR #16
        0x0000fccc:    9003        ..      STR      r0,[sp,#0xc]
        0x0000fcce:    9803        ..      LDR      r0,[sp,#0xc]
        0x0000fcd0:    08c0        ..      LSRS     r0,r0,#3
        0x0000fcd2:    9003        ..      STR      r0,[sp,#0xc]
        0x0000fcd4:    9801        ..      LDR      r0,[sp,#4]
        0x0000fcd6:    9903        ..      LDR      r1,[sp,#0xc]
        0x0000fcd8:    eb010181    ....    ADD      r1,r1,r1,LSL #2
        0x0000fcdc:    eba00041    ..A.    SUB      r0,r0,r1,LSL #1
        0x0000fce0:    9002        ..      STR      r0,[sp,#8]
        0x0000fce2:    9803        ..      LDR      r0,[sp,#0xc]
        0x0000fce4:    9902        ..      LDR      r1,[sp,#8]
        0x0000fce6:    3106        .1      ADDS     r1,#6
        0x0000fce8:    eb001011    ....    ADD      r0,r0,r1,LSR #4
        0x0000fcec:    2100        .!      MOVS     r1,#0
        0x0000fcee:    910b        ..      STR      r1,[sp,#0x2c]
        0x0000fcf0:    900a        ..      STR      r0,[sp,#0x28]
        0x0000fcf2:    e7ff        ..      B        0xfcf4 ; divu64_10 + 272
        0x0000fcf4:    980a        ..      LDR      r0,[sp,#0x28]
        0x0000fcf6:    990b        ..      LDR      r1,[sp,#0x2c]
        0x0000fcf8:    b00c        ..      ADD      sp,sp,#0x30
        0x0000fcfa:    4770        pG      BX       lr
    fix_trans_mode
        0x0000fcfc:    b580        ..      PUSH     {r7,lr}
        0x0000fcfe:    b082        ..      SUB      sp,sp,#8
        0x0000fd00:    9001        ..      STR      r0,[sp,#4]
        0x0000fd02:    f24260d8    B..`    MOV      r0,#0x26d8
        0x0000fd06:    f2c10000    ....    MOVT     r0,#0x1000
        0x0000fd0a:    7800        .x      LDRB     r0,[r0,#0]
        0x0000fd0c:    2801        .(      CMP      r0,#1
        0x0000fd0e:    d109        ..      BNE      0xfd24 ; fix_trans_mode + 40
        0x0000fd10:    e7ff        ..      B        0xfd12 ; fix_trans_mode + 22
        0x0000fd12:    f643403c    C.<@    MOV      r0,#0x3c3c
        0x0000fd16:    f2c10000    ....    MOVT     r0,#0x1000
        0x0000fd1a:    6800        .h      LDR      r0,[r0,#0]
        0x0000fd1c:    2101        .!      MOVS     r1,#1
        0x0000fd1e:    f7fff9b5    ....    BL       am_util_ble_transmitter_control ; 0xf08c
        0x0000fd22:    e023        #.      B        0xfd6c ; fix_trans_mode + 112
        0x0000fd24:    200c        .       MOVS     r0,#0xc
        0x0000fd26:    f2c40002    ....    MOVT     r0,#0x4002
        0x0000fd2a:    6800        .h      LDR      r0,[r0,#0]
        0x0000fd2c:    b2c0        ..      UXTB     r0,r0
        0x0000fd2e:    2811        .(      CMP      r0,#0x11
        0x0000fd30:    d008        ..      BEQ      0xfd44 ; fix_trans_mode + 72
        0x0000fd32:    e7ff        ..      B        0xfd34 ; fix_trans_mode + 56
        0x0000fd34:    200c        .       MOVS     r0,#0xc
        0x0000fd36:    f2c40002    ....    MOVT     r0,#0x4002
        0x0000fd3a:    6800        .h      LDR      r0,[r0,#0]
        0x0000fd3c:    b2c0        ..      UXTB     r0,r0
        0x0000fd3e:    2812        .(      CMP      r0,#0x12
        0x0000fd40:    d113        ..      BNE      0xfd6a ; fix_trans_mode + 110
        0x0000fd42:    e7ff        ..      B        0xfd44 ; fix_trans_mode + 72
        0x0000fd44:    9801        ..      LDR      r0,[sp,#4]
        0x0000fd46:    7900        .y      LDRB     r0,[r0,#4]
        0x0000fd48:    2803        .(      CMP      r0,#3
        0x0000fd4a:    d10d        ..      BNE      0xfd68 ; fix_trans_mode + 108
        0x0000fd4c:    e7ff        ..      B        0xfd4e ; fix_trans_mode + 82
        0x0000fd4e:    9801        ..      LDR      r0,[sp,#4]
        0x0000fd50:    7940        @y      LDRB     r0,[r0,#5]
        0x0000fd52:    280c        .(      CMP      r0,#0xc
        0x0000fd54:    d108        ..      BNE      0xfd68 ; fix_trans_mode + 108
        0x0000fd56:    e7ff        ..      B        0xfd58 ; fix_trans_mode + 92
        0x0000fd58:    f643403c    C.<@    MOV      r0,#0x3c3c
        0x0000fd5c:    f2c10000    ....    MOVT     r0,#0x1000
        0x0000fd60:    6800        .h      LDR      r0,[r0,#0]
        0x0000fd62:    f7feffd9    ....    BL       am_util_ble_init_rf_channel ; 0xed18
        0x0000fd66:    e7ff        ..      B        0xfd68 ; fix_trans_mode + 108
        0x0000fd68:    e7ff        ..      B        0xfd6a ; fix_trans_mode + 110
        0x0000fd6a:    e7ff        ..      B        0xfd6c ; fix_trans_mode + 112
        0x0000fd6c:    b002        ..      ADD      sp,sp,#8
        0x0000fd6e:    bd80        ..      POP      {r7,pc}
    ftoa
        0x0000fd70:    b580        ..      PUSH     {r7,lr}
        0x0000fd72:    b090        ..      SUB      sp,sp,#0x40
        0x0000fd74:    ed8d0a0e    ....    VSTR     s0,[sp,#0x38]
        0x0000fd78:    900d        ..      STR      r0,[sp,#0x34]
        0x0000fd7a:    910c        ..      STR      r1,[sp,#0x30]
        0x0000fd7c:    980d        ..      LDR      r0,[sp,#0x34]
        0x0000fd7e:    6800        .h      LDR      r0,[r0,#0]
        0x0000fd80:    9009        ..      STR      r0,[sp,#0x24]
        0x0000fd82:    9809        ..      LDR      r0,[sp,#0x24]
        0x0000fd84:    2803        .(      CMP      r0,#3
        0x0000fd86:    dc04        ..      BGT      0xfd92 ; ftoa + 34
        0x0000fd88:    e7ff        ..      B        0xfd8a ; ftoa + 26
        0x0000fd8a:    f06f0002    o...    MVN      r0,#2
        0x0000fd8e:    900f        ..      STR      r0,[sp,#0x3c]
        0x0000fd90:    e103        ..      B        0xff9a ; ftoa + 554
        0x0000fd92:    ed9d0a0e    ....    VLDR     s0,[sp,#0x38]
        0x0000fd96:    eeb50a40    ..@.    VCMP.F32 s0,#0.0
        0x0000fd9a:    eef1fa10    ....    VMRS     APSR_nzcv,FPSCR
        0x0000fd9e:    d109        ..      BNE      0xfdb4 ; ftoa + 68
        0x0000fda0:    e7ff        ..      B        0xfda2 ; ftoa + 50
        0x0000fda2:    990d        ..      LDR      r1,[sp,#0x34]
        0x0000fda4:    f6426030    B.0`    MOV      r0,#0x2e30
        0x0000fda8:    f2c00030    ..0.    MOVT     r0,#0x30
        0x0000fdac:    6008        .`      STR      r0,[r1,#0]
        0x0000fdae:    2003        .       MOVS     r0,#3
        0x0000fdb0:    900f        ..      STR      r0,[sp,#0x3c]
        0x0000fdb2:    e0f2        ..      B        0xff9a ; ftoa + 554
        0x0000fdb4:    980d        ..      LDR      r0,[sp,#0x34]
        0x0000fdb6:    9005        ..      STR      r0,[sp,#0x14]
        0x0000fdb8:    980e        ..      LDR      r0,[sp,#0x38]
        0x0000fdba:    900b        ..      STR      r0,[sp,#0x2c]
        0x0000fdbc:    980b        ..      LDR      r0,[sp,#0x2c]
        0x0000fdbe:    0dc1        ..      LSRS     r1,r0,#23
        0x0000fdc0:    f06f007e    o.~.    MVN      r0,#0x7e
        0x0000fdc4:    fa50f081    P...    UXTAB    r0,r0,r1
        0x0000fdc8:    900a        ..      STR      r0,[sp,#0x28]
        0x0000fdca:    980b        ..      LDR      r0,[sp,#0x2c]
        0x0000fdcc:    f4400000    @...    ORR      r0,r0,#0x800000
        0x0000fdd0:    f020407f     ..@    BIC      r0,r0,#0xff000000
        0x0000fdd4:    9008        ..      STR      r0,[sp,#0x20]
        0x0000fdd6:    2000        .       MOVS     r0,#0
        0x0000fdd8:    9006        ..      STR      r0,[sp,#0x18]
        0x0000fdda:    9007        ..      STR      r0,[sp,#0x1c]
        0x0000fddc:    980a        ..      LDR      r0,[sp,#0x28]
        0x0000fdde:    281f        .(      CMP      r0,#0x1f
        0x0000fde0:    db04        ..      BLT      0xfdec ; ftoa + 124
        0x0000fde2:    e7ff        ..      B        0xfde4 ; ftoa + 116
        0x0000fde4:    f06f0001    o...    MVN      r0,#1
        0x0000fde8:    900f        ..      STR      r0,[sp,#0x3c]
        0x0000fdea:    e0d6        ..      B        0xff9a ; ftoa + 554
        0x0000fdec:    980a        ..      LDR      r0,[sp,#0x28]
        0x0000fdee:    f1100f18    ....    CMN      r0,#0x18
        0x0000fdf2:    dc04        ..      BGT      0xfdfe ; ftoa + 142
        0x0000fdf4:    e7ff        ..      B        0xfdf6 ; ftoa + 134
        0x0000fdf6:    f04f30ff    O..0    MOV      r0,#0xffffffff
        0x0000fdfa:    900f        ..      STR      r0,[sp,#0x3c]
        0x0000fdfc:    e0cd        ..      B        0xff9a ; ftoa + 554
        0x0000fdfe:    980a        ..      LDR      r0,[sp,#0x28]
        0x0000fe00:    2817        .(      CMP      r0,#0x17
        0x0000fe02:    db06        ..      BLT      0xfe12 ; ftoa + 162
        0x0000fe04:    e7ff        ..      B        0xfe06 ; ftoa + 150
        0x0000fe06:    9808        ..      LDR      r0,[sp,#0x20]
        0x0000fe08:    990a        ..      LDR      r1,[sp,#0x28]
        0x0000fe0a:    3917        .9      SUBS     r1,r1,#0x17
        0x0000fe0c:    4088        .@      LSLS     r0,r0,r1
        0x0000fe0e:    9007        ..      STR      r0,[sp,#0x1c]
        0x0000fe10:    e01a        ..      B        0xfe48 ; ftoa + 216
        0x0000fe12:    980a        ..      LDR      r0,[sp,#0x28]
        0x0000fe14:    2800        .(      CMP      r0,#0
        0x0000fe16:    d40e        ..      BMI      0xfe36 ; ftoa + 198
        0x0000fe18:    e7ff        ..      B        0xfe1a ; ftoa + 170
        0x0000fe1a:    9808        ..      LDR      r0,[sp,#0x20]
        0x0000fe1c:    990a        ..      LDR      r1,[sp,#0x28]
        0x0000fe1e:    f1c10117    ....    RSB      r1,r1,#0x17
        0x0000fe22:    4108        .A      ASRS     r0,r0,r1
        0x0000fe24:    9007        ..      STR      r0,[sp,#0x1c]
        0x0000fe26:    9808        ..      LDR      r0,[sp,#0x20]
        0x0000fe28:    990a        ..      LDR      r1,[sp,#0x28]
        0x0000fe2a:    3101        .1      ADDS     r1,#1
        0x0000fe2c:    4088        .@      LSLS     r0,r0,r1
        0x0000fe2e:    f020407f     ..@    BIC      r0,r0,#0xff000000
        0x0000fe32:    9006        ..      STR      r0,[sp,#0x18]
        0x0000fe34:    e007        ..      B        0xfe46 ; ftoa + 214
        0x0000fe36:    9808        ..      LDR      r0,[sp,#0x20]
        0x0000fe38:    f020407f     ..@    BIC      r0,r0,#0xff000000
        0x0000fe3c:    990a        ..      LDR      r1,[sp,#0x28]
        0x0000fe3e:    43c9        .C      MVNS     r1,r1
        0x0000fe40:    40c8        .@      LSRS     r0,r0,r1
        0x0000fe42:    9006        ..      STR      r0,[sp,#0x18]
        0x0000fe44:    e7ff        ..      B        0xfe46 ; ftoa + 214
        0x0000fe46:    e7ff        ..      B        0xfe48 ; ftoa + 216
        0x0000fe48:    e7ff        ..      B        0xfe4a ; ftoa + 218
        0x0000fe4a:    e7ff        ..      B        0xfe4c ; ftoa + 220
        0x0000fe4c:    980b        ..      LDR      r0,[sp,#0x2c]
        0x0000fe4e:    f1b03fff    ...?    CMP      r0,#0xffffffff
        0x0000fe52:    dc06        ..      BGT      0xfe62 ; ftoa + 242
        0x0000fe54:    e7ff        ..      B        0xfe56 ; ftoa + 230
        0x0000fe56:    990d        ..      LDR      r1,[sp,#0x34]
        0x0000fe58:    1c48        H.      ADDS     r0,r1,#1
        0x0000fe5a:    900d        ..      STR      r0,[sp,#0x34]
        0x0000fe5c:    202d        -       MOVS     r0,#0x2d
        0x0000fe5e:    7008        .p      STRB     r0,[r1,#0]
        0x0000fe60:    e7ff        ..      B        0xfe62 ; ftoa + 242
        0x0000fe62:    9807        ..      LDR      r0,[sp,#0x1c]
        0x0000fe64:    b930        0.      CBNZ     r0,0xfe74 ; ftoa + 260
        0x0000fe66:    e7ff        ..      B        0xfe68 ; ftoa + 248
        0x0000fe68:    990d        ..      LDR      r1,[sp,#0x34]
        0x0000fe6a:    1c48        H.      ADDS     r0,r1,#1
        0x0000fe6c:    900d        ..      STR      r0,[sp,#0x34]
        0x0000fe6e:    2030        0       MOVS     r0,#0x30
        0x0000fe70:    7008        .p      STRB     r0,[r1,#0]
        0x0000fe72:    e01f        ..      B        0xfeb4 ; ftoa + 324
        0x0000fe74:    9807        ..      LDR      r0,[sp,#0x1c]
        0x0000fe76:    2801        .(      CMP      r0,#1
        0x0000fe78:    db06        ..      BLT      0xfe88 ; ftoa + 280
        0x0000fe7a:    e7ff        ..      B        0xfe7c ; ftoa + 268
        0x0000fe7c:    9807        ..      LDR      r0,[sp,#0x1c]
        0x0000fe7e:    17c1        ..      ASRS     r1,r0,#31
        0x0000fe80:    9a0d        ..      LDR      r2,[sp,#0x34]
        0x0000fe82:    f000fd7d    ..}.    BL       uint64_to_str ; 0x10980
        0x0000fe86:    e00b        ..      B        0xfea0 ; ftoa + 304
        0x0000fe88:    990d        ..      LDR      r1,[sp,#0x34]
        0x0000fe8a:    1c48        H.      ADDS     r0,r1,#1
        0x0000fe8c:    900d        ..      STR      r0,[sp,#0x34]
        0x0000fe8e:    202d        -       MOVS     r0,#0x2d
        0x0000fe90:    7008        .p      STRB     r0,[r1,#0]
        0x0000fe92:    9807        ..      LDR      r0,[sp,#0x1c]
        0x0000fe94:    4240        @B      RSBS     r0,r0,#0
        0x0000fe96:    17c1        ..      ASRS     r1,r0,#31
        0x0000fe98:    9a0d        ..      LDR      r2,[sp,#0x34]
        0x0000fe9a:    f000fd71    ..q.    BL       uint64_to_str ; 0x10980
        0x0000fe9e:    e7ff        ..      B        0xfea0 ; ftoa + 304
        0x0000fea0:    e7ff        ..      B        0xfea2 ; ftoa + 306
        0x0000fea2:    980d        ..      LDR      r0,[sp,#0x34]
        0x0000fea4:    7800        .x      LDRB     r0,[r0,#0]
        0x0000fea6:    b120         .      CBZ      r0,0xfeb2 ; ftoa + 322
        0x0000fea8:    e7ff        ..      B        0xfeaa ; ftoa + 314
        0x0000feaa:    980d        ..      LDR      r0,[sp,#0x34]
        0x0000feac:    3001        .0      ADDS     r0,#1
        0x0000feae:    900d        ..      STR      r0,[sp,#0x34]
        0x0000feb0:    e7f7        ..      B        0xfea2 ; ftoa + 306
        0x0000feb2:    e7ff        ..      B        0xfeb4 ; ftoa + 324
        0x0000feb4:    990d        ..      LDR      r1,[sp,#0x34]
        0x0000feb6:    1c48        H.      ADDS     r0,r1,#1
        0x0000feb8:    900d        ..      STR      r0,[sp,#0x34]
        0x0000feba:    202e        .       MOVS     r0,#0x2e
        0x0000febc:    7008        .p      STRB     r0,[r1,#0]
        0x0000febe:    9806        ..      LDR      r0,[sp,#0x18]
        0x0000fec0:    b930        0.      CBNZ     r0,0xfed0 ; ftoa + 352
        0x0000fec2:    e7ff        ..      B        0xfec4 ; ftoa + 340
        0x0000fec4:    990d        ..      LDR      r1,[sp,#0x34]
        0x0000fec6:    1c48        H.      ADDS     r0,r1,#1
        0x0000fec8:    900d        ..      STR      r0,[sp,#0x34]
        0x0000feca:    2030        0       MOVS     r0,#0x30
        0x0000fecc:    7008        .p      STRB     r0,[r1,#0]
        0x0000fece:    e05c        \.      B        0xff8a ; ftoa + 538
        0x0000fed0:    9909        ..      LDR      r1,[sp,#0x24]
        0x0000fed2:    980d        ..      LDR      r0,[sp,#0x34]
        0x0000fed4:    9a05        ..      LDR      r2,[sp,#0x14]
        0x0000fed6:    1a80        ..      SUBS     r0,r0,r2
        0x0000fed8:    43c0        .C      MVNS     r0,r0
        0x0000feda:    4408        .D      ADD      r0,r0,r1
        0x0000fedc:    9002        ..      STR      r0,[sp,#8]
        0x0000fede:    9802        ..      LDR      r0,[sp,#8]
        0x0000fee0:    990c        ..      LDR      r1,[sp,#0x30]
        0x0000fee2:    4288        .B      CMP      r0,r1
        0x0000fee4:    dd03        ..      BLE      0xfeee ; ftoa + 382
        0x0000fee6:    e7ff        ..      B        0xfee8 ; ftoa + 376
        0x0000fee8:    980c        ..      LDR      r0,[sp,#0x30]
        0x0000feea:    9001        ..      STR      r0,[sp,#4]
        0x0000feec:    e002        ..      B        0xfef4 ; ftoa + 388
        0x0000feee:    9802        ..      LDR      r0,[sp,#8]
        0x0000fef0:    9001        ..      STR      r0,[sp,#4]
        0x0000fef2:    e7ff        ..      B        0xfef4 ; ftoa + 388
        0x0000fef4:    9801        ..      LDR      r0,[sp,#4]
        0x0000fef6:    9002        ..      STR      r0,[sp,#8]
        0x0000fef8:    2000        .       MOVS     r0,#0
        0x0000fefa:    9003        ..      STR      r0,[sp,#0xc]
        0x0000fefc:    e7ff        ..      B        0xfefe ; ftoa + 398
        0x0000fefe:    9803        ..      LDR      r0,[sp,#0xc]
        0x0000ff00:    9902        ..      LDR      r1,[sp,#8]
        0x0000ff02:    4288        .B      CMP      r0,r1
        0x0000ff04:    da15        ..      BGE      0xff32 ; ftoa + 450
        0x0000ff06:    e7ff        ..      B        0xff08 ; ftoa + 408
        0x0000ff08:    9806        ..      LDR      r0,[sp,#0x18]
        0x0000ff0a:    eb000080    ....    ADD      r0,r0,r0,LSL #2
        0x0000ff0e:    0040        @.      LSLS     r0,r0,#1
        0x0000ff10:    9006        ..      STR      r0,[sp,#0x18]
        0x0000ff12:    f89d001b    ....    LDRB     r0,[sp,#0x1b]
        0x0000ff16:    3030        00      ADDS     r0,r0,#0x30
        0x0000ff18:    990d        ..      LDR      r1,[sp,#0x34]
        0x0000ff1a:    1c4a        J.      ADDS     r2,r1,#1
        0x0000ff1c:    920d        ..      STR      r2,[sp,#0x34]
        0x0000ff1e:    7008        .p      STRB     r0,[r1,#0]
        0x0000ff20:    9806        ..      LDR      r0,[sp,#0x18]
        0x0000ff22:    f020407f     ..@    BIC      r0,r0,#0xff000000
        0x0000ff26:    9006        ..      STR      r0,[sp,#0x18]
        0x0000ff28:    e7ff        ..      B        0xff2a ; ftoa + 442
        0x0000ff2a:    9803        ..      LDR      r0,[sp,#0xc]
        0x0000ff2c:    3001        .0      ADDS     r0,#1
        0x0000ff2e:    9003        ..      STR      r0,[sp,#0xc]
        0x0000ff30:    e7e5        ..      B        0xfefe ; ftoa + 398
        0x0000ff32:    9806        ..      LDR      r0,[sp,#0x18]
        0x0000ff34:    eb000080    ....    ADD      r0,r0,r0,LSL #2
        0x0000ff38:    f34050c7    @..P    SBFX     r0,r0,#23,#8
        0x0000ff3c:    2805        .(      CMP      r0,#5
        0x0000ff3e:    db23        #.      BLT      0xff88 ; ftoa + 536
        0x0000ff40:    e7ff        ..      B        0xff42 ; ftoa + 466
        0x0000ff42:    980d        ..      LDR      r0,[sp,#0x34]
        0x0000ff44:    3801        .8      SUBS     r0,#1
        0x0000ff46:    9004        ..      STR      r0,[sp,#0x10]
        0x0000ff48:    e7ff        ..      B        0xff4a ; ftoa + 474
        0x0000ff4a:    9804        ..      LDR      r0,[sp,#0x10]
        0x0000ff4c:    9905        ..      LDR      r1,[sp,#0x14]
        0x0000ff4e:    4288        .B      CMP      r0,r1
        0x0000ff50:    d319        ..      BCC      0xff86 ; ftoa + 534
        0x0000ff52:    e7ff        ..      B        0xff54 ; ftoa + 484
        0x0000ff54:    9804        ..      LDR      r0,[sp,#0x10]
        0x0000ff56:    7800        .x      LDRB     r0,[r0,#0]
        0x0000ff58:    282e        .(      CMP      r0,#0x2e
        0x0000ff5a:    d101        ..      BNE      0xff60 ; ftoa + 496
        0x0000ff5c:    e7ff        ..      B        0xff5e ; ftoa + 494
        0x0000ff5e:    e00e        ..      B        0xff7e ; ftoa + 526
        0x0000ff60:    9804        ..      LDR      r0,[sp,#0x10]
        0x0000ff62:    7800        .x      LDRB     r0,[r0,#0]
        0x0000ff64:    2839        9(      CMP      r0,#0x39
        0x0000ff66:    d104        ..      BNE      0xff72 ; ftoa + 514
        0x0000ff68:    e7ff        ..      B        0xff6a ; ftoa + 506
        0x0000ff6a:    9904        ..      LDR      r1,[sp,#0x10]
        0x0000ff6c:    2030        0       MOVS     r0,#0x30
        0x0000ff6e:    7008        .p      STRB     r0,[r1,#0]
        0x0000ff70:    e004        ..      B        0xff7c ; ftoa + 524
        0x0000ff72:    9904        ..      LDR      r1,[sp,#0x10]
        0x0000ff74:    7808        .x      LDRB     r0,[r1,#0]
        0x0000ff76:    3001        .0      ADDS     r0,#1
        0x0000ff78:    7008        .p      STRB     r0,[r1,#0]
        0x0000ff7a:    e004        ..      B        0xff86 ; ftoa + 534
        0x0000ff7c:    e7ff        ..      B        0xff7e ; ftoa + 526
        0x0000ff7e:    9804        ..      LDR      r0,[sp,#0x10]
        0x0000ff80:    3801        .8      SUBS     r0,#1
        0x0000ff82:    9004        ..      STR      r0,[sp,#0x10]
        0x0000ff84:    e7e1        ..      B        0xff4a ; ftoa + 474
        0x0000ff86:    e7ff        ..      B        0xff88 ; ftoa + 536
        0x0000ff88:    e7ff        ..      B        0xff8a ; ftoa + 538
        0x0000ff8a:    990d        ..      LDR      r1,[sp,#0x34]
        0x0000ff8c:    2000        .       MOVS     r0,#0
        0x0000ff8e:    7008        .p      STRB     r0,[r1,#0]
        0x0000ff90:    980d        ..      LDR      r0,[sp,#0x34]
        0x0000ff92:    9905        ..      LDR      r1,[sp,#0x14]
        0x0000ff94:    1a40        @.      SUBS     r0,r0,r1
        0x0000ff96:    900f        ..      STR      r0,[sp,#0x3c]
        0x0000ff98:    e7ff        ..      B        0xff9a ; ftoa + 554
        0x0000ff9a:    980f        ..      LDR      r0,[sp,#0x3c]
        0x0000ff9c:    b010        ..      ADD      sp,sp,#0x40
        0x0000ff9e:    bd80        ..      POP      {r7,pc}
    getStackedReg
        0x0000ffa0:    0080        ..      LSLS     r0,r0,#2
        0x0000ffa2:    1840        @.      ADDS     r0,r0,r1
        0x0000ffa4:    6800        .h      LDR      r0,[r0,#0]
        0x0000ffa6:    4770        pG      BX       lr
    hciUartRxIncoming
        0x0000ffa8:    b580        ..      PUSH     {r7,lr}
        0x0000ffaa:    b086        ..      SUB      sp,sp,#0x18
        0x0000ffac:    9004        ..      STR      r0,[sp,#0x10]
        0x0000ffae:    f8ad100e    ....    STRH     r1,[sp,#0xe]
        0x0000ffb2:    2000        .       MOVS     r0,#0
        0x0000ffb4:    f8ad000a    ....    STRH     r0,[sp,#0xa]
        0x0000ffb8:    e7ff        ..      B        0xffba ; hciUartRxIncoming + 18
        0x0000ffba:    f8bd000e    ....    LDRH     r0,[sp,#0xe]
        0x0000ffbe:    2800        .(      CMP      r0,#0
        0x0000ffc0:    f000815b    ..[.    BEQ.W    0x1027a ; hciUartRxIncoming + 722
        0x0000ffc4:    e7ff        ..      B        0xffc6 ; hciUartRxIncoming + 30
        0x0000ffc6:    9804        ..      LDR      r0,[sp,#0x10]
        0x0000ffc8:    7800        .x      LDRB     r0,[r0,#0]
        0x0000ffca:    f88d000d    ....    STRB     r0,[sp,#0xd]
        0x0000ffce:    f64360a1    C..`    MOV      r0,#0x3ea1
        0x0000ffd2:    f2c10000    ....    MOVT     r0,#0x1000
        0x0000ffd6:    7800        .x      LDRB     r0,[r0,#0]
        0x0000ffd8:    bb08        ..      CBNZ     r0,0x1001e ; hciUartRxIncoming + 118
        0x0000ffda:    e7ff        ..      B        0xffdc ; hciUartRxIncoming + 52
        0x0000ffdc:    f89d000d    ....    LDRB     r0,[sp,#0xd]
        0x0000ffe0:    f64361a0    C..a    MOV      r1,#0x3ea0
        0x0000ffe4:    f2c10100    ....    MOVT     r1,#0x1000
        0x0000ffe8:    7008        .p      STRB     r0,[r1,#0]
        0x0000ffea:    f6434198    C..A    MOV      r1,#0x3c98
        0x0000ffee:    f2c10100    ....    MOVT     r1,#0x1000
        0x0000fff2:    2000        .       MOVS     r0,#0
        0x0000fff4:    8008        ..      STRH     r0,[r1,#0]
        0x0000fff6:    f64361a1    C..a    MOV      r1,#0x3ea1
        0x0000fffa:    f2c10100    ....    MOVT     r1,#0x1000
        0x0000fffe:    2001        .       MOVS     r0,#1
        0x00010000:    7008        .p      STRB     r0,[r1,#0]
        0x00010002:    9804        ..      LDR      r0,[sp,#0x10]
        0x00010004:    3001        .0      ADDS     r0,#1
        0x00010006:    9004        ..      STR      r0,[sp,#0x10]
        0x00010008:    f8bd000a    ....    LDRH     r0,[sp,#0xa]
        0x0001000c:    3001        .0      ADDS     r0,#1
        0x0001000e:    f8ad000a    ....    STRH     r0,[sp,#0xa]
        0x00010012:    f8bd000e    ....    LDRH     r0,[sp,#0xe]
        0x00010016:    3801        .8      SUBS     r0,#1
        0x00010018:    f8ad000e    ....    STRH     r0,[sp,#0xe]
        0x0001001c:    e10c        ..      B        0x10238 ; hciUartRxIncoming + 656
        0x0001001e:    f64360a1    C..`    MOV      r0,#0x3ea1
        0x00010022:    f2c10000    ....    MOVT     r0,#0x1000
        0x00010026:    7800        .x      LDRB     r0,[r0,#0]
        0x00010028:    2801        .(      CMP      r0,#1
        0x0001002a:    f04080d2    @...    BNE.W    0x101d2 ; hciUartRxIncoming + 554
        0x0001002e:    e7ff        ..      B        0x10030 ; hciUartRxIncoming + 136
        0x00010030:    2000        .       MOVS     r0,#0
        0x00010032:    f88d0009    ....    STRB     r0,[sp,#9]
        0x00010036:    f8ad0006    ....    STRH     r0,[sp,#6]
        0x0001003a:    f64360a0    C..`    MOV      r0,#0x3ea0
        0x0001003e:    f2c10000    ....    MOVT     r0,#0x1000
        0x00010042:    7800        .x      LDRB     r0,[r0,#0]
        0x00010044:    2801        .(      CMP      r0,#1
        0x00010046:    d104        ..      BNE      0x10052 ; hciUartRxIncoming + 170
        0x00010048:    e7ff        ..      B        0x1004a ; hciUartRxIncoming + 162
        0x0001004a:    2003        .       MOVS     r0,#3
        0x0001004c:    f88d0009    ....    STRB     r0,[sp,#9]
        0x00010050:    e024        $.      B        0x1009c ; hciUartRxIncoming + 244
        0x00010052:    f64360a0    C..`    MOV      r0,#0x3ea0
        0x00010056:    f2c10000    ....    MOVT     r0,#0x1000
        0x0001005a:    7800        .x      LDRB     r0,[r0,#0]
        0x0001005c:    2802        .(      CMP      r0,#2
        0x0001005e:    d104        ..      BNE      0x1006a ; hciUartRxIncoming + 194
        0x00010060:    e7ff        ..      B        0x10062 ; hciUartRxIncoming + 186
        0x00010062:    2004        .       MOVS     r0,#4
        0x00010064:    f88d0009    ....    STRB     r0,[sp,#9]
        0x00010068:    e017        ..      B        0x1009a ; hciUartRxIncoming + 242
        0x0001006a:    f64360a0    C..`    MOV      r0,#0x3ea0
        0x0001006e:    f2c10000    ....    MOVT     r0,#0x1000
        0x00010072:    7800        .x      LDRB     r0,[r0,#0]
        0x00010074:    2841        A(      CMP      r0,#0x41
        0x00010076:    d104        ..      BNE      0x10082 ; hciUartRxIncoming + 218
        0x00010078:    e7ff        ..      B        0x1007a ; hciUartRxIncoming + 210
        0x0001007a:    2004        .       MOVS     r0,#4
        0x0001007c:    f88d0009    ....    STRB     r0,[sp,#9]
        0x00010080:    e00a        ..      B        0x10098 ; hciUartRxIncoming + 240
        0x00010082:    f64361a1    C..a    MOV      r1,#0x3ea1
        0x00010086:    f2c10100    ....    MOVT     r1,#0x1000
        0x0001008a:    2000        .       MOVS     r0,#0
        0x0001008c:    7008        .p      STRB     r0,[r1,#0]
        0x0001008e:    f8bd000a    ....    LDRH     r0,[sp,#0xa]
        0x00010092:    f8ad0016    ....    STRH     r0,[sp,#0x16]
        0x00010096:    e0f5        ..      B        0x10284 ; hciUartRxIncoming + 732
        0x00010098:    e7ff        ..      B        0x1009a ; hciUartRxIncoming + 242
        0x0001009a:    e7ff        ..      B        0x1009c ; hciUartRxIncoming + 244
        0x0001009c:    f6434098    C..@    MOV      r0,#0x3c98
        0x000100a0:    f2c10000    ....    MOVT     r0,#0x1000
        0x000100a4:    8800        ..      LDRH     r0,[r0,#0]
        0x000100a6:    f89d1009    ....    LDRB     r1,[sp,#9]
        0x000100aa:    4288        .B      CMP      r0,r1
        0x000100ac:    d01c        ..      BEQ      0x100e8 ; hciUartRxIncoming + 320
        0x000100ae:    e7ff        ..      B        0x100b0 ; hciUartRxIncoming + 264
        0x000100b0:    f89d000d    ....    LDRB     r0,[sp,#0xd]
        0x000100b4:    f6434398    C..C    MOV      r3,#0x3c98
        0x000100b8:    f2c10300    ....    MOVT     r3,#0x1000
        0x000100bc:    881a        ..      LDRH     r2,[r3,#0]
        0x000100be:    1c51        Q.      ADDS     r1,r2,#1
        0x000100c0:    8019        ..      STRH     r1,[r3,#0]
        0x000100c2:    f6434194    C..A    MOV      r1,#0x3c94
        0x000100c6:    f2c10100    ....    MOVT     r1,#0x1000
        0x000100ca:    5488        .T      STRB     r0,[r1,r2]
        0x000100cc:    9804        ..      LDR      r0,[sp,#0x10]
        0x000100ce:    3001        .0      ADDS     r0,#1
        0x000100d0:    9004        ..      STR      r0,[sp,#0x10]
        0x000100d2:    f8bd000a    ....    LDRH     r0,[sp,#0xa]
        0x000100d6:    3001        .0      ADDS     r0,#1
        0x000100d8:    f8ad000a    ....    STRH     r0,[sp,#0xa]
        0x000100dc:    f8bd000e    ....    LDRH     r0,[sp,#0xe]
        0x000100e0:    3801        .8      SUBS     r0,#1
        0x000100e2:    f8ad000e    ....    STRH     r0,[sp,#0xe]
        0x000100e6:    e7ff        ..      B        0x100e8 ; hciUartRxIncoming + 320
        0x000100e8:    f6434098    C..@    MOV      r0,#0x3c98
        0x000100ec:    f2c10000    ....    MOVT     r0,#0x1000
        0x000100f0:    8800        ..      LDRH     r0,[r0,#0]
        0x000100f2:    f89d1009    ....    LDRB     r1,[sp,#9]
        0x000100f6:    4288        .B      CMP      r0,r1
        0x000100f8:    d16a        j.      BNE      0x101d0 ; hciUartRxIncoming + 552
        0x000100fa:    e7ff        ..      B        0x100fc ; hciUartRxIncoming + 340
        0x000100fc:    2000        .       MOVS     r0,#0
        0x000100fe:    f88d0005    ....    STRB     r0,[sp,#5]
        0x00010102:    f64360a0    C..`    MOV      r0,#0x3ea0
        0x00010106:    f2c10000    ....    MOVT     r0,#0x1000
        0x0001010a:    7800        .x      LDRB     r0,[r0,#0]
        0x0001010c:    2801        .(      CMP      r0,#1
        0x0001010e:    d108        ..      BNE      0x10122 ; hciUartRxIncoming + 378
        0x00010110:    e7ff        ..      B        0x10112 ; hciUartRxIncoming + 362
        0x00010112:    f6434094    C..@    MOV      r0,#0x3c94
        0x00010116:    f2c10000    ....    MOVT     r0,#0x1000
        0x0001011a:    7880        .x      LDRB     r0,[r0,#2]
        0x0001011c:    f8ad0006    ....    STRH     r0,[sp,#6]
        0x00010120:    e013        ..      B        0x1014a ; hciUartRxIncoming + 418
        0x00010122:    f64360a0    C..`    MOV      r0,#0x3ea0
        0x00010126:    f2c10000    ....    MOVT     r0,#0x1000
        0x0001012a:    7800        .x      LDRB     r0,[r0,#0]
        0x0001012c:    2802        .(      CMP      r0,#2
        0x0001012e:    d10b        ..      BNE      0x10148 ; hciUartRxIncoming + 416
        0x00010130:    e7ff        ..      B        0x10132 ; hciUartRxIncoming + 394
        0x00010132:    f6434194    C..A    MOV      r1,#0x3c94
        0x00010136:    f2c10100    ....    MOVT     r1,#0x1000
        0x0001013a:    7888        .x      LDRB     r0,[r1,#2]
        0x0001013c:    78c9        .x      LDRB     r1,[r1,#3]
        0x0001013e:    ea402001    @..     ORR      r0,r0,r1,LSL #8
        0x00010142:    f8ad0006    ....    STRH     r0,[sp,#6]
        0x00010146:    e7ff        ..      B        0x10148 ; hciUartRxIncoming + 416
        0x00010148:    e7ff        ..      B        0x1014a ; hciUartRxIncoming + 418
        0x0001014a:    f643419c    C..A    MOV      r1,#0x3c9c
        0x0001014e:    f2c10100    ....    MOVT     r1,#0x1000
        0x00010152:    f64340a0    C..@    MOV      r0,#0x3ca0
        0x00010156:    f2c10000    ....    MOVT     r0,#0x1000
        0x0001015a:    6008        .`      STR      r0,[r1,#0]
        0x0001015c:    2000        .       MOVS     r0,#0
        0x0001015e:    f88d0005    ....    STRB     r0,[sp,#5]
        0x00010162:    e7ff        ..      B        0x10164 ; hciUartRxIncoming + 444
        0x00010164:    f89d0005    ....    LDRB     r0,[sp,#5]
        0x00010168:    f89d1009    ....    LDRB     r1,[sp,#9]
        0x0001016c:    4288        .B      CMP      r0,r1
        0x0001016e:    da16        ..      BGE      0x1019e ; hciUartRxIncoming + 502
        0x00010170:    e7ff        ..      B        0x10172 ; hciUartRxIncoming + 458
        0x00010172:    f89d1005    ....    LDRB     r1,[sp,#5]
        0x00010176:    f6434094    C..@    MOV      r0,#0x3c94
        0x0001017a:    f2c10000    ....    MOVT     r0,#0x1000
        0x0001017e:    5c40        @\      LDRB     r0,[r0,r1]
        0x00010180:    f643439c    C..C    MOV      r3,#0x3c9c
        0x00010184:    f2c10300    ....    MOVT     r3,#0x1000
        0x00010188:    6819        .h      LDR      r1,[r3,#0]
        0x0001018a:    1c4a        J.      ADDS     r2,r1,#1
        0x0001018c:    601a        .`      STR      r2,[r3,#0]
        0x0001018e:    7008        .p      STRB     r0,[r1,#0]
        0x00010190:    e7ff        ..      B        0x10192 ; hciUartRxIncoming + 490
        0x00010192:    f89d0005    ....    LDRB     r0,[sp,#5]
        0x00010196:    3001        .0      ADDS     r0,#1
        0x00010198:    f88d0005    ....    STRB     r0,[sp,#5]
        0x0001019c:    e7e2        ..      B        0x10164 ; hciUartRxIncoming + 444
        0x0001019e:    f8bd1006    ....    LDRH     r1,[sp,#6]
        0x000101a2:    f6434098    C..@    MOV      r0,#0x3c98
        0x000101a6:    f2c10000    ....    MOVT     r0,#0x1000
        0x000101aa:    8001        ..      STRH     r1,[r0,#0]
        0x000101ac:    8800        ..      LDRH     r0,[r0,#0]
        0x000101ae:    b938        8.      CBNZ     r0,0x101c0 ; hciUartRxIncoming + 536
        0x000101b0:    e7ff        ..      B        0x101b2 ; hciUartRxIncoming + 522
        0x000101b2:    f64361a1    C..a    MOV      r1,#0x3ea1
        0x000101b6:    f2c10100    ....    MOVT     r1,#0x1000
        0x000101ba:    2003        .       MOVS     r0,#3
        0x000101bc:    7008        .p      STRB     r0,[r1,#0]
        0x000101be:    e006        ..      B        0x101ce ; hciUartRxIncoming + 550
        0x000101c0:    f64361a1    C..a    MOV      r1,#0x3ea1
        0x000101c4:    f2c10100    ....    MOVT     r1,#0x1000
        0x000101c8:    2002        .       MOVS     r0,#2
        0x000101ca:    7008        .p      STRB     r0,[r1,#0]
        0x000101cc:    e7ff        ..      B        0x101ce ; hciUartRxIncoming + 550
        0x000101ce:    e7ff        ..      B        0x101d0 ; hciUartRxIncoming + 552
        0x000101d0:    e031        1.      B        0x10236 ; hciUartRxIncoming + 654
        0x000101d2:    f64360a1    C..`    MOV      r0,#0x3ea1
        0x000101d6:    f2c10000    ....    MOVT     r0,#0x1000
        0x000101da:    7800        .x      LDRB     r0,[r0,#0]
        0x000101dc:    2802        .(      CMP      r0,#2
        0x000101de:    d129        ).      BNE      0x10234 ; hciUartRxIncoming + 652
        0x000101e0:    e7ff        ..      B        0x101e2 ; hciUartRxIncoming + 570
        0x000101e2:    f89d000d    ....    LDRB     r0,[sp,#0xd]
        0x000101e6:    f643439c    C..C    MOV      r3,#0x3c9c
        0x000101ea:    f2c10300    ....    MOVT     r3,#0x1000
        0x000101ee:    6819        .h      LDR      r1,[r3,#0]
        0x000101f0:    1c4a        J.      ADDS     r2,r1,#1
        0x000101f2:    601a        .`      STR      r2,[r3,#0]
        0x000101f4:    7008        .p      STRB     r0,[r1,#0]
        0x000101f6:    f6434098    C..@    MOV      r0,#0x3c98
        0x000101fa:    f2c10000    ....    MOVT     r0,#0x1000
        0x000101fe:    8801        ..      LDRH     r1,[r0,#0]
        0x00010200:    3901        .9      SUBS     r1,#1
        0x00010202:    8001        ..      STRH     r1,[r0,#0]
        0x00010204:    8800        ..      LDRH     r0,[r0,#0]
        0x00010206:    b938        8.      CBNZ     r0,0x10218 ; hciUartRxIncoming + 624
        0x00010208:    e7ff        ..      B        0x1020a ; hciUartRxIncoming + 610
        0x0001020a:    f64361a1    C..a    MOV      r1,#0x3ea1
        0x0001020e:    f2c10100    ....    MOVT     r1,#0x1000
        0x00010212:    2003        .       MOVS     r0,#3
        0x00010214:    7008        .p      STRB     r0,[r1,#0]
        0x00010216:    e7ff        ..      B        0x10218 ; hciUartRxIncoming + 624
        0x00010218:    9804        ..      LDR      r0,[sp,#0x10]
        0x0001021a:    3001        .0      ADDS     r0,#1
        0x0001021c:    9004        ..      STR      r0,[sp,#0x10]
        0x0001021e:    f8bd000a    ....    LDRH     r0,[sp,#0xa]
        0x00010222:    3001        .0      ADDS     r0,#1
        0x00010224:    f8ad000a    ....    STRH     r0,[sp,#0xa]
        0x00010228:    f8bd000e    ....    LDRH     r0,[sp,#0xe]
        0x0001022c:    3801        .8      SUBS     r0,#1
        0x0001022e:    f8ad000e    ....    STRH     r0,[sp,#0xe]
        0x00010232:    e7ff        ..      B        0x10234 ; hciUartRxIncoming + 652
        0x00010234:    e7ff        ..      B        0x10236 ; hciUartRxIncoming + 654
        0x00010236:    e7ff        ..      B        0x10238 ; hciUartRxIncoming + 656
        0x00010238:    f64360a1    C..`    MOV      r0,#0x3ea1
        0x0001023c:    f2c10000    ....    MOVT     r0,#0x1000
        0x00010240:    7800        .x      LDRB     r0,[r0,#0]
        0x00010242:    2803        .(      CMP      r0,#3
        0x00010244:    d118        ..      BNE      0x10278 ; hciUartRxIncoming + 720
        0x00010246:    e7ff        ..      B        0x10248 ; hciUartRxIncoming + 672
        0x00010248:    200f        .       MOVS     r0,#0xf
        0x0001024a:    f7fcf8eb    ....    BL       __NVIC_DisableIRQ ; 0xc424
        0x0001024e:    f24271b1    B..q    MOV      r1,#0x27b1
        0x00010252:    f2c10100    ....    MOVT     r1,#0x1000
        0x00010256:    2001        .       MOVS     r0,#1
        0x00010258:    7008        .p      STRB     r0,[r1,#0]
        0x0001025a:    f8bd100a    ....    LDRH     r1,[sp,#0xa]
        0x0001025e:    f243003c    C.<.    MOV      r0,#0x303c
        0x00010262:    f2c10000    ....    MOVT     r0,#0x1000
        0x00010266:    f7fffb2b    ..+.    BL       cmd_handler ; 0xf8c0
        0x0001026a:    f64361a1    C..a    MOV      r1,#0x3ea1
        0x0001026e:    f2c10100    ....    MOVT     r1,#0x1000
        0x00010272:    2000        .       MOVS     r0,#0
        0x00010274:    7008        .p      STRB     r0,[r1,#0]
        0x00010276:    e7ff        ..      B        0x10278 ; hciUartRxIncoming + 720
        0x00010278:    e69f        ..      B        0xffba ; hciUartRxIncoming + 18
        0x0001027a:    f8bd000a    ....    LDRH     r0,[sp,#0xa]
        0x0001027e:    f8ad0016    ....    STRH     r0,[sp,#0x16]
        0x00010282:    e7ff        ..      B        0x10284 ; hciUartRxIncoming + 732
        0x00010284:    f8bd0016    ....    LDRH     r0,[sp,#0x16]
        0x00010288:    b006        ..      ADD      sp,sp,#0x18
        0x0001028a:    bd80        ..      POP      {r7,pc}
    main
        0x0001028c:    b580        ..      PUSH     {r7,lr}
        0x0001028e:    b09e        ..      SUB      sp,sp,#0x78
        0x00010290:    2100        .!      MOVS     r1,#0
        0x00010292:    9108        ..      STR      r1,[sp,#0x20]
        0x00010294:    911d        ..      STR      r1,[sp,#0x74]
        0x00010296:    4608        .F      MOV      r0,r1
        0x00010298:    f7fdfc7a    ..z.    BL       am_hal_clkgen_control ; 0xdb90
        0x0001029c:    f7fcf918    ....    BL       am_bsp_low_power_init ; 0xc4d0
        0x000102a0:    f7fcf8f4    ....    BL       am_bsp_itm_printf_enable ; 0xc48c
        0x000102a4:    f6426098    B..`    MOV      r0,#0x2e98
        0x000102a8:    f2c00001    ....    MOVT     r0,#1
        0x000102ac:    f7feffa6    ....    BL       am_util_stdio_printf ; 0xf1fc
        0x000102b0:    a810        ..      ADD      r0,sp,#0x40
        0x000102b2:    9006        ..      STR      r0,[sp,#0x18]
        0x000102b4:    2128        (!      MOVS     r1,#0x28
        0x000102b6:    f7fcf810    ....    BL       __aeabi_memclr4 ; 0xc2da
        0x000102ba:    9808        ..      LDR      r0,[sp,#0x20]
        0x000102bc:    f44f31e1    O..1    MOV      r1,#0x1c200
        0x000102c0:    9110        ..      STR      r1,[sp,#0x40]
        0x000102c2:    2160        `!      MOVS     r1,#0x60
        0x000102c4:    9111        ..      STR      r1,[sp,#0x44]
        0x000102c6:    211b        .!      MOVS     r1,#0x1b
        0x000102c8:    9115        ..      STR      r1,[sp,#0x54]
        0x000102ca:    f243413c    C.<A    MOV      r1,#0x343c
        0x000102ce:    f2c10100    ....    MOVT     r1,#0x1000
        0x000102d2:    9116        ..      STR      r1,[sp,#0x58]
        0x000102d4:    f44f6100    O..a    MOV      r1,#0x800
        0x000102d8:    9117        ..      STR      r1,[sp,#0x5c]
        0x000102da:    f6434140    C.@A    MOVW     r1,#0x3c40
        0x000102de:    f2c10100    ....    MOVT     r1,#0x1000
        0x000102e2:    9107        ..      STR      r1,[sp,#0x1c]
        0x000102e4:    f7fefaee    ....    BL       am_hal_uart_initialize ; 0xe8c4
        0x000102e8:    9a08        ..      LDR      r2,[sp,#0x20]
        0x000102ea:    9807        ..      LDR      r0,[sp,#0x1c]
        0x000102ec:    6800        .h      LDR      r0,[r0,#0]
        0x000102ee:    4611        .F      MOV      r1,r2
        0x000102f0:    f7fefb9a    ....    BL       am_hal_uart_power_control ; 0xea28
        0x000102f4:    9906        ..      LDR      r1,[sp,#0x18]
        0x000102f6:    9807        ..      LDR      r0,[sp,#0x1c]
        0x000102f8:    6800        .h      LDR      r0,[r0,#0]
        0x000102fa:    f7fef9cf    ....    BL       am_hal_uart_configure ; 0xe69c
        0x000102fe:    f64230fc    B..0    MOV      r0,#0x2bfc
        0x00010302:    f2c00001    ....    MOVT     r0,#1
        0x00010306:    6801        .h      LDR      r1,[r0,#0]
        0x00010308:    2016        .       MOVS     r0,#0x16
        0x0001030a:    f7fdfd5d    ..].    BL       am_hal_gpio_pinconfig ; 0xddc8
        0x0001030e:    f64230f8    B..0    MOV      r0,#0x2bf8
        0x00010312:    f2c00001    ....    MOVT     r0,#1
        0x00010316:    6801        .h      LDR      r1,[r0,#0]
        0x00010318:    2017        .       MOVS     r0,#0x17
        0x0001031a:    f7fdfd55    ..U.    BL       am_hal_gpio_pinconfig ; 0xddc8
        0x0001031e:    200f        .       MOVS     r0,#0xf
        0x00010320:    f7fcf89c    ....    BL       __NVIC_EnableIRQ ; 0xc45c
        0x00010324:    9807        ..      LDR      r0,[sp,#0x1c]
        0x00010326:    6800        .h      LDR      r0,[r0,#0]
        0x00010328:    2150        P!      MOVS     r1,#0x50
        0x0001032a:    f7fefb09    ....    BL       am_hal_uart_interrupt_enable ; 0xe940
        0x0001032e:    f7fdfec7    ....    BL       am_hal_interrupt_master_enable ; 0xe0c0
        0x00010332:    9808        ..      LDR      r0,[sp,#0x20]
        0x00010334:    f643413c    C.<A    MOV      r1,#0x3c3c
        0x00010338:    f2c10100    ....    MOVT     r1,#0x1000
        0x0001033c:    9109        ..      STR      r1,[sp,#0x24]
        0x0001033e:    f7fcfce7    ....    BL       am_hal_ble_initialize ; 0xcd10
        0x00010342:    9908        ..      LDR      r1,[sp,#0x20]
        0x00010344:    9809        ..      LDR      r0,[sp,#0x24]
        0x00010346:    6800        .h      LDR      r0,[r0,#0]
        0x00010348:    f7fdf9ac    ....    BL       am_hal_ble_power_control ; 0xd6a4
        0x0001034c:    9809        ..      LDR      r0,[sp,#0x24]
        0x0001034e:    6800        .h      LDR      r0,[r0,#0]
        0x00010350:    f6421118    B...    MOV      r1,#0x2918
        0x00010354:    f2c00101    ....    MOVT     r1,#1
        0x00010358:    f7fcfb7c    ..|.    BL       am_hal_ble_config ; 0xca54
        0x0001035c:    f44f707a    O.zp    MOV      r0,#0x3e8
        0x00010360:    f7fefeca    ....    BL       am_util_delay_ms ; 0xf0f8
        0x00010364:    200c        .       MOVS     r0,#0xc
        0x00010366:    f2c40002    ....    MOVT     r0,#0x4002
        0x0001036a:    6800        .h      LDR      r0,[r0,#0]
        0x0001036c:    b2c0        ..      UXTB     r0,r0
        0x0001036e:    2811        .(      CMP      r0,#0x11
        0x00010370:    d008        ..      BEQ      0x10384 ; main + 248
        0x00010372:    e7ff        ..      B        0x10374 ; main + 232
        0x00010374:    200c        .       MOVS     r0,#0xc
        0x00010376:    f2c40002    ....    MOVT     r0,#0x4002
        0x0001037a:    6800        .h      LDR      r0,[r0,#0]
        0x0001037c:    b2c0        ..      UXTB     r0,r0
        0x0001037e:    2812        .(      CMP      r0,#0x12
        0x00010380:    d108        ..      BNE      0x10394 ; main + 264
        0x00010382:    e7ff        ..      B        0x10384 ; main + 248
        0x00010384:    f643403c    C.<@    MOV      r0,#0x3c3c
        0x00010388:    f2c10000    ....    MOVT     r0,#0x1000
        0x0001038c:    6800        .h      LDR      r0,[r0,#0]
        0x0001038e:    f7fcfbf3    ....    BL       am_hal_ble_default_copy_patch_apply ; 0xcb78
        0x00010392:    e010        ..      B        0x103b6 ; main + 298
        0x00010394:    200c        .       MOVS     r0,#0xc
        0x00010396:    f2c40002    ....    MOVT     r0,#0x4002
        0x0001039a:    6800        .h      LDR      r0,[r0,#0]
        0x0001039c:    b2c0        ..      UXTB     r0,r0
        0x0001039e:    2821        !(      CMP      r0,#0x21
        0x000103a0:    d108        ..      BNE      0x103b4 ; main + 296
        0x000103a2:    e7ff        ..      B        0x103a4 ; main + 280
        0x000103a4:    f643403c    C.<@    MOV      r0,#0x3c3c
        0x000103a8:    f2c10000    ....    MOVT     r0,#0x1000
        0x000103ac:    6800        .h      LDR      r0,[r0,#0]
        0x000103ae:    f7fcffd5    ....    BL       am_hal_ble_patch_preload ; 0xd35c
        0x000103b2:    e7ff        ..      B        0x103b4 ; main + 296
        0x000103b4:    e7ff        ..      B        0x103b6 ; main + 298
        0x000103b6:    f643403c    C.<@    MOV      r0,#0x3c3c
        0x000103ba:    f2c10000    ....    MOVT     r0,#0x1000
        0x000103be:    9005        ..      STR      r0,[sp,#0x14]
        0x000103c0:    6800        .h      LDR      r0,[r0,#0]
        0x000103c2:    f7fcfc59    ..Y.    BL       am_hal_ble_default_trim_set_ramcode ; 0xcc78
        0x000103c6:    9805        ..      LDR      r0,[sp,#0x14]
        0x000103c8:    6800        .h      LDR      r0,[r0,#0]
        0x000103ca:    f7fcfc03    ....    BL       am_hal_ble_default_patch_apply ; 0xcbd4
        0x000103ce:    9805        ..      LDR      r0,[sp,#0x14]
        0x000103d0:    6800        .h      LDR      r0,[r0,#0]
        0x000103d2:    f7fcfe6b    ..k.    BL       am_hal_ble_patch_complete ; 0xd0ac
        0x000103d6:    9805        ..      LDR      r0,[sp,#0x14]
        0x000103d8:    6800        .h      LDR      r0,[r0,#0]
        0x000103da:    210f        .!      MOVS     r1,#0xf
        0x000103dc:    f7fdfabb    ....    BL       am_hal_ble_tx_power_set ; 0xd956
        0x000103e0:    9805        ..      LDR      r0,[sp,#0x14]
        0x000103e2:    6800        .h      LDR      r0,[r0,#0]
        0x000103e4:    2180        .!      MOVS     r1,#0x80
        0x000103e6:    f7fcfcbc    ....    BL       am_hal_ble_int_clear ; 0xcd62
        0x000103ea:    e7ff        ..      B        0x103ec ; main + 352
        0x000103ec:    f643403c    C.<@    MOV      r0,#0x3c3c
        0x000103f0:    f2c10000    ....    MOVT     r0,#0x1000
        0x000103f4:    9004        ..      STR      r0,[sp,#0x10]
        0x000103f6:    6800        .h      LDR      r0,[r0,#0]
        0x000103f8:    2100        .!      MOVS     r1,#0
        0x000103fa:    f7fcfcc5    ....    BL       am_hal_ble_int_status ; 0xcd88
        0x000103fe:    4601        .F      MOV      r1,r0
        0x00010400:    9804        ..      LDR      r0,[sp,#0x10]
        0x00010402:    911a        ..      STR      r1,[sp,#0x68]
        0x00010404:    6800        .h      LDR      r0,[r0,#0]
        0x00010406:    991a        ..      LDR      r1,[sp,#0x68]
        0x00010408:    f7fcfcab    ....    BL       am_hal_ble_int_clear ; 0xcd62
        0x0001040c:    f89d0068    ..h.    LDRB     r0,[sp,#0x68]
        0x00010410:    0600        ..      LSLS     r0,r0,#24
        0x00010412:    2800        .(      CMP      r0,#0
        0x00010414:    d540        @.      BPL      0x10498 ; main + 524
        0x00010416:    e7ff        ..      B        0x10418 ; main + 396
        0x00010418:    f643403c    C.<@    MOV      r0,#0x3c3c
        0x0001041c:    f2c10000    ....    MOVT     r0,#0x1000
        0x00010420:    6800        .h      LDR      r0,[r0,#0]
        0x00010422:    f642413c    B.<A    MOV      r1,#0x2c3c
        0x00010426:    f2c10100    ....    MOVT     r1,#0x1000
        0x0001042a:    aa1c        ..      ADD      r2,sp,#0x70
        0x0001042c:    f7fcf873    ..s.    BL       am_hal_ble_blocking_hci_read ; 0xc516
        0x00010430:    901b        ..      STR      r0,[sp,#0x6c]
        0x00010432:    f24c4110    L..A    MOV      r1,#0xc410
        0x00010436:    f2c50100    ....    MOVT     r1,#0x5000
        0x0001043a:    6808        .h      LDR      r0,[r1,#0]
        0x0001043c:    f0400002    @...    ORR      r0,r0,#2
        0x00010440:    6008        .`      STR      r0,[r1,#0]
        0x00010442:    981b        ..      LDR      r0,[sp,#0x6c]
        0x00010444:    b9f8        ..      CBNZ     r0,0x10486 ; main + 506
        0x00010446:    e7ff        ..      B        0x10448 ; main + 444
        0x00010448:    981c        ..      LDR      r0,[sp,#0x70]
        0x0001044a:    b1d8        ..      CBZ      r0,0x10484 ; main + 504
        0x0001044c:    e7ff        ..      B        0x1044e ; main + 450
        0x0001044e:    2100        .!      MOVS     r1,#0
        0x00010450:    910b        ..      STR      r1,[sp,#0x2c]
        0x00010452:    f642403c    B.<@    MOV      r0,#0x2c3c
        0x00010456:    f2c10000    ....    MOVT     r0,#0x1000
        0x0001045a:    900c        ..      STR      r0,[sp,#0x30]
        0x0001045c:    9a1c        ..      LDR      r2,[sp,#0x70]
        0x0001045e:    920d        ..      STR      r2,[sp,#0x34]
        0x00010460:    f04f32ff    O..2    MOV      r2,#0xffffffff
        0x00010464:    920e        ..      STR      r2,[sp,#0x38]
        0x00010466:    910f        ..      STR      r1,[sp,#0x3c]
        0x00010468:    f7fffc48    ..H.    BL       fix_trans_mode ; 0xfcfc
        0x0001046c:    f6434040    C.@@    MOVW     r0,#0x3c40
        0x00010470:    f2c10000    ....    MOVT     r0,#0x1000
        0x00010474:    6800        .h      LDR      r0,[r0,#0]
        0x00010476:    a90b        ..      ADD      r1,sp,#0x2c
        0x00010478:    f7fefb4c    ..L.    BL       am_hal_uart_transfer ; 0xeb14
        0x0001047c:    2001        .       MOVS     r0,#1
        0x0001047e:    f7fefe3b    ..;.    BL       am_util_delay_ms ; 0xf0f8
        0x00010482:    e7ff        ..      B        0x10484 ; main + 504
        0x00010484:    e007        ..      B        0x10496 ; main + 522
        0x00010486:    f6426077    B.w`    MOV      r0,#0x2e77
        0x0001048a:    f2c00001    ....    MOVT     r0,#1
        0x0001048e:    f7fefeb5    ....    BL       am_util_stdio_printf ; 0xf1fc
        0x00010492:    e7ff        ..      B        0x10494 ; main + 520
        0x00010494:    e7fe        ..      B        0x10494 ; main + 520
        0x00010496:    e065        e.      B        0x10564 ; main + 728
        0x00010498:    f24270b1    B..p    MOV      r0,#0x27b1
        0x0001049c:    f2c10000    ....    MOVT     r0,#0x1000
        0x000104a0:    7800        .x      LDRB     r0,[r0,#0]
        0x000104a2:    07c0        ..      LSLS     r0,r0,#31
        0x000104a4:    2800        .(      CMP      r0,#0
        0x000104a6:    d05c        \.      BEQ      0x10562 ; main + 726
        0x000104a8:    e7ff        ..      B        0x104aa ; main + 542
        0x000104aa:    f24270b0    B..p    MOV      r0,#0x27b0
        0x000104ae:    f2c10000    ....    MOVT     r0,#0x1000
        0x000104b2:    7800        .x      LDRB     r0,[r0,#0]
        0x000104b4:    07c0        ..      LSLS     r0,r0,#31
        0x000104b6:    2800        .(      CMP      r0,#0
        0x000104b8:    d144        D.      BNE      0x10544 ; main + 696
        0x000104ba:    e7ff        ..      B        0x104bc ; main + 560
        0x000104bc:    f643403c    C.<@    MOV      r0,#0x3c3c
        0x000104c0:    f2c10000    ....    MOVT     r0,#0x1000
        0x000104c4:    6800        .h      LDR      r0,[r0,#0]
        0x000104c6:    f6434190    C..A    MOV      r1,#0x3c90
        0x000104ca:    f2c10100    ....    MOVT     r1,#0x1000
        0x000104ce:    680b        .h      LDR      r3,[r1,#0]
        0x000104d0:    f243023c    C.<.    MOV      r2,#0x303c
        0x000104d4:    f2c10200    ....    MOVT     r2,#0x1000
        0x000104d8:    2100        .!      MOVS     r1,#0
        0x000104da:    9103        ..      STR      r1,[sp,#0xc]
        0x000104dc:    f7fcf859    ..Y.    BL       am_hal_ble_blocking_hci_write ; 0xc592
        0x000104e0:    9803        ..      LDR      r0,[sp,#0xc]
        0x000104e2:    900a        ..      STR      r0,[sp,#0x28]
        0x000104e4:    e7ff        ..      B        0x104e6 ; main + 602
        0x000104e6:    f24c300c    L..0    MOV      r0,#0xc30c
        0x000104ea:    f2c50000    ....    MOVT     r0,#0x5000
        0x000104ee:    6800        .h      LDR      r0,[r0,#0]
        0x000104f0:    09c0        ..      LSRS     r0,r0,#7
        0x000104f2:    07c0        ..      LSLS     r0,r0,#31
        0x000104f4:    bb28        (.      CBNZ     r0,0x10542 ; main + 694
        0x000104f6:    e7ff        ..      B        0x104f8 ; main + 620
        0x000104f8:    2005        .       MOVS     r0,#5
        0x000104fa:    9001        ..      STR      r0,[sp,#4]
        0x000104fc:    f7fefdfc    ....    BL       am_util_delay_ms ; 0xf0f8
        0x00010500:    f643403c    C.<@    MOV      r0,#0x3c3c
        0x00010504:    f2c10000    ....    MOVT     r0,#0x1000
        0x00010508:    9002        ..      STR      r0,[sp,#8]
        0x0001050a:    6800        .h      LDR      r0,[r0,#0]
        0x0001050c:    2101        .!      MOVS     r1,#1
        0x0001050e:    f7fdfa6d    ..m.    BL       am_hal_ble_wakeup_set ; 0xd9ec
        0x00010512:    9801        ..      LDR      r0,[sp,#4]
        0x00010514:    f7fefdf0    ....    BL       am_util_delay_ms ; 0xf0f8
        0x00010518:    9802        ..      LDR      r0,[sp,#8]
        0x0001051a:    6800        .h      LDR      r0,[r0,#0]
        0x0001051c:    2100        .!      MOVS     r1,#0
        0x0001051e:    f7fdfa65    ..e.    BL       am_hal_ble_wakeup_set ; 0xd9ec
        0x00010522:    980a        ..      LDR      r0,[sp,#0x28]
        0x00010524:    1c41        A.      ADDS     r1,r0,#1
        0x00010526:    910a        ..      STR      r1,[sp,#0x28]
        0x00010528:    f5b07f7a    ..z.    CMP      r0,#0x3e8
        0x0001052c:    d908        ..      BLS      0x10540 ; main + 692
        0x0001052e:    e7ff        ..      B        0x10530 ; main + 676
        0x00010530:    990a        ..      LDR      r1,[sp,#0x28]
        0x00010532:    f64260ba    B..`    MOV      r0,#0x2eba
        0x00010536:    f2c00001    ....    MOVT     r0,#1
        0x0001053a:    f7fefe5f    .._.    BL       am_util_stdio_printf ; 0xf1fc
        0x0001053e:    e7ff        ..      B        0x10540 ; main + 692
        0x00010540:    e7d1        ..      B        0x104e6 ; main + 602
        0x00010542:    e7ff        ..      B        0x10544 ; main + 696
        0x00010544:    f6434190    C..A    MOV      r1,#0x3c90
        0x00010548:    f2c10100    ....    MOVT     r1,#0x1000
        0x0001054c:    2000        .       MOVS     r0,#0
        0x0001054e:    6008        .`      STR      r0,[r1,#0]
        0x00010550:    f24271b1    B..q    MOV      r1,#0x27b1
        0x00010554:    f2c10100    ....    MOVT     r1,#0x1000
        0x00010558:    7008        .p      STRB     r0,[r1,#0]
        0x0001055a:    200f        .       MOVS     r0,#0xf
        0x0001055c:    f7fbff7e    ..~.    BL       __NVIC_EnableIRQ ; 0xc45c
        0x00010560:    e7ff        ..      B        0x10562 ; main + 726
        0x00010562:    e7ff        ..      B        0x10564 ; main + 728
        0x00010564:    e742        B.      B        0x103ec ; main + 352
        0x00010566:    0000        ..      MOVS     r0,r0
    ndigits_in_hex
        0x00010568:    b084        ..      SUB      sp,sp,#0x10
        0x0001056a:    9103        ..      STR      r1,[sp,#0xc]
        0x0001056c:    9002        ..      STR      r0,[sp,#8]
        0x0001056e:    9802        ..      LDR      r0,[sp,#8]
        0x00010570:    9903        ..      LDR      r1,[sp,#0xc]
        0x00010572:    4308        .C      ORRS     r0,r0,r1
        0x00010574:    fab0f080    ....    CLZ      r0,r0
        0x00010578:    0940        @.      LSRS     r0,r0,#5
        0x0001057a:    9001        ..      STR      r0,[sp,#4]
        0x0001057c:    e7ff        ..      B        0x1057e ; ndigits_in_hex + 22
        0x0001057e:    9802        ..      LDR      r0,[sp,#8]
        0x00010580:    9903        ..      LDR      r1,[sp,#0xc]
        0x00010582:    4308        .C      ORRS     r0,r0,r1
        0x00010584:    b160        `.      CBZ      r0,0x105a0 ; ndigits_in_hex + 56
        0x00010586:    e7ff        ..      B        0x10588 ; ndigits_in_hex + 32
        0x00010588:    9802        ..      LDR      r0,[sp,#8]
        0x0001058a:    9903        ..      LDR      r1,[sp,#0xc]
        0x0001058c:    0900        ..      LSRS     r0,r0,#4
        0x0001058e:    ea407001    @..p    ORR      r0,r0,r1,LSL #28
        0x00010592:    0909        ..      LSRS     r1,r1,#4
        0x00010594:    9103        ..      STR      r1,[sp,#0xc]
        0x00010596:    9002        ..      STR      r0,[sp,#8]
        0x00010598:    9801        ..      LDR      r0,[sp,#4]
        0x0001059a:    3001        .0      ADDS     r0,#1
        0x0001059c:    9001        ..      STR      r0,[sp,#4]
        0x0001059e:    e7ee        ..      B        0x1057e ; ndigits_in_hex + 22
        0x000105a0:    9801        ..      LDR      r0,[sp,#4]
        0x000105a2:    b004        ..      ADD      sp,sp,#0x10
        0x000105a4:    4770        pG      BX       lr
        0x000105a6:    0000        ..      MOVS     r0,r0
    ndigits_in_i64
        0x000105a8:    b580        ..      PUSH     {r7,lr}
        0x000105aa:    b082        ..      SUB      sp,sp,#8
        0x000105ac:    9101        ..      STR      r1,[sp,#4]
        0x000105ae:    9000        ..      STR      r0,[sp,#0]
        0x000105b0:    9801        ..      LDR      r0,[sp,#4]
        0x000105b2:    f1b03fff    ...?    CMP      r0,#0xffffffff
        0x000105b6:    dc09        ..      BGT      0x105cc ; ndigits_in_i64 + 36
        0x000105b8:    e7ff        ..      B        0x105ba ; ndigits_in_i64 + 18
        0x000105ba:    9800        ..      LDR      r0,[sp,#0]
        0x000105bc:    9a01        ..      LDR      r2,[sp,#4]
        0x000105be:    4241        AB      RSBS     r1,r0,#0
        0x000105c0:    f04f0000    O...    MOV      r0,#0
        0x000105c4:    4190        .A      SBCS     r0,r0,r2
        0x000105c6:    9100        ..      STR      r1,[sp,#0]
        0x000105c8:    9001        ..      STR      r0,[sp,#4]
        0x000105ca:    e7ff        ..      B        0x105cc ; ndigits_in_i64 + 36
        0x000105cc:    9800        ..      LDR      r0,[sp,#0]
        0x000105ce:    9901        ..      LDR      r1,[sp,#4]
        0x000105d0:    f000f802    ....    BL       ndigits_in_u64 ; 0x105d8
        0x000105d4:    b002        ..      ADD      sp,sp,#8
        0x000105d6:    bd80        ..      POP      {r7,pc}
    ndigits_in_u64
        0x000105d8:    b580        ..      PUSH     {r7,lr}
        0x000105da:    b084        ..      SUB      sp,sp,#0x10
        0x000105dc:    9103        ..      STR      r1,[sp,#0xc]
        0x000105de:    9002        ..      STR      r0,[sp,#8]
        0x000105e0:    9802        ..      LDR      r0,[sp,#8]
        0x000105e2:    9903        ..      LDR      r1,[sp,#0xc]
        0x000105e4:    4308        .C      ORRS     r0,r0,r1
        0x000105e6:    fab0f080    ....    CLZ      r0,r0
        0x000105ea:    0940        @.      LSRS     r0,r0,#5
        0x000105ec:    9001        ..      STR      r0,[sp,#4]
        0x000105ee:    e7ff        ..      B        0x105f0 ; ndigits_in_u64 + 24
        0x000105f0:    9802        ..      LDR      r0,[sp,#8]
        0x000105f2:    9903        ..      LDR      r1,[sp,#0xc]
        0x000105f4:    4308        .C      ORRS     r0,r0,r1
        0x000105f6:    b150        P.      CBZ      r0,0x1060e ; ndigits_in_u64 + 54
        0x000105f8:    e7ff        ..      B        0x105fa ; ndigits_in_u64 + 34
        0x000105fa:    9802        ..      LDR      r0,[sp,#8]
        0x000105fc:    9903        ..      LDR      r1,[sp,#0xc]
        0x000105fe:    f7fffaf1    ....    BL       divu64_10 ; 0xfbe4
        0x00010602:    9103        ..      STR      r1,[sp,#0xc]
        0x00010604:    9002        ..      STR      r0,[sp,#8]
        0x00010606:    9801        ..      LDR      r0,[sp,#4]
        0x00010608:    3001        .0      ADDS     r0,#1
        0x0001060a:    9001        ..      STR      r0,[sp,#4]
        0x0001060c:    e7f0        ..      B        0x105f0 ; ndigits_in_u64 + 24
        0x0001060e:    9801        ..      LDR      r0,[sp,#4]
        0x00010610:    b004        ..      ADD      sp,sp,#0x10
        0x00010612:    bd80        ..      POP      {r7,pc}
    padbuffer
        0x00010614:    b085        ..      SUB      sp,sp,#0x14
        0x00010616:    9003        ..      STR      r0,[sp,#0xc]
        0x00010618:    f88d100b    ....    STRB     r1,[sp,#0xb]
        0x0001061c:    9201        ..      STR      r2,[sp,#4]
        0x0001061e:    2000        .       MOVS     r0,#0
        0x00010620:    9000        ..      STR      r0,[sp,#0]
        0x00010622:    9801        ..      LDR      r0,[sp,#4]
        0x00010624:    2800        .(      CMP      r0,#0
        0x00010626:    dc03        ..      BGT      0x10630 ; padbuffer + 28
        0x00010628:    e7ff        ..      B        0x1062a ; padbuffer + 22
        0x0001062a:    9800        ..      LDR      r0,[sp,#0]
        0x0001062c:    9004        ..      STR      r0,[sp,#0x10]
        0x0001062e:    e016        ..      B        0x1065e ; padbuffer + 74
        0x00010630:    e7ff        ..      B        0x10632 ; padbuffer + 30
        0x00010632:    9801        ..      LDR      r0,[sp,#4]
        0x00010634:    1e41        A.      SUBS     r1,r0,#1
        0x00010636:    9101        ..      STR      r1,[sp,#4]
        0x00010638:    b170        p.      CBZ      r0,0x10658 ; padbuffer + 68
        0x0001063a:    e7ff        ..      B        0x1063c ; padbuffer + 40
        0x0001063c:    9803        ..      LDR      r0,[sp,#0xc]
        0x0001063e:    b138        8.      CBZ      r0,0x10650 ; padbuffer + 60
        0x00010640:    e7ff        ..      B        0x10642 ; padbuffer + 46
        0x00010642:    f89d000b    ....    LDRB     r0,[sp,#0xb]
        0x00010646:    9903        ..      LDR      r1,[sp,#0xc]
        0x00010648:    1c4a        J.      ADDS     r2,r1,#1
        0x0001064a:    9203        ..      STR      r2,[sp,#0xc]
        0x0001064c:    7008        .p      STRB     r0,[r1,#0]
        0x0001064e:    e7ff        ..      B        0x10650 ; padbuffer + 60
        0x00010650:    9800        ..      LDR      r0,[sp,#0]
        0x00010652:    3001        .0      ADDS     r0,#1
        0x00010654:    9000        ..      STR      r0,[sp,#0]
        0x00010656:    e7ec        ..      B        0x10632 ; padbuffer + 30
        0x00010658:    9800        ..      LDR      r0,[sp,#0]
        0x0001065a:    9004        ..      STR      r0,[sp,#0x10]
        0x0001065c:    e7ff        ..      B        0x1065e ; padbuffer + 74
        0x0001065e:    9804        ..      LDR      r0,[sp,#0x10]
        0x00010660:    b005        ..      ADD      sp,sp,#0x14
        0x00010662:    4770        pG      BX       lr
    read_nonblocking
        0x00010664:    e92d41f0    -..A    PUSH     {r4-r8,lr}
        0x00010668:    b1d0        ..      CBZ      r0,0x106a0 ; read_nonblocking + 60
        0x0001066a:    4604        .F      MOV      r4,r0
        0x0001066c:    6800        .h      LDR      r0,[r0,#0]
        0x0001066e:    460e        .F      MOV      r6,r1
        0x00010670:    f6496106    I..a    MOV      r1,#0x9e06
        0x00010674:    f020407e     .~@    BIC      r0,r0,#0xfe000000
        0x00010678:    f2c011ea    ....    MOVT     r1,#0x1ea
        0x0001067c:    4288        .B      CMP      r0,r1
        0x0001067e:    d10f        ..      BNE      0x106a0 ; read_nonblocking + 60
        0x00010680:    4698        .F      MOV      r8,r3
        0x00010682:    4615        .F      MOV      r5,r2
        0x00010684:    b113        ..      CBZ      r3,0x1068c ; read_nonblocking + 40
        0x00010686:    2000        .       MOVS     r0,#0
        0x00010688:    f8c80000    ....    STR      r0,[r8,#0]
        0x0001068c:    b15d        ].      CBZ      r5,0x106a6 ; read_nonblocking + 66
        0x0001068e:    f8940044    ..D.    LDRB     r0,[r4,#0x44]
        0x00010692:    b158        X.      CBZ      r0,0x106ac ; read_nonblocking + 72
        0x00010694:    4620         F      MOV      r0,r4
        0x00010696:    f000f835    ..5.    BL       rx_queue_update ; 0x10704
        0x0001069a:    b1e8        ..      CBZ      r0,0x106d8 ; read_nonblocking + 116
        0x0001069c:    e8bd81f0    ....    POP      {r4-r8,pc}
        0x000106a0:    2002        .       MOVS     r0,#2
        0x000106a2:    e8bd81f0    ....    POP      {r4-r8,pc}
        0x000106a6:    2000        .       MOVS     r0,#0
        0x000106a8:    e8bd81f0    ....    POP      {r4-r8,pc}
        0x000106ac:    6a60        `j      LDR      r0,[r4,#0x24]
        0x000106ae:    f24c0100    L...    MOVW     r1,#0xc000
        0x000106b2:    f2c40101    ....    MOVT     r1,#0x4001
        0x000106b6:    eb013000    ...0    ADD      r0,r1,r0,LSL #12
        0x000106ba:    2700        .'      MOVS     r7,#0
        0x000106bc:    6981        .i      LDR      r1,[r0,#0x18]
        0x000106be:    06c9        ..      LSLS     r1,r1,#27
        0x000106c0:    d414        ..      BMI      0x106ec ; read_nonblocking + 136
        0x000106c2:    6801        .h      LDR      r1,[r0,#0]
        0x000106c4:    f4116f70    ..po    TST      r1,#0xf00
        0x000106c8:    d112        ..      BNE      0x106f0 ; read_nonblocking + 140
        0x000106ca:    55f1        .U      STRB     r1,[r6,r7]
        0x000106cc:    3701        .7      ADDS     r7,#1
        0x000106ce:    42bd        .B      CMP      r5,r7
        0x000106d0:    d1f4        ..      BNE      0x106bc ; read_nonblocking + 88
        0x000106d2:    2000        .       MOVS     r0,#0
        0x000106d4:    462f        /F      MOV      r7,r5
        0x000106d6:    e00d        ..      B        0x106f4 ; read_nonblocking + 144
        0x000106d8:    6d27        'm      LDR      r7,[r4,#0x50]
        0x000106da:    f1040048    ..H.    ADD      r0,r4,#0x48
        0x000106de:    42af        .B      CMP      r7,r5
        0x000106e0:    bf88        ..      IT       HI
        0x000106e2:    462f        /F      MOVHI    r7,r5
        0x000106e4:    4631        1F      MOV      r1,r6
        0x000106e6:    463a        :F      MOV      r2,r7
        0x000106e8:    f7fdff32    ..2.    BL       am_hal_queue_item_get ; 0xe550
        0x000106ec:    2000        .       MOVS     r0,#0
        0x000106ee:    e001        ..      B        0x106f4 ; read_nonblocking + 144
        0x000106f0:    f04f6000    O..`    MOV      r0,#0x8000000
        0x000106f4:    f1b80f00    ....    CMP      r8,#0
        0x000106f8:    bf18        ..      IT       NE
        0x000106fa:    f8c87000    ...p    STRNE    r7,[r8,#0]
        0x000106fe:    e8bd81f0    ....    POP      {r4-r8,pc}
        0x00010702:    0000        ..      MOVS     r0,r0
    rx_queue_update
        0x00010704:    b510        ..      PUSH     {r4,lr}
        0x00010706:    b08a        ..      SUB      sp,sp,#0x28
        0x00010708:    4604        .F      MOV      r4,r0
        0x0001070a:    f7fdfcd5    ....    BL       am_hal_interrupt_master_disable ; 0xe0b8
        0x0001070e:    9001        ..      STR      r0,[sp,#4]
        0x00010710:    6a60        `j      LDR      r0,[r4,#0x24]
        0x00010712:    f24c0100    L...    MOVW     r1,#0xc000
        0x00010716:    f2c40101    ....    MOVT     r1,#0x4001
        0x0001071a:    eb013000    ...0    ADD      r0,r1,r0,LSL #12
        0x0001071e:    2200        ."      MOVS     r2,#0
        0x00010720:    a902        ..      ADD      r1,sp,#8
        0x00010722:    bf00        ..      NOP      
        0x00010724:    6983        .i      LDR      r3,[r0,#0x18]
        0x00010726:    06db        ..      LSLS     r3,r3,#27
        0x00010728:    d408        ..      BMI      0x1073c ; rx_queue_update + 56
        0x0001072a:    6803        .h      LDR      r3,[r0,#0]
        0x0001072c:    f4136f70    ..po    TST      r3,#0xf00
        0x00010730:    d110        ..      BNE      0x10754 ; rx_queue_update + 80
        0x00010732:    548b        .T      STRB     r3,[r1,r2]
        0x00010734:    3201        .2      ADDS     r2,#1
        0x00010736:    2a20         *      CMP      r2,#0x20
        0x00010738:    d1f4        ..      BNE      0x10724 ; rx_queue_update + 32
        0x0001073a:    2220         "      MOVS     r2,#0x20
        0x0001073c:    f1040048    ..H.    ADD      r0,r4,#0x48
        0x00010740:    a902        ..      ADD      r1,sp,#8
        0x00010742:    f7fdfed1    ....    BL       am_hal_queue_item_add ; 0xe4e8
        0x00010746:    2401        .$      MOVS     r4,#1
        0x00010748:    f6c00400    ....    MOVT     r4,#0x800
        0x0001074c:    2800        .(      CMP      r0,#0
        0x0001074e:    bf18        ..      IT       NE
        0x00010750:    2400        .$      MOVNE    r4,#0
        0x00010752:    e001        ..      B        0x10758 ; rx_queue_update + 84
        0x00010754:    f04f6400    O..d    MOV      r4,#0x8000000
        0x00010758:    9801        ..      LDR      r0,[sp,#4]
        0x0001075a:    f7fdfcb5    ....    BL       am_hal_interrupt_master_set ; 0xe0c8
        0x0001075e:    4620         F      MOV      r0,r4
        0x00010760:    b00a        ..      ADD      sp,sp,#0x28
        0x00010762:    bd10        ..      POP      {r4,pc}
    set_LPMMODE
        0x00010764:    b5b0        ..      PUSH     {r4,r5,r7,lr}
        0x00010766:    b082        ..      SUB      sp,sp,#8
        0x00010768:    4604        .F      MOV      r4,r0
        0x0001076a:    2803        .(      CMP      r0,#3
        0x0001076c:    d815        ..      BHI      0x1079a ; set_LPMMODE + 54
        0x0001076e:    f7fdfca3    ....    BL       am_hal_interrupt_master_disable ; 0xe0b8
        0x00010772:    f2480504    H...    MOV      r5,#0x8004
        0x00010776:    f2c40501    ....    MOVT     r5,#0x4001
        0x0001077a:    9001        ..      STR      r0,[sp,#4]
        0x0001077c:    4628        (F      MOV      r0,r5
        0x0001077e:    f7fdfb0d    ....    BL       am_hal_flash_load_ui32 ; 0xdd9c
        0x00010782:    f420507c     .|P    BIC      r0,r0,#0x3f00
        0x00010786:    f364300d    d..0    BFI      r0,r4,#12,#2
        0x0001078a:    f50061e0    ...a    ADD      r1,r0,#0x700
        0x0001078e:    4628        (F      MOV      r0,r5
        0x00010790:    f7fdfb08    ....    BL       am_hal_flash_store_ui32 ; 0xdda4
        0x00010794:    9801        ..      LDR      r0,[sp,#4]
        0x00010796:    f7fdfc97    ....    BL       am_hal_interrupt_master_set ; 0xe0c8
        0x0001079a:    2000        .       MOVS     r0,#0
        0x0001079c:    2c04        .,      CMP      r4,#4
        0x0001079e:    bf38        8.      IT       CC
        0x000107a0:    2001        .       MOVCC    r0,#1
        0x000107a2:    b002        ..      ADD      sp,sp,#8
        0x000107a4:    bdb0        ..      POP      {r4,r5,r7,pc}
    set_RDWAIT
        0x000107a6:    b5b0        ..      PUSH     {r4,r5,r7,lr}
        0x000107a8:    b082        ..      SUB      sp,sp,#8
        0x000107aa:    4604        .F      MOV      r4,r0
        0x000107ac:    280f        .(      CMP      r0,#0xf
        0x000107ae:    d815        ..      BHI      0x107dc ; set_RDWAIT + 54
        0x000107b0:    f7fdfc82    ....    BL       am_hal_interrupt_master_disable ; 0xe0b8
        0x000107b4:    f2480504    H...    MOV      r5,#0x8004
        0x000107b8:    f2c40501    ....    MOVT     r5,#0x4001
        0x000107bc:    9001        ..      STR      r0,[sp,#4]
        0x000107be:    4628        (F      MOV      r0,r5
        0x000107c0:    f7fdfaec    ....    BL       am_hal_flash_load_ui32 ; 0xdd9c
        0x000107c4:    f640710f    @..q    MOV      r1,#0xf0f
        0x000107c8:    4388        .C      BICS     r0,r0,r1
        0x000107ca:    4320         C      ORRS     r0,r0,r4
        0x000107cc:    f44061e0    @..a    ORR      r1,r0,#0x700
        0x000107d0:    4628        (F      MOV      r0,r5
        0x000107d2:    f7fdfae7    ....    BL       am_hal_flash_store_ui32 ; 0xdda4
        0x000107d6:    9801        ..      LDR      r0,[sp,#4]
        0x000107d8:    f7fdfc76    ..v.    BL       am_hal_interrupt_master_set ; 0xe0c8
        0x000107dc:    2000        .       MOVS     r0,#0
        0x000107de:    2c10        .,      CMP      r4,#0x10
        0x000107e0:    bf38        8.      IT       CC
        0x000107e2:    2001        .       MOVCC    r0,#1
        0x000107e4:    b002        ..      ADD      sp,sp,#8
        0x000107e6:    bdb0        ..      POP      {r4,r5,r7,pc}
    set_SEDELAY
        0x000107e8:    b5b0        ..      PUSH     {r4,r5,r7,lr}
        0x000107ea:    b082        ..      SUB      sp,sp,#8
        0x000107ec:    4604        .F      MOV      r4,r0
        0x000107ee:    2807        .(      CMP      r0,#7
        0x000107f0:    d815        ..      BHI      0x1081e ; set_SEDELAY + 54
        0x000107f2:    f7fdfc61    ..a.    BL       am_hal_interrupt_master_disable ; 0xe0b8
        0x000107f6:    f2480504    H...    MOV      r5,#0x8004
        0x000107fa:    f2c40501    ....    MOVT     r5,#0x4001
        0x000107fe:    9001        ..      STR      r0,[sp,#4]
        0x00010800:    4628        (F      MOV      r0,r5
        0x00010802:    f7fdfacb    ....    BL       am_hal_flash_load_ui32 ; 0xdd9c
        0x00010806:    f4206077     .w`    BIC      r0,r0,#0xf70
        0x0001080a:    f3641006    d...    BFI      r0,r4,#4,#3
        0x0001080e:    f50061e0    ...a    ADD      r1,r0,#0x700
        0x00010812:    4628        (F      MOV      r0,r5
        0x00010814:    f7fdfac6    ....    BL       am_hal_flash_store_ui32 ; 0xdda4
        0x00010818:    9801        ..      LDR      r0,[sp,#4]
        0x0001081a:    f7fdfc55    ..U.    BL       am_hal_interrupt_master_set ; 0xe0c8
        0x0001081e:    2000        .       MOVS     r0,#0
        0x00010820:    2c08        .,      CMP      r4,#8
        0x00010822:    bf38        8.      IT       CC
        0x00010824:    2001        .       MOVCC    r0,#1
        0x00010826:    b002        ..      ADD      sp,sp,#8
        0x00010828:    bdb0        ..      POP      {r4,r5,r7,pc}
        0x0001082a:    0000        ..      MOVS     r0,r0
    simple_strlen
        0x0001082c:    b083        ..      SUB      sp,sp,#0xc
        0x0001082e:    9001        ..      STR      r0,[sp,#4]
        0x00010830:    2000        .       MOVS     r0,#0
        0x00010832:    9000        ..      STR      r0,[sp,#0]
        0x00010834:    9801        ..      LDR      r0,[sp,#4]
        0x00010836:    b918        ..      CBNZ     r0,0x10840 ; simple_strlen + 20
        0x00010838:    e7ff        ..      B        0x1083a ; simple_strlen + 14
        0x0001083a:    9800        ..      LDR      r0,[sp,#0]
        0x0001083c:    9002        ..      STR      r0,[sp,#8]
        0x0001083e:    e00d        ..      B        0x1085c ; simple_strlen + 48
        0x00010840:    e7ff        ..      B        0x10842 ; simple_strlen + 22
        0x00010842:    9801        ..      LDR      r0,[sp,#4]
        0x00010844:    1c41        A.      ADDS     r1,r0,#1
        0x00010846:    9101        ..      STR      r1,[sp,#4]
        0x00010848:    7800        .x      LDRB     r0,[r0,#0]
        0x0001084a:    b120         .      CBZ      r0,0x10856 ; simple_strlen + 42
        0x0001084c:    e7ff        ..      B        0x1084e ; simple_strlen + 34
        0x0001084e:    9800        ..      LDR      r0,[sp,#0]
        0x00010850:    3001        .0      ADDS     r0,#1
        0x00010852:    9000        ..      STR      r0,[sp,#0]
        0x00010854:    e7f5        ..      B        0x10842 ; simple_strlen + 22
        0x00010856:    9800        ..      LDR      r0,[sp,#0]
        0x00010858:    9002        ..      STR      r0,[sp,#8]
        0x0001085a:    e7ff        ..      B        0x1085c ; simple_strlen + 48
        0x0001085c:    9802        ..      LDR      r0,[sp,#8]
        0x0001085e:    b003        ..      ADD      sp,sp,#0xc
        0x00010860:    4770        pG      BX       lr
        0x00010862:    0000        ..      MOVS     r0,r0
    tx_queue_update
        0x00010864:    e92d41f0    -..A    PUSH     {r4-r8,lr}
        0x00010868:    b082        ..      SUB      sp,sp,#8
        0x0001086a:    6a45        Ej      LDR      r5,[r0,#0x24]
        0x0001086c:    f24c0800    L...    MOVW     r8,#0xc000
        0x00010870:    4604        .F      MOV      r4,r0
        0x00010872:    f2c40801    ....    MOVT     r8,#0x4001
        0x00010876:    f7fdfc1f    ....    BL       am_hal_interrupt_master_disable ; 0xe0b8
        0x0001087a:    9000        ..      STR      r0,[sp,#0]
        0x0001087c:    eb083705    ...7    ADD      r7,r8,r5,LSL #12
        0x00010880:    69b8        .i      LDR      r0,[r7,#0x18]
        0x00010882:    0680        ..      LSLS     r0,r0,#26
        0x00010884:    d416        ..      BMI      0x108b4 ; tx_queue_update + 80
        0x00010886:    f104052c    ..,.    ADD      r5,r4,#0x2c
        0x0001088a:    f10d0607    ....    ADD      r6,sp,#7
        0x0001088e:    bf00        ..      NOP      
        0x00010890:    4628        (F      MOV      r0,r5
        0x00010892:    4631        1F      MOV      r1,r6
        0x00010894:    2201        ."      MOVS     r2,#1
        0x00010896:    f7fdfe5b    ..[.    BL       am_hal_queue_item_get ; 0xe550
        0x0001089a:    b158        X.      CBZ      r0,0x108b4 ; tx_queue_update + 80
        0x0001089c:    6a60        `j      LDR      r0,[r4,#0x24]
        0x0001089e:    f89d1007    ....    LDRB     r1,[sp,#7]
        0x000108a2:    eb083000    ...0    ADD      r0,r8,r0,LSL #12
        0x000108a6:    6982        .i      LDR      r2,[r0,#0x18]
        0x000108a8:    0692        ..      LSLS     r2,r2,#26
        0x000108aa:    bf58        X.      IT       PL
        0x000108ac:    6001        .`      STRPL    r1,[r0,#0]
        0x000108ae:    69b8        .i      LDR      r0,[r7,#0x18]
        0x000108b0:    0680        ..      LSLS     r0,r0,#26
        0x000108b2:    d5ed        ..      BPL      0x10890 ; tx_queue_update + 44
        0x000108b4:    9800        ..      LDR      r0,[sp,#0]
        0x000108b6:    f7fdfc07    ....    BL       am_hal_interrupt_master_set ; 0xe0c8
        0x000108ba:    b002        ..      ADD      sp,sp,#8
        0x000108bc:    e8bd81f0    ....    POP      {r4-r8,pc}
    uint64_to_hexstr
        0x000108c0:    b08c        ..      SUB      sp,sp,#0x30
        0x000108c2:    910b        ..      STR      r1,[sp,#0x2c]
        0x000108c4:    900a        ..      STR      r0,[sp,#0x28]
        0x000108c6:    9209        ..      STR      r2,[sp,#0x24]
        0x000108c8:    f88d3023    ..#0    STRB     r3,[sp,#0x23]
        0x000108cc:    2000        .       MOVS     r0,#0
        0x000108ce:    9006        ..      STR      r0,[sp,#0x18]
        0x000108d0:    980a        ..      LDR      r0,[sp,#0x28]
        0x000108d2:    990b        ..      LDR      r1,[sp,#0x2c]
        0x000108d4:    4308        .C      ORRS     r0,r0,r1
        0x000108d6:    b940        @.      CBNZ     r0,0x108ea ; uint64_to_hexstr + 42
        0x000108d8:    e7ff        ..      B        0x108da ; uint64_to_hexstr + 26
        0x000108da:    9a06        ..      LDR      r2,[sp,#0x18]
        0x000108dc:    1c50        P.      ADDS     r0,r2,#1
        0x000108de:    9006        ..      STR      r0,[sp,#0x18]
        0x000108e0:    f10d0103    ....    ADD      r1,sp,#3
        0x000108e4:    2030        0       MOVS     r0,#0x30
        0x000108e6:    5488        .T      STRB     r0,[r1,r2]
        0x000108e8:    e7ff        ..      B        0x108ea ; uint64_to_hexstr + 42
        0x000108ea:    e7ff        ..      B        0x108ec ; uint64_to_hexstr + 44
        0x000108ec:    980a        ..      LDR      r0,[sp,#0x28]
        0x000108ee:    990b        ..      LDR      r1,[sp,#0x2c]
        0x000108f0:    4308        .C      ORRS     r0,r0,r1
        0x000108f2:    b350        P.      CBZ      r0,0x1094a ; uint64_to_hexstr + 138
        0x000108f4:    e7ff        ..      B        0x108f6 ; uint64_to_hexstr + 54
        0x000108f6:    f89d0028    ..(.    LDRB     r0,[sp,#0x28]
        0x000108fa:    f000000f    ....    AND      r0,r0,#0xf
        0x000108fe:    f88d0017    ....    STRB     r0,[sp,#0x17]
        0x00010902:    f89d0017    ....    LDRB     r0,[sp,#0x17]
        0x00010906:    280a        .(      CMP      r0,#0xa
        0x00010908:    db0d        ..      BLT      0x10926 ; uint64_to_hexstr + 102
        0x0001090a:    e7ff        ..      B        0x1090c ; uint64_to_hexstr + 76
        0x0001090c:    f89d0023    ..#.    LDRB     r0,[sp,#0x23]
        0x00010910:    07c0        ..      LSLS     r0,r0,#31
        0x00010912:    2107        .!      MOVS     r1,#7
        0x00010914:    2800        .(      CMP      r0,#0
        0x00010916:    bf18        ..      IT       NE
        0x00010918:    2127        '!      MOVNE    r1,#0x27
        0x0001091a:    f89d0017    ....    LDRB     r0,[sp,#0x17]
        0x0001091e:    4408        .D      ADD      r0,r0,r1
        0x00010920:    f88d0017    ....    STRB     r0,[sp,#0x17]
        0x00010924:    e7ff        ..      B        0x10926 ; uint64_to_hexstr + 102
        0x00010926:    f89d0017    ....    LDRB     r0,[sp,#0x17]
        0x0001092a:    3030        00      ADDS     r0,r0,#0x30
        0x0001092c:    9a06        ..      LDR      r2,[sp,#0x18]
        0x0001092e:    1c51        Q.      ADDS     r1,r2,#1
        0x00010930:    9106        ..      STR      r1,[sp,#0x18]
        0x00010932:    f10d0103    ....    ADD      r1,sp,#3
        0x00010936:    5488        .T      STRB     r0,[r1,r2]
        0x00010938:    980a        ..      LDR      r0,[sp,#0x28]
        0x0001093a:    990b        ..      LDR      r1,[sp,#0x2c]
        0x0001093c:    0900        ..      LSRS     r0,r0,#4
        0x0001093e:    ea407001    @..p    ORR      r0,r0,r1,LSL #28
        0x00010942:    0909        ..      LSRS     r1,r1,#4
        0x00010944:    910b        ..      STR      r1,[sp,#0x2c]
        0x00010946:    900a        ..      STR      r0,[sp,#0x28]
        0x00010948:    e7d0        ..      B        0x108ec ; uint64_to_hexstr + 44
        0x0001094a:    9806        ..      LDR      r0,[sp,#0x18]
        0x0001094c:    9007        ..      STR      r0,[sp,#0x1c]
        0x0001094e:    9809        ..      LDR      r0,[sp,#0x24]
        0x00010950:    b198        ..      CBZ      r0,0x1097a ; uint64_to_hexstr + 186
        0x00010952:    e7ff        ..      B        0x10954 ; uint64_to_hexstr + 148
        0x00010954:    e7ff        ..      B        0x10956 ; uint64_to_hexstr + 150
        0x00010956:    9806        ..      LDR      r0,[sp,#0x18]
        0x00010958:    1e41        A.      SUBS     r1,r0,#1
        0x0001095a:    9106        ..      STR      r1,[sp,#0x18]
        0x0001095c:    b148        H.      CBZ      r0,0x10972 ; uint64_to_hexstr + 178
        0x0001095e:    e7ff        ..      B        0x10960 ; uint64_to_hexstr + 160
        0x00010960:    9906        ..      LDR      r1,[sp,#0x18]
        0x00010962:    f10d0003    ....    ADD      r0,sp,#3
        0x00010966:    5c40        @\      LDRB     r0,[r0,r1]
        0x00010968:    9909        ..      LDR      r1,[sp,#0x24]
        0x0001096a:    1c4a        J.      ADDS     r2,r1,#1
        0x0001096c:    9209        ..      STR      r2,[sp,#0x24]
        0x0001096e:    7008        .p      STRB     r0,[r1,#0]
        0x00010970:    e7f1        ..      B        0x10956 ; uint64_to_hexstr + 150
        0x00010972:    9909        ..      LDR      r1,[sp,#0x24]
        0x00010974:    2000        .       MOVS     r0,#0
        0x00010976:    7008        .p      STRB     r0,[r1,#0]
        0x00010978:    e7ff        ..      B        0x1097a ; uint64_to_hexstr + 186
        0x0001097a:    9807        ..      LDR      r0,[sp,#0x1c]
        0x0001097c:    b00c        ..      ADD      sp,sp,#0x30
        0x0001097e:    4770        pG      BX       lr
    uint64_to_str
        0x00010980:    b580        ..      PUSH     {r7,lr}
        0x00010982:    b090        ..      SUB      sp,sp,#0x40
        0x00010984:    910f        ..      STR      r1,[sp,#0x3c]
        0x00010986:    900e        ..      STR      r0,[sp,#0x38]
        0x00010988:    920d        ..      STR      r2,[sp,#0x34]
        0x0001098a:    2000        .       MOVS     r0,#0
        0x0001098c:    9005        ..      STR      r0,[sp,#0x14]
        0x0001098e:    9004        ..      STR      r0,[sp,#0x10]
        0x00010990:    e7ff        ..      B        0x10992 ; uint64_to_str + 18
        0x00010992:    980e        ..      LDR      r0,[sp,#0x38]
        0x00010994:    990f        ..      LDR      r1,[sp,#0x3c]
        0x00010996:    f7fff925    ..%.    BL       divu64_10 ; 0xfbe4
        0x0001099a:    9101        ..      STR      r1,[sp,#4]
        0x0001099c:    9000        ..      STR      r0,[sp,#0]
        0x0001099e:    980e        ..      LDR      r0,[sp,#0x38]
        0x000109a0:    9900        ..      LDR      r1,[sp,#0]
        0x000109a2:    eb010181    ....    ADD      r1,r1,r1,LSL #2
        0x000109a6:    eba00041    ..A.    SUB      r0,r0,r1,LSL #1
        0x000109aa:    9003        ..      STR      r0,[sp,#0xc]
        0x000109ac:    9803        ..      LDR      r0,[sp,#0xc]
        0x000109ae:    3030        00      ADDS     r0,r0,#0x30
        0x000109b0:    9a05        ..      LDR      r2,[sp,#0x14]
        0x000109b2:    1c51        Q.      ADDS     r1,r2,#1
        0x000109b4:    9105        ..      STR      r1,[sp,#0x14]
        0x000109b6:    f10d011b    ....    ADD      r1,sp,#0x1b
        0x000109ba:    5488        .T      STRB     r0,[r1,r2]
        0x000109bc:    9800        ..      LDR      r0,[sp,#0]
        0x000109be:    9901        ..      LDR      r1,[sp,#4]
        0x000109c0:    910f        ..      STR      r1,[sp,#0x3c]
        0x000109c2:    900e        ..      STR      r0,[sp,#0x38]
        0x000109c4:    e7ff        ..      B        0x109c6 ; uint64_to_str + 70
        0x000109c6:    980e        ..      LDR      r0,[sp,#0x38]
        0x000109c8:    990f        ..      LDR      r1,[sp,#0x3c]
        0x000109ca:    4308        .C      ORRS     r0,r0,r1
        0x000109cc:    2800        .(      CMP      r0,#0
        0x000109ce:    d1e0        ..      BNE      0x10992 ; uint64_to_str + 18
        0x000109d0:    e7ff        ..      B        0x109d2 ; uint64_to_str + 82
        0x000109d2:    9805        ..      LDR      r0,[sp,#0x14]
        0x000109d4:    9004        ..      STR      r0,[sp,#0x10]
        0x000109d6:    980d        ..      LDR      r0,[sp,#0x34]
        0x000109d8:    b198        ..      CBZ      r0,0x10a02 ; uint64_to_str + 130
        0x000109da:    e7ff        ..      B        0x109dc ; uint64_to_str + 92
        0x000109dc:    e7ff        ..      B        0x109de ; uint64_to_str + 94
        0x000109de:    9805        ..      LDR      r0,[sp,#0x14]
        0x000109e0:    1e41        A.      SUBS     r1,r0,#1
        0x000109e2:    9105        ..      STR      r1,[sp,#0x14]
        0x000109e4:    b148        H.      CBZ      r0,0x109fa ; uint64_to_str + 122
        0x000109e6:    e7ff        ..      B        0x109e8 ; uint64_to_str + 104
        0x000109e8:    9905        ..      LDR      r1,[sp,#0x14]
        0x000109ea:    f10d001b    ....    ADD      r0,sp,#0x1b
        0x000109ee:    5c40        @\      LDRB     r0,[r0,r1]
        0x000109f0:    990d        ..      LDR      r1,[sp,#0x34]
        0x000109f2:    1c4a        J.      ADDS     r2,r1,#1
        0x000109f4:    920d        ..      STR      r2,[sp,#0x34]
        0x000109f6:    7008        .p      STRB     r0,[r1,#0]
        0x000109f8:    e7f1        ..      B        0x109de ; uint64_to_str + 94
        0x000109fa:    990d        ..      LDR      r1,[sp,#0x34]
        0x000109fc:    2000        .       MOVS     r0,#0
        0x000109fe:    7008        .p      STRB     r0,[r1,#0]
        0x00010a00:    e7ff        ..      B        0x10a02 ; uint64_to_str + 130
        0x00010a02:    9804        ..      LDR      r0,[sp,#0x10]
        0x00010a04:    b010        ..      ADD      sp,sp,#0x40
        0x00010a06:    bd80        ..      POP      {r7,pc}
    write_nonblocking
        0x00010a08:    b570        p.      PUSH     {r4-r6,lr}
        0x00010a0a:    b300        ..      CBZ      r0,0x10a4e ; write_nonblocking + 70
        0x00010a0c:    4605        .F      MOV      r5,r0
        0x00010a0e:    6800        .h      LDR      r0,[r0,#0]
        0x00010a10:    461c        .F      MOV      r4,r3
        0x00010a12:    f6496306    I..c    MOV      r3,#0x9e06
        0x00010a16:    f020407e     .~@    BIC      r0,r0,#0xfe000000
        0x00010a1a:    f2c013ea    ....    MOVT     r3,#0x1ea
        0x00010a1e:    4298        .B      CMP      r0,r3
        0x00010a20:    d115        ..      BNE      0x10a4e ; write_nonblocking + 70
        0x00010a22:    b10c        ..      CBZ      r4,0x10a28 ; write_nonblocking + 32
        0x00010a24:    2000        .       MOVS     r0,#0
        0x00010a26:    6020         `      STR      r0,[r4,#0]
        0x00010a28:    b33a        :.      CBZ      r2,0x10a7a ; write_nonblocking + 114
        0x00010a2a:    f8950028    ..(.    LDRB     r0,[r5,#0x28]
        0x00010a2e:    b180        ..      CBZ      r0,0x10a52 ; write_nonblocking + 74
        0x00010a30:    6b6b        kk      LDR      r3,[r5,#0x34]
        0x00010a32:    6bae        .k      LDR      r6,[r5,#0x38]
        0x00010a34:    f105002c    ..,.    ADD      r0,r5,#0x2c
        0x00010a38:    1af6        ..      SUBS     r6,r6,r3
        0x00010a3a:    4296        .B      CMP      r6,r2
        0x00010a3c:    bf88        ..      IT       HI
        0x00010a3e:    4616        .F      MOVHI    r6,r2
        0x00010a40:    4632        2F      MOV      r2,r6
        0x00010a42:    f7fdfd51    ..Q.    BL       am_hal_queue_item_add ; 0xe4e8
        0x00010a46:    4628        (F      MOV      r0,r5
        0x00010a48:    f7ffff0c    ....    BL       tx_queue_update ; 0x10864
        0x00010a4c:    e013        ..      B        0x10a76 ; write_nonblocking + 110
        0x00010a4e:    2002        .       MOVS     r0,#2
        0x00010a50:    bd70        p.      POP      {r4-r6,pc}
        0x00010a52:    6a68        hj      LDR      r0,[r5,#0x24]
        0x00010a54:    f24c0300    L...    MOVW     r3,#0xc000
        0x00010a58:    f2c40301    ....    MOVT     r3,#0x4001
        0x00010a5c:    eb033000    ...0    ADD      r0,r3,r0,LSL #12
        0x00010a60:    2600        .&      MOVS     r6,#0
        0x00010a62:    bf00        ..      NOP      
        0x00010a64:    6983        .i      LDR      r3,[r0,#0x18]
        0x00010a66:    069b        ..      LSLS     r3,r3,#26
        0x00010a68:    d405        ..      BMI      0x10a76 ; write_nonblocking + 110
        0x00010a6a:    5d8b        .]      LDRB     r3,[r1,r6]
        0x00010a6c:    3601        .6      ADDS     r6,#1
        0x00010a6e:    42b2        .B      CMP      r2,r6
        0x00010a70:    6003        .`      STR      r3,[r0,#0]
        0x00010a72:    d1f7        ..      BNE      0x10a64 ; write_nonblocking + 92
        0x00010a74:    4616        .F      MOV      r6,r2
        0x00010a76:    b104        ..      CBZ      r4,0x10a7a ; write_nonblocking + 114
        0x00010a78:    6026        &`      STR      r6,[r4,#0]
        0x00010a7a:    2000        .       MOVS     r0,#0
        0x00010a7c:    bd70        p.      POP      {r4-r6,pc}
        0x00010a7e:    0000        ..      MOVS     r0,r0
    $t
    x$fpl$d2f
    $v0
    __aeabi_d2f
    _d2f
        0x00010a80:    f0214200    !..B    BIC      r2,r1,#0x80000000
        0x00010a84:    f0014300    ...C    AND      r3,r1,#0x80000000
        0x00010a88:    f1a25260    ..`R    SUB      r2,r2,#0x38000000
        0x00010a8c:    f5b21f80    ....    CMP      r2,#0x100000
        0x00010a90:    bf28        (.      IT       CS
        0x00010a92:    f1d26c7f    ...l    RSBSCS   r12,r2,#0xff00000
        0x00010a96:    d90b        ..      BLS      0x10ab0 ; __aeabi_d2f + 48
        0x00010a98:    ea5f1c00    _...    LSLS     r12,r0,#4
        0x00010a9c:    ea4302c2    C...    ORR      r2,r3,r2,LSL #3
        0x00010aa0:    eb427050    B.Pp    ADC      r0,r2,r0,LSR #29
        0x00010aa4:    bf18        ..      IT       NE
        0x00010aa6:    4770        pG      BXNE     lr
        0x00010aa8:    bf28        (.      IT       CS
        0x00010aaa:    f0200001     ...    BICCS    r0,r0,#1
        0x00010aae:    4770        pG      BX       lr
        0x00010ab0:    f5b21f80    ....    CMP      r2,#0x100000
        0x00010ab4:    bfbc        ..      ITT      LT
        0x00010ab6:    4618        .F      MOVLT    r0,r3
        0x00010ab8:    4770        pG      BXLT     lr
        0x00010aba:    ea4f0c41    O.A.    LSL      r12,r1,#1
        0x00010abe:    f51c1f00    ....    CMN      r12,#0x200000
        0x00010ac2:    d202        ..      BCS      0x10aca ; __aeabi_d2f + 74
        0x00010ac4:    4608        .F      MOV      r0,r1
        0x00010ac6:    f000b867    ..g.    B.W      __fpl_fretinf ; 0x10b98
        0x00010aca:    b570        p.      PUSH     {r4-r6,lr}
        0x00010acc:    f000f809    ....    BL       __fpl_dnaninf ; 0x10ae2
    $d
        0x00010ad0:    89000000    ....    DCD    2298478592
    $t
        0x00010ad4:    f7ffbff6    ....    B.W      0x10ac4 ; __aeabi_d2f + 68
        0x00010ad8:    f04f4000    O..@    MOV      r0,#0x80000000
        0x00010adc:    f5a00080    ....    SUB      r0,r0,#0x400000
        0x00010ae0:    4770        pG      BX       lr
    x$fpl$dnaninf
    $v0
    __fpl_dnaninf
        0x00010ae2:    f10e0e02    ....    ADD      lr,lr,#2
        0x00010ae6:    f02e0e03    ....    BIC      lr,lr,#3
        0x00010aea:    f85e6b04    ^..k    LDR      r6,[lr],#4
        0x00010aee:    4236        6B      TST      r6,r6
        0x00010af0:    d405        ..      BMI      0x10afe ; __fpl_dnaninf + 28
        0x00010af2:    2a01        .*      CMP      r2,#1
        0x00010af4:    eb430503    C...    ADC      r5,r3,r3
        0x00010af8:    f5151f00    ....    CMN      r5,#0x200000
        0x00010afc:    d812        ..      BHI      0x10b24 ; __fpl_dnaninf + 66
        0x00010afe:    2801        .(      CMP      r0,#1
        0x00010b00:    eb410c01    A...    ADC      r12,r1,r1
        0x00010b04:    f51c1f00    ....    CMN      r12,#0x200000
        0x00010b08:    d80c        ..      BHI      0x10b24 ; __fpl_dnaninf + 66
        0x00010b0a:    d10e        ..      BNE      0x10b2a ; __fpl_dnaninf + 72
        0x00010b0c:    ea4f7cd1    O..|    LSR      r12,r1,#31
        0x00010b10:    eb0c0c4c    ..L.    ADD      r12,r12,r12,LSL #1
        0x00010b14:    f10c0c02    ....    ADD      r12,r12,#2
        0x00010b18:    f5151f00    ....    CMN      r5,#0x200000
        0x00010b1c:    bf08        ..      IT       EQ
        0x00010b1e:    eb4c7cd3    L..|    ADCEQ    r12,r12,r3,LSR #31
        0x00010b22:    e004        ..      B        0x10b2e ; __fpl_dnaninf + 76
        0x00010b24:    f04f0c08    O...    MOV      r12,#8
        0x00010b28:    e001        ..      B        0x10b2e ; __fpl_dnaninf + 76
        0x00010b2a:    ea4f7cd3    O..|    LSR      r12,r3,#31
        0x00010b2e:    eb0c054c    ..L.    ADD      r5,r12,r12,LSL #1
        0x00010b32:    fa26f605    &...    LSR      r6,r6,r5
        0x00010b36:    f0060607    ....    AND      r6,r6,#7
        0x00010b3a:    f1b60c04    ....    SUBS     r12,r6,#4
        0x00010b3e:    d206        ..      BCS      0x10b4e ; __fpl_dnaninf + 108
        0x00010b40:    eb0e0c86    ....    ADD      r12,lr,r6,LSL #2
        0x00010b44:    e8bd4070    ..p@    POP      {r4-r6,lr}
        0x00010b48:    f04c0c01    L...    ORR      r12,r12,#1
        0x00010b4c:    4760        `G      BX       r12
        0x00010b4e:    e8dff00c    ....    TBB      [pc,r12]
    $d
        0x00010b52:    0b09        ..      DCW    2825
        0x00010b54:    0202        ..      DCW    514
    $t
        0x00010b56:    f04f4100    O..A    MOV      r1,#0x80000000
        0x00010b5a:    f5a12100    ...!    SUB      r1,r1,#0x80000
        0x00010b5e:    f04f0000    O...    MOV      r0,#0
        0x00010b62:    bd70        p.      POP      {r4-r6,pc}
        0x00010b64:    4619        .F      MOV      r1,r3
        0x00010b66:    4610        .F      MOV      r0,r2
        0x00010b68:    2801        .(      CMP      r0,#1
        0x00010b6a:    eb510401    Q...    ADCS     r4,r1,r1
        0x00010b6e:    bf18        ..      IT       NE
        0x00010b70:    f5d41400    ....    RSBSNE   r4,r4,#0x200000
        0x00010b74:    bf84        ..      ITT      HI
        0x00010b76:    2000        .       MOVHI    r0,#0
        0x00010b78:    f0014100    ...A    ANDHI    r1,r1,#0x80000000
        0x00010b7c:    bd70        p.      POP      {r4-r6,pc}
    x$fpl$fpinit
    $v0
    _fp_init
        0x00010b7e:    eef10a10    ....    VMRS     r0,FPSCR
        0x00010b82:    f64f71ff    O..q    MOV      r1,#0xffff
        0x00010b86:    f2c031c0    ...1    MOVT     r1,#0x3c0
        0x00010b8a:    ea200001     ...    BIC      r0,r0,r1
        0x00010b8e:    f0407040    @.@p    ORR      r0,r0,#0x3000000
        0x00010b92:    eee10a10    ....    VMSR     FPSCR,r0
    __fplib_config_fpu_vfp
    __fplib_config_pureend_doubles
        0x00010b96:    4770        pG      BX       lr
    x$fpl$fretinf
    $v0
    __fpl_fretinf
        0x00010b98:    21ff        .!      MOVS     r1,#0xff
        0x00010b9a:    ea4150d0    A..P    ORR      r0,r1,r0,LSR #23
        0x00010b9e:    05c0        ..      LSLS     r0,r0,#23
        0x00010ba0:    4770        pG      BX       lr
    x$fpl$usenofp
    __I$use$fp
        0x00010ba2:    0000        ..      MOVS     r0,r0
    $d.realdata
    .L__const.am_hal_flash_store_ui32.SRAM_write_ui32
        0x00010ba4:    bf006001    .`..    DCD    3204472833
        0x00010ba8:    bf006800    .h..    DCD    3204474880
        0x00010bac:    bf004770    pG..    DCD    3204466544
    am_ble_buffer_patch_data
        0x00010bb0:    0d382200    ."8.    DCD    221782528
        0x00010bb4:    0000ffff    ....    DCD    65535
        0x00010bb8:    00093532    25..    DCD    603442
        0x00010bbc:    00093965    e9..    DCD    604517
        0x00010bc0:    0009452b    +E..    DCD    607531
        0x00010bc4:    000948a9    .H..    DCD    608425
        0x00010bc8:    000953f7    .S..    DCD    611319
        0x00010bcc:    00095c1a    .\..    DCD    613402
        0x00010bd0:    0009641c    .d..    DCD    615452
        0x00010bd4:    00096afd    .j..    DCD    617213
        0x00010bd8:    0009751a    .u..    DCD    619802
        0x00010bdc:    00097bde    .{..    DCD    621534
        0x00010be0:    0009854b    K...    DCD    623947
        0x00010be4:    00098bb3    ....    DCD    625587
        0x00010be8:    0009951f    ....    DCD    627999
        0x00010bec:    00099c4f    O...    DCD    629839
        0x00010bf0:    0009a2f5    ....    DCD    631541
        0x00010bf4:    0009ad1e    ....    DCD    634142
        0x00010bf8:    00000000    ....    DCD    0
        0x00010bfc:    00000000    ....    DCD    0
        0x00010c00:    00000000    ....    DCD    0
        0x00010c04:    00000000    ....    DCD    0
        0x00010c08:    00000000    ....    DCD    0
        0x00010c0c:    00000000    ....    DCD    0
        0x00010c10:    00000000    ....    DCD    0
        0x00010c14:    00000000    ....    DCD    0
        0x00010c18:    00000000    ....    DCD    0
        0x00010c1c:    00000000    ....    DCD    0
        0x00010c20:    00000000    ....    DCD    0
        0x00010c24:    00000000    ....    DCD    0
        0x00010c28:    00000000    ....    DCD    0
        0x00010c2c:    47004800    .H.G    DCD    1191200768
        0x00010c30:    20004841    AH.     DCD    536889409
        0x00010c34:    bf00bf00    ....    DCD    3204497152
        0x00010c38:    b005bf00    ....    DCD    2953166592
        0x00010c3c:    0000bdf0    ....    DCD    48624
        0x00010c40:    20006790    .g.     DCD    536897424
        0x00010c44:    00002710    .'..    DCD    10000
        0x00010c48:    20001000    ...     DCD    536875008
        0x00010c4c:    00001388    ....    DCD    5000
        0x00010c50:    20001018    ...     DCD    536875032
        0x00010c54:    000003ff    ....    DCD    1023
        0x00010c58:    b0ffb5ff    ....    DCD    2969548287
        0x00010c5c:    4607b082    ...F    DCD    1174909058
        0x00010c60:    4616460c    .F.F    DCD    1175864844
        0x00010c64:    48302500    .%0H    DCD    1211114752
        0x00010c68:    99846006    .`..    DCD    2575589382
        0x00010c6c:    28eed004    ...(    DCD    686739460
        0x00010c70:    2003d002    ...     DCD    537120770
        0x00010c74:    bd707360    `sp.    DCD    3178263392
        0x00010c78:    28f17c60    `|.(    DCD    686914656
        0x00010c7c:    28f2d006    ...(    DCD    687001606
        0x00010c80:    28f3d004    ...(    DCD    687067140
        0x00010c84:    2002d002    ...     DCD    537055234
        0x00010c88:    bd707360    `sp.    DCD    3178263392
        0x00010c8c:    73602000    . `s    DCD    1935679488
        0x00010c90:    0000bd70    p...    DCD    48496
        0x00010c94:    20001018    ...     DCD    536875032
        0x00010c98:    2000100a    ...     DCD    536875018
        0x00010c9c:    47004800    .H.G    DCD    1191200768
        0x00010ca0:    20004d81    .M.     DCD    536890753
        0x00010ca4:    28008870    p..(    DCD    671123568
        0x00010ca8:    2014d116    ...     DCD    538235158
        0x00010cac:    200b2101    .!.     DCD    537600257
        0x00010cb0:    fcc6f7ed    ....    DCD    4240898029
        0x00010cb4:    0000bd10    ....    DCD    48400
        0x00010cb8:    47004800    .H.G    DCD    1191200768
        0x00010cbc:    20004e15    .N.     DCD    536890901
        0x00010cc0:    d0022800    .(..    DCD    3489802240
        0x00010cc4:    28017808    .x.(    DCD    671184904
        0x00010cc8:    7808d01a    ...x    DCD    2013843482
        0x00010ccc:    d0172802    .(..    DCD    3491178498
        0x00010cd0:    d00e2800    .(..    DCD    3490588672
        0x00010cd4:    d00c2801    .(..    DCD    3490457601
        0x00010cd8:    fed9f7f0    ....    DCD    4275697648
        0x00010cdc:    d0082800    .(..    DCD    3490195456
        0x00010ce0:    f816f000    ....    DCD    4162252800
        0x00010ce4:    f7ef2032    2 ..    DCD    4159643698
        0x00010ce8:    f7f0f851    Q...    DCD    4159764561
        0x00010cec:    e000e180    ....    DCD    3758154112
        0x00010cf0:    e000e100    ....    DCD    3758153984
        0x00010cf4:    68014802    .H.h    DCD    1744914434
        0x00010cf8:    43912228    (".C    DCD    1133584936
        0x00010cfc:    47706001    .`pG    DCD    1198546945
        0x00010d00:    52c00000    ...R    DCD    1388314624
        0x00010d04:    47004800    .H.G    DCD    1191200768
        0x00010d08:    20004881    .H.     DCD    536889473
        0x00010d0c:    47706001    .`pG    DCD    1198546945
        0x00010d10:    52c00000    ...R    DCD    1388314624
        0x00010d14:    68014802    .H.h    DCD    1744914434
        0x00010d18:    43912250    P".C    DCD    1133584976
        0x00010d1c:    47706001    .`pG    DCD    1198546945
        0x00010d20:    52c00000    ...R    DCD    1388314624
        0x00010d24:    47004800    .H.G    DCD    1191200768
        0x00010d28:    200048a1    .H.     DCD    536889505
        0x00010d2c:    508040c0    .@.P    DCD    1350582464
        0x00010d30:    460bb510    ...F    DCD    1175172368
        0x00010d34:    24024611    .F.$    DCD    604128785
        0x00010d38:    4350220c    ."PC    DCD    1129325068
        0x00010d3c:    18804a06    .J..    DCD    411060742
        0x00010d40:    d0062800    .(..    DCD    3490064384
        0x00010d44:    2a006842    Bh.*    DCD    704669762
        0x00010d48:    4618d003    ...F    DCD    1176031235
        0x00010d4c:    fb10f000    ....    DCD    4212191232
        0x00010d50:    46204604    .F F    DCD    1176520196
        0x00010d54:    0000bd10    ....    DCD    48400
        0x00010d58:    00015698    .V..    DCD    87704
        0x00010d5c:    47084900    .I.G    DCD    1191725312
        0x00010d60:    20004e99    .N.     DCD    536891033
        0x00010d64:    fd5cf7f3    ..\.    DCD    4250728435
        0x00010d68:    5b00207c    | .[    DCD    1526734972
        0x00010d6c:    1940f80b    ..@.    DCD    423688203
        0x00010d70:    2900b2c1    ...)    DCD    687911617
        0x00010d74:    3440d003    ..@4    DCD    876662787
        0x00010d78:    f7f98fa0    ....    DCD    4160327584
        0x00010d7c:    bd70fd73    s.p.    DCD    3178298739
        0x00010d80:    e7e12101    .!..    DCD    3890290945
        0x00010d84:    47084900    .I.G    DCD    1191725312
        0x00010d88:    20005081    .P.     DCD    536891521
        0x00010d8c:    8810f380    ....    DCD    2282812288
        0x00010d90:    f7f34628    (F..    DCD    4159915560
        0x00010d94:    2100f94d    M..!    DCD    553711949
        0x00010d98:    8810f381    ....    DCD    2282812289
        0x00010d9c:    d00f2800    .(..    DCD    3490654208
        0x00010da0:    460a8881    ...F    DCD    1175095425
        0x00010da4:    2a463a0a    .:F*    DCD    709245450
        0x00010da8:    1c64d20c    ..d.    DCD    476369420
        0x00010dac:    03d20bd2    ....    DCD    64097234
        0x00010db0:    84c2430a    .C..    DCD    2227323658
        0x00010db4:    f3802000    . ..    DCD    4085260288
        0x00010db8:    47708810    ..pG    DCD    1198557200
        0x00010dbc:    00000466    f...    DCD    1126
        0x00010dc0:    50804440    @D.P    DCD    1350583360
        0x00010dc4:    47084900    .I.G    DCD    1191725312
        0x00010dc8:    200050ed    .P.     DCD    536891629
        0x00010dcc:    8f809011    ....    DCD    2407567377
        0x00010dd0:    9812900e    ....    DCD    2551353358
        0x00010dd4:    900d3008    .0..    DCD    2416783368
        0x00010dd8:    30309812    ..00    DCD    808491026
        0x00010ddc:    9812900c    ....    DCD    2551353356
        0x00010de0:    900b3044    D0..    DCD    2416652356
        0x00010de4:    900a2000    . ..    DCD    2416582656
        0x00010de8:    980c2501    .%..    DCD    2550932737
        0x00010dec:    f8a4f007    ....    DCD    4171558919
        0x00010df0:    d02d2800    .(-.    DCD    3492620288
        0x00010df4:    bf00bf00    ....    DCD    3204497152
        0x00010df8:    bf00bf00    ....    DCD    3204497152
        0x00010dfc:    bf00bf00    ....    DCD    3204497152
        0x00010e00:    bf00bf00    ....    DCD    3204497152
        0x00010e04:    bf00bf00    ....    DCD    3204497152
        0x00010e08:    9a0ce091    ....    DCD    2584535185
        0x00010e0c:    232220ff    . "#    DCD    589439231
        0x00010e10:    300a4611    .F.0    DCD    805979665
        0x00010e14:    fb9ef7fd    ....    DCD    4221499389
        0x00010e18:    88617007    .pa.    DCD    2288087047
        0x00010e1c:    88a181c1    ....    DCD    2292285889
        0x00010e20:    88e18201    ....    DCD    2296480257
        0x00010e24:    892180c1    ..!.    DCD    2300674241
        0x00010e28:    7aa18101    ...z    DCD    2057404673
        0x00010e2c:    e02301c0    ..#.    DCD    3760390592
        0x00010e30:    9802e077    w...    DCD    2550325367
        0x00010e34:    01401a08    ..@.    DCD    20978184
        0x00010e38:    42900940    @..B    DCD    1116735808
        0x00010e3c:    9802d91c    ....    DCD    2550323484
        0x00010e40:    01401a40    @.@.    DCD    20978240
        0x00010e44:    42400940    @.@B    DCD    1111492928
        0x00010e48:    9802e016    ....    DCD    2550325270
        0x00010e4c:    bf00bf00    ....    DCD    3204497152
        0x00010e50:    bf00bf00    ....    DCD    3204497152
        0x00010e54:    bf00bf00    ....    DCD    3204497152
        0x00010e58:    bf00bf00    ....    DCD    3204497152
        0x00010e5c:    2000bf00    ...     DCD    536919808
        0x00010e60:    9802e00a    ....    DCD    2550325258
        0x00010e64:    01401a38    8.@.    DCD    20978232
        0x00010e68:    42900940    @..B    DCD    1116735808
        0x00010e6c:    607565c1    .eu`    DCD    1618306497
        0x00010e70:    84b88960    `...    DCD    2226686304
        0x00010e74:    20019a04    ...     DCD    536975876
        0x00010e78:    88607550    Pu`.    DCD    2288022864
        0x00010e7c:    9a0485f8    ....    DCD    2583987704
        0x00010e80:    75107860    `x.u    DCD    1964013664
        0x00010e84:    47004800    .H.G    DCD    1191200768
        0x00010e88:    200048e1    .H.     DCD    536889569
        0x00010e8c:    0000bf00    ....    DCD    48896
        0x00010e90:    8d3a8960    `.:.    DCD    2369423712
        0x00010e94:    b2801e40    @...    DCD    2994740800
        0x00010e98:    d1034282    .B..    DCD    3506651778
        0x00010e9c:    43012008    . .C    DCD    1124147208
        0x00010ea0:    71819803    ...q    DCD    1904318467
        0x00010ea4:    bdf0b007    ....    DCD    3186667527
        0x00010ea8:    20006160    `a.     DCD    536895840
        0x00010eac:    00000000    ....    DCD    0
        0x00010eb0:    00000000    ....    DCD    0
        0x00010eb4:    00000000    ....    DCD    0
        0x00010eb8:    00000000    ....    DCD    0
        0x00010ebc:    00000021    !...    DCD    33
        0x00010ec0:    00000000    ....    DCD    0
        0x00010ec4:    00000001    ....    DCD    1
        0x00010ec8:    00000000    ....    DCD    0
        0x00010ecc:    ffffffff    ....    DCD    4294967295
        0x00010ed0:    000003ff    ....    DCD    1023
        0x00010ed4:    1f3c00ff    ..<.    DCD    524026111
        0x00010ed8:    00000000    ....    DCD    0
        0x00010edc:    00002001    . ..    DCD    8193
        0x00010ee0:    00007d89    .}..    DCD    32137
        0x00010ee4:    00002002    . ..    DCD    8194
        0x00010ee8:    000076fd    .v..    DCD    30461
        0x00010eec:    8c001810    ....    DCD    2348816400
        0x00010ef0:    9b080bc0    ....    DCD    2600995776
        0x00010ef4:    42181e5b    [..B    DCD    1108876891
        0x00010ef8:    9808d105    ....    DCD    2550714629
        0x00010efc:    47004800    .H.G    DCD    1191200768
        0x00010f00:    200048c1    .H.     DCD    536889537
        0x00010f04:    0000bf00    ....    DCD    48896
        0x00010f08:    18d24b80    .K..    DCD    416435072
        0x00010f0c:    20018450    P..     DCD    536970320
        0x00010f10:    8810f380    ....    DCD    2282812288
        0x00010f14:    280068b8    .h.(    DCD    671115448
        0x00010f18:    2000d016    ...     DCD    536924182
        0x00010f1c:    d0192800    .(..    DCD    3491309568
        0x00010f20:    28006b38    8k.(    DCD    671116088
        0x00010f24:    2000d012    ...     DCD    536924178
        0x00010f28:    d0132800    .(..    DCD    3490916352
        0x00010f2c:    1900fc9f    ....    DCD    419495071
        0x00010f30:    68594b06    .KYh    DCD    1750682374
        0x00010f34:    088a1809    ....    DCD    143267849
        0x00010f38:    1b090094    ....    DCD    453574804
        0x00010f3c:    01416059    Y`A.    DCD    21061721
        0x00010f40:    18801a08    ....    DCD    411048456
        0x00010f44:    0000bd10    ....    DCD    48400
        0x00010f48:    2000602c    ,`.     DCD    536895532
        0x00010f4c:    200067b8    .g.     DCD    536897464
        0x00010f50:    47084900    .I.G    DCD    1191725312
        0x00010f54:    20005579    yU.     DCD    536892793
        0x00010f58:    6a80217d    }!.j    DCD    1786782077
        0x00010f5c:    42880209    ...B    DCD    1116209673
        0x00010f60:    1a40d302    ..@.    DCD    440455938
        0x00010f64:    e0002201    ."..    DCD    3758105089
        0x00010f68:    2a001a08    ...*    DCD    704649736
        0x00010f6c:    1a081929    )...    DCD    436738345
        0x00010f70:    f7ee4621    !F..    DCD    4159587873
        0x00010f74:    b288feb1    ....    DCD    2995322545
        0x00010f78:    3028bd70    p.(0    DCD    807976304
        0x00010f7c:    7e003060    `0.~    DCD    2113941600
        0x00010f80:    b4104770    pG..    DCD    3020965744
        0x00010f84:    32404602    .F@2    DCD    843073026
        0x00010f88:    24068cd3    ...$    DCD    604409043
        0x00010f8c:    8d144363    cC..    DCD    2366915427
        0x00010f90:    b29b18e3    ....    DCD    2996508899
        0x00010f94:    30608493    ..`0    DCD    811631763
        0x00010f98:    46187541    Au.F    DCD    1176008001
        0x00010f9c:    4770bc10    ..pG    DCD    1198570512
        0x00010fa0:    30603028    (0`0    DCD    811610152
        0x00010fa4:    28007d40    @}.(    DCD    671120704
        0x00010fa8:    20002000    . .     DCD    536879104
        0x00010fac:    07007940    @y..    DCD    117471552
        0x00010fb0:    2004d502    ...     DCD    537187586
        0x00010fb4:    e0347060    `p4.    DCD    3761533024
        0x00010fb8:    f0056928    (i..    DCD    4026886440
        0x00010fbc:    2800fb51    Q..(    DCD    671152977
        0x00010fc0:    2002d002    ...     DCD    537055234
        0x00010fc4:    e02c7060    `p,.    DCD    3761008736
        0x00010fc8:    f0039803    ....    DCD    4026767363
        0x00010fcc:    2804fe4d    M..(    DCD    671415885
        0x00010fd0:    4668d107    ..hF    DCD    1181274375
        0x00010fd4:    20027901    .y.     DCD    537032961
        0x00010fd8:    d0054388    .C..    DCD    3490005896
        0x00010fdc:    28002000    . .(    DCD    671096832
        0x00010fe0:    2000d004    ...     DCD    536924164
        0x00010fe4:    e01c7060    `p..    DCD    3759960160
        0x00010fe8:    e7f82001    . ..    DCD    3891798017
        0x00010fec:    20006758    Xg.     DCD    536897368
        0x00010ff0:    50800040    @..P    DCD    1350565952
        0x00010ff4:    200067b8    .g.     DCD    536897464
        0x00010ff8:    04000000    ....    DCD    67108864
        0x00010ffc:    200067c8    .g.     DCD    536897480
        0x00011000:    47084900    .I.G    DCD    1191725312
        0x00011004:    200055cd    .U.     DCD    536892877
        0x00011008:    207d6a81    .j}     DCD    545090177
        0x0001100c:    42810200    ...B    DCD    1115750912
        0x00011010:    1a08d302    ....    DCD    436785922
        0x00011014:    e0002201    ."..    DCD    3758105089
        0x00011018:    2a001a40    @..*    DCD    704649792
        0x0001101c:    4360d004    ..`C    DCD    1130418180
        0x00011020:    fca4f7eb    ....    DCD    4238669803
        0x00011024:    e0031a20     ...    DCD    3758299680
        0x00011028:    f7eb4360    `C..    DCD    4159390560
        0x0001102c:    2400b5f8    ...$    DCD    604026360
        0x00011030:    7800481c    .H.x    DCD    2013284380
        0x00011034:    d12d2800    .(-.    DCD    3509397504
        0x00011038:    68704e1b    .Nph    DCD    1752190491
        0x0001103c:    28004d1b    .M.(    DCD    671108379
        0x00011040:    4f1bda09    ...O    DCD    1327225353
        0x00011044:    200b2101    .!.     DCD    537600257
        0x00011048:    210147b8    .G.!    DCD    553732024
        0x0001104c:    47a8200b    . .G    DCD    1202200587
        0x00011050:    28006870    ph.(    DCD    671115376
        0x00011054:    2100dbf6    ...!    DCD    553704438
        0x00011058:    47a8200b    . .G    DCD    1202200587
        0x0001105c:    200a4e15    .N.     DCD    537546261
        0x00011060:    270547b0    .G.'    DCD    654657456
        0x00011064:    69f8073f    ?..i    DCD    1777862463
        0x00011068:    0d2d0505    ..-.    DCD    221054213
        0x0001106c:    d1042d00    .-..    DCD    3506711808
        0x00011070:    68c04811    .H.h    DCD    1757431825
        0x00011074:    0e800580    ....    DCD    243271040
        0x00011078:    2c64d00c    ..d,    DCD    744804364
        0x0001107c:    2014d20a    ...     DCD    538235402
        0x00011080:    69f847b0    .G.i    DCD    1777878960
        0x00011084:    0d000500    ....    DCD    218105088
        0x00011088:    d90442a8    .B..    DCD    3640935080
        0x0001108c:    1c644605    .Fd.    DCD    476333573
        0x00011090:    d3f42c64    d,..    DCD    3555994724
        0x00011094:    4903bdf8    ...I    DCD    1224982008
        0x00011098:    70082001    . .p    DCD    1879580673
        0x0001109c:    70084907    .I.p    DCD    1879591175
        0x000110a0:    0000bdf8    ....    DCD    48632
        0x000110a4:    20001001    ...     DCD    536875009
        0x000110a8:    45800080    ...E    DCD    1166016640
        0x000110ac:    00002455    U$..    DCD    9301
        0x000110b0:    00002391    .#..    DCD    9105
        0x000110b4:    00003ba1    .;..    DCD    15265
        0x000110b8:    52c00000    ...R    DCD    1388314624
        0x000110bc:    20001000    ...     DCD    536875008
        0x000110c0:    4818b510    ...H    DCD    1209578768
        0x000110c4:    29406801    .h@)    DCD    692086785
        0x000110c8:    2140d201    ..@!    DCD    557896193
        0x000110cc:    7a806001    .`.z    DCD    2055233537
        0x000110d0:    d00107c0    ....    DCD    3489728448
        0x000110d4:    bd102000    . ..    DCD    3171950592
        0x000110d8:    47804813    .H.G    DCD    1199589395
        0x000110dc:    07002005    . ..    DCD    117448709
        0x000110e0:    491269c0    .i.I    DCD    1225943488
        0x000110e4:    d0040500    ....    DCD    3489924352
        0x000110e8:    28017808    .x.(    DCD    671184904
        0x000110ec:    2802d014    ...(    DCD    671272980
        0x000110f0:    7808d012    ...x    DCD    2013843474
        0x000110f4:    d0082800    .(..    DCD    3490195456
        0x000110f8:    d0062801    .(..    DCD    3490064385
        0x000110fc:    d0042802    .(..    DCD    3489933314
        0x00011100:    4780480b    .H.G    DCD    1199589387
        0x00011104:    2032490b    .I2     DCD    540166411
        0x00011108:    490b4788    .G.I    DCD    1225475976
        0x0001110c:    47882004    . .G    DCD    1200103428
        0x00011110:    4780480a    .H.G    DCD    1199589386
        0x00011114:    bd102000    . ..    DCD    3171950592
        0x00011118:    20044909    .I.     DCD    537151753
        0x0001111c:    20014788    .G.     DCD    536954760
        0x00011120:    0000bd10    ....    DCD    48400
        0x00011124:    200067b8    .g.     DCD    536897464
        0x00011128:    00009305    ....    DCD    37637
        0x0001112c:    20001018    ...     DCD    536875032
        0x00011130:    00014b25    %K..    DCD    84773
        0x00011134:    00003ba1    .;..    DCD    15265
        0x00011138:    00014441    AD..    DCD    83009
        0x0001113c:    00014aaf    .J..    DCD    84655
        0x00011140:    00014489    .D..    DCD    83081
        0x00011144:    b08db5f0    ....    DCD    2962077168
        0x00011148:    496c4604    .FlI    DCD    1231832580
        0x0001114c:    4788a804    ...G    DCD    1200138244
        0x00011150:    5b00207c    | .[    DCD    1526734972
        0x00011154:    25009003    ...%    DCD    620793859
        0x00011158:    90022000    . ..    DCD    2416058368
        0x0001115c:    f3802001    . ..    DCD    4085260289
        0x00011160:    6c608810    ..`l    DCD    1818265616
        0x00011164:    f3812100    .!..    DCD    4085326080
        0x00011168:    46268810    ..&F    DCD    1176930320
        0x0001116c:    28003660    `6.(    DCD    671102560
        0x00011170:    4621d06b    k.!F    DCD    1176621163
        0x00011174:    910c3144    D1..    DCD    2433495364
        0x00011178:    910b3928    (9..    DCD    2433431848
        0x0001117c:    910a3164    d1..    DCD    2433364324
        0x00011180:    00ca8881    ....    DCD    13273217
        0x00011184:    1851495e    ^IQ.    DCD    407980382
        0x00011188:    0bc98cc9    ....    DCD    197758153
        0x0001118c:    d05c2900    .)\.    DCD    3495700736
        0x00011190:    f3812101    .!..    DCD    4085326081
        0x00011194:    68008810    ...h    DCD    1744865296
        0x00011198:    495a9001    ..ZI    DCD    1230671873
        0x0001119c:    4788980c    ...G    DCD    1200134156
        0x000111a0:    69e04607    .F.i    DCD    1776305671
        0x000111a4:    d0032800    .(..    DCD    3489867776
        0x000111a8:    28002000    . .(    DCD    671096832
        0x000111ac:    e008d002    ....    DCD    3758673922
        0x000111b0:    e7fa2001    . ..    DCD    3891929089
        0x000111b4:    980b4953    SI..    DCD    2550876499
        0x000111b8:    28004788    .G.(    DCD    671106952
        0x000111bc:    4952d001    ..RI    DCD    1230163969
        0x000111c0:    20004788    .G.     DCD    536889224
        0x000111c4:    8810f380    ....    DCD    2282812288
        0x000111c8:    494d88b8    ..MI    DCD    1229818040
        0x000111cc:    184000c0    ..@.    DCD    406847680
        0x000111d0:    0bd28cc2    ....    DCD    198347970
        0x000111d4:    84c203d2    ....    DCD    2227307474
        0x000111d8:    280788b8    ...(    DCD    671582392
        0x000111dc:    7e30d21e    ..0~    DCD    2117128734
        0x000111e0:    76301e40    @.0v    DCD    1982864960
        0x000111e4:    f3802001    . ..    DCD    4085260289
        0x000111e8:    6b208810    .. k    DCD    1797294096
        0x000111ec:    d0132800    .(..    DCD    3490916352
        0x000111f0:    28002000    . .(    DCD    671096832
        0x000111f4:    980ad005    ....    DCD    2550845445
        0x000111f8:    798021fb    .!.y    DCD    2038440443
        0x000111fc:    990a4008    .@..    DCD    2567585800
        0x00011200:    49417188    .qAI    DCD    1229025672
        0x00011204:    47884638    8F.G    DCD    1200113208
        0x00011208:    f3802000    . ..    DCD    4085260288
        0x0001120c:    4a3f8810    ..?J    DCD    1245677584
        0x00011210:    98037b39    9{..    DCD    2550364985
        0x00011214:    e0154790    .G..    DCD    3759490960
        0x00011218:    e7ea2001    . ..    DCD    3890880513
        0x0001121c:    d90f2809    .(..    DCD    3641649161
        0x00011220:    184000c0    ..@.    DCD    406847680
        0x00011224:    0a008d00    ....    DCD    167808256
        0x00011228:    49399000    ..9I    DCD    1228509184
        0x0001122c:    47884638    8F.G    DCD    1200113208
        0x00011230:    d0072800    .(..    DCD    3490129920
        0x00011234:    28009800    ...(    DCD    671127552
        0x00011238:    1c6dd004    ..m.    DCD    476958724
        0x0001123c:    e001b2ed    ....    DCD    3758207725
        0x00011240:    b2ed1c6d    m...    DCD    3001883757
        0x00011244:    28009801    ...(    DCD    671127553
        0x00011248:    9803d19a    ....    DCD    2550387098
        0x0001124c:    d00e2807    .(..    DCD    3490588679
        0x00011250:    d00c2d00    .-..    DCD    3490458880
        0x00011254:    f3802001    . ..    DCD    4085260289
        0x00011258:    7e308810    ..0~    DCD    2117109776
        0x0001125c:    76301b40    @.0v    DCD    1982864192
        0x00011260:    f3802000    . ..    DCD    4085260288
        0x00011264:    4a2b8810    ..+J    DCD    1244366864
        0x00011268:    98034629    )F..    DCD    2550351401
        0x0001126c:    20014790    .G.     DCD    536954768
        0x00011270:    8810f380    ....    DCD    2282812288
        0x00011274:    4f234828    (H#O    DCD    1327712296
        0x00011278:    47b89009    ...G    DCD    1203277833
        0x0001127c:    20004604    .F.     DCD    536888836
        0x00011280:    8810f380    ....    DCD    2282812288
        0x00011284:    d0360020     .6.    DCD    3493199904
        0x00011288:    88e04e1f    .N..    DCD    2296401439
        0x0001128c:    42889903    ...B    DCD    1116248323
        0x00011290:    2807d112    ...(    DCD    671600914
        0x00011294:    7aa1d007    ...z    DCD    2057424903
        0x00011298:    4f209100    .. O    DCD    1327534336
        0x0001129c:    7b227ae3    .z"{    DCD    2065857251
        0x000112a0:    47b88921    !..G    DCD    1203276065
        0x000112a4:    4b1ee005    ...K    DCD    1260314629
        0x000112a8:    89207921    !y .    DCD    2300606753
        0x000112ac:    4798462a    *F.G    DCD    1201161770
        0x000112b0:    46209002    .. F    DCD    1176539138
        0x000112b4:    e00347b0    .G..    DCD    3758311344
        0x000112b8:    46214a1a    .J!F    DCD    1176586778
        0x000112bc:    4790a804    ...G    DCD    1200662532
        0x000112c0:    f3802001    . ..    DCD    4085260289
        0x000112c4:    490f8810    ...I    DCD    1225754640
        0x000112c8:    47889809    ...G    DCD    1200134153
        0x000112cc:    00204604    .F .    DCD    2115076
        0x000112d0:    9804d10c    ....    DCD    2550452492
        0x000112d4:    d0032800    .(..    DCD    3489867776
        0x000112d8:    28002000    . .(    DCD    671096832
        0x000112dc:    e005d002    ....    DCD    3758477314
        0x000112e0:    e7fa2001    . ..    DCD    3891929089
        0x000112e4:    a9044a10    .J..    DCD    2835630608
        0x000112e8:    47909809    ...G    DCD    1200658441
        0x000112ec:    f3802000    . ..    DCD    4085260288
        0x000112f0:    2c008810    ...,    DCD    738232336
        0x000112f4:    9802d1c9    ....    DCD    2550321609
        0x000112f8:    bdf0b00d    ....    DCD    3186667533
        0x000112fc:    000038b5    .8..    DCD    14517
        0x00011300:    50804440    @D.P    DCD    1350583360
        0x00011304:    00003945    E9..    DCD    14661
        0x00011308:    000093a5    ....    DCD    37797
        0x0001130c:    0000b809    ....    DCD    47113
        0x00011310:    0000565d    ]V..    DCD    22109
        0x00011314:    0000b705    ....    DCD    46853
        0x00011318:    200061b8    .a.     DCD    536895928
        0x0001131c:    0000b729    )...    DCD    46889
        0x00011320:    00012235    5"..    DCD    74293
        0x00011324:    00003967    g9..    DCD    14695
        0x00011328:    0000390f    .9..    DCD    14607
        0x0001132c:    2400b5f1    ...$    DCD    604026353
        0x00011330:    4e164d15    .M.N    DCD    1310084373
        0x00011334:    f3802001    . ..    DCD    4085260289
        0x00011338:    98008810    ....    DCD    2550171664
        0x0001133c:    210047a8    .G.!    DCD    553666472
        0x00011340:    8810f381    ....    DCD    2282812289
        0x00011344:    d0172800    .(..    DCD    3491178496
        0x00011348:    460a8881    ...F    DCD    1175095425
        0x0001134c:    2a463a0a    .:F*    DCD    709245450
        0x00011350:    00c9d214    ....    DCD    13226516
        0x00011354:    8d091989    ....    DCD    2366183817
        0x00011358:    21010a0f    ...!    DCD    553716239
        0x0001135c:    8810f381    ....    DCD    2282812289
        0x00011360:    4788490b    .I.G    DCD    1200113931
        0x00011364:    d0032800    .(..    DCD    3489867776
        0x00011368:    d0012f00    ./..    DCD    3489738496
        0x0001136c:    b2e41c64    d...    DCD    3001293924
        0x00011370:    f3802000    . ..    DCD    4085260288
        0x00011374:    e7dd8810    ....    DCD    3890055184
        0x00011378:    bdf84620     F..    DCD    3187164704
        0x0001137c:    29491fc9    ..I)    DCD    692658121
        0x00011380:    4904d3d8    ...I    DCD    1225053144
        0x00011384:    e7d54788    .G..    DCD    3889514376
        0x00011388:    00003945    E9..    DCD    14661
        0x0001138c:    50804440    @D.P    DCD    1350583360
        0x00011390:    0000565d    ]V..    DCD    22109
        0x00011394:    000093a5    ....    DCD    37797
        0x00011398:    b092b5f1    ....    DCD    2962404849
        0x0001139c:    30409812    ..@0    DCD    809539602
        0x000113a0:    8f809011    ....    DCD    2407567377
        0x000113a4:    9812900e    ....    DCD    2551353358
        0x000113a8:    900d3008    .0..    DCD    2416783368
        0x000113ac:    30309812    ..00    DCD    808491026
        0x000113b0:    9812900c    ....    DCD    2551353356
        0x000113b4:    900b3044    D0..    DCD    2416652356
        0x000113b8:    900a2000    . ..    DCD    2416582656
        0x000113bc:    980c2501    .%..    DCD    2550932737
        0x000113c0:    2c006804    .h.,    DCD    738224132
        0x000113c4:    2000d003    ...     DCD    536924163
        0x000113c8:    d0022800    .(..    DCD    3489802240
        0x000113cc:    2001e093    ...     DCD    536993939
        0x000113d0:    980ee7fa    ....    DCD    2551113722
        0x000113d4:    48f900c1    ...H    DCD    1224278209
        0x000113d8:    90101808    ....    DCD    2416973832
        0x000113dc:    0bc08cc0    ....    DCD    197168320
        0x000113e0:    d06e2800    .(n.    DCD    3496880128
        0x000113e4:    49f6980e    ...I    DCD    1240897550
        0x000113e8:    900f0080    ....    DCD    2416902272
        0x000113ec:    30a05808    .X.0    DCD    815814664
        0x000113f0:    20017946    Fy.     DCD    536967494
        0x000113f4:    d5190771    q...    DCD    3575187313
        0x000113f8:    d0172c00    .,..    DCD    3491179520
        0x000113fc:    06b04ff1    .O..    DCD    112218097
        0x00011400:    7b20d507    .. {    DCD    2065749255
        0x00011404:    078047b8    .G..    DCD    125847480
        0x00011408:    2000d401    ...     DCD    536925185
        0x0001140c:    2001e006    ...     DCD    536993798
        0x00011410:    7b20e004    .. {    DCD    2065752068
        0x00011414:    07c047b8    .G..    DCD    130041784
        0x00011418:    2001d003    ...     DCD    536989699
        0x0001141c:    d0022800    .(..    DCD    3489802240
        0x00011420:    2000e004    ...     DCD    536928260
        0x00011424:    6824e7fa    ..$h    DCD    1747249146
        0x00011428:    d1e82c00    .,..    DCD    3521653760
        0x0001142c:    d0622800    .(b.    DCD    3496093696
        0x00011430:    22004be5    .K."    DCD    570444773
        0x00011434:    980c4621    !F..    DCD    2550941217
        0x00011438:    68a64798    .G.h    DCD    1755727768
        0x0001143c:    a9094ae3    .J..    DCD    2835958499
        0x00011440:    47904630    0F.G    DCD    1200637488
        0x00011444:    d1562800    .(V.    DCD    3512084480
        0x00011448:    4fdc88a0    ...O    DCD    1339852960
        0x0001144c:    19c000c0    ....    DCD    432013504
        0x00011450:    49df8d40    @..I    DCD    1239387456
        0x00011454:    20001841    A..     DCD    536877121
        0x00011458:    7912aa08    ...y    DCD    2031266312
        0x0001145c:    dd062a00    .*..    DCD    3708168704
        0x00011460:    540a5c32    2\.T    DCD    1409965106
        0x00011464:    aa081c40    @...    DCD    2852658240
        0x00011468:    42907912    .y.B    DCD    1116764434
        0x0001146c:    49d9dbf8    ...I    DCD    1239014392
        0x00011470:    478868a0    .h.G    DCD    1200122016
        0x00011474:    980f49d2    .I..    DCD    2551138770
        0x00011478:    30a05808    .X.0    DCD    815814664
        0x0001147c:    07c07940    @y..    DCD    130054464
        0x00011480:    a908d003    ....    DCD    2835927043
        0x00011484:    1d007908    .y..    DCD    486570248
        0x00011488:    a8089009    ....    DCD    2819133449
        0x0001148c:    98107901    .y..    DCD    2551216385
        0x00011490:    02098d02    ....    DCD    34180354
        0x00011494:    430ab2d2    ...C    DCD    1124774610
        0x00011498:    21038502    ...!    DCD    553878786
        0x0001149c:    8d029810    ....    DCD    2365757456
        0x000114a0:    430a438a    .C.C    DCD    1124746122
        0x000114a4:    98118502    ....    DCD    2551284994
        0x000114a8:    21008f80    ...!    DCD    553684864
        0x000114ac:    19c000c0    ....    DCD    432013504
        0x000114b0:    980b84c1    ....    DCD    2550891713
        0x000114b4:    28006800    .h.(    DCD    671115264
        0x000114b8:    2000d004    ...     DCD    536924164
        0x000114bc:    d0032800    .(..    DCD    3489867776
        0x000114c0:    e018e010    ....    DCD    3759726608
        0x000114c4:    e7f92001    . ..    DCD    3891863553
        0x000114c8:    88a1980b    ....    DCD    2292291595
        0x000114cc:    00ca6840    @h..    DCD    13264960
        0x000114d0:    888049c1    .I..    DCD    2290108865
        0x000114d4:    00c01851    Q...    DCD    12589137
        0x000114d8:    8cc219c0    ....    DCD    2361530816
        0x000114dc:    03d20bd2    ....    DCD    64097234
        0x000114e0:    84c2430a    .C..    DCD    2227323658
        0x000114e4:    46214abd    .J!F    DCD    1176586941
        0x000114e8:    4790980b    ...G    DCD    1200658443
        0x000114ec:    30609812    ..`0    DCD    811636754
        0x000114f0:    1c497e01    .~I.    DCD    474578433
        0x000114f4:    98117601    .v..    DCD    2551281153
        0x000114f8:    28078f80    ...(    DCD    671584128
        0x000114fc:    990ed208    ....    DCD    2567885320
        0x00011500:    49af008a    ...I    DCD    1236205706
        0x00011504:    31a05889    .X.1    DCD    832592009
        0x00011508:    07497949    IyI.    DCD    122255689
        0x0001150c:    2500d500    ...%    DCD    620811520
        0x00011510:    6809990d    ...h    DCD    1745459469
        0x00011514:    d01f2900    .)..    DCD    3491703040
        0x00011518:    462a2100    .!*F    DCD    1177166080
        0x0001151c:    d077438a    .Cw.    DCD    3497477002
        0x00011520:    d2762807    .(v.    DCD    3530958855
        0x00011524:    48ae49af    .I.H    DCD    1219381679
        0x00011528:    90094788    .G..    DCD    2416527240
        0x0001152c:    90082000    . ..    DCD    2416451584
        0x00011530:    8f809811    ....    DCD    2407569425
        0x00011534:    48a20081    ...H    DCD    1218576513
        0x00011538:    30a05840    @X.0    DCD    815814720
        0x0001153c:    07c07940    @y..    DCD    130054464
        0x00011540:    90070fc0    ....    DCD    2416381888
        0x00011544:    6806980d    ...h    DCD    1745262605
        0x00011548:    d0092e00    ....    DCD    3490262528
        0x0001154c:    6830990d    ..0h    DCD    1748015373
        0x00011550:    28006008    .`.(    DCD    671113224
        0x00011554:    e003d002    ....    DCD    3758346242
        0x00011558:    e7de2101    .!..    DCD    3890094337
        0x0001155c:    6048990d    ..H`    DCD    1615370509
        0x00011560:    d07d2e00    ..}.    DCD    3497864704
        0x00011564:    90062000    . ..    DCD    2416320512
        0x00011568:    90039812    ....    DCD    2416154642
        0x0001156c:    9004a806    ....    DCD    2416224262
        0x00011570:    9b099f07    ....    DCD    2601099015
        0x00011574:    25089705    ...%    DCD    621319941
        0x00011578:    20005f75    u_.     DCD    536895349
        0x0001157c:    90019002    ....    DCD    2416021506
        0x00011580:    90002001    . ..    DCD    2415927297
        0x00011584:    8e429811    ..B.    DCD    2386728977
        0x00011588:    b2d44684    .F..    DCD    3000256132
        0x0001158c:    46292001    . )F    DCD    1177100289
        0x00011590:    b2893109    .1..    DCD    2995335433
        0x00011594:    2f009f05    .../    DCD    788569861
        0x00011598:    1d09d001    ....    DCD    487182337
        0x0001159c:    00c9b289    ....    DCD    13218441
        0x000115a0:    b2893108    .1..    DCD    2995335432
        0x000115a4:    8e3f4667    gF?.    DCD    2386511463
        0x000115a8:    d205428f    .B..    DCD    3523560079
        0x000115ac:    05793f50    P?y.    DCD    91832144
        0x000115b0:    42a20e0c    ...B    DCD    1117916684
        0x000115b4:    b2d4d200    ....    DCD    3000291840
        0x000115b8:    dd0142a5    .B..    DCD    3707847333
        0x000115bc:    00640864    d.d.    DCD    6555748
        0x000115c0:    1a6f4621    !Fo.    DCD    443500065
        0x000115c4:    42971c62    b..B    DCD    1117199458
        0x000115c8:    1909db05    ....    DCD    420076293
        0x000115cc:    b2c01c40    @...    DCD    2998934592
        0x000115d0:    42971a6f    o..B    DCD    1117198959
        0x000115d4:    4298daf9    ...B    DCD    1117313785
        0x000115d8:    2500d901    ...%    DCD    620812545
        0x000115dc:    9904e034    4...    DCD    2567233588
        0x000115e0:    4f817008    .p.O    DCD    1333882888
        0x000115e4:    487e4981    .I~H    DCD    1216235905
        0x000115e8:    46014788    .G.F    DCD    1174488968
        0x000115ec:    28009800    ...(    DCD    671127552
        0x000115f0:    2000d012    ...     DCD    536924178
        0x000115f4:    7ab09000    ...z    DCD    2058391552
        0x000115f8:    0f800780    ....    DCD    260048768
        0x000115fc:    d0092801    .(..    DCD    3490260993
        0x00011600:    72882002    . .r    DCD    1921523714
        0x00011604:    88c268f0    .h..    DCD    2294442224
        0x00011608:    88809202    ....    DCD    2290127362
        0x0001160c:    e0099001    ....    DCD    3758723073
        0x00011610:    e058e062    b.X.    DCD    3763920994
        0x00011614:    e7f42001    . ..    DCD    3891535873
        0x00011618:    72882001    . .r    DCD    1921523713
        0x0001161c:    19009802    ....    DCD    419469314
        0x00011620:    9002b280    ....    DCD    2416095872
        0x00011624:    dd0142a5    .B..    DCD    3707847333
        0x00011628:    e00072cc    .r..    DCD    3758125772
        0x0001162c:    980172cd    .r..    DCD    2550231757
        0x00011630:    980280c8    ....    DCD    2550300872
        0x00011634:    1b288108    ..(.    DCD    455639304
        0x00011638:    2d00b205    ...-    DCD    755020293
        0x0001163c:    2201dc22    ".."    DCD    570547234
        0x00011640:    98039b05    ....    DCD    2550373125
        0x00011644:    250147b8    .G.%    DCD    620840888
        0x00011648:    d0202d00    .- .    DCD    3491769600
        0x0001164c:    7e004668    hF.~    DCD    2113947240
        0x00011650:    18099908    ....    DCD    403282184
        0x00011654:    9108b2c9    ....    DCD    2433266377
        0x00011658:    1a089909    ....    DCD    436771081
        0x0001165c:    e000b280    ....    DCD    3758142080
        0x00011660:    9009e035    5...    DCD    2416566325
        0x00011664:    69c09812    ...i    DCD    1774229522
        0x00011668:    d01a2800    .(..    DCD    3491375104
        0x0001166c:    6a009812    ...j    DCD    1778423826
        0x00011670:    98126006    .`..    DCD    2551341062
        0x00011674:    20006206    .b.     DCD    536896006
        0x00011678:    98086030    0`..    DCD    2550685744
        0x0001167c:    d913280a    .(..    DCD    3641911306
        0x00011680:    e0242500    .%$.    DCD    3760465152
        0x00011684:    9b052200    ."..    DCD    2600804864
        0x00011688:    47b89803    ...G    DCD    1203279875
        0x0001168c:    980de7aa    ....    DCD    2551048106
        0x00011690:    28006800    .h.(    DCD    671115264
        0x00011694:    990dd101    ....    DCD    2567819521
        0x00011698:    6030604e    N`0`    DCD    1613783118
        0x0001169c:    6006980d    ...`    DCD    1611044877
        0x000116a0:    9812e015    ....    DCD    2551373845
        0x000116a4:    e7e461c6    .a..    DCD    3890504134
        0x000116a8:    6806980d    ...h    DCD    1745262605
        0x000116ac:    d0062e00    ....    DCD    3490065920
        0x000116b0:    6830990d    ..0h    DCD    1748015373
        0x000116b4:    28006008    .`.(    DCD    671113224
        0x000116b8:    990dd101    ....    DCD    2567819521
        0x000116bc:    2e006048    H`..    DCD    771776584
        0x000116c0:    e74fd000    ..O.    DCD    3880767488
        0x000116c4:    4a4ae003    ..JJ    DCD    1246420995
        0x000116c8:    980b990d    ....    DCD    2550896909
        0x000116cc:    2d004790    .G.-    DCD    754993040
        0x000116d0:    4948d002    ..HI    DCD    1229508610
        0x000116d4:    4788980d    ...G    DCD    1200134157
        0x000116d8:    6800980b    ...h    DCD    1744869387
        0x000116dc:    d0032800    .(..    DCD    3489867776
        0x000116e0:    28002000    . .(    DCD    671096832
        0x000116e4:    e04bd002    ..K.    DCD    3763064834
        0x000116e8:    e7fa2001    . ..    DCD    3891929089
        0x000116ec:    8f809811    ....    DCD    2407569425
        0x000116f0:    d2452807    .(E.    DCD    3527747591
        0x000116f4:    30809812    ...0    DCD    813733906
        0x000116f8:    280478c0    .x.(    DCD    671381696
        0x000116fc:    493bd140    @.;I    DCD    1228656960
        0x00011700:    47884837    7H.G    DCD    1200113719
        0x00011704:    d03b2800    .(;.    DCD    3493537792
        0x00011708:    21008882    ...!    DCD    553683074
        0x0001170c:    00d24b2b    +K..    DCD    13781803
        0x00011710:    855118d2    ..Q.    DCD    2236684498
        0x00011714:    00c98881    ....    DCD    13207681
        0x00011718:    8d8a18c9    ....    DCD    2374637769
        0x0001171c:    0c640454    T.d.    DCD    207881300
        0x00011720:    858c2200    ."..    DCD    2240553472
        0x00011724:    00c98881    ....    DCD    13207681
        0x00011728:    8d0c18c9    ....    DCD    2366380233
        0x0001172c:    850cb2e4    ....    DCD    2232201956
        0x00011730:    24018881    ...$    DCD    604080257
        0x00011734:    18c900c9    ....    DCD    415826121
        0x00011738:    08ad8d0d    ....    DCD    145591565
        0x0001173c:    432500ad    ..%C    DCD    1126498477
        0x00011740:    8881850d    ....    DCD    2290189581
        0x00011744:    18c900c9    ....    DCD    415826121
        0x00011748:    0be48ccc    ....    DCD    199527628
        0x0001174c:    84cc03e4    ....    DCD    2227962852
        0x00011750:    8884990b    ....    DCD    2290391307
        0x00011754:    00e56849    Ih..    DCD    15034441
        0x00011758:    88894c1f    .L..    DCD    2290699295
        0x0001175c:    00c9192c    ,...    DCD    13179180
        0x00011760:    8ccb18c9    ....    DCD    2362120393
        0x00011764:    03db0bdb    ....    DCD    64687067
        0x00011768:    84cb4323    #C..    DCD    2227913507
        0x0001176c:    6809990b    ...h    DCD    1745459467
        0x00011770:    d00d2900    .)..    DCD    3490523392
        0x00011774:    6849990b    ..Ih    DCD    1749653771
        0x00011778:    990b6008    .`..    DCD    2567659528
        0x0001177c:    60026048    H`.`    DCD    1610768456
        0x00011780:    6800980b    ...h    DCD    1744869387
        0x00011784:    d0062800    .(..    DCD    3490064384
        0x00011788:    29002100    .!.)    DCD    687874304
        0x0001178c:    e03cd005    ..<.    DCD    3762081797
        0x00011790:    6008990b    ...`    DCD    1611176203
        0x00011794:    2101e7f1    ...!    DCD    553773041
        0x00011798:    2800e7f7    ...(    DCD    671148023
        0x0001179c:    4a07d00a    ...J    DCD    1242025994
        0x000117a0:    00c98881    ....    DCD    13207681
        0x000117a4:    8cc91889    ....    DCD    2361989257
        0x000117a8:    29000bc9    ...)    DCD    687868873
        0x000117ac:    6800d024    $..h    DCD    1744883748
        0x000117b0:    d1f52800    .(..    DCD    3522504704
        0x000117b4:    d0262800    .(&.    DCD    3492161536
        0x000117b8:    0000e027    '...    DCD    57383
        0x000117bc:    50804440    @D.P    DCD    1350583360
        0x000117c0:    20006160    `a.     DCD    536895840
        0x000117c4:    0000af81    ....    DCD    44929
        0x000117c8:    00003817    .8..    DCD    14359
        0x000117cc:    00010341    A...    DCD    66369
        0x000117d0:    50804000    .@.P    DCD    1350582272
        0x000117d4:    000093a5    ....    DCD    37797
        0x000117d8:    00000466    f...    DCD    1126
        0x000117dc:    00003967    g9..    DCD    14695
        0x000117e0:    200061e4    .a.     DCD    536895972
        0x000117e4:    000039bb    .9..    DCD    14779
        0x000117e8:    00010011    ....    DCD    65553
        0x000117ec:    00003945    E9..    DCD    14661
        0x000117f0:    0000390f    .9..    DCD    14607
        0x000117f4:    000038b5    .8..    DCD    14517
        0x000117f8:    00ca8881    ....    DCD    13273217
        0x000117fc:    18514907    .IQ.    DCD    407980295
        0x00011800:    910ab289    ....    DCD    2433397385
        0x00011804:    2000e7d6    ...     DCD    536930262
        0x00011808:    990a900a    ....    DCD    2567606282
        0x0001180c:    225a980e    ..Z"    DCD    576362510
        0x00011810:    4a034350    PC.J    DCD    1241727824
        0x00011814:    84811880    ....    DCD    2223052928
        0x00011818:    bdf0b013    ....    DCD    3186667539
        0x0001181c:    00000466    f...    DCD    1126
        0x00011820:    50804080    .@.P    DCD    1350582400
        0x00011824:    2300b410    ...#    DCD    587248656
        0x00011828:    46022114    .!.F    DCD    1174544660
        0x0001182c:    4911434a    JC.I    DCD    1225868106
        0x00011830:    6809247d    }$.h    DCD    1745429629
        0x00011834:    42a10224    $..B    DCD    1117848100
        0x00011838:    1b09d902    ....    DCD    453630210
        0x0001183c:    e0002301    .#..    DCD    3758105345
        0x00011840:    43481a61    a.HC    DCD    1128798817
        0x00011844:    18410081    ..A.    DCD    406913153
        0x00011848:    0c0c0a88    ....    DCD    202115720
        0x0001184c:    0c4c1900    ..L.    DCD    206313728
        0x00011850:    0d4c1900    ..L.    DCD    223090944
        0x00011854:    0e4c1900    ..L.    DCD    239868160
        0x00011858:    0fc91900    ....    DCD    264837376
        0x0001185c:    08c01840    @...    DCD    146806848
        0x00011860:    d0012b00    .+..    DCD    3489737472
        0x00011864:    e0011810    ....    DCD    3758168080
        0x00011868:    1e401a10    ..@.    DCD    507517456
        0x0001186c:    bc101e40    @...    DCD    3155172928
        0x00011870:    00004770    pG..    DCD    18288
        0x00011874:    20006054    T`.     DCD    536895572
        0x00011878:    2300b4f0    ...#    DCD    587248880
        0x0001187c:    6be54c18    .L.k    DCD    1810189336
        0x00011880:    227d4918    .I}"    DCD    578636056
        0x00011884:    02126809    .h..    DCD    34760713
        0x00011888:    d3024291    .B..    DCD    3540140689
        0x0001188c:    23011a8a    ...#    DCD    587274890
        0x00011890:    1a52e000    ..R.    DCD    441638912
        0x00011894:    43564606    .FVC    DCD    1129727494
        0x00011898:    435113f2    ..QC    DCD    1129386994
        0x0001189c:    261e1a71    q..&    DCD    639507057
        0x000118a0:    104f434e    NCO.    DCD    273630030
        0x000118a4:    118f19f6    ....    DCD    294590966
        0x000118a8:    124919f6    ..I.    DCD    306780662
        0x000118ac:    13ce1871    q...    DCD    332273777
        0x000118b0:    d0012b00    .+..    DCD    3489737472
        0x000118b4:    e0001a80    ....    DCD    3758103168
        0x000118b8:    19421810    ..B.    DCD    423761936
        0x000118bc:    008d0891    ....    DCD    9242769
        0x000118c0:    2b001b52    R..+    DCD    721427282
        0x000118c4:    0143d004    ..C.    DCD    21221380
        0x000118c8:    18401a18    ..@.    DCD    406854168
        0x000118cc:    e0031b80    ....    DCD    3758300032
        0x000118d0:    1a180143    C...    DCD    437780803
        0x000118d4:    19801840    @...    DCD    427825216
        0x000118d8:    bcf063e2    .c..    DCD    3169870818
        0x000118dc:    00004770    pG..    DCD    18288
        0x000118e0:    20006780    .g.     DCD    536897408
        0x000118e4:    20006054    T`.     DCD    536895572
    am_ble_buffer_patch_data_b0
        0x000118e8:    071c2200    ."..    DCD    119284224
        0x000118ec:    00003fff    .?..    DCD    16383
        0x000118f0:    0007f584    ....    DCD    521604
        0x000118f4:    0007fd73    s...    DCD    523635
        0x000118f8:    00080575    u...    DCD    525685
        0x000118fc:    00080b17    ....    DCD    527127
        0x00011900:    000815a9    ....    DCD    529833
        0x00011904:    00081b18    ....    DCD    531224
        0x00011908:    0008232d    -#..    DCD    533293
        0x0001190c:    00082cc5    .,..    DCD    535749
        0x00011910:    000832f4    .2..    DCD    537332
        0x00011914:    000839ff    .9..    DCD    539135
        0x00011918:    00084364    dC..    DCD    541540
        0x0001191c:    000849f9    .I..    DCD    543225
        0x00011920:    000851ee    .Q..    DCD    545262
        0x00011924:    00085c54    T\..    DCD    547924
        0x00011928:    00000000    ....    DCD    0
        0x0001192c:    00000000    ....    DCD    0
        0x00011930:    f7ec2021    ! ..    DCD    4159447073
        0x00011934:    2800fcf9    ...(    DCD    671153401
        0x00011938:    2000d00a    ...     DCD    536924170
        0x0001193c:    46039000    ...F    DCD    1174638592
        0x00011940:    46014602    .F.F    DCD    1174488578
        0x00011944:    20216824    $h!     DCD    539060260
        0x00011948:    47a03435    54.G    DCD    1201681461
        0x0001194c:    bd38bf00    ..8.    DCD    3174612736
        0x00011950:    fefbf7ef    ....    DCD    4277925871
        0x00011954:    2800490f    .I.(    DCD    671107343
        0x00011958:    7808d002    ...x    DCD    2013843458
        0x0001195c:    d0122801    .(..    DCD    3490850817
        0x00011960:    28027808    .x.(    DCD    671250440
        0x00011964:    2800d00f    ...(    DCD    671141903
        0x00011968:    2801d006    ...(    DCD    671207430
        0x0001196c:    f000d004    ....    DCD    4026585092
        0x00011970:    20006e0c    .n.     DCD    536899084
        0x00011974:    04000000    ....    DCD    67108864
        0x00011978:    20006e1c    .n.     DCD    536899100
        0x0001197c:    47084900    .I.G    DCD    1191725312
        0x00011980:    20004301    .C.     DCD    536888065
        0x00011984:    7cca4e23    #N.|    DCD    2093633059
        0x00011988:    6ac96875    uh.j    DCD    1791584373
        0x0001198c:    d01d2a00    .*..    DCD    3491572224
        0x00011990:    0212227d    }"..    DCD    34742909
        0x00011994:    d3024291    .B..    DCD    3540140689
        0x00011998:    20011a8a    ...     DCD    536943242
        0x0001199c:    1a52e000    ..R.    DCD    441638912
        0x000119a0:    d0052800    .(..    DCD    3489998848
        0x000119a4:    43504620     FPC    DCD    1129334304
        0x000119a8:    fa02f7ea    ....    DCD    4194498538
        0x000119ac:    e0041a20     ...    DCD    3758365216
        0x000119b0:    f9def7ea    ....    DCD    4192139242
        0x000119b4:    02011900    ....    DCD    33626368
        0x000119b8:    186900c2    ..i.    DCD    409534658
        0x000119bc:    18891812    ....    DCD    411637778
        0x000119c0:    02530a4a    J.S.    DCD    38996554
        0x000119c4:    60711ac9    ..q`    DCD    1618025161
        0x000119c8:    4348211e    .!HC    DCD    1128800542
        0x000119cc:    bd701880    ..p.    DCD    3178240128
        0x000119d0:    2000682c    ,h.     DCD    536897580
        0x000119d4:    20006e0c    .n.     DCD    536899084
        0x000119d8:    47084900    .I.G    DCD    1191725312
        0x000119dc:    20004331    1C.     DCD    536888113
        0x000119e0:    6ac07cc1    .|.j    DCD    1790999745
        0x000119e4:    d0152900    .)..    DCD    3491047680
        0x000119e8:    0209217d    }!..    DCD    34152829
        0x000119ec:    d3024288    .B..    DCD    3540140680
        0x000119f0:    2004d502    ...     DCD    537187586
        0x000119f4:    e0347060    `p4.    DCD    3761533024
        0x000119f8:    f0066928    (i..    DCD    4026951976
        0x000119fc:    2800f8b5    ...(    DCD    671152309
        0x00011a00:    2002d002    ...     DCD    537055234
        0x00011a04:    e02c7060    `p,.    DCD    3761008736
        0x00011a08:    f0049803    ....    DCD    4026832899
        0x00011a0c:    2804fa1f    ...(    DCD    671414815
        0x00011a10:    4668d107    ..hF    DCD    1181274375
        0x00011a14:    20027901    .y.     DCD    537032961
        0x00011a18:    d0054388    .C..    DCD    3490005896
        0x00011a1c:    28002000    . .(    DCD    671096832
        0x00011a20:    bf00d004    ....    DCD    3204501508
        0x00011a24:    e01c2000    . ..    DCD    3759939584
        0x00011a28:    e7f82001    . ..    DCD    3891798017
        0x00011a2c:    900088f0    ....    DCD    2415954160
        0x00011a30:    00000021    !...    DCD    33
        0x00011a34:    00000000    ....    DCD    0
        0x00011a38:    00000001    ....    DCD    1
        0x00011a3c:    00000000    ....    DCD    0
        0x00011a40:    ffffffff    ....    DCD    4294967295
        0x00011a44:    000003ff    ....    DCD    1023
        0x00011a48:    1f3c00ff    ..<.    DCD    524026111
        0x00011a4c:    00000000    ....    DCD    0
        0x00011a50:    00002001    . ..    DCD    8193
        0x00011a54:    0000848d    ....    DCD    33933
        0x00011a58:    00002002    . ..    DCD    8194
        0x00011a5c:    00007dcd    .}..    DCD    32205
        0x00011a60:    00002003    . ..    DCD    8195
        0x00011a64:    00007ed1    .~..    DCD    32465
        0x00011a68:    00002005    . ..    DCD    8197
        0x00011a6c:    000084fd    ....    DCD    34045
        0x00011a70:    30286928    (i(0    DCD    807954728
        0x00011a74:    8d013040    @0..    DCD    2365665344
        0x00011a78:    1a409800    ..@.    DCD    440440832
        0x00011a7c:    b280492a    *I..    DCD    2994751786
        0x00011a80:    bf00bf00    ....    DCD    3204497152
        0x00011a84:    22054628    (F."    DCD    570770984
        0x00011a88:    30631c71    q.c0    DCD    811801713
        0x00011a8c:    fdacf7f3    ....    DCD    4255971315
        0x00011a90:    99006928    (i..    DCD    2566940968
        0x00011a94:    fbdff001    ....    DCD    4225757185
        0x00011a98:    70602001    . `p    DCD    1885347841
        0x00011a9c:    2003e001    ...     DCD    537124865
        0x00011aa0:    2f007060    `p./    DCD    788557920
        0x00011aa4:    7860d139    9.`x    DCD    2019610937
        0x00011aa8:    d2362806    .(6.    DCD    3526764550
        0x00011aac:    44790001    ..yD    DCD    1148780545
        0x00011ab0:    bf00bf00    ....    DCD    3204497152
        0x00011ab4:    22568931    1.V"    DCD    576096561
        0x00011ab8:    46315351    QS1F    DCD    1177637713
        0x00011abc:    fe3ef001    ..>.    DCD    4265537537
        0x00011ac0:    70602001    . `p    DCD    1885347841
        0x00011ac4:    2003e001    ...     DCD    537124865
        0x00011ac8:    2f007060    `p./    DCD    788557920
        0x00011acc:    7860d167    g.`x    DCD    2019610983
        0x00011ad0:    d2642806    .(d.    DCD    3529779206
        0x00011ad4:    44790001    ..yD    DCD    1148780545
        0x00011ad8:    18497909    .yI.    DCD    407468297
        0x00011adc:    185f448f    .D_.    DCD    408896655
        0x00011ae0:    1207020c    ....    DCD    302449164
        0x00011ae4:    98052128    (!..    DCD    2550473000
        0x00011ae8:    fc54f7ff    ..T.    DCD    4233426943
        0x00011aec:    213de057    W.=!    DCD    557703255
        0x00011af0:    20006878    xh.     DCD    536897656
        0x00011af4:    20006dac    .m.     DCD    536898988
        0x00011af8:    50800040    @..P    DCD    1350565952
        0x00011afc:    00002017    . ..    DCD    8215
        0x00011b00:    00000801    ....    DCD    2049
        0x00011b04:    5080407e    ~@.P    DCD    1350582398
        0x00011b08:    200068d8    .h.     DCD    536897752
        0x00011b0c:    47084900    .I.G    DCD    1191725312
        0x00011b10:    20004391    .C.     DCD    536888209
        0x00011b14:    78c34311    .C.x    DCD    2026062609
        0x00011b18:    021b7882    .x..    DCD    35354754
        0x00011b1c:    0412431a    .C..    DCD    68305690
        0x00011b20:    4c1a430a    .C.L    DCD    1276789514
        0x00011b24:    79426062    b`By    DCD    2034393186
        0x00011b28:    02127901    .y..    DCD    34765057
        0x00011b2c:    79c34311    .C.y    DCD    2042839825
        0x00011b30:    d01b2e13    ....    DCD    3491442195
        0x00011b34:    550e21a1    .!.U    DCD    1426989473
        0x00011b38:    46692202    ."iF    DCD    1181295106
        0x00011b3c:    724e720a    .rNr    DCD    1917743626
        0x00011b40:    4308210f    .!.C    DCD    1124606223
        0x00011b44:    46019001    ...F    DCD    1174507521
        0x00011b48:    f7fe4638    8F..    DCD    4160636472
        0x00011b4c:    4669f909    ..iF    DCD    1181350153
        0x00011b50:    b2e87a0a    .z..    DCD    3001580042
        0x00011b54:    f7ffa902    ....    DCD    4160727298
        0x00011b58:    3440ff55    U.@4    DCD    876674901
        0x00011b5c:    8aa220ff    . ..    DCD    2325881087
        0x00011b60:    30034639    9F.0    DCD    805520953
        0x00011b64:    bf00bf00    ....    DCD    3204497152
        0x00011b68:    bdf0b003    ....    DCD    3186667523
        0x00011b6c:    21a12216    .".!    DCD    564208150
        0x00011b70:    00808820     ...    DCD    8423456
        0x00011b74:    30405838    8X@0    DCD    809523256
        0x00011b78:    07c07f00    ....    DCD    130055936
        0x00011b7c:    2500d005    ...%    DCD    620810245
        0x00011b80:    8820e02f    /. .    DCD    2283855919
        0x00011b84:    fd22f008    ..".    DCD    4246925320
        0x00011b88:    4668e02b    +.hF    DCD    1181278251
        0x00011b8c:    20017a01    .z.     DCD    536967681
        0x00011b90:    d0034388    .C..    DCD    3489874824
        0x00011b94:    28002000    . .(    DCD    671096832
        0x00011b98:    e001d108    ....    DCD    3758215432
        0x00011b9c:    e7fa2001    . ..    DCD    3891929089
        0x00011ba0:    43882004    . .C    DCD    1132994564
        0x00011ba4:    2000d004    ...     DCD    536924164
        0x00011ba8:    d0032800    .(..    DCD    3489867776
        0x00011bac:    e018253a    :%..    DCD    3759678778
        0x00011bb0:    83814311    .C..    DCD    2206286609
        0x00011bb4:    4630210f    .!0F    DCD    1177559311
        0x00011bb8:    fb12f7fc    ....    DCD    4212324348
        0x00011bbc:    f0034628    (F..    DCD    4026746408
        0x00011bc0:    2804f885    ...(    DCD    671414405
        0x00011bc4:    7861d103    ..ax    DCD    2019676419
        0x00011bc8:    f7fe4628    (F..    DCD    4160636456
        0x00011bcc:    2000fd83    ...     DCD    536935811
        0x00011bd0:    0000bd70    p...    DCD    48496
        0x00011bd4:    20006964    di.     DCD    536897892
        0x00011bd8:    4c02b430    0..L    DCD    1275245616
        0x00011bdc:    bc3046a4    .F0.    DCD    3157280420
        0x00011be0:    00004760    `G..    DCD    18272
        0x00011be4:    20004439    9D.     DCD    536888377
        0x00011be8:    4601fae9    ...F    DCD    1174534889
        0x00011bec:    98039000    ....    DCD    2550370304
        0x00011bf0:    80688820     .h.    DCD    2154334240
        0x00011bf4:    f0014628    (F..    DCD    4026615336
        0x00011bf8:    2000f8b5    ...     DCD    536934581
        0x00011bfc:    0000bdf8    ....    DCD    48632
        0x00011c00:    00002015    . ..    DCD    8213
        0x00011c04:    00000801    ....    DCD    2049
        0x00011c08:    20006964    di.     DCD    536897892
        0x00011c0c:    b083b5f0    ....    DCD    2961421808
        0x00011c10:    24004618    .F.$    DCD    603997720
        0x00011c14:    7ae94d18    .M.z    DCD    2062109976
        0x00011c18:    d0002900    .)..    DCD    3489671424
        0x00011c1c:    46212400    .$!F    DCD    1176577024
        0x00011c20:    fe42f00a    ..B.    DCD    4265799690
        0x00011c24:    d1242c00    .,$.    DCD    3508808704
        0x00011c28:    96012601    .&..    DCD    2516657665
        0x00011c2c:    aa024c13    .L..    DCD    2852277267
        0x00011c30:    4604fdf9    ...F    DCD    1174732281
        0x00011c34:    4630e003    ..0F    DCD    1177608195
        0x00011c38:    fe5cf00b    ..\.    DCD    4267503627
        0x00011c3c:    46214604    .F!F    DCD    1176585732
        0x00011c40:    f00a4638    8F..    DCD    4027205176
        0x00011c44:    2000ffa3    ...     DCD    536936355
        0x00011c48:    0000bdf8    ....    DCD    48632
        0x00011c4c:    0000202e    . ..    DCD    8238
        0x00011c50:    ffffdfd9    ....    DCD    4294959065
        0x00011c54:    200068f8    .h.     DCD    536897784
        0x00011c58:    b082b510    ....    DCD    2961356048
        0x00011c5c:    461c460a    .F.F    DCD    1176258058
        0x00011c60:    480d2100    .!.H    DCD    1208819968
        0x00011c64:    2b007ac3    .z.+    DCD    721451715
        0x00011c68:    bf00d000    ....    DCD    3204501504
        0x00011c6c:    d10c2100    .!..    DCD    3507233024
        0x00011c70:    fe3af7ee    ..:.    DCD    4265277422
        0x00011c74:    281678a0    .x.(    DCD    672561312
        0x00011c78:    2019d302    ...     DCD    538563330
        0x00011c7c:    e0137020     p..    DCD    3759370272
        0x00011c80:    4a0c210c    .!.J    DCD    1242308876
        0x00011c84:    5c114348    HC.\    DCD    1544635208
        0x00011c88:    d00242b1    .B..    DCD    3489809073
        0x00011c8c:    70202019    .  p    DCD    1881153561
        0x00011c90:    2100e00a    ...!    DCD    553705482
        0x00011c94:    1c6d7021    !pm.    DCD    476934177
        0x00011c98:    1e761880    ..v.    DCD    511056000
        0x00011c9c:    6883b2ad    ...h    DCD    1753461421
        0x00011ca0:    1ca2b2f1    ....    DCD    480424689
        0x00011ca4:    47984628    (F.G    DCD    1201161768
        0x00011ca8:    bd704620     Fp.    DCD    3178251808
        0x00011cac:    50804480    .D.P    DCD    1350583424
        0x00011cb0:    6b114a08    .J.k    DCD    1796295176
        0x00011cb4:    4b086b52    Rk.K    DCD    1258842962
        0x00011cb8:    d9014298    .B..    DCD    3640738456
        0x00011cbc:    47702000    . pG    DCD    1198530560
        0x00011cc0:    43424341    ACBC    DCD    1128416065
        0x00011cc4:    0c900989    ....    DCD    210766217
        0x00011cc8:    49041808    ...I    DCD    1225005064
        0x00011ccc:    d9f64288    .B..    DCD    3656794760
        0x00011cd0:    47702000    . pG    DCD    1198530560
        0x00011cd4:    20007ec0    .~.     DCD    536903360
        0x00011cd8:    001e8480    ....    DCD    2000000
        0x00011cdc:    03938700    ....    DCD    60000000
        0x00011ce0:    4913b410    ...I    DCD    1226028048
        0x00011ce4:    4a136b89    .k.J    DCD    1242786697
        0x00011ce8:    d9024290    .B..    DCD    3640803984
        0x00011cec:    2000bc10    ...     DCD    536919056
        0x00011cf0:    4a114770    pG.J    DCD    1242646384
        0x00011cf4:    6813247d    }$.h    DCD    1746084989
        0x00011cf8:    02242214    ."$.    DCD    35922452
        0x00011cfc:    42a34342    BC.B    DCD    1117995842
        0x00011d00:    4341d903    ..AC    DCD    1128388867
        0x00011d04:    18100c08    ....    DCD    403704840
        0x00011d08:    4341e002    ..AC    DCD    1128390658
        0x00011d0c:    1a100c08    ....    DCD    437259272
        0x00011d10:    4288490a    .I.B    DCD    1116227850
        0x00011d14:    2000d902    ...     DCD    536926466
        0x00011d18:    4770bc10    ..pG    DCD    1198570512
        0x00011d1c:    d0002800    .(..    DCD    3489671168
        0x00011d20:    42a31e40    @..B    DCD    1117986368
        0x00011d24:    2800d2f8    ...(    DCD    671142648
        0x00011d28:    bc10d0f6    ....    DCD    3155218678
        0x00011d2c:    47701e40    @.pG    DCD    1198530112
        0x00011d30:    20007ec0    .~.     DCD    536903360
        0x00011d34:    000186a0    ....    DCD    100000
        0x00011d38:    20006858    Xh.     DCD    536897624
        0x00011d3c:    001e8480    ....    DCD    2000000
        0x00011d40:    f3efb4f0    ....    DCD    4092572912
        0x00011d44:    b2cc8110    ....    DCD    2999746832
        0x00011d48:    f3812101    .!..    DCD    4085326081
        0x00011d4c:    78428810    ..Bx    DCD    2017626128
        0x00011d50:    02127801    .x..    DCD    34764801
        0x00011d54:    78c34311    .C.x    DCD    2026062609
        0x00011d58:    021b7882    .x..    DCD    35354754
        0x00011d5c:    0412431a    .C..    DCD    68305690
        0x00011d60:    4d1d430a    .C.M    DCD    1293763338
        0x00011d64:    7942606a    j`By    DCD    2034393194
        0x00011d68:    02127901    .y..    DCD    34765057
        0x00011d6c:    79c34311    .C.y    DCD    2042839825
        0x00011d70:    021b7982    .y..    DCD    35355010
        0x00011d74:    0412431a    .C..    DCD    68305690
        0x00011d78:    60aa430a    .C.`    DCD    1621771018
        0x00011d7c:    7a017a42    Bz.z    DCD    2046917186
        0x00011d80:    43110212    ...C    DCD    1125188114
        0x00011d84:    7a827ac3    .z.z    DCD    2055371459
        0x00011d88:    431a021b    ...C    DCD    1125777947
        0x00011d8c:    430a0412    ...C    DCD    1124729874
        0x00011d90:    7b4260ea    .`B{    DCD    2067947754
        0x00011d94:    02127b01    .{..    DCD    34765569
        0x00011d98:    7bc34311    .C.{    DCD    2076394257
        0x00011d9c:    021b7b82    .{..    DCD    35355522
        0x00011da0:    0412431a    .C..    DCD    68305690
        0x00011da4:    612a430a    .C*a    DCD    1630159626
        0x00011da8:    23103010    .0.#    DCD    588263440
        0x00011dac:    21004a0b    .J.!    DCD    553667083
        0x00011db0:    54565c46    F\VT    DCD    1414945862
        0x00011db4:    b2891c49    I...    DCD    2995330121
        0x00011db8:    d3f94299    .B..    DCD    3556328089
        0x00011dbc:    6168206e    n ha    DCD    1634213998
        0x00011dc0:    60282001    . (`    DCD    1613242369
        0x00011dc4:    21014806    .H.!    DCD    553732102
        0x00011dc8:    f3847401    .t..    DCD    4085543937
        0x00011dcc:    bcf08810    ....    DCD    3169880080
        0x00011dd0:    20104904    .I.     DCD    537938180
        0x00011dd4:    00004708    .G..    DCD    18184
        0x00011dd8:    508000c0    ...P    DCD    1350566080
        0x00011ddc:    5080406e    n@.P    DCD    1350582382
        0x00011de0:    200068d8    .h.     DCD    536897752
        0x00011de4:    000159a1    .Y..    DCD    88481
        0x00011de8:    b085b5ff    ....    DCD    2961552895
        0x00011dec:    461f460e    .F.F    DCD    1176454670
        0x00011df0:    90022000    . ..    DCD    2416058368
        0x00011df4:    46304974    tI0F    DCD    1177569652
        0x00011df8:    46014788    .G.F    DCD    1174488968
        0x00011dfc:    98059001    ....    DCD    2550501377
        0x00011e00:    00804a72    rJ..    DCD    8407666
        0x00011e04:    58149004    ...X    DCD    1477742596
        0x00011e08:    35a04625    %F.5    DCD    899696165
        0x00011e0c:    0718796b    ky..    DCD    119044459
        0x00011e10:    78e8d507    ...x    DCD    2028524807
        0x00011e14:    d004280d    .(..    DCD    3489933325
        0x00011e18:    213d4a6d    mJ=!    DCD    557664877
        0x00011e1c:    47909805    ...G    DCD    1200658437
        0x00011e20:    2001e0ce    ...     DCD    536993998
        0x00011e24:    d00d4388    .C..    DCD    3490530184
        0x00011e28:    28002000    . .(    DCD    671096832
        0x00011e2c:    78e8d074    t..x    DCD    2028523636
        0x00011e30:    92034a68    hJ..    DCD    2449689192
        0x00011e34:    d0702805    .(p.    DCD    3497011205
        0x00011e38:    2801dc06    ...(    DCD    671210502
        0x00011e3c:    2804d01b    ...(    DCD    671404059
        0x00011e40:    e074d16a    j.t.    DCD    3765752170
        0x00011e44:    e7f02001    . ..    DCD    3891273729
        0x00011e48:    d02d2807    .(-.    DCD    3492620295
        0x00011e4c:    d163280d    .(c.    DCD    3512936461
        0x00011e50:    d46106d8    ..a.    DCD    3563128536
        0x00011e54:    716c2400    .$lq    DCD    1902912512
        0x00011e58:    4b5f221a    ."_K    DCD    1264525850
        0x00011e5c:    98052100    .!..    DCD    2550472960
        0x00011e60:    46684798    .GhF    DCD    1181239192
        0x00011e64:    08497901    .yI.    DCD    139032833
        0x00011e68:    91010049    I...    DCD    2432761929
        0x00011e6c:    46304a5b    [J0F    DCD    1177569883
        0x00011e70:    70ec4790    .G.p    DCD    1894533008
        0x00011e74:    7878e0a4    ..xx    DCD    2021187748
        0x00011e78:    d14d280e    .(M.    DCD    3511494670
        0x00011e7c:    4a5820ff    . XJ    DCD    1247289599
        0x00011e80:    30034631    1F.0    DCD    805520945
        0x00011e84:    46224790    .G"F    DCD    1176651664
        0x00011e88:    4b563269    i2VK    DCD    1263940201
        0x00011e8c:    9905201a    . ..    DCD    2567249946
        0x00011e90:    46684798    .GhF    DCD    1181239192
        0x00011e94:    08497901    .yI.    DCD    139032833
        0x00011e98:    91010049    I...    DCD    2432761929
        0x00011e9c:    46304a4f    OJ0F    DCD    1177569871
        0x00011ea0:    20004790    .G.     DCD    536889232
        0x00011ea4:    e08b70e8    .p..    DCD    3767234792
        0x00011ea8:    280f7878    xx.(    DCD    672102520
        0x00011eac:    20ffd134    4..     DCD    553636148
        0x00011eb0:    46314a4b    KJ1F    DCD    1177635403
        0x00011eb4:    47903003    .0.G    DCD    1200631811
        0x00011eb8:    30604620     F`0    DCD    811615776
        0x00011ebc:    22fd7a41    Az."    DCD    587037249
        0x00011ec0:    72414011    .@Ar    DCD    1916878865
        0x00011ec4:    98054948    HI..    DCD    2550483272
        0x00011ec8:    28034788    .G.(    DCD    671303560
        0x00011ecc:    4620d026    &. F    DCD    1176555558
        0x00011ed0:    46013040    @0.F    DCD    1174483008
        0x00011ed4:    06428b80    ..B.    DCD    105024384
        0x00011ed8:    2240d510    ..@"    DCD    574674192
        0x00011edc:    83884390    .C..    DCD    2206745488
        0x00011ee0:    21049803    ...!    DCD    553949187
        0x00011ee4:    40087f00    ...@    DCD    1074298624
        0x00011ee8:    2001d000    ...     DCD    536989696
        0x00011eec:    d0052800    .(..    DCD    3489998848
        0x00011ef0:    32286922    "i(2    DCD    841509154
        0x00011ef4:    201a4b3d    =K.     DCD    538594109
        0x00011ef8:    47989905    ...G    DCD    1201182981
        0x00011efc:    21004a3c    <J.!    DCD    553667132
        0x00011f00:    47909805    ...G    DCD    1200658437
        0x00011f04:    79014668    hF.y    DCD    2030126696
        0x00011f08:    00490849    I.I.    DCD    4786249
        0x00011f0c:    4a339101    ..3J    DCD    1244893441
        0x00011f10:    47904630    0F.G    DCD    1200637488
        0x00011f14:    70e82000    . .p    DCD    1894260736
        0x00011f18:    e041e052    R.A.    DCD    3762413650
        0x00011f1c:    9804492b    +I..    DCD    2550417707
        0x00011f20:    68005808    .X.h    DCD    1744853000
        0x00011f24:    70012102    .!.p    DCD    1879122178
        0x00011f28:    47884932    2I.G    DCD    1200113970
        0x00011f2c:    7878e048    H.xx    DCD    2021187656
        0x00011f30:    d1452814    .(E.    DCD    3510970388
        0x00011f34:    4a2a20ff    . *J    DCD    1244274943
        0x00011f38:    30034631    1F.0    DCD    805520945
        0x00011f3c:    20014790    .G.     DCD    536954768
        0x00011f40:    74a03440    @4.t    DCD    1956656192
        0x00011f44:    21409803    ..@!    DCD    557881347
        0x00011f48:    40087f00    ...@    DCD    1074298624
        0x00011f4c:    2001d000    ...     DCD    536989696
        0x00011f50:    d01a2800    .(..    DCD    3491375104
        0x00011f54:    07807ce0    .|..    DCD    125861088
        0x00011f58:    230cd417    ...#    DCD    588043287
        0x00011f5c:    223e4f27    'O>"    DCD    574508839
        0x00011f60:    99054825    %H..    DCD    2567260197
        0x00011f64:    210747b8    .G.!    DCD    554125240
        0x00011f68:    99057001    .p..    DCD    2567270401
        0x00011f6c:    89218041    A.!.    DCD    2300674113
        0x00011f70:    8a218101    ..!.    DCD    2317451521
        0x00011f74:    88e18141    A...    DCD    2296480065
        0x00011f78:    89e18081    ....    DCD    2313257089
        0x00011f7c:    492080c1    .. I    DCD    1226866881
        0x00011f80:    7ce04788    .G.|    DCD    2095073160
        0x00011f84:    43082102    .!.C    DCD    1124606210
        0x00011f88:    466874e0    .thF    DCD    1181250784
        0x00011f8c:    08497901    .yI.    DCD    139032833
        0x00011f90:    91010049    I...    DCD    2432761929
        0x00011f94:    46304a11    .J0F    DCD    1177569809
        0x00011f98:    20004790    .G.     DCD    536889232
        0x00011f9c:    e00f70e8    .p..    DCD    3759108328
        0x00011fa0:    28127878    xx.(    DCD    672299128
        0x00011fa4:    0849d10c    ..I.    DCD    139055372
        0x00011fa8:    91010049    I...    DCD    2432761929
        0x00011fac:    46304a0b    .J0F    DCD    1177569803
        0x00011fb0:    20004790    .G.     DCD    536889232
        0x00011fb4:    20ff70e8    .p.     DCD    553611496
        0x00011fb8:    46314a09    .J1F    DCD    1177635337
        0x00011fbc:    47903003    .0.G    DCD    1200631811
        0x00011fc0:    b0099802    ....    DCD    2953418754
        0x00011fc4:    0000bdf0    ....    DCD    48624
        0x00011fc8:    00009f0d    ....    DCD    40717
        0x00011fcc:    20006964    di.     DCD    536897892
        0x00011fd0:    0000c425    %...    DCD    50213
        0x00011fd4:    200068b8    .h.     DCD    536897720
        0x00011fd8:    0000a805    ....    DCD    43013
        0x00011fdc:    00009f31    1...    DCD    40753
        0x00011fe0:    0000a189    ....    DCD    41353
        0x00011fe4:    0000b01d    ....    DCD    45085
        0x00011fe8:    00010a1d    ....    DCD    68125
        0x00011fec:    0000ab09    ....    DCD    43785
        0x00011ff0:    0000c405    ....    DCD    50181
        0x00011ff4:    00009e31    1...    DCD    40497
        0x00011ff8:    00000804    ....    DCD    2052
        0x00011ffc:    00009df5    ....    DCD    40437
        0x00012000:    00008fb5    ....    DCD    36789
    am_ble_performance_copy_patch_data
        0x00012004:    006e1100    ..n.    DCD    7213312
        0x00012008:    00000400    ....    DCD    1024
        0x0001200c:    00000000    ....    DCD    0
        0x00012010:    01c50101    ....    DCD    29688065
        0x00012014:    00000039    9...    DCD    57
        0x00012018:    00000000    ....    DCD    0
        0x0001201c:    00000000    ....    DCD    0
        0x00012020:    00000000    ....    DCD    0
        0x00012024:    00000000    ....    DCD    0
        0x00012028:    ffffffff    ....    DCD    4294967295
        0x0001202c:    2000b570    p..     DCD    536917360
        0x00012030:    8849490c    .II.    DCD    2286504204
        0x00012034:    188b4a0c    .J..    DCD    411781644
        0x00012038:    490c881a    ...I    DCD    1225558042
        0x0001203c:    24001c9b    ...$    DCD    603987099
        0x00012040:    022d2513    .%-.    DCD    36513043
        0x00012044:    1c40540c    .T@.    DCD    473977868
        0x00012048:    dbfb42a8    .B..    DCD    3690676904
        0x0001204c:    2a002000    . .*    DCD    704651264
        0x00012050:    5c1cdd04    ...\    DCD    1545395460
        0x00012054:    1c40540c    .T@.    DCD    473977868
        0x00012058:    dbfa4290    .B..    DCD    3690611344
        0x0001205c:    47804804    .H.G    DCD    1199589380
        0x00012060:    bd702000    . p.    DCD    3178242048
        0x00012064:    20004800    .H.     DCD    536889344
        0x00012068:    20004802    .H.     DCD    536889346
        0x0001206c:    20003500    .5.     DCD    536884480
        0x00012070:    000133af    .3..    DCD    78767
        0x00012074:    b51f08a0    ....    DCD    3038709920
        0x00012078:    98002400    .$..    DCD    2550146048
        0x0001207c:    d243281d    .(C.    DCD    3527616541
        0x00012080:    44790001    ..yD    DCD    1148780545
        0x00012084:    18497909    .yI.    DCD    407468297
        0x00012088:    130e448f    .D..    DCD    319702159
        0x0001208c:    40251a40    @.%@    DCD    1076173376
        0x00012090:    40404040    @@@@    DCD    1077952576
        0x00012094:    40404040    @@@@    DCD    1077952576
        0x00012098:    402a4040    @@*@    DCD    1076510784
        0x0001209c:    2d404040    @@@-    DCD    759185472
        0x000120a0:    35403240    @2@5    DCD    893399616
        0x000120a4:    00404038    8@@.    DCD    4210744
        0x000120a8:    b2c09801    ....    DCD    2998966273
        0x000120ac:    fa07f000    ....    DCD    4194824192
        0x000120b0:    9802e02c    ,...    DCD    2550325292
        0x000120b4:    9801b2c1    ....    DCD    2550248129
        0x000120b8:    f000b2c0    ....    DCD    4026577600
        0x000120bc:    e025f8b8    ..%.    DCD    3760584888
        0x000120c0:    b2839806    ....    DCD    2994968582
        0x000120c4:    b2829803    ....    DCD    2994903043
        0x000120c8:    b2c19802    ....    DCD    2999031810
        0x000120cc:    b2c09801    ....    DCD    2998966273
        0x000120d0:    f971f000    ..q.    DCD    4184993792
        0x000120d4:    9801e01a    ....    DCD    2550259738
        0x000120d8:    f000b2c0    ....    DCD    4026577600
        0x000120dc:    e015f90a    ....    DCD    3759536394
        0x000120e0:    f829f000    ..).    DCD    4163497984
        0x000120e4:    9801e012    ....    DCD    2550259730
        0x000120e8:    f000b280    ....    DCD    4026577536
        0x000120ec:    e00df962    b...    DCD    3759012194
        0x000120f0:    fb3bf000    ..;.    DCD    4215009280
        0x000120f4:    f000e00a    ....    DCD    4026589194
        0x000120f8:    e007fb94    ....    DCD    3758619540
        0x000120fc:    b2c09801    ....    DCD    2998966273
        0x00012100:    fac7f000    ....    DCD    4207407104
        0x00012104:    e0014604    .F..    DCD    3758179844
        0x00012108:    43e42400    .$.C    DCD    1139024896
        0x0001210c:    b0044620     F..    DCD    2953070112
        0x00012110:    b403bd10    ....    DCD    3020143888
        0x00012114:    90014801    .H..    DCD    2416003073
        0x00012118:    2739bd01    ..9'    DCD    658095361
        0x0001211c:    b4030000    ....    DCD    3020095488
        0x00012120:    90014801    .H..    DCD    2416003073
        0x00012124:    2895bd01    ...(    DCD    680901889
        0x00012128:    b4030000    ....    DCD    3020095488
        0x0001212c:    90014801    .H..    DCD    2416003073
        0x00012130:    0101bd01    ....    DCD    16891137
        0x00012134:    b4f00000    ....    DCD    3035627520
        0x00012138:    22432000    . C"    DCD    574824448
        0x0001213c:    68510612    ..Qh    DCD    1750140434
        0x00012140:    340124ff    .$.4    DCD    872490239
        0x00012144:    60514321    !CQ`    DCD    1615938337
        0x00012148:    03236851    Qh#.    DCD    52652113
        0x0001214c:    60514319    .CQ`    DCD    1615938329
        0x00012150:    05db23a3    .#..    DCD    98247587
        0x00012154:    08496819    .hI.    DCD    139028505
        0x00012158:    60190049    I..`    DCD    1612251209
        0x0001215c:    6909492a    *I.i    DCD    1762216234
        0x00012160:    4d29b2ce    ..)M    DCD    1294578382
        0x00012164:    88294f2a    *O).    DCD    2284408618
        0x00012168:    d30142b9    .B..    DCD    3540075193
        0x0001216c:    e00d2004    . ..    DCD    3758956548
        0x00012170:    42b94f28    (O.B    DCD    1119440680
        0x00012174:    2003d301    ...     DCD    537121537
        0x00012178:    4f26e008    ..&O    DCD    1327947784
        0x0001217c:    d30142b9    .B..    DCD    3540075193
        0x00012180:    e0032002    . ..    DCD    3758301186
        0x00012184:    42b94f25    %O.B    DCD    1119440677
        0x00012188:    2001d300    ...     DCD    536990464
        0x0001218c:    18394f24    $O9.    DCD    406408996
        0x00012190:    7e093120     1.~    DCD    2114531616
        0x00012194:    da0942b1    .B..    DCD    3658039985
        0x00012198:    dd012800    .(..    DCD    3707840512
        0x0001219c:    b2401e40    @.@.    DCD    2990546496
        0x000121a0:    7a091839    9..z    DCD    2047416377
        0x000121a4:    19c00040    @...    DCD    432013376
        0x000121a8:    e00b8b00    ....    DCD    3758852864
        0x000121ac:    da042804    .(..    DCD    3657705476
        0x000121b0:    42b15c39    9\.B    DCD    1118919737
        0x000121b4:    1c40db01    ..@.    DCD    474012417
        0x000121b8:    1839b240    @.9.    DCD    406434368
        0x000121bc:    00407a09    .z@.    DCD    4225545
        0x000121c0:    8b0019c0    ....    DCD    2332039616
        0x000121c4:    62314e17    .N1b    DCD    1647398423
        0x000121c8:    08496819    .hI.    DCD    139028505
        0x000121cc:    60190049    I..`    DCD    1612251209
        0x000121d0:    6b314e15    .N1k    DCD    1798393365
        0x000121d4:    4327460f    .F'C    DCD    1126647311
        0x000121d8:    62986337    7c.b    DCD    1654154039
        0x000121dc:    633143a1    .C1c    DCD    1664172961
        0x000121e0:    68518028    (.Qh    DCD    1750171688
        0x000121e4:    438103b0    ...C    DCD    1132528560
        0x000121e8:    78004810    .H.x    DCD    2013284368
        0x000121ec:    0fc007c0    ....    DCD    264243136
        0x000121f0:    43190503    ...C    DCD    1125713155
        0x000121f4:    68516051    Q`Qh    DCD    1750163537
        0x000121f8:    43a10200    ...C    DCD    1134625280
        0x000121fc:    60514301    .CQ`    DCD    1615938305
        0x00012200:    4770bcf0    ..pG    DCD    1198570736
        0x00012204:    00800000    ....    DCD    8388608
        0x00012208:    604e4580    .EN`    DCD    1615742336
        0x0001220c:    3ff62000    . .?    DCD    1073094656
        0x00012210:    38f60000    ...8    DCD    955645952
        0x00012214:    2df60000    ...-    DCD    771096576
        0x00012218:    09f60000    ....    DCD    167116800
        0x0001221c:    67fc0000    ...g    DCD    1744568320
        0x00012220:    04802000    . ..    DCD    75505664
        0x00012224:    004050c0    .P@.    DCD    4214976
        0x00012228:    603a4580    .E:`    DCD    1614431616
        0x0001222c:    b5f02000    . ..    DCD    3052412928
        0x00012230:    2243b082    ..C"    DCD    574861442
        0x00012234:    68530612    ..Sh    DCD    1750271506
        0x00012238:    04642401    .$d.    DCD    73671681
        0x0001223c:    60534323    #CS`    DCD    1616069411
        0x00012240:    0fd207ca    ....    DCD    265422794
        0x00012244:    078a4696    .F..    DCD    126502550
        0x00012248:    074a0fd3    ..J.    DCD    122294227
        0x0001224c:    070a0fd4    ....    DCD    118099924
        0x00012250:    92010fd2    ....    DCD    2449543122
        0x00012254:    0fd206ca    ....    DCD    265422538
        0x00012258:    068a9200    ....    DCD    109744640
        0x0001225c:    46940fd2    ...F    DCD    1184108498
        0x00012260:    0fd5064a    J...    DCD    265619018
        0x00012264:    4a1f09ce    ...J    DCD    1243548110
        0x00012268:    27036811    .h.'    DCD    654534673
        0x0001226c:    43b9057f    ...C    DCD    1136199039
        0x00012270:    4f1d6912    .i.O    DCD    1327327506
        0x00012274:    2800403a    :@.(    DCD    671105082
        0x00012278:    2801d006    ...(    DCD    671207430
        0x0001227c:    2701d009    ...'    DCD    654430217
        0x00012280:    280205bf    ...(    DCD    671221183
        0x00012284:    4339d003    ..9C    DCD    1127862275
        0x00012288:    d0062800    .(..    DCD    3490064384
        0x0001228c:    4339e01b    ..9C    DCD    1127866395
        0x00012290:    2701e7fa    ...'    DCD    654436346
        0x00012294:    4339057f    ..9C    DCD    1127810431
        0x00012298:    0330e7f6    ..0.    DCD    53536758
        0x0001229c:    016a4310    .Cj.    DCD    23741200
        0x000122a0:    46624310    .CbF    DCD    1180844816
        0x000122a4:    431002d2    ...C    DCD    1125122770
        0x000122a8:    01d29a00    ....    DCD    30579200
        0x000122ac:    9a014310    .C..    DCD    2583773968
        0x000122b0:    43100192    ...C    DCD    1125122450
        0x000122b4:    431002a2    ...C    DCD    1125122722
        0x000122b8:    4310025a    Z..C    DCD    1125122650
        0x000122bc:    02124672    rF..    DCD    34752114
        0x000122c0:    4a084310    .C.J    DCD    1242055440
        0x000122c4:    48076110    .a.H    DCD    1208443152
        0x000122c8:    20436001    .`C     DCD    541286401
        0x000122cc:    68410600    ..Ah    DCD    1749091840
        0x000122d0:    04522201    ."R.    DCD    72491521
        0x000122d4:    4a054391    .C.J    DCD    1241858961
        0x000122d8:    07d27812    .x..    DCD    131233810
        0x000122dc:    43110b92    ...C    DCD    1125190546
        0x000122e0:    b0026041    A`..    DCD    2952945729
        0x000122e4:    0000bdf0    ....    DCD    48624
        0x000122e8:    e00343c0    .C..    DCD    3758310336
        0x000122ec:    603affff    ..:`    DCD    1614479359
        0x000122f0:    b5f82000    . ..    DCD    3052937216
        0x000122f4:    20432400    .$C     DCD    541271040
        0x000122f8:    68410600    ..Ah    DCD    1749091840
        0x000122fc:    03bf2701    .'..    DCD    62859009
        0x00012300:    60414339    9CA`    DCD    1614889785
        0x00012304:    00ba6841    Ah..    DCD    12216385
        0x00012308:    60414311    .CA`    DCD    1614889745
        0x0001230c:    68054821    !H.h    DCD    1745176609
        0x00012310:    430d1c51    Q..C    DCD    1124932689
        0x00012314:    4e1f6005    .`.N    DCD    1310679045
        0x00012318:    47b020c8    . .G    DCD    1202725064
        0x0001231c:    6888491f    .I.h    DCD    1753762079
        0x00012320:    60884338    8C.`    DCD    1619542840
        0x00012324:    68f0460e    .F.h    DCD    1760577038
        0x00012328:    0fc70400    ....    DCD    264700928
        0x0001232c:    2001491a    .I.     DCD    536955162
        0x00012330:    46204788    .G F    DCD    1176520584
        0x00012334:    1c64491a    .Id.    DCD    476334362
        0x00012338:    d8014288    .B..    DCD    3623961224
        0x0001233c:    d0f22f00    ./..    DCD    3505532672
        0x00012340:    40054818    .H.@    DCD    1074087960
        0x00012344:    60054813    .H.`    DCD    1610958867
        0x00012348:    03402001    . @.    DCD    54534145
        0x0001234c:    68f160b0    .`.h    DCD    1760649392
        0x00012350:    40014815    .H.@    DCD    1073825813
        0x00012354:    4a146870    ph.J    DCD    1242851440
        0x00012358:    43084010    .@.C    DCD    1124614160
        0x0001235c:    68306070    p`0h    DCD    1748000880
        0x00012360:    0289213f    ?!..    DCD    42541375
        0x00012364:    60304388    .C0`    DCD    1613775752
        0x00012368:    06092143    C!..    DCD    101261635
        0x0001236c:    2001684a    Jh.     DCD    536963146
        0x00012370:    43820380    ...C    DCD    1132594048
        0x00012374:    7800480e    .H.x    DCD    2013284366
        0x00012378:    0fc007c0    ....    DCD    264243136
        0x0001237c:    431a0383    ...C    DCD    1125778307
        0x00012380:    684a604a    J`Jh    DCD    1749704778
        0x00012384:    041b2301    .#..    DCD    68887297
        0x00012388:    0400439a    .C..    DCD    67126170
        0x0001238c:    604a4302    .CJ`    DCD    1615479554
        0x00012390:    0000bdf8    ....    DCD    48632
        0x00012394:    3ba15240    @R.;    DCD    1000428096
        0x00012398:    00000000    ....    DCD    0
        0x0001239c:    271051c0    .Q.'    DCD    655380928
        0x000123a0:    fffe0000    ....    DCD    4294836224
        0x000123a4:    3f3ffffe    ..??    DCD    1061158910
        0x000123a8:    c0c00000    ....    DCD    3233808384
        0x000123ac:    603affff    ..:`    DCD    1614479359
        0x000123b0:    47702000    . pG    DCD    1198530560
        0x000123b4:    b5f00000    ....    DCD    3052404736
        0x000123b8:    2508b083    ...%    DCD    621326467
        0x000123bc:    2000493c    <I.     DCD    536889660
        0x000123c0:    20437008    .pC     DCD    541290504
        0x000123c4:    68410600    ..Ah    DCD    1749091840
        0x000123c8:    431102aa    ...C    DCD    1125188266
        0x000123cc:    27296041    A`)'    DCD    657023041
        0x000123d0:    067f4938    8I..    DCD    109005112
        0x000123d4:    684160f9    .`Ah    DCD    1749115129
        0x000123d8:    43914b37    7K.C    DCD    1133595447
        0x000123dc:    07db781b    .x..    DCD    131823643
        0x000123e0:    43190c9b    ...C    DCD    1125715099
        0x000123e4:    24256041    A`%$    DCD    606429249
        0x000123e8:    684101a4    ..Ah    DCD    1749090724
        0x000123ec:    60414311    .CA`    DCD    1614889745
        0x000123f0:    10526841    AhR.    DCD    273836097
        0x000123f4:    60414311    .CA`    DCD    1614889745
        0x000123f8:    210368f8    .h.!    DCD    553871608
        0x000123fc:    43880649    I..C    DCD    1132987977
        0x00012400:    43060356    V..C    DCD    1124467542
        0x00012404:    43060390    ...C    DCD    1124467600
        0x00012408:    200168b8    .h.     DCD    536963256
        0x0001240c:    fe81f7ff    ....    DCD    4269930495
        0x00012410:    20104621    !F.     DCD    537937441
        0x00012414:    fe83f7ff    ....    DCD    4270061567
        0x00012418:    43060328    (..C    DCD    1124467496
        0x0001241c:    2d002400    .$.-    DCD    754983936
        0x00012420:    60fed90c    ...`    DCD    1627314444
        0x00012424:    20644925    %Id     DCD    543443237
        0x00012428:    68f84788    .G.h    DCD    1761101704
        0x0001242c:    0a004669    iF..    DCD    167790185
        0x00012430:    55081c80    ...U    DCD    1426594944
        0x00012434:    b2e41c64    d...    DCD    3001293924
        0x00012438:    d3f242ac    .B..    DCD    3555869356
        0x0001243c:    79d0466a    jF.y    DCD    2043692650
        0x00012440:    18407991    .y@.    DCD    406878609
        0x00012444:    79127951    Qy.y    DCD    2031253841
        0x00012448:    18401889    ..@.    DCD    406853769
        0x0001244c:    78d1466a    jF.x    DCD    2026980970
        0x00012450:    78901841    A..x    DCD    2022709313
        0x00012454:    78501809    ..Px    DCD    2018514953
        0x00012458:    78101809    ...x    DCD    2014320649
        0x0001245c:    46291808    ..)F    DCD    1177098248
        0x00012460:    fe63f7ff    ..c.    DCD    4267964415
        0x00012464:    b2c04912    .I..    DCD    2998946066
        0x00012468:    68397008    .p9h    DCD    1748594696
        0x0001246c:    02922201    ."..    DCD    43131393
        0x00012470:    60394311    .C9`    DCD    1614365457
        0x00012474:    1c400040    @.@.    DCD    473956416
        0x00012478:    20006178    xa.     DCD    536895864
        0x0001247c:    fe49f7ff    ..I.    DCD    4266260479
        0x00012480:    06092143    C!..    DCD    101261635
        0x00012484:    2001684a    Jh.     DCD    536963146
        0x00012488:    43820300    ...C    DCD    1132593920
        0x0001248c:    7800480a    .H.x    DCD    2013284362
        0x00012490:    0fc007c0    ....    DCD    264243136
        0x00012494:    431a0303    ...C    DCD    1125778179
        0x00012498:    684a604a    J`Jh    DCD    1749704778
        0x0001249c:    035b2301    .#[.    DCD    56304385
        0x000124a0:    0340439a    .C@.    DCD    54543258
        0x000124a4:    604a4302    .CJ`    DCD    1615479554
        0x000124a8:    bdf0b003    ....    DCD    3186667523
        0x000124ac:    60700000    ..p`    DCD    1617952768
        0x000124b0:    34cc2000    . .4    DCD    885792768
        0x000124b4:    603a0263    c.:`    DCD    1614414435
        0x000124b8:    3ba12000    . .;    DCD    1000415232
        0x000124bc:    b4700000    ..p.    DCD    3027238912
        0x000124c0:    06092143    C!..    DCD    101261635
        0x000124c4:    24016848    Hh.$    DCD    604072008
        0x000124c8:    432004a4    .. C    DCD    1126171812
        0x000124cc:    20c46048    H`.     DCD    549740616
        0x000124d0:    05d22287    ."..    DCD    97657479
        0x000124d4:    485c6010    .`\H    DCD    1214013456
        0x000124d8:    68486150    PaHh    DCD    1749573968
        0x000124dc:    43a04a5c    \J.C    DCD    1134578268
        0x000124e0:    07d27812    .x..    DCD    131233810
        0x000124e4:    04930fd2    ....    DCD    76746706
        0x000124e8:    60484318    .CH`    DCD    1615348504
        0x000124ec:    4b58208b    . XK    DCD    1264066699
        0x000124f0:    634305c0    ..Cc    DCD    1665336768
        0x000124f4:    25014b58    XK.%    DCD    620841816
        0x000124f8:    250660dd    .`.%    DCD    621175005
        0x000124fc:    250560cd    .`.%    DCD    621109453
        0x00012500:    688563c5    .c.h    DCD    1753572293
        0x00012504:    3df0086d    m..=    DCD    1039140973
        0x00012508:    68c56085    .`.h    DCD    1757765765
        0x0001250c:    355d086d    m.]5    DCD    895289453
        0x00012510:    690560c5    .`.i    DCD    1761960133
        0x00012514:    6105086d    m..a    DCD    1627719789
        0x00012518:    086d6945    Eim.    DCD    141388101
        0x0001251c:    69856145    Ea.i    DCD    1770348869
        0x00012520:    6185086d    m..a    DCD    1636108397
        0x00012524:    086d69c5    .im.    DCD    141388229
        0x00012528:    6a0561c5    .a.j    DCD    1778737605
        0x0001252c:    6205086d    m..b    DCD    1644497005
        0x00012530:    086d6a45    Ejm.    DCD    141388357
        0x00012534:    6a856245    Eb.j    DCD    1787126341
        0x00012538:    6285086d    m..b    DCD    1652885613
        0x0001253c:    086d6ac5    .jm.    DCD    141388485
        0x00012540:    250162c5    .b.%    DCD    620847813
        0x00012544:    625d611d    .a]b    DCD    1650286877
        0x00012548:    4b43639d    .cCK    DCD    1262707613
        0x0001254c:    4d43601d    .`CM    DCD    1296261149
        0x00012550:    6a1d615d    ]a.j    DCD    1780310365
        0x00012554:    621d086d    m..b    DCD    1646069869
        0x00012558:    25016ac3    .j.%    DCD    620849859
        0x0001255c:    62c3432b    +C.b    DCD    1656963883
        0x00012560:    10a36848    Hh..    DCD    279144520
        0x00012564:    60484318    .CH`    DCD    1615348504
        0x00012568:    109b6848    Hh..    DCD    278620232
        0x0001256c:    60484318    .CH`    DCD    1615348504
        0x00012570:    4b3b483d    =H;K    DCD    1262176317
        0x00012574:    68836143    Ca.h    DCD    1753440579
        0x00012578:    05ad253f    ?%..    DCD    95233343
        0x0001257c:    6083432b    +C.`    DCD    1619215147
        0x00012580:    60c32300    .#.`    DCD    1623401216
        0x00012584:    61834b39    9K.a    DCD    1635994425
        0x00012588:    682b4d39    9M+h    DCD    1747668281
        0x0001258c:    43b3261e    .&.C    DCD    1135814174
        0x00012590:    6a83602b    +`.j    DCD    1786994731
        0x00012594:    43ab03f5    ...C    DCD    1135281141
        0x00012598:    6283191b    ...b    DCD    1652758811
        0x0001259c:    10a36848    Hh..    DCD    279144520
        0x000125a0:    04134398    .C..    DCD    68371352
        0x000125a4:    60484318    .CH`    DCD    1615348504
        0x000125a8:    11236848    Hh#.    DCD    287533128
        0x000125ac:    03934398    .C..    DCD    59982744
        0x000125b0:    60484318    .CH`    DCD    1615348504
        0x000125b4:    11636848    Hhc.    DCD    291727432
        0x000125b8:    60484318    .CH`    DCD    1615348504
        0x000125bc:    06402029    ) @.    DCD    104865833
        0x000125c0:    09246a04    .j$.    DCD    153381380
        0x000125c4:    34080124    $..4    DCD    872939812
        0x000125c8:    68486204    .bHh    DCD    1749574148
        0x000125cc:    03534398    .CS.    DCD    55788440
        0x000125d0:    60484318    .CH`    DCD    1615348504
        0x000125d4:    23016848    Hh.#    DCD    587294792
        0x000125d8:    4318051b    ...C    DCD    1125647643
        0x000125dc:    24286048    H`($    DCD    606625864
        0x000125e0:    05c020a3    . ..    DCD    96477347
        0x000125e4:    4d226004    .`"M    DCD    1294098436
        0x000125e8:    6285882d    -..b    DCD    1652918317
        0x000125ec:    05126848    Hh..    DCD    85092424
        0x000125f0:    43104398    .C.C    DCD    1125139352
        0x000125f4:    481f6048    H`.H    DCD    1210015816
        0x000125f8:    700121e6    .!.p    DCD    1879122406
        0x000125fc:    4a1d7204    .r.J    DCD    1243443716
        0x00012600:    8310481e    .H..    DCD    2198882334
        0x00012604:    23e0481e    .H.#    DCD    601901086
        0x00012608:    4c1a7603    .v.L    DCD    1276802563
        0x0001260c:    706222d4    ."bp    DCD    1885479636
        0x00012610:    7262223c    <"br    DCD    1919033916
        0x00012614:    83624a1b    .Jb.    DCD    2204256795
        0x00012618:    22c87641    Av."    DCD    583562817
        0x0001261c:    4d1570a2    .p.M    DCD    1293250722
        0x00012620:    72ac2446    F$.r    DCD    1923884102
        0x00012624:    83ac4c18    .L..    DCD    2209106968
        0x00012628:    46297681    .v)F    DCD    1177122433
        0x0001262c:    215070ca    .pP!    DCD    558919882
        0x00012630:    72d1462a    *F.r    DCD    1926317610
        0x00012634:    83d14915    .I..    DCD    2211531029
        0x00012638:    215a76c3    .vZ!    DCD    559576771
        0x0001263c:    49137311    .s.I    DCD    1226011409
        0x00012640:    77038411    ...w    DCD    1996719121
        0x00012644:    4770bc70    p.pG    DCD    1198570608
        0x00012648:    7fff0000    ....    DCD    2147418112
        0x0001264c:    603a0000    ..:`    DCD    1614413824
        0x00012650:    02492000    . I.    DCD    38346752
        0x00012654:    00400000    ..@.    DCD    4194304
        0x00012658:    00804580    .E..    DCD    8406400
        0x0001265c:    021e4580    .E..    DCD    35538304
        0x00012660:    00030000    ....    DCD    196608
        0x00012664:    0000003c    <...    DCD    60
        0x00012668:    00085240    @R..    DCD    545344
        0x0001266c:    0000000f    ....    DCD    15
        0x00012670:    604e51c0    .QN`    DCD    1615745472
        0x00012674:    67fc2000    . .g    DCD    1744576512
        0x00012678:    07f62000    . ..    DCD    133570560
        0x0001267c:    681c0000    ...h    DCD    1746665472
        0x00012680:    09f62000    . ..    DCD    167124992
        0x00012684:    2df60000    ...-    DCD    771096576
        0x00012688:    38f60000    ...8    DCD    955645952
        0x0001268c:    3ff60000    ...?    DCD    1073086464
        0x00012690:    b5f80000    ....    DCD    3052929024
        0x00012694:    6800482d    -H.h    DCD    1744848941
        0x00012698:    d1542800    .(T.    DCD    3511953408
        0x0001269c:    06122243    C"..    DCD    101851715
        0x000126a0:    21016850    Ph.!    DCD    553740368
        0x000126a4:    430803c9    ...C    DCD    1124598729
        0x000126a8:    4f286050    P`(O    DCD    1328046160
        0x000126ac:    2501683c    <h.%    DCD    620849212
        0x000126b0:    06002003    . ..    DCD    100671491
        0x000126b4:    60384320     C8`    DCD    1614299936
        0x000126b8:    49252600    .&%I    DCD    1227171328
        0x000126bc:    4788201e    . .G    DCD    1200103454
        0x000126c0:    20014924    $I.     DCD    536955172
        0x000126c4:    68784788    .Gxh    DCD    1752713096
        0x000126c8:    0fc007c0    ....    DCD    264243136
        0x000126cc:    4a214631    1F!J    DCD    1243694641
        0x000126d0:    42911c76    v..B    DCD    1116806262
        0x000126d4:    2800d801    ...(    DCD    671143937
        0x000126d8:    481cd0f2    ...H    DCD    1209848050
        0x000126dc:    481e6881    .h.H    DCD    1209952385
        0x000126e0:    20006001    .`.     DCD    536895489
        0x000126e4:    2d002600    .&.-    DCD    754984448
        0x000126e8:    4b1cd011    ...K    DCD    1260179473
        0x000126ec:    25004632    2F.%    DCD    620774962
        0x000126f0:    41aa1acb    ...A    DCD    1101667019
        0x000126f4:    1c40da14    ..@.    DCD    474012180
        0x000126f8:    4f184605    .F.O    DCD    1326990853
        0x000126fc:    4633434d    MC3F    DCD    1177764685
        0x00012700:    1b7d2200    ."}.    DCD    461185536
        0x00012704:    1b4d419a    .AM.    DCD    458047898
        0x00012708:    dbf44193    .A..    DCD    3690217875
        0x0001270c:    4b14e008    ...K    DCD    1259659272
        0x00012710:    d2054299    .B..    DCD    3523560089
        0x00012714:    46021c40    @..F    DCD    1174543424
        0x00012718:    1a9a434a    JC..    DCD    446317386
        0x0001271c:    d8f9428a    .B..    DCD    3640214154
        0x00012720:    06092101    .!..    DCD    101261569
        0x00012724:    0049438c    .CI.    DCD    4801420
        0x00012728:    4908430c    .C.I    DCD    1225278220
        0x0001272c:    2243600c    .`C"    DCD    574840844
        0x00012730:    68510612    ..Qh    DCD    1750140434
        0x00012734:    03db2301    .#..    DCD    64692993
        0x00012738:    4b0a4399    .C.K    DCD    1258963865
        0x0001273c:    07db781b    .x..    DCD    131823643
        0x00012740:    43190c1b    ...C    DCD    1125714971
        0x00012744:    bdf86051    Q`..    DCD    3187171409
        0x00012748:    605c0000    ..\`    DCD    1616642048
        0x0001274c:    00002000    . ..    DCD    8192
        0x00012750:    3ba14440    @D.;    DCD    1000424512
        0x00012754:    27100000    ...'    DCD    655360000
        0x00012758:    60600000    ..``    DCD    1616904192
        0x0001275c:    20002000    . .     DCD    536879104
        0x00012760:    d000bebc    ....    DCD    3489709756
        0x00012764:    603a1312    ..:`    DCD    1614418706
        0x00012768:    b5702000    . p.    DCD    3044024320
        0x0001276c:    47804823    #H.G    DCD    1199589411
        0x00012770:    06242443    C$$.    DCD    103031875
        0x00012774:    68602101    .!`h    DCD    1751130369
        0x00012778:    43080489    ...C    DCD    1124598921
        0x0001277c:    481f6060    ``.H    DCD    1210015840
        0x00012780:    481f4780    .G.H    DCD    1210009472
        0x00012784:    28aa7800    .x.(    DCD    682260480
        0x00012788:    68a0d106    ...h    DCD    1755369734
        0x0001278c:    d1030780    ....    DCD    3506636672
        0x00012790:    4788491d    .I.G    DCD    1200113949
        0x00012794:    6008491d    .I.`    DCD    1611155741
        0x00012798:    05c020a1    . ..    DCD    96477345
        0x0001279c:    21026b02    .k.!    DCD    553806594
        0x000127a0:    430a438a    .C.C    DCD    1124746122
        0x000127a4:    21016302    .c.!    DCD    553739010
        0x000127a8:    438a6b02    .k.C    DCD    1133144834
        0x000127ac:    6302430a    .C.c    DCD    1661092618
        0x000127b0:    26046b01    .k.&    DCD    637823745
        0x000127b4:    433143b1    .C1C    DCD    1127302065
        0x000127b8:    4c146301    .c.L    DCD    1276404481
        0x000127bc:    4d146860    `h.M    DCD    1293183072
        0x000127c0:    d5040080    ....    DCD    3573809280
        0x000127c4:    47a82001    . .G    DCD    1202200577
        0x000127c8:    00806860    `h..    DCD    8415328
        0x000127cc:    4c11d4fa    ...L    DCD    1276237050
        0x000127d0:    6060200f    . ``    DCD    1616912399
        0x000127d4:    47a82001    . .G    DCD    1202200577
        0x000127d8:    60602007    . ``    DCD    1616912391
        0x000127dc:    47a82004    . .G    DCD    1202200580
        0x000127e0:    60602006    . ``    DCD    1616912390
        0x000127e4:    480c218b    .!.H    DCD    1208754571
        0x000127e8:    600805c9    ...`    DCD    1611138505
        0x000127ec:    6901480c    .H.i    DCD    1761691660
        0x000127f0:    61014331    1C.a    DCD    1627472689
        0x000127f4:    bd70bf30    0.p.    DCD    3178282800
        0x000127f8:    37350000    ..57    DCD    926220288
        0x000127fc:    9c390000    ..9.    DCD    2620981248
        0x00012800:    602c0000    ..,`    DCD    1613496320
        0x00012804:    39d12000    . .9    DCD    970006528
        0x00012808:    60540000    ..T`    DCD    1616117760
        0x0001280c:    00802000    . ..    DCD    8396800
        0x00012810:    3ba14580    .E.;    DCD    1000424832
        0x00012814:    00400000    ..@.    DCD    4194304
        0x00012818:    03264580    .E&.    DCD    52839808
        0x0001281c:    ed000000    ....    DCD    3976200192
        0x00012820:    b570e000    ..p.    DCD    3044073472
        0x00012824:    200f4d2f    /M.     DCD    537873711
        0x00012828:    248b6068    h`.$    DCD    613113960
        0x0001282c:    682005e4    .. h    DCD    1746929124
        0x00012830:    02492101    .!I.    DCD    38347009
        0x00012834:    60204388    .C `    DCD    1612727176
        0x00012838:    4780482b    +H.G    DCD    1199589419
        0x0001283c:    f3802001    . ..    DCD    4085260289
        0x00012840:    48298810    ..)H    DCD    1210681360
        0x00012844:    49296840    @h)I    DCD    1227450432
        0x00012848:    d4060080    ....    DCD    3557163136
        0x0001284c:    22086820     h."    DCD    570976288
        0x00012850:    60204310    .C `    DCD    1612727056
        0x00012854:    47882001    . .G    DCD    1200103425
        0x00012858:    2001e001    ...     DCD    536993793
        0x0001285c:    48244788    .G$H    DCD    1210337160
        0x00012860:    48244780    .G$H    DCD    1210337152
        0x00012864:    78004925    %I.x    DCD    2013284645
        0x00012868:    200d4788    .G.     DCD    537741192
        0x0001286c:    48236068    h`#H    DCD    1210277992
        0x00012870:    20434780    .GC     DCD    541280128
        0x00012874:    68410600    ..Ah    DCD    1749091840
        0x00012878:    035b2301    .#[.    DCD    56304385
        0x0001287c:    60414319    .CA`    DCD    1614889753
        0x00012880:    4a1f2129    )!.J    DCD    1243554089
        0x00012884:    60ca0649    I..`    DCD    1623852617
        0x00012888:    09126a0a    .j..    DCD    152201738
        0x0001288c:    32080112    ...2    DCD    839385362
        0x00012890:    680a620a    .b.h    DCD    1745510922
        0x00012894:    432210dc    .."C    DCD    1126306012
        0x00012898:    4a1a600a    .`.J    DCD    1243242506
        0x0001289c:    00527812    .xR.    DCD    5404690
        0x000128a0:    614a1c52    R.Ja    DCD    1632246866
        0x000128a4:    49186842    Bh.I    DCD    1226336322
        0x000128a8:    7809439a    .C.x    DCD    2013873050
        0x000128ac:    0fc907c9    ....    DCD    264832969
        0x000128b0:    431a034b    K..C    DCD    1125778251
        0x000128b4:    68436042    B`Ch    DCD    1749246018
        0x000128b8:    431302a2    ...C    DCD    1125319330
        0x000128bc:    24286043    C`($    DCD    606625859
        0x000128c0:    05db23a3    .#..    DCD    98247587
        0x000128c4:    4c11601c    .`.L    DCD    1276207132
        0x000128c8:    629c8824    $..b    DCD    1654425636
        0x000128cc:    05096843    Ch..    DCD    84502595
        0x000128d0:    430b4393    .C.C    DCD    1124811667
        0x000128d4:    20006043    C`.     DCD    536895555
        0x000128d8:    8810f380    ....    DCD    2282812288
        0x000128dc:    4780480d    .H.G    DCD    1199589389
        0x000128e0:    0040bd70    p.@.    DCD    4242800
        0x000128e4:    3b854580    .E.;    DCD    998589824
        0x000128e8:    00800001    ....    DCD    8388609
        0x000128ec:    44894580    .E.D    DCD    1149846912
        0x000128f0:    346d0001    ..m4    DCD    879558657
        0x000128f4:    60400001    ..@`    DCD    1614807041
        0x000128f8:    3ba12000    . .;    DCD    1000415232
        0x000128fc:    4d990000    ...M    DCD    1301872640
        0x00012900:    34cc0001    ...4    DCD    885784577
        0x00012904:    60700463    c.p`    DCD    1617953891
        0x00012908:    603a2000    . :`    DCD    1614422016
        0x0001290c:    604e2000    . N`    DCD    1615732736
        0x00012910:    34ad2000    . .4    DCD    883761152
        0x00012914:    00000001    ....    DCD    1
    am_hal_ble_default_config
        0x00012918:    00000004    ....    DCD    4
        0x0001291c:    00000020     ...    DCD    32
        0x00012920:    00000020     ...    DCD    32
        0x00012924:    00000002    ....    DCD    2
        0x00012928:    00000000    ....    DCD    0
        0x0001292c:    00000032    2...    DCD    50
        0x00012930:    00010101    ....    DCD    65793
    am_hal_ble_num_default_patches
        0x00012934:    00000003    ....    DCD    3
    am_hal_ble_num_default_patches_b0
        0x00012938:    00000003    ....    DCD    3
    am_hal_pwrctrl_peripheral_control
        0x0001293c:    00000000    ....    DCD    0
        0x00012940:    00000000    ....    DCD    0
        0x00012944:    00000000    ....    DCD    0
        0x00012948:    00000001    ....    DCD    1
        0x0001294c:    00000004    ....    DCD    4
        0x00012950:    00000004    ....    DCD    4
        0x00012954:    00000002    ....    DCD    2
        0x00012958:    00000008    ....    DCD    8
        0x0001295c:    00000008    ....    DCD    8
        0x00012960:    00000004    ....    DCD    4
        0x00012964:    00000008    ....    DCD    8
        0x00012968:    00000008    ....    DCD    8
        0x0001296c:    00000008    ....    DCD    8
        0x00012970:    00000008    ....    DCD    8
        0x00012974:    00000008    ....    DCD    8
        0x00012978:    00000010    ....    DCD    16
        0x0001297c:    00000010    ....    DCD    16
        0x00012980:    00000010    ....    DCD    16
        0x00012984:    00000020     ...    DCD    32
        0x00012988:    00000010    ....    DCD    16
        0x0001298c:    00000010    ....    DCD    16
        0x00012990:    00000040    @...    DCD    64
        0x00012994:    00000010    ....    DCD    16
        0x00012998:    00000010    ....    DCD    16
        0x0001299c:    00000080    ....    DCD    128
        0x000129a0:    00000004    ....    DCD    4
        0x000129a4:    00000004    ....    DCD    4
        0x000129a8:    00000100    ....    DCD    256
        0x000129ac:    00000004    ....    DCD    4
        0x000129b0:    00000004    ....    DCD    4
        0x000129b4:    00000200    ....    DCD    512
        0x000129b8:    00000020     ...    DCD    32
        0x000129bc:    00000020     ...    DCD    32
        0x000129c0:    00000400    ....    DCD    1024
        0x000129c4:    00000004    ....    DCD    4
        0x000129c8:    00000004    ....    DCD    4
        0x000129cc:    00000800    ....    DCD    2048
        0x000129d0:    00000040    @...    DCD    64
        0x000129d4:    00000040    @...    DCD    64
        0x000129d8:    00001000    ....    DCD    4096
        0x000129dc:    00000080    ....    DCD    128
        0x000129e0:    00000080    ....    DCD    128
        0x000129e4:    00002000    . ..    DCD    8192
        0x000129e8:    00000100    ....    DCD    256
        0x000129ec:    00000100    ....    DCD    256
    ccitt_table
        0x000129f0:    80050000    ....    DCD    2147811328
        0x000129f4:    000a800f    ....    DCD    688143
        0x000129f8:    001e801b    ....    DCD    1998875
        0x000129fc:    80110014    ....    DCD    2148597780
        0x00012a00:    00368033    3.6.    DCD    3571763
        0x00012a04:    8039003c    <.9.    DCD    2151219260
        0x00012a08:    802d0028    (.-.    DCD    2150432808
        0x00012a0c:    00228027    '.".    DCD    2261031
        0x00012a10:    00668063    c.f.    DCD    6717539
        0x00012a14:    8069006c    l.i.    DCD    2154365036
        0x00012a18:    807d0078    x.}.    DCD    2155675768
        0x00012a1c:    00728077    w.r.    DCD    7503991
        0x00012a20:    80550050    P.U.    DCD    2153054288
        0x00012a24:    005a805f    _.Z.    DCD    5931103
        0x00012a28:    004e804b    K.N.    DCD    5144651
        0x00012a2c:    80410044    D.A.    DCD    2151743556
        0x00012a30:    00c680c3    ....    DCD    13009091
        0x00012a34:    80c900cc    ....    DCD    2160656588
        0x00012a38:    80dd00d8    ....    DCD    2161967320
        0x00012a3c:    00d280d7    ....    DCD    13795543
        0x00012a40:    80f500f0    ....    DCD    2163540208
        0x00012a44:    00fa80ff    ....    DCD    16417023
        0x00012a48:    00ee80eb    ....    DCD    15630571
        0x00012a4c:    80e100e4    ....    DCD    2162229476
        0x00012a50:    80a500a0    ....    DCD    2158297248
        0x00012a54:    00aa80af    ....    DCD    11174063
        0x00012a58:    00be80bb    ....    DCD    12484795
        0x00012a5c:    80b100b4    ....    DCD    2159083700
        0x00012a60:    00968093    ....    DCD    9863315
        0x00012a64:    8099009c    ....    DCD    2157510812
        0x00012a68:    808d0088    ....    DCD    2156724360
        0x00012a6c:    00828087    ....    DCD    8552583
        0x00012a70:    01868183    ....    DCD    25592195
        0x00012a74:    8189018c    ....    DCD    2173239692
        0x00012a78:    819d0198    ....    DCD    2174550424
        0x00012a7c:    01928197    ....    DCD    26378647
        0x00012a80:    81b501b0    ....    DCD    2176123312
        0x00012a84:    01ba81bf    ....    DCD    29000127
        0x00012a88:    01ae81ab    ....    DCD    28213675
        0x00012a8c:    81a101a4    ....    DCD    2174812580
        0x00012a90:    81e501e0    ....    DCD    2179269088
        0x00012a94:    01ea81ef    ....    DCD    32145903
        0x00012a98:    01fe81fb    ....    DCD    33456635
        0x00012a9c:    81f101f4    ....    DCD    2180055540
        0x00012aa0:    01d681d3    ....    DCD    30835155
        0x00012aa4:    81d901dc    ....    DCD    2178482652
        0x00012aa8:    81cd01c8    ....    DCD    2177696200
        0x00012aac:    01c281c7    ....    DCD    29524423
        0x00012ab0:    81450140    @.E.    DCD    2168783168
        0x00012ab4:    014a814f    O.J.    DCD    21659983
        0x00012ab8:    015e815b    [.^.    DCD    22970715
        0x00012abc:    81510154    T.Q.    DCD    2169569620
        0x00012ac0:    01768173    s.v.    DCD    24543603
        0x00012ac4:    8179017c    |.y.    DCD    2172191100
        0x00012ac8:    816d0168    h.m.    DCD    2171404648
        0x00012acc:    01628167    g.b.    DCD    23232871
        0x00012ad0:    01268123    #.&.    DCD    19300643
        0x00012ad4:    8129012c    ,.).    DCD    2166948140
        0x00012ad8:    813d0138    8.=.    DCD    2168258872
        0x00012adc:    01328137    7.2.    DCD    20087095
        0x00012ae0:    81150110    ....    DCD    2165637392
        0x00012ae4:    011a811f    ....    DCD    18514207
        0x00012ae8:    010e810b    ....    DCD    17727755
        0x00012aec:    81010104    ....    DCD    2164326660
        0x00012af0:    03068303    ....    DCD    50758403
        0x00012af4:    8309030c    ....    DCD    2198405900
        0x00012af8:    831d0318    ....    DCD    2199716632
        0x00012afc:    03128317    ....    DCD    51544855
        0x00012b00:    83350330    0.5.    DCD    2201289520
        0x00012b04:    033a833f    ?.:.    DCD    54166335
        0x00012b08:    032e832b    +...    DCD    53379883
        0x00012b0c:    83210324    $.!.    DCD    2199978788
        0x00012b10:    83650360    `.e.    DCD    2204435296
        0x00012b14:    036a836f    o.j.    DCD    57312111
        0x00012b18:    037e837b    {.~.    DCD    58622843
        0x00012b1c:    83710374    t.q.    DCD    2205221748
        0x00012b20:    03568353    S.V.    DCD    56001363
        0x00012b24:    8359035c    \.Y.    DCD    2203648860
        0x00012b28:    834d0348    H.M.    DCD    2202862408
        0x00012b2c:    03428347    G.B.    DCD    54690631
        0x00012b30:    83c503c0    ....    DCD    2210726848
        0x00012b34:    03ca83cf    ....    DCD    63603663
        0x00012b38:    03de83db    ....    DCD    64914395
        0x00012b3c:    83d103d4    ....    DCD    2211513300
        0x00012b40:    03f683f3    ....    DCD    66487283
        0x00012b44:    83f903fc    ....    DCD    2214134780
        0x00012b48:    83ed03e8    ....    DCD    2213348328
        0x00012b4c:    03e283e7    ....    DCD    65176551
        0x00012b50:    03a683a3    ....    DCD    61244323
        0x00012b54:    83a903ac    ....    DCD    2208891820
        0x00012b58:    83bd03b8    ....    DCD    2210202552
        0x00012b5c:    03b283b7    ....    DCD    62030775
        0x00012b60:    83950390    ....    DCD    2207581072
        0x00012b64:    039a839f    ....    DCD    60457887
        0x00012b68:    038e838b    ....    DCD    59671435
        0x00012b6c:    83810384    ....    DCD    2206270340
        0x00012b70:    82850280    ....    DCD    2189755008
        0x00012b74:    028a828f    ....    DCD    42631823
        0x00012b78:    029e829b    ....    DCD    43942555
        0x00012b7c:    82910294    ....    DCD    2190541460
        0x00012b80:    02b682b3    ....    DCD    45515443
        0x00012b84:    82b902bc    ....    DCD    2193162940
        0x00012b88:    82ad02a8    ....    DCD    2192376488
        0x00012b8c:    02a282a7    ....    DCD    44204711
        0x00012b90:    02e682e3    ....    DCD    48661219
        0x00012b94:    82e902ec    ....    DCD    2196308716
        0x00012b98:    82fd02f8    ....    DCD    2197619448
        0x00012b9c:    02f282f7    ....    DCD    49447671
        0x00012ba0:    82d502d0    ....    DCD    2194997968
        0x00012ba4:    02da82df    ....    DCD    47874783
        0x00012ba8:    02ce82cb    ....    DCD    47088331
        0x00012bac:    82c102c4    ....    DCD    2193687236
        0x00012bb0:    02468243    C.F.    DCD    38175299
        0x00012bb4:    8249024c    L.I.    DCD    2185822796
        0x00012bb8:    825d0258    X.].    DCD    2187133528
        0x00012bbc:    02528257    W.R.    DCD    38961751
        0x00012bc0:    82750270    p.u.    DCD    2188706416
        0x00012bc4:    027a827f    ..z.    DCD    41583231
        0x00012bc8:    026e826b    k.n.    DCD    40796779
        0x00012bcc:    82610264    d.a.    DCD    2187395684
        0x00012bd0:    82250220     .%.    DCD    2183463456
        0x00012bd4:    022a822f    /.*.    DCD    36340271
        0x00012bd8:    023e823b    ;.>.    DCD    37651003
        0x00012bdc:    82310234    4.1.    DCD    2184249908
        0x00012be0:    02168213    ....    DCD    35029523
        0x00012be4:    8219021c    ....    DCD    2182677020
        0x00012be8:    820d0208    ....    DCD    2181890568
        0x00012bec:    02028207    ....    DCD    33718791
    g_AM_BSP_GPIO_ITM_SWO
        0x00012bf0:    00000002    ....    DCD    2
    g_AM_HAL_GPIO_OUTPUT
        0x00012bf4:    00000403    ....    DCD    1027
    g_GpioUartRxCfg
        0x00012bf8:    00000020     ...    DCD    32
    g_GpioUartTxCfg
        0x00012bfc:    00000000    ....    DCD    0
    g_am_hal_mcuctrl_flash_size
        0x00012c00:    00004000    .@..    DCD    16384
        0x00012c04:    00008000    ....    DCD    32768
        0x00012c08:    00010000    ....    DCD    65536
        0x00012c0c:    00020000    ....    DCD    131072
        0x00012c10:    00040000    ....    DCD    262144
        0x00012c14:    00080000    ....    DCD    524288
        0x00012c18:    00100000    ....    DCD    1048576
        0x00012c1c:    00200000    .. .    DCD    2097152
        0x00012c20:    00180000    ....    DCD    1572864
        0x00012c24:    00000000    ....    DCD    0
        0x00012c28:    00000000    ....    DCD    0
        0x00012c2c:    00000000    ....    DCD    0
        0x00012c30:    00000000    ....    DCD    0
        0x00012c34:    00000000    ....    DCD    0
        0x00012c38:    00000000    ....    DCD    0
        0x00012c3c:    00000000    ....    DCD    0
    g_am_hal_mcuctrl_sram_size
        0x00012c40:    00004000    .@..    DCD    16384
        0x00012c44:    00008000    ....    DCD    32768
        0x00012c48:    00010000    ....    DCD    65536
        0x00012c4c:    00020000    ....    DCD    131072
        0x00012c50:    00040000    ....    DCD    262144
        0x00012c54:    00080000    ....    DCD    524288
        0x00012c58:    00100000    ....    DCD    1048576
        0x00012c5c:    00060000    ....    DCD    393216
        0x00012c60:    000c0000    ....    DCD    786432
        0x00012c64:    00000000    ....    DCD    0
        0x00012c68:    00000000    ....    DCD    0
        0x00012c6c:    00000000    ....    DCD    0
        0x00012c70:    00000000    ....    DCD    0
        0x00012c74:    00000000    ....    DCD    0
        0x00012c78:    00000000    ....    DCD    0
        0x00012c7c:    00000000    ....    DCD    0
    g_ui8Inpen
        0x00012c80:    62272323    ##'b    DCD    1646732067
        0x00012c84:    108703a1    ....    DCD    277283745
        0x00012c88:    e1005303    .S..    DCD    3774894851
        0x00012c8c:    55418151    Q.AU    DCD    1430356305
        0x00012c90:    4080c405    ...@    DCD    1082180613
        0x00012c94:    4140b101    ..@A    DCD    1094758657
        0x00012c98:    31a03114    .1.1    DCD    832581908
        0x00012c9c:    1180f100    ....    DCD    293662976
        0x00012ca0:    11c12191    .!..    DCD    297869713
        0x00012ca4:    304511e5    ..E0    DCD    809832933
        0x00012ca8:    31300037    7.01    DCD    825229367
        0x00012cac:    40007100    .q.@    DCD    1073770752
        0x00012cb0:    3130        01      DCW    12592
    g_ui8NCEtable
        0x00012cb2:    4232        2B      DCW    16946
        0x00012cb4:    12021352    R...    DCD    302125906
        0x00012cb8:    43336022    "`3C    DCD    1127440418
        0x00012cbc:    40302153    S!0@    DCD    1076896083
        0x00012cc0:    41312050    P 1A    DCD    1093738576
        0x00012cc4:    ffff1151    Q...    DCD    4294906193
        0x00012cc8:    ffffffff    ....    DCD    4294967295
        0x00012ccc:    4131ffff    ..1A    DCD    1093795839
        0x00012cd0:    40306051    Q`0@    DCD    1076912209
        0x00012cd4:    43330050    P.3C    DCD    1127415888
        0x00012cd8:    42322353    S#2B    DCD    1110582099
        0x00012cdc:    10006052    R`..    DCD    268460114
        0x00012ce0:    40303020     00@    DCD    1076899872
        0x00012ce4:    41316150    Pa1A    DCD    1093755216
        0x00012ce8:    12020151    Q...    DCD    302121297
        0x00012cec:    13034222    "B..    DCD    318980642
        0x00012cf0:    10006023    #`..    DCD    268460067
        0x00012cf4:    11015020     P..    DCD    285298720
        0x00012cf8:    12024121    !A..    DCD    302137633
        0x00012cfc:    13033222    "2..    DCD    318976546
        0x00012d00:    41316033    3`1A    DCD    1093754931
        0x00012d04:    42322151    Q!2B    DCD    1110581585
        0x00012d08:    43332252    R"3C    DCD    1127424594
        0x00012d0c:    10000353    S...    DCD    268436307
        0x00012d10:    11014020     @..    DCD    285294624
        0x00012d14:    42325121    !Q2B    DCD    1110593825
        0x00012d18:    43330252    R.3C    DCD    1127416402
        0x00012d1c:    40301353    S.0@    DCD    1076892499
        0x00012d20:    41311050    P.1A    DCD    1093734480
        0x00012d24:    42326051    Q`2B    DCD    1110597713
        0x00012d28:    43331252    R.3C    DCD    1127420498
        0x00012d2c:    10000353    S...    DCD    268436307
        0x00012d30:    11014020     @..    DCD    285294624
        0x00012d34:    12026121    !a..    DCD    302145825
        0x00012d38:    13035222    "R..    DCD    318984738
        0x00012d3c:    10003323    #3..    DCD    268448547
        0x00012d40:    41313020     01A    DCD    1093742624
        0x00012d44:    42326151    Qa2B    DCD    1110597969
        0x00012d48:    13030252    R...    DCD    318964306
        0x00012d4c:    ffff5333    3S..    DCD    4294923059
        0x00012d50:    ffffffff    ....    DCD    4294967295
        0x00012d54:    1101ffff    ....    DCD    285343743
        0x00012d58:    10006121    !a..    DCD    268460321
        0x00012d5c:    11015020     P..    DCD    285298720
        0x00012d60:    12026121    !a..    DCD    302145825
        0x00012d64:    43335222    "R3C    DCD    1127436834
        0x00012d68:    40301353    S.0@    DCD    1076892499
        0x00012d6c:    11016150    Pa..    DCD    285303120
        0x00012d70:    12023121    !1..    DCD    302133537
        0x00012d74:    13033222    "2..    DCD    318976546
        0x00012d78:    4323        #C      DCW    17187
    .L.str.12
        0x00012d7a:    6e49        In      DCW    28233
        0x00012d7c:    696c6176    vali    DCD    1768710518
        0x00012d80:    41552064    d UA    DCD    1096097892
        0x00012d84:    53205452    RT S    DCD    1394627666
        0x00012d88:    69636570    peci    DCD    1768121712
        0x00012d8c:    43206c61    al C    DCD    1126198369
        0x00012d90:    616d6d6f    omma    DCD    1634561391
        0x00012d94:    2520646e    nd %    DCD    622879854
        0x00012d98:    000a0d73    s...    DCD    658803
    .L.str.5
        0x00012d9c:    50205854    TX P    DCD    1344297044
        0x00012da0:    7265776f    ower    DCD    1919252335
        0x00012da4:    74655320     Set    DCD    1952797472
        0x00012da8:    676e6974    ting    DCD    1735289204
        0x00012dac:    6d6f4320     Com    DCD    1836008224
        0x00012db0:    646e616d    mand    DCD    1684955501
        0x00012db4:    0a4b4f20     OK.    DCD    172707616
        0x00012db8:    00          .       DCB    0
    .L.str.8
        0x00012db9:    33324d      32M     DCB    51,50,77
        0x00012dbc:    43207a48    Hz C    DCD    1126201928
        0x00012dc0:    74737972    ryst    DCD    1953724786
        0x00012dc4:    54206c61    al T    DCD    1411411041
        0x00012dc8:    206d6972    rim     DCD    544041330
        0x00012dcc:    6d6d6f43    Comm    DCD    1835888451
        0x00012dd0:    20646e61    and     DCD    543452769
        0x00012dd4:    000a4b4f    OK..    DCD    674639
    .L.str.9
        0x00012dd8:    75646f4d    Modu    DCD    1969516365
        0x00012ddc:    6974616c    lati    DCD    1769234796
        0x00012de0:    49206e6f    on I    DCD    1226862191
        0x00012de4:    7865646e    ndex    DCD    2019910766
        0x00012de8:    6d6f4320     Com    DCD    1836008224
        0x00012dec:    646e616d    mand    DCD    1684955501
        0x00012df0:    0a4b4f20     OK.    DCD    172707616
        0x00012df4:    00          .       DCB    0
    .L.str.11
        0x00012df5:    67656e      gen     DCB    103,101,110
        0x00012df8:    74617265    erat    DCD    1952543333
        0x00012dfc:    6f632065    e co    DCD    1868767333
        0x00012e00:    6174736e    nsta    DCD    1635021678
        0x00012e04:    6d20746e    nt m    DCD    1830843502
        0x00012e08:    7265646f    oder    DCD    1919247471
        0x00012e0c:    64657461    ated    DCD    1684370529
        0x00012e10:    67697320     sig    DCD    1734964000
        0x00012e14:    206c616e    nal     DCD    543973742
        0x00012e18:    65766177    wave    DCD    1702257015
        0x00012e1c:    0a4b4f20     OK.    DCD    172707616
        0x00012e20:    00          .       DCB    0
    .L.str.10
        0x00012e21:    67656e      gen     DCB    103,101,110
        0x00012e24:    74617265    erat    DCD    1952543333
        0x00012e28:    61632065    e ca    DCD    1633886309
        0x00012e2c:    65697272    rrie    DCD    1701409394
        0x00012e30:    61772072    r wa    DCD    1635197042
        0x00012e34:    4f206576    ve O    DCD    1327523190
        0x00012e38:    0a4b        K.      DCW    2635
        0x00012e3a:    00          .       DCB    0
    .L.str.7
        0x00012e3b:    49          I       DCB    73
        0x00012e3c:    6c61766e    nval    DCD    1818326638
        0x00012e40:    54206469    id T    DCD    1411409001
        0x00012e44:    6f502058    X Po    DCD    1867522136
        0x00012e48:    20726577    wer     DCD    544367991
        0x00012e4c:    756c6156    Valu    DCD    1970037078
        0x00012e50:    64252065    e %d    DCD    1680154725
        0x00012e54:    000a        ..      DCW    10
    .L.str.6
        0x00012e56:    5854        TX      DCW    22612
        0x00012e58:    776f5020     Pow    DCD    2003783712
        0x00012e5c:    53207265    er S    DCD    1394635365
        0x00012e60:    69747465    etti    DCD    1769239653
        0x00012e64:    4320676e    ng C    DCD    1126197102
        0x00012e68:    616d6d6f    omma    DCD    1634561391
        0x00012e6c:    4620646e    nd F    DCD    1176527982
        0x00012e70:    656c6961    aile    DCD    1701603681
        0x00012e74:    0a64        d.      DCW    2660
        0x00012e76:    00          .       DCB    0
    .L.str.1
        0x00012e77:    52          R       DCB    82
        0x00012e78:    20646165    ead     DCD    543449445
        0x00012e7c:    6d6f7266    from    DCD    1836020326
        0x00012e80:    454c4220     BLE    DCD    1162625568
        0x00012e84:    6e6f4320     Con    DCD    1852785440
        0x00012e88:    6c6f7274    trol    DCD    1819243124
        0x00012e8c:    2072656c    ler     DCD    544367980
        0x00012e90:    6c696166    fail    DCD    1818845542
        0x00012e94:    000a6465    ed..    DCD    681061
    .L.str
        0x00012e98:    6c6f7041    Apol    DCD    1819242561
        0x00012e9c:    20336f6c    lo3     DCD    540241772
        0x00012ea0:    54524155    UART    DCD    1414676821
        0x00012ea4:    206f7420     to     DCD    544175136
        0x00012ea8:    20495053    SPI     DCD    541675603
        0x00012eac:    64697242    Brid    DCD    1684632130
        0x00012eb0:    6567        ge      DCW    25959
    .L.str.4
        0x00012eb2:    000a        ..      DCW    10
    .L.str.3
        0x00012eb4:    78323025    %02x    DCD    2016555045
        0x00012eb8:    0020         .      DCW    32
    .L.str.2
        0x00012eba:    0a0d        ..      DCW    2573
        0x00012ebc:    454c4220     BLE    DCD    1162625568
        0x00012ec0:    6e6f6320     con    DCD    1852793632
        0x00012ec4:    6c6f7274    trol    DCD    1819243124
        0x00012ec8:    2072656c    ler     DCD    544367980
        0x00012ecc:    70736572    resp    DCD    1886610802
        0x00012ed0:    65736e6f    onse    DCD    1702063727
        0x00012ed4:    6d697420     tim    DCD    1835627552
        0x00012ed8:    74756f65    eout    DCD    1953853285
        0x00012edc:    61772021    ! wa    DCD    1635196961
        0x00012ee0:    7075656b    keup    DCD    1886741867
        0x00012ee4:    6e756f43    Coun    DCD    1853189955
        0x00012ee8:    64253d74    t=%d    DCD    1680162164
        0x00012eec:    0000002c    ,...    DCD    44
    Region$$Table$$Base
        0x00012ef0:    00012f10    ./..    DCD    77584
        0x00012ef4:    10000000    ....    DCD    268435456
        0x00012ef8:    00001678    x...    DCD    5752
        0x00012efc:    0000c170    p...    DCD    49520
        0x00012f00:    00014228    (B..    DCD    82472
        0x00012f04:    10001678    x...    DCD    268441208
        0x00012f08:    00002830    0(..    DCD    10288
        0x00012f0c:    0000c1f0    ....    DCD    49648
    Region$$Table$$Limit

** Section #2 'SRAM' (SHT_PROGBITS) [SHF_ALLOC + SHF_WRITE]
    Size   : 4888 bytes (alignment 8)
    Address: 0x10000000

    Data section was compressed (Original size: 5752 bytes)

    0x10000000:   4e 56 44 53 01 06 06 ef ab 23 88 77 56 02 06 0a    NVDS.....#.wV...
    0x10000010:   4e 5a 38 38 30 31 56 31 41 00 03 06 01 00 07 06    NZ8801V1A.......
    0x10000020:   02 00 00 0c 06 02 32 00 08 06 01 00 09 06 01 02    ......2.........
    0x10000030:   0a 06 04 00 00 00 00 0b 06 01 96 23 06 01 95 0d    ...........#....
    0x10000040:   06 02 e8 03 0e 06 02 e8 03 0f 06 02 2c 01 10 06    ............,...
    0x10000050:   04 00 c2 01 00 11 06 01 01 12 06 01 01 13 06 02    ................
    0x10000060:   f4 01 14 06 02 ac 09 15 06 01 09 16 06 01 03 17    ................
    0x10000070:   06 01 29 18 06 02 dc 05 19 06 02 e2 04 20 06 01    ..).......... ..
    0x10000080:   01 21 06 01 02 22 06 01 00 24 06 04 42 02 60 09    .!..."...$..B.`.
    0x10000090:   25 06 01 11 26 06 01 00 27 06 01 02 2d 06 01 00    %...&...'...-...
    0x100000a0:   28 06 02 f6 3f 29 06 01 0f 35 06 01 08 37 06 01    (...?)...5...7..
    0x100000b0:   00 05 06 02 34 00 04 06 01 20 00 00 00 00 00 00    ....4.... ......
    0x100000c0:   4e 56 44 53 01 06 06 ef bb 23 88 77 66 02 06 0a    NVDS.....#.wf...
    0x100000d0:   4e 5a 38 38 30 31 56 31 41 00 03 06 01 00 07 06    NZ8801V1A.......
    0x100000e0:   02 00 00 0c 06 02 96 00 08 06 01 00 09 06 01 02    ................
    0x100000f0:   0a 06 04 00 00 00 00 0b 06 01 96 23 06 01 95 0d    ...........#....
    0x10000100:   06 02 e8 03 0e 06 02 e8 03 0f 06 02 2c 01 10 06    ............,...
    0x10000110:   04 00 c2 01 00 11 06 01 01 12 06 01 01 13 06 02    ................
    0x10000120:   90 02 14 06 02 ac 09 15 06 01 09 16 06 01 03 17    ................
    0x10000130:   06 01 29 18 06 02 dc 05 19 06 02 e2 04 20 06 01    ..).......... ..
    0x10000140:   01 21 06 01 02 22 06 01 00 24 06 04 5c 09 6a 09    .!..."...$..\.j.
    0x10000150:   25 06 01 11 26 06 01 00 27 06 01 02 2d 06 01 00    %...&...'...-...
    0x10000160:   28 06 02 f6 2d 29 06 01 0f 35 06 01 08 37 06 01    (...-)...5...7..
    0x10000170:   00 05 06 02 34 00 04 06 01 20 2e 06 01 00 40 06    ....4.... ....@.
    0x10000180:   02 10 27 00 00 00 00 00 cc 00 00 00 38 0d 00 00    ..'.........8...
    0x10000190:   15 f5 00 00 b0 0b 01 00 cc 00 00 00 1c 07 00 00    ................
    0x100001a0:   3a 33 00 00 e8 18 01 00 cc 00 00 00 64 00 00 00    :3..........d...
    0x100001b0:   04 c5 00 00 b8 01 00 10 00 22 64 00 01 00 00 00    ........."d.....
    0x100001c0:   3c dd 07 00 00 00 00 00 00 00 00 00 00 00 00 00    <...............
    0x100001d0:   00 00 00 00 00 00 00 00 00 00 00 00 10 bd 00 00    ................
    0x100001e0:   cc 6d 00 20 10 b5 04 46 01 20 80 f3 10 88 09 48    .m. ...F. .....H
    0x100001f0:   00 78 55 28 01 d1 01 f0 35 fb 07 48 40 68 04 60    .xU(....5..H@h.`
    0x10000200:   e5 20 80 47 e5 20 80 47 e5 20 80 47 e5 20 80 47    . .G. .G. .G. .G
    0x10000210:   10 bd 00 00 68 68 00 20 20 68 00 20 dd 00 00 00    ....hh.  h. ....
    0x10000220:   be 00 00 00 77 7e 00 00 00 00 00 10 dd 00 00 00    ....w~..........
    0x10000230:   c7 00 00 00 2b 11 00 00 c0 00 00 10 bb 00 00 00    ....+...........
    0x10000240:   12 09 00 00 16 95 00 00 04 20 01 00 bb 00 00 00    ......... ......
    0x10000250:   04 01 00 00 3d 93 00 00 6c 02 00 10 bb 00 00 00    ....=...l.......
    0x10000260:   b8 12 00 00 7f 64 00 00 70 03 00 10 00 11 02 01    .....d..p.......
    0x10000270:   00 04 00 00 00 00 00 00 03 01 c5 01 39 00 00 00    ............9...
    0x10000280:   00 00 00 00 00 00 00 00 00 00 00 00 00 00 00 00    ................
    0x10000290:   1b 00 a1 06 1f b5 82 b0 08 98 00 90 02 a8 0f c8    ................
    0x100002a0:   01 4c a0 47 06 b0 10 bd 01 35 00 20 00 bf 00 bf    .L.G.....5. ....
    0x100002b0:   00 bf 00 bf 08 48 80 47 00 bf 00 bf 02 2d 05 d1    .....H.G.....-..
    0x100002c0:   06 48 80 47 00 bf 00 bf 05 48 80 47 00 21 03 9a    .H.G.....H.G.!..
    0x100002d0:   04 98 90 47 03 48 00 47 99 4a 01 00 25 4b 01 00    ...G.H.G.J..%K..
    0x100002e0:   af 4a 01 00 8f 4c 01 00 00 00 00 00 04 48 01 68    .J...L.......H.h
    0x100002f0:   28 22 11 43 50 22 91 43 01 60 00 bf 01 48 00 47    (".CP".C.`...H.G
    0x10000300:   00 00 c0 52 63 2a 00 00 00 00 00 00 04 48 01 68    ...Rc*.......H.h
    0x10000310:   50 22 11 43 28 22 91 43 01 60 00 bf 01 48 00 47    P".C(".C.`...H.G
    0x10000320:   00 00 c0 52 83 2a 00 00 00 bf 00 bf 00 bf 00 bf    ...R.*..........
    0x10000330:   08 98 00 28 01 d0 01 20 02 90 00 20 60 85 01 48    ...(... ... `..H
    0x10000340:   00 47 00 bf d5 ed 00 00 00 bf 00 bf 60 88 00 28    .G..........`..(
    0x10000350:   04 d1 10 7d 08 28 01 d3 04 20 10 75 02 98 81 79    ...}.(... .u...y
    0x10000360:   01 20 01 43 02 98 81 71 00 48 00 47 a5 f7 00 00    . .C...q.H.G....
    0x10000370:   00 11 b4 12 00 04 00 00 00 00 00 00 03 01 c5 01    ................
    0x10000380:   39 00 00 00 00 00 00 00 00 00 00 00 00 00 00 00    9...............
    0x10000390:   00 00 00 00 01 01 85 36 02 00 00 00 00 00 00 48    .......6.......H
    0x100003a0:   00 10 00 06 1f b5 00 24 00 99 12 29 45 d0 0e dc    .......$...)E...
    0x100003b0:   2f d2 08 00 78 44 00 79 00 18 87 44 2f 2c 2c 2c    /...xD.y...D/,,,
    0x100003c0:   2c 2c 2c 2c 34 2c 2c 2c 2c 2c 2c 2c 3b 2c 1c 29    ,,,,4,,,,,,,;,.)
    0x100003d0:   42 d0 0c dc 13 39 09 29 1b d2 08 00 78 44 00 79    B....9.)....xD.y
    0x100003e0:   00 18 87 44 18 18 18 18 2d 18 30 33 18 00 6c 29    ...D....-.03..l)
    0x100003f0:   49 d0 08 dc 1d 29 35 d0 21 29 35 d0 5b 29 3c d0    I....)5.!)5.[)<.
    0x10000400:   5e 29 06 d1 34 e0 79 29 4c d0 7a 29 59 d0 7b 29    ^)..4.y)L.z)Y.{)
    0x10000410:   01 d0 00 24 e4 43 20 46 04 b0 10 bd 01 98 c0 b2    ...$.C F........
    0x10000420:   00 f0 fa f8 f7 e7 06 9b 03 9a 02 99 01 98 01 f0    ................
    0x10000430:   79 f8 f0 e7 00 f0 60 f8 ed e7 00 f0 c7 ff ea e7    y.....`.........
    0x10000440:   00 f0 20 fb e7 e7 00 f0 77 fb e4 e7 01 98 c0 b2    .. .....w.......
    0x10000450:   00 f0 b8 f9 04 46 de e7 01 98 c0 b2 00 f0 7a ff    .....F........z.
    0x10000460:   04 46 d8 e7 00 f0 42 fa 00 f0 2e ff 04 46 d2 e7    .F....B......F..
    0x10000470:   01 98 00 f0 09 fe 04 46 cd e7 02 98 c1 b2 01 98    .......F........
    0x10000480:   00 f0 42 fe c7 e7 03 98 00 28 01 d0 01 22 00 e0    ..B......(..."..
    0x10000490:   00 22 02 98 06 9b 81 b2 01 98 80 b2 00 f0 04 fc    ."..............
    0x100004a0:   04 46 b8 e7 03 98 00 28 01 d0 01 22 00 e0 00 22    .F.....(..."..."
    0x100004b0:   02 98 06 9b 81 b2 01 98 80 b2 00 f0 75 fc 04 46    ............u..F
    0x100004c0:   a9 e7 03 98 00 28 01 d0 01 22 00 e0 00 22 02 98    .....(..."..."..
    0x100004d0:   06 9b 81 b2 01 98 80 b2 00 f0 04 fd 04 46 9a e7    .............F..
    0x100004e0:   03 b4 01 48 01 90 01 bd 01 01 00 00 03 b4 01 48    ...H...........H
    0x100004f0:   01 90 01 bd 55 01 00 00 f0 b4 00 20 43 27 3f 06    ....U...... C'?.
    0x10000500:   79 68 ff 24 01 34 21 43 79 60 79 68 22 03 11 43    yh.$.4!Cy`yh"..C
    0x10000510:   79 60 a3 21 c9 05 0a 68 52 08 52 00 0a 60 34 49    y`.!...hR.R..`4I
    0x10000520:   09 69 cd b2 33 49 09 78 c9 07 c9 0f 0a 05 0b 02    .i..3I.x........
    0x10000530:   00 2d 06 d0 30 49 31 4e 09 88 b1 42 0d d3 04 20    .-..0I1N...B... 
    0x10000540:   19 e0 78 68 01 21 09 05 88 43 10 43 78 60 78 68    ..xh.!...C.Cx`xh
    0x10000550:   a0 43 18 43 78 60 f0 bc 70 47 29 4e b1 42 01 d3    .C.Cx`..pG)N.B..
    0x10000560:   03 20 08 e0 27 4e b1 42 01 d3 02 20 03 e0 26 4e    . ..'N.B... ..&N
    0x10000570:   b1 42 00 d3 01 20 25 4e 31 18 20 31 09 7e a9 42    .B... %N1. 1.~.B
    0x10000580:   09 da 00 28 01 dd 40 1e 40 b2 31 18 09 7a 40 00    ...(..@.@.1..z@.
    0x10000590:   80 19 00 8b 0b e0 04 28 04 da 31 5c a9 42 01 db    .......(..1\.B..
    0x100005a0:   40 1c 40 b2 31 18 09 7a 40 00 80 19 00 8b 18 4d    @.@.1..z@......M
    0x100005b0:   29 62 a3 25 ed 05 29 68 49 08 49 00 29 60 15 4e    )b.%..)hI.I.)`.N
    0x100005c0:   31 6b ff 24 01 34 0c 43 34 63 a8 62 ff 24 01 34    1k.$.4.C4c.b.$.4
    0x100005d0:   a1 43 31 63 08 49 08 80 78 68 21 03 88 43 10 43    .C1c.I..xh!..C.C
    0x100005e0:   78 60 78 68 09 13 88 43 18 43 78 60 f0 bc 70 47    x`xh...C.Cx`..pG
    0x100005f0:   80 00 80 45 3a 68 00 20 50 68 00 20 f6 3f 00 00    ...E:h. Ph. .?..
    0x10000600:   f6 38 00 00 f6 2d 00 00 f6 09 00 00 50 6e 00 20    .8...-......Pn. 
    0x10000610:   80 04 c0 50 40 00 80 45 f0 b4 43 21 09 06 4a 68    ...P@..E..C!..Jh
    0x10000620:   01 20 80 04 02 43 4a 60 c4 23 87 22 d2 05 13 60    . ...CJ`.#."...`
    0x10000630:   3e 23 d3 60 4d 4b 53 61 4a 68 82 43 4c 48 00 78    >#.`MKSaJh.CLH.x
    0x10000640:   c0 07 c0 0f 83 04 1a 43 4a 60 8b 23 49 4a db 05    .......CJ`.#IJ..
    0x10000650:   5a 63 49 4c 02 22 e2 60 05 22 ca 60 da 63 01 22    ZcIL.".`.".`.c."
    0x10000660:   22 61 62 62 a2 63 45 4c 22 60 45 4d 65 61 dc 6a    "abb.cEL"`EMea.j
    0x10000670:   14 43 dc 62 4a 68 01 24 24 04 22 43 4a 60 4a 68    .C.bJh.$$."CJ`Jh
    0x10000680:   a5 10 2a 43 4a 60 40 4a 3e 4b 53 61 93 68 3f 26    ..*CJ`@J>KSa.h?&
    0x10000690:   b6 05 33 43 93 60 00 23 d3 60 3c 4b 93 61 3c 4b    ..3C.`.#.`<K.a<K
    0x100006a0:   1b 78 3c 2b 01 d1 06 23 d3 63 3a 4e 33 68 1e 27    .x<+...#.c:N3h.'
    0x100006b0:   bb 43 33 60 93 6a fe 03 b3 43 01 26 b6 04 9b 19    .C3`.j...C.&....
    0x100006c0:   93 62 35 4b f0 22 5a 60 4a 68 03 04 a2 43 1a 43    .b5K."Z`Jh...C.C
    0x100006d0:   4a 60 4a 68 83 03 aa 43 1a 43 4a 60 4a 68 74 11    J`Jh...C.CJ`Jht.
    0x100006e0:   22 43 4a 60 29 22 52 06 13 6a 1b 09 1b 01 08 33    "CJ`)"R..j.....3
    0x100006f0:   13 62 2a 4b d3 60 4a 68 43 03 a2 43 1a 43 4a 60    .b*K.`JhC..C.CJ`
    0x10000700:   4a 68 e5 01 2a 43 4a 60 28 24 a3 23 db 05 1c 60    Jh..*CJ`($.#...`
    0x10000710:   23 4a 12 88 9a 62 23 4b 9a 62 4a 68 00 05 aa 43    #J...b#K.bJh...C
    0x10000720:   02 43 4a 60 20 48 e6 23 03 70 04 72 1f 49 01 83    .CJ` H.#.p.r.I..
    0x10000730:   1f 49 e0 24 0c 76 d4 22 42 70 3c 22 42 72 1d 4a    .I.$.v."Bp<"Br.J
    0x10000740:   42 83 4b 76 c8 22 82 70 46 25 85 72 1a 4d 85 83    B.Kv.".pF%.r.M..
    0x10000750:   8b 76 c2 70 50 22 c2 72 18 4a c2 83 cc 76 5a 22    .v.pP".r.J...vZ"
    0x10000760:   02 73 17 4a 02 84 0c 77 f0 bc 70 47 ff 7f 00 00    .s.J...w..pG....
    0x10000770:   3a 68 00 20 49 02 00 00 40 00 80 45 80 00 80 45    :h. I...@..E...E
    0x10000780:   1e 02 00 00 03 00 3c 00 00 00 40 52 08 00 0f 00    ......<...@R....
    0x10000790:   41 68 00 20 00 00 c0 51 40 00 40 52 cc 34 63 02    Ah. ...Q@.@R.4c.
    0x100007a0:   50 68 00 20 c0 7e 00 20 50 6e 00 20 f6 07 00 00    Ph. .~. Pn. ....
    0x100007b0:   70 6e 00 20 f6 09 00 00 f6 2d 00 00 f6 38 00 00    pn. .....-...8..
    0x100007c0:   f6 3f 00 00 f8 b5 3f 48 00 68 00 28 78 d1 43 20    .?....?H.h.(x.C 
    0x100007d0:   00 06 41 68 01 22 d2 03 11 43 41 60 3a 4f 3d 68    ..Ah."...CA`:O=h
    0x100007e0:   01 26 03 20 00 06 28 43 38 60 00 24 37 49 1e 20    .&. ..(C8`.$7I. 
    0x100007f0:   88 47 36 49 01 20 88 47 78 68 c0 07 c0 0f 21 46    .G6I. .Gxh....!F
    0x10000800:   33 4a 64 1c 91 42 01 d8 00 28 f2 d0 2e 48 80 68    3Jd..B...(...H.h
    0x10000810:   30 49 08 60 00 24 00 27 00 2e 11 d0 2e 4a 39 46    0I.`.$.'.....J9F
    0x10000820:   00 23 82 1a 99 41 14 da 64 1c 23 46 2a 4e 43 43    .#...A..d.#F*NCC
    0x10000830:   3a 46 00 21 f3 1a 91 41 c3 1a 8a 41 f4 db 08 e0    :F.!...A...A....
    0x10000840:   26 49 88 42 05 d2 64 1c 22 46 42 43 8a 1a 82 42    &I.B..d."FBC...B
    0x10000850:   f9 d8 23 4f 21 46 38 46 ff f7 42 fe 06 46 30 46    ..#O!F8F..B..F0F
    0x10000860:   60 43 38 1a 00 03 21 46 ff f7 3a fe 07 46 7d 20    `C8...!F..:..F} 
    0x10000870:   19 21 00 02 89 01 84 42 05 d9 20 1a 00 04 ff f7    .!.....B.. .....
    0x10000880:   2f fe 01 46 04 e0 00 1b 00 04 ff f7 29 fe 01 46    /..F........)..F
    0x10000890:   14 48 06 63 47 63 81 63 01 20 00 06 85 43 40 00    .H.cGc.c. ...C@.
    0x100008a0:   05 43 09 48 05 60 43 20 00 06 41 68 01 22 d2 03    .C.H.`C ..Ah."..
    0x100008b0:   91 43 0d 4a 12 78 d2 07 12 0c 11 43 41 60 20 46    .C.J.x.....CA` F
    0x100008c0:   f8 bd 00 00 60 68 00 20 00 00 40 44 e5 3e 00 00    ....`h. ..@D.>..
    0x100008d0:   10 27 00 00 64 68 00 20 00 20 bc be 00 d0 12 13    .'..dh. . ......
    0x100008e0:   00 90 d0 03 c0 7e 00 20 3a 68 00 20 51 48 80 47    .....~. :h. QH.G
    0x100008f0:   51 48 80 47 51 48 80 47 51 48 52 49 00 68 88 47    QH.GQH.GQHRI.h.G
    0x10000900:   01 20 ff f7 5f ff 50 49 08 60 50 48 80 47 50 48    . .._.PI.`PH.GPH
    0x10000910:   80 47 50 48 80 47 00 20 c0 26 4f 4c ff 27 01 46    .GPH.G. .&OL.'.F
    0x10000920:   40 1c 49 b2 00 29 10 da 0a 07 12 0f 08 3a 92 08    @.I..).......:..
    0x10000930:   92 00 12 19 d5 69 89 07 c9 0e 3b 46 8b 40 9d 43    .....i....;F.@.C
    0x10000940:   33 46 8b 40 1d 43 d5 61 0d e0 8b 08 43 4a 9b 00    3F.@.C.a....CJ..
    0x10000950:   9a 18 13 68 89 07 c9 0e 3d 46 8d 40 ab 43 35 46    ...h....=F.@.C5F
    0x10000960:   8d 40 2b 43 13 60 1e 28 d9 d9 3d 49 08 68 00 0a    .@+C.`.(..=I.h..
    0x10000970:   00 02 08 60 08 68 ff 23 1b 02 98 43 08 60 0a 1d    ...`.h.#...C.`..
    0x10000980:   10 68 00 02 00 0a 10 60 08 68 1d 02 01 26 a8 43    .h.....`.h...&.C
    0x10000990:   f6 05 30 43 08 60 08 1f 01 68 09 02 09 0a c7 06    ..0C.`...h......
    0x100009a0:   39 43 01 60 10 68 00 27 01 0a 09 02 80 20 01 43    9C.`.h.'..... .C
    0x100009b0:   11 60 10 68 71 12 98 43 08 43 10 60 10 68 a8 43    .`.hq..C.C.`.h.C
    0x100009c0:   30 43 10 60 00 20 80 f3 10 88 26 4e 26 48 80 47    0C.`. ....&N&H.G
    0x100009d0:   26 48 80 47 26 48 80 47 00 28 f7 d0 25 4d a8 47    &H.G&H.G.(..%M.G
    0x100009e0:   00 28 f3 db b0 47 00 28 f0 d1 23 48 80 47 a8 47    .(...G.(..#H.G.G
    0x100009f0:   00 28 eb db b0 47 00 28 e8 d1 ef f3 10 80 c5 b2    .(...G.(........
    0x10000a00:   01 20 80 f3 10 88 1d 48 80 47 00 28 0e d0 1c 48    . .....H.G.(...H
    0x10000a10:   01 68 00 29 05 d0 07 60 00 f0 34 f8 00 f0 8c f8    .h.)...`..4.....
    0x10000a20:   04 e0 20 69 fb 21 08 40 20 61 30 bf 85 f3 10 88    .. i.!.@ a0.....
    0x10000a30:   cc e7 00 00 6d 95 00 00 19 5f 01 00 6d 4f 01 00    ....m...._..mO..
    0x10000a40:   20 68 00 20 a5 58 01 00 58 68 00 20 55 4f 01 00     h. .X..Xh. UO..
    0x10000a50:   65 50 01 00 49 4f 01 00 00 ed 00 e0 00 e4 00 e0    eP..IO..........
    0x10000a60:   0c e4 00 e0 51 3a 00 00 79 5a 01 00 89 39 00 00    ....Q:..yZ...9..
    0x10000a70:   59 3f 00 00 1d 61 00 00 75 3a 00 00 8d 5a 01 00    Y?...a..u:...Z..
    0x10000a80:   70 68 00 20 f8 b5 00 24 24 48 80 47 43 25 2d 06    ph. ...$$H.GC%-.
    0x10000a90:   01 21 68 68 89 04 08 43 68 60 8b 26 f6 05 30 68    .!hh...Ch`.&..0h
    0x10000aa0:   08 21 88 43 30 60 1e 48 80 47 06 20 e8 60 1d 4d    .!.C0`.H.G. .`.M
    0x10000ab0:   01 20 a8 47 a1 20 c0 05 01 6b 02 22 91 43 11 43    . .G. ...k.".C.C
    0x10000ac0:   01 63 01 21 02 6b 8a 43 0a 43 02 63 01 6b 04 27    .c.!.k.C.C.c.k.'
    0x10000ad0:   b9 43 39 43 01 63 14 48 41 68 89 00 0a d5 01 20    .C9C.c.HAh..... 
    0x10000ae0:   a8 47 20 46 64 1c e4 b2 19 28 03 d8 0e 48 40 68    .G Fd....(...H@h
    0x10000af0:   80 00 f4 d4 0d 4c 0f 20 60 60 01 20 a8 47 07 20    .....L. ``. .G. 
    0x10000b00:   60 60 04 20 a8 47 06 20 60 60 09 48 30 60 09 48    ``. .G. ``.H0`.H
    0x10000b10:   01 69 39 43 01 61 30 bf f8 bd 00 00 75 3a 00 00    .i9C.a0.....u:..
    0x10000b20:   85 a3 00 00 e5 3e 00 00 80 00 80 45 40 00 80 45    .....>.....E@..E
    0x10000b30:   26 03 00 00 00 ed 00 e0 70 b5 48 4d 0f 20 68 60    &.......p.HM. h`
    0x10000b40:   8b 20 c0 05 01 68 46 4a 11 40 01 60 01 68 08 22    . ...hFJ.@.`.h."
    0x10000b50:   11 43 01 60 28 6a 04 21 08 43 28 62 41 48 80 47    .C.`(j.!.C(bAH.G
    0x10000b60:   05 20 43 24 24 06 e0 60 3f 4e 01 20 b0 47 3f 48    . C$$..`?N. .G?H
    0x10000b70:   80 47 3f 48 80 47 3f 48 80 47 68 68 0d 28 03 d0    .G?H.G?H.Ghh.(..
    0x10000b80:   20 20 b0 47 0d 20 68 60 3b 48 80 47 60 68 01 23      .G. h`;H.G`h.#
    0x10000b90:   1b 04 18 43 60 60 60 68 9a 10 10 43 60 60 38 48    ...C```h...C``8H
    0x10000ba0:   36 49 41 61 81 68 3f 25 ad 05 29 43 81 60 00 21    6IAa.h?%..)C.`.!
    0x10000bb0:   c1 60 34 49 81 61 34 49 09 78 3c 29 01 d1 06 21    .`4I.a4I.x<)...!
    0x10000bc0:   c1 63 32 4d 29 68 1e 26 b1 43 29 60 81 6a f5 03    .c2M)h.&.C)`.j..
    0x10000bd0:   a9 43 01 25 ad 04 49 19 81 62 2d 49 f0 20 48 60    .C.%..I..b-I. H`
    0x10000be0:   61 68 2c 48 99 43 00 78 c0 07 c0 0f 03 04 19 43    ah,H.C.x.......C
    0x10000bf0:   61 60 61 68 91 43 82 03 11 43 61 60 61 68 6a 11    a`ah.C...Ca`ahj.
    0x10000c00:   11 43 61 60 29 21 24 4b 49 06 cb 60 0b 6a 1b 09    .Ca`)!$KI..`.j..
    0x10000c10:   1b 01 08 33 0b 62 0b 68 d5 10 2b 43 0b 60 1f 4b    ...3.b.h..+C.`.K
    0x10000c20:   1b 78 5b 00 5b 1c 4b 61 61 68 91 43 42 03 11 43    .x[.[.Kaah.CB..C
    0x10000c30:   61 60 62 68 a9 02 0a 43 62 60 28 23 a3 22 d2 05    a`bh...Cb`(#."..
    0x10000c40:   13 60 17 4b 1b 88 93 62 62 68 00 05 8a 43 02 43    .`.K...bbh...C.C
    0x10000c50:   62 60 14 49 01 20 88 47 70 bd 00 00 40 00 80 45    b`.I. .Gp...@..E
    0x10000c60:   fd fd ff ff 75 3a 00 00 e5 3e 00 00 65 50 01 00    ....u:...>..eP..
    0x10000c70:   29 48 01 00 c5 64 01 00 69 48 01 00 03 00 3c 00    )H...d..iH....<.
    0x10000c80:   00 00 40 52 08 00 0f 00 41 68 00 20 00 00 c0 51    ..@R....Ah. ...Q
    0x10000c90:   40 00 40 52 3a 68 00 20 cc 34 63 04 74 68 00 20    @.@R:h. .4c.th. 
    0x10000ca0:   50 68 00 20 a1 59 01 00 ff b5 81 b0 0d 46 00 26    Ph. .Y.......F.&
    0x10000cb0:   35 49 28 46 88 47 00 90 01 98 87 00 33 48 c4 59    5I(F.G......3H.Y
    0x10000cc0:   20 46 a0 30 41 79 09 07 07 d5 00 79 07 28 04 d0     F.0Ay.....y.(..
    0x10000cd0:   2f 4a 3d 21 01 98 90 47 52 e0 2e 49 01 98 88 47    /J=!...GR..I...G
    0x10000ce0:   04 28 4d d1 68 46 01 78 02 20 88 43 08 d0 00 20    .(M.hF.x. .C... 
    0x10000cf0:   00 28 07 d0 a4 20 00 5d 07 28 03 d0 02 26 3f e0    .(... .].(...&?.
    0x10000d00:   01 20 f5 e7 28 46 02 22 11 43 00 91 22 4e b0 47    . ..(F.".C.."N.G
    0x10000d10:   28 46 04 23 6a 46 11 78 19 43 00 91 b0 47 08 20    (F.#jF.x.C...G. 
    0x10000d20:   a4 21 08 55 04 98 80 1e 18 4e f1 59 88 60 ff 20    .!.U.....N.Y.`. 
    0x10000d30:   1a 4a 29 46 03 30 90 47 ef f3 10 80 c1 b2 01 20    .J)F.0.G....... 
    0x10000d40:   80 f3 10 88 f0 59 0c 23 a0 30 42 79 1a 43 42 71    .....Y.#.0By.CBq
    0x10000d50:   20 69 28 30 60 30 00 7e 81 f3 10 88 00 28 05 d0     i(0`0.~.....(..
    0x10000d60:   40 34 a0 8b 04 21 08 43 a0 83 08 e0 ff 20 07 30    @4...!.C..... .0
    0x10000d70:   0b 4c 00 23 2a 46 29 46 a0 47 0a 49 88 47 01 26    .L.#*F)F.G.I.G.&
    0x10000d80:   30 46 05 b0 f0 bd 00 00 0d 9f 00 00 64 69 00 20    0F..........di. 
    0x10000d90:   25 c4 00 00 1d 0a 01 00 31 9f 00 00 89 a1 00 00    %.......1.......
    0x10000da0:   f5 9d 00 00 31 9e 00 00 ff b5 81 b0 1d 46 00 20    ....1........F. 
    0x10000db0:   00 90 01 98 42 49 80 00 0e 58 01 23 34 46 40 34    ....BI...X.#4F@4
    0x10000dc0:   e2 7c 1a 43 e2 74 08 58 a0 30 40 79 00 07 03 d5    .|.C.t.X.0@y....
    0x10000dd0:   3c 4a 3d 21 01 98 90 47 6a 88 1b 2a 0a d3 eb 88    <J=!...Gj..*....
    0x10000de0:   1b 2b 07 d3 a9 88 ff 27 49 37 b9 42 02 d3 28 89    .+.....'I7.B..(.
    0x10000df0:   b8 42 05 d2 34 4b 29 78 20 22 01 98 98 47 5b e0    .B..4K)x "...G[.
    0x10000e00:   a5 88 9d 42 00 d2 2b 46 9b b2 a5 89 85 42 00 d2    ...B..+F.....B..
    0x10000e10:   28 46 80 b2 65 88 95 42 00 d2 2a 46 92 b2 65 89    (F..e..B..*F..e.
    0x10000e20:   8d 42 00 d2 29 46 89 b2 25 89 9d 42 08 d1 25 8a    .B..)F..%..B..%.
    0x10000e30:   85 42 05 d1 e5 88 95 42 02 d1 e5 89 8d 42 12 d0    .B.....B.....B..
    0x10000e40:   ef f3 10 85 ed b2 01 27 87 f3 10 88 23 81 20 82    .......'....#. .
    0x10000e50:   e2 80 e1 81 1d 4b 30 69 98 47 85 f3 10 88 e0 7c    .....K0i.G.....|
    0x10000e60:   fd 21 08 40 e0 74 1a 49 01 98 88 47 e0 7c 40 08    .!.@.t.I...G.|@.
    0x10000e70:   40 00 e0 74 17 49 40 22 09 7f 11 40 00 d0 01 21    @..t.I@"...@...!
    0x10000e80:   00 29 19 d0 80 07 17 d4 0c 23 14 4d 3e 22 12 48    .).......#.M>".H
    0x10000e90:   01 99 a8 47 07 21 01 70 01 99 41 80 21 89 01 81    ...G.!.p..A.!...
    0x10000ea0:   21 8a 41 81 e1 88 81 80 e1 89 c1 80 0c 49 88 47    !.A..........I.G
    0x10000eb0:   e0 7c 02 21 08 43 e0 74 00 98 05 b0 f0 bd 00 00    .|.!.C.t........
    0x10000ec0:   64 69 00 20 25 c4 00 00 3d bb 00 00 95 26 01 00    di. %...=....&..
    0x10000ed0:   e5 b7 00 00 b8 68 00 20 04 08 00 00 f5 9d 00 00    .....h. ........
    0x10000ee0:   b5 8f 00 00 ff b5 85 b0 0c 46 1d 46 00 20 04 90    .........F.F. ..
    0x10000ef0:   59 49 20 46 88 47 03 90 05 98 81 00 57 48 46 58    YI F.G......WHFX
    0x10000f00:   a5 20 80 5d 00 07 04 d5 55 4a 3d 21 05 98 90 47    . .]....UJ=!...G
    0x10000f10:   9f e0 ff 20 53 4a 21 46 03 30 90 47 68 46 02 7b    ... SJ!F.0.GhF.{
    0x10000f20:   01 20 90 43 08 d0 00 20 00 28 7d d0 30 46 a0 30    . .C... .(}.0F.0
    0x10000f30:   c1 78 04 29 02 d0 87 e0 01 20 f5 e7 69 88 1b 29    .x.)..... ..i..)
    0x10000f40:   72 d3 e9 88 1b 29 7f d3 ab 88 ff 21 49 31 8b 42    r....).....!I1.B
    0x10000f50:   7a d3 2b 89 8b 42 77 d3 00 21 c1 70 51 08 49 00    z.+..Bw..!.pQ.I.
    0x10000f60:   03 91 41 4a 20 46 90 47 34 46 40 34 a0 88 e9 88    ..AJ F.G4F@4....
    0x10000f70:   88 42 00 d3 08 46 80 b2 02 90 a0 89 29 89 88 42    .B...F......)..B
    0x10000f80:   00 d3 08 46 80 b2 01 90 60 88 69 88 88 42 00 d3    ...F....`.i..B..
    0x10000f90:   08 46 87 b2 60 89 a9 88 88 42 00 d3 08 46 85 b2    .F..`....B...F..
    0x10000fa0:   32 4b 30 69 29 46 01 9a 98 47 21 89 02 98 81 42    2K0i)F...G!....B
    0x10000fb0:   09 d1 21 8a 01 98 81 42 05 d1 e0 88 b8 42 02 d1    ..!....B.....B..
    0x10000fc0:   e0 89 a8 42 1a d0 67 80 65 81 ef f3 10 80 c0 b2    ...B..g.e.......
    0x10000fd0:   00 90 01 20 80 f3 10 88 02 98 20 81 01 98 20 82    ... ...... ... .
    0x10000fe0:   e7 80 e5 81 22 4b 3a 46 29 46 30 69 98 47 00 98    ...."K:F)F0i.G..
    0x10000ff0:   80 f3 10 88 e0 7c fd 21 08 40 e0 74 1d 48 40 21    .....|.!.@.t.H@!
    0x10001000:   00 7f 08 40 00 d0 01 20 00 28 22 d0 e0 7c 80 07    ...@... .("..|..
    0x10001010:   1f d4 0c 23 19 4d 3e 22 17 48 05 99 a8 47 07 21    ...#.M>".H...G.!
    0x10001020:   01 70 05 99 41 80 00 e0 0e e0 21 89 01 81 21 8a    .p..A.....!...!.
    0x10001030:   41 81 e1 88 81 80 e1 89 c1 80 11 49 88 47 e0 7c    A..........I.G.|
    0x10001040:   02 21 08 43 e0 74 04 e0 0e 4b 29 78 20 22 05 98    .!.C.t...K)x "..
    0x10001050:   98 47 04 98 09 b0 f0 bd 0d 9f 00 00 64 69 00 20    .G..........di. 
    0x10001060:   25 c4 00 00 89 a1 00 00 31 9f 00 00 71 25 01 00    %.......1...q%..
    0x10001070:   95 26 01 00 b8 68 00 20 04 08 00 00 f5 9d 00 00    .&...h. ........
    0x10001080:   b5 8f 00 00 3d bb 00 00 70 b5 05 46 00 21 1a 4a    ....=...p..F.!.J
    0x10001090:   10 20 90 47 04 46 00 20 00 2c 29 d0 28 88 17 49    . .G.F. .,).(..I
    0x100010a0:   80 00 08 58 00 69 28 30 08 30 a9 68 e1 60 29 88    ...X.i(0.0.h.`).
    0x100010b0:   e1 80 a9 88 21 81 a9 78 a1 72 2f 21 a1 80 01 21    ....!..x.r/!...!
    0x100010c0:   81 f3 10 88 0e 4a 21 46 90 47 00 20 80 f3 10 88    .....J!F.G. ....
    0x100010d0:   01 20 e1 88 5a 22 51 43 0a 4a 89 18 4a 8a 12 0b    . ..Z"QC.J..J...
    0x100010e0:   02 2a 05 d3 4a 8a 12 05 12 0d 03 03 1a 43 4a 82    .*..J........CJ.
    0x100010f0:   00 28 00 d0 01 20 70 bd 75 9c 00 00 64 69 00 20    .(... p.u...di. 
    0x10001100:   a7 3c 00 00 80 40 80 50 f3 b5 85 b0 65 4a 04 92    .<...@.P....eJ..
    0x10001110:   16 78 4a 1e d2 b2 06 92 00 29 72 d0 01 46 40 31    .xJ......)r..F@1
    0x10001120:   03 91 61 49 05 46 80 35 02 91 a8 79 c0 06 69 d4    ..aI.F.5...y..i.
    0x10001130:   01 21 5e 4a 10 20 90 47 04 46 0c 20 5c 4f 70 43    .!^J. .G.F. \OpC
    0x10001140:   c0 19 01 8e 26 71 03 9a 92 8f e2 80 c2 8d 22 81    ....&q........".
    0x10001150:   23 46 0b 33 9c 46 5b 1c 22 46 9e 46 40 8e c3 0b    #F.3.F[."F.F@...
    0x10001160:   53 73 82 04 92 0e 63 46 1a 70 73 46 18 70 00 20    Ss....cF.psF.p. 
    0x10001170:   60 71 a8 79 c2 07 05 d0 22 7a 52 06 02 d4 40 08    `q.y...."zR...@.
    0x10001180:   40 00 a8 71 e0 88 04 28 6f d0 08 0a a0 72 a8 79    @..q...(o....r.y
    0x10001190:   82 07 0f d5 22 7a d2 07 0c d1 fd 22 10 40 a8 71    ...."z.....".@.q
    0x100011a0:   e0 88 ff 23 82 00 43 48 80 58 40 30 82 8b 01 33    ...#..CH.X@0...3
    0x100011b0:   1a 43 82 83 22 89 ff 20 40 30 02 40 45 d1 a0 7a    .C..".. @0.@E..z
    0x100011c0:   00 28 42 d0 89 07 89 0f 01 91 e1 88 39 4a 8b 00    .(B.........9J..
    0x100011d0:   d2 58 a0 32 52 79 92 07 01 d5 00 1f a0 72 01 98    .X.2Ry.......r..
    0x100011e0:   01 28 1f d0 02 28 1d d0 03 28 0c d0 20 79 0c 21    .(...(...(.. y.!
    0x100011f0:   48 43 c0 19 81 8d 49 04 49 0c 81 85 01 20 60 71    HC....I.I.... `q
    0x10001200:   33 e0 4a e0 36 e0 2c 4a a1 7a 20 46 90 47 20 79    3.J.6.,J.z F.G y
    0x10001210:   0c 21 48 43 c0 19 81 8d 49 04 49 0c 81 85 01 20    .!HC....I.I.... 
    0x10001220:   60 71 22 e0 08 02 40 1c 81 b2 08 23 23 4f 0a 46    `q"...@....##O.F
    0x10001230:   58 01 b8 47 e1 88 01 80 a1 7a 81 80 01 99 81 70    X..G.....z.....p
    0x10001240:   21 79 81 71 1e 49 88 47 0f e0 00 2a 03 d0 a8 79    !y.q.I.G...*...y
    0x10001250:   01 21 08 43 a8 71 20 79 0c 21 48 43 c0 19 81 8d    .!.C.q y.!HC....
    0x10001260:   49 04 49 0c 81 85 01 20 60 71 16 4a 21 46 02 98    I.I.... `q.J!F..
    0x10001270:   90 47 08 e0 0c 20 31 46 41 43 0d 48 08 18 81 8d    .G... 1FAC.H....
    0x10001280:   49 04 49 0c 81 85 76 1c 76 07 76 0f 06 98 41 1e    I.I...v.v.v...A.
    0x10001290:   c9 b2 06 91 00 28 00 d0 47 e7 04 98 06 70 07 b0    .....(..G....p..
    0x100012a0:   f0 bd 00 00 5c 6c 00 20 b0 69 00 20 75 9c 00 00    ....\l. .i. u...
    0x100012b0:   80 44 80 50 64 69 00 20 ad 14 01 00 f5 9d 00 00    .D.Pdi. ........
    0x100012c0:   31 9e 00 00 a7 3c 00 00 10 b5 19 48 80 7a c0 07    1....<.....H.z..
    0x100012d0:   01 d0 00 20 10 bd 17 48 80 47 05 20 00 07 c0 69    ... ...H.G. ...i
    0x100012e0:   15 49 00 05 04 d0 08 78 01 28 15 d0 02 28 13 d0    .I.....x.(...(..
    0x100012f0:   08 78 00 28 08 d0 01 28 06 d0 02 28 04 d0 0f 48    .x.(...(...(...H
    0x10001300:   80 47 0f 49 32 20 88 47 0e 48 41 68 0d 29 08 d0    .G.I2 .G.HAh.)..
    0x10001310:   40 68 0e 28 05 d0 06 e0 0b 49 04 20 88 47 01 20    @h.(.....I. .G. 
    0x10001320:   10 bd 0a 48 80 47 0a 49 04 20 88 47 00 20 10 bd    ...H.G.I. .G. ..
    0x10001330:   0c 6e 00 20 51 9a 00 00 18 10 00 20 69 61 01 00    .n. Q...... ia..
    0x10001340:   e5 3e 00 00 40 00 80 45 a1 59 01 00 d3 60 01 00    .>..@..E.Y...`..
    0x10001350:   59 59 01 00 41 b2 15 48 00 88 15 4a 90 42 01 d1    YY..A..H...J.B..
    0x10001360:   41 20 1e e0 13 4a 90 42 01 d1 3c 20 19 e0 12 4a    A ...J.B..< ...J
    0x10001370:   90 42 01 d1 37 20 14 e0 10 4a 90 42 01 d1 32 20    .B..7 ...J.B..2 
    0x10001380:   0f e0 0f 4a 90 42 01 d1 2d 20 0a e0 0d 4a 90 42    ...J.B..- ...J.B
    0x10001390:   01 d1 37 20 05 e0 0c 4a 90 42 01 d1 2f 20 00 e0    ..7 ...J.B../ ..
    0x100013a0:   28 20 40 42 40 18 40 b2 70 47 00 00 50 68 00 20    ( @B@.@.pG..Ph. 
    0x100013b0:   f6 3f 00 00 f6 38 00 00 f6 2d 00 00 f6 09 00 00    .?...8...-......
    0x100013c0:   f6 07 00 00 f6 20 00 00 96 20 00 00 70 b5 42 48    ..... ... ..p.BH
    0x100013d0:   41 68 0d 29 06 d0 0d 21 41 60 40 49 01 20 88 47    Ah.)...!A`@I. .G
    0x100013e0:   3f 48 80 47 43 24 24 06 60 68 01 22 52 03 10 43    ?H.GC$$.`h."R..C
    0x100013f0:   60 60 29 20 3b 49 40 06 c1 60 01 6a 09 09 09 01    ``) ;I@..`.j....
    0x10001400:   08 31 01 62 01 68 d3 10 19 43 01 60 36 49 09 78    .1.b.h...C.`6I.x
    0x10001410:   49 00 49 1c 41 61 61 68 34 4e 91 43 30 78 c0 07    I.I.Aaah4N.C0x..
    0x10001420:   c0 0f 42 03 11 43 61 60 31 49 09 78 3c 29 0b d1    ..B..Ca`1I.x<)..
    0x10001430:   62 68 99 01 0a 43 62 60 2e 4b 06 22 da 63 62 68    bh...Cb`.K.".cbh
    0x10001440:   8a 43 01 04 0a 43 62 60 61 68 01 22 12 05 11 43    .C...Cb`ah."...C
    0x10001450:   61 60 28 25 a3 21 c9 05 0d 60 27 4b 1b 88 8b 62    a`(%.!...`'K...b
    0x10001460:   61 68 00 05 91 43 01 43 61 60 ff f7 3f f8 80 02    ah...C.Ca`..?...
    0x10001470:   80 0a 29 07 01 43 21 48 81 62 60 68 ff 21 01 31    ..)..C!H.b`h.!.1
    0x10001480:   08 43 60 60 1e 48 1f 4a 00 78 c3 07 db 0f 53 61    .C``.H.J.x....Sa
    0x10001490:   c0 06 c0 0f 90 61 1c 48 1c 4a 00 88 90 42 01 d0    .....a.H.J...B..
    0x100014a0:   1b 4a 50 62 1b 48 02 78 1b 48 00 2a 01 d0 01 22    .JPb.H.x.H.*..."
    0x100014b0:   82 60 1a 4a 12 78 00 2a 05 d0 45 62 18 4b 26 22    .`.J.x.*..Eb.K&"
    0x100014c0:   1a 61 02 22 c2 62 60 68 88 43 31 78 c9 07 c9 0d    .a.".b`h.C1x....
    0x100014d0:   08 43 60 60 70 bd 00 00 40 00 80 45 e5 3e 00 00    .C``p...@..E.>..
    0x100014e0:   d3 60 01 00 cc 34 63 04 74 68 00 20 3a 68 00 20    .`...4c.th. :h. 
    0x100014f0:   41 68 00 20 00 00 40 52 50 68 00 20 00 01 80 50    Ah. ..@RPh. ...P
    0x10001500:   35 68 00 20 40 04 c0 50 52 68 00 20 ff 0f 00 00    5h. @..PRh. ....
    0x10001510:   80 04 c0 50 39 68 00 20 00 04 c0 50 36 68 00 20    ...P9h. ...P6h. 
    0x10001520:   c0 04 c0 50 ff b5 ff b0 82 b0 05 46 0c 46 00 27    ...P.......F.F.'
    0x10001530:   2d 49 02 20 88 47 2d 48 80 47 2d 48 80 47 2d 48    -I. .G-H.G-H.G-H
    0x10001540:   80 47 2d 48 2d 4b 00 78 2d 4e 00 28 02 d0 01 28    .G-H-K.x-N.(...(
    0x10001550:   08 d0 1e e0 64 1e a7 b2 28 78 b0 61 39 46 68 1c    ....d...(x.a9Fh.
    0x10001560:   98 47 16 e0 69 46 0c 70 20 0a 48 70 00 22 68 46    .G..iF.p .Hp."hF
    0x10001570:   00 2c 06 d9 a9 5c 87 18 b9 70 52 1c 92 b2 a2 42    .,...\...pR....B
    0x10001580:   f8 d3 64 1c a7 b2 69 46 09 78 b1 61 39 46 40 1c    ..d...iF.x.a9F@.
    0x10001590:   98 47 78 07 40 0f f1 68 09 07 09 0f 81 42 fa d3    .Gx.@..h.....B..
    0x100015a0:   18 49 0a 20 88 47 18 48 80 47 18 48 81 68 89 07    .I. .G.H.G.H.h..
    0x100015b0:   fc d5 70 68 80 07 fc d5 08 20 70 60 00 20 b0 61    ..ph..... p`. .a
    0x100015c0:   13 48 80 47 13 48 80 47 83 9a 00 21 84 98 90 47    .H.G.H.G...!...G
    0x100015d0:   11 48 00 78 00 28 03 d1 12 4a 10 49 10 48 90 47    .H.x.(...J.I.H.G
    0x100015e0:   7f b0 06 b0 f0 bd 00 00 a1 59 01 00 bd 60 01 00    .........Y...`..
    0x100015f0:   e9 5f 00 00 ad 2d 00 00 3e 68 00 20 09 43 00 00    ._...-..>h. .C..
    0x10001600:   00 00 c0 52 e5 3e 00 00 09 62 01 00 c0 02 00 50    ...R.>...b.....P
    0x10001610:   9d 2d 00 00 f5 61 01 00 01 10 00 20 ff 03 00 00    .-...a..... ....
    0x10001620:   18 10 00 20 85 42 00 00 0a 00 00 00 03 00 00 00    ... .B..........
    0x10001630:   1e 00 00 00 03 00 00 00 0f 00 00 00 03 00 00 00    ................
    0x10001640:   0e 00 00 00 03 00 00 00 11 00 00 00 03 00 00 00    ................
    0x10001650:   3c 02 00 10 50 16 00 10 4c 02 00 10 88 01 00 10    <...P...L.......
    0x10001660:   1c 02 00 10 5c 02 00 10 98 01 00 10 2c 02 00 10    ....\.......,...
    0x10001670:   58 16 00 10 64 16 00 10                            X...d...


** Section #3 'SRAM' (SHT_NOBITS) [SHF_ALLOC + SHF_WRITE]
    Size   : 10288 bytes (alignment 8)
    Address: 0x10001678


** Section #4 '.debug_abbrev' (SHT_PROGBITS)
    Size   : 1702 bytes


** Section #5 '.debug_frame' (SHT_PROGBITS)
    Size   : 6844 bytes


** Section #6 '.debug_info' (SHT_PROGBITS)
    Size   : 28755 bytes


** Section #7 '.debug_line' (SHT_PROGBITS)
    Size   : 8642 bytes


** Section #8 '.debug_str' (SHT_PROGBITS)
    Size   : 16514 bytes


** Section #9 '.debug_ranges' (SHT_PROGBITS)
    Size   : 400 bytes


** Section #10 '.symtab' (SHT_SYMTAB)
    Size   : 8032 bytes (alignment 4)
    String table #11 '.strtab'
    Last local symbol no. 251

    Symbol table .symtab (501 symbols, 251 local)

      #  Symbol Name                Value      Bind  Sec  Type  Vis  Size
    ========================================================================

      1  $d                         0x0000c000   Lc    1   --   De 
      2  $t                         0x0000c100   Lc    1   --   De 
      3  $d                         0x0000c130   Lc    1   --   De 
      4  $t                         0x0000c134   Lc    1   --   De 
      5  $d                         0x0000c168   Lc    1   --   De 
      6  $t                         0x0000c170   Lc    1   --   De 
      7  $d                         0x0000c242   Lc    1   --   De 
      8  $t                         0x0000c250   Lc    1   --   De 
      9  $d                         0x0000c3f4   Lc    1   --   De 
     10  $t                         0x0000c3f8   Lc    1   --   De 
     11  $d                         0x0000c400   Lc    1   --   De 
     12  $t                         0x0000c404   Lc    1   --   De 
     13  $t.0                       0x0000c408   Lc    1   --   De 
     14  $d.26                      0x0000c9ec   Lc    1   --   De 
     15  $t.27                      0x0000c9f0   Lc    1   --   De 
     16  $d.4                       0x0000da36   Lc    1   --   De 
     17  $t.5                       0x0000da48   Lc    1   --   De 
     18  $d.1                       0x0000dbb4   Lc    1   --   De 
     19  $t.2                       0x0000dbbe   Lc    1   --   De 
     20  $d.1                       0x0000df08   Lc    1   --   De 
     21  $t.2                       0x0000df0c   Lc    1   --   De 
     22  $d.3                       0x0000dfb8   Lc    1   --   De 
     23  $t.7                       0x0000e020   Lc    1   --   De 
     24  $d.8                       0x0000e056   Lc    1   --   De 
     25  $t.9                       0x0000e05c   Lc    1   --   De 
     26  $d.4                       0x0000e5bc   Lc    1   --   De 
     27  $t.5                       0x0000e5c0   Lc    1   --   De 
     28  $d.5                       0x0000e8b4   Lc    1   --   De 
     29  $t.0                       0x0000e8c4   Lc    1   --   De 
     30  $d.4                       0x0000f3a6   Lc    1   --   De 
     31  $t.5                       0x0000f40c   Lc    1   --   De 
     32  $d.3                       0x0000fa26   Lc    1   --   De 
     33  $t.4                       0x0000fa2c   Lc    1   --   De 
     34  $t                         0x00010a80   Lc    1   --   De 
     35  $d                         0x00010ad0   Lc    1   --   De 
     36  $t                         0x00010ad4   Lc    1   --   De 
     37  $d                         0x00010b52   Lc    1   --   De 
     38  $t                         0x00010b56   Lc    1   --   De 
     39  $d.realdata                0x00010ba4   Lc    1   --   De 
     40  $d.realdata                0x10000000   Lc    2   --   De 
     41  uart_ble_bridge.c          0x00000000   Lc  Abs  File  De 
     42  __NVIC_DisableIRQ          0x0000c425   Lc    1  Code  De   0x38
     43  cmd_handler                0x0000f8c1   Lc    1  Code  De   0x27c
     44  __NVIC_EnableIRQ           0x0000c45d   Lc    1  Code  De   0x30
     45  fix_trans_mode             0x0000fcfd   Lc    1  Code  De   0x74
     46  hciUartRxIncoming.stateRx  0x10003ea1   Lc    3  Data  De   0x1
     47  hciUartRxIncoming.pktIndRx 0x10003ea0   Lc    3  Data  De   0x1
     48  hciUartRxIncoming.iRx      0x10003c98   Lc    3  Data  De   0x2
     49  hciUartRxIncoming.hdrRx    0x10003c94   Lc    3  Data  De   0x4
     50  hciUartRxIncoming.pPktRx   0x10003ca0   Lc    3  Data  De   0x200
     51  hciUartRxIncoming.pDataRx  0x10003c9c   Lc    3  Data  De   0x4
     52  .L.str.12                  0x00012d7a   Lc    1  Data  De   0x22
     53  .L.str.5                   0x00012d9c   Lc    1  Data  De   0x1d
     54  .L.str.8                   0x00012db9   Lc    1  Data  De   0x1f
     55  .L.str.9                   0x00012dd8   Lc    1  Data  De   0x1d
     56  .L.str.11                  0x00012df5   Lc    1  Data  De   0x2c
     57  .L.str.10                  0x00012e21   Lc    1  Data  De   0x1a
     58  .L.str.7                   0x00012e3b   Lc    1  Data  De   0x1b
     59  .L.str.6                   0x00012e56   Lc    1  Data  De   0x21
     60  .L.str.1                   0x00012e77   Lc    1  Data  De   0x21
     61  .L.str                     0x00012e98   Lc    1  Data  De   0x1c
     62  .L.str.4                   0x00012eb2   Lc    1  Data  De   0x2
     63  .L.str.3                   0x00012eb4   Lc    1  Data  De   0x6
     64  .L.str.2                   0x00012eba   Lc    1  Data  De   0x34
     65  am_util_ble.c              0x00000000   Lc  Abs  File  De 
     66  am_util_delay.c            0x00000000   Lc  Abs  File  De 
     67  am_util_faultisr.c         0x00000000   Lc  Abs  File  De 
     68  am_util_stdio.c            0x00000000   Lc  Abs  File  De 
     69  decstr_to_int              0x0000fb3d   Lc    1  Code  De   0xa6
     70  simple_strlen              0x0001082d   Lc    1  Code  De   0x36
     71  padbuffer                  0x00010615   Lc    1  Code  De   0x50
     72  ndigits_in_hex             0x00010569   Lc    1  Code  De   0x3e
     73  uint64_to_hexstr           0x000108c1   Lc    1  Code  De   0xc0
     74  ndigits_in_u64             0x000105d9   Lc    1  Code  De   0x3c
     75  uint64_to_str              0x00010981   Lc    1  Code  De   0x88
     76  ndigits_in_i64             0x000105a9   Lc    1  Code  De   0x30
     77  ftoa                       0x0000fd71   Lc    1  Code  De   0x230
     78  divu64_10                  0x0000fbe5   Lc    1  Code  De   0x118
     79  g_bTxtXlate                0x100027b2   Lc    3  Data  De   0x1
     80  g_prfbuf                   0x100027b8   Lc    3  Data  De   0x400
     81  ../keil6/startup_keil6.s   0x00000000   Lc  Abs  File  De 
     82  STACK                      0x10001678   Lc    3  Sect  De   0x1000
     83  StackMem                   0x10001678   Lc    3  Data  De 
     84  HEAP                       0x10003ea8   Lc    3  Sect  De 
     85  HeapMem                    0x10003ea8   Lc    3  Data  De 
     86  RESET                      0x0000c000   Lc    1  Sect  De   0x134
     87  $v0                        0x0000c100   Lc    1   --   De 
     88  .text                      0x0000c238   Lc    1  Sect  De   0x18
     89  $v0                        0x0000c238   Lc    1   --   De 
     90  am_hal_global.c            0x00000000   Lc  Abs  File  De 
     91  am_bsp.c                   0x00000000   Lc  Abs  File  De 
     92  g_ui32PrintInterface       0x10003c8c   Lc    3  Data  De   0x4
     93  am_hal_ble.c               0x00000000   Lc  Abs  File  De 
     94  am_hal_ble_bus_lock        0x0000c99b   Lc    1  Code  De   0x28
     95  am_hal_ble_cmd_write       0x0000c9c5   Lc    1  Code  De   0x8e
     96  ccitt_table                0x000129f0   Lc    1  Data  De   0x200
     97  am_hal_clkgen.c            0x00000000   Lc  Abs  File  De 
     98  am_hal_flash.c             0x00000000   Lc  Abs  File  De 
     99  .L__const.am_hal_flash_store_ui32.SRAM_write_ui32
                                    0x00010ba4   Lc    1  Data  De   0xc
    100  am_hal_gpio.c              0x00000000   Lc  Abs  File  De 
    101  g_ui8Bit76Capabilities     0x0000dfb8   Lc    1   --   De 
    102  g_ui8nCEpins               0x0000dfec   Lc    1   --   De 
    103  g_ui8Inpen                 0x00012c80   Lc    1  Data  De   0x32
    104  g_ui8NCEtable              0x00012cb2   Lc    1  Data  De   0xc8
    105  am_hal_interrupt.c         0x00000000   Lc  Abs  File  De 
    106  am_hal_mcuctrl.c           0x00000000   Lc  Abs  File  De 
    107  am_hal_reset.c             0x00000000   Lc  Abs  File  De 
    108  am_hal_uart.c              0x00000000   Lc  Abs  File  De 
    109  rx_queue_update            0x00010705   Lc    1  Code  De   0x60
    110  tx_queue_update            0x00010865   Lc    1  Code  De   0x5c
    111  write_nonblocking          0x00010a09   Lc    1  Code  De   0x76
    112  read_nonblocking           0x00010665   Lc    1  Code  De   0x9e
    113  g_am_hal_uart_states       0x100026e0   Lc    3  Data  De   0xd0
    114  am_bsp_pins.c              0x00000000   Lc  Abs  File  De 
    115  am_hal_ble_patch.c         0x00000000   Lc  Abs  File  De 
    116  am_hal_ble_patch_b0.c      0x00000000   Lc  Abs  File  De 
    117  am_hal_itm.c               0x00000000   Lc  Abs  File  De 
    118  am_hal_pwrctrl.c           0x00000000   Lc  Abs  File  De 
    119  am_hal_queue.c             0x00000000   Lc  Abs  File  De 
    120  am_hal_rtc.c               0x00000000   Lc  Abs  File  De 
    121  am_hal_tpiu.c              0x00000000   Lc  Abs  File  De 
    122  am_hal_cachectrl.c         0x00000000   Lc  Abs  File  De 
    123  set_LPMMODE                0x00010765   Lc    1  Code  De   0x42
    124  set_SEDELAY                0x000107e9   Lc    1  Code  De   0x42
    125  set_RDWAIT                 0x000107a7   Lc    1  Code  De   0x42
    126  dc.s                       0x00000000   Lc  Abs  File  De 
    127  ../clib/memcpset.s         0x00000000   Lc  Abs  File  De 
    128  .text                      0x0000c250   Lc    1  Sect  De   0x8a
    129  ../clib/memcpset.s         0x00000000   Lc  Abs  File  De 
    130  .text                      0x0000c2da   Lc    1  Sect  De   0x4e
    131  ../clib/heapaux.c          0x00000000   Lc  Abs  File  De 
    132  .text                      0x0000c328   Lc    1  Sect  De 
    133  ../clib/angel/startup.s    0x00000000   Lc  Abs  File  De 
    134  !!!main                    0x0000c134   Lc    1  Sect  De   0x8
    135  ../clib/angel/handlers.s   0x00000000   Lc  Abs  File  De 
    136  !!handler_copy             0x0000c1d4   Lc    1  Sect  De   0x1a
    137  ../fplib/d2f.s             0x00000000   Lc  Abs  File  De 
    138  x$fpl$d2f                  0x00010a80   Lc    1  Sect  De   0x62
    139  $v0                        0x00010a80   Lc    1   --   De 
    140  ../clib/angel/kernel.s     0x00000000   Lc  Abs  File  De 
    141  .ARM.Collect$$rtentry$$00000000
                                    0x0000c218   Lc    1  Sect  De 
    142  ../clib/memcpset.s         0x00000000   Lc  Abs  File  De 
    143  .text                      0x0000c32e   Lc    1  Sect  De   0x64
    144  ../fplib/dnaninf.s         0x00000000   Lc  Abs  File  De 
    145  x$fpl$dnaninf              0x00010ae2   Lc    1  Sect  De   0x9c
    146  $v0                        0x00010ae2   Lc    1   --   De 
    147  ../fplib/fretinf.s         0x00000000   Lc  Abs  File  De 
    148  x$fpl$fretinf              0x00010b98   Lc    1  Sect  De   0xa
    149  $v0                        0x00010b98   Lc    1   --   De 
    150  ../fplib/usenofp.s         0x00000000   Lc  Abs  File  De 
    151  x$fpl$usenofp              0x00010ba2   Lc    1  Sect  De 
    152  ../clib/angel/kernel.s     0x00000000   Lc  Abs  File  De 
    153  .ARM.Collect$$rtentry$$00000002
                                    0x0000c218   Lc    1  Sect  De 
    154  .ARM.Collect$$rtentry$$00000009
                                    0x0000c21e   Lc    1  Sect  De 
    155  .ARM.Collect$$rtentry$$0000000A
                                    0x0000c21e   Lc    1  Sect  De   0x4
    156  .ARM.Collect$$rtentry$$0000000C
                                    0x0000c222   Lc    1  Sect  De 
    157  .ARM.Collect$$rtentry$$0000000D
                                    0x0000c222   Lc    1  Sect  De   0x8
    158  ../clib/angel/kernel.s     0x00000000   Lc  Abs  File  De 
    159  .ARM.Collect$$rtentry$$00000004
                                    0x0000c218   Lc    1  Sect  De   0x6
    160  ../clib/angel/sys.s        0x00000000   Lc  Abs  File  De 
    161  .text                      0x0000c392   Lc    1  Sect  De   0x4a
    162  ../clib/stdlib.c           0x00000000   Lc  Abs  File  De 
    163  .text                      0x0000c3dc   Lc    1  Sect  De 
    164  ../clib/angel/boardlib.s   0x00000000   Lc  Abs  File  De 
    165  ../clib/angel/boardlib.s   0x00000000   Lc  Abs  File  De 
    166  ../clib/angel/boardlib.s   0x00000000   Lc  Abs  File  De 
    167  ../clib/libinit.s          0x00000000   Lc  Abs  File  De 
    168  .ARM.Collect$$libinit$$00000000
                                    0x0000c20c   Lc    1  Sect  De   0x2
    169  ../clib/angel/sys.s        0x00000000   Lc  Abs  File  De 
    170  .text                      0x0000c3f0   Lc    1  Sect  De   0x8
    171  .bss                       0x10002678   Lc    3  Sect  De   0x60
    172  ../clib/angel/kernel.s     0x00000000   Lc  Abs  File  De 
    173  .ARM.Collect$$rtexit$$00000000
                                    0x0000c22a   Lc    1  Sect  De   0x2
    174  ../clib/libinit.s          0x00000000   Lc  Abs  File  De 
    175  .ARM.Collect$$libinit$$00000001
                                    0x0000c20e   Lc    1  Sect  De   0x4
    176  .ARM.Collect$$libinit$$00000004
                                    0x0000c212   Lc    1  Sect  De 
    177  .ARM.Collect$$libinit$$0000000A
                                    0x0000c212   Lc    1  Sect  De 
    178  .ARM.Collect$$libinit$$0000000C
                                    0x0000c212   Lc    1  Sect  De 
    179  .ARM.Collect$$libinit$$0000000E
                                    0x0000c212   Lc    1  Sect  De 
    180  .ARM.Collect$$libinit$$00000011
                                    0x0000c212   Lc    1  Sect  De 
    181  .ARM.Collect$$libinit$$00000013
                                    0x0000c212   Lc    1  Sect  De 
    182  .ARM.Collect$$libinit$$00000015
                                    0x0000c212   Lc    1  Sect  De 
    183  .ARM.Collect$$libinit$$00000017
                                    0x0000c212   Lc    1  Sect  De 
    184  .ARM.Collect$$libinit$$00000019
                                    0x0000c212   Lc    1  Sect  De 
    185  .ARM.Collect$$libinit$$0000001B
                                    0x0000c212   Lc    1  Sect  De 
    186  .ARM.Collect$$libinit$$0000001D
                                    0x0000c212   Lc    1  Sect  De 
    187  .ARM.Collect$$libinit$$0000001F
                                    0x0000c212   Lc    1  Sect  De 
    188  .ARM.Collect$$libinit$$00000021
                                    0x0000c212   Lc    1  Sect  De 
    189  .ARM.Collect$$libinit$$00000023
                                    0x0000c212   Lc    1  Sect  De 
    190  .ARM.Collect$$libinit$$00000025
                                    0x0000c212   Lc    1  Sect  De 
    191  .ARM.Collect$$libinit$$0000002C
                                    0x0000c212   Lc    1  Sect  De 
    192  .ARM.Collect$$libinit$$0000002E
                                    0x0000c212   Lc    1  Sect  De 
    193  .ARM.Collect$$libinit$$00000030
                                    0x0000c212   Lc    1  Sect  De 
    194  .ARM.Collect$$libinit$$00000032
                                    0x0000c212   Lc    1  Sect  De 
    195  .ARM.Collect$$libinit$$00000033
                                    0x0000c212   Lc    1  Sect  De   0x2
    196  ../clib/angel/kernel.s     0x00000000   Lc  Abs  File  De 
    197  .ARM.Collect$$rtexit$$00000002
                                    0x0000c22c   Lc    1  Sect  De 
    198  .ARM.Collect$$rtexit$$00000003
                                    0x0000c22c   Lc    1  Sect  De   0x4
    199  .ARM.Collect$$rtexit$$00000004
                                    0x0000c230   Lc    1  Sect  De   0x6
    200  ../clib/armsys.c           0x00000000   Lc  Abs  File  De 
    201  ../clib/armsys.c           0x00000000   Lc  Abs  File  De 
    202  ../fplib/fpinit.s          0x00000000   Lc  Abs  File  De 
    203  x$fpl$fpinit               0x00010b7e   Lc    1  Sect  De   0x1a
    204  $v0                        0x00010b7e   Lc    1   --   De 
    205  ../clib/angel/sysapp.c     0x00000000   Lc  Abs  File  De 
    206  .text                      0x0000c3f8   Lc    1  Sect  De 
    207  ../clib/angel/sysapp.c     0x00000000   Lc  Abs  File  De 
    208  ../clib/angel/boardlib.s   0x00000000   Lc  Abs  File  De 
    209  ../clib/armsys.c           0x00000000   Lc  Abs  File  De 
    210  ../clib/armsys.c           0x00000000   Lc  Abs  File  De 
    211  ../clib/libinit.s          0x00000000   Lc  Abs  File  De 
    212  .ARM.Collect$$libshutdown$$00000000
                                    0x0000c214   Lc    1  Sect  De   0x2
    213  ../clib/angel/sysapp.c     0x00000000   Lc  Abs  File  De 
    214  ../clib/angel/sysapp.c     0x00000000   Lc  Abs  File  De 
    215  ../clib/angel/sys.s        0x00000000   Lc  Abs  File  De 
    216  .text                      0x0000c404   Lc    1  Sect  De   0x2
    217  ../clib/angel/sys.s        0x00000000   Lc  Abs  File  De 
    218  .text                      0x0000c406   Lc    1  Sect  De 
    219  ../clib/heapalloc.c        0x00000000   Lc  Abs  File  De 
    220  ../clib/signal.c           0x00000000   Lc  Abs  File  De 
    221  ../clib/signal.c           0x00000000   Lc  Abs  File  De 
    222  ../clib/libinit.s          0x00000000   Lc  Abs  File  De 
    223  .ARM.Collect$$libshutdown$$00000002
                                    0x0000c216   Lc    1  Sect  De 
    224  .ARM.Collect$$libshutdown$$00000004
                                    0x0000c216   Lc    1  Sect  De 
    225  .ARM.Collect$$libshutdown$$00000007
                                    0x0000c216   Lc    1  Sect  De 
    226  .ARM.Collect$$libshutdown$$0000000A
                                    0x0000c216   Lc    1  Sect  De 
    227  .ARM.Collect$$libshutdown$$0000000C
                                    0x0000c216   Lc    1  Sect  De 
    228  .ARM.Collect$$libshutdown$$0000000F
                                    0x0000c216   Lc    1  Sect  De 
    229  .ARM.Collect$$libshutdown$$00000010
                                    0x0000c216   Lc    1  Sect  De   0x2
    230  ../clib/angel/rt.s         0x00000000   Lc  Abs  File  De 
    231  ../clib/signal.c           0x00000000   Lc  Abs  File  De 
    232  ../clib/signal.c           0x00000000   Lc  Abs  File  De 
    233  ../clib/signal.c           0x00000000   Lc  Abs  File  De 
    234  ../clib/signal.c           0x00000000   Lc  Abs  File  De 
    235  ../clib/angel/sysapp.c     0x00000000   Lc  Abs  File  De 
    236  ../clib/angel/sysapp.c     0x00000000   Lc  Abs  File  De 
    237  ../clib/signal.s           0x00000000   Lc  Abs  File  De 
    238  ../clib/signal.c           0x00000000   Lc  Abs  File  De 
    239  ../clib/signal.c           0x00000000   Lc  Abs  File  De 
    240  ../clib/signal.c           0x00000000   Lc  Abs  File  De 
    241  ../clib/signal.c           0x00000000   Lc  Abs  File  De 
    242  ../clib/signal.c           0x00000000   Lc  Abs  File  De 
    243  ../clib/signal.c           0x00000000   Lc  Abs  File  De 
    244  ../clib/signal.c           0x00000000   Lc  Abs  File  De 
    245  ../clib/signal.c           0x00000000   Lc  Abs  File  De 
    246  ../clib/angel/dclz77c.s    0x00000000   Lc  Abs  File  De 
    247  !!dclz77c                  0x0000c170   Lc    1  Sect  De   0x64
    248  ../clib/angel/scatter.s    0x00000000   Lc  Abs  File  De 
    249  !!!scatter                 0x0000c13c   Lc    1  Sect  De   0x34
    250  ../clib/angel/handlers.s   0x00000000   Lc  Abs  File  De 
    251  !!handler_zi               0x0000c1f0   Lc    1  Sect  De   0x1c
    252  BuildAttributes$$THM_ISAv4$E$P$D$K$B$S$7EM$VFPi3$EXTD16$VFPS$VFMA$PE$A:L22UL41UL21$X:L11$S22US41US21$IEEE1$IW$~IW$USESV6$~STKCKD$USESV7$~SHL$OSPACE$ROPI$EBA8$UX$STANDARDLIB$REQ8$PRES8$EABIv2
                                    0x00000000   Gb  Abs   --   Hi 
    253  __Vectors                  0x0000c000   Gb    1  Data  Hi 
    254  __Patchable                0x0000c0c0   Gb    1  Data  Hi 
    255  Reset_Handler              0x0000c101   Wk    1  Code  Hi   0x1c
    256  NMI_Handler                0x0000c11f   Wk    1  Code  Hi   0x2
    257  MemManage_Handler          0x0000c121   Wk    1  Code  Hi   0x2
    258  BusFault_Handler           0x0000c123   Wk    1  Code  Hi   0x2
    259  UsageFault_Handler         0x0000c125   Wk    1  Code  Hi   0x2
    260  SVC_Handler                0x0000c127   Wk    1  Code  Hi   0x2
    261  DebugMon_Handler           0x0000c129   Wk    1  Code  Hi   0x2
    262  PendSV_Handler             0x0000c12b   Wk    1  Code  Hi   0x2
    263  SysTick_Handler            0x0000c12d   Wk    1  Code  Hi   0x2
    264  am_adc_isr                 0x0000c12f   Wk    1  Code  Hi 
    265  am_ble_isr                 0x0000c12f   Wk    1  Code  Hi 
    266  am_brownout_isr            0x0000c12f   Wk    1  Code  Hi 
    267  am_clkgen_isr              0x0000c12f   Wk    1  Code  Hi 
    268  am_ctimer_isr              0x0000c12f   Wk    1  Code  Hi 
    269  am_gpio_isr                0x0000c12f   Wk    1  Code  Hi 
    270  am_iomaster0_isr           0x0000c12f   Wk    1  Code  Hi 
    271  am_iomaster1_isr           0x0000c12f   Wk    1  Code  Hi 
    272  am_iomaster2_isr           0x0000c12f   Wk    1  Code  Hi 
    273  am_iomaster3_isr           0x0000c12f   Wk    1  Code  Hi 
    274  am_iomaster4_isr           0x0000c12f   Wk    1  Code  Hi 
    275  am_iomaster5_isr           0x0000c12f   Wk    1  Code  Hi 
    276  am_ioslave_acc_isr         0x0000c12f   Wk    1  Code  Hi 
    277  am_ioslave_ios_isr         0x0000c12f   Wk    1  Code  Hi 
    278  am_mspi0_isr               0x0000c12f   Wk    1  Code  Hi 
    279  am_pdm0_isr                0x0000c12f   Wk    1  Code  Hi 
    280  am_rtc_isr                 0x0000c12f   Wk    1  Code  Hi 
    281  am_scard_isr               0x0000c12f   Wk    1  Code  Hi 
    282  am_software0_isr           0x0000c12f   Wk    1  Code  Hi 
    283  am_stimer_cmpr0_isr        0x0000c12f   Wk    1  Code  Hi 
    284  am_stimer_cmpr1_isr        0x0000c12f   Wk    1  Code  Hi 
    285  am_stimer_cmpr2_isr        0x0000c12f   Wk    1  Code  Hi 
    286  am_stimer_cmpr3_isr        0x0000c12f   Wk    1  Code  Hi 
    287  am_stimer_cmpr4_isr        0x0000c12f   Wk    1  Code  Hi 
    288  am_stimer_cmpr5_isr        0x0000c12f   Wk    1  Code  Hi 
    289  am_stimer_cmpr6_isr        0x0000c12f   Wk    1  Code  Hi 
    290  am_stimer_cmpr7_isr        0x0000c12f   Wk    1  Code  Hi 
    291  am_stimer_isr              0x0000c12f   Wk    1  Code  Hi 
    292  am_uart0_isr               0x0000c12f   Wk    1  Code  Hi 
    293  am_uart1_isr               0x0000c12f   Wk    1  Code  Hi 
    294  am_vcomp_isr               0x0000c12f   Wk    1  Code  Hi 
    295  am_watchdog_isr            0x0000c12f   Wk    1  Code  Hi 
    296  __main                     0x0000c135   Gb    1  Code  Hi   0x8
    297  __scatterload              0x0000c13d   Gb    1  Code  Hi 
    298  __scatterload_rt2          0x0000c13d   Gb    1  Code  Hi   0x2c
    299  __scatterload_rt2_thumb_only
                                    0x0000c13d   Gb    1  Code  Hi 
    300  __scatterload_null         0x0000c14b   Gb    1  Code  Hi 
    301  __decompress               0x0000c171   Gb    1  Code  Hi   0x64
    302  __decompress2              0x0000c171   Gb    1  Code  Hi 
    303  __scatterload_copy         0x0000c1d5   Gb    1  Code  Hi   0x1a
    304  __scatterload_zeroinit     0x0000c1f1   Gb    1  Code  Hi   0x1c
    305  __rt_lib_init              0x0000c20d   Gb    1  Code  De 
    306  __rt_lib_init_fp_1         0x0000c20f   Gb    1  Code  Hi 
    307  __rt_lib_init_alloca_1     0x0000c213   Gb    1  Code  Hi 
    308  __rt_lib_init_argv_1       0x0000c213   Gb    1  Code  Hi 
    309  __rt_lib_init_atexit_1     0x0000c213   Gb    1  Code  Hi 
    310  __rt_lib_init_clock_1      0x0000c213   Gb    1  Code  Hi 
    311  __rt_lib_init_cpp_1        0x0000c213   Gb    1  Code  Hi 
    312  __rt_lib_init_exceptions_1 0x0000c213   Gb    1  Code  Hi 
    313  __rt_lib_init_fp_trap_1    0x0000c213   Gb    1  Code  Hi 
    314  __rt_lib_init_getenv_1     0x0000c213   Gb    1  Code  Hi 
    315  __rt_lib_init_heap_1       0x0000c213   Gb    1  Code  Hi 
    316  __rt_lib_init_lc_collate_1 0x0000c213   Gb    1  Code  Hi 
    317  __rt_lib_init_lc_ctype_1   0x0000c213   Gb    1  Code  Hi 
    318  __rt_lib_init_lc_monetary_1
                                    0x0000c213   Gb    1  Code  Hi 
    319  __rt_lib_init_lc_numeric_1 0x0000c213   Gb    1  Code  Hi 
    320  __rt_lib_init_lc_time_1    0x0000c213   Gb    1  Code  Hi 
    321  __rt_lib_init_preinit_1    0x0000c213   Gb    1  Code  Hi 
    322  __rt_lib_init_rand_1       0x0000c213   Gb    1  Code  Hi 
    323  __rt_lib_init_return       0x0000c213   Gb    1  Code  Hi 
    324  __rt_lib_init_signal_1     0x0000c213   Gb    1  Code  Hi 
    325  __rt_lib_init_stdio_1      0x0000c213   Gb    1  Code  Hi 
    326  __rt_lib_init_user_alloc_1 0x0000c213   Gb    1  Code  Hi 
    327  __rt_lib_shutdown          0x0000c215   Gb    1  Code  De 
    328  __rt_lib_shutdown_cpp_1    0x0000c217   Gb    1  Code  Hi 
    329  __rt_lib_shutdown_fp_trap_1
                                    0x0000c217   Gb    1  Code  Hi 
    330  __rt_lib_shutdown_heap_1   0x0000c217   Gb    1  Code  Hi 
    331  __rt_lib_shutdown_return   0x0000c217   Gb    1  Code  Hi 
    332  __rt_lib_shutdown_signal_1 0x0000c217   Gb    1  Code  Hi 
    333  __rt_lib_shutdown_stdio_1  0x0000c217   Gb    1  Code  Hi 
    334  __rt_lib_shutdown_user_alloc_1
                                    0x0000c217   Gb    1  Code  Hi 
    335  __rt_entry                 0x0000c219   Gb    1  Code  Hi 
    336  __rt_entry_presh_1         0x0000c219   Gb    1  Code  Hi 
    337  __rt_entry_sh              0x0000c219   Gb    1  Code  Hi 
    338  __rt_entry_li              0x0000c21f   Gb    1  Code  Hi 
    339  __rt_entry_postsh_1        0x0000c21f   Gb    1  Code  Hi 
    340  __rt_entry_main            0x0000c223   Gb    1  Code  Hi 
    341  __rt_entry_postli_1        0x0000c223   Gb    1  Code  Hi 
    342  __rt_exit                  0x0000c22b   Gb    1  Code  De 
    343  __rt_exit_ls               0x0000c22d   Gb    1  Code  Hi 
    344  __rt_exit_prels_1          0x0000c22d   Gb    1  Code  Hi 
    345  __rt_exit_exit             0x0000c231   Gb    1  Code  Hi 
    346  __user_initial_stackheap   0x0000c239   Gb    1  Code  Hi   0xa
    347  __aeabi_memcpy             0x0000c251   Gb    1  Code  De 
    348  __rt_memcpy                0x0000c251   Gb    1  Code  De   0x8a
    349  _memcpy_lastbytes          0x0000c2b7   Gb    1  Code  De 
    350  __aeabi_memclr4            0x0000c2db   Gb    1  Code  De 
    351  __aeabi_memclr8            0x0000c2db   Gb    1  Code  De 
    352  __rt_memclr_w              0x0000c2db   Gb    1  Code  De 
    353  _memset_w                  0x0000c2df   Gb    1  Code  De   0x4a
    354  __use_two_region_memory    0x0000c329   Gb    1  Code  Hi   0x2
    355  __rt_heap_escrow$2region   0x0000c32b   Gb    1  Code  De   0x2
    356  __rt_heap_expand$2region   0x0000c32d   Gb    1  Code  De   0x2
    357  __aeabi_memcpy4            0x0000c32f   Gb    1  Code  De 
    358  __aeabi_memcpy8            0x0000c32f   Gb    1  Code  De 
    359  __rt_memcpy_w              0x0000c32f   Gb    1  Code  De   0x64
    360  _memcpy_lastbytes_aligned  0x0000c377   Gb    1  Code  De 
    361  __user_setup_stackheap     0x0000c393   Gb    1  Code  De   0x4a
    362  exit                       0x0000c3dd   Gb    1  Code  De   0x12
    363  __user_libspace            0x0000c3f1   Wk    1  Code  De   0x8
    364  __user_perproc_libspace    0x0000c3f1   Wk    1  Code  De 
    365  __user_perthread_libspace  0x0000c3f1   Wk    1  Code  De 
    366  _sys_exit                  0x0000c3f9   Gb    1  Code  De   0x8
    367  __I$use$semihosting        0x0000c405   Gb    1  Code  Hi 
    368  __use_no_semihosting_swi   0x0000c405   Gb    1  Code  Hi   0x2
    369  __semihosting_library_function
                                    0x0000c407   Gb    1  Code  Hi 
    370  HardFault_Handler          0x0000c409   Gb    1  Code  Hi   0x1a
    371  am_bsp_itm_printf_enable   0x0000c48d   Gb    1  Code  Hi   0x44
    372  am_bsp_low_power_init      0x0000c4d1   Gb    1  Code  Hi   0x46
    373  am_hal_ble_blocking_hci_read
                                    0x0000c517   Gb    1  Code  Hi   0x7c
    374  am_hal_ble_blocking_hci_write
                                    0x0000c593   Gb    1  Code  Hi   0x54
    375  am_hal_ble_blocking_transfer
                                    0x0000c5e9   Gb    1  Code  Hi   0x3b2
    376  am_hal_ble_config          0x0000ca55   Gb    1  Code  Hi   0x122
    377  am_hal_ble_default_copy_patch_apply
                                    0x0000cb79   Gb    1  Code  Hi   0x5c
    378  am_hal_ble_default_patch_apply
                                    0x0000cbd5   Gb    1  Code  Hi   0xa4
    379  am_hal_ble_default_trim_set_ramcode
                                    0x0000cc79   Gb    1  Code  Hi   0x58
    380  am_hal_ble_deinitialize    0x0000ccd1   Gb    1  Code  Hi   0x40
    381  am_hal_ble_initialize      0x0000cd11   Gb    1  Code  Hi   0x52
    382  am_hal_ble_int_clear       0x0000cd63   Gb    1  Code  Hi   0x26
    383  am_hal_ble_int_status      0x0000cd89   Gb    1  Code  Hi   0x16
    384  am_hal_ble_patch_apply     0x0000cda1   Gb    1  Code  Hi   0x30c
    385  am_hal_ble_patch_complete  0x0000d0ad   Gb    1  Code  Hi   0x1c4
    386  am_hal_ble_patch_copy_end_apply
                                    0x0000d271   Gb    1  Code  Hi   0xec
    387  am_hal_ble_patch_preload   0x0000d35d   Gb    1  Code  Hi   0x1f6
    388  am_hal_ble_plf_reg_read    0x0000d555   Gb    1  Code  Hi   0xa6
    389  am_hal_ble_plf_reg_write   0x0000d5fd   Gb    1  Code  Hi   0xa6
    390  am_hal_ble_power_control   0x0000d6a5   Gb    1  Code  Hi   0x17c
    391  am_hal_ble_sleep_set       0x0000d821   Gb    1  Code  Hi   0x66
    392  am_hal_ble_transmitter_modex_set
                                    0x0000d887   Gb    1  Code  Hi   0xd0
    393  am_hal_ble_tx_power_set    0x0000d957   Gb    1  Code  Hi   0x96
    394  am_hal_ble_wakeup_set      0x0000d9ed   Gb    1  Code  Hi   0x38
    395  am_hal_cachectrl_control   0x0000da25   Gb    1  Code  Hi   0x16c
    396  am_hal_clkgen_control      0x0000db91   Gb    1  Code  Hi   0x138
    397  am_hal_clkgen_status_get   0x0000dcc9   Gb    1  Code  Hi   0x38
    398  am_hal_flash_delay         0x0000dd01   Gb    1  Code  Hi   0x2a
    399  am_hal_flash_delay_status_check
                                    0x0000dd2d   Gb    1  Code  Hi   0x70
    400  am_hal_flash_load_ui32     0x0000dd9d   Gb    1  Code  Hi   0x8
    401  am_hal_flash_store_ui32    0x0000dda5   Gb    1  Code  Hi   0x22
    402  am_hal_gpio_pinconfig      0x0000ddc9   Gb    1  Code  Hi   0x1f0
    403  am_hal_gpio_state_write    0x0000e021   Gb    1  Code  Hi   0x98
    404  am_hal_interrupt_master_disable
                                    0x0000e0b9   Gb    1  Code  Hi   0x8
    405  am_hal_interrupt_master_enable
                                    0x0000e0c1   Gb    1  Code  Hi   0x8
    406  am_hal_interrupt_master_set
                                    0x0000e0c9   Gb    1  Code  Hi   0x6
    407  am_hal_itm_enable          0x0000e0d1   Gb    1  Code  Hi   0x42
    408  am_hal_itm_print           0x0000e115   Gb    1  Code  Hi   0x2e
    409  am_hal_mcuctrl_info_get    0x0000e143   Gb    1  Code  Hi   0x11a
    410  am_hal_pwrctrl_blebuck_trim
                                    0x0000e25d   Gb    1  Code  Hi   0x52
    411  am_hal_pwrctrl_low_power_init
                                    0x0000e2af   Gb    1  Code  Hi   0x12a
    412  am_hal_pwrctrl_periph_disable
                                    0x0000e3d9   Gb    1  Code  Hi   0x88
    413  am_hal_pwrctrl_periph_enable
                                    0x0000e461   Gb    1  Code  Hi   0x6e
    414  am_hal_queue_init          0x0000e4cf   Gb    1  Code  Hi   0x18
    415  am_hal_queue_item_add      0x0000e4e9   Gb    1  Code  Hi   0x66
    416  am_hal_queue_item_get      0x0000e551   Gb    1  Code  Hi   0x60
    417  am_hal_reset_control       0x0000e5b1   Gb    1  Code  Hi   0x44
    418  am_hal_rtc_osc_disable     0x0000e5f5   Gb    1  Code  Hi   0x12
    419  am_hal_tpiu_enable         0x0000e607   Gb    1  Code  Hi   0x94
    420  am_hal_uart_configure      0x0000e69d   Gb    1  Code  Hi   0x218
    421  am_hal_uart_initialize     0x0000e8c5   Gb    1  Code  Hi   0x54
    422  am_hal_uart_interrupt_clear
                                    0x0000e919   Gb    1  Code  Hi   0x28
    423  am_hal_uart_interrupt_enable
                                    0x0000e941   Gb    1  Code  Hi   0x2c
    424  am_hal_uart_interrupt_service
                                    0x0000e96d   Gb    1  Code  Hi   0x88
    425  am_hal_uart_interrupt_status_get
                                    0x0000e9f5   Gb    1  Code  Hi   0x34
    426  am_hal_uart_power_control  0x0000ea29   Gb    1  Code  Hi   0xea
    427  am_hal_uart_transfer       0x0000eb15   Gb    1  Code  Hi   0x112
    428  am_uart_isr                0x0000ec29   Gb    1  Code  Hi   0xa0
    429  am_util_ble_crystal_trim_set
                                    0x0000ecc9   Gb    1  Code  Hi   0x4e
    430  am_util_ble_init_rf_channel
                                    0x0000ed19   Gb    1  Code  Hi   0x108
    431  am_util_ble_set_carrier_wave_ex
                                    0x0000ee21   Gb    1  Code  Hi   0x10c
    432  am_util_ble_set_constant_transmission
                                    0x0000ef2d   Gb    1  Code  Hi   0x58
    433  am_util_ble_set_constant_transmission_ex
                                    0x0000ef85   Gb    1  Code  Hi   0x106
    434  am_util_ble_transmitter_control
                                    0x0000f08d   Gb    1  Code  Hi   0x52
    435  am_util_ble_transmitter_control_ex
                                    0x0000f0e1   Gb    1  Code  Hi   0x18
    436  am_util_delay_ms           0x0000f0f9   Gb    1  Code  Hi   0x30
    437  am_util_faultisr_collect_data
                                    0x0000f129   Gb    1  Code  Hi   0xd2
    438  am_util_stdio_printf       0x0000f1fd   Gb    1  Code  Hi   0x5c
    439  am_util_stdio_printf_init  0x0000f259   Gb    1  Code  Hi   0x14
    440  am_util_stdio_vsprintf     0x0000f26d   Gb    1  Code  Hi   0x654
    441  getStackedReg              0x0000ffa1   Gb    1  Code  Hi   0x8
    442  hciUartRxIncoming          0x0000ffa9   Gb    1  Code  Hi   0x2e4
    443  main                       0x0001028d   Gb    1  Code  Hi   0x2da
    444  __aeabi_d2f                0x00010a81   Gb    1  Code  De 
    445  _d2f                       0x00010a81   Gb    1  Code  De   0x62
    446  __fpl_dnaninf              0x00010ae3   Gb    1  Code  De   0x9c
    447  _fp_init                   0x00010b7f   Gb    1  Code  De   0x1a
    448  __fplib_config_fpu_vfp     0x00010b97   Gb    1  Code  De 
    449  __fplib_config_pureend_doubles
                                    0x00010b97   Gb    1  Code  De 
    450  __fpl_fretinf              0x00010b99   Gb    1  Code  De   0xa
    451  __I$use$fp                 0x00010ba2   Gb    1   --   De 
    452  am_ble_buffer_patch_data   0x00010bb0   Gb    1  Data  Hi   0xd38
    453  am_ble_buffer_patch_data_b0
                                    0x000118e8   Gb    1  Data  Hi   0x71c
    454  am_ble_performance_copy_patch_data
                                    0x00012004   Gb    1  Data  Hi   0x914
    455  am_hal_ble_default_config  0x00012918   Gb    1  Data  Hi   0x1c
    456  am_hal_ble_num_default_patches
                                    0x00012934   Gb    1  Data  Hi   0x4
    457  am_hal_ble_num_default_patches_b0
                                    0x00012938   Gb    1  Data  Hi   0x4
    458  am_hal_pwrctrl_peripheral_control
                                    0x0001293c   Gb    1  Data  Hi   0xb4
    459  g_AM_BSP_GPIO_ITM_SWO      0x00012bf0   Gb    1  Data  Hi   0x4
    460  g_AM_HAL_GPIO_OUTPUT       0x00012bf4   Gb    1  Data  Hi   0x4
    461  g_GpioUartRxCfg            0x00012bf8   Gb    1  Data  Hi   0x4
    462  g_GpioUartTxCfg            0x00012bfc   Gb    1  Data  Hi   0x4
    463  g_am_hal_mcuctrl_flash_size
                                    0x00012c00   Gb    1  Data  Hi   0x40
    464  g_am_hal_mcuctrl_sram_size 0x00012c40   Gb    1  Data  Hi   0x40
    465  Region$$Table$$Base        0x00012ef0   Gb    1   --   Hi 
    466  Region$$Table$$Limit       0x00012f10   Gb    1   --   Hi 
    467  am_ble_buffer_nvds_data    0x10000000   Gb    2  Data  Hi   0xc0
    468  am_ble_buffer_nvds_data_b0 0x100000c0   Gb    2  Data  Hi   0xc8
    469  am_ble_buffer_patch        0x10000188   Gb    2  Data  Hi   0x10
    470  am_ble_buffer_patch_b0     0x10000198   Gb    2  Data  Hi   0x10
    471  am_ble_hw_patch            0x100001a8   Gb    2  Data  Hi   0x10
    472  am_ble_hw_patch_data       0x100001b8   Gb    2  Data  Hi   0x64
    473  am_ble_nvds_patch          0x1000021c   Gb    2  Data  Hi   0x10
    474  am_ble_nvds_patch_b0       0x1000022c   Gb    2  Data  Hi   0x10
    475  am_ble_performance_copy_patch
                                    0x1000023c   Gb    2  Data  Hi   0x10
    476  am_ble_performance_patch   0x1000024c   Gb    2  Data  Hi   0x10
    477  am_ble_performance_patch_b0
                                    0x1000025c   Gb    2  Data  Hi   0x10
    478  am_ble_performance_patch_data
                                    0x1000026c   Gb    2  Data  Hi   0x104
    479  am_ble_performance_patch_data_b0
                                    0x10000370   Gb    2  Data  Hi   0x12b8
    480  am_bsp_psLEDs              0x10001628   Gb    2  Data  Hi   0x28
    481  am_hal_ble_default_copy_patch_array
                                    0x10001650   Gb    2  Data  Hi   0x4
    482  am_hal_ble_default_copy_patches
                                    0x10001654   Gb    2  Data  Hi   0x4
    483  am_hal_ble_default_patch_array
                                    0x10001658   Gb    2  Data  Hi   0xc
    484  am_hal_ble_default_patch_array_b0
                                    0x10001664   Gb    2  Data  Hi   0xc
    485  am_hal_ble_default_patches 0x10001670   Gb    2  Data  Hi   0x4
    486  am_hal_ble_default_patches_b0
                                    0x10001674   Gb    2  Data  Hi   0x4
    487  __libspace_start           0x10002678   Gb    3  Data  De   0x60
    488  __temporary_stack_top$libspace
                                    0x100026d8   Gb    3  Data  De 
    489  carrier_wave_mode          0x100026d8   Gb    3  Data  Hi   0x1
    490  gAmHalResetStatus          0x100026dc   Gb    3  Data  Hi   0x4
    491  g_bCmdProcessedFlag        0x100027b0   Gb    3  Data  Hi   0x1
    492  g_bRxTimeoutFlag           0x100027b1   Gb    3  Data  Hi   0x1
    493  g_pfnCharPrint             0x100027b4   Gb    3  Data  Hi   0x4
    494  g_psPatchBuffer            0x10002bb8   Gb    3  Data  Hi   0x84
    495  g_psReadData               0x10002c3c   Gb    3  Data  Hi   0x400
    496  g_psWriteData              0x1000303c   Gb    3  Data  Hi   0x400
    497  g_pui8UARTTXBuffer         0x1000343c   Gb    3  Data  Hi   0x800
    498  g_pvBLEHandle              0x10003c3c   Gb    3  Data  Hi   0x4
    499  g_pvUART                   0x10003c40   Gb    3  Data  Hi   0x4
    500  g_sBLEState                0x10003c44   Gb    3  Data  Hi   0x48
    501  g_ui32UARTRxIndex          0x10003c90   Gb    3  Data  Hi   0x4


** Section #11 '.strtab' (SHT_STRTAB)
    Size   : 8724 bytes

            #  Offset String
        ====================================

            1      1: $d
            2      4: $t
            3      7: $t.0
            4     12: $d.26
            5     18: $t.27
            6     24: $d.4
            7     29: $t.5
            8     34: $d.1
            9     39: $t.2
           10     44: $d.3
           11     49: $t.7
           12     54: $d.8
           13     59: $t.9
           14     64: $d.5
           15     69: $t.4
           16     74: $d.realdata
           17     86: uart_ble_bridge.c
           18    104: __NVIC_DisableIRQ
           19    122: cmd_handler
           20    134: __NVIC_EnableIRQ
           21    151: fix_trans_mode
           22    166: hciUartRxIncoming.stateRx
           23    192: hciUartRxIncoming.pktIndRx
           24    219: hciUartRxIncoming.iRx
           25    241: hciUartRxIncoming.hdrRx
           26    265: hciUartRxIncoming.pPktRx
           27    290: hciUartRxIncoming.pDataRx
           28    316: .L.str.12
           29    326: .L.str.5
           30    335: .L.str.8
           31    344: .L.str.9
           32    353: .L.str.11
           33    363: .L.str.10
           34    373: .L.str.7
           35    382: .L.str.6
           36    391: .L.str.1
           37    400: .L.str
           38    407: .L.str.4
           39    416: .L.str.3
           40    425: .L.str.2
           41    434: am_util_ble.c
           42    448: am_util_delay.c
           43    464: am_util_faultisr.c
           44    483: am_util_stdio.c
           45    499: decstr_to_int
           46    513: simple_strlen
           47    527: padbuffer
           48    537: ndigits_in_hex
           49    552: uint64_to_hexstr
           50    569: ndigits_in_u64
           51    584: uint64_to_str
           52    598: ndigits_in_i64
           53    613: ftoa
           54    618: divu64_10
           55    628: g_bTxtXlate
           56    640: g_prfbuf
           57    649: ../keil6/startup_keil6.s
           58    674: STACK
           59    680: StackMem
           60    689: HEAP
           61    694: HeapMem
           62    702: RESET
           63    708: $v0
           64    712: .text
           65    718: am_hal_global.c
           66    734: am_bsp.c
           67    743: g_ui32PrintInterface
           68    764: am_hal_ble.c
           69    777: am_hal_ble_bus_lock
           70    797: am_hal_ble_cmd_write
           71    818: ccitt_table
           72    830: am_hal_clkgen.c
           73    846: am_hal_flash.c
           74    861: .L__const.am_hal_flash_store_ui32.SRAM_write_ui32
           75    911: am_hal_gpio.c
           76    925: g_ui8Bit76Capabilities
           77    948: g_ui8nCEpins
           78    961: g_ui8Inpen
           79    972: g_ui8NCEtable
           80    986: am_hal_interrupt.c
           81   1005: am_hal_mcuctrl.c
           82   1022: am_hal_reset.c
           83   1037: am_hal_uart.c
           84   1051: rx_queue_update
           85   1067: tx_queue_update
           86   1083: write_nonblocking
           87   1101: read_nonblocking
           88   1118: g_am_hal_uart_states
           89   1139: am_bsp_pins.c
           90   1153: am_hal_ble_patch.c
           91   1172: am_hal_ble_patch_b0.c
           92   1194: am_hal_itm.c
           93   1207: am_hal_pwrctrl.c
           94   1224: am_hal_queue.c
           95   1239: am_hal_rtc.c
           96   1252: am_hal_tpiu.c
           97   1266: am_hal_cachectrl.c
           98   1285: set_LPMMODE
           99   1297: set_SEDELAY
          100   1309: set_RDWAIT
          101   1320: dc.s
          102   1325: ../clib/memcpset.s
          103   1344: ../clib/heapaux.c
          104   1362: ../clib/angel/startup.s
          105   1386: !!!main
          106   1394: ../clib/angel/handlers.s
          107   1419: !!handler_copy
          108   1434: ../fplib/d2f.s
          109   1449: x$fpl$d2f
          110   1459: ../clib/angel/kernel.s
          111   1482: .ARM.Collect$$rtentry$$00000000
          112   1514: ../fplib/dnaninf.s
          113   1533: x$fpl$dnaninf
          114   1547: ../fplib/fretinf.s
          115   1566: x$fpl$fretinf
          116   1580: ../fplib/usenofp.s
          117   1599: x$fpl$usenofp
          118   1613: .ARM.Collect$$rtentry$$00000002
          119   1645: .ARM.Collect$$rtentry$$00000009
          120   1677: .ARM.Collect$$rtentry$$0000000A
          121   1709: .ARM.Collect$$rtentry$$0000000C
          122   1741: .ARM.Collect$$rtentry$$0000000D
          123   1773: .ARM.Collect$$rtentry$$00000004
          124   1805: ../clib/angel/sys.s
          125   1825: ../clib/stdlib.c
          126   1842: ../clib/angel/boardlib.s
          127   1867: ../clib/libinit.s
          128   1885: .ARM.Collect$$libinit$$00000000
          129   1917: .bss
          130   1922: .ARM.Collect$$rtexit$$00000000
          131   1953: .ARM.Collect$$libinit$$00000001
          132   1985: .ARM.Collect$$libinit$$00000004
          133   2017: .ARM.Collect$$libinit$$0000000A
          134   2049: .ARM.Collect$$libinit$$0000000C
          135   2081: .ARM.Collect$$libinit$$0000000E
          136   2113: .ARM.Collect$$libinit$$00000011
          137   2145: .ARM.Collect$$libinit$$00000013
          138   2177: .ARM.Collect$$libinit$$00000015
          139   2209: .ARM.Collect$$libinit$$00000017
          140   2241: .ARM.Collect$$libinit$$00000019
          141   2273: .ARM.Collect$$libinit$$0000001B
          142   2305: .ARM.Collect$$libinit$$0000001D
          143   2337: .ARM.Collect$$libinit$$0000001F
          144   2369: .ARM.Collect$$libinit$$00000021
          145   2401: .ARM.Collect$$libinit$$00000023
          146   2433: .ARM.Collect$$libinit$$00000025
          147   2465: .ARM.Collect$$libinit$$0000002C
          148   2497: .ARM.Collect$$libinit$$0000002E
          149   2529: .ARM.Collect$$libinit$$00000030
          150   2561: .ARM.Collect$$libinit$$00000032
          151   2593: .ARM.Collect$$libinit$$00000033
          152   2625: .ARM.Collect$$rtexit$$00000002
          153   2656: .ARM.Collect$$rtexit$$00000003
          154   2687: .ARM.Collect$$rtexit$$00000004
          155   2718: ../clib/armsys.c
          156   2735: ../fplib/fpinit.s
          157   2753: x$fpl$fpinit
          158   2766: ../clib/angel/sysapp.c
          159   2789: .ARM.Collect$$libshutdown$$00000000
          160   2825: ../clib/heapalloc.c
          161   2845: ../clib/signal.c
          162   2862: .ARM.Collect$$libshutdown$$00000002
          163   2898: .ARM.Collect$$libshutdown$$00000004
          164   2934: .ARM.Collect$$libshutdown$$00000007
          165   2970: .ARM.Collect$$libshutdown$$0000000A
          166   3006: .ARM.Collect$$libshutdown$$0000000C
          167   3042: .ARM.Collect$$libshutdown$$0000000F
          168   3078: .ARM.Collect$$libshutdown$$00000010
          169   3114: ../clib/angel/rt.s
          170   3133: ../clib/signal.s
          171   3150: ../clib/angel/dclz77c.s
          172   3174: !!dclz77c
          173   3184: ../clib/angel/scatter.s
          174   3208: !!!scatter
          175   3219: !!handler_zi
          176   3232: BuildAttributes$$THM_ISAv4$E$P$D$K$B$S$7EM$VFPi3$EXTD16$VFPS$VFMA$PE$A:L22UL41UL21$X:L11$S22US41US21$IEEE1$IW$~IW$USESV6$~STKCKD$USESV7$~SHL$OSPACE$ROPI$EBA8$UX$STANDARDLIB$REQ8$PRES8$EABIv2
          177   3423: __Vectors
          178   3433: __Patchable
          179   3445: Reset_Handler
          180   3459: NMI_Handler
          181   3471: MemManage_Handler
          182   3489: BusFault_Handler
          183   3506: UsageFault_Handler
          184   3525: SVC_Handler
          185   3537: DebugMon_Handler
          186   3554: PendSV_Handler
          187   3569: SysTick_Handler
          188   3585: am_adc_isr
          189   3596: am_ble_isr
          190   3607: am_brownout_isr
          191   3623: am_clkgen_isr
          192   3637: am_ctimer_isr
          193   3651: am_gpio_isr
          194   3663: am_iomaster0_isr
          195   3680: am_iomaster1_isr
          196   3697: am_iomaster2_isr
          197   3714: am_iomaster3_isr
          198   3731: am_iomaster4_isr
          199   3748: am_iomaster5_isr
          200   3765: am_ioslave_acc_isr
          201   3784: am_ioslave_ios_isr
          202   3803: am_mspi0_isr
          203   3816: am_pdm0_isr
          204   3828: am_rtc_isr
          205   3839: am_scard_isr
          206   3852: am_software0_isr
          207   3869: am_stimer_cmpr0_isr
          208   3889: am_stimer_cmpr1_isr
          209   3909: am_stimer_cmpr2_isr
          210   3929: am_stimer_cmpr3_isr
          211   3949: am_stimer_cmpr4_isr
          212   3969: am_stimer_cmpr5_isr
          213   3989: am_stimer_cmpr6_isr
          214   4009: am_stimer_cmpr7_isr
          215   4029: am_stimer_isr
          216   4043: am_uart0_isr
          217   4056: am_uart1_isr
          218   4069: am_vcomp_isr
          219   4082: am_watchdog_isr
          220   4098: __main
          221   4105: __scatterload
          222   4119: __scatterload_rt2
          223   4137: __scatterload_rt2_thumb_only
          224   4166: __scatterload_null
          225   4185: __decompress
          226   4198: __decompress2
          227   4212: __scatterload_copy
          228   4231: __scatterload_zeroinit
          229   4254: __rt_lib_init
          230   4268: __rt_lib_init_fp_1
          231   4287: __rt_lib_init_alloca_1
          232   4310: __rt_lib_init_argv_1
          233   4331: __rt_lib_init_atexit_1
          234   4354: __rt_lib_init_clock_1
          235   4376: __rt_lib_init_cpp_1
          236   4396: __rt_lib_init_exceptions_1
          237   4423: __rt_lib_init_fp_trap_1
          238   4447: __rt_lib_init_getenv_1
          239   4470: __rt_lib_init_heap_1
          240   4491: __rt_lib_init_lc_collate_1
          241   4518: __rt_lib_init_lc_ctype_1
          242   4543: __rt_lib_init_lc_monetary_1
          243   4571: __rt_lib_init_lc_numeric_1
          244   4598: __rt_lib_init_lc_time_1
          245   4622: __rt_lib_init_preinit_1
          246   4646: __rt_lib_init_rand_1
          247   4667: __rt_lib_init_return
          248   4688: __rt_lib_init_signal_1
          249   4711: __rt_lib_init_stdio_1
          250   4733: __rt_lib_init_user_alloc_1
          251   4760: __rt_lib_shutdown
          252   4778: __rt_lib_shutdown_cpp_1
          253   4802: __rt_lib_shutdown_fp_trap_1
          254   4830: __rt_lib_shutdown_heap_1
          255   4855: __rt_lib_shutdown_return
          256   4880: __rt_lib_shutdown_signal_1
          257   4907: __rt_lib_shutdown_stdio_1
          258   4933: __rt_lib_shutdown_user_alloc_1
          259   4964: __rt_entry
          260   4975: __rt_entry_presh_1
          261   4994: __rt_entry_sh
          262   5008: __rt_entry_li
          263   5022: __rt_entry_postsh_1
          264   5042: __rt_entry_main
          265   5058: __rt_entry_postli_1
          266   5078: __rt_exit
          267   5088: __rt_exit_ls
          268   5101: __rt_exit_prels_1
          269   5119: __rt_exit_exit
          270   5134: __user_initial_stackheap
          271   5159: __aeabi_memcpy
          272   5174: __rt_memcpy
          273   5186: _memcpy_lastbytes
          274   5204: __aeabi_memclr4
          275   5220: __aeabi_memclr8
          276   5236: __rt_memclr_w
          277   5250: _memset_w
          278   5260: __use_two_region_memory
          279   5284: __rt_heap_escrow$2region
          280   5309: __rt_heap_expand$2region
          281   5334: __aeabi_memcpy4
          282   5350: __aeabi_memcpy8
          283   5366: __rt_memcpy_w
          284   5380: _memcpy_lastbytes_aligned
          285   5406: __user_setup_stackheap
          286   5429: exit
          287   5434: __user_libspace
          288   5450: __user_perproc_libspace
          289   5474: __user_perthread_libspace
          290   5500: _sys_exit
          291   5510: __I$use$semihosting
          292   5530: __use_no_semihosting_swi
          293   5555: __semihosting_library_function
          294   5586: HardFault_Handler
          295   5604: am_bsp_itm_printf_enable
          296   5629: am_bsp_low_power_init
          297   5651: am_hal_ble_blocking_hci_read
          298   5680: am_hal_ble_blocking_hci_write
          299   5710: am_hal_ble_blocking_transfer
          300   5739: am_hal_ble_config
          301   5757: am_hal_ble_default_copy_patch_apply
          302   5793: am_hal_ble_default_patch_apply
          303   5824: am_hal_ble_default_trim_set_ramcode
          304   5860: am_hal_ble_deinitialize
          305   5884: am_hal_ble_initialize
          306   5906: am_hal_ble_int_clear
          307   5927: am_hal_ble_int_status
          308   5949: am_hal_ble_patch_apply
          309   5972: am_hal_ble_patch_complete
          310   5998: am_hal_ble_patch_copy_end_apply
          311   6030: am_hal_ble_patch_preload
          312   6055: am_hal_ble_plf_reg_read
          313   6079: am_hal_ble_plf_reg_write
          314   6104: am_hal_ble_power_control
          315   6129: am_hal_ble_sleep_set
          316   6150: am_hal_ble_transmitter_modex_set
          317   6183: am_hal_ble_tx_power_set
          318   6207: am_hal_ble_wakeup_set
          319   6229: am_hal_cachectrl_control
          320   6254: am_hal_clkgen_control
          321   6276: am_hal_clkgen_status_get
          322   6301: am_hal_flash_delay
          323   6320: am_hal_flash_delay_status_check
          324   6352: am_hal_flash_load_ui32
          325   6375: am_hal_flash_store_ui32
          326   6399: am_hal_gpio_pinconfig
          327   6421: am_hal_gpio_state_write
          328   6445: am_hal_interrupt_master_disable
          329   6477: am_hal_interrupt_master_enable
          330   6508: am_hal_interrupt_master_set
          331   6536: am_hal_itm_enable
          332   6554: am_hal_itm_print
          333   6571: am_hal_mcuctrl_info_get
          334   6595: am_hal_pwrctrl_blebuck_trim
          335   6623: am_hal_pwrctrl_low_power_init
          336   6653: am_hal_pwrctrl_periph_disable
          337   6683: am_hal_pwrctrl_periph_enable
          338   6712: am_hal_queue_init
          339   6730: am_hal_queue_item_add
          340   6752: am_hal_queue_item_get
          341   6774: am_hal_reset_control
          342   6795: am_hal_rtc_osc_disable
          343   6818: am_hal_tpiu_enable
          344   6837: am_hal_uart_configure
          345   6859: am_hal_uart_initialize
          346   6882: am_hal_uart_interrupt_clear
          347   6910: am_hal_uart_interrupt_enable
          348   6939: am_hal_uart_interrupt_service
          349   6969: am_hal_uart_interrupt_status_get
          350   7002: am_hal_uart_power_control
          351   7028: am_hal_uart_transfer
          352   7049: am_uart_isr
          353   7061: am_util_ble_crystal_trim_set
          354   7090: am_util_ble_init_rf_channel
          355   7118: am_util_ble_set_carrier_wave_ex
          356   7150: am_util_ble_set_constant_transmission
          357   7188: am_util_ble_set_constant_transmission_ex
          358   7229: am_util_ble_transmitter_control
          359   7261: am_util_ble_transmitter_control_ex
          360   7296: am_util_delay_ms
          361   7313: am_util_faultisr_collect_data
          362   7343: am_util_stdio_printf
          363   7364: am_util_stdio_printf_init
          364   7390: am_util_stdio_vsprintf
          365   7413: getStackedReg
          366   7427: hciUartRxIncoming
          367   7445: main
          368   7450: __aeabi_d2f
          369   7462: _d2f
          370   7467: __fpl_dnaninf
          371   7481: _fp_init
          372   7490: __fplib_config_fpu_vfp
          373   7513: __fplib_config_pureend_doubles
          374   7544: __fpl_fretinf
          375   7558: __I$use$fp
          376   7569: am_ble_buffer_patch_data
          377   7594: am_ble_buffer_patch_data_b0
          378   7622: am_ble_performance_copy_patch_data
          379   7657: am_hal_ble_default_config
          380   7683: am_hal_ble_num_default_patches
          381   7714: am_hal_ble_num_default_patches_b0
          382   7748: am_hal_pwrctrl_peripheral_control
          383   7782: g_AM_BSP_GPIO_ITM_SWO
          384   7804: g_AM_HAL_GPIO_OUTPUT
          385   7825: g_GpioUartRxCfg
          386   7841: g_GpioUartTxCfg
          387   7857: g_am_hal_mcuctrl_flash_size
          388   7885: g_am_hal_mcuctrl_sram_size
          389   7912: Region$$Table$$Base
          390   7932: Region$$Table$$Limit
          391   7953: am_ble_buffer_nvds_data
          392   7977: am_ble_buffer_nvds_data_b0
          393   8004: am_ble_buffer_patch
          394   8024: am_ble_buffer_patch_b0
          395   8047: am_ble_hw_patch
          396   8063: am_ble_hw_patch_data
          397   8084: am_ble_nvds_patch
          398   8102: am_ble_nvds_patch_b0
          399   8123: am_ble_performance_copy_patch
          400   8153: am_ble_performance_patch
          401   8178: am_ble_performance_patch_b0
          402   8206: am_ble_performance_patch_data
          403   8236: am_ble_performance_patch_data_b0
          404   8269: am_bsp_psLEDs
          405   8283: am_hal_ble_default_copy_patch_array
          406   8319: am_hal_ble_default_copy_patches
          407   8351: am_hal_ble_default_patch_array
          408   8382: am_hal_ble_default_patch_array_b0
          409   8416: am_hal_ble_default_patches
          410   8443: am_hal_ble_default_patches_b0
          411   8473: __libspace_start
          412   8490: __temporary_stack_top$libspace
          413   8521: carrier_wave_mode
          414   8539: gAmHalResetStatus
          415   8557: g_bCmdProcessedFlag
          416   8577: g_bRxTimeoutFlag
          417   8594: g_pfnCharPrint
          418   8609: g_psPatchBuffer
          419   8625: g_psReadData
          420   8638: g_psWriteData
          421   8652: g_pui8UARTTXBuffer
          422   8671: g_pvBLEHandle
          423   8685: g_pvUART
          424   8694: g_sBLEState
          425   8706: g_ui32UARTRxIndex


** Section #12 '.note' (SHT_NOTE)
    Size   : 28 bytes (alignment 4)


** Section #13 '.comment' (SHT_PROGBITS)
    Size   : 1576 bytes


** Section #14 '.shstrtab' (SHT_STRTAB)
    Size   : 132 bytes

            #  Offset String
        ====================================

            1      1: FLASH
            2      7: SRAM
            3     12: .debug_abbrev
            4     26: .debug_frame
            5     39: .debug_info
            6     51: .debug_line
            7     63: .debug_str
            8     74: .debug_ranges
            9     88: .symtab
           10     96: .strtab
           11    104: .note
           12    110: .comment
           13    119: .shstrtab
           14    129: 
           15    130: 
           16    131: 


