
========================================================================

** ELF Header Information

    File Name: bin\emmc_bm_fatfs.axf

    Machine class: ELFCLASS32 (32-bit)
    Data encoding: ELFDATA2LSB (Little endian)
    Header version: EV_CURRENT (Current version)
    Operating System ABI: none
    ABI Version: 0
    File Type: ET_EXEC (Executable) (2)
    Machine: EM_ARM (ARM)

    Image Entry point: 0x00018235
    Flags: EF_ARM_HASENTRY + EF_ARM_ABI_FLOAT_HARD (0x05000402)

    ARM ELF revision: 5 (ABI version 2)

    Conforms to Hard float procedure-call standard

    Built with
    Component: ARM Compiler 5.06 update 6 (build 750) Tool: armasm [4d35ec]
    Component: ARM Compiler 5.06 update 6 (build 750) Tool: armlink [4d35ed]

    Header size: 52 bytes (0x34)
    Program header entry size: 32 bytes (0x20)
    Section header entry size: 40 bytes (0x28)

    Program header entries: 1
    Section header entries: 17

    Program header offset: 230268 (0x0003837c)
    Section header offset: 230300 (0x0003839c)

    Section header string table index: 16

========================================================================

** Program header #0 (PT_LOAD) [PF_X + PF_W + PF_R + PF_ARM_ENTRY]
    Size : 45488 bytes (30192 bytes in file)
    Virtual address: 0x00018000 (Alignment 8)


========================================================================

** Section #1 'MCU_MRAM' (SHT_PROGBITS) [SHF_ALLOC + SHF_EXECINSTR]
    Size   : 29952 bytes (alignment 4)
    Address: 0x00018000

    $d
    RESET
    __Vectors
        0x00018000:    10003c70    p<..    DCD    268450928
        0x00018004:    00018201    ....    DCD    98817
        0x00018008:    0001821f    ....    DCD    98847
        0x0001800c:    00018331    1...    DCD    99121
        0x00018010:    00018221    !...    DCD    98849
        0x00018014:    00018223    #...    DCD    98851
        0x00018018:    00018225    %...    DCD    98853
        0x0001801c:    00000000    ....    DCD    0
        0x00018020:    00000000    ....    DCD    0
        0x00018024:    00000000    ....    DCD    0
        0x00018028:    00000000    ....    DCD    0
        0x0001802c:    00018227    '...    DCD    98855
        0x00018030:    00018229    )...    DCD    98857
        0x00018034:    00000000    ....    DCD    0
        0x00018038:    0001822b    +...    DCD    98859
        0x0001803c:    0001822d    -...    DCD    98861
        0x00018040:    0001822f    /...    DCD    98863
        0x00018044:    0001822f    /...    DCD    98863
        0x00018048:    0001822f    /...    DCD    98863
        0x0001804c:    0001822f    /...    DCD    98863
        0x00018050:    0001822f    /...    DCD    98863
        0x00018054:    0001822f    /...    DCD    98863
        0x00018058:    0001822f    /...    DCD    98863
        0x0001805c:    0001822f    /...    DCD    98863
        0x00018060:    0001822f    /...    DCD    98863
        0x00018064:    0001822f    /...    DCD    98863
        0x00018068:    0001822f    /...    DCD    98863
        0x0001806c:    0001822f    /...    DCD    98863
        0x00018070:    0001822f    /...    DCD    98863
        0x00018074:    0001822f    /...    DCD    98863
        0x00018078:    0001822f    /...    DCD    98863
        0x0001807c:    0001822f    /...    DCD    98863
        0x00018080:    0001822f    /...    DCD    98863
        0x00018084:    0001822f    /...    DCD    98863
        0x00018088:    0001822f    /...    DCD    98863
        0x0001808c:    0001822f    /...    DCD    98863
        0x00018090:    0001822f    /...    DCD    98863
        0x00018094:    0001822f    /...    DCD    98863
        0x00018098:    0001822f    /...    DCD    98863
        0x0001809c:    0001822f    /...    DCD    98863
        0x000180a0:    0001822f    /...    DCD    98863
        0x000180a4:    0001822f    /...    DCD    98863
        0x000180a8:    0001b2c9    ....    DCD    111305
        0x000180ac:    0001822f    /...    DCD    98863
        0x000180b0:    0001822f    /...    DCD    98863
        0x000180b4:    0001822f    /...    DCD    98863
        0x000180b8:    0001822f    /...    DCD    98863
        0x000180bc:    0001822f    /...    DCD    98863
        0x000180c0:    0001822f    /...    DCD    98863
        0x000180c4:    0001822f    /...    DCD    98863
        0x000180c8:    0001822f    /...    DCD    98863
        0x000180cc:    0001822f    /...    DCD    98863
        0x000180d0:    0001822f    /...    DCD    98863
        0x000180d4:    0001822f    /...    DCD    98863
        0x000180d8:    0001822f    /...    DCD    98863
        0x000180dc:    0001822f    /...    DCD    98863
        0x000180e0:    0001822f    /...    DCD    98863
        0x000180e4:    0001822f    /...    DCD    98863
        0x000180e8:    0001822f    /...    DCD    98863
        0x000180ec:    0001822f    /...    DCD    98863
        0x000180f0:    0001822f    /...    DCD    98863
        0x000180f4:    0001822f    /...    DCD    98863
        0x000180f8:    0001822f    /...    DCD    98863
        0x000180fc:    0001822f    /...    DCD    98863
        0x00018100:    0001822f    /...    DCD    98863
        0x00018104:    0001822f    /...    DCD    98863
        0x00018108:    0001822f    /...    DCD    98863
        0x0001810c:    0001822f    /...    DCD    98863
        0x00018110:    0001822f    /...    DCD    98863
        0x00018114:    0001822f    /...    DCD    98863
        0x00018118:    0001822f    /...    DCD    98863
        0x0001811c:    0001822f    /...    DCD    98863
        0x00018120:    0001822f    /...    DCD    98863
        0x00018124:    0001822f    /...    DCD    98863
        0x00018128:    0001822f    /...    DCD    98863
        0x0001812c:    0001822f    /...    DCD    98863
        0x00018130:    0001822f    /...    DCD    98863
        0x00018134:    0001822f    /...    DCD    98863
        0x00018138:    0001822f    /...    DCD    98863
        0x0001813c:    0001822f    /...    DCD    98863
        0x00018140:    0001822f    /...    DCD    98863
        0x00018144:    0001822f    /...    DCD    98863
        0x00018148:    0001822f    /...    DCD    98863
        0x0001814c:    0001822f    /...    DCD    98863
        0x00018150:    0001822f    /...    DCD    98863
        0x00018154:    0001822f    /...    DCD    98863
        0x00018158:    0001822f    /...    DCD    98863
        0x0001815c:    0001822f    /...    DCD    98863
        0x00018160:    0001822f    /...    DCD    98863
        0x00018164:    0001822f    /...    DCD    98863
        0x00018168:    0001822f    /...    DCD    98863
        0x0001816c:    0001822f    /...    DCD    98863
        0x00018170:    0001822f    /...    DCD    98863
        0x00018174:    0001822f    /...    DCD    98863
        0x00018178:    0001822f    /...    DCD    98863
        0x0001817c:    0001822f    /...    DCD    98863
        0x00018180:    0001822f    /...    DCD    98863
        0x00018184:    0001822f    /...    DCD    98863
        0x00018188:    0001822f    /...    DCD    98863
        0x0001818c:    0001822f    /...    DCD    98863
    __Patchable
        0x00018190:    00000000    ....    DCD    0
        0x00018194:    00000000    ....    DCD    0
        0x00018198:    00000000    ....    DCD    0
        0x0001819c:    00000000    ....    DCD    0
        0x000181a0:    00000000    ....    DCD    0
        0x000181a4:    00000000    ....    DCD    0
        0x000181a8:    00000000    ....    DCD    0
        0x000181ac:    00000000    ....    DCD    0
        0x000181b0:    00000000    ....    DCD    0
        0x000181b4:    00000000    ....    DCD    0
        0x000181b8:    00000000    ....    DCD    0
        0x000181bc:    00000000    ....    DCD    0
        0x000181c0:    00000000    ....    DCD    0
        0x000181c4:    00000000    ....    DCD    0
        0x000181c8:    00000000    ....    DCD    0
        0x000181cc:    00000000    ....    DCD    0
        0x000181d0:    00000000    ....    DCD    0
        0x000181d4:    00000000    ....    DCD    0
        0x000181d8:    00000000    ....    DCD    0
        0x000181dc:    00000000    ....    DCD    0
        0x000181e0:    00000000    ....    DCD    0
        0x000181e4:    00000000    ....    DCD    0
        0x000181e8:    00000000    ....    DCD    0
        0x000181ec:    00000000    ....    DCD    0
        0x000181f0:    00000000    ....    DCD    0
        0x000181f4:    00000000    ....    DCD    0
        0x000181f8:    00000000    ....    DCD    0
        0x000181fc:    00000000    ....    DCD    0
    $t
    $v0
    Reset_Handler
        0x00018200:    f64e5088    N..P    MOV      r0,#0xed88
        0x00018204:    f2ce0000    ....    MOVT     r0,#0xe000
        0x00018208:    6801        .h      LDR      r1,[r0,#0]
        0x0001820a:    f4410170    A.p.    ORR      r1,r1,#0xf00000
        0x0001820e:    6001        .`      STR      r1,[r0,#0]
        0x00018210:    f3bf8f4f    ..O.    DSB      
        0x00018214:    f3bf8f6f    ..o.    ISB      
        0x00018218:    4805        .H      LDR      r0,[pc,#20] ; [0x18230] = 0x18235
        0x0001821a:    4700        .G      BX       r0
        0x0001821c:    e7fe        ..      B        0x1821c ; Reset_Handler + 28
    NMI_Handler
        0x0001821e:    e7fe        ..      B        NMI_Handler ; 0x1821e
    MemManage_Handler
        0x00018220:    e7fe        ..      B        MemManage_Handler ; 0x18220
    BusFault_Handler
        0x00018222:    e7fe        ..      B        BusFault_Handler ; 0x18222
    UsageFault_Handler
        0x00018224:    e7fe        ..      B        UsageFault_Handler ; 0x18224
    SVC_Handler
        0x00018226:    e7fe        ..      B        SVC_Handler ; 0x18226
    DebugMon_Handler
        0x00018228:    e7fe        ..      B        DebugMon_Handler ; 0x18228
    PendSV_Handler
        0x0001822a:    e7fe        ..      B        PendSV_Handler ; 0x1822a
    SysTick_Handler
        0x0001822c:    e7fe        ..      B        SysTick_Handler ; 0x1822c
    am_cryptosec_isr
    am_default_isr
    am_adc_isr
    am_audadc0_isr
    am_brownout_isr
    am_cachecpu_isr
    am_clkgen_isr
    am_ctimer_isr
    am_disp_isr
    am_dsi_isr
    am_dspi2s0_isr
    am_dspi2s1_isr
    am_dspi2s2_isr
    am_dspi2s3_isr
    am_gpio0_001f_isr
    am_gpio0_203f_isr
    am_gpio0_405f_isr
    am_gpio0_607f_isr
    am_gpio1_001f_isr
    am_gpio1_203f_isr
    am_gpio1_405f_isr
    am_gpio1_607f_isr
    am_gpu_isr
    am_iomaster0_isr
    am_iomaster1_isr
    am_iomaster2_isr
    am_iomaster3_isr
    am_iomaster4_isr
    am_iomaster5_isr
    am_iomaster6_isr
    am_iomaster7_isr
    am_ioslave_acc_isr
    am_ioslave_ios_isr
    am_mspi0_isr
    am_mspi1_isr
    am_mspi2_isr
    am_pdm0_isr
    am_pdm1_isr
    am_pdm2_isr
    am_pdm3_isr
    am_rtc_isr
    am_stimer_cmpr0_isr
    am_stimer_cmpr1_isr
    am_stimer_cmpr2_isr
    am_stimer_cmpr3_isr
    am_stimer_cmpr4_isr
    am_stimer_cmpr5_isr
    am_stimer_cmpr6_isr
    am_stimer_cmpr7_isr
    am_stimerof_isr
    am_timer00_isr
    am_timer01_isr
    am_timer02_isr
    am_timer03_isr
    am_timer04_isr
    am_timer05_isr
    am_timer06_isr
    am_timer07_isr
    am_timer08_isr
    am_timer09_isr
    am_timer10_isr
    am_timer11_isr
    am_timer12_isr
    am_timer13_isr
    am_timer14_isr
    am_timer15_isr
    am_uart1_isr
    am_uart2_isr
    am_uart3_isr
    am_uart_isr
    am_usb_isr
    am_vcomp_isr
    am_watchdog_isr
        0x0001822e:    e7fe        ..      B        am_cryptosec_isr ; 0x1822e
    $d
        0x00018230:    00018235    5...    DCD    98869
    $t
    !!!main
    __main
        0x00018234:    f000f802    ....    BL       __scatterload ; 0x1823c
        0x00018238:    f000f86a    ..j.    BL       __rt_entry ; 0x18310
    !!!scatter
    __scatterload
    __scatterload_rt2
    __scatterload_rt2_thumb_only
        0x0001823c:    a00a        ..      ADR      r0,{pc}+0x2c ; 0x18268
        0x0001823e:    e8900c00    ....    LDM      r0,{r10,r11}
        0x00018242:    4482        .D      ADD      r10,r10,r0
        0x00018244:    4483        .D      ADD      r11,r11,r0
        0x00018246:    f1aa0701    ....    SUB      r7,r10,#1
    __scatterload_null
        0x0001824a:    45da        .E      CMP      r10,r11
        0x0001824c:    d101        ..      BNE      0x18252 ; __scatterload_null + 8
        0x0001824e:    f000f85f    .._.    BL       __rt_entry ; 0x18310
        0x00018252:    f2af0e09    ....    ADR      lr,{pc}-7 ; 0x1824b
        0x00018256:    e8ba000f    ....    LDM      r10!,{r0-r3}
        0x0001825a:    f0130f01    ....    TST      r3,#1
        0x0001825e:    bf18        ..      IT       NE
        0x00018260:    1afb        ..      SUBNE    r3,r7,r3
        0x00018262:    f0430301    C...    ORR      r3,r3,#1
        0x00018266:    4718        .G      BX       r3
    $d
        0x00018268:    00007268    hr..    DCD    29288
        0x0001826c:    00007298    .r..    DCD    29336
    $t
    !!dczerorl2
    __decompress
    __decompress1
        0x00018270:    440a        .D      ADD      r2,r2,r1
        0x00018272:    f04f0c00    O...    MOV      r12,#0
        0x00018276:    f8103b01    ...;    LDRB     r3,[r0],#1
        0x0001827a:    f0130407    ....    ANDS     r4,r3,#7
        0x0001827e:    bf08        ..      IT       EQ
        0x00018280:    f8104b01    ...K    LDRBEQ   r4,[r0],#1
        0x00018284:    111d        ..      ASRS     r5,r3,#4
        0x00018286:    bf08        ..      IT       EQ
        0x00018288:    f8105b01    ...[    LDRBEQ   r5,[r0],#1
        0x0001828c:    1e64        d.      SUBS     r4,r4,#1
        0x0001828e:    d005        ..      BEQ      0x1829c ; __decompress + 44
        0x00018290:    f8106b01    ...k    LDRB     r6,[r0],#1
        0x00018294:    1e64        d.      SUBS     r4,r4,#1
        0x00018296:    f8016b01    ...k    STRB     r6,[r1],#1
        0x0001829a:    d1f9        ..      BNE      0x18290 ; __decompress + 32
        0x0001829c:    f0130f08    ....    TST      r3,#8
        0x000182a0:    bf1e        ..      ITTT     NE
        0x000182a2:    f8104b01    ...K    LDRBNE   r4,[r0],#1
        0x000182a6:    1cad        ..      ADDNE    r5,r5,#2
        0x000182a8:    1b0c        ..      SUBNE    r4,r1,r4
        0x000182aa:    d109        ..      BNE      0x182c0 ; __decompress + 80
        0x000182ac:    1e6d        m.      SUBS     r5,r5,#1
        0x000182ae:    bf58        X.      IT       PL
        0x000182b0:    f801cb01    ....    STRBPL   r12,[r1],#1
        0x000182b4:    d5fa        ..      BPL      0x182ac ; __decompress + 60
        0x000182b6:    e005        ..      B        0x182c4 ; __decompress + 84
        0x000182b8:    f8146b01    ...k    LDRB     r6,[r4],#1
        0x000182bc:    f8016b01    ...k    STRB     r6,[r1],#1
        0x000182c0:    1e6d        m.      SUBS     r5,r5,#1
        0x000182c2:    d5f9        ..      BPL      0x182b8 ; __decompress + 72
        0x000182c4:    4291        .B      CMP      r1,r2
        0x000182c6:    d3d6        ..      BCC      0x18276 ; __decompress + 6
        0x000182c8:    4770        pG      BX       lr
        0x000182ca:    0000        ..      MOVS     r0,r0
    !!handler_copy
    __scatterload_copy
        0x000182cc:    3a10        .:      SUBS     r2,r2,#0x10
        0x000182ce:    bf24        $.      ITT      CS
        0x000182d0:    c878        x.      LDMCS    r0!,{r3-r6}
        0x000182d2:    c178        x.      STMCS    r1!,{r3-r6}
        0x000182d4:    d8fa        ..      BHI      __scatterload_copy ; 0x182cc
        0x000182d6:    0752        R.      LSLS     r2,r2,#29
        0x000182d8:    bf24        $.      ITT      CS
        0x000182da:    c830        0.      LDMCS    r0!,{r4,r5}
        0x000182dc:    c130        0.      STMCS    r1!,{r4,r5}
        0x000182de:    bf44        D.      ITT      MI
        0x000182e0:    6804        .h      LDRMI    r4,[r0,#0]
        0x000182e2:    600c        .`      STRMI    r4,[r1,#0]
        0x000182e4:    4770        pG      BX       lr
        0x000182e6:    0000        ..      MOVS     r0,r0
    !!handler_zi
    __scatterload_zeroinit
        0x000182e8:    2300        .#      MOVS     r3,#0
        0x000182ea:    2400        .$      MOVS     r4,#0
        0x000182ec:    2500        .%      MOVS     r5,#0
        0x000182ee:    2600        .&      MOVS     r6,#0
        0x000182f0:    3a10        .:      SUBS     r2,r2,#0x10
        0x000182f2:    bf28        (.      IT       CS
        0x000182f4:    c178        x.      STMCS    r1!,{r3-r6}
        0x000182f6:    d8fb        ..      BHI      0x182f0 ; __scatterload_zeroinit + 8
        0x000182f8:    0752        R.      LSLS     r2,r2,#29
        0x000182fa:    bf28        (.      IT       CS
        0x000182fc:    c130        0.      STMCS    r1!,{r4,r5}
        0x000182fe:    bf48        H.      IT       MI
        0x00018300:    600b        .`      STRMI    r3,[r1,#0]
        0x00018302:    4770        pG      BX       lr
    .ARM.Collect$$libinit$$00000000
    __rt_lib_init
        0x00018304:    b51f        ..      PUSH     {r0-r4,lr}
    .ARM.Collect$$libinit$$00000001
    __rt_lib_init_fp_1
        0x00018306:    f006fcf6    ....    BL       _fp_init ; 0x1ecf6
    .ARM.Collect$$libinit$$00000004
    .ARM.Collect$$libinit$$0000000A
    .ARM.Collect$$libinit$$0000000C
    .ARM.Collect$$libinit$$0000000E
    .ARM.Collect$$libinit$$00000011
    .ARM.Collect$$libinit$$00000013
    .ARM.Collect$$libinit$$00000015
    .ARM.Collect$$libinit$$00000017
    .ARM.Collect$$libinit$$00000019
    .ARM.Collect$$libinit$$0000001B
    .ARM.Collect$$libinit$$0000001D
    .ARM.Collect$$libinit$$0000001F
    .ARM.Collect$$libinit$$00000021
    .ARM.Collect$$libinit$$00000023
    .ARM.Collect$$libinit$$00000025
    .ARM.Collect$$libinit$$0000002C
    .ARM.Collect$$libinit$$0000002E
    .ARM.Collect$$libinit$$00000030
    .ARM.Collect$$libinit$$00000032
    .ARM.Collect$$libinit$$00000033
    __rt_lib_init_alloca_1
    __rt_lib_init_argv_1
    __rt_lib_init_atexit_1
    __rt_lib_init_clock_1
    __rt_lib_init_cpp_1
    __rt_lib_init_exceptions_1
    __rt_lib_init_fp_trap_1
    __rt_lib_init_getenv_1
    __rt_lib_init_heap_1
    __rt_lib_init_lc_collate_1
    __rt_lib_init_lc_ctype_1
    __rt_lib_init_lc_monetary_1
    __rt_lib_init_lc_numeric_1
    __rt_lib_init_lc_time_1
    __rt_lib_init_preinit_1
    __rt_lib_init_rand_1
    __rt_lib_init_return
    __rt_lib_init_signal_1
    __rt_lib_init_stdio_1
    __rt_lib_init_user_alloc_1
        0x0001830a:    bd1f        ..      POP      {r0-r4,pc}
    .ARM.Collect$$libshutdown$$00000000
    __rt_lib_shutdown
        0x0001830c:    b510        ..      PUSH     {r4,lr}
    .ARM.Collect$$libshutdown$$00000002
    .ARM.Collect$$libshutdown$$00000004
    .ARM.Collect$$libshutdown$$00000007
    .ARM.Collect$$libshutdown$$0000000A
    .ARM.Collect$$libshutdown$$0000000C
    .ARM.Collect$$libshutdown$$0000000F
    .ARM.Collect$$libshutdown$$00000010
    __rt_lib_shutdown_cpp_1
    __rt_lib_shutdown_fp_trap_1
    __rt_lib_shutdown_heap_1
    __rt_lib_shutdown_return
    __rt_lib_shutdown_signal_1
    __rt_lib_shutdown_stdio_1
    __rt_lib_shutdown_user_alloc_1
        0x0001830e:    bd10        ..      POP      {r4,pc}
    .ARM.Collect$$rtentry$$00000000
    .ARM.Collect$$rtentry$$00000002
    .ARM.Collect$$rtentry$$00000004
    __rt_entry
    __rt_entry_presh_1
    __rt_entry_sh
        0x00018310:    f000f888    ....    BL       __user_setup_stackheap ; 0x18424
        0x00018314:    4611        .F      MOV      r1,r2
    .ARM.Collect$$rtentry$$00000009
    .ARM.Collect$$rtentry$$0000000A
    __rt_entry_li
    __rt_entry_postsh_1
        0x00018316:    f7fffff5    ....    BL       __rt_lib_init ; 0x18304
    .ARM.Collect$$rtentry$$0000000C
    .ARM.Collect$$rtentry$$0000000D
    __rt_entry_main
    __rt_entry_postli_1
        0x0001831a:    f005fb29    ..).    BL       main ; 0x1d970
        0x0001831e:    f000f8a6    ....    BL       exit ; 0x1846e
    .ARM.Collect$$rtexit$$00000000
    __rt_exit
        0x00018322:    b403        ..      PUSH     {r0,r1}
    .ARM.Collect$$rtexit$$00000002
    .ARM.Collect$$rtexit$$00000003
    __rt_exit_ls
    __rt_exit_prels_1
        0x00018324:    f7fffff2    ....    BL       __rt_lib_shutdown ; 0x1830c
    .ARM.Collect$$rtexit$$00000004
    __rt_exit_exit
        0x00018328:    bc03        ..      POP      {r0,r1}
        0x0001832a:    f000f8ad    ....    BL       _sys_exit ; 0x18488
        0x0001832e:    0000        ..      MOVS     r0,r0
    .emb_text
    $v0
    HardFault_Handler
        0x00018330:    b501        ..      PUSH     {r0,lr}
        0x00018332:    f01e0f04    ....    TST      lr,#4
        0x00018336:    bf0a        ..      ITET     EQ
        0x00018338:    f3ef8008    ....    MRSEQ    r0,MSP
        0x0001833c:    f3ef8009    ....    MRSNE    r0,PSP
        0x00018340:    f1100008    ....    ADDSEQ   r0,r0,#8
        0x00018344:    f002ffe8    ....    BL       am_util_faultisr_collect_data ; 0x1b318
        0x00018348:    bd01        ..      POP      {r0,pc}
    getStackedReg
        0x0001834a:    0080        ..      LSLS     r0,r0,#2
        0x0001834c:    1840        @.      ADDS     r0,r0,r1
        0x0001834e:    6800        .h      LDR      r0,[r0,#0]
        0x00018350:    4770        pG      BX       lr
        0x00018352:    0000        ..      MOVS     r0,r0
    .emb_text
    $v0
    am_hal_interrupt_master_enable
        0x00018354:    f3ef8010    ....    MRS      r0,PRIMASK
        0x00018358:    b662        b.      CPSIE    i
        0x0001835a:    4770        pG      BX       lr
    am_hal_interrupt_master_disable
        0x0001835c:    f3ef8010    ....    MRS      r0,PRIMASK
        0x00018360:    b672        r.      CPSID    i
        0x00018362:    4770        pG      BX       lr
    am_hal_interrupt_master_set
        0x00018364:    f3808810    ....    MSR      PRIMASK,r0
        0x00018368:    4770        pG      BX       lr
        0x0001836a:    0000        ..      MOVS     r0,r0
    .text
    $v0
    __user_initial_stackheap
        0x0001836c:    4802        .H      LDR      r0,[pc,#8] ; [0x18378] = 0x10001170
        0x0001836e:    4903        .I      LDR      r1,[pc,#12] ; [0x1837c] = 0x10003c70
        0x00018370:    4a01        .J      LDR      r2,[pc,#4] ; [0x18378] = 0x10001170
        0x00018372:    4b03        .K      LDR      r3,[pc,#12] ; [0x18380] = 0x10001170
        0x00018374:    4770        pG      BX       lr
    $d
        0x00018376:    0000        ..      DCW    0
        0x00018378:    10001170    p...    DCD    268439920
        0x0001837c:    10003c70    p<..    DCD    268450928
        0x00018380:    10001170    p...    DCD    268439920
    $t
    .text
    __aeabi_llsl
    _ll_shift_l
        0x00018384:    f1b20320    .. .    SUBS     r3,r2,#0x20
        0x00018388:    d50a        ..      BPL      0x183a0 ; __aeabi_llsl + 28
        0x0001838a:    f1c20320    .. .    RSB      r3,r2,#0x20
        0x0001838e:    fa01f102    ....    LSL      r1,r1,r2
        0x00018392:    fa20f303     ...    LSR      r3,r0,r3
        0x00018396:    fa00f002    ....    LSL      r0,r0,r2
        0x0001839a:    ea410103    A...    ORR      r1,r1,r3
        0x0001839e:    4770        pG      BX       lr
        0x000183a0:    fa00f103    ....    LSL      r1,r0,r3
        0x000183a4:    f04f0000    O...    MOV      r0,#0
        0x000183a8:    4770        pG      BX       lr
    .text
    __aeabi_llsr
    _ll_ushift_r
        0x000183aa:    f1b20320    .. .    SUBS     r3,r2,#0x20
        0x000183ae:    d50a        ..      BPL      0x183c6 ; __aeabi_llsr + 28
        0x000183b0:    f1c20320    .. .    RSB      r3,r2,#0x20
        0x000183b4:    fa20f002     ...    LSR      r0,r0,r2
        0x000183b8:    fa01f303    ....    LSL      r3,r1,r3
        0x000183bc:    fa21f102    !...    LSR      r1,r1,r2
        0x000183c0:    ea400003    @...    ORR      r0,r0,r3
        0x000183c4:    4770        pG      BX       lr
        0x000183c6:    fa21f003    !...    LSR      r0,r1,r3
        0x000183ca:    f04f0100    O...    MOV      r1,#0
        0x000183ce:    4770        pG      BX       lr
    .text
    __aeabi_memclr4
    __aeabi_memclr8
    __rt_memclr_w
        0x000183d0:    f04f0200    O...    MOV      r2,#0
    _memset_w
        0x000183d4:    b500        ..      PUSH     {lr}
        0x000183d6:    4613        .F      MOV      r3,r2
        0x000183d8:    4694        .F      MOV      r12,r2
        0x000183da:    4696        .F      MOV      lr,r2
        0x000183dc:    3920         9      SUBS     r1,r1,#0x20
        0x000183de:    bf22        ".      ITTT     CS
        0x000183e0:    e8a0500c    ...P    STMCS    r0!,{r2,r3,r12,lr}
        0x000183e4:    e8a0500c    ...P    STMCS    r0!,{r2,r3,r12,lr}
        0x000183e8:    f1b10120    .. .    SUBSCS   r1,r1,#0x20
        0x000183ec:    f4bfaff7    ....    BCS.W    0x183de ; _memset_w + 10
        0x000183f0:    0709        ..      LSLS     r1,r1,#28
        0x000183f2:    bf28        (.      IT       CS
        0x000183f4:    e8a0500c    ...P    STMCS    r0!,{r2,r3,r12,lr}
        0x000183f8:    bf48        H.      IT       MI
        0x000183fa:    c00c        ..      STMMI    r0!,{r2,r3}
        0x000183fc:    f85deb04    ]...    POP      {lr}
        0x00018400:    0089        ..      LSLS     r1,r1,#2
        0x00018402:    bf28        (.      IT       CS
        0x00018404:    f8402b04    @..+    STRCS    r2,[r0],#4
        0x00018408:    bf08        ..      IT       EQ
        0x0001840a:    4770        pG      BXEQ     lr
        0x0001840c:    bf48        H.      IT       MI
        0x0001840e:    f8202b02     ..+    STRHMI   r2,[r0],#2
        0x00018412:    f0114f80    ...O    TST      r1,#0x40000000
        0x00018416:    bf18        ..      IT       NE
        0x00018418:    f8002b01    ...+    STRBNE   r2,[r0],#1
        0x0001841c:    4770        pG      BX       lr
    .text
    __use_two_region_memory
        0x0001841e:    4770        pG      BX       lr
    __rt_heap_escrow$2region
        0x00018420:    4770        pG      BX       lr
    __rt_heap_expand$2region
        0x00018422:    4770        pG      BX       lr
    .text
    __user_setup_stackheap
        0x00018424:    4675        uF      MOV      r5,lr
        0x00018426:    f000f82b    ..+.    BL       __user_libspace ; 0x18480
        0x0001842a:    46ae        .F      MOV      lr,r5
        0x0001842c:    0005        ..      MOVS     r5,r0
        0x0001842e:    4669        iF      MOV      r1,sp
        0x00018430:    4653        SF      MOV      r3,r10
        0x00018432:    f0200007     ...    BIC      r0,r0,#7
        0x00018436:    4685        .F      MOV      sp,r0
        0x00018438:    b018        ..      ADD      sp,sp,#0x60
        0x0001843a:    b520         .      PUSH     {r5,lr}
        0x0001843c:    f7ffff96    ....    BL       __user_initial_stackheap ; 0x1836c
        0x00018440:    e8bd4020    .. @    POP      {r5,lr}
        0x00018444:    f04f0600    O...    MOV      r6,#0
        0x00018448:    f04f0700    O...    MOV      r7,#0
        0x0001844c:    f04f0800    O...    MOV      r8,#0
        0x00018450:    f04f0b00    O...    MOV      r11,#0
        0x00018454:    f0210107    !...    BIC      r1,r1,#7
        0x00018458:    46ac        .F      MOV      r12,r5
        0x0001845a:    e8ac09c0    ....    STM      r12!,{r6-r8,r11}
        0x0001845e:    e8ac09c0    ....    STM      r12!,{r6-r8,r11}
        0x00018462:    e8ac09c0    ....    STM      r12!,{r6-r8,r11}
        0x00018466:    e8ac09c0    ....    STM      r12!,{r6-r8,r11}
        0x0001846a:    468d        .F      MOV      sp,r1
        0x0001846c:    4770        pG      BX       lr
    .text
    exit
        0x0001846e:    b510        ..      PUSH     {r4,lr}
        0x00018470:    4604        .F      MOV      r4,r0
        0x00018472:    f3af8000    ....    NOP.W    
        0x00018476:    4620         F      MOV      r0,r4
        0x00018478:    e8bd4010    ...@    POP      {r4,lr}
        0x0001847c:    f7ffbf51    ..Q.    B.W      __rt_exit ; 0x18322
    .text
    __user_libspace
    __user_perproc_libspace
    __user_perthread_libspace
        0x00018480:    4800        .H      LDR      r0,[pc,#0] ; [0x18484] = 0x1000110c
        0x00018482:    4770        pG      BX       lr
    $d
        0x00018484:    1000110c    ....    DCD    268439820
    $t
    .text
    _sys_exit
        0x00018488:    4901        .I      LDR      r1,[pc,#4] ; [0x18490] = 0x20026
        0x0001848a:    2018        .       MOVS     r0,#0x18
        0x0001848c:    beab        ..      BKPT     #0xab
        0x0001848e:    e7fe        ..      B        0x1848e ; _sys_exit + 6
    $d
        0x00018490:    00020026    &...    DCD    131110
    $t
    .text
    __I$use$semihosting
    __use_no_semihosting_swi
        0x00018494:    4770        pG      BX       lr
    i.__ARM_common_memcpy4_5
    .text
    __ARM_common_memcpy4_5
    __semihosting_library_function
        0x00018496:    680a        .h      LDR      r2,[r1,#0]
        0x00018498:    6002        .`      STR      r2,[r0,#0]
        0x0001849a:    790b        .y      LDRB     r3,[r1,#4]
        0x0001849c:    7103        .q      STRB     r3,[r0,#4]
        0x0001849e:    4770        pG      BX       lr
    i.am_bsp_itm_printf_enable
    am_bsp_itm_printf_enable
        0x000184a0:    4817        .H      LDR      r0,[pc,#92] ; [0x18500] = 0x40021000
        0x000184a2:    b500        ..      PUSH     {lr}
        0x000184a4:    6880        .h      LDR      r0,[r0,#8]
        0x000184a6:    b083        ..      SUB      sp,sp,#0xc
        0x000184a8:    f4101f80    ....    TST      r0,#0x100000
        0x000184ac:    d010        ..      BEQ      0x184d0 ; am_bsp_itm_printf_enable + 48
        0x000184ae:    4815        .H      LDR      r0,[pc,#84] ; [0x18504] = 0x400c0a7c
        0x000184b0:    6800        .h      LDR      r0,[r0,#0]
        0x000184b2:    f0100f01    ....    TST      r0,#1
        0x000184b6:    d00b        ..      BEQ      0x184d0 ; am_bsp_itm_printf_enable + 48
        0x000184b8:    4668        hF      MOV      r0,sp
        0x000184ba:    f001f96f    ..o.    BL       am_hal_dcu_get ; 0x1979c
        0x000184be:    9800        ..      LDR      r0,[sp,#0]
        0x000184c0:    f0100f10    ....    TST      r0,#0x10
        0x000184c4:    d108        ..      BNE      0x184d8 ; am_bsp_itm_printf_enable + 56
        0x000184c6:    2110        .!      MOVS     r1,#0x10
        0x000184c8:    2001        .       MOVS     r0,#1
        0x000184ca:    f001f9af    ....    BL       am_hal_dcu_update ; 0x1982c
        0x000184ce:    b118        ..      CBZ      r0,0x184d8 ; am_bsp_itm_printf_enable + 56
        0x000184d0:    b003        ..      ADD      sp,sp,#0xc
        0x000184d2:    f04f30ff    O..0    MOV      r0,#0xffffffff
        0x000184d6:    bd00        ..      POP      {pc}
        0x000184d8:    490b        .I      LDR      r1,[pc,#44] ; [0x18508] = 0x100001c8
        0x000184da:    2001        .       MOVS     r0,#1
        0x000184dc:    7008        .p      STRB     r0,[r1,#0]
        0x000184de:    f001fb2f    ../.    BL       am_hal_itm_enable ; 0x19b40
        0x000184e2:    480a        .H      LDR      r0,[pc,#40] ; [0x1850c] = 0xf4240
        0x000184e4:    f002fe92    ....    BL       am_hal_tpiu_enable ; 0x1b20c
        0x000184e8:    4809        .H      LDR      r0,[pc,#36] ; [0x18510] = 0x10000234
        0x000184ea:    6801        .h      LDR      r1,[r0,#0]
        0x000184ec:    9101        ..      STR      r1,[sp,#4]
        0x000184ee:    201c        .       MOVS     r0,#0x1c
        0x000184f0:    f001fac2    ....    BL       am_hal_gpio_pinconfig ; 0x19a78
        0x000184f4:    4807        .H      LDR      r0,[pc,#28] ; [0x18514] = 0x19b89
        0x000184f6:    f002ff89    ....    BL       am_util_stdio_printf_init ; 0x1b40c
        0x000184fa:    b003        ..      ADD      sp,sp,#0xc
        0x000184fc:    2000        .       MOVS     r0,#0
        0x000184fe:    bd00        ..      POP      {pc}
    $d
        0x00018500:    40021000    ...@    DCD    1073876992
        0x00018504:    400c0a7c    |..@    DCD    1074530940
        0x00018508:    100001c8    ....    DCD    268435912
        0x0001850c:    000f4240    @B..    DCD    1000000
        0x00018510:    10000234    4...    DCD    268436020
        0x00018514:    00019b89    ....    DCD    105353
    $t
    i.am_bsp_low_power_init
    am_bsp_low_power_init
        0x00018518:    b510        ..      PUSH     {r4,lr}
        0x0001851a:    f001fc99    ....    BL       am_hal_pwrctrl_low_power_init ; 0x19e50
        0x0001851e:    2100        .!      MOVS     r1,#0
        0x00018520:    4608        .F      MOV      r0,r1
        0x00018522:    f001fb81    ....    BL       am_hal_pwrctrl_control ; 0x19c28
        0x00018526:    e8bd4010    ...@    POP      {r4,lr}
        0x0001852a:    f001bef5    ....    B.W      am_hal_rtc_osc_disable ; 0x1a318
        0x0001852e:    0000        ..      MOVS     r0,r0
    i.am_bsp_sdio_pins_enable
    am_bsp_sdio_pins_enable
        0x00018530:    b538        8.      PUSH     {r3-r5,lr}
        0x00018532:    4604        .F      MOV      r4,r0
        0x00018534:    2101        .!      MOVS     r1,#1
        0x00018536:    2060        `       MOVS     r0,#0x60
        0x00018538:    f001fac8    ....    BL       am_hal_gpio_state_write ; 0x19acc
        0x0001853c:    4822        "H      LDR      r0,[pc,#136] ; [0x185c8] = 0x10000258
        0x0001853e:    6801        .h      LDR      r1,[r0,#0]
        0x00018540:    9100        ..      STR      r1,[sp,#0]
        0x00018542:    2053        S       MOVS     r0,#0x53
        0x00018544:    f001fa98    ....    BL       am_hal_gpio_pinconfig ; 0x19a78
        0x00018548:    4820         H      LDR      r0,[pc,#128] ; [0x185cc] = 0x1000025c
        0x0001854a:    6801        .h      LDR      r1,[r0,#0]
        0x0001854c:    9100        ..      STR      r1,[sp,#0]
        0x0001854e:    2058        X       MOVS     r0,#0x58
        0x00018550:    f001fa92    ....    BL       am_hal_gpio_pinconfig ; 0x19a78
        0x00018554:    2c01        .,      CMP      r4,#1
        0x00018556:    d02e        ..      BEQ      0x185b6 ; am_bsp_sdio_pins_enable + 134
        0x00018558:    2c04        .,      CMP      r4,#4
        0x0001855a:    d01a        ..      BEQ      0x18592 ; am_bsp_sdio_pins_enable + 98
        0x0001855c:    2c08        .,      CMP      r4,#8
        0x0001855e:    bf18        ..      IT       NE
        0x00018560:    bd38        8.      POPNE    {r3-r5,pc}
        0x00018562:    481b        .H      LDR      r0,[pc,#108] ; [0x185d0] = 0x10000248
        0x00018564:    6801        .h      LDR      r1,[r0,#0]
        0x00018566:    9100        ..      STR      r1,[sp,#0]
        0x00018568:    204f        O       MOVS     r0,#0x4f
        0x0001856a:    f001fa85    ....    BL       am_hal_gpio_pinconfig ; 0x19a78
        0x0001856e:    4819        .H      LDR      r0,[pc,#100] ; [0x185d4] = 0x1000024c
        0x00018570:    6801        .h      LDR      r1,[r0,#0]
        0x00018572:    9100        ..      STR      r1,[sp,#0]
        0x00018574:    2050        P       MOVS     r0,#0x50
        0x00018576:    f001fa7f    ....    BL       am_hal_gpio_pinconfig ; 0x19a78
        0x0001857a:    4817        .H      LDR      r0,[pc,#92] ; [0x185d8] = 0x10000250
        0x0001857c:    6801        .h      LDR      r1,[r0,#0]
        0x0001857e:    9100        ..      STR      r1,[sp,#0]
        0x00018580:    2051        Q       MOVS     r0,#0x51
        0x00018582:    f001fa79    ..y.    BL       am_hal_gpio_pinconfig ; 0x19a78
        0x00018586:    4815        .H      LDR      r0,[pc,#84] ; [0x185dc] = 0x10000254
        0x00018588:    6801        .h      LDR      r1,[r0,#0]
        0x0001858a:    9100        ..      STR      r1,[sp,#0]
        0x0001858c:    2052        R       MOVS     r0,#0x52
        0x0001858e:    f001fa73    ..s.    BL       am_hal_gpio_pinconfig ; 0x19a78
        0x00018592:    4813        .H      LDR      r0,[pc,#76] ; [0x185e0] = 0x1000023c
        0x00018594:    6801        .h      LDR      r1,[r0,#0]
        0x00018596:    9100        ..      STR      r1,[sp,#0]
        0x00018598:    2055        U       MOVS     r0,#0x55
        0x0001859a:    f001fa6d    ..m.    BL       am_hal_gpio_pinconfig ; 0x19a78
        0x0001859e:    4811        .H      LDR      r0,[pc,#68] ; [0x185e4] = 0x10000240
        0x000185a0:    6801        .h      LDR      r1,[r0,#0]
        0x000185a2:    9100        ..      STR      r1,[sp,#0]
        0x000185a4:    2056        V       MOVS     r0,#0x56
        0x000185a6:    f001fa67    ..g.    BL       am_hal_gpio_pinconfig ; 0x19a78
        0x000185aa:    480f        .H      LDR      r0,[pc,#60] ; [0x185e8] = 0x10000244
        0x000185ac:    6801        .h      LDR      r1,[r0,#0]
        0x000185ae:    9100        ..      STR      r1,[sp,#0]
        0x000185b0:    2057        W       MOVS     r0,#0x57
        0x000185b2:    f001fa61    ..a.    BL       am_hal_gpio_pinconfig ; 0x19a78
        0x000185b6:    480d        .H      LDR      r0,[pc,#52] ; [0x185ec] = 0x10000238
        0x000185b8:    6801        .h      LDR      r1,[r0,#0]
        0x000185ba:    9100        ..      STR      r1,[sp,#0]
        0x000185bc:    e8bd4038    ..8@    POP      {r3-r5,lr}
        0x000185c0:    2054        T       MOVS     r0,#0x54
        0x000185c2:    f001ba59    ..Y.    B.W      am_hal_gpio_pinconfig ; 0x19a78
    $d
        0x000185c6:    0000        ..      DCW    0
        0x000185c8:    10000258    X...    DCD    268436056
        0x000185cc:    1000025c    \...    DCD    268436060
        0x000185d0:    10000248    H...    DCD    268436040
        0x000185d4:    1000024c    L...    DCD    268436044
        0x000185d8:    10000250    P...    DCD    268436048
        0x000185dc:    10000254    T...    DCD    268436052
        0x000185e0:    1000023c    <...    DCD    268436028
        0x000185e4:    10000240    @...    DCD    268436032
        0x000185e8:    10000244    D...    DCD    268436036
        0x000185ec:    10000238    8...    DCD    268436024
    $t
    i.am_hal_card_block_read_async
    am_hal_card_block_read_async
        0x000185f0:    b500        ..      PUSH     {lr}
        0x000185f2:    b083        ..      SUB      sp,sp,#0xc
        0x000185f4:    f04f0c01    O...    MOV      r12,#1
        0x000185f8:    f8cdc000    ....    STR      r12,[sp,#0]
        0x000185fc:    f8cdc004    ....    STR      r12,[sp,#4]
        0x00018600:    f000f802    ....    BL       am_hal_card_block_rw ; 0x18608
        0x00018604:    b003        ..      ADD      sp,sp,#0xc
        0x00018606:    bd00        ..      POP      {pc}
    i.am_hal_card_block_rw
    am_hal_card_block_rw
        0x00018608:    2800        .(      CMP      r0,#0
        0x0001860a:    bf19        ..      ITTEE    NE
        0x0001860c:    f8d0c270    ..p.    LDRNE    r12,[r0,#0x270]
        0x00018610:    f1bc0f00    ....    CMPNE    r12,#0
        0x00018614:    2006        .       MOVEQ    r0,#6
        0x00018616:    4770        pG      BXEQ     lr
        0x00018618:    b5f0        ..      PUSH     {r4-r7,lr}
        0x0001861a:    b08f        ..      SUB      sp,sp,#0x3c
        0x0001861c:    7844        Dx      LDRB     r4,[r0,#1]
        0x0001861e:    e9dd6514    ...e    LDRD     r6,r5,[sp,#0x50]
        0x00018622:    2c06        .,      CMP      r4,#6
        0x00018624:    bf1e        ..      ITTT     NE
        0x00018626:    2007        .       MOVNE    r0,#7
        0x00018628:    b00f        ..      ADDNE    sp,sp,#0x3c
        0x0001862a:    bdf0        ..      POPNE    {r4-r7,pc}
        0x0001862c:    f8d04240    ..@B    LDR      r4,[r0,#0x240]
        0x00018630:    42a1        .B      CMP      r1,r4
        0x00018632:    bf38        8.      IT       CC
        0x00018634:    f5b23f80    ...?    CMPCC    r2,#0x10000
        0x00018638:    d202        ..      BCS      0x18640 ; am_hal_card_block_rw + 56
        0x0001863a:    188f        ..      ADDS     r7,r1,r2
        0x0001863c:    42bc        .B      CMP      r4,r7
        0x0001863e:    d202        ..      BCS      0x18646 ; am_hal_card_block_rw + 62
        0x00018640:    b00f        ..      ADD      sp,sp,#0x3c
        0x00018642:    2005        .       MOVS     r0,#5
        0x00018644:    bdf0        ..      POP      {r4-r7,pc}
        0x00018646:    f89c400a    ...@    LDRB     r4,[r12,#0xa]
        0x0001864a:    2c03        .,      CMP      r4,#3
        0x0001864c:    d104        ..      BNE      0x18658 ; am_hal_card_block_rw + 80
        0x0001864e:    f8dc4010    ...@    LDR      r4,[r12,#0x10]
        0x00018652:    4294        .B      CMP      r4,r2
        0x00018654:    bf38        8.      IT       CC
        0x00018656:    4622        "F      MOVCC    r2,r4
        0x00018658:    2400        .$      MOVS     r4,#0
        0x0001865a:    9400        ..      STR      r4,[sp,#0]
        0x0001865c:    9401        ..      STR      r4,[sp,#4]
        0x0001865e:    9402        ..      STR      r4,[sp,#8]
        0x00018660:    9403        ..      STR      r4,[sp,#0xc]
        0x00018662:    9404        ..      STR      r4,[sp,#0x10]
        0x00018664:    9405        ..      STR      r4,[sp,#0x14]
        0x00018666:    9406        ..      STR      r4,[sp,#0x18]
        0x00018668:    9407        ..      STR      r4,[sp,#0x1c]
        0x0001866a:    9408        ..      STR      r4,[sp,#0x20]
        0x0001866c:    9409        ..      STR      r4,[sp,#0x24]
        0x0001866e:    940a        ..      STR      r4,[sp,#0x28]
        0x00018670:    940b        ..      STR      r4,[sp,#0x2c]
        0x00018672:    940c        ..      STR      r4,[sp,#0x30]
        0x00018674:    940d        ..      STR      r4,[sp,#0x34]
        0x00018676:    2e00        ..      CMP      r6,#0
        0x00018678:    d03b        ;.      BEQ      0x186f2 ; am_hal_card_block_rw + 234
        0x0001867a:    2a01        .*      CMP      r2,#1
        0x0001867c:    bf94        ..      ITE      LS
        0x0001867e:    2411        .$      MOVLS    r4,#0x11
        0x00018680:    2412        .$      MOVHI    r4,#0x12
        0x00018682:    f88d4000    ...@    STRB     r4,[sp,#0]
        0x00018686:    f890422f    ../B    LDRB     r4,[r0,#0x22f]
        0x0001868a:    2c00        .,      CMP      r4,#0
        0x0001868c:    bf04        ..      ITT      EQ
        0x0001868e:    f8d04258    ..XB    LDREQ    r4,[r0,#0x258]
        0x00018692:    4361        aC      MULEQ    r1,r4,r1
        0x00018694:    9101        ..      STR      r1,[sp,#4]
        0x00018696:    2115        .!      MOVS     r1,#0x15
        0x00018698:    9102        ..      STR      r1,[sp,#8]
        0x0001869a:    f88d500d    ...P    STRB     r5,[sp,#0xd]
        0x0001869e:    2a01        .*      CMP      r2,#1
        0x000186a0:    bf8c        ..      ITE      HI
        0x000186a2:    2101        .!      MOVHI    r1,#1
        0x000186a4:    2100        .!      MOVLS    r1,#0
        0x000186a6:    f88d100f    ....    STRB     r1,[sp,#0xf]
        0x000186aa:    930a        ..      STR      r3,[sp,#0x28]
        0x000186ac:    920c        ..      STR      r2,[sp,#0x30]
        0x000186ae:    f8d00258    ..X.    LDR      r0,[r0,#0x258]
        0x000186b2:    900b        ..      STR      r0,[sp,#0x2c]
        0x000186b4:    f0860001    ....    EOR      r0,r6,#1
        0x000186b8:    f88d0024    ..$.    STRB     r0,[sp,#0x24]
        0x000186bc:    b17d        }.      CBZ      r5,0x186de ; am_hal_card_block_rw + 214
        0x000186be:    e89d00ff    ....    LDM      sp,{r0-r7}
        0x000186c2:    f10c0e28    ..(.    ADD      lr,r12,#0x28
        0x000186c6:    e88e00ff    ....    STM      lr,{r0-r7}
        0x000186ca:    9808        ..      LDR      r0,[sp,#0x20]
        0x000186cc:    ad09        ..      ADD      r5,sp,#0x24
        0x000186ce:    f8cc0048    ..H.    STR      r0,[r12,#0x48]
        0x000186d2:    e895001f    ....    LDM      r5,{r0-r4}
        0x000186d6:    f10c054c    ..L.    ADD      r5,r12,#0x4c
        0x000186da:    e885001f    ....    STM      r5,{r0-r4}
        0x000186de:    f8dc1060    ..`.    LDR      r1,[r12,#0x60]
        0x000186e2:    f8dc0000    ....    LDR      r0,[r12,#0]
        0x000186e6:    aa09        ..      ADD      r2,sp,#0x24
        0x000186e8:    68cb        .h      LDR      r3,[r1,#0xc]
        0x000186ea:    4669        iF      MOV      r1,sp
        0x000186ec:    4798        .G      BLX      r3
        0x000186ee:    b00f        ..      ADD      sp,sp,#0x3c
        0x000186f0:    bdf0        ..      POP      {r4-r7,pc}
        0x000186f2:    2a01        .*      CMP      r2,#1
        0x000186f4:    bf8c        ..      ITE      HI
        0x000186f6:    2419        .$      MOVHI    r4,#0x19
        0x000186f8:    2418        .$      MOVLS    r4,#0x18
        0x000186fa:    e7c2        ..      B        0x18682 ; am_hal_card_block_rw + 122
    i.am_hal_card_block_write_async
    am_hal_card_block_write_async
        0x000186fc:    b510        ..      PUSH     {r4,lr}
        0x000186fe:    b082        ..      SUB      sp,sp,#8
        0x00018700:    f04f0c01    O...    MOV      r12,#1
        0x00018704:    2400        .$      MOVS     r4,#0
        0x00018706:    e9cd4c00    ...L    STRD     r4,r12,[sp,#0]
        0x0001870a:    f7ffff7d    ..}.    BL       am_hal_card_block_rw ; 0x18608
        0x0001870e:    b002        ..      ADD      sp,sp,#8
        0x00018710:    bd10        ..      POP      {r4,pc}
        0x00018712:    0000        ..      MOVS     r0,r0
    i.am_hal_card_cfg_set
    am_hal_card_cfg_set
        0x00018714:    e92d5ff0    -.._    PUSH     {r4-r12,lr}
        0x00018718:    0004        ..      MOVS     r4,r0
        0x0001871a:    e9ddca0a    ....    LDRD     r12,r10,[sp,#0x28]
        0x0001871e:    bf1c        ..      ITT      NE
        0x00018720:    f8d40270    ..p.    LDRNE    r0,[r4,#0x270]
        0x00018724:    2800        .(      CMPNE    r0,#0
        0x00018726:    d020         .      BEQ      0x1876a ; am_hal_card_cfg_set + 86
        0x00018728:    7865        ex      LDRB     r5,[r4,#1]
        0x0001872a:    2d06        .-      CMP      r5,#6
        0x0001872c:    bf1c        ..      ITT      NE
        0x0001872e:    2007        .       MOVNE    r0,#7
        0x00018730:    e8bd9ff0    ....    POPNE    {r4-r12,pc}
        0x00018734:    69c5        .i      LDR      r5,[r0,#0x1c]
        0x00018736:    429d        .B      CMP      r5,r3
        0x00018738:    bf24        $.      ITT      CS
        0x0001873a:    6a05        .j      LDRCS    r5,[r0,#0x20]
        0x0001873c:    42ab        .B      CMPCS    r3,r5
        0x0001873e:    d314        ..      BCC      0x1876a ; am_hal_card_cfg_set + 86
        0x00018740:    f1ba0f04    ....    CMP      r10,#4
        0x00018744:    d003        ..      BEQ      0x1874e ; am_hal_card_cfg_set + 58
        0x00018746:    f1ba0f00    ....    CMP      r10,#0
        0x0001874a:    d004        ..      BEQ      0x18756 ; am_hal_card_cfg_set + 66
        0x0001874c:    e006        ..      B        0x1875c ; am_hal_card_cfg_set + 72
        0x0001874e:    4d7b        {M      LDR      r5,[pc,#492] ; [0x1893c] = 0x2dc6c00
        0x00018750:    42ab        .B      CMP      r3,r5
        0x00018752:    d80a        ..      BHI      0x1876a ; am_hal_card_cfg_set + 86
        0x00018754:    e002        ..      B        0x1875c ; am_hal_card_cfg_set + 72
        0x00018756:    4d7a        zM      LDR      r5,[pc,#488] ; [0x18940] = 0x5b8d800
        0x00018758:    42ab        .B      CMP      r3,r5
        0x0001875a:    d806        ..      BHI      0x1876a ; am_hal_card_cfg_set + 86
        0x0001875c:    4d79        yM      LDR      r5,[pc,#484] ; [0x18944] = 0x18cba80
        0x0001875e:    429d        .B      CMP      r5,r3
        0x00018760:    bf3c        <.      ITT      CC
        0x00018762:    f894522c    ..,R    LDRBCC   r5,[r4,#0x22c]
        0x00018766:    2d04        .-      CMPCC    r5,#4
        0x00018768:    d202        ..      BCS      0x18770 ; am_hal_card_cfg_set + 92
        0x0001876a:    2006        .       MOVS     r0,#6
        0x0001876c:    e8bd9ff0    ....    POP      {r4-r12,pc}
        0x00018770:    7021        !p      STRB     r1,[r4,#0]
        0x00018772:    f884226c    ..l"    STRB     r2,[r4,#0x26c]
        0x00018776:    f8c43268    ..h2    STR      r3,[r4,#0x268]
        0x0001877a:    f884c26d    ..m.    STRB     r12,[r4,#0x26d]
        0x0001877e:    f884a26e    ..n.    STRB     r10,[r4,#0x26e]
        0x00018782:    7b02        .{      LDRB     r2,[r0,#0xc]
        0x00018784:    4661        aF      MOV      r1,r12
        0x00018786:    428a        .B      CMP      r2,r1
        0x00018788:    d008        ..      BEQ      0x1879c ; am_hal_card_cfg_set + 136
        0x0001878a:    6803        .h      LDR      r3,[r0,#0]
        0x0001878c:    6e00        .n      LDR      r0,[r0,#0x60]
        0x0001878e:    6902        .i      LDR      r2,[r0,#0x10]
        0x00018790:    4618        .F      MOV      r0,r3
        0x00018792:    4790        .G      BLX      r2
        0x00018794:    b110        ..      CBZ      r0,0x1879c ; am_hal_card_cfg_set + 136
        0x00018796:    2001        .       MOVS     r0,#1
        0x00018798:    e8bd9ff0    ....    POP      {r4-r12,pc}
        0x0001879c:    4d6a        jM      LDR      r5,[pc,#424] ; [0x18948] = 0x3b70000
        0x0001879e:    4e6b        kN      LDR      r6,[pc,#428] ; [0x1894c] = 0x3b70500
        0x000187a0:    4f6b        kO      LDR      r7,[pc,#428] ; [0x18950] = 0x3b70100
        0x000187a2:    f8df81b0    ....    LDR      r8,[pc,#432] ; [0x18954] = 0x3b70600
        0x000187a6:    f8df91b0    ....    LDR      r9,[pc,#432] ; [0x18958] = 0x3b70200
        0x000187aa:    f1ba0f03    ....    CMP      r10,#3
        0x000187ae:    d04f        O.      BEQ      0x18850 ; am_hal_card_cfg_set + 316
        0x000187b0:    4620         F      MOV      r0,r4
        0x000187b2:    f8d41268    ..h.    LDR      r1,[r4,#0x268]
        0x000187b6:    f000fee3    ....    BL       am_hal_card_set_speed ; 0x19580
        0x000187ba:    2800        .(      CMP      r0,#0
        0x000187bc:    d1eb        ..      BNE      0x18796 ; am_hal_card_cfg_set + 130
        0x000187be:    f8d4a270    ..p.    LDR      r10,[r4,#0x270]
        0x000187c2:    f894b26c    ..l.    LDRB     r11,[r4,#0x26c]
        0x000187c6:    4620         F      MOV      r0,r4
        0x000187c8:    f1ba0f00    ....    CMP      r10,#0
        0x000187cc:    d0e3        ..      BEQ      0x18796 ; am_hal_card_cfg_set + 130
        0x000187ce:    f89a200b    ...     LDRB     r2,[r10,#0xb]
        0x000187d2:    2100        .!      MOVS     r1,#0
        0x000187d4:    455a        ZE      CMP      r2,r11
        0x000187d6:    d105        ..      BNE      0x187e4 ; am_hal_card_cfg_set + 208
        0x000187d8:    f89a200d    ...     LDRB     r2,[r10,#0xd]
        0x000187dc:    f890326e    ..n2    LDRB     r3,[r0,#0x26e]
        0x000187e0:    429a        .B      CMP      r2,r3
        0x000187e2:    d019        ..      BEQ      0x18818 ; am_hal_card_cfg_set + 260
        0x000187e4:    f1bb0f01    ....    CMP      r11,#1
        0x000187e8:    bf08        ..      IT       EQ
        0x000187ea:    4629        )F      MOVEQ    r1,r5
        0x000187ec:    d005        ..      BEQ      0x187fa ; am_hal_card_cfg_set + 230
        0x000187ee:    f1bb0f04    ....    CMP      r11,#4
        0x000187f2:    d075        u.      BEQ      0x188e0 ; am_hal_card_cfg_set + 460
        0x000187f4:    f1bb0f08    ....    CMP      r11,#8
        0x000187f8:    d079        y.      BEQ      0x188ee ; am_hal_card_cfg_set + 474
        0x000187fa:    f44f72fa    O..r    MOV      r2,#0x1f4
        0x000187fe:    f000fbcd    ....    BL       am_hal_card_mode_switch ; 0x18f9c
        0x00018802:    2800        .(      CMP      r0,#0
        0x00018804:    d1c7        ..      BNE      0x18796 ; am_hal_card_cfg_set + 130
        0x00018806:    f8da1060    ..`.    LDR      r1,[r10,#0x60]
        0x0001880a:    f8da0000    ....    LDR      r0,[r10,#0]
        0x0001880e:    694a        Ji      LDR      r2,[r1,#0x14]
        0x00018810:    4659        YF      MOV      r1,r11
        0x00018812:    4790        .G      BLX      r2
        0x00018814:    2800        .(      CMP      r0,#0
        0x00018816:    d1be        ..      BNE      0x18796 ; am_hal_card_cfg_set + 130
        0x00018818:    f8d40270    ..p.    LDR      r0,[r4,#0x270]
        0x0001881c:    f894126e    ..n.    LDRB     r1,[r4,#0x26e]
        0x00018820:    2800        .(      CMP      r0,#0
        0x00018822:    d0b8        ..      BEQ      0x18796 ; am_hal_card_cfg_set + 130
        0x00018824:    7b42        B{      LDRB     r2,[r0,#0xd]
        0x00018826:    428a        .B      CMP      r2,r1
        0x00018828:    d00f        ..      BEQ      0x1884a ; am_hal_card_cfg_set + 310
        0x0001882a:    7822        "x      LDRB     r2,[r4,#0]
        0x0001882c:    2904        .)      CMP      r1,#4
        0x0001882e:    d065        e.      BEQ      0x188fc ; am_hal_card_cfg_set + 488
        0x00018830:    2a02        .*      CMP      r2,#2
        0x00018832:    bf18        ..      IT       NE
        0x00018834:    2a01        .*      CMPNE    r2,#1
        0x00018836:    d078        x.      BEQ      0x1892a ; am_hal_card_cfg_set + 534
        0x00018838:    6e02        .n      LDR      r2,[r0,#0x60]
        0x0001883a:    69d2        .i      LDR      r2,[r2,#0x1c]
        0x0001883c:    2a00        .*      CMP      r2,#0
        0x0001883e:    bf18        ..      IT       NE
        0x00018840:    6800        .h      LDRNE    r0,[r0,#0]
        0x00018842:    d002        ..      BEQ      0x1884a ; am_hal_card_cfg_set + 310
        0x00018844:    4790        .G      BLX      r2
        0x00018846:    2800        .(      CMP      r0,#0
        0x00018848:    d1a5        ..      BNE      0x18796 ; am_hal_card_cfg_set + 130
        0x0001884a:    2000        .       MOVS     r0,#0
        0x0001884c:    e8bd9ff0    ....    POP      {r4-r12,pc}
        0x00018850:    f8d4a270    ..p.    LDR      r10,[r4,#0x270]
        0x00018854:    f894b26c    ..l.    LDRB     r11,[r4,#0x26c]
        0x00018858:    4620         F      MOV      r0,r4
        0x0001885a:    f1ba0f00    ....    CMP      r10,#0
        0x0001885e:    d09a        ..      BEQ      0x18796 ; am_hal_card_cfg_set + 130
        0x00018860:    f89a200b    ...     LDRB     r2,[r10,#0xb]
        0x00018864:    2100        .!      MOVS     r1,#0
        0x00018866:    455a        ZE      CMP      r2,r11
        0x00018868:    d105        ..      BNE      0x18876 ; am_hal_card_cfg_set + 354
        0x0001886a:    f89a200d    ...     LDRB     r2,[r10,#0xd]
        0x0001886e:    f890326e    ..n2    LDRB     r3,[r0,#0x26e]
        0x00018872:    429a        .B      CMP      r2,r3
        0x00018874:    d01b        ..      BEQ      0x188ae ; am_hal_card_cfg_set + 410
        0x00018876:    f1bb0f01    ....    CMP      r11,#1
        0x0001887a:    bf08        ..      IT       EQ
        0x0001887c:    4629        )F      MOVEQ    r1,r5
        0x0001887e:    d005        ..      BEQ      0x1888c ; am_hal_card_cfg_set + 376
        0x00018880:    f1bb0f04    ....    CMP      r11,#4
        0x00018884:    d01c        ..      BEQ      0x188c0 ; am_hal_card_cfg_set + 428
        0x00018886:    f1bb0f08    ....    CMP      r11,#8
        0x0001888a:    d020         .      BEQ      0x188ce ; am_hal_card_cfg_set + 442
        0x0001888c:    f44f72fa    O..r    MOV      r2,#0x1f4
        0x00018890:    f000fb84    ....    BL       am_hal_card_mode_switch ; 0x18f9c
        0x00018894:    2800        .(      CMP      r0,#0
        0x00018896:    f47faf7e    ..~.    BNE      0x18796 ; am_hal_card_cfg_set + 130
        0x0001889a:    f8da1060    ..`.    LDR      r1,[r10,#0x60]
        0x0001889e:    f8da0000    ....    LDR      r0,[r10,#0]
        0x000188a2:    694a        Ji      LDR      r2,[r1,#0x14]
        0x000188a4:    4659        YF      MOV      r1,r11
        0x000188a6:    4790        .G      BLX      r2
        0x000188a8:    2800        .(      CMP      r0,#0
        0x000188aa:    f47faf74    ..t.    BNE      0x18796 ; am_hal_card_cfg_set + 130
        0x000188ae:    4620         F      MOV      r0,r4
        0x000188b0:    f8d41268    ..h.    LDR      r1,[r4,#0x268]
        0x000188b4:    f000fe64    ..d.    BL       am_hal_card_set_speed ; 0x19580
        0x000188b8:    2800        .(      CMP      r0,#0
        0x000188ba:    f47faf6c    ..l.    BNE      0x18796 ; am_hal_card_cfg_set + 130
        0x000188be:    e7ab        ..      B        0x18818 ; am_hal_card_cfg_set + 260
        0x000188c0:    f890126e    ..n.    LDRB     r1,[r0,#0x26e]
        0x000188c4:    2904        .)      CMP      r1,#4
        0x000188c6:    bf14        ..      ITE      NE
        0x000188c8:    4639        9F      MOVNE    r1,r7
        0x000188ca:    4631        1F      MOVEQ    r1,r6
        0x000188cc:    e7de        ..      B        0x1888c ; am_hal_card_cfg_set + 376
        0x000188ce:    f890126e    ..n.    LDRB     r1,[r0,#0x26e]
        0x000188d2:    2904        .)      CMP      r1,#4
        0x000188d4:    bf14        ..      ITE      NE
        0x000188d6:    4649        IF      MOVNE    r1,r9
        0x000188d8:    4641        AF      MOVEQ    r1,r8
        0x000188da:    e7d7        ..      B        0x1888c ; am_hal_card_cfg_set + 376
        0x000188dc:    e000        ..      B        0x188e0 ; am_hal_card_cfg_set + 460
        0x000188de:    e006        ..      B        0x188ee ; am_hal_card_cfg_set + 474
        0x000188e0:    f890126e    ..n.    LDRB     r1,[r0,#0x26e]
        0x000188e4:    2904        .)      CMP      r1,#4
        0x000188e6:    bf14        ..      ITE      NE
        0x000188e8:    4639        9F      MOVNE    r1,r7
        0x000188ea:    4631        1F      MOVEQ    r1,r6
        0x000188ec:    e785        ..      B        0x187fa ; am_hal_card_cfg_set + 230
        0x000188ee:    f890126e    ..n.    LDRB     r1,[r0,#0x26e]
        0x000188f2:    2904        .)      CMP      r1,#4
        0x000188f4:    bf14        ..      ITE      NE
        0x000188f6:    4649        IF      MOVNE    r1,r9
        0x000188f8:    4641        AF      MOVEQ    r1,r8
        0x000188fa:    e77e        ~.      B        0x187fa ; am_hal_card_cfg_set + 230
        0x000188fc:    2a02        .*      CMP      r2,#2
        0x000188fe:    bf18        ..      IT       NE
        0x00018900:    2a01        .*      CMPNE    r2,#1
        0x00018902:    d006        ..      BEQ      0x18912 ; am_hal_card_cfg_set + 510
        0x00018904:    6e02        .n      LDR      r2,[r0,#0x60]
        0x00018906:    69d2        .i      LDR      r2,[r2,#0x1c]
        0x00018908:    2a00        .*      CMP      r2,#0
        0x0001890a:    d09e        ..      BEQ      0x1884a ; am_hal_card_cfg_set + 310
        0x0001890c:    6800        .h      LDR      r0,[r0,#0]
        0x0001890e:    4790        .G      BLX      r2
        0x00018910:    e799        ..      B        0x18846 ; am_hal_card_cfg_set + 306
        0x00018912:    f8942249    ..I"    LDRB     r2,[r4,#0x249]
        0x00018916:    f0120f04    ....    TST      r2,#4
        0x0001891a:    f43faf3c    ?.<.    BEQ      0x18796 ; am_hal_card_cfg_set + 130
        0x0001891e:    6e02        .n      LDR      r2,[r0,#0x60]
        0x00018920:    69d2        .i      LDR      r2,[r2,#0x1c]
        0x00018922:    2a00        .*      CMP      r2,#0
        0x00018924:    d091        ..      BEQ      0x1884a ; am_hal_card_cfg_set + 310
        0x00018926:    e7f1        ..      B        0x1890c ; am_hal_card_cfg_set + 504
        0x00018928:    e7ff        ..      B        0x1892a ; am_hal_card_cfg_set + 534
        0x0001892a:    6e01        .n      LDR      r1,[r0,#0x60]
        0x0001892c:    69ca        .i      LDR      r2,[r1,#0x1c]
        0x0001892e:    2a00        .*      CMP      r2,#0
        0x00018930:    bf1c        ..      ITT      NE
        0x00018932:    6800        .h      LDRNE    r0,[r0,#0]
        0x00018934:    2100        .!      MOVNE    r1,#0
        0x00018936:    d185        ..      BNE      0x18844 ; am_hal_card_cfg_set + 304
        0x00018938:    e787        ..      B        0x1884a ; am_hal_card_cfg_set + 310
    $d
        0x0001893a:    0000        ..      DCW    0
        0x0001893c:    02dc6c00    .l..    DCD    48000000
        0x00018940:    05b8d800    ....    DCD    96000000
        0x00018944:    018cba80    ....    DCD    26000000
        0x00018948:    03b70000    ....    DCD    62324736
        0x0001894c:    03b70500    ....    DCD    62326016
        0x00018950:    03b70100    ....    DCD    62324992
        0x00018954:    03b70600    ....    DCD    62326272
        0x00018958:    03b70200    ....    DCD    62325248
    $t
    i.am_hal_card_event_test_cb
    am_hal_card_event_test_cb
        0x0001895c:    b570        p.      PUSH     {r4-r6,lr}
        0x0001895e:    4604        .F      MOV      r4,r0
        0x00018960:    68a5        .h      LDR      r5,[r4,#8]
        0x00018962:    7820         x      LDRB     r0,[r4,#0]
        0x00018964:    2804        .(      CMP      r0,#4
        0x00018966:    d109        ..      BNE      0x1897c ; am_hal_card_event_test_cb + 32
        0x00018968:    f895004c    ..L.    LDRB     r0,[r5,#0x4c]
        0x0001896c:    b930        0.      CBNZ     r0,0x1897c ; am_hal_card_event_test_cb + 32
        0x0001896e:    2001        .       MOVS     r0,#1
        0x00018970:    4917        .I      LDR      r1,[pc,#92] ; [0x189d0] = 0x1000011a
        0x00018972:    7008        .p      STRB     r0,[r1,#0]
        0x00018974:    a017        ..      ADR      r0,{pc}+0x60 ; 0x189d4
        0x00018976:    6861        ah      LDR      r1,[r4,#4]
        0x00018978:    f002fd2a    ..*.    BL       am_util_stdio_printf ; 0x1b3d0
        0x0001897c:    7820         x      LDRB     r0,[r4,#0]
        0x0001897e:    2804        .(      CMP      r0,#4
        0x00018980:    d109        ..      BNE      0x18996 ; am_hal_card_event_test_cb + 58
        0x00018982:    f895004c    ..L.    LDRB     r0,[r5,#0x4c]
        0x00018986:    2801        .(      CMP      r0,#1
        0x00018988:    d105        ..      BNE      0x18996 ; am_hal_card_event_test_cb + 58
        0x0001898a:    4919        .I      LDR      r1,[pc,#100] ; [0x189f0] = 0x10000119
        0x0001898c:    7008        .p      STRB     r0,[r1,#0]
        0x0001898e:    a019        ..      ADR      r0,{pc}+0x66 ; 0x189f4
        0x00018990:    6861        ah      LDR      r1,[r4,#4]
        0x00018992:    f002fd1d    ....    BL       am_util_stdio_printf ; 0x1b3d0
        0x00018996:    7820         x      LDRB     r0,[r4,#0]
        0x00018998:    2803        .(      CMP      r0,#3
        0x0001899a:    d106        ..      BNE      0x189aa ; am_hal_card_event_test_cb + 78
        0x0001899c:    f895004c    ..L.    LDRB     r0,[r5,#0x4c]
        0x000189a0:    b918        ..      CBNZ     r0,0x189aa ; am_hal_card_event_test_cb + 78
        0x000189a2:    a01b        ..      ADR      r0,{pc}+0x6e ; 0x18a10
        0x000189a4:    6861        ah      LDR      r1,[r4,#4]
        0x000189a6:    f002fd13    ....    BL       am_util_stdio_printf ; 0x1b3d0
        0x000189aa:    7820         x      LDRB     r0,[r4,#0]
        0x000189ac:    2803        .(      CMP      r0,#3
        0x000189ae:    d107        ..      BNE      0x189c0 ; am_hal_card_event_test_cb + 100
        0x000189b0:    f895004c    ..L.    LDRB     r0,[r5,#0x4c]
        0x000189b4:    2801        .(      CMP      r0,#1
        0x000189b6:    d103        ..      BNE      0x189c0 ; am_hal_card_event_test_cb + 100
        0x000189b8:    a01c        ..      ADR      r0,{pc}+0x74 ; 0x18a2c
        0x000189ba:    6861        ah      LDR      r1,[r4,#4]
        0x000189bc:    f002fd08    ....    BL       am_util_stdio_printf ; 0x1b3d0
        0x000189c0:    7820         x      LDRB     r0,[r4,#0]
        0x000189c2:    2801        .(      CMP      r0,#1
        0x000189c4:    d102        ..      BNE      0x189cc ; am_hal_card_event_test_cb + 112
        0x000189c6:    a020         .      ADR      r0,{pc}+0x82 ; 0x18a48
        0x000189c8:    f002fd02    ....    BL       am_util_stdio_printf ; 0x1b3d0
        0x000189cc:    bd70        p.      POP      {r4-r6,pc}
    $d
        0x000189ce:    0000        ..      DCW    0
        0x000189d0:    1000011a    ....    DCD    268435738
        0x000189d4:    7473614c    Last    DCD    1953718604
        0x000189d8:    61655220     Rea    DCD    1634030112
        0x000189dc:    66582064    d Xf    DCD    1717051492
        0x000189e0:    64657265    ered    DCD    1684370021
        0x000189e4:    6f6c6220     blo    DCD    1869373984
        0x000189e8:    25206b63    ck %    DCD    622881635
        0x000189ec:    00000a64    d...    DCD    2660
        0x000189f0:    10000119    ....    DCD    268435737
        0x000189f4:    7473614c    Last    DCD    1953718604
        0x000189f8:    69725720     Wri    DCD    1769101088
        0x000189fc:    58206574    te X    DCD    1478518132
        0x00018a00:    65726566    fere    DCD    1701995878
        0x00018a04:    6c622064    d bl    DCD    1818370148
        0x00018a08:    206b636f    ock     DCD    543908719
        0x00018a0c:    000a6425    %d..    DCD    680997
        0x00018a10:    414d4453    SDMA    DCD    1095582803
        0x00018a14:    61655220     Rea    DCD    1634030112
        0x00018a18:    66582064    d Xf    DCD    1717051492
        0x00018a1c:    64657265    ered    DCD    1684370021
        0x00018a20:    6f6c6220     blo    DCD    1869373984
        0x00018a24:    25206b63    ck %    DCD    622881635
        0x00018a28:    00000a64    d...    DCD    2660
        0x00018a2c:    414d4453    SDMA    DCD    1095582803
        0x00018a30:    69725720     Wri    DCD    1769101088
        0x00018a34:    58206574    te X    DCD    1478518132
        0x00018a38:    65726566    fere    DCD    1701995878
        0x00018a3c:    6c622064    d bl    DCD    1818370148
        0x00018a40:    206b636f    ock     DCD    543908719
        0x00018a44:    000a6425    %d..    DCD    680997
        0x00018a48:    61632041    A ca    DCD    1633886273
        0x00018a4c:    69206472    rd i    DCD    1763730546
        0x00018a50:    6e692073    s in    DCD    1852383347
        0x00018a54:    74726573    sert    DCD    1953654131
        0x00018a58:    000a6465    ed..    DCD    681061
    $t
    i.am_hal_card_get_ext_csd_field
    am_hal_card_get_ext_csd_field
        0x00018a5c:    b570        p.      PUSH     {r4-r6,lr}
        0x00018a5e:    b090        ..      SUB      sp,sp,#0x40
        0x00018a60:    4615        .F      MOV      r5,r2
        0x00018a62:    460e        .F      MOV      r6,r1
        0x00018a64:    0004        ..      MOVS     r4,r0
        0x00018a66:    bf1c        ..      ITT      NE
        0x00018a68:    f8d40270    ..p.    LDRNE    r0,[r4,#0x270]
        0x00018a6c:    2800        .(      CMPNE    r0,#0
        0x00018a6e:    d043        C.      BEQ      0x18af8 ; am_hal_card_get_ext_csd_field + 156
        0x00018a70:    6821        !h      LDR      r1,[r4,#0]
        0x00018a72:    f4112f80    .../    TST      r1,#0x40000
        0x00018a76:    d008        ..      BEQ      0x18a8a ; am_hal_card_get_ext_csd_field + 46
        0x00018a78:    b010        ..      ADD      sp,sp,#0x40
        0x00018a7a:    462a        *F      MOV      r2,r5
        0x00018a7c:    4631        1F      MOV      r1,r6
        0x00018a7e:    f104002c    ..,.    ADD      r0,r4,#0x2c
        0x00018a82:    e8bd4070    ..p@    POP      {r4-r6,lr}
        0x00018a86:    f002bbf7    ....    B.W      am_hal_unstuff_bytes ; 0x1b278
        0x00018a8a:    2300        .#      MOVS     r3,#0
        0x00018a8c:    9306        ..      STR      r3,[sp,#0x18]
        0x00018a8e:    9307        ..      STR      r3,[sp,#0x1c]
        0x00018a90:    9308        ..      STR      r3,[sp,#0x20]
        0x00018a92:    9309        ..      STR      r3,[sp,#0x24]
        0x00018a94:    930b        ..      STR      r3,[sp,#0x2c]
        0x00018a96:    930a        ..      STR      r3,[sp,#0x28]
        0x00018a98:    930c        ..      STR      r3,[sp,#0x30]
        0x00018a9a:    930d        ..      STR      r3,[sp,#0x34]
        0x00018a9c:    930e        ..      STR      r3,[sp,#0x38]
        0x00018a9e:    9301        ..      STR      r3,[sp,#4]
        0x00018aa0:    2108        .!      MOVS     r1,#8
        0x00018aa2:    9302        ..      STR      r3,[sp,#8]
        0x00018aa4:    9303        ..      STR      r3,[sp,#0xc]
        0x00018aa6:    9304        ..      STR      r3,[sp,#0x10]
        0x00018aa8:    9305        ..      STR      r3,[sp,#0x14]
        0x00018aaa:    f88d1018    ....    STRB     r1,[sp,#0x18]
        0x00018aae:    7a21        !z      LDRB     r1,[r4,#8]
        0x00018ab0:    f88d3004    ...0    STRB     r3,[sp,#4]
        0x00018ab4:    0409        ..      LSLS     r1,r1,#16
        0x00018ab6:    9107        ..      STR      r1,[sp,#0x1c]
        0x00018ab8:    2115        .!      MOVS     r1,#0x15
        0x00018aba:    9108        ..      STR      r1,[sp,#0x20]
        0x00018abc:    f104012c    ..,.    ADD      r1,r4,#0x2c
        0x00018ac0:    9102        ..      STR      r1,[sp,#8]
        0x00018ac2:    2101        .!      MOVS     r1,#1
        0x00018ac4:    9104        ..      STR      r1,[sp,#0x10]
        0x00018ac6:    0249        I.      LSLS     r1,r1,#9
        0x00018ac8:    9103        ..      STR      r1,[sp,#0xc]
        0x00018aca:    6803        .h      LDR      r3,[r0,#0]
        0x00018acc:    6e00        .n      LDR      r0,[r0,#0x60]
        0x00018ace:    aa01        ..      ADD      r2,sp,#4
        0x00018ad0:    a906        ..      ADD      r1,sp,#0x18
        0x00018ad2:    f8d0c00c    ....    LDR      r12,[r0,#0xc]
        0x00018ad6:    4618        .F      MOV      r0,r3
        0x00018ad8:    47e0        .G      BLX      r12
        0x00018ada:    f89d0038    ..8.    LDRB     r0,[sp,#0x38]
        0x00018ade:    b958        X.      CBNZ     r0,0x18af8 ; am_hal_card_get_ext_csd_field + 156
        0x00018ae0:    6820         h      LDR      r0,[r4,#0]
        0x00018ae2:    f4402080    @..     ORR      r0,r0,#0x40000
        0x00018ae6:    6020         `      STR      r0,[r4,#0]
        0x00018ae8:    f89d1038    ..8.    LDRB     r1,[sp,#0x38]
        0x00018aec:    2900        .)      CMP      r1,#0
        0x00018aee:    bf04        ..      ITT      EQ
        0x00018af0:    f4402080    @..     ORREQ    r0,r0,#0x40000
        0x00018af4:    6020         `      STREQ    r0,[r4,#0]
        0x00018af6:    d0bf        ..      BEQ      0x18a78 ; am_hal_card_get_ext_csd_field + 28
        0x00018af8:    b010        ..      ADD      sp,sp,#0x40
        0x00018afa:    f04f30ff    O..0    MOV      r0,#0xffffffff
        0x00018afe:    bd70        p.      POP      {r4-r6,pc}
    i.am_hal_card_host_find_card
    am_hal_card_host_find_card
        0x00018b00:    2800        .(      CMP      r0,#0
        0x00018b02:    bf12        ..      ITEE     NE
        0x00018b04:    2900        .)      CMPNE    r1,#0
        0x00018b06:    2006        .       MOVEQ    r0,#6
        0x00018b08:    4770        pG      BXEQ     lr
        0x00018b0a:    b570        p.      PUSH     {r4-r6,lr}
        0x00018b0c:    4605        .F      MOV      r5,r0
        0x00018b0e:    7a00        .z      LDRB     r0,[r0,#8]
        0x00018b10:    460c        .F      MOV      r4,r1
        0x00018b12:    b920         .      CBNZ     r0,0x18b1e ; am_hal_card_host_find_card + 30
        0x00018b14:    6e29        )n      LDR      r1,[r5,#0x60]
        0x00018b16:    6828        (h      LDR      r0,[r5,#0]
        0x00018b18:    6a49        Ij      LDR      r1,[r1,#0x24]
        0x00018b1a:    4788        .G      BLX      r1
        0x00018b1c:    b198        ..      CBZ      r0,0x18b46 ; am_hal_card_host_find_card + 70
        0x00018b1e:    2001        .       MOVS     r0,#1
        0x00018b20:    7060        `p      STRB     r0,[r4,#1]
        0x00018b22:    f8c45270    ..pR    STR      r5,[r4,#0x270]
        0x00018b26:    7ae8        .z      LDRB     r0,[r5,#0xb]
        0x00018b28:    f884026c    ..l.    STRB     r0,[r4,#0x26c]
        0x00018b2c:    7b28        ({      LDRB     r0,[r5,#0xc]
        0x00018b2e:    f884026d    ..m.    STRB     r0,[r4,#0x26d]
        0x00018b32:    6a28        (j      LDR      r0,[r5,#0x20]
        0x00018b34:    f8c40268    ..h.    STR      r0,[r4,#0x268]
        0x00018b38:    7b68        h{      LDRB     r0,[r5,#0xd]
        0x00018b3a:    f884026e    ..n.    STRB     r0,[r4,#0x26e]
        0x00018b3e:    200e        .       MOVS     r0,#0xe
        0x00018b40:    7060        `p      STRB     r0,[r4,#1]
        0x00018b42:    2000        .       MOVS     r0,#0
        0x00018b44:    bd70        p.      POP      {r4-r6,pc}
        0x00018b46:    2000        .       MOVS     r0,#0
        0x00018b48:    7060        `p      STRB     r0,[r4,#1]
        0x00018b4a:    2001        .       MOVS     r0,#1
        0x00018b4c:    bd70        p.      POP      {r4-r6,pc}
    i.am_hal_card_host_power_control
    am_hal_card_host_power_control
        0x00018b4e:    f0810101    ....    EOR      r1,r1,#1
        0x00018b52:    2201        ."      MOVS     r2,#1
        0x00018b54:    f002b95c    ..\.    B.W      am_hal_sdhc_power_control ; 0x1ae10
    i.am_hal_card_host_set_xfer_mode
    am_hal_card_host_set_xfer_mode
        0x00018b58:    7281        .r      STRB     r1,[r0,#0xa]
        0x00018b5a:    4770        pG      BX       lr
    i.am_hal_card_init
    am_hal_card_init
        0x00018b5c:    b570        p.      PUSH     {r4-r6,lr}
        0x00018b5e:    4616        .F      MOV      r6,r2
        0x00018b60:    460d        .F      MOV      r5,r1
        0x00018b62:    0004        ..      MOVS     r4,r0
        0x00018b64:    bf19        ..      ITTEE    NE
        0x00018b66:    f8d40270    ..p.    LDRNE    r0,[r4,#0x270]
        0x00018b6a:    2800        .(      CMPNE    r0,#0
        0x00018b6c:    2006        .       MOVEQ    r0,#6
        0x00018b6e:    bd70        p.      POPEQ    {r4-r6,pc}
        0x00018b70:    7860        `x      LDRB     r0,[r4,#1]
        0x00018b72:    280e        .(      CMP      r0,#0xe
        0x00018b74:    d103        ..      BNE      0x18b7e ; am_hal_card_init + 34
        0x00018b76:    2d00        .-      CMP      r5,#0
        0x00018b78:    bf1c        ..      ITT      NE
        0x00018b7a:    2000        .       MOVNE    r0,#0
        0x00018b7c:    47a8        .G      BLXNE    r5
        0x00018b7e:    200f        .       MOVS     r0,#0xf
        0x00018b80:    f8c45260    ..`R    STR      r5,[r4,#0x260]
        0x00018b84:    7060        `p      STRB     r0,[r4,#1]
        0x00018b86:    f8846264    ..db    STRB     r6,[r4,#0x264]
        0x00018b8a:    2002        .       MOVS     r0,#2
        0x00018b8c:    7020         p      STRB     r0,[r4,#0]
        0x00018b8e:    4620         F      MOV      r0,r4
        0x00018b90:    f000f804    ....    BL       am_hal_card_mmc_init ; 0x18b9c
        0x00018b94:    2800        .(      CMP      r0,#0
        0x00018b96:    bf18        ..      IT       NE
        0x00018b98:    2001        .       MOVNE    r0,#1
        0x00018b9a:    bd70        p.      POP      {r4-r6,pc}
    i.am_hal_card_mmc_init
    am_hal_card_mmc_init
        0x00018b9c:    e92d47f0    -..G    PUSH     {r4-r10,lr}
        0x00018ba0:    b090        ..      SUB      sp,sp,#0x40
        0x00018ba2:    4604        .F      MOV      r4,r0
        0x00018ba4:    f8d00270    ..p.    LDR      r0,[r0,#0x270]
        0x00018ba8:    2500        .%      MOVS     r5,#0
        0x00018baa:    9500        ..      STR      r5,[sp,#0]
        0x00018bac:    9501        ..      STR      r5,[sp,#4]
        0x00018bae:    9502        ..      STR      r5,[sp,#8]
        0x00018bb0:    9503        ..      STR      r5,[sp,#0xc]
        0x00018bb2:    9505        ..      STR      r5,[sp,#0x14]
        0x00018bb4:    9504        ..      STR      r5,[sp,#0x10]
        0x00018bb6:    9506        ..      STR      r5,[sp,#0x18]
        0x00018bb8:    9507        ..      STR      r5,[sp,#0x1c]
        0x00018bba:    9508        ..      STR      r5,[sp,#0x20]
        0x00018bbc:    f88d5000    ...P    STRB     r5,[sp,#0]
        0x00018bc0:    f8d0c000    ....    LDR      r12,[r0,#0]
        0x00018bc4:    6e00        .n      LDR      r0,[r0,#0x60]
        0x00018bc6:    462a        *F      MOV      r2,r5
        0x00018bc8:    4669        iF      MOV      r1,sp
        0x00018bca:    68c3        .h      LDR      r3,[r0,#0xc]
        0x00018bcc:    4660        `F      MOV      r0,r12
        0x00018bce:    4798        .G      BLX      r3
        0x00018bd0:    f89d0020    .. .    LDRB     r0,[sp,#0x20]
        0x00018bd4:    2800        .(      CMP      r0,#0
        0x00018bd6:    f0408116    @...    BNE.W    0x18e06 ; am_hal_card_mmc_init + 618
        0x00018bda:    f8d48270    ..p.    LDR      r8,[r4,#0x270]
        0x00018bde:    9502        ..      STR      r5,[sp,#8]
        0x00018be0:    2601        .&      MOVS     r6,#1
        0x00018be2:    2700        .'      MOVS     r7,#0
        0x00018be4:    9505        ..      STR      r5,[sp,#0x14]
        0x00018be6:    9507        ..      STR      r5,[sp,#0x1c]
        0x00018be8:    9506        ..      STR      r5,[sp,#0x18]
        0x00018bea:    9508        ..      STR      r5,[sp,#0x20]
        0x00018bec:    9509        ..      STR      r5,[sp,#0x24]
        0x00018bee:    950a        ..      STR      r5,[sp,#0x28]
        0x00018bf0:    f88d6008    ...`    STRB     r6,[sp,#8]
        0x00018bf4:    07b0        ..      LSLS     r0,r6,#30
        0x00018bf6:    e9cd0603    ....    STRD     r0,r6,[sp,#0xc]
        0x00018bfa:    f04f0a64    O.d.    MOV      r10,#0x64
        0x00018bfe:    f04f0902    O...    MOV      r9,#2
        0x00018c02:    bf00        ..      NOP      
        0x00018c04:    f8d81060    ..`.    LDR      r1,[r8,#0x60]
        0x00018c08:    f8d80000    ....    LDR      r0,[r8,#0]
        0x00018c0c:    2200        ."      MOVS     r2,#0
        0x00018c0e:    68cb        .h      LDR      r3,[r1,#0xc]
        0x00018c10:    a902        ..      ADD      r1,sp,#8
        0x00018c12:    4798        .G      BLX      r3
        0x00018c14:    f89d0028    ..(.    LDRB     r0,[sp,#0x28]
        0x00018c18:    b918        ..      CBNZ     r0,0x18c22 ; am_hal_card_mmc_init + 134
        0x00018c1a:    9f06        ..      LDR      r7,[sp,#0x18]
        0x00018c1c:    9803        ..      LDR      r0,[sp,#0xc]
        0x00018c1e:    4338        8C      ORRS     r0,r0,r7
        0x00018c20:    9003        ..      STR      r0,[sp,#0xc]
        0x00018c22:    f0174f00    ...O    TST      r7,#0x80000000
        0x00018c26:    d009        ..      BEQ      0x18c3c ; am_hal_card_mmc_init + 160
        0x00018c28:    6067        g`      STR      r7,[r4,#4]
        0x00018c2a:    f1ba0f00    ....    CMP      r10,#0
        0x00018c2e:    f00080ea    ....    BEQ.W    0x18e06 ; am_hal_card_mmc_init + 618
        0x00018c32:    f89d0028    ..(.    LDRB     r0,[sp,#0x28]
        0x00018c36:    b158        X.      CBZ      r0,0x18c50 ; am_hal_card_mmc_init + 180
        0x00018c38:    f000b8e5    ....    B.W      0x18e06 ; am_hal_card_mmc_init + 618
        0x00018c3c:    200a        .       MOVS     r0,#0xa
        0x00018c3e:    f002fb5b    ..[.    BL       am_util_delay_ms ; 0x1b2f8
        0x00018c42:    f1aa0001    ....    SUB      r0,r10,#1
        0x00018c46:    f0100aff    ....    ANDS     r10,r0,#0xff
        0x00018c4a:    d1db        ..      BNE      0x18c04 ; am_hal_card_mmc_init + 104
        0x00018c4c:    f000b8db    ....    B.W      0x18e06 ; am_hal_card_mmc_init + 618
        0x00018c50:    f8d40270    ..p.    LDR      r0,[r4,#0x270]
        0x00018c54:    9501        ..      STR      r5,[sp,#4]
        0x00018c56:    9502        ..      STR      r5,[sp,#8]
        0x00018c58:    9504        ..      STR      r5,[sp,#0x10]
        0x00018c5a:    9506        ..      STR      r5,[sp,#0x18]
        0x00018c5c:    9508        ..      STR      r5,[sp,#0x20]
        0x00018c5e:    f04f0807    O...    MOV      r8,#7
        0x00018c62:    9505        ..      STR      r5,[sp,#0x14]
        0x00018c64:    9507        ..      STR      r5,[sp,#0x1c]
        0x00018c66:    9509        ..      STR      r5,[sp,#0x24]
        0x00018c68:    f88d9004    ....    STRB     r9,[sp,#4]
        0x00018c6c:    f8cd800c    ....    STR      r8,[sp,#0xc]
        0x00018c70:    6803        .h      LDR      r3,[r0,#0]
        0x00018c72:    6e00        .n      LDR      r0,[r0,#0x60]
        0x00018c74:    2200        ."      MOVS     r2,#0
        0x00018c76:    a901        ..      ADD      r1,sp,#4
        0x00018c78:    f8d0c00c    ....    LDR      r12,[r0,#0xc]
        0x00018c7c:    4618        .F      MOV      r0,r3
        0x00018c7e:    47e0        .G      BLX      r12
        0x00018c80:    f89d0024    ..$.    LDRB     r0,[sp,#0x24]
        0x00018c84:    2800        .(      CMP      r0,#0
        0x00018c86:    f04080be    @...    BNE.W    0x18e06 ; am_hal_card_mmc_init + 618
        0x00018c8a:    af05        ..      ADD      r7,sp,#0x14
        0x00018c8c:    e897100e    ....    LDM      r7,{r1-r3,r12}
        0x00018c90:    6163        ca      STR      r3,[r4,#0x14]
        0x00018c92:    e9c41203    ....    STRD     r1,r2,[r4,#0xc]
        0x00018c96:    f8c4c018    ....    STR      r12,[r4,#0x18]
        0x00018c9a:    6820         h      LDR      r0,[r4,#0]
        0x00018c9c:    f4403180    @..1    ORR      r1,r0,#0x10000
        0x00018ca0:    6021        !`      STR      r1,[r4,#0]
        0x00018ca2:    f89d0024    ..$.    LDRB     r0,[sp,#0x24]
        0x00018ca6:    2800        .(      CMP      r0,#0
        0x00018ca8:    d17e        ~.      BNE      0x18da8 ; am_hal_card_mmc_init + 524
        0x00018caa:    f8d40270    ..p.    LDR      r0,[r4,#0x270]
        0x00018cae:    9500        ..      STR      r5,[sp,#0]
        0x00018cb0:    9505        ..      STR      r5,[sp,#0x14]
        0x00018cb2:    2103        .!      MOVS     r1,#3
        0x00018cb4:    9503        ..      STR      r5,[sp,#0xc]
        0x00018cb6:    f88d1000    ....    STRB     r1,[sp,#0]
        0x00018cba:    9504        ..      STR      r5,[sp,#0x10]
        0x00018cbc:    9506        ..      STR      r5,[sp,#0x18]
        0x00018cbe:    9507        ..      STR      r5,[sp,#0x1c]
        0x00018cc0:    9508        ..      STR      r5,[sp,#0x20]
        0x00018cc2:    f44f3180    O..1    MOV      r1,#0x10000
        0x00018cc6:    2715        .'      MOVS     r7,#0x15
        0x00018cc8:    e9cd1701    ....    STRD     r1,r7,[sp,#4]
        0x00018ccc:    6803        .h      LDR      r3,[r0,#0]
        0x00018cce:    6e00        .n      LDR      r0,[r0,#0x60]
        0x00018cd0:    2200        ."      MOVS     r2,#0
        0x00018cd2:    4669        iF      MOV      r1,sp
        0x00018cd4:    f8d0c00c    ....    LDR      r12,[r0,#0xc]
        0x00018cd8:    4618        .F      MOV      r0,r3
        0x00018cda:    47e0        .G      BLX      r12
        0x00018cdc:    f89d0020    .. .    LDRB     r0,[sp,#0x20]
        0x00018ce0:    2800        .(      CMP      r0,#0
        0x00018ce2:    d161        a.      BNE      0x18da8 ; am_hal_card_mmc_init + 524
        0x00018ce4:    7226        &r      STRB     r6,[r4,#8]
        0x00018ce6:    f89d0020    .. .    LDRB     r0,[sp,#0x20]
        0x00018cea:    2800        .(      CMP      r0,#0
        0x00018cec:    d15c        \.      BNE      0x18da8 ; am_hal_card_mmc_init + 524
        0x00018cee:    f8d40270    ..p.    LDR      r0,[r4,#0x270]
        0x00018cf2:    9501        ..      STR      r5,[sp,#4]
        0x00018cf4:    9502        ..      STR      r5,[sp,#8]
        0x00018cf6:    9503        ..      STR      r5,[sp,#0xc]
        0x00018cf8:    9504        ..      STR      r5,[sp,#0x10]
        0x00018cfa:    9506        ..      STR      r5,[sp,#0x18]
        0x00018cfc:    2109        .!      MOVS     r1,#9
        0x00018cfe:    9505        ..      STR      r5,[sp,#0x14]
        0x00018d00:    9507        ..      STR      r5,[sp,#0x1c]
        0x00018d02:    9508        ..      STR      r5,[sp,#0x20]
        0x00018d04:    9509        ..      STR      r5,[sp,#0x24]
        0x00018d06:    f88d1004    ....    STRB     r1,[sp,#4]
        0x00018d0a:    7a21        !z      LDRB     r1,[r4,#8]
        0x00018d0c:    0409        ..      LSLS     r1,r1,#16
        0x00018d0e:    e9cd1802    ....    STRD     r1,r8,[sp,#8]
        0x00018d12:    f8d0c000    ....    LDR      r12,[r0,#0]
        0x00018d16:    6e00        .n      LDR      r0,[r0,#0x60]
        0x00018d18:    2200        ."      MOVS     r2,#0
        0x00018d1a:    a901        ..      ADD      r1,sp,#4
        0x00018d1c:    68c3        .h      LDR      r3,[r0,#0xc]
        0x00018d1e:    4660        `F      MOV      r0,r12
        0x00018d20:    4798        .G      BLX      r3
        0x00018d22:    f89d0024    ..$.    LDRB     r0,[sp,#0x24]
        0x00018d26:    2800        .(      CMP      r0,#0
        0x00018d28:    d16d        m.      BNE      0x18e06 ; am_hal_card_mmc_init + 618
        0x00018d2a:    f10d0914    ....    ADD      r9,sp,#0x14
        0x00018d2e:    e899100e    ....    LDM      r9,{r1-r3,r12}
        0x00018d32:    6263        cb      STR      r3,[r4,#0x24]
        0x00018d34:    e9c41207    ....    STRD     r1,r2,[r4,#0x1c]
        0x00018d38:    f8c4c028    ..(.    STR      r12,[r4,#0x28]
        0x00018d3c:    6820         h      LDR      r0,[r4,#0]
        0x00018d3e:    f4403100    @..1    ORR      r1,r0,#0x20000
        0x00018d42:    6021        !`      STR      r1,[r4,#0]
        0x00018d44:    f89d0024    ..$.    LDRB     r0,[sp,#0x24]
        0x00018d48:    2800        .(      CMP      r0,#0
        0x00018d4a:    d15c        \.      BNE      0x18e06 ; am_hal_card_mmc_init + 618
        0x00018d4c:    f8d40270    ..p.    LDR      r0,[r4,#0x270]
        0x00018d50:    9500        ..      STR      r5,[sp,#0]
        0x00018d52:    9501        ..      STR      r5,[sp,#4]
        0x00018d54:    9502        ..      STR      r5,[sp,#8]
        0x00018d56:    9503        ..      STR      r5,[sp,#0xc]
        0x00018d58:    9505        ..      STR      r5,[sp,#0x14]
        0x00018d5a:    9504        ..      STR      r5,[sp,#0x10]
        0x00018d5c:    9506        ..      STR      r5,[sp,#0x18]
        0x00018d5e:    9507        ..      STR      r5,[sp,#0x1c]
        0x00018d60:    9508        ..      STR      r5,[sp,#0x20]
        0x00018d62:    f88d8000    ....    STRB     r8,[sp,#0]
        0x00018d66:    7a21        !z      LDRB     r1,[r4,#8]
        0x00018d68:    0409        ..      LSLS     r1,r1,#16
        0x00018d6a:    9101        ..      STR      r1,[sp,#4]
        0x00018d6c:    7a21        !z      LDRB     r1,[r4,#8]
        0x00018d6e:    2900        .)      CMP      r1,#0
        0x00018d70:    bf18        ..      IT       NE
        0x00018d72:    9702        ..      STRNE    r7,[sp,#8]
        0x00018d74:    f8d0c000    ....    LDR      r12,[r0,#0]
        0x00018d78:    6e00        .n      LDR      r0,[r0,#0x60]
        0x00018d7a:    2200        ."      MOVS     r2,#0
        0x00018d7c:    4669        iF      MOV      r1,sp
        0x00018d7e:    68c3        .h      LDR      r3,[r0,#0xc]
        0x00018d80:    4660        `F      MOV      r0,r12
        0x00018d82:    4798        .G      BLX      r3
        0x00018d84:    f89d0020    .. .    LDRB     r0,[sp,#0x20]
        0x00018d88:    2800        .(      CMP      r0,#0
        0x00018d8a:    d13c        <.      BNE      0x18e06 ; am_hal_card_mmc_init + 618
        0x00018d8c:    7a21        !z      LDRB     r1,[r4,#8]
        0x00018d8e:    2006        .       MOVS     r0,#6
        0x00018d90:    2900        .)      CMP      r1,#0
        0x00018d92:    bf08        ..      IT       EQ
        0x00018d94:    2005        .       MOVEQ    r0,#5
        0x00018d96:    7060        `p      STRB     r0,[r4,#1]
        0x00018d98:    f89d0020    .. .    LDRB     r0,[sp,#0x20]
        0x00018d9c:    b920         .      CBNZ     r0,0x18da8 ; am_hal_card_mmc_init + 524
        0x00018d9e:    f8d40270    ..p.    LDR      r0,[r4,#0x270]
        0x00018da2:    9506        ..      STR      r5,[sp,#0x18]
        0x00018da4:    9507        ..      STR      r5,[sp,#0x1c]
        0x00018da6:    e000        ..      B        0x18daa ; am_hal_card_mmc_init + 526
        0x00018da8:    e02d        -.      B        0x18e06 ; am_hal_card_mmc_init + 618
        0x00018daa:    9508        ..      STR      r5,[sp,#0x20]
        0x00018dac:    9509        ..      STR      r5,[sp,#0x24]
        0x00018dae:    950b        ..      STR      r5,[sp,#0x2c]
        0x00018db0:    950a        ..      STR      r5,[sp,#0x28]
        0x00018db2:    950c        ..      STR      r5,[sp,#0x30]
        0x00018db4:    950d        ..      STR      r5,[sp,#0x34]
        0x00018db6:    950e        ..      STR      r5,[sp,#0x38]
        0x00018db8:    9501        ..      STR      r5,[sp,#4]
        0x00018dba:    2108        .!      MOVS     r1,#8
        0x00018dbc:    9502        ..      STR      r5,[sp,#8]
        0x00018dbe:    9503        ..      STR      r5,[sp,#0xc]
        0x00018dc0:    9504        ..      STR      r5,[sp,#0x10]
        0x00018dc2:    9505        ..      STR      r5,[sp,#0x14]
        0x00018dc4:    f88d1018    ....    STRB     r1,[sp,#0x18]
        0x00018dc8:    7a21        !z      LDRB     r1,[r4,#8]
        0x00018dca:    aa01        ..      ADD      r2,sp,#4
        0x00018dcc:    0409        ..      LSLS     r1,r1,#16
        0x00018dce:    e9cd1707    ....    STRD     r1,r7,[sp,#0x1c]
        0x00018dd2:    f104012c    ..,.    ADD      r1,r4,#0x2c
        0x00018dd6:    9102        ..      STR      r1,[sp,#8]
        0x00018dd8:    f44f7100    O..q    MOV      r1,#0x200
        0x00018ddc:    e9cd1603    ....    STRD     r1,r6,[sp,#0xc]
        0x00018de0:    f88d5004    ...P    STRB     r5,[sp,#4]
        0x00018de4:    f8d0c000    ....    LDR      r12,[r0,#0]
        0x00018de8:    6e00        .n      LDR      r0,[r0,#0x60]
        0x00018dea:    a906        ..      ADD      r1,sp,#0x18
        0x00018dec:    68c3        .h      LDR      r3,[r0,#0xc]
        0x00018dee:    4660        `F      MOV      r0,r12
        0x00018df0:    4798        .G      BLX      r3
        0x00018df2:    f89d0038    ..8.    LDRB     r0,[sp,#0x38]
        0x00018df6:    b930        0.      CBNZ     r0,0x18e06 ; am_hal_card_mmc_init + 618
        0x00018df8:    6820         h      LDR      r0,[r4,#0]
        0x00018dfa:    f4402180    @..!    ORR      r1,r0,#0x40000
        0x00018dfe:    6021        !`      STR      r1,[r4,#0]
        0x00018e00:    f89d0038    ..8.    LDRB     r0,[sp,#0x38]
        0x00018e04:    b118        ..      CBZ      r0,0x18e0e ; am_hal_card_mmc_init + 626
        0x00018e06:    b010        ..      ADD      sp,sp,#0x40
        0x00018e08:    2001        .       MOVS     r0,#1
        0x00018e0a:    e8bd87f0    ....    POP      {r4-r10,pc}
        0x00018e0e:    8c20         .      LDRH     r0,[r4,#0x20]
        0x00018e10:    6a61        aj      LDR      r1,[r4,#0x24]
        0x00018e12:    0080        ..      LSLS     r0,r0,#2
        0x00018e14:    ea407091    @..p    ORR      r0,r0,r1,LSR #30
        0x00018e18:    f3c0000b    ....    UBFX     r0,r0,#0,#12
        0x00018e1c:    f5a06170    ..pa    SUB      r1,r0,#0xf00
        0x00018e20:    39ff        .9      SUBS     r1,r1,#0xff
        0x00018e22:    bf14        ..      ITE      NE
        0x00018e24:    2000        .       MOVNE    r0,#0
        0x00018e26:    2001        .       MOVEQ    r0,#1
        0x00018e28:    f884022f    ../.    STRB     r0,[r4,#0x22f]
        0x00018e2c:    2800        .(      CMP      r0,#0
        0x00018e2e:    d07d        }.      BEQ      0x18f2c ; am_hal_card_mmc_init + 912
        0x00018e30:    f04f0201    O...    MOV      r2,#1
        0x00018e34:    f04f013d    O.=.    MOV      r1,#0x3d
        0x00018e38:    f104002c    ..,.    ADD      r0,r4,#0x2c
        0x00018e3c:    f002fa1c    ....    BL       am_hal_unstuff_bytes ; 0x1b278
        0x00018e40:    2800        .(      CMP      r0,#0
        0x00018e42:    bf0c        ..      ITE      EQ
        0x00018e44:    f44f7000    O..p    MOVEQ    r0,#0x200
        0x00018e48:    f44f5080    O..P    MOVNE    r0,#0x1000
        0x00018e4c:    2201        ."      MOVS     r2,#1
        0x00018e4e:    f8c40258    ..X.    STR      r0,[r4,#0x258]
        0x00018e52:    213e        >!      MOVS     r1,#0x3e
        0x00018e54:    f104002c    ..,.    ADD      r0,r4,#0x2c
        0x00018e58:    f002fa0e    ....    BL       am_hal_unstuff_bytes ; 0x1b278
        0x00018e5c:    2800        .(      CMP      r0,#0
        0x00018e5e:    bf0c        ..      ITE      EQ
        0x00018e60:    2001        .       MOVEQ    r0,#1
        0x00018e62:    2000        .       MOVNE    r0,#0
        0x00018e64:    f8840250    ..P.    STRB     r0,[r4,#0x250]
        0x00018e68:    2201        ."      MOVS     r2,#1
        0x00018e6a:    213f        ?!      MOVS     r1,#0x3f
        0x00018e6c:    f104002c    ..,.    ADD      r0,r4,#0x2c
        0x00018e70:    f002fa02    ....    BL       am_hal_unstuff_bytes ; 0x1b278
        0x00018e74:    2800        .(      CMP      r0,#0
        0x00018e76:    bf14        ..      ITE      NE
        0x00018e78:    f44f5080    O..P    MOVNE    r0,#0x1000
        0x00018e7c:    f44f7000    O..p    MOVEQ    r0,#0x200
        0x00018e80:    f8c40254    ..T.    STR      r0,[r4,#0x254]
        0x00018e84:    6a20         j      LDR      r0,[r4,#0x20]
        0x00018e86:    2201        ."      MOVS     r2,#1
        0x00018e88:    0d00        ..      LSRS     r0,r0,#20
        0x00018e8a:    f8a4025c    ..\.    STRH     r0,[r4,#0x25c]
        0x00018e8e:    69e0        .i      LDR      r0,[r4,#0x1c]
        0x00018e90:    21c0        .!      MOVS     r1,#0xc0
        0x00018e92:    f3c06083    ...`    UBFX     r0,r0,#26,#4
        0x00018e96:    f884022c    ..,.    STRB     r0,[r4,#0x22c]
        0x00018e9a:    f104002c    ..,.    ADD      r0,r4,#0x2c
        0x00018e9e:    f002f9eb    ....    BL       am_hal_unstuff_bytes ; 0x1b278
        0x00018ea2:    f884022d    ..-.    STRB     r0,[r4,#0x22d]
        0x00018ea6:    2201        ."      MOVS     r2,#1
        0x00018ea8:    21c4        .!      MOVS     r1,#0xc4
        0x00018eaa:    f104002c    ..,.    ADD      r0,r4,#0x2c
        0x00018eae:    f002f9e3    ....    BL       am_hal_unstuff_bytes ; 0x1b278
        0x00018eb2:    f8840249    ..I.    STRB     r0,[r4,#0x249]
        0x00018eb6:    2204        ."      MOVS     r2,#4
        0x00018eb8:    21d4        .!      MOVS     r1,#0xd4
        0x00018eba:    f104002c    ..,.    ADD      r0,r4,#0x2c
        0x00018ebe:    f002f9db    ....    BL       am_hal_unstuff_bytes ; 0x1b278
        0x00018ec2:    f8c40240    ..@.    STR      r0,[r4,#0x240]
        0x00018ec6:    f8d41258    ..X.    LDR      r1,[r4,#0x258]
        0x00018eca:    2204        ."      MOVS     r2,#4
        0x00018ecc:    4348        HC      MULS     r0,r1,r0
        0x00018ece:    f8c40244    ..D.    STR      r0,[r4,#0x244]
        0x00018ed2:    21f9        .!      MOVS     r1,#0xf9
        0x00018ed4:    f104002c    ..,.    ADD      r0,r4,#0x2c
        0x00018ed8:    f002f9ce    ....    BL       am_hal_unstuff_bytes ; 0x1b278
        0x00018edc:    f8c40230    ..0.    STR      r0,[r4,#0x230]
        0x00018ee0:    2201        ."      MOVS     r2,#1
        0x00018ee2:    21e7        .!      MOVS     r1,#0xe7
        0x00018ee4:    f104002c    ..,.    ADD      r0,r4,#0x2c
        0x00018ee8:    f002f9c6    ....    BL       am_hal_unstuff_bytes ; 0x1b278
        0x00018eec:    f8840248    ..H.    STRB     r0,[r4,#0x248]
        0x00018ef0:    f44f70fa    O..p    MOV      r0,#0x1f4
        0x00018ef4:    f8c4023c    ..<.    STR      r0,[r4,#0x23c]
        0x00018ef8:    f894022d    ..-.    LDRB     r0,[r4,#0x22d]
        0x00018efc:    2806        .(      CMP      r0,#6
        0x00018efe:    d322        ".      BCC      0x18f46 ; am_hal_card_mmc_init + 938
        0x00018f00:    2201        ."      MOVS     r2,#1
        0x00018f02:    21d8        .!      MOVS     r1,#0xd8
        0x00018f04:    f104002c    ..,.    ADD      r0,r4,#0x2c
        0x00018f08:    f002f9b6    ....    BL       am_hal_unstuff_bytes ; 0x1b278
        0x00018f0c:    eb000080    ....    ADD      r0,r0,r0,LSL #2
        0x00018f10:    0040        @.      LSLS     r0,r0,#1
        0x00018f12:    f8c40234    ..4.    STR      r0,[r4,#0x234]
        0x00018f16:    2201        ."      MOVS     r2,#1
        0x00018f18:    21f7        .!      MOVS     r1,#0xf7
        0x00018f1a:    f104002c    ..,.    ADD      r0,r4,#0x2c
        0x00018f1e:    f002f9ab    ....    BL       am_hal_unstuff_bytes ; 0x1b278
        0x00018f22:    eb000080    ....    ADD      r0,r0,r0,LSL #2
        0x00018f26:    0040        @.      LSLS     r0,r0,#1
        0x00018f28:    2201        ."      MOVS     r2,#1
        0x00018f2a:    e000        ..      B        0x18f2e ; am_hal_card_mmc_init + 914
        0x00018f2c:    e00b        ..      B        0x18f46 ; am_hal_card_mmc_init + 938
        0x00018f2e:    f8c40238    ..8.    STR      r0,[r4,#0x238]
        0x00018f32:    21f8        .!      MOVS     r1,#0xf8
        0x00018f34:    f104002c    ..,.    ADD      r0,r4,#0x2c
        0x00018f38:    f002f99e    ....    BL       am_hal_unstuff_bytes ; 0x1b278
        0x00018f3c:    eb000080    ....    ADD      r0,r0,r0,LSL #2
        0x00018f40:    0040        @.      LSLS     r0,r0,#1
        0x00018f42:    f8c4023c    ..<.    STR      r0,[r4,#0x23c]
        0x00018f46:    0020         .      MOVS     r0,r4
        0x00018f48:    bf1f        ..      ITTTT    NE
        0x00018f4a:    f8d01270    ..p.    LDRNE    r1,[r0,#0x270]
        0x00018f4e:    2900        .)      CMPNE    r1,#0
        0x00018f50:    f8d01230    ..0.    LDRNE    r1,[r0,#0x230]
        0x00018f54:    2900        .)      CMPNE    r1,#0
        0x00018f56:    d005        ..      BEQ      0x18f64 ; am_hal_card_mmc_init + 968
        0x00018f58:    f44f7180    O..q    MOV      r1,#0x100
        0x00018f5c:    f44f72fa    O..r    MOV      r2,#0x1f4
        0x00018f60:    f000f81c    ....    BL       am_hal_card_mode_switch ; 0x18f9c
        0x00018f64:    f884522e    ...R    STRB     r5,[r4,#0x22e]
        0x00018f68:    0020         .      MOVS     r0,r4
        0x00018f6a:    bf1c        ..      ITT      NE
        0x00018f6c:    f8d01270    ..p.    LDRNE    r1,[r0,#0x270]
        0x00018f70:    2900        .)      CMPNE    r1,#0
        0x00018f72:    d00c        ..      BEQ      0x18f8e ; am_hal_card_mmc_init + 1010
        0x00018f74:    f890122d    ..-.    LDRB     r1,[r0,#0x22d]
        0x00018f78:    2906        .)      CMP      r1,#6
        0x00018f7a:    d308        ..      BCC      0x18f8e ; am_hal_card_mmc_init + 1010
        0x00018f7c:    4906        .I      LDR      r1,[pc,#24] ; [0x18f98] = 0x3220100
        0x00018f7e:    f44f72fa    O..r    MOV      r2,#0x1f4
        0x00018f82:    f000f80b    ....    BL       am_hal_card_mode_switch ; 0x18f9c
        0x00018f86:    2800        .(      CMP      r0,#0
        0x00018f88:    bf08        ..      IT       EQ
        0x00018f8a:    f884622e    ...b    STRBEQ   r6,[r4,#0x22e]
        0x00018f8e:    2000        .       MOVS     r0,#0
        0x00018f90:    b010        ..      ADD      sp,sp,#0x40
        0x00018f92:    e8bd87f0    ....    POP      {r4-r10,pc}
    $d
        0x00018f96:    0000        ..      DCW    0
        0x00018f98:    03220100    ..".    DCD    52560128
    $t
    i.am_hal_card_mode_switch
    am_hal_card_mode_switch
        0x00018f9c:    e92d43f0    -..C    PUSH     {r4-r9,lr}
        0x00018fa0:    b093        ..      SUB      sp,sp,#0x4c
        0x00018fa2:    4616        .F      MOV      r6,r2
        0x00018fa4:    0004        ..      MOVS     r4,r0
        0x00018fa6:    bf19        ..      ITTEE    NE
        0x00018fa8:    f8d45270    ..pR    LDRNE    r5,[r4,#0x270]
        0x00018fac:    2d00        .-      CMPNE    r5,#0
        0x00018fae:    2006        .       MOVEQ    r0,#6
        0x00018fb0:    b013        ..      ADDEQ    sp,sp,#0x4c
        0x00018fb2:    bf08        ..      IT       EQ
        0x00018fb4:    e8bd83f0    ....    POPEQ    {r4-r9,pc}
        0x00018fb8:    7860        `x      LDRB     r0,[r4,#1]
        0x00018fba:    2806        .(      CMP      r0,#6
        0x00018fbc:    bf1e        ..      ITTT     NE
        0x00018fbe:    2007        .       MOVNE    r0,#7
        0x00018fc0:    b013        ..      ADDNE    sp,sp,#0x4c
        0x00018fc2:    e8bd83f0    ....    POPNE    {r4-r9,pc}
        0x00018fc6:    2700        .'      MOVS     r7,#0
        0x00018fc8:    9709        ..      STR      r7,[sp,#0x24]
        0x00018fca:    970b        ..      STR      r7,[sp,#0x2c]
        0x00018fcc:    970c        ..      STR      r7,[sp,#0x30]
        0x00018fce:    970e        ..      STR      r7,[sp,#0x38]
        0x00018fd0:    970f        ..      STR      r7,[sp,#0x3c]
        0x00018fd2:    2006        .       MOVS     r0,#6
        0x00018fd4:    970d        ..      STR      r7,[sp,#0x34]
        0x00018fd6:    9710        ..      STR      r7,[sp,#0x40]
        0x00018fd8:    9711        ..      STR      r7,[sp,#0x44]
        0x00018fda:    f88d0024    ..$.    STRB     r0,[sp,#0x24]
        0x00018fde:    910a        ..      STR      r1,[sp,#0x28]
        0x00018fe0:    6820         h      LDR      r0,[r4,#0]
        0x00018fe2:    f04f0815    O...    MOV      r8,#0x15
        0x00018fe6:    f4202080     ..     BIC      r0,r0,#0x40000
        0x00018fea:    6020         `      STR      r0,[r4,#0]
        0x00018fec:    7820         x      LDRB     r0,[r4,#0]
        0x00018fee:    2801        .(      CMP      r0,#1
        0x00018ff0:    bf1c        ..      ITT      NE
        0x00018ff2:    2802        .(      CMPNE    r0,#2
        0x00018ff4:    f8cd802c    ..,.    STRNE    r8,[sp,#0x2c]
        0x00018ff8:    d011        ..      BEQ      0x1901e ; am_hal_card_mode_switch + 130
        0x00018ffa:    6e29        )n      LDR      r1,[r5,#0x60]
        0x00018ffc:    6828        (h      LDR      r0,[r5,#0]
        0x00018ffe:    f04f0200    O...    MOV      r2,#0
        0x00019002:    68cb        .h      LDR      r3,[r1,#0xc]
        0x00019004:    a909        ..      ADD      r1,sp,#0x24
        0x00019006:    4798        .G      BLX      r3
        0x00019008:    2800        .(      CMP      r0,#0
        0x0001900a:    bf1c        ..      ITT      NE
        0x0001900c:    b013        ..      ADDNE    sp,sp,#0x4c
        0x0001900e:    e8bd83f0    ....    POPNE    {r4-r9,pc}
        0x00019012:    7820         x      LDRB     r0,[r4,#0]
        0x00019014:    2801        .(      CMP      r0,#1
        0x00019016:    bf18        ..      IT       NE
        0x00019018:    2802        .(      CMPNE    r0,#2
        0x0001901a:    d113        ..      BNE      0x19044 ; am_hal_card_mode_switch + 168
        0x0001901c:    e007        ..      B        0x1902e ; am_hal_card_mode_switch + 146
        0x0001901e:    f04f0001    O...    MOV      r0,#1
        0x00019022:    f88d0030    ..0.    STRB     r0,[sp,#0x30]
        0x00019026:    f04f001d    O...    MOV      r0,#0x1d
        0x0001902a:    900b        ..      STR      r0,[sp,#0x2c]
        0x0001902c:    e7e5        ..      B        0x18ffa ; am_hal_card_mode_switch + 94
        0x0001902e:    6e29        )n      LDR      r1,[r5,#0x60]
        0x00019030:    6828        (h      LDR      r0,[r5,#0]
        0x00019032:    6a8a        .j      LDR      r2,[r1,#0x28]
        0x00019034:    f04f010a    O...    MOV      r1,#0xa
        0x00019038:    4790        .G      BLX      r2
        0x0001903a:    2800        .(      CMP      r0,#0
        0x0001903c:    bf1c        ..      ITT      NE
        0x0001903e:    b013        ..      ADDNE    sp,sp,#0x4c
        0x00019040:    e8bd83f0    ....    POPNE    {r4-r9,pc}
        0x00019044:    2500        .%      MOVS     r5,#0
        0x00019046:    f04f090d    O...    MOV      r9,#0xd
        0x0001904a:    2c00        .,      CMP      r4,#0
        0x0001904c:    bf1c        ..      ITT      NE
        0x0001904e:    f8d40270    ..p.    LDRNE    r0,[r4,#0x270]
        0x00019052:    2800        .(      CMPNE    r0,#0
        0x00019054:    d030        0.      BEQ      0x190b8 ; am_hal_card_mode_switch + 284
        0x00019056:    7861        ax      LDRB     r1,[r4,#1]
        0x00019058:    2905        .)      CMP      r1,#5
        0x0001905a:    d32d        -.      BCC      0x190b8 ; am_hal_card_mode_switch + 284
        0x0001905c:    9700        ..      STR      r7,[sp,#0]
        0x0001905e:    9701        ..      STR      r7,[sp,#4]
        0x00019060:    9702        ..      STR      r7,[sp,#8]
        0x00019062:    9703        ..      STR      r7,[sp,#0xc]
        0x00019064:    9705        ..      STR      r7,[sp,#0x14]
        0x00019066:    9704        ..      STR      r7,[sp,#0x10]
        0x00019068:    9706        ..      STR      r7,[sp,#0x18]
        0x0001906a:    9707        ..      STR      r7,[sp,#0x1c]
        0x0001906c:    9708        ..      STR      r7,[sp,#0x20]
        0x0001906e:    f88d9000    ....    STRB     r9,[sp,#0]
        0x00019072:    7a21        !z      LDRB     r1,[r4,#8]
        0x00019074:    0409        ..      LSLS     r1,r1,#16
        0x00019076:    e9cd1801    ....    STRD     r1,r8,[sp,#4]
        0x0001907a:    f8d0c000    ....    LDR      r12,[r0,#0]
        0x0001907e:    6e00        .n      LDR      r0,[r0,#0x60]
        0x00019080:    2200        ."      MOVS     r2,#0
        0x00019082:    4669        iF      MOV      r1,sp
        0x00019084:    68c3        .h      LDR      r3,[r0,#0xc]
        0x00019086:    4660        `F      MOV      r0,r12
        0x00019088:    4798        .G      BLX      r3
        0x0001908a:    2800        .(      CMP      r0,#0
        0x0001908c:    bf02        ..      ITTT     EQ
        0x0001908e:    f89d1020    .. .    LDRBEQ   r1,[sp,#0x20]
        0x00019092:    2900        .)      CMPEQ    r1,#0
        0x00019094:    9d04        ..      LDREQ    r5,[sp,#0x10]
        0x00019096:    b978        x.      CBNZ     r0,0x190b8 ; am_hal_card_mode_switch + 284
        0x00019098:    f0150f80    ....    TST      r5,#0x80
        0x0001909c:    d004        ..      BEQ      0x190a8 ; am_hal_card_mode_switch + 268
        0x0001909e:    b013        ..      ADD      sp,sp,#0x4c
        0x000190a0:    f04f0001    O...    MOV      r0,#1
        0x000190a4:    e8bd83f0    ....    POP      {r4-r9,pc}
        0x000190a8:    f4157f80    ....    TST      r5,#0x100
        0x000190ac:    d004        ..      BEQ      0x190b8 ; am_hal_card_mode_switch + 284
        0x000190ae:    b013        ..      ADD      sp,sp,#0x4c
        0x000190b0:    f04f0000    O...    MOV      r0,#0
        0x000190b4:    e8bd83f0    ....    POP      {r4-r9,pc}
        0x000190b8:    f04f0001    O...    MOV      r0,#1
        0x000190bc:    f002f91c    ....    BL       am_util_delay_ms ; 0x1b2f8
        0x000190c0:    4630        0F      MOV      r0,r6
        0x000190c2:    1e76        v.      SUBS     r6,r6,#1
        0x000190c4:    d2c1        ..      BCS      0x1904a ; am_hal_card_mode_switch + 174
        0x000190c6:    b013        ..      ADD      sp,sp,#0x4c
        0x000190c8:    e8bd83f0    ....    POP      {r4-r9,pc}
    i.am_hal_card_pwrctrl_sleep
    am_hal_card_pwrctrl_sleep
        0x000190cc:    e92d4ff0    -..O    PUSH     {r4-r11,lr}
        0x000190d0:    b089        ..      SUB      sp,sp,#0x24
        0x000190d2:    0004        ..      MOVS     r4,r0
        0x000190d4:    bf19        ..      ITTEE    NE
        0x000190d6:    f8d46270    ..pb    LDRNE    r6,[r4,#0x270]
        0x000190da:    2e00        ..      CMPNE    r6,#0
        0x000190dc:    2006        .       MOVEQ    r0,#6
        0x000190de:    b009        ..      ADDEQ    sp,sp,#0x24
        0x000190e0:    bf08        ..      IT       EQ
        0x000190e2:    e8bd8ff0    ....    POPEQ    {r4-r11,pc}
        0x000190e6:    f8940264    ..d.    LDRB     r0,[r4,#0x264]
        0x000190ea:    2801        .(      CMP      r0,#1
        0x000190ec:    f0008149    ..I.    BEQ.W    0x19382 ; am_hal_card_pwrctrl_sleep + 694
        0x000190f0:    2706        .'      MOVS     r7,#6
        0x000190f2:    2507        .%      MOVS     r5,#7
        0x000190f4:    f04f0801    O...    MOV      r8,#1
        0x000190f8:    f04f0905    O...    MOV      r9,#5
        0x000190fc:    2802        .(      CMP      r0,#2
        0x000190fe:    d07d        }.      BEQ      0x191fc ; am_hal_card_pwrctrl_sleep + 304
        0x00019100:    2803        .(      CMP      r0,#3
        0x00019102:    f0408148    @.H.    BNE.W    0x19396 ; am_hal_card_pwrctrl_sleep + 714
        0x00019106:    f8d41230    ..0.    LDR      r1,[r4,#0x230]
        0x0001910a:    4620         F      MOV      r0,r4
        0x0001910c:    2900        .)      CMP      r1,#0
        0x0001910e:    d076        v.      BEQ      0x191fe ; am_hal_card_pwrctrl_sleep + 306
        0x00019110:    f44f7180    O..q    MOV      r1,#0x100
        0x00019114:    f44f72fa    O..r    MOV      r2,#0x1f4
        0x00019118:    f7ffff40    ..@.    BL       am_hal_card_mode_switch ; 0x18f9c
        0x0001911c:    2800        .(      CMP      r0,#0
        0x0001911e:    bf1c        ..      ITT      NE
        0x00019120:    b009        ..      ADDNE    sp,sp,#0x24
        0x00019122:    e8bd8ff0    ....    POPNE    {r4-r11,pc}
        0x00019126:    f04f0a03    O...    MOV      r10,#3
        0x0001912a:    f8d40270    ..p.    LDR      r0,[r4,#0x270]
        0x0001912e:    2800        .(      CMP      r0,#0
        0x00019130:    d066        f.      BEQ      0x19200 ; am_hal_card_pwrctrl_sleep + 308
        0x00019132:    f894022d    ..-.    LDRB     r0,[r4,#0x22d]
        0x00019136:    2806        .(      CMP      r0,#6
        0x00019138:    d361        a.      BCC      0x191fe ; am_hal_card_pwrctrl_sleep + 306
        0x0001913a:    4999        .I      LDR      r1,[pc,#612] ; [0x193a0] = 0x3220300
        0x0001913c:    4620         F      MOV      r0,r4
        0x0001913e:    f8d42238    ..8"    LDR      r2,[r4,#0x238]
        0x00019142:    f7ffff2b    ..+.    BL       am_hal_card_mode_switch ; 0x18f9c
        0x00019146:    2800        .(      CMP      r0,#0
        0x00019148:    d17a        z.      BNE      0x19240 ; am_hal_card_pwrctrl_sleep + 372
        0x0001914a:    f884a22e    ....    STRB     r10,[r4,#0x22e]
        0x0001914e:    f894b008    ....    LDRB     r11,[r4,#8]
        0x00019152:    7220         r      STRB     r0,[r4,#8]
        0x00019154:    f8d41270    ..p.    LDR      r1,[r4,#0x270]
        0x00019158:    9000        ..      STR      r0,[sp,#0]
        0x0001915a:    9001        ..      STR      r0,[sp,#4]
        0x0001915c:    9002        ..      STR      r0,[sp,#8]
        0x0001915e:    9003        ..      STR      r0,[sp,#0xc]
        0x00019160:    9005        ..      STR      r0,[sp,#0x14]
        0x00019162:    4682        .F      MOV      r10,r0
        0x00019164:    9004        ..      STR      r0,[sp,#0x10]
        0x00019166:    9006        ..      STR      r0,[sp,#0x18]
        0x00019168:    9007        ..      STR      r0,[sp,#0x1c]
        0x0001916a:    9008        ..      STR      r0,[sp,#0x20]
        0x0001916c:    f88d5000    ...P    STRB     r5,[sp,#0]
        0x00019170:    7a20         z      LDRB     r0,[r4,#8]
        0x00019172:    0400        ..      LSLS     r0,r0,#16
        0x00019174:    9001        ..      STR      r0,[sp,#4]
        0x00019176:    7a20         z      LDRB     r0,[r4,#8]
        0x00019178:    2800        .(      CMP      r0,#0
        0x0001917a:    bf1c        ..      ITT      NE
        0x0001917c:    2015        .       MOVNE    r0,#0x15
        0x0001917e:    9002        ..      STRNE    r0,[sp,#8]
        0x00019180:    6808        .h      LDR      r0,[r1,#0]
        0x00019182:    6e09        .n      LDR      r1,[r1,#0x60]
        0x00019184:    2200        ."      MOVS     r2,#0
        0x00019186:    68cb        .h      LDR      r3,[r1,#0xc]
        0x00019188:    4669        iF      MOV      r1,sp
        0x0001918a:    4798        .G      BLX      r3
        0x0001918c:    f89d0020    .. .    LDRB     r0,[sp,#0x20]
        0x00019190:    b148        H.      CBZ      r0,0x191a6 ; am_hal_card_pwrctrl_sleep + 218
        0x00019192:    bf00        ..      NOP      
        0x00019194:    f04f0a01    O...    MOV      r10,#1
        0x00019198:    f884b008    ....    STRB     r11,[r4,#8]
        0x0001919c:    f1ba0f00    ....    CMP      r10,#0
        0x000191a0:    f04080e0    @...    BNE.W    0x19364 ; am_hal_card_pwrctrl_sleep + 664
        0x000191a4:    e00a        ..      B        0x191bc ; am_hal_card_pwrctrl_sleep + 240
        0x000191a6:    7a20         z      LDRB     r0,[r4,#8]
        0x000191a8:    2800        .(      CMP      r0,#0
        0x000191aa:    bf14        ..      ITE      NE
        0x000191ac:    7067        gp      STRBNE   r7,[r4,#1]
        0x000191ae:    f8849001    ....    STRBEQ   r9,[r4,#1]
        0x000191b2:    f89d0020    .. .    LDRB     r0,[sp,#0x20]
        0x000191b6:    2800        .(      CMP      r0,#0
        0x000191b8:    d0ee        ..      BEQ      0x19198 ; am_hal_card_pwrctrl_sleep + 204
        0x000191ba:    e7eb        ..      B        0x19194 ; am_hal_card_pwrctrl_sleep + 200
        0x000191bc:    2000        .       MOVS     r0,#0
        0x000191be:    f8d45270    ..pR    LDR      r5,[r4,#0x270]
        0x000191c2:    9000        ..      STR      r0,[sp,#0]
        0x000191c4:    9001        ..      STR      r0,[sp,#4]
        0x000191c6:    9002        ..      STR      r0,[sp,#8]
        0x000191c8:    9003        ..      STR      r0,[sp,#0xc]
        0x000191ca:    9005        ..      STR      r0,[sp,#0x14]
        0x000191cc:    9004        ..      STR      r0,[sp,#0x10]
        0x000191ce:    9006        ..      STR      r0,[sp,#0x18]
        0x000191d0:    9007        ..      STR      r0,[sp,#0x1c]
        0x000191d2:    9008        ..      STR      r0,[sp,#0x20]
        0x000191d4:    f88d9000    ....    STRB     r9,[sp,#0]
        0x000191d8:    7a20         z      LDRB     r0,[r4,#8]
        0x000191da:    f88d800c    ....    STRB     r8,[sp,#0xc]
        0x000191de:    0400        ..      LSLS     r0,r0,#16
        0x000191e0:    f4404000    @..@    ORR      r0,r0,#0x8000
        0x000191e4:    9001        ..      STR      r0,[sp,#4]
        0x000191e6:    201d        .       MOVS     r0,#0x1d
        0x000191e8:    9002        ..      STR      r0,[sp,#8]
        0x000191ea:    6e29        )n      LDR      r1,[r5,#0x60]
        0x000191ec:    6828        (h      LDR      r0,[r5,#0]
        0x000191ee:    2200        ."      MOVS     r2,#0
        0x000191f0:    68cb        .h      LDR      r3,[r1,#0xc]
        0x000191f2:    4669        iF      MOV      r1,sp
        0x000191f4:    4798        .G      BLX      r3
        0x000191f6:    2800        .(      CMP      r0,#0
        0x000191f8:    d17e        ~.      BNE      0x192f8 ; am_hal_card_pwrctrl_sleep + 556
        0x000191fa:    e002        ..      B        0x19202 ; am_hal_card_pwrctrl_sleep + 310
        0x000191fc:    e021        !.      B        0x19242 ; am_hal_card_pwrctrl_sleep + 374
        0x000191fe:    e038        8.      B        0x19272 ; am_hal_card_pwrctrl_sleep + 422
        0x00019200:    e03b        ;.      B        0x1927a ; am_hal_card_pwrctrl_sleep + 430
        0x00019202:    f89d0020    .. .    LDRB     r0,[sp,#0x20]
        0x00019206:    2800        .(      CMP      r0,#0
        0x00019208:    bf04        ..      ITT      EQ
        0x0001920a:    200c        .       MOVEQ    r0,#0xc
        0x0001920c:    7060        `p      STRBEQ   r0,[r4,#1]
        0x0001920e:    6e29        )n      LDR      r1,[r5,#0x60]
        0x00019210:    6828        (h      LDR      r0,[r5,#0]
        0x00019212:    6a8a        .j      LDR      r2,[r1,#0x28]
        0x00019214:    2114        .!      MOVS     r1,#0x14
        0x00019216:    4790        .G      BLX      r2
        0x00019218:    2800        .(      CMP      r0,#0
        0x0001921a:    d16d        m.      BNE      0x192f8 ; am_hal_card_pwrctrl_sleep + 556
        0x0001921c:    f8d41260    ..`.    LDR      r1,[r4,#0x260]
        0x00019220:    2900        .)      CMP      r1,#0
        0x00019222:    bf1c        ..      ITT      NE
        0x00019224:    2001        .       MOVNE    r0,#1
        0x00019226:    4788        .G      BLXNE    r1
        0x00019228:    200e        .       MOVS     r0,#0xe
        0x0001922a:    7060        `p      STRB     r0,[r4,#1]
        0x0001922c:    6e31        1n      LDR      r1,[r6,#0x60]
        0x0001922e:    6830        0h      LDR      r0,[r6,#0]
        0x00019230:    6849        Ih      LDR      r1,[r1,#4]
        0x00019232:    4788        .G      BLX      r1
        0x00019234:    2800        .(      CMP      r0,#0
        0x00019236:    bf1c        ..      ITT      NE
        0x00019238:    b009        ..      ADDNE    sp,sp,#0x24
        0x0001923a:    e8bd8ff0    ....    POPNE    {r4-r11,pc}
        0x0001923e:    e0aa        ..      B        0x19396 ; am_hal_card_pwrctrl_sleep + 714
        0x00019240:    e026        &.      B        0x19290 ; am_hal_card_pwrctrl_sleep + 452
        0x00019242:    f8d41230    ..0.    LDR      r1,[r4,#0x230]
        0x00019246:    4620         F      MOV      r0,r4
        0x00019248:    b199        ..      CBZ      r1,0x19272 ; am_hal_card_pwrctrl_sleep + 422
        0x0001924a:    f44f7180    O..q    MOV      r1,#0x100
        0x0001924e:    f44f72fa    O..r    MOV      r2,#0x1f4
        0x00019252:    f7fffea3    ....    BL       am_hal_card_mode_switch ; 0x18f9c
        0x00019256:    2800        .(      CMP      r0,#0
        0x00019258:    bf1c        ..      ITT      NE
        0x0001925a:    b009        ..      ADDNE    sp,sp,#0x24
        0x0001925c:    e8bd8ff0    ....    POPNE    {r4-r11,pc}
        0x00019260:    f04f0a04    O...    MOV      r10,#4
        0x00019264:    f8d40270    ..p.    LDR      r0,[r4,#0x270]
        0x00019268:    b138        8.      CBZ      r0,0x1927a ; am_hal_card_pwrctrl_sleep + 430
        0x0001926a:    f894022d    ..-.    LDRB     r0,[r4,#0x22d]
        0x0001926e:    2806        .(      CMP      r0,#6
        0x00019270:    d207        ..      BCS      0x19282 ; am_hal_card_pwrctrl_sleep + 438
        0x00019272:    b009        ..      ADD      sp,sp,#0x24
        0x00019274:    4628        (F      MOV      r0,r5
        0x00019276:    e8bd8ff0    ....    POP      {r4-r11,pc}
        0x0001927a:    b009        ..      ADD      sp,sp,#0x24
        0x0001927c:    4638        8F      MOV      r0,r7
        0x0001927e:    e8bd8ff0    ....    POP      {r4-r11,pc}
        0x00019282:    4948        HI      LDR      r1,[pc,#288] ; [0x193a4] = 0x3220400
        0x00019284:    4620         F      MOV      r0,r4
        0x00019286:    f8d42234    ..4"    LDR      r2,[r4,#0x234]
        0x0001928a:    f7fffe87    ....    BL       am_hal_card_mode_switch ; 0x18f9c
        0x0001928e:    b118        ..      CBZ      r0,0x19298 ; am_hal_card_pwrctrl_sleep + 460
        0x00019290:    b009        ..      ADD      sp,sp,#0x24
        0x00019292:    4640        @F      MOV      r0,r8
        0x00019294:    e8bd8ff0    ....    POP      {r4-r11,pc}
        0x00019298:    f884a22e    ....    STRB     r10,[r4,#0x22e]
        0x0001929c:    2100        .!      MOVS     r1,#0
        0x0001929e:    f894b008    ....    LDRB     r11,[r4,#8]
        0x000192a2:    7221        !r      STRB     r1,[r4,#8]
        0x000192a4:    f8d40270    ..p.    LDR      r0,[r4,#0x270]
        0x000192a8:    9100        ..      STR      r1,[sp,#0]
        0x000192aa:    9101        ..      STR      r1,[sp,#4]
        0x000192ac:    9102        ..      STR      r1,[sp,#8]
        0x000192ae:    9103        ..      STR      r1,[sp,#0xc]
        0x000192b0:    9105        ..      STR      r1,[sp,#0x14]
        0x000192b2:    468a        .F      MOV      r10,r1
        0x000192b4:    9104        ..      STR      r1,[sp,#0x10]
        0x000192b6:    9106        ..      STR      r1,[sp,#0x18]
        0x000192b8:    9107        ..      STR      r1,[sp,#0x1c]
        0x000192ba:    9108        ..      STR      r1,[sp,#0x20]
        0x000192bc:    f88d5000    ...P    STRB     r5,[sp,#0]
        0x000192c0:    7a21        !z      LDRB     r1,[r4,#8]
        0x000192c2:    0409        ..      LSLS     r1,r1,#16
        0x000192c4:    9101        ..      STR      r1,[sp,#4]
        0x000192c6:    7a21        !z      LDRB     r1,[r4,#8]
        0x000192c8:    2900        .)      CMP      r1,#0
        0x000192ca:    bf1c        ..      ITT      NE
        0x000192cc:    2115        .!      MOVNE    r1,#0x15
        0x000192ce:    9102        ..      STRNE    r1,[sp,#8]
        0x000192d0:    f8d0c000    ....    LDR      r12,[r0,#0]
        0x000192d4:    6e00        .n      LDR      r0,[r0,#0x60]
        0x000192d6:    2200        ."      MOVS     r2,#0
        0x000192d8:    4669        iF      MOV      r1,sp
        0x000192da:    68c3        .h      LDR      r3,[r0,#0xc]
        0x000192dc:    4660        `F      MOV      r0,r12
        0x000192de:    4798        .G      BLX      r3
        0x000192e0:    f89d0020    .. .    LDRB     r0,[sp,#0x20]
        0x000192e4:    b148        H.      CBZ      r0,0x192fa ; am_hal_card_pwrctrl_sleep + 558
        0x000192e6:    bf00        ..      NOP      
        0x000192e8:    f04f0a01    O...    MOV      r10,#1
        0x000192ec:    f884b008    ....    STRB     r11,[r4,#8]
        0x000192f0:    f1ba0f00    ....    CMP      r10,#0
        0x000192f4:    d136        6.      BNE      0x19364 ; am_hal_card_pwrctrl_sleep + 664
        0x000192f6:    e00b        ..      B        0x19310 ; am_hal_card_pwrctrl_sleep + 580
        0x000192f8:    e034        4.      B        0x19364 ; am_hal_card_pwrctrl_sleep + 664
        0x000192fa:    7a20         z      LDRB     r0,[r4,#8]
        0x000192fc:    2800        .(      CMP      r0,#0
        0x000192fe:    bf14        ..      ITE      NE
        0x00019300:    7067        gp      STRBNE   r7,[r4,#1]
        0x00019302:    f8849001    ....    STRBEQ   r9,[r4,#1]
        0x00019306:    f89d0020    .. .    LDRB     r0,[sp,#0x20]
        0x0001930a:    2800        .(      CMP      r0,#0
        0x0001930c:    d0ee        ..      BEQ      0x192ec ; am_hal_card_pwrctrl_sleep + 544
        0x0001930e:    e7eb        ..      B        0x192e8 ; am_hal_card_pwrctrl_sleep + 540
        0x00019310:    2000        .       MOVS     r0,#0
        0x00019312:    f8d45270    ..pR    LDR      r5,[r4,#0x270]
        0x00019316:    9000        ..      STR      r0,[sp,#0]
        0x00019318:    9001        ..      STR      r0,[sp,#4]
        0x0001931a:    9002        ..      STR      r0,[sp,#8]
        0x0001931c:    9003        ..      STR      r0,[sp,#0xc]
        0x0001931e:    9005        ..      STR      r0,[sp,#0x14]
        0x00019320:    9004        ..      STR      r0,[sp,#0x10]
        0x00019322:    9006        ..      STR      r0,[sp,#0x18]
        0x00019324:    9007        ..      STR      r0,[sp,#0x1c]
        0x00019326:    9008        ..      STR      r0,[sp,#0x20]
        0x00019328:    f88d9000    ....    STRB     r9,[sp,#0]
        0x0001932c:    7a20         z      LDRB     r0,[r4,#8]
        0x0001932e:    f88d800c    ....    STRB     r8,[sp,#0xc]
        0x00019332:    0400        ..      LSLS     r0,r0,#16
        0x00019334:    f4404000    @..@    ORR      r0,r0,#0x8000
        0x00019338:    9001        ..      STR      r0,[sp,#4]
        0x0001933a:    201d        .       MOVS     r0,#0x1d
        0x0001933c:    9002        ..      STR      r0,[sp,#8]
        0x0001933e:    6e29        )n      LDR      r1,[r5,#0x60]
        0x00019340:    6828        (h      LDR      r0,[r5,#0]
        0x00019342:    2200        ."      MOVS     r2,#0
        0x00019344:    68cb        .h      LDR      r3,[r1,#0xc]
        0x00019346:    4669        iF      MOV      r1,sp
        0x00019348:    4798        .G      BLX      r3
        0x0001934a:    b958        X.      CBNZ     r0,0x19364 ; am_hal_card_pwrctrl_sleep + 664
        0x0001934c:    f89d0020    .. .    LDRB     r0,[sp,#0x20]
        0x00019350:    2800        .(      CMP      r0,#0
        0x00019352:    bf04        ..      ITT      EQ
        0x00019354:    200c        .       MOVEQ    r0,#0xc
        0x00019356:    7060        `p      STRBEQ   r0,[r4,#1]
        0x00019358:    6e29        )n      LDR      r1,[r5,#0x60]
        0x0001935a:    6828        (h      LDR      r0,[r5,#0]
        0x0001935c:    6a8a        .j      LDR      r2,[r1,#0x28]
        0x0001935e:    2114        .!      MOVS     r1,#0x14
        0x00019360:    4790        .G      BLX      r2
        0x00019362:    b118        ..      CBZ      r0,0x1936c ; am_hal_card_pwrctrl_sleep + 672
        0x00019364:    b009        ..      ADD      sp,sp,#0x24
        0x00019366:    2001        .       MOVS     r0,#1
        0x00019368:    e8bd8ff0    ....    POP      {r4-r11,pc}
        0x0001936c:    6e31        1n      LDR      r1,[r6,#0x60]
        0x0001936e:    6830        0h      LDR      r0,[r6,#0]
        0x00019370:    688a        .h      LDR      r2,[r1,#8]
        0x00019372:    2100        .!      MOVS     r1,#0
        0x00019374:    4790        .G      BLX      r2
        0x00019376:    2800        .(      CMP      r0,#0
        0x00019378:    bf1c        ..      ITT      NE
        0x0001937a:    b009        ..      ADDNE    sp,sp,#0x24
        0x0001937c:    e8bd8ff0    ....    POPNE    {r4-r11,pc}
        0x00019380:    e009        ..      B        0x19396 ; am_hal_card_pwrctrl_sleep + 714
        0x00019382:    6e31        1n      LDR      r1,[r6,#0x60]
        0x00019384:    6830        0h      LDR      r0,[r6,#0]
        0x00019386:    688a        .h      LDR      r2,[r1,#8]
        0x00019388:    2100        .!      MOVS     r1,#0
        0x0001938a:    4790        .G      BLX      r2
        0x0001938c:    2800        .(      CMP      r0,#0
        0x0001938e:    bf1c        ..      ITT      NE
        0x00019390:    b009        ..      ADDNE    sp,sp,#0x24
        0x00019392:    e8bd8ff0    ....    POPNE    {r4-r11,pc}
        0x00019396:    2000        .       MOVS     r0,#0
        0x00019398:    b009        ..      ADD      sp,sp,#0x24
        0x0001939a:    e8bd8ff0    ....    POP      {r4-r11,pc}
    $d
        0x0001939e:    0000        ..      DCW    0
        0x000193a0:    03220300    ..".    DCD    52560640
        0x000193a4:    03220400    ..".    DCD    52560896
    $t
    i.am_hal_card_pwrctrl_wakeup
    am_hal_card_pwrctrl_wakeup
        0x000193a8:    e92d43f0    -..C    PUSH     {r4-r9,lr}
        0x000193ac:    b089        ..      SUB      sp,sp,#0x24
        0x000193ae:    0004        ..      MOVS     r4,r0
        0x000193b0:    bf19        ..      ITTEE    NE
        0x000193b2:    f8d40270    ..p.    LDRNE    r0,[r4,#0x270]
        0x000193b6:    2800        .(      CMPNE    r0,#0
        0x000193b8:    2006        .       MOVEQ    r0,#6
        0x000193ba:    b009        ..      ADDEQ    sp,sp,#0x24
        0x000193bc:    bf08        ..      IT       EQ
        0x000193be:    e8bd83f0    ....    POPEQ    {r4-r9,pc}
        0x000193c2:    f8941264    ..d.    LDRB     r1,[r4,#0x264]
        0x000193c6:    2901        .)      CMP      r1,#1
        0x000193c8:    d07c        |.      BEQ      0x194c4 ; am_hal_card_pwrctrl_wakeup + 284
        0x000193ca:    2606        .&      MOVS     r6,#6
        0x000193cc:    2701        .'      MOVS     r7,#1
        0x000193ce:    f04f0800    O...    MOV      r8,#0
        0x000193d2:    2902        .)      CMP      r1,#2
        0x000193d4:    d041        A.      BEQ      0x1945a ; am_hal_card_pwrctrl_wakeup + 178
        0x000193d6:    2903        .)      CMP      r1,#3
        0x000193d8:    d175        u.      BNE      0x194c6 ; am_hal_card_pwrctrl_wakeup + 286
        0x000193da:    6e01        .n      LDR      r1,[r0,#0x60]
        0x000193dc:    6809        .h      LDR      r1,[r1,#0]
        0x000193de:    4788        .G      BLX      r1
        0x000193e0:    2800        .(      CMP      r0,#0
        0x000193e2:    bf1c        ..      ITT      NE
        0x000193e4:    b009        ..      ADDNE    sp,sp,#0x24
        0x000193e6:    e8bd83f0    ....    POPNE    {r4-r9,pc}
        0x000193ea:    f8948264    ..d.    LDRB     r8,[r4,#0x264]
        0x000193ee:    f8d40270    ..p.    LDR      r0,[r4,#0x270]
        0x000193f2:    f8d45260    ..`R    LDR      r5,[r4,#0x260]
        0x000193f6:    2800        .(      CMP      r0,#0
        0x000193f8:    bf02        ..      ITTT     EQ
        0x000193fa:    4630        0F      MOVEQ    r0,r6
        0x000193fc:    b009        ..      ADDEQ    sp,sp,#0x24
        0x000193fe:    e8bd83f0    ....    POPEQ    {r4-r9,pc}
        0x00019402:    7860        `x      LDRB     r0,[r4,#1]
        0x00019404:    280e        .(      CMP      r0,#0xe
        0x00019406:    d103        ..      BNE      0x19410 ; am_hal_card_pwrctrl_wakeup + 104
        0x00019408:    2d00        .-      CMP      r5,#0
        0x0001940a:    bf1c        ..      ITT      NE
        0x0001940c:    2000        .       MOVNE    r0,#0
        0x0001940e:    47a8        .G      BLXNE    r5
        0x00019410:    210f        .!      MOVS     r1,#0xf
        0x00019412:    f8c45260    ..`R    STR      r5,[r4,#0x260]
        0x00019416:    7061        ap      STRB     r1,[r4,#1]
        0x00019418:    f8848264    ..d.    STRB     r8,[r4,#0x264]
        0x0001941c:    2002        .       MOVS     r0,#2
        0x0001941e:    7020         p      STRB     r0,[r4,#0]
        0x00019420:    4620         F      MOV      r0,r4
        0x00019422:    f7fffbbb    ....    BL       am_hal_card_mmc_init ; 0x18b9c
        0x00019426:    2800        .(      CMP      r0,#0
        0x00019428:    bf1e        ..      ITTT     NE
        0x0001942a:    4638        8F      MOVNE    r0,r7
        0x0001942c:    b009        ..      ADDNE    sp,sp,#0x24
        0x0001942e:    e8bd83f0    ....    POPNE    {r4-r9,pc}
        0x00019432:    f894126e    ..n.    LDRB     r1,[r4,#0x26e]
        0x00019436:    f894026d    ..m.    LDRB     r0,[r4,#0x26d]
        0x0001943a:    e9cd0100    ....    STRD     r0,r1,[sp,#0]
        0x0001943e:    f894226c    ..l"    LDRB     r2,[r4,#0x26c]
        0x00019442:    7821        !x      LDRB     r1,[r4,#0]
        0x00019444:    4620         F      MOV      r0,r4
        0x00019446:    f8d43268    ..h2    LDR      r3,[r4,#0x268]
        0x0001944a:    f7fff963    ..c.    BL       am_hal_card_cfg_set ; 0x18714
        0x0001944e:    2800        .(      CMP      r0,#0
        0x00019450:    bf1c        ..      ITT      NE
        0x00019452:    b009        ..      ADDNE    sp,sp,#0x24
        0x00019454:    e8bd83f0    ....    POPNE    {r4-r9,pc}
        0x00019458:    e083        ..      B        0x19562 ; am_hal_card_pwrctrl_wakeup + 442
        0x0001945a:    6803        .h      LDR      r3,[r0,#0]
        0x0001945c:    6e00        .n      LDR      r0,[r0,#0x60]
        0x0001945e:    2101        .!      MOVS     r1,#1
        0x00019460:    6882        .h      LDR      r2,[r0,#8]
        0x00019462:    4618        .F      MOV      r0,r3
        0x00019464:    4790        .G      BLX      r2
        0x00019466:    2800        .(      CMP      r0,#0
        0x00019468:    bf1c        ..      ITT      NE
        0x0001946a:    b009        ..      ADDNE    sp,sp,#0x24
        0x0001946c:    e8bd83f0    ....    POPNE    {r4-r9,pc}
        0x00019470:    f8d45270    ..pR    LDR      r5,[r4,#0x270]
        0x00019474:    f8cd8000    ....    STR      r8,[sp,#0]
        0x00019478:    f8cd8004    ....    STR      r8,[sp,#4]
        0x0001947c:    f8cd8008    ....    STR      r8,[sp,#8]
        0x00019480:    f8cd800c    ....    STR      r8,[sp,#0xc]
        0x00019484:    f8cd8014    ....    STR      r8,[sp,#0x14]
        0x00019488:    f04f0905    O...    MOV      r9,#5
        0x0001948c:    f8cd8010    ....    STR      r8,[sp,#0x10]
        0x00019490:    f8cd8018    ....    STR      r8,[sp,#0x18]
        0x00019494:    f8cd801c    ....    STR      r8,[sp,#0x1c]
        0x00019498:    f8cd8020    .. .    STR      r8,[sp,#0x20]
        0x0001949c:    f88d9000    ....    STRB     r9,[sp,#0]
        0x000194a0:    7a20         z      LDRB     r0,[r4,#8]
        0x000194a2:    f88d700c    ...p    STRB     r7,[sp,#0xc]
        0x000194a6:    0400        ..      LSLS     r0,r0,#16
        0x000194a8:    9001        ..      STR      r0,[sp,#4]
        0x000194aa:    201d        .       MOVS     r0,#0x1d
        0x000194ac:    9002        ..      STR      r0,[sp,#8]
        0x000194ae:    6e29        )n      LDR      r1,[r5,#0x60]
        0x000194b0:    6828        (h      LDR      r0,[r5,#0]
        0x000194b2:    2200        ."      MOVS     r2,#0
        0x000194b4:    68cb        .h      LDR      r3,[r1,#0xc]
        0x000194b6:    4669        iF      MOV      r1,sp
        0x000194b8:    4798        .G      BLX      r3
        0x000194ba:    bbc0        ..      CBNZ     r0,0x1952e ; am_hal_card_pwrctrl_wakeup + 390
        0x000194bc:    f89d0020    .. .    LDRB     r0,[sp,#0x20]
        0x000194c0:    2800        .(      CMP      r0,#0
        0x000194c2:    e001        ..      B        0x194c8 ; am_hal_card_pwrctrl_wakeup + 288
        0x000194c4:    e042        B.      B        0x1954c ; am_hal_card_pwrctrl_wakeup + 420
        0x000194c6:    e04c        L.      B        0x19562 ; am_hal_card_pwrctrl_wakeup + 442
        0x000194c8:    bf08        ..      IT       EQ
        0x000194ca:    f8849001    ....    STRBEQ   r9,[r4,#1]
        0x000194ce:    6e29        )n      LDR      r1,[r5,#0x60]
        0x000194d0:    6828        (h      LDR      r0,[r5,#0]
        0x000194d2:    6a8a        .j      LDR      r2,[r1,#0x28]
        0x000194d4:    2114        .!      MOVS     r1,#0x14
        0x000194d6:    4790        .G      BLX      r2
        0x000194d8:    bb48        H.      CBNZ     r0,0x1952e ; am_hal_card_pwrctrl_wakeup + 390
        0x000194da:    f8d40270    ..p.    LDR      r0,[r4,#0x270]
        0x000194de:    f8cd8000    ....    STR      r8,[sp,#0]
        0x000194e2:    f8cd8004    ....    STR      r8,[sp,#4]
        0x000194e6:    f8cd8008    ....    STR      r8,[sp,#8]
        0x000194ea:    f8cd800c    ....    STR      r8,[sp,#0xc]
        0x000194ee:    f8cd8014    ....    STR      r8,[sp,#0x14]
        0x000194f2:    2107        .!      MOVS     r1,#7
        0x000194f4:    f8cd8010    ....    STR      r8,[sp,#0x10]
        0x000194f8:    f8cd8018    ....    STR      r8,[sp,#0x18]
        0x000194fc:    f8cd801c    ....    STR      r8,[sp,#0x1c]
        0x00019500:    f8cd8020    .. .    STR      r8,[sp,#0x20]
        0x00019504:    f88d1000    ....    STRB     r1,[sp,#0]
        0x00019508:    7a21        !z      LDRB     r1,[r4,#8]
        0x0001950a:    0409        ..      LSLS     r1,r1,#16
        0x0001950c:    9101        ..      STR      r1,[sp,#4]
        0x0001950e:    7a21        !z      LDRB     r1,[r4,#8]
        0x00019510:    2900        .)      CMP      r1,#0
        0x00019512:    bf1c        ..      ITT      NE
        0x00019514:    2115        .!      MOVNE    r1,#0x15
        0x00019516:    9102        ..      STRNE    r1,[sp,#8]
        0x00019518:    6803        .h      LDR      r3,[r0,#0]
        0x0001951a:    6e00        .n      LDR      r0,[r0,#0x60]
        0x0001951c:    2200        ."      MOVS     r2,#0
        0x0001951e:    4669        iF      MOV      r1,sp
        0x00019520:    f8d0c00c    ....    LDR      r12,[r0,#0xc]
        0x00019524:    4618        .F      MOV      r0,r3
        0x00019526:    47e0        .G      BLX      r12
        0x00019528:    f89d0020    .. .    LDRB     r0,[sp,#0x20]
        0x0001952c:    b118        ..      CBZ      r0,0x19536 ; am_hal_card_pwrctrl_wakeup + 398
        0x0001952e:    b009        ..      ADD      sp,sp,#0x24
        0x00019530:    2001        .       MOVS     r0,#1
        0x00019532:    e8bd83f0    ....    POP      {r4-r9,pc}
        0x00019536:    7a20         z      LDRB     r0,[r4,#8]
        0x00019538:    2800        .(      CMP      r0,#0
        0x0001953a:    bf14        ..      ITE      NE
        0x0001953c:    7066        fp      STRBNE   r6,[r4,#1]
        0x0001953e:    f8849001    ....    STRBEQ   r9,[r4,#1]
        0x00019542:    f89d0020    .. .    LDRB     r0,[sp,#0x20]
        0x00019546:    2800        .(      CMP      r0,#0
        0x00019548:    d1f1        ..      BNE      0x1952e ; am_hal_card_pwrctrl_wakeup + 390
        0x0001954a:    e00a        ..      B        0x19562 ; am_hal_card_pwrctrl_wakeup + 442
        0x0001954c:    6802        .h      LDR      r2,[r0,#0]
        0x0001954e:    6e00        .n      LDR      r0,[r0,#0x60]
        0x00019550:    2101        .!      MOVS     r1,#1
        0x00019552:    6883        .h      LDR      r3,[r0,#8]
        0x00019554:    4610        .F      MOV      r0,r2
        0x00019556:    4798        .G      BLX      r3
        0x00019558:    2800        .(      CMP      r0,#0
        0x0001955a:    bf1c        ..      ITT      NE
        0x0001955c:    b009        ..      ADDNE    sp,sp,#0x24
        0x0001955e:    e8bd83f0    ....    POPNE    {r4-r9,pc}
        0x00019562:    2000        .       MOVS     r0,#0
        0x00019564:    b009        ..      ADD      sp,sp,#0x24
        0x00019566:    e8bd83f0    ....    POP      {r4-r9,pc}
    i.am_hal_card_register_evt_callback
    am_hal_card_register_evt_callback
        0x0001956a:    2800        .(      CMP      r0,#0
        0x0001956c:    bf1b        ..      ITTET    NE
        0x0001956e:    f8d00270    ..p.    LDRNE    r0,[r0,#0x270]
        0x00019572:    2800        .(      CMPNE    r0,#0
        0x00019574:    2006        .       MOVEQ    r0,#6
        0x00019576:    6641        Af      STRNE    r1,[r0,#0x64]
        0x00019578:    bf18        ..      IT       NE
        0x0001957a:    2000        .       MOVNE    r0,#0
        0x0001957c:    4770        pG      BX       lr
        0x0001957e:    0000        ..      MOVS     r0,r0
    i.am_hal_card_set_speed
    am_hal_card_set_speed
        0x00019580:    b5f0        ..      PUSH     {r4-r7,lr}
        0x00019582:    b093        ..      SUB      sp,sp,#0x4c
        0x00019584:    460f        .F      MOV      r7,r1
        0x00019586:    0004        ..      MOVS     r4,r0
        0x00019588:    f04f0501    O...    MOV      r5,#1
        0x0001958c:    bf19        ..      ITTEE    NE
        0x0001958e:    f8d46270    ..pb    LDRNE    r6,[r4,#0x270]
        0x00019592:    2e00        ..      CMPNE    r6,#0
        0x00019594:    2006        .       MOVEQ    r0,#6
        0x00019596:    b013        ..      ADDEQ    sp,sp,#0x4c
        0x00019598:    bf08        ..      IT       EQ
        0x0001959a:    bdf0        ..      POPEQ    {r4-r7,pc}
        0x0001959c:    f894026e    ..n.    LDRB     r0,[r4,#0x26e]
        0x000195a0:    2803        .(      CMP      r0,#3
        0x000195a2:    d106        ..      BNE      0x195b2 ; am_hal_card_set_speed + 50
        0x000195a4:    4834        4H      LDR      r0,[pc,#208] ; [0x19678] = 0x2dc6c00
        0x000195a6:    4287        .B      CMP      r7,r0
        0x000195a8:    d903        ..      BLS      0x195b2 ; am_hal_card_set_speed + 50
        0x000195aa:    0040        @.      LSLS     r0,r0,#1
        0x000195ac:    4287        .B      CMP      r7,r0
        0x000195ae:    bf98        ..      IT       LS
        0x000195b0:    2502        .%      MOVLS    r5,#2
        0x000195b2:    f894022c    ..,.    LDRB     r0,[r4,#0x22c]
        0x000195b6:    2804        .(      CMP      r0,#4
        0x000195b8:    bf24        $.      ITT      CS
        0x000195ba:    4830        0H      LDRCS    r0,[pc,#192] ; [0x1967c] = 0x18cba80
        0x000195bc:    4287        .B      CMPCS    r7,r0
        0x000195be:    d34f        O.      BCC      0x19660 ; am_hal_card_set_speed + 224
        0x000195c0:    2201        ."      MOVS     r2,#1
        0x000195c2:    21b9        .!      MOVS     r1,#0xb9
        0x000195c4:    f104002c    ..,.    ADD      r0,r4,#0x2c
        0x000195c8:    f001fe56    ..V.    BL       am_hal_unstuff_bytes ; 0x1b278
        0x000195cc:    42a8        .B      CMP      r0,r5
        0x000195ce:    d047        G.      BEQ      0x19660 ; am_hal_card_set_speed + 224
        0x000195d0:    482b        +H      LDR      r0,[pc,#172] ; [0x19680] = 0x3b90000
        0x000195d2:    f44f72fa    O..r    MOV      r2,#0x1f4
        0x000195d6:    ea402105    @..!    ORR      r1,r0,r5,LSL #8
        0x000195da:    4620         F      MOV      r0,r4
        0x000195dc:    f7fffcde    ....    BL       am_hal_card_mode_switch ; 0x18f9c
        0x000195e0:    2800        .(      CMP      r0,#0
        0x000195e2:    bf1c        ..      ITT      NE
        0x000195e4:    b013        ..      ADDNE    sp,sp,#0x4c
        0x000195e6:    bdf0        ..      POPNE    {r4-r7,pc}
        0x000195e8:    2100        .!      MOVS     r1,#0
        0x000195ea:    f8d40270    ..p.    LDR      r0,[r4,#0x270]
        0x000195ee:    9108        ..      STR      r1,[sp,#0x20]
        0x000195f0:    9109        ..      STR      r1,[sp,#0x24]
        0x000195f2:    910a        ..      STR      r1,[sp,#0x28]
        0x000195f4:    910b        ..      STR      r1,[sp,#0x2c]
        0x000195f6:    910d        ..      STR      r1,[sp,#0x34]
        0x000195f8:    910c        ..      STR      r1,[sp,#0x30]
        0x000195fa:    910e        ..      STR      r1,[sp,#0x38]
        0x000195fc:    910f        ..      STR      r1,[sp,#0x3c]
        0x000195fe:    9110        ..      STR      r1,[sp,#0x40]
        0x00019600:    9103        ..      STR      r1,[sp,#0xc]
        0x00019602:    2208        ."      MOVS     r2,#8
        0x00019604:    9104        ..      STR      r1,[sp,#0x10]
        0x00019606:    9105        ..      STR      r1,[sp,#0x14]
        0x00019608:    9106        ..      STR      r1,[sp,#0x18]
        0x0001960a:    9107        ..      STR      r1,[sp,#0x1c]
        0x0001960c:    f88d2020    ..      STRB     r2,[sp,#0x20]
        0x00019610:    7a22        "z      LDRB     r2,[r4,#8]
        0x00019612:    f88d100c    ....    STRB     r1,[sp,#0xc]
        0x00019616:    0412        ..      LSLS     r2,r2,#16
        0x00019618:    9209        ..      STR      r2,[sp,#0x24]
        0x0001961a:    2215        ."      MOVS     r2,#0x15
        0x0001961c:    920a        ..      STR      r2,[sp,#0x28]
        0x0001961e:    f104022c    ..,.    ADD      r2,r4,#0x2c
        0x00019622:    9204        ..      STR      r2,[sp,#0x10]
        0x00019624:    2201        ."      MOVS     r2,#1
        0x00019626:    9206        ..      STR      r2,[sp,#0x18]
        0x00019628:    0252        R.      LSLS     r2,r2,#9
        0x0001962a:    9205        ..      STR      r2,[sp,#0x14]
        0x0001962c:    6803        .h      LDR      r3,[r0,#0]
        0x0001962e:    6e00        .n      LDR      r0,[r0,#0x60]
        0x00019630:    aa03        ..      ADD      r2,sp,#0xc
        0x00019632:    a908        ..      ADD      r1,sp,#0x20
        0x00019634:    f8d0c00c    ....    LDR      r12,[r0,#0xc]
        0x00019638:    4618        .F      MOV      r0,r3
        0x0001963a:    47e0        .G      BLX      r12
        0x0001963c:    f89d0040    ..@.    LDRB     r0,[sp,#0x40]
        0x00019640:    b9b8        ..      CBNZ     r0,0x19672 ; am_hal_card_set_speed + 242
        0x00019642:    6820         h      LDR      r0,[r4,#0]
        0x00019644:    f4402180    @..!    ORR      r1,r0,#0x40000
        0x00019648:    6021        !`      STR      r1,[r4,#0]
        0x0001964a:    f89d0040    ..@.    LDRB     r0,[sp,#0x40]
        0x0001964e:    b980        ..      CBNZ     r0,0x19672 ; am_hal_card_set_speed + 242
        0x00019650:    2201        ."      MOVS     r2,#1
        0x00019652:    21b9        .!      MOVS     r1,#0xb9
        0x00019654:    f104002c    ..,.    ADD      r0,r4,#0x2c
        0x00019658:    f001fe0e    ....    BL       am_hal_unstuff_bytes ; 0x1b278
        0x0001965c:    42a8        .B      CMP      r0,r5
        0x0001965e:    d108        ..      BNE      0x19672 ; am_hal_card_set_speed + 242
        0x00019660:    6e31        1n      LDR      r1,[r6,#0x60]
        0x00019662:    6830        0h      LDR      r0,[r6,#0]
        0x00019664:    698a        .i      LDR      r2,[r1,#0x18]
        0x00019666:    4639        9F      MOV      r1,r7
        0x00019668:    4790        .G      BLX      r2
        0x0001966a:    2800        .(      CMP      r0,#0
        0x0001966c:    bf04        ..      ITT      EQ
        0x0001966e:    b013        ..      ADDEQ    sp,sp,#0x4c
        0x00019670:    bdf0        ..      POPEQ    {r4-r7,pc}
        0x00019672:    2001        .       MOVS     r0,#1
        0x00019674:    b013        ..      ADD      sp,sp,#0x4c
        0x00019676:    bdf0        ..      POP      {r4-r7,pc}
    $d
        0x00019678:    02dc6c00    .l..    DCD    48000000
        0x0001967c:    018cba80    ....    DCD    26000000
        0x00019680:    03b90000    ....    DCD    62455808
    $t
    i.am_hal_daxi_config
    am_hal_daxi_config
        0x00019684:    b570        p.      PUSH     {r4-r6,lr}
        0x00019686:    b082        ..      SUB      sp,sp,#8
        0x00019688:    4605        .F      MOV      r5,r0
        0x0001968a:    f7fefe67    ..g.    BL       am_hal_interrupt_master_disable ; 0x1835c
        0x0001968e:    9000        ..      STR      r0,[sp,#0]
        0x00019690:    f7fefe64    ..d.    BL       am_hal_interrupt_master_disable ; 0x1835c
        0x00019694:    f04f4490    O..D    MOV      r4,#0x48000000
        0x00019698:    9001        ..      STR      r0,[sp,#4]
        0x0001969a:    6d20         m      LDR      r0,[r4,#0x50]
        0x0001969c:    4e1d        .N      LDR      r6,[pc,#116] ; [0x19714] = 0x47ff0000
        0x0001969e:    f0100f04    ....    TST      r0,#4
        0x000196a2:    d10b        ..      BNE      0x196bc ; am_hal_daxi_config + 56
        0x000196a4:    f3bf8f4f    ..O.    DSB      
        0x000196a8:    6d60        `m      LDR      r0,[r4,#0x54]
        0x000196aa:    f0400001    @...    ORR      r0,r0,#1
        0x000196ae:    6560        `e      STR      r0,[r4,#0x54]
        0x000196b0:    6830        0h      LDR      r0,[r6,#0]
        0x000196b2:    6d60        `m      LDR      r0,[r4,#0x54]
        0x000196b4:    f0400002    @...    ORR      r0,r0,#2
        0x000196b8:    6560        `e      STR      r0,[r4,#0x54]
        0x000196ba:    6830        0h      LDR      r0,[r6,#0]
        0x000196bc:    6d60        `m      LDR      r0,[r4,#0x54]
        0x000196be:    f0100f04    ....    TST      r0,#4
        0x000196c2:    d0fb        ..      BEQ      0x196bc ; am_hal_daxi_config + 56
        0x000196c4:    9801        ..      LDR      r0,[sp,#4]
        0x000196c6:    f7fefe4d    ..M.    BL       am_hal_interrupt_master_set ; 0x18364
        0x000196ca:    2d00        .-      CMP      r5,#0
        0x000196cc:    bf04        ..      ITT      EQ
        0x000196ce:    2006        .       MOVEQ    r0,#6
        0x000196d0:    6520         e      STREQ    r0,[r4,#0x50]
        0x000196d2:    d018        ..      BEQ      0x19706 ; am_hal_daxi_config + 130
        0x000196d4:    7928        (y      LDRB     r0,[r5,#4]
        0x000196d6:    7869        ix      LDRB     r1,[r5,#1]
        0x000196d8:    2202        ."      MOVS     r2,#2
        0x000196da:    f0000001    ....    AND      r0,r0,#1
        0x000196de:    ea020141    ..A.    AND      r1,r2,r1,LSL #1
        0x000196e2:    4308        .C      ORRS     r0,r0,r1
        0x000196e4:    78e9        .x      LDRB     r1,[r5,#3]
        0x000196e6:    f44f6270    O.pb    MOV      r2,#0xf00
        0x000196ea:    ea022101    ...!    AND      r1,r2,r1,LSL #8
        0x000196ee:    4308        .C      ORRS     r0,r0,r1
        0x000196f0:    78a9        .x      LDRB     r1,[r5,#2]
        0x000196f2:    f44f12f8    O...    MOV      r2,#0x1f0000
        0x000196f6:    ea024101    ...A    AND      r1,r2,r1,LSL #16
        0x000196fa:    4308        .C      ORRS     r0,r0,r1
        0x000196fc:    6520         e      STR      r0,[r4,#0x50]
        0x000196fe:    4629        )F      MOV      r1,r5
        0x00019700:    4805        .H      LDR      r0,[pc,#20] ; [0x19718] = 0x100001d0
        0x00019702:    f7fefec8    ....    BL       __ARM_common_memcpy4_5 ; 0x18496
        0x00019706:    6830        0h      LDR      r0,[r6,#0]
        0x00019708:    9800        ..      LDR      r0,[sp,#0]
        0x0001970a:    f7fefe2b    ..+.    BL       am_hal_interrupt_master_set ; 0x18364
        0x0001970e:    b002        ..      ADD      sp,sp,#8
        0x00019710:    2000        .       MOVS     r0,#0
        0x00019712:    bd70        p.      POP      {r4-r6,pc}
    $d
        0x00019714:    47ff0000    ...G    DCD    1207894016
        0x00019718:    100001d0    ....    DCD    268435920
    $t
    i.am_hal_daxi_control
    am_hal_daxi_control
        0x0001971c:    b538        8.      PUSH     {r3-r5,lr}
        0x0001971e:    4d1d        .M      LDR      r5,[pc,#116] ; [0x19794] = 0x47ff0000
        0x00019720:    f04f4490    O..D    MOV      r4,#0x48000000
        0x00019724:    b348        H.      CBZ      r0,0x1977a ; am_hal_daxi_control + 94
        0x00019726:    2801        .(      CMP      r0,#1
        0x00019728:    d00c        ..      BEQ      0x19744 ; am_hal_daxi_control + 40
        0x0001972a:    2802        .(      CMP      r0,#2
        0x0001972c:    bf08        ..      IT       EQ
        0x0001972e:    2000        .       MOVEQ    r0,#0
        0x00019730:    d004        ..      BEQ      0x1973c ; am_hal_daxi_control + 32
        0x00019732:    2803        .(      CMP      r0,#3
        0x00019734:    bf16        ..      ITET     NE
        0x00019736:    2006        .       MOVNE    r0,#6
        0x00019738:    4817        .H      LDREQ    r0,[pc,#92] ; [0x19798] = 0x100001d0
        0x0001973a:    bd38        8.      POPNE    {r3-r5,pc}
        0x0001973c:    f7ffffa2    ....    BL       am_hal_daxi_config ; 0x19684
        0x00019740:    2000        .       MOVS     r0,#0
        0x00019742:    bd38        8.      POP      {r3-r5,pc}
        0x00019744:    f7fefe0a    ....    BL       am_hal_interrupt_master_disable ; 0x1835c
        0x00019748:    9000        ..      STR      r0,[sp,#0]
        0x0001974a:    6d20         m      LDR      r0,[r4,#0x50]
        0x0001974c:    f0100f04    ....    TST      r0,#4
        0x00019750:    d10b        ..      BNE      0x1976a ; am_hal_daxi_control + 78
        0x00019752:    f3bf8f4f    ..O.    DSB      
        0x00019756:    6d60        `m      LDR      r0,[r4,#0x54]
        0x00019758:    f0400001    @...    ORR      r0,r0,#1
        0x0001975c:    6560        `e      STR      r0,[r4,#0x54]
        0x0001975e:    6828        (h      LDR      r0,[r5,#0]
        0x00019760:    6d60        `m      LDR      r0,[r4,#0x54]
        0x00019762:    f0400002    @...    ORR      r0,r0,#2
        0x00019766:    6560        `e      STR      r0,[r4,#0x54]
        0x00019768:    6828        (h      LDR      r0,[r5,#0]
        0x0001976a:    6d60        `m      LDR      r0,[r4,#0x54]
        0x0001976c:    f0100f04    ....    TST      r0,#4
        0x00019770:    d0fb        ..      BEQ      0x1976a ; am_hal_daxi_control + 78
        0x00019772:    9800        ..      LDR      r0,[sp,#0]
        0x00019774:    f7fefdf6    ....    BL       am_hal_interrupt_master_set ; 0x18364
        0x00019778:    e7e2        ..      B        0x19740 ; am_hal_daxi_control + 36
        0x0001977a:    6d20         m      LDR      r0,[r4,#0x50]
        0x0001977c:    f0100f04    ....    TST      r0,#4
        0x00019780:    d1de        ..      BNE      0x19740 ; am_hal_daxi_control + 36
        0x00019782:    f3bf8f4f    ..O.    DSB      
        0x00019786:    6d60        `m      LDR      r0,[r4,#0x54]
        0x00019788:    f0400002    @...    ORR      r0,r0,#2
        0x0001978c:    6560        `e      STR      r0,[r4,#0x54]
        0x0001978e:    6828        (h      LDR      r0,[r5,#0]
        0x00019790:    e7d6        ..      B        0x19740 ; am_hal_daxi_control + 36
    $d
        0x00019792:    0000        ..      DCW    0
        0x00019794:    47ff0000    ...G    DCD    1207894016
        0x00019798:    100001d0    ....    DCD    268435920
    $t
    i.am_hal_dcu_get
    am_hal_dcu_get
        0x0001979c:    e92d43f0    -..C    PUSH     {r4-r9,lr}
        0x000197a0:    4680        .F      MOV      r8,r0
        0x000197a2:    481f        .H      LDR      r0,[pc,#124] ; [0x19820] = 0x40021000
        0x000197a4:    b083        ..      SUB      sp,sp,#0xc
        0x000197a6:    6880        .h      LDR      r0,[r0,#8]
        0x000197a8:    f4101f80    ....    TST      r0,#0x100000
        0x000197ac:    d023        #.      BEQ      0x197f6 ; am_hal_dcu_get + 90
        0x000197ae:    481d        .H      LDR      r0,[pc,#116] ; [0x19824] = 0x400c0a7c
        0x000197b0:    6800        .h      LDR      r0,[r0,#0]
        0x000197b2:    f0100f01    ....    TST      r0,#1
        0x000197b6:    d01e        ..      BEQ      0x197f6 ; am_hal_dcu_get + 90
        0x000197b8:    f8df906c    ..l.    LDR      r9,[pc,#108] ; [0x19828] = 0x100001d8
        0x000197bc:    4668        hF      MOV      r0,sp
        0x000197be:    2202        ."      MOVS     r2,#2
        0x000197c0:    f8d91004    ....    LDR      r1,[r9,#4]
        0x000197c4:    f002f910    ....    BL       copy_words ; 0x1b9e8
        0x000197c8:    e9dd0100    ....    LDRD     r0,r1,[sp,#0]
        0x000197cc:    2400        .$      MOVS     r4,#0
        0x000197ce:    4627        'F      MOV      r7,r4
        0x000197d0:    2605        .&      MOVS     r6,#5
        0x000197d2:    4625        %F      MOV      r5,r4
        0x000197d4:    f8d92000    ...     LDR      r2,[r9,#0]
        0x000197d8:    f7fefde7    ....    BL       __aeabi_llsr ; 0x183aa
        0x000197dc:    2214        ."      MOVS     r2,#0x14
        0x000197de:    f04f0c01    O...    MOV      r12,#1
        0x000197e2:    bf00        ..      NOP      
        0x000197e4:    f0000307    ....    AND      r3,r0,#7
        0x000197e8:    4073        s@      EORS     r3,r3,r6
        0x000197ea:    ea840904    ....    EOR      r9,r4,r4
        0x000197ee:    ea530309    S...    ORRS     r3,r3,r9
        0x000197f2:    d109        ..      BNE      0x19808 ; am_hal_dcu_get + 108
        0x000197f4:    e003        ..      B        0x197fe ; am_hal_dcu_get + 98
        0x000197f6:    b003        ..      ADD      sp,sp,#0xc
        0x000197f8:    2007        .       MOVS     r0,#7
        0x000197fa:    e8bd83f0    ....    POP      {r4-r9,pc}
        0x000197fe:    f1c20314    ....    RSB      r3,r2,#0x14
        0x00019802:    fa0cf303    ....    LSL      r3,r12,r3
        0x00019806:    431d        .C      ORRS     r5,r5,r3
        0x00019808:    08c0        ..      LSRS     r0,r0,#3
        0x0001980a:    ea407041    @.Ap    ORR      r0,r0,r1,LSL #29
        0x0001980e:    08c9        ..      LSRS     r1,r1,#3
        0x00019810:    1e52        R.      SUBS     r2,r2,#1
        0x00019812:    d1e7        ..      BNE      0x197e4 ; am_hal_dcu_get + 72
        0x00019814:    f8c85000    ...P    STR      r5,[r8,#0]
        0x00019818:    b003        ..      ADD      sp,sp,#0xc
        0x0001981a:    4638        8F      MOV      r0,r7
        0x0001981c:    e8bd83f0    ....    POP      {r4-r9,pc}
    $d
        0x00019820:    40021000    ...@    DCD    1073876992
        0x00019824:    400c0a7c    |..@    DCD    1074530940
        0x00019828:    100001d8    ....    DCD    268435928
    $t
    i.am_hal_dcu_update
    am_hal_dcu_update
        0x0001982c:    e92d4ff0    -..O    PUSH     {r4-r11,lr}
        0x00019830:    4681        .F      MOV      r9,r0
        0x00019832:    4834        4H      LDR      r0,[pc,#208] ; [0x19904] = 0x40021000
        0x00019834:    b085        ..      SUB      sp,sp,#0x14
        0x00019836:    6880        .h      LDR      r0,[r0,#8]
        0x00019838:    f4101f80    ....    TST      r0,#0x100000
        0x0001983c:    d02a        *.      BEQ      0x19894 ; am_hal_dcu_update + 104
        0x0001983e:    f8dfa0c8    ....    LDR      r10,[pc,#200] ; [0x19908] = 0x400c0a7c
        0x00019842:    f8da0000    ....    LDR      r0,[r10,#0]
        0x00019846:    f0100f01    ....    TST      r0,#1
        0x0001984a:    d023        #.      BEQ      0x19894 ; am_hal_dcu_update + 104
        0x0001984c:    f8df80bc    ....    LDR      r8,[pc,#188] ; [0x1990c] = 0x100001d8
        0x00019850:    2700        .'      MOVS     r7,#0
        0x00019852:    084d        M.      LSRS     r5,r1,#1
        0x00019854:    f8d8b000    ....    LDR      r11,[r8,#0]
        0x00019858:    463e        >F      MOV      r6,r7
        0x0001985a:    2414        .$      MOVS     r4,#0x14
        0x0001985c:    f0150f01    ....    TST      r5,#1
        0x00019860:    d006        ..      BEQ      0x19870 ; am_hal_dcu_update + 68
        0x00019862:    465a        ZF      MOV      r2,r11
        0x00019864:    2007        .       MOVS     r0,#7
        0x00019866:    2100        .!      MOVS     r1,#0
        0x00019868:    f7fefd8c    ....    BL       __aeabi_llsl ; 0x18384
        0x0001986c:    4307        .C      ORRS     r7,r7,r0
        0x0001986e:    430e        .C      ORRS     r6,r6,r1
        0x00019870:    086d        m.      LSRS     r5,r5,#1
        0x00019872:    1e64        d.      SUBS     r4,r4,#1
        0x00019874:    f10b0b03    ....    ADD      r11,r11,#3
        0x00019878:    2c00        .,      CMP      r4,#0
        0x0001987a:    dcef        ..      BGT      0x1985c ; am_hal_dcu_update + 48
        0x0001987c:    2202        ."      MOVS     r2,#2
        0x0001987e:    a802        ..      ADD      r0,sp,#8
        0x00019880:    f8d81008    ....    LDR      r1,[r8,#8]
        0x00019884:    f002f8b0    ....    BL       copy_words ; 0x1b9e8
        0x00019888:    e9dd1002    ....    LDRD     r1,r0,[sp,#8]
        0x0001988c:    4039        9@      ANDS     r1,r1,r7
        0x0001988e:    4030        0@      ANDS     r0,r0,r6
        0x00019890:    4308        .C      ORRS     r0,r0,r1
        0x00019892:    d003        ..      BEQ      0x1989c ; am_hal_dcu_update + 112
        0x00019894:    b005        ..      ADD      sp,sp,#0x14
        0x00019896:    2007        .       MOVS     r0,#7
        0x00019898:    e8bd8ff0    ....    POP      {r4-r11,pc}
        0x0001989c:    2202        ."      MOVS     r2,#2
        0x0001989e:    4668        hF      MOV      r0,sp
        0x000198a0:    f8d81004    ....    LDR      r1,[r8,#4]
        0x000198a4:    f002f8a0    ....    BL       copy_words ; 0x1b9e8
        0x000198a8:    f1b90f00    ....    CMP      r9,#0
        0x000198ac:    d00d        ..      BEQ      0x198ca ; am_hal_dcu_update + 158
        0x000198ae:    e9dd1000    ....    LDRD     r1,r0,[sp,#0]
        0x000198b2:    ea210207    !...    BIC      r2,r1,r7
        0x000198b6:    e9d83104    ...1    LDRD     r3,r1,[r8,#0x10]
        0x000198ba:    403b        ;@      ANDS     r3,r3,r7
        0x000198bc:    43b0        .C      BICS     r0,r0,r6
        0x000198be:    4031        1@      ANDS     r1,r1,r6
        0x000198c0:    431a        .C      ORRS     r2,r2,r3
        0x000198c2:    4308        .C      ORRS     r0,r0,r1
        0x000198c4:    e9cd2000    ...     STRD     r2,r0,[sp,#0]
        0x000198c8:    e00c        ..      B        0x198e4 ; am_hal_dcu_update + 184
        0x000198ca:    e9dd0100    ....    LDRD     r0,r1,[sp,#0]
        0x000198ce:    ea210206    !...    BIC      r2,r1,r6
        0x000198d2:    e9d83106    ...1    LDRD     r3,r1,[r8,#0x18]
        0x000198d6:    43b8        .C      BICS     r0,r0,r7
        0x000198d8:    403b        ;@      ANDS     r3,r3,r7
        0x000198da:    4031        1@      ANDS     r1,r1,r6
        0x000198dc:    4318        .C      ORRS     r0,r0,r3
        0x000198de:    4311        .C      ORRS     r1,r1,r2
        0x000198e0:    e9cd0100    ....    STRD     r0,r1,[sp,#0]
        0x000198e4:    2202        ."      MOVS     r2,#2
        0x000198e6:    4669        iF      MOV      r1,sp
        0x000198e8:    f8d80004    ....    LDR      r0,[r8,#4]
        0x000198ec:    f002f87c    ..|.    BL       copy_words ; 0x1b9e8
        0x000198f0:    f8da0000    ....    LDR      r0,[r10,#0]
        0x000198f4:    f0100f01    ....    TST      r0,#1
        0x000198f8:    d0fa        ..      BEQ      0x198f0 ; am_hal_dcu_update + 196
        0x000198fa:    b005        ..      ADD      sp,sp,#0x14
        0x000198fc:    2000        .       MOVS     r0,#0
        0x000198fe:    e8bd8ff0    ....    POP      {r4-r11,pc}
    $d
        0x00019902:    0000        ..      DCW    0
        0x00019904:    40021000    ...@    DCD    1073876992
        0x00019908:    400c0a7c    |..@    DCD    1074530940
        0x0001990c:    100001d8    ....    DCD    268435928
    $t
    i.am_hal_delay_us
    am_hal_delay_us
        0x00019910:    4908        .I      LDR      r1,[pc,#32] ; [0x19934] = 0x40021000
        0x00019912:    0140        @.      LSLS     r0,r0,#5
        0x00019914:    6809        .h      LDR      r1,[r1,#0]
        0x00019916:    f3c101c1    ....    UBFX     r1,r1,#3,#2
        0x0001991a:    2902        .)      CMP      r1,#2
        0x0001991c:    bf06        ..      ITTE     EQ
        0x0001991e:    0040        @.      LSLEQ    r0,r0,#1
        0x00019920:    2115        .!      MOVEQ    r1,#0x15
        0x00019922:    210f        .!      MOVNE    r1,#0xf
        0x00019924:    4288        .B      CMP      r0,r1
        0x00019926:    bf98        ..      IT       LS
        0x00019928:    4770        pG      BXLS     lr
        0x0001992a:    1a40        @.      SUBS     r0,r0,r1
        0x0001992c:    4902        .I      LDR      r1,[pc,#8] ; [0x19938] = 0x1f1fc
        0x0001992e:    6a49        Ij      LDR      r1,[r1,#0x24]
        0x00019930:    4708        .G      BX       r1
    $d
        0x00019932:    0000        ..      DCW    0
        0x00019934:    40021000    ...@    DCD    1073876992
        0x00019938:    0001f1fc    ....    DCD    127484
    $t
    i.am_hal_delay_us_status_change
    am_hal_delay_us_status_change
        0x0001993c:    e92d47f0    -..G    PUSH     {r4-r10,lr}
        0x00019940:    f8df8048    ..H.    LDR      r8,[pc,#72] ; [0x1998c] = 0x40021000
        0x00019944:    f8df9048    ..H.    LDR      r9,[pc,#72] ; [0x19990] = 0x1f1fc
        0x00019948:    461d        .F      MOV      r5,r3
        0x0001994a:    4616        .F      MOV      r6,r2
        0x0001994c:    460f        .F      MOV      r7,r1
        0x0001994e:    4604        .F      MOV      r4,r0
        0x00019950:    6838        8h      LDR      r0,[r7,#0]
        0x00019952:    4030        0@      ANDS     r0,r0,r6
        0x00019954:    42a8        .B      CMP      r0,r5
        0x00019956:    d102        ..      BNE      0x1995e ; am_hal_delay_us_status_change + 34
        0x00019958:    2000        .       MOVS     r0,#0
        0x0001995a:    e8bd87f0    ....    POP      {r4-r10,pc}
        0x0001995e:    1e64        d.      SUBS     r4,r4,#1
        0x00019960:    d311        ..      BCC      0x19986 ; am_hal_delay_us_status_change + 74
        0x00019962:    f8d81000    ....    LDR      r1,[r8,#0]
        0x00019966:    2020                MOVS     r0,#0x20
        0x00019968:    f3c101c1    ....    UBFX     r1,r1,#3,#2
        0x0001996c:    2902        .)      CMP      r1,#2
        0x0001996e:    bf06        ..      ITTE     EQ
        0x00019970:    2040        @       MOVEQ    r0,#0x40
        0x00019972:    f04f0c15    O...    MOVEQ    r12,#0x15
        0x00019976:    f04f0c0f    O...    MOVNE    r12,#0xf
        0x0001997a:    eba0000c    ....    SUB      r0,r0,r12
        0x0001997e:    f8d91024    ..$.    LDR      r1,[r9,#0x24]
        0x00019982:    4788        .G      BLX      r1
        0x00019984:    e7e4        ..      B        0x19950 ; am_hal_delay_us_status_change + 20
        0x00019986:    2004        .       MOVS     r0,#4
        0x00019988:    e8bd87f0    ....    POP      {r4-r10,pc}
    $d
        0x0001998c:    40021000    ...@    DCD    1073876992
        0x00019990:    0001f1fc    ....    DCD    127484
    $t
    i.am_hal_delay_us_status_check
    am_hal_delay_us_status_check
        0x00019994:    e92d47f0    -..G    PUSH     {r4-r10,lr}
        0x00019998:    f8df9054    ..T.    LDR      r9,[pc,#84] ; [0x199f0] = 0x40021000
        0x0001999c:    f8dfa054    ..T.    LDR      r10,[pc,#84] ; [0x199f4] = 0x1f1fc
        0x000199a0:    f8dd8020    .. .    LDR      r8,[sp,#0x20]
        0x000199a4:    461c        .F      MOV      r4,r3
        0x000199a6:    4615        .F      MOV      r5,r2
        0x000199a8:    460e        .F      MOV      r6,r1
        0x000199aa:    4607        .F      MOV      r7,r0
        0x000199ac:    6830        0h      LDR      r0,[r6,#0]
        0x000199ae:    f1b80f00    ....    CMP      r8,#0
        0x000199b2:    ea000005    ....    AND      r0,r0,r5
        0x000199b6:    d002        ..      BEQ      0x199be ; am_hal_delay_us_status_check + 42
        0x000199b8:    42a0        .B      CMP      r0,r4
        0x000199ba:    d002        ..      BEQ      0x199c2 ; am_hal_delay_us_status_check + 46
        0x000199bc:    e004        ..      B        0x199c8 ; am_hal_delay_us_status_check + 52
        0x000199be:    42a0        .B      CMP      r0,r4
        0x000199c0:    d002        ..      BEQ      0x199c8 ; am_hal_delay_us_status_check + 52
        0x000199c2:    2000        .       MOVS     r0,#0
        0x000199c4:    e8bd87f0    ....    POP      {r4-r10,pc}
        0x000199c8:    1e7f        ..      SUBS     r7,r7,#1
        0x000199ca:    d30e        ..      BCC      0x199ea ; am_hal_delay_us_status_check + 86
        0x000199cc:    f8d91000    ....    LDR      r1,[r9,#0]
        0x000199d0:    2020                MOVS     r0,#0x20
        0x000199d2:    f3c101c1    ....    UBFX     r1,r1,#3,#2
        0x000199d6:    2902        .)      CMP      r1,#2
        0x000199d8:    bf06        ..      ITTE     EQ
        0x000199da:    2040        @       MOVEQ    r0,#0x40
        0x000199dc:    2115        .!      MOVEQ    r1,#0x15
        0x000199de:    210f        .!      MOVNE    r1,#0xf
        0x000199e0:    1a40        @.      SUBS     r0,r0,r1
        0x000199e2:    f8da1024    ..$.    LDR      r1,[r10,#0x24]
        0x000199e6:    4788        .G      BLX      r1
        0x000199e8:    e7e0        ..      B        0x199ac ; am_hal_delay_us_status_check + 24
        0x000199ea:    2004        .       MOVS     r0,#4
        0x000199ec:    e8bd87f0    ....    POP      {r4-r10,pc}
    $d
        0x000199f0:    40021000    ...@    DCD    1073876992
        0x000199f4:    0001f1fc    ....    DCD    127484
    $t
    i.am_hal_fault_status_get
    am_hal_fault_status_get
        0x000199f8:    2800        .(      CMP      r0,#0
        0x000199fa:    bf04        ..      ITT      EQ
        0x000199fc:    2006        .       MOVEQ    r0,#6
        0x000199fe:    4770        pG      BXEQ     lr
        0x00019a00:    f04f4190    O..A    MOV      r1,#0x48000000
        0x00019a04:    f8d1208c    ...     LDR      r2,[r1,#0x8c]
        0x00019a08:    f0020301    ....    AND      r3,r2,#1
        0x00019a0c:    7003        .p      STRB     r3,[r0,#0]
        0x00019a0e:    f3c20340    ..@.    UBFX     r3,r2,#1,#1
        0x00019a12:    7203        .r      STRB     r3,[r0,#8]
        0x00019a14:    f3c20280    ....    UBFX     r2,r2,#2,#1
        0x00019a18:    7402        .t      STRB     r2,[r0,#0x10]
        0x00019a1a:    f8d12084    ...     LDR      r2,[r1,#0x84]
        0x00019a1e:    60c2        .`      STR      r2,[r0,#0xc]
        0x00019a20:    6842        Bh      LDR      r2,[r0,#4]
        0x00019a22:    f8513f80    Q..?    LDR      r3,[r1,#0x80]!
        0x00019a26:    431a        .C      ORRS     r2,r2,r3
        0x00019a28:    6042        B`      STR      r2,[r0,#4]
        0x00019a2a:    6942        Bi      LDR      r2,[r0,#0x14]
        0x00019a2c:    6889        .h      LDR      r1,[r1,#8]
        0x00019a2e:    4311        .C      ORRS     r1,r1,r2
        0x00019a30:    6141        Aa      STR      r1,[r0,#0x14]
        0x00019a32:    2000        .       MOVS     r0,#0
        0x00019a34:    4770        pG      BX       lr
        0x00019a36:    0000        ..      MOVS     r0,r0
    i.am_hal_get_card_host
    am_hal_get_card_host
        0x00019a38:    2800        .(      CMP      r0,#0
        0x00019a3a:    bf1c        ..      ITT      NE
        0x00019a3c:    2000        .       MOVNE    r0,#0
        0x00019a3e:    4770        pG      BXNE     lr
        0x00019a40:    b510        ..      PUSH     {r4,lr}
        0x00019a42:    480c        .H      LDR      r0,[pc,#48] ; [0x19a74] = 0x100001c4
        0x00019a44:    6804        .h      LDR      r4,[r0,#0]
        0x00019a46:    7a60        `z      LDRB     r0,[r4,#9]
        0x00019a48:    b138        8.      CBZ      r0,0x19a5a ; am_hal_get_card_host + 34
        0x00019a4a:    2900        .)      CMP      r1,#0
        0x00019a4c:    bf04        ..      ITT      EQ
        0x00019a4e:    4620         F      MOVEQ    r0,r4
        0x00019a50:    bd10        ..      POPEQ    {r4,pc}
        0x00019a52:    6e21        !n      LDR      r1,[r4,#0x60]
        0x00019a54:    6820         h      LDR      r0,[r4,#0]
        0x00019a56:    6849        Ih      LDR      r1,[r1,#4]
        0x00019a58:    4788        .G      BLX      r1
        0x00019a5a:    6e20         n      LDR      r0,[r4,#0x60]
        0x00019a5c:    6801        .h      LDR      r1,[r0,#0]
        0x00019a5e:    4620         F      MOV      r0,r4
        0x00019a60:    4788        .G      BLX      r1
        0x00019a62:    2800        .(      CMP      r0,#0
        0x00019a64:    bf1c        ..      ITT      NE
        0x00019a66:    2000        .       MOVNE    r0,#0
        0x00019a68:    bd10        ..      POPNE    {r4,pc}
        0x00019a6a:    2001        .       MOVS     r0,#1
        0x00019a6c:    7260        `r      STRB     r0,[r4,#9]
        0x00019a6e:    4620         F      MOV      r0,r4
        0x00019a70:    bd10        ..      POP      {r4,pc}
    $d
        0x00019a72:    0000        ..      DCW    0
        0x00019a74:    100001c4    ....    DCD    268435908
    $t
    i.am_hal_gpio_pinconfig
    am_hal_gpio_pinconfig
        0x00019a78:    b403        ..      PUSH     {r0,r1}
        0x00019a7a:    4912        .I      LDR      r1,[pc,#72] ; [0x19ac4] = 0x40010000
        0x00019a7c:    2880        .(      CMP      r0,#0x80
        0x00019a7e:    bf22        ".      ITTT     CS
        0x00019a80:    2005        .       MOVCS    r0,#5
        0x00019a82:    b002        ..      ADDCS    sp,sp,#8
        0x00019a84:    4770        pG      BXCS     lr
        0x00019a86:    9a01        ..      LDR      r2,[sp,#4]
        0x00019a88:    f3c22281    ..."    UBFX     r2,r2,#10,#2
        0x00019a8c:    2a01        .*      CMP      r2,#1
        0x00019a8e:    d90e        ..      BLS      0x19aae ; am_hal_gpio_pinconfig + 54
        0x00019a90:    4b0d        .K      LDR      r3,[pc,#52] ; [0x19ac8] = 0x1f22c
        0x00019a92:    0942        B.      LSRS     r2,r0,#5
        0x00019a94:    f04f0c01    O...    MOV      r12,#1
        0x00019a98:    f8532022    S."     LDR      r2,[r3,r2,LSL #2]
        0x00019a9c:    f000031f    ....    AND      r3,r0,#0x1f
        0x00019aa0:    fa0cf303    ....    LSL      r3,r12,r3
        0x00019aa4:    421a        .B      TST      r2,r3
        0x00019aa6:    bf02        ..      ITTT     EQ
        0x00019aa8:    2007        .       MOVEQ    r0,#7
        0x00019aaa:    b002        ..      ADDEQ    sp,sp,#8
        0x00019aac:    4770        pG      BXEQ     lr
        0x00019aae:    2273        s"      MOVS     r2,#0x73
        0x00019ab0:    f8c12200    ..."    STR      r2,[r1,#0x200]
        0x00019ab4:    9a01        ..      LDR      r2,[sp,#4]
        0x00019ab6:    f8412020    A.      STR      r2,[r1,r0,LSL #2]
        0x00019aba:    2000        .       MOVS     r0,#0
        0x00019abc:    f8c10200    ....    STR      r0,[r1,#0x200]
        0x00019ac0:    b002        ..      ADD      sp,sp,#8
        0x00019ac2:    4770        pG      BX       lr
    $d
        0x00019ac4:    40010000    ...@    DCD    1073807360
        0x00019ac8:    0001f22c    ,...    DCD    127532
    $t
    i.am_hal_gpio_state_write
    am_hal_gpio_state_write
        0x00019acc:    b538        8.      PUSH     {r3-r5,lr}
        0x00019ace:    f000021f    ....    AND      r2,r0,#0x1f
        0x00019ad2:    2301        .#      MOVS     r3,#1
        0x00019ad4:    fa03f502    ....    LSL      r5,r3,r2
        0x00019ad8:    f3c01041    ..A.    UBFX     r0,r0,#5,#2
        0x00019adc:    0080        ..      LSLS     r0,r0,#2
        0x00019ade:    f1004480    ...D    ADD      r4,r0,#0x40000000
        0x00019ae2:    f5043480    ...4    ADD      r4,r4,#0x10000
        0x00019ae6:    2906        .)      CMP      r1,#6
        0x00019ae8:    d227        '.      BCS      0x19b3a ; am_hal_gpio_state_write + 110
        0x00019aea:    e8dff001    ....    TBB      [pc,r1]
    $d
        0x00019aee:    0603        ..      DCW    1539
        0x00019af0:    1b181509    ....    DCD    454563081
    $t
        0x00019af4:    f8c45234    ..4R    STR      r5,[r4,#0x234]
        0x00019af8:    e01f        ..      B        0x19b3a ; am_hal_gpio_state_write + 110
        0x00019afa:    f8c45224    ..$R    STR      r5,[r4,#0x224]
        0x00019afe:    e01c        ..      B        0x19b3a ; am_hal_gpio_state_write + 110
        0x00019b00:    f7fefc2c    ..,.    BL       am_hal_interrupt_master_disable ; 0x1835c
        0x00019b04:    9000        ..      STR      r0,[sp,#0]
        0x00019b06:    f8d40214    ....    LDR      r0,[r4,#0x214]
        0x00019b0a:    4068        h@      EORS     r0,r0,r5
        0x00019b0c:    f8c40214    ....    STR      r0,[r4,#0x214]
        0x00019b10:    9800        ..      LDR      r0,[sp,#0]
        0x00019b12:    f7fefc27    ..'.    BL       am_hal_interrupt_master_set ; 0x18364
        0x00019b16:    e010        ..      B        0x19b3a ; am_hal_gpio_state_write + 110
        0x00019b18:    f8c45264    ..dR    STR      r5,[r4,#0x264]
        0x00019b1c:    e00d        ..      B        0x19b3a ; am_hal_gpio_state_write + 110
        0x00019b1e:    f8c45254    ..TR    STR      r5,[r4,#0x254]
        0x00019b22:    e00a        ..      B        0x19b3a ; am_hal_gpio_state_write + 110
        0x00019b24:    f7fefc1a    ....    BL       am_hal_interrupt_master_disable ; 0x1835c
        0x00019b28:    9000        ..      STR      r0,[sp,#0]
        0x00019b2a:    f8d40244    ..D.    LDR      r0,[r4,#0x244]
        0x00019b2e:    4068        h@      EORS     r0,r0,r5
        0x00019b30:    f8c40244    ..D.    STR      r0,[r4,#0x244]
        0x00019b34:    9800        ..      LDR      r0,[sp,#0]
        0x00019b36:    f7fefc15    ....    BL       am_hal_interrupt_master_set ; 0x18364
        0x00019b3a:    2000        .       MOVS     r0,#0
        0x00019b3c:    bd38        8.      POP      {r3-r5,pc}
        0x00019b3e:    0000        ..      MOVS     r0,r0
    i.am_hal_itm_enable
    am_hal_itm_enable
        0x00019b40:    480a        .H      LDR      r0,[pc,#40] ; [0x19b6c] = 0xe000edfc
        0x00019b42:    6801        .h      LDR      r1,[r0,#0]
        0x00019b44:    f0417180    A..q    ORR      r1,r1,#0x1000000
        0x00019b48:    6001        .`      STR      r1,[r0,#0]
        0x00019b4a:    6801        .h      LDR      r1,[r0,#0]
        0x00019b4c:    f0117f80    ....    TST      r1,#0x1000000
        0x00019b50:    d0fb        ..      BEQ      0x19b4a ; am_hal_itm_enable + 10
        0x00019b52:    4908        .I      LDR      r1,[pc,#32] ; [0x19b74] = 0xe0000fb0
        0x00019b54:    4806        .H      LDR      r0,[pc,#24] ; [0x19b70] = 0xc5acce55
        0x00019b56:    6008        .`      STR      r0,[r1,#0]
        0x00019b58:    4907        .I      LDR      r1,[pc,#28] ; [0x19b78] = 0xe0000e40
        0x00019b5a:    200f        .       MOVS     r0,#0xf
        0x00019b5c:    6008        .`      STR      r0,[r1,#0]
        0x00019b5e:    1748        H.      ASRS     r0,r1,#29
        0x00019b60:    4906        .I      LDR      r1,[pc,#24] ; [0x19b7c] = 0xe0000e00
        0x00019b62:    6008        .`      STR      r0,[r1,#0]
        0x00019b64:    4907        .I      LDR      r1,[pc,#28] ; [0x19b84] = 0xe0000e80
        0x00019b66:    4806        .H      LDR      r0,[pc,#24] ; [0x19b80] = 0x150511
        0x00019b68:    6008        .`      STR      r0,[r1,#0]
        0x00019b6a:    4770        pG      BX       lr
    $d
        0x00019b6c:    e000edfc    ....    DCD    3758157308
        0x00019b70:    c5acce55    U...    DCD    3316436565
        0x00019b74:    e0000fb0    ....    DCD    3758100400
        0x00019b78:    e0000e40    @...    DCD    3758100032
        0x00019b7c:    e0000e00    ....    DCD    3758099968
        0x00019b80:    00150511    ....    DCD    1377553
        0x00019b84:    e0000e80    ....    DCD    3758100096
    $t
    i.am_hal_itm_print
    am_hal_itm_print
        0x00019b88:    7802        .x      LDRB     r2,[r0,#0]
        0x00019b8a:    2100        .!      MOVS     r1,#0
        0x00019b8c:    2a00        .*      CMP      r2,#0
        0x00019b8e:    bf08        ..      IT       EQ
        0x00019b90:    4770        pG      BXEQ     lr
        0x00019b92:    1c49        I.      ADDS     r1,r1,#1
        0x00019b94:    5c42        B\      LDRB     r2,[r0,r1]
        0x00019b96:    2a00        .*      CMP      r2,#0
        0x00019b98:    d1fb        ..      BNE      0x19b92 ; am_hal_itm_print + 10
        0x00019b9a:    2900        .)      CMP      r1,#0
        0x00019b9c:    bf08        ..      IT       EQ
        0x00019b9e:    4770        pG      BXEQ     lr
        0x00019ba0:    f810cb01    ....    LDRB     r12,[r0],#1
        0x00019ba4:    f04f4260    O.`B    MOV      r2,#0xe0000000
        0x00019ba8:    6813        .h      LDR      r3,[r2,#0]
        0x00019baa:    2b00        .+      CMP      r3,#0
        0x00019bac:    d0fc        ..      BEQ      0x19ba8 ; am_hal_itm_print + 32
        0x00019bae:    f882c000    ....    STRB     r12,[r2,#0]
        0x00019bb2:    1e49        I.      SUBS     r1,r1,#1
        0x00019bb4:    d1f4        ..      BNE      0x19ba0 ; am_hal_itm_print + 24
        0x00019bb6:    4770        pG      BX       lr
    i.am_hal_mram_info_read
    am_hal_mram_info_read
        0x00019bb8:    b410        ..      PUSH     {r4}
        0x00019bba:    0004        ..      MOVS     r4,r0
        0x00019bbc:    f04f0000    O...    MOV      r0,#0
        0x00019bc0:    eb010c02    ....    ADD      r12,r1,r2
        0x00019bc4:    d012        ..      BEQ      0x19bec ; am_hal_mram_info_read + 52
        0x00019bc6:    2c01        .,      CMP      r4,#1
        0x00019bc8:    bf1e        ..      ITTT     NE
        0x00019bca:    2001        .       MOVNE    r0,#1
        0x00019bcc:    bc10        ..      POPNE    {r4}
        0x00019bce:    4770        pG      BXNE     lr
        0x00019bd0:    f5a16490    ...d    SUB      r4,r1,#0x480
        0x00019bd4:    f5b47fc0    ....    CMP      r4,#0x180
        0x00019bd8:    d205        ..      BCS      0x19be6 ; am_hal_mram_info_read + 46
        0x00019bda:    f5bc6fc0    ...o    CMP      r12,#0x600
        0x00019bde:    bf98        ..      IT       LS
        0x00019be0:    f8dfc040    ..@.    LDRLS    r12,[pc,#64] ; [0x19c24] = 0x42002000
        0x00019be4:    d90b        ..      BLS      0x19bfe ; am_hal_mram_info_read + 70
        0x00019be6:    bc10        ..      POP      {r4}
        0x00019be8:    2002        .       MOVS     r0,#2
        0x00019bea:    4770        pG      BX       lr
        0x00019bec:    f5b17f00    ....    CMP      r1,#0x200
        0x00019bf0:    d2f9        ..      BCS      0x19be6 ; am_hal_mram_info_read + 46
        0x00019bf2:    f5bc7f00    ....    CMP      r12,#0x200
        0x00019bf6:    bf98        ..      IT       LS
        0x00019bf8:    f04f4c84    O..L    MOVLS    r12,#0x42000000
        0x00019bfc:    d8f3        ..      BHI      0x19be6 ; am_hal_mram_info_read + 46
        0x00019bfe:    eb0c0181    ....    ADD      r1,r12,r1,LSL #2
        0x00019c02:    f04f0c00    O...    MOV      r12,#0
        0x00019c06:    2a00        .*      CMP      r2,#0
        0x00019c08:    bf9c        ..      ITT      LS
        0x00019c0a:    bc10        ..      POPLS    {r4}
        0x00019c0c:    4770        pG      BXLS     lr
        0x00019c0e:    bf00        ..      NOP      
        0x00019c10:    f8514b04    Q..K    LDR      r4,[r1],#4
        0x00019c14:    f10c0c01    ....    ADD      r12,r12,#1
        0x00019c18:    f8434b04    C..K    STR      r4,[r3],#4
        0x00019c1c:    4562        bE      CMP      r2,r12
        0x00019c1e:    d8f7        ..      BHI      0x19c10 ; am_hal_mram_info_read + 88
        0x00019c20:    bc10        ..      POP      {r4}
        0x00019c22:    4770        pG      BX       lr
    $d
        0x00019c24:    42002000    . .B    DCD    1107304448
    $t
    i.am_hal_pwrctrl_control
    am_hal_pwrctrl_control
        0x00019c28:    e92d41f0    -..A    PUSH     {r4-r8,lr}
        0x00019c2c:    2600        .&      MOVS     r6,#0
        0x00019c2e:    4f83        .O      LDR      r7,[pc,#524] ; [0x19e3c] = 0x40021000
        0x00019c30:    4d83        .M      LDR      r5,[pc,#524] ; [0x19e40] = 0x100001f8
        0x00019c32:    4c84        .L      LDR      r4,[pc,#528] ; [0x19e44] = 0x40020000
        0x00019c34:    46b0        .F      MOV      r8,r6
        0x00019c36:    2805        .(      CMP      r0,#5
        0x00019c38:    f08080fc    ....    BCS.W    0x19e34 ; am_hal_pwrctrl_control + 524
        0x00019c3c:    e8dff000    ....    TBB      [pc,r0]
    $d
        0x00019c40:    f1e4d603    ....    DCD    4058306051
        0x00019c44:    00f4        ..      DCW    244
    $t
        0x00019c46:    68a8        .h      LDR      r0,[r5,#8]
        0x00019c48:    f1b03fff    ...?    CMP      r0,#0xffffffff
        0x00019c4c:    d10d        ..      BNE      0x19c6a ; am_hal_pwrctrl_control + 66
        0x00019c4e:    2201        ."      MOVS     r2,#1
        0x00019c50:    4b7d        }K      LDR      r3,[pc,#500] ; [0x19e48] = 0x10000200
        0x00019c52:    f24041c4    @..A    MOV      r1,#0x4c4
        0x00019c56:    4610        .F      MOV      r0,r2
        0x00019c58:    f7ffffae    ....    BL       am_hal_mram_info_read ; 0x19bb8
        0x00019c5c:    b918        ..      CBNZ     r0,0x19c66 ; am_hal_pwrctrl_control + 62
        0x00019c5e:    68a8        .h      LDR      r0,[r5,#8]
        0x00019c60:    f1b03fff    ...?    CMP      r0,#0xffffffff
        0x00019c64:    d101        ..      BNE      0x19c6a ; am_hal_pwrctrl_control + 66
        0x00019c66:    f8c58008    ....    STR      r8,[r5,#8]
        0x00019c6a:    68a8        .h      LDR      r0,[r5,#8]
        0x00019c6c:    2803        .(      CMP      r0,#3
        0x00019c6e:    d237        7.      BCS      0x19ce0 ; am_hal_pwrctrl_control + 184
        0x00019c70:    f8d41378    ..x.    LDR      r1,[r4,#0x378]
        0x00019c74:    f02151f8    !..Q    BIC      r1,r1,#0x1f000000
        0x00019c78:    f8c41378    ..x.    STR      r1,[r4,#0x378]
        0x00019c7c:    f8d41358    ..X.    LDR      r1,[r4,#0x358]
        0x00019c80:    f42101f8    !...    BIC      r1,r1,#0x7c0000
        0x00019c84:    f8c41358    ..X.    STR      r1,[r4,#0x358]
        0x00019c88:    f8d41344    ..D.    LDR      r1,[r4,#0x344]
        0x00019c8c:    f02151f8    !..Q    BIC      r1,r1,#0x1f000000
        0x00019c90:    f1016120    .. a    ADD      r1,r1,#0xa000000
        0x00019c94:    f8c41344    ..D.    STR      r1,[r4,#0x344]
        0x00019c98:    f8d41344    ..D.    LDR      r1,[r4,#0x344]
        0x00019c9c:    f42141f0    !..A    BIC      r1,r1,#0x7800
        0x00019ca0:    f50141a0    ...A    ADD      r1,r1,#0x5000
        0x00019ca4:    f8c41344    ..D.    STR      r1,[r4,#0x344]
        0x00019ca8:    f8d41358    ..X.    LDR      r1,[r4,#0x358]
        0x00019cac:    f42151f8    !..Q    BIC      r1,r1,#0x1f00
        0x00019cb0:    f5016170    ..pa    ADD      r1,r1,#0xf00
        0x00019cb4:    f8c41358    ..X.    STR      r1,[r4,#0x358]
        0x00019cb8:    f8d41354    ..T.    LDR      r1,[r4,#0x354]
        0x00019cbc:    f44111f0    A...    ORR      r1,r1,#0x1e0000
        0x00019cc0:    f8c41354    ..T.    STR      r1,[r4,#0x354]
        0x00019cc4:    f8d41360    ..`.    LDR      r1,[r4,#0x360]
        0x00019cc8:    f02161f8    !..a    BIC      r1,r1,#0x7c00000
        0x00019ccc:    f1017170    ..pq    ADD      r1,r1,#0x3c00000
        0x00019cd0:    f8c41360    ..`.    STR      r1,[r4,#0x360]
        0x00019cd4:    f8d41360    ..`.    LDR      r1,[r4,#0x360]
        0x00019cd8:    f44111f0    A...    ORR      r1,r1,#0x1e0000
        0x00019cdc:    f8c41360    ..`.    STR      r1,[r4,#0x360]
        0x00019ce0:    f8d41348    ..H.    LDR      r1,[r4,#0x348]
        0x00019ce4:    f0215170    !.pQ    BIC      r1,r1,#0x3c000000
        0x00019ce8:    f1015120    .. Q    ADD      r1,r1,#0x28000000
        0x00019cec:    f8c41348    ..H.    STR      r1,[r4,#0x348]
        0x00019cf0:    f8d41348    ..H.    LDR      r1,[r4,#0x348]
        0x00019cf4:    f42131f0    !..1    BIC      r1,r1,#0x1e000
        0x00019cf8:    f50131a0    ...1    ADD      r1,r1,#0x14000
        0x00019cfc:    f8c41348    ..H.    STR      r1,[r4,#0x348]
        0x00019d00:    f8d4135c    ..\.    LDR      r1,[r4,#0x35c]
        0x00019d04:    f0417170    A.pq    ORR      r1,r1,#0x3c00000
        0x00019d08:    f8c4135c    ..\.    STR      r1,[r4,#0x35c]
        0x00019d0c:    f8d4135c    ..\.    LDR      r1,[r4,#0x35c]
        0x00019d10:    f44151f0    A..Q    ORR      r1,r1,#0x1e00
        0x00019d14:    f8c4135c    ..\.    STR      r1,[r4,#0x35c]
        0x00019d18:    f8d41380    ....    LDR      r1,[r4,#0x380]
        0x00019d1c:    f0414100    A..A    ORR      r1,r1,#0x80000000
        0x00019d20:    f8c41380    ....    STR      r1,[r4,#0x380]
        0x00019d24:    f8d41380    ....    LDR      r1,[r4,#0x380]
        0x00019d28:    f0414180    A..A    ORR      r1,r1,#0x40000000
        0x00019d2c:    f8c41380    ....    STR      r1,[r4,#0x380]
        0x00019d30:    f8d41370    ..p.    LDR      r1,[r4,#0x370]
        0x00019d34:    f3c15105    ...Q    UBFX     r1,r1,#20,#6
        0x00019d38:    60e9        .`      STR      r1,[r5,#0xc]
        0x00019d3a:    f8d41370    ..p.    LDR      r1,[r4,#0x370]
        0x00019d3e:    f021717c    !.|q    BIC      r1,r1,#0x3f00000
        0x00019d42:    f8c41370    ..p.    STR      r1,[r4,#0x370]
        0x00019d46:    f04f0107    O...    MOV      r1,#7
        0x00019d4a:    f8c4133c    ..<.    STR      r1,[r4,#0x33c]
        0x00019d4e:    d20d        ..      BCS      0x19d6c ; am_hal_pwrctrl_control + 324
        0x00019d50:    f8d41340    ..@.    LDR      r1,[r4,#0x340]
        0x00019d54:    f0217170    !.pq    BIC      r1,r1,#0x3c00000
        0x00019d58:    f8c41340    ..@.    STR      r1,[r4,#0x340]
        0x00019d5c:    f8d41340    ..@.    LDR      r1,[r4,#0x340]
        0x00019d60:    f42161f8    !..a    BIC      r1,r1,#0x7c0
        0x00019d64:    f1010140    ..@.    ADD      r1,r1,#0x40
        0x00019d68:    f8c41340    ..@.    STR      r1,[r4,#0x340]
        0x00019d6c:    2806        .(      CMP      r0,#6
        0x00019d6e:    d308        ..      BCC      0x19d82 ; am_hal_pwrctrl_control + 346
        0x00019d70:    200f        .       MOVS     r0,#0xf
        0x00019d72:    f8c4033c    ..<.    STR      r0,[r4,#0x33c]
        0x00019d76:    f8d401b0    ....    LDR      r0,[r4,#0x1b0]
        0x00019d7a:    f0200018     ...    BIC      r0,r0,#0x18
        0x00019d7e:    f8c401b0    ....    STR      r0,[r4,#0x1b0]
        0x00019d82:    f8d70100    ....    LDR      r0,[r7,#0x100]
        0x00019d86:    f0400001    @...    ORR      r0,r0,#1
        0x00019d8a:    f8c70100    ....    STR      r0,[r7,#0x100]
        0x00019d8e:    f8d40378    ..x.    LDR      r0,[r4,#0x378]
        0x00019d92:    f0404000    @..@    ORR      r0,r0,#0x80000000
        0x00019d96:    f8c40378    ..x.    STR      r0,[r4,#0x378]
        0x00019d9a:    6e20         n      LDR      r0,[r4,#0x60]
        0x00019d9c:    f4403000    @..0    ORR      r0,r0,#0x20000
        0x00019da0:    6620         f      STR      r0,[r4,#0x60]
        0x00019da2:    6e20         n      LDR      r0,[r4,#0x60]
        0x00019da4:    f4402080    @..     ORR      r0,r0,#0x40000
        0x00019da8:    6620         f      STR      r0,[r4,#0x60]
        0x00019daa:    6e20         n      LDR      r0,[r4,#0x60]
        0x00019dac:    f4402000    @..     ORR      r0,r0,#0x80000
        0x00019db0:    6620         f      STR      r0,[r4,#0x60]
        0x00019db2:    6e20         n      LDR      r0,[r4,#0x60]
        0x00019db4:    f4403080    @..0    ORR      r0,r0,#0x10000
        0x00019db8:    6620         f      STR      r0,[r4,#0x60]
        0x00019dba:    6e20         n      LDR      r0,[r4,#0x60]
        0x00019dbc:    f0200010     ...    BIC      r0,r0,#0x10
        0x00019dc0:    6620         f      STR      r0,[r4,#0x60]
        0x00019dc2:    6e20         n      LDR      r0,[r4,#0x60]
        0x00019dc4:    f040000e    @...    ORR      r0,r0,#0xe
        0x00019dc8:    6620         f      STR      r0,[r4,#0x60]
        0x00019dca:    6e20         n      LDR      r0,[r4,#0x60]
        0x00019dcc:    f0400001    @...    ORR      r0,r0,#1
        0x00019dd0:    6620         f      STR      r0,[r4,#0x60]
        0x00019dd2:    6e20         n      LDR      r0,[r4,#0x60]
        0x00019dd4:    f4207000     ..p    BIC      r0,r0,#0x200
        0x00019dd8:    6620         f      STR      r0,[r4,#0x60]
        0x00019dda:    6e20         n      LDR      r0,[r4,#0x60]
        0x00019ddc:    f44070e0    @..p    ORR      r0,r0,#0x1c0
        0x00019de0:    6620         f      STR      r0,[r4,#0x60]
        0x00019de2:    6e20         n      LDR      r0,[r4,#0x60]
        0x00019de4:    f0400020    @. .    ORR      r0,r0,#0x20
        0x00019de8:    6620         f      STR      r0,[r4,#0x60]
        0x00019dea:    e024        $.      B        0x19e36 ; am_hal_pwrctrl_control + 526
        0x00019dec:    4917        .I      LDR      r1,[pc,#92] ; [0x19e4c] = 0x1f248
        0x00019dee:    e9d10152    ..R.    LDRD     r0,r1,[r1,#0x148]
        0x00019df2:    6800        .h      LDR      r0,[r0,#0]
        0x00019df4:    4008        .@      ANDS     r0,r0,r1
        0x00019df6:    bf18        ..      IT       NE
        0x00019df8:    2001        .       MOVNE    r0,#1
        0x00019dfa:    b1e0        ..      CBZ      r0,0x19e36 ; am_hal_pwrctrl_control + 526
        0x00019dfc:    2014        .       MOVS     r0,#0x14
        0x00019dfe:    f000f947    ..G.    BL       am_hal_pwrctrl_periph_disable ; 0x1a090
        0x00019e02:    b1c0        ..      CBZ      r0,0x19e36 ; am_hal_pwrctrl_control + 526
        0x00019e04:    e8bd81f0    ....    POP      {r4-r8,pc}
        0x00019e08:    f8d40124    ..$.    LDR      r0,[r4,#0x124]
        0x00019e0c:    f02000fc     ...    BIC      r0,r0,#0xfc
        0x00019e10:    3080        .0      ADDS     r0,r0,#0x80
        0x00019e12:    f8c40124    ..$.    STR      r0,[r4,#0x124]
        0x00019e16:    2001        .       MOVS     r0,#1
        0x00019e18:    f8c40120    .. .    STR      r0,[r4,#0x120]
        0x00019e1c:    e00b        ..      B        0x19e36 ; am_hal_pwrctrl_control + 526
        0x00019e1e:    e003        ..      B        0x19e28 ; am_hal_pwrctrl_control + 512
        0x00019e20:    e7ff        ..      B        0x19e22 ; am_hal_pwrctrl_control + 506
        0x00019e22:    f8c78004    ....    STR      r8,[r7,#4]
        0x00019e26:    e006        ..      B        0x19e36 ; am_hal_pwrctrl_control + 526
        0x00019e28:    2900        .)      CMP      r1,#0
        0x00019e2a:    bf1c        ..      ITT      NE
        0x00019e2c:    ed950a0e    ....    VLDRNE   s0,[r5,#0x38]
        0x00019e30:    ed810a00    ....    VSTRNE   s0,[r1,#0]
        0x00019e34:    2606        .&      MOVS     r6,#6
        0x00019e36:    4630        0F      MOV      r0,r6
        0x00019e38:    e8bd81f0    ....    POP      {r4-r8,pc}
    $d
        0x00019e3c:    40021000    ...@    DCD    1073876992
        0x00019e40:    100001f8    ....    DCD    268435960
        0x00019e44:    40020000    ...@    DCD    1073872896
        0x00019e48:    10000200    ....    DCD    268435968
        0x00019e4c:    0001f248    H...    DCD    127560
    $t
    i.am_hal_pwrctrl_low_power_init
    am_hal_pwrctrl_low_power_init
        0x00019e50:    b5f8        ..      PUSH     {r3-r7,lr}
        0x00019e52:    4e41        AN      LDR      r6,[pc,#260] ; [0x19f58] = 0x40021000
        0x00019e54:    68b0        .h      LDR      r0,[r6,#8]
        0x00019e56:    4d41        AM      LDR      r5,[pc,#260] ; [0x19f5c] = 0x100001f8
        0x00019e58:    f3c05000    ...P    UBFX     r0,r0,#20,#1
        0x00019e5c:    f5067682    ...v    ADD      r6,r6,#0x104
        0x00019e60:    70a8        .p      STRB     r0,[r5,#2]
        0x00019e62:    483f        ?H      LDR      r0,[pc,#252] ; [0x19f60] = 0x1f23c
        0x00019e64:    f000f886    ....    BL       am_hal_pwrctrl_mcu_memory_config ; 0x19f74
        0x00019e68:    483e        >H      LDR      r0,[pc,#248] ; [0x19f64] = 0x1f242
        0x00019e6a:    f000fa01    ....    BL       am_hal_pwrctrl_sram_config ; 0x1a270
        0x00019e6e:    f04f2740    O.@'    MOV      r7,#0x40004000
        0x00019e72:    6c78        xl      LDR      r0,[r7,#0x44]
        0x00019e74:    f440007c    @.|.    ORR      r0,r0,#0xfc0000
        0x00019e78:    6478        xd      STR      r0,[r7,#0x44]
        0x00019e7a:    2400        .$      MOVS     r4,#0
        0x00019e7c:    63f4        .c      STR      r4,[r6,#0x3c]
        0x00019e7e:    6434        4d      STR      r4,[r6,#0x40]
        0x00019e80:    6474        td      STR      r4,[r6,#0x44]
        0x00019e82:    64b4        .d      STR      r4,[r6,#0x48]
        0x00019e84:    64f4        .d      STR      r4,[r6,#0x4c]
        0x00019e86:    6534        4e      STR      r4,[r6,#0x50]
        0x00019e88:    6574        te      STR      r4,[r6,#0x54]
        0x00019e8a:    65b4        .e      STR      r4,[r6,#0x58]
        0x00019e8c:    65f4        .e      STR      r4,[r6,#0x5c]
        0x00019e8e:    6634        4f      STR      r4,[r6,#0x60]
        0x00019e90:    6674        tf      STR      r4,[r6,#0x64]
        0x00019e92:    66b4        .f      STR      r4,[r6,#0x68]
        0x00019e94:    66f4        .f      STR      r4,[r6,#0x6c]
        0x00019e96:    6734        4g      STR      r4,[r6,#0x70]
        0x00019e98:    6774        tg      STR      r4,[r6,#0x74]
        0x00019e9a:    67b4        .g      STR      r4,[r6,#0x78]
        0x00019e9c:    67f4        .g      STR      r4,[r6,#0x7c]
        0x00019e9e:    f8c64080    ...@    STR      r4,[r6,#0x80]
        0x00019ea2:    f8c64084    ...@    STR      r4,[r6,#0x84]
        0x00019ea6:    4830        0H      LDR      r0,[pc,#192] ; [0x19f68] = 0x1f224
        0x00019ea8:    f7fffbec    ....    BL       am_hal_daxi_config ; 0x19684
        0x00019eac:    2064        d       MOVS     r0,#0x64
        0x00019eae:    f7fffd2f    ../.    BL       am_hal_delay_us ; 0x19910
        0x00019eb2:    6c78        xl      LDR      r0,[r7,#0x44]
        0x00019eb4:    f0400040    @.@.    ORR      r0,r0,#0x40
        0x00019eb8:    6478        xd      STR      r0,[r7,#0x44]
        0x00019eba:    482c        ,H      LDR      r0,[pc,#176] ; [0x19f6c] = 0x40020000
        0x00019ebc:    f8d0137c    ..|.    LDR      r1,[r0,#0x37c]
        0x00019ec0:    f44101fd    A...    ORR      r1,r1,#0x7e8000
        0x00019ec4:    f04161b0    A..a    ORR      r1,r1,#0x5800000
        0x00019ec8:    f8c0137c    ..|.    STR      r1,[r0,#0x37c]
        0x00019ecc:    4928        (I      LDR      r1,[pc,#160] ; [0x19f70] = 0x40020444
        0x00019ece:    680a        .h      LDR      r2,[r1,#0]
        0x00019ed0:    f422427f    "..B    BIC      r2,r2,#0xff00
        0x00019ed4:    f5026280    ...b    ADD      r2,r2,#0x400
        0x00019ed8:    600a        .`      STR      r2,[r1,#0]
        0x00019eda:    7869        ix      LDRB     r1,[r5,#1]
        0x00019edc:    b9c1        ..      CBNZ     r1,0x19f10 ; am_hal_pwrctrl_low_power_init + 192
        0x00019ede:    f8d0136c    ..l.    LDR      r1,[r0,#0x36c]
        0x00019ee2:    f3c15105    ...Q    UBFX     r1,r1,#20,#6
        0x00019ee6:    6129        )a      STR      r1,[r5,#0x10]
        0x00019ee8:    f8d01088    ....    LDR      r1,[r0,#0x88]
        0x00019eec:    f001013f    ..?.    AND      r1,r1,#0x3f
        0x00019ef0:    6169        ia      STR      r1,[r5,#0x14]
        0x00019ef2:    f8d0136c    ..l.    LDR      r1,[r0,#0x36c]
        0x00019ef6:    0e89        ..      LSRS     r1,r1,#26
        0x00019ef8:    61a9        .a      STR      r1,[r5,#0x18]
        0x00019efa:    f8d01088    ....    LDR      r1,[r0,#0x88]
        0x00019efe:    f3c14185    ...A    UBFX     r1,r1,#18,#6
        0x00019f02:    61e9        .a      STR      r1,[r5,#0x1c]
        0x00019f04:    6c40        @l      LDR      r0,[r0,#0x44]
        0x00019f06:    f3c010c6    ....    UBFX     r0,r0,#7,#7
        0x00019f0a:    6228        (b      STR      r0,[r5,#0x20]
        0x00019f0c:    2001        .       MOVS     r0,#1
        0x00019f0e:    7068        hp      STRB     r0,[r5,#1]
        0x00019f10:    6928        (i      LDR      r0,[r5,#0x10]
        0x00019f12:    62a8        .b      STR      r0,[r5,#0x28]
        0x00019f14:    6968        hi      LDR      r0,[r5,#0x14]
        0x00019f16:    626c        lb      STR      r4,[r5,#0x24]
        0x00019f18:    2201        ."      MOVS     r2,#1
        0x00019f1a:    62e8        .b      STR      r0,[r5,#0x2c]
        0x00019f1c:    466b        kF      MOV      r3,sp
        0x00019f1e:    f44f6192    O..a    MOV      r1,#0x490
        0x00019f22:    4610        .F      MOV      r0,r2
        0x00019f24:    f7fffe48    ..H.    BL       am_hal_mram_info_read ; 0x19bb8
        0x00019f28:    b988        ..      CBNZ     r0,0x19f4e ; am_hal_pwrctrl_low_power_init + 254
        0x00019f2a:    9800        ..      LDR      r0,[sp,#0]
        0x00019f2c:    f0100f06    ....    TST      r0,#6
        0x00019f30:    bf04        ..      ITT      EQ
        0x00019f32:    2003        .       MOVEQ    r0,#3
        0x00019f34:    6268        hb      STREQ    r0,[r5,#0x24]
        0x00019f36:    d00a        ..      BEQ      0x19f4e ; am_hal_pwrctrl_low_power_init + 254
        0x00019f38:    f0100f02    ....    TST      r0,#2
        0x00019f3c:    bf08        ..      IT       EQ
        0x00019f3e:    2006        .       MOVEQ    r0,#6
        0x00019f40:    d007        ..      BEQ      0x19f52 ; am_hal_pwrctrl_low_power_init + 258
        0x00019f42:    f0100f04    ....    TST      r0,#4
        0x00019f46:    bf0c        ..      ITE      EQ
        0x00019f48:    2009        .       MOVEQ    r0,#9
        0x00019f4a:    626c        lb      STRNE    r4,[r5,#0x24]
        0x00019f4c:    d001        ..      BEQ      0x19f52 ; am_hal_pwrctrl_low_power_init + 258
        0x00019f4e:    2000        .       MOVS     r0,#0
        0x00019f50:    bdf8        ..      POP      {r3-r7,pc}
        0x00019f52:    6268        hb      STR      r0,[r5,#0x24]
        0x00019f54:    e7fb        ..      B        0x19f4e ; am_hal_pwrctrl_low_power_init + 254
    $d
        0x00019f56:    0000        ..      DCW    0
        0x00019f58:    40021000    ...@    DCD    1073876992
        0x00019f5c:    100001f8    ....    DCD    268435960
        0x00019f60:    0001f23c    <...    DCD    127548
        0x00019f64:    0001f242    B...    DCD    127554
        0x00019f68:    0001f224    $...    DCD    127524
        0x00019f6c:    40020000    ...@    DCD    1073872896
        0x00019f70:    40020444    D..@    DCD    1073873988
    $t
    i.am_hal_pwrctrl_mcu_memory_config
    am_hal_pwrctrl_mcu_memory_config
        0x00019f74:    b538        8.      PUSH     {r3-r5,lr}
        0x00019f76:    4605        .F      MOV      r5,r0
        0x00019f78:    7800        .x      LDRB     r0,[r0,#0]
        0x00019f7a:    4c43        CL      LDR      r4,[pc,#268] ; [0x1a088] = 0x40021000
        0x00019f7c:    b120         .      CBZ      r0,0x19f88 ; am_hal_pwrctrl_mcu_memory_config + 20
        0x00019f7e:    2801        .(      CMP      r0,#1
        0x00019f80:    d00a        ..      BEQ      0x19f98 ; am_hal_pwrctrl_mcu_memory_config + 36
        0x00019f82:    2802        .(      CMP      r0,#2
        0x00019f84:    d011        ..      BEQ      0x19faa ; am_hal_pwrctrl_mcu_memory_config + 54
        0x00019f86:    e018        ..      B        0x19fba ; am_hal_pwrctrl_mcu_memory_config + 70
        0x00019f88:    6960        `i      LDR      r0,[r4,#0x14]
        0x00019f8a:    f0200010     ...    BIC      r0,r0,#0x10
        0x00019f8e:    6160        `a      STR      r0,[r4,#0x14]
        0x00019f90:    6960        `i      LDR      r0,[r4,#0x14]
        0x00019f92:    f0200020     . .    BIC      r0,r0,#0x20
        0x00019f96:    e00f        ..      B        0x19fb8 ; am_hal_pwrctrl_mcu_memory_config + 68
        0x00019f98:    6960        `i      LDR      r0,[r4,#0x14]
        0x00019f9a:    f0400010    @...    ORR      r0,r0,#0x10
        0x00019f9e:    6160        `a      STR      r0,[r4,#0x14]
        0x00019fa0:    6960        `i      LDR      r0,[r4,#0x14]
        0x00019fa2:    f0200020     . .    BIC      r0,r0,#0x20
        0x00019fa6:    6160        `a      STR      r0,[r4,#0x14]
        0x00019fa8:    e007        ..      B        0x19fba ; am_hal_pwrctrl_mcu_memory_config + 70
        0x00019faa:    6960        `i      LDR      r0,[r4,#0x14]
        0x00019fac:    f0400010    @...    ORR      r0,r0,#0x10
        0x00019fb0:    6160        `a      STR      r0,[r4,#0x14]
        0x00019fb2:    6960        `i      LDR      r0,[r4,#0x14]
        0x00019fb4:    f0400020    @. .    ORR      r0,r0,#0x20
        0x00019fb8:    6160        `a      STR      r0,[r4,#0x14]
        0x00019fba:    78a9        .x      LDRB     r1,[r5,#2]
        0x00019fbc:    6960        `i      LDR      r0,[r4,#0x14]
        0x00019fbe:    f3610002    a...    BFI      r0,r1,#0,#3
        0x00019fc2:    6160        `a      STR      r0,[r4,#0x14]
        0x00019fc4:    7929        )y      LDRB     r1,[r5,#4]
        0x00019fc6:    6960        `i      LDR      r0,[r4,#0x14]
        0x00019fc8:    f36100c3    a...    BFI      r0,r1,#3,#1
        0x00019fcc:    6160        `a      STR      r0,[r4,#0x14]
        0x00019fce:    2001        .       MOVS     r0,#1
        0x00019fd0:    9000        ..      STR      r0,[sp,#0]
        0x00019fd2:    6963        ci      LDR      r3,[r4,#0x14]
        0x00019fd4:    223f        ?"      MOVS     r2,#0x3f
        0x00019fd6:    492d        -I      LDR      r1,[pc,#180] ; [0x1a08c] = 0x40021018
        0x00019fd8:    2005        .       MOVS     r0,#5
        0x00019fda:    f7fffcdb    ....    BL       am_hal_delay_us_status_check ; 0x19994
        0x00019fde:    2800        .(      CMP      r0,#0
        0x00019fe0:    bf18        ..      IT       NE
        0x00019fe2:    bd38        8.      POPNE    {r3-r5,pc}
        0x00019fe4:    69a0        .i      LDR      r0,[r4,#0x18]
        0x00019fe6:    6961        ai      LDR      r1,[r4,#0x14]
        0x00019fe8:    f3c01000    ....    UBFX     r0,r0,#4,#1
        0x00019fec:    f3c11100    ....    UBFX     r1,r1,#4,#1
        0x00019ff0:    4288        .B      CMP      r0,r1
        0x00019ff2:    d117        ..      BNE      0x1a024 ; am_hal_pwrctrl_mcu_memory_config + 176
        0x00019ff4:    69a0        .i      LDR      r0,[r4,#0x18]
        0x00019ff6:    6961        ai      LDR      r1,[r4,#0x14]
        0x00019ff8:    f3c01040    ..@.    UBFX     r0,r0,#5,#1
        0x00019ffc:    f3c11140    ..@.    UBFX     r1,r1,#5,#1
        0x0001a000:    4288        .B      CMP      r0,r1
        0x0001a002:    d10f        ..      BNE      0x1a024 ; am_hal_pwrctrl_mcu_memory_config + 176
        0x0001a004:    69a0        .i      LDR      r0,[r4,#0x18]
        0x0001a006:    6961        ai      LDR      r1,[r4,#0x14]
        0x0001a008:    f0000007    ....    AND      r0,r0,#7
        0x0001a00c:    f0010107    ....    AND      r1,r1,#7
        0x0001a010:    4288        .B      CMP      r0,r1
        0x0001a012:    d107        ..      BNE      0x1a024 ; am_hal_pwrctrl_mcu_memory_config + 176
        0x0001a014:    69a0        .i      LDR      r0,[r4,#0x18]
        0x0001a016:    6961        ai      LDR      r1,[r4,#0x14]
        0x0001a018:    f3c000c0    ....    UBFX     r0,r0,#3,#1
        0x0001a01c:    f3c101c0    ....    UBFX     r1,r1,#3,#1
        0x0001a020:    4288        .B      CMP      r0,r1
        0x0001a022:    d001        ..      BEQ      0x1a028 ; am_hal_pwrctrl_mcu_memory_config + 180
        0x0001a024:    2001        .       MOVS     r0,#1
        0x0001a026:    bd38        8.      POP      {r3-r5,pc}
        0x0001a028:    7868        hx      LDRB     r0,[r5,#1]
        0x0001a02a:    2800        .(      CMP      r0,#0
        0x0001a02c:    69e0        .i      LDR      r0,[r4,#0x1c]
        0x0001a02e:    bf14        ..      ITE      NE
        0x0001a030:    f0200010     ...    BICNE    r0,r0,#0x10
        0x0001a034:    f0400010    @...    ORREQ    r0,r0,#0x10
        0x0001a038:    61e0        .a      STR      r0,[r4,#0x1c]
        0x0001a03a:    7968        hy      LDRB     r0,[r5,#5]
        0x0001a03c:    2800        .(      CMP      r0,#0
        0x0001a03e:    69e0        .i      LDR      r0,[r4,#0x1c]
        0x0001a040:    bf14        ..      ITE      NE
        0x0001a042:    f0200008     ...    BICNE    r0,r0,#8
        0x0001a046:    f0400008    @...    ORREQ    r0,r0,#8
        0x0001a04a:    61e0        .a      STR      r0,[r4,#0x1c]
        0x0001a04c:    78e8        .x      LDRB     r0,[r5,#3]
        0x0001a04e:    2800        .(      CMP      r0,#0
        0x0001a050:    bf04        ..      ITT      EQ
        0x0001a052:    69e0        .i      LDREQ    r0,[r4,#0x1c]
        0x0001a054:    f0400007    @...    ORREQ    r0,r0,#7
        0x0001a058:    d013        ..      BEQ      0x1a082 ; am_hal_pwrctrl_mcu_memory_config + 270
        0x0001a05a:    2801        .(      CMP      r0,#1
        0x0001a05c:    d008        ..      BEQ      0x1a070 ; am_hal_pwrctrl_mcu_memory_config + 252
        0x0001a05e:    2803        .(      CMP      r0,#3
        0x0001a060:    d00b        ..      BEQ      0x1a07a ; am_hal_pwrctrl_mcu_memory_config + 262
        0x0001a062:    2807        .(      CMP      r0,#7
        0x0001a064:    bf04        ..      ITT      EQ
        0x0001a066:    69e0        .i      LDREQ    r0,[r4,#0x1c]
        0x0001a068:    f0200007     ...    BICEQ    r0,r0,#7
        0x0001a06c:    d009        ..      BEQ      0x1a082 ; am_hal_pwrctrl_mcu_memory_config + 270
        0x0001a06e:    e009        ..      B        0x1a084 ; am_hal_pwrctrl_mcu_memory_config + 272
        0x0001a070:    69e0        .i      LDR      r0,[r4,#0x1c]
        0x0001a072:    f0200007     ...    BIC      r0,r0,#7
        0x0001a076:    1d80        ..      ADDS     r0,r0,#6
        0x0001a078:    e003        ..      B        0x1a082 ; am_hal_pwrctrl_mcu_memory_config + 270
        0x0001a07a:    69e0        .i      LDR      r0,[r4,#0x1c]
        0x0001a07c:    f0200007     ...    BIC      r0,r0,#7
        0x0001a080:    1d00        ..      ADDS     r0,r0,#4
        0x0001a082:    61e0        .a      STR      r0,[r4,#0x1c]
        0x0001a084:    2000        .       MOVS     r0,#0
        0x0001a086:    bd38        8.      POP      {r3-r5,pc}
    $d
        0x0001a088:    40021000    ...@    DCD    1073876992
        0x0001a08c:    40021018    ...@    DCD    1073877016
    $t
    i.am_hal_pwrctrl_periph_disable
    am_hal_pwrctrl_periph_disable
        0x0001a090:    2822        "(      CMP      r0,#0x22
        0x0001a092:    bf24        $.      ITT      CS
        0x0001a094:    2006        .       MOVCS    r0,#6
        0x0001a096:    4770        pG      BXCS     lr
        0x0001a098:    e92d43f8    -..C    PUSH     {r3-r9,lr}
        0x0001a09c:    4941        AI      LDR      r1,[pc,#260] ; [0x1a1a4] = 0x1f248
        0x0001a09e:    4602        .F      MOV      r2,r0
        0x0001a0a0:    eb011800    ....    ADD      r8,r1,r0,LSL #4
        0x0001a0a4:    2500        .%      MOVS     r5,#0
        0x0001a0a6:    e9d86900    ...i    LDRD     r6,r9,[r8,#0]
        0x0001a0aa:    e9d87402    ...t    LDRD     r7,r4,[r8,#8]
        0x0001a0ae:    6831        1h      LDR      r1,[r6,#0]
        0x0001a0b0:    ea110f09    ....    TST      r1,r9
        0x0001a0b4:    bf04        ..      ITT      EQ
        0x0001a0b6:    2000        .       MOVEQ    r0,#0
        0x0001a0b8:    e8bd83f8    ....    POPEQ    {r3-r9,pc}
        0x0001a0bc:    2a14        .*      CMP      r2,#0x14
        0x0001a0be:    d123        #.      BNE      0x1a108 ; am_hal_pwrctrl_periph_disable + 120
        0x0001a0c0:    4839        9H      LDR      r0,[pc,#228] ; [0x1a1a8] = 0x400c0fe0
        0x0001a0c2:    6800        .h      LDR      r0,[r0,#0]
        0x0001a0c4:    28c0        .(      CMP      r0,#0xc0
        0x0001a0c6:    d11f        ..      BNE      0x1a108 ; am_hal_pwrctrl_periph_disable + 120
        0x0001a0c8:    2301        .#      MOVS     r3,#1
        0x0001a0ca:    461a        .F      MOV      r2,r3
        0x0001a0cc:    4937        7I      LDR      r1,[pc,#220] ; [0x1a1ac] = 0x400c0a7c
        0x0001a0ce:    2064        d       MOVS     r0,#0x64
        0x0001a0d0:    f7fffc34    ..4.    BL       am_hal_delay_us_status_change ; 0x1993c
        0x0001a0d4:    2800        .(      CMP      r0,#0
        0x0001a0d6:    bf18        ..      IT       NE
        0x0001a0d8:    e8bd83f8    ....    POPNE    {r3-r9,pc}
        0x0001a0dc:    2301        .#      MOVS     r3,#1
        0x0001a0de:    461a        .F      MOV      r2,r3
        0x0001a0e0:    4933        3I      LDR      r1,[pc,#204] ; [0x1a1b0] = 0x400c1f10
        0x0001a0e2:    2064        d       MOVS     r0,#0x64
        0x0001a0e4:    f7fffc2a    ..*.    BL       am_hal_delay_us_status_change ; 0x1993c
        0x0001a0e8:    2800        .(      CMP      r0,#0
        0x0001a0ea:    bf18        ..      IT       NE
        0x0001a0ec:    e8bd83f8    ....    POPNE    {r3-r9,pc}
        0x0001a0f0:    4830        0H      LDR      r0,[pc,#192] ; [0x1a1b4] = 0x400c0a80
        0x0001a0f2:    6801        .h      LDR      r1,[r0,#0]
        0x0001a0f4:    f0410101    A...    ORR      r1,r1,#1
        0x0001a0f8:    6001        .`      STR      r1,[r0,#0]
        0x0001a0fa:    482f        /H      LDR      r0,[pc,#188] ; [0x1a1b8] = 0x100001f8
        0x0001a0fc:    6a41        Aj      LDR      r1,[r0,#0x24]
        0x0001a0fe:    2900        .)      CMP      r1,#0
        0x0001a100:    bf1c        ..      ITT      NE
        0x0001a102:    2000        .       MOVNE    r0,#0
        0x0001a104:    f001ff22    ..".    BLNE     crypto_boost_trims ; 0x1bf4c
        0x0001a108:    f7fef928    ..(.    BL       am_hal_interrupt_master_disable ; 0x1835c
        0x0001a10c:    9000        ..      STR      r0,[sp,#0]
        0x0001a10e:    6830        0h      LDR      r0,[r6,#0]
        0x0001a110:    ea200009     ...    BIC      r0,r0,r9
        0x0001a114:    6030        0`      STR      r0,[r6,#0]
        0x0001a116:    9800        ..      LDR      r0,[sp,#0]
        0x0001a118:    f7fef924    ..$.    BL       am_hal_interrupt_master_set ; 0x18364
        0x0001a11c:    4623        #F      MOV      r3,r4
        0x0001a11e:    461a        .F      MOV      r2,r3
        0x0001a120:    4639        9F      MOV      r1,r7
        0x0001a122:    2005        .       MOVS     r0,#5
        0x0001a124:    9500        ..      STR      r5,[sp,#0]
        0x0001a126:    f7fffc35    ..5.    BL       am_hal_delay_us_status_check ; 0x19994
        0x0001a12a:    2800        .(      CMP      r0,#0
        0x0001a12c:    bf08        ..      IT       EQ
        0x0001a12e:    e8bd83f8    ....    POPEQ    {r3-r9,pc}
        0x0001a132:    4628        (F      MOV      r0,r5
        0x0001a134:    f8d8200c    ...     LDR      r2,[r8,#0xc]
        0x0001a138:    f8d81000    ....    LDR      r1,[r8,#0]
        0x0001a13c:    f5b27ff0    ....    CMP      r2,#0x1e0
        0x0001a140:    d029        ).      BEQ      0x1a196 ; am_hal_pwrctrl_periph_disable + 262
        0x0001a142:    dc0b        ..      BGT      0x1a15c ; am_hal_pwrctrl_periph_disable + 204
        0x0001a144:    2a1e        .*      CMP      r2,#0x1e
        0x0001a146:    d020         .      BEQ      0x1a18a ; am_hal_pwrctrl_periph_disable + 250
        0x0001a148:    2aff        .*      CMP      r2,#0xff
        0x0001a14a:    bf18        ..      IT       NE
        0x0001a14c:    e8bd83f8    ....    POPNE    {r3-r9,pc}
        0x0001a150:    680a        .h      LDR      r2,[r1,#0]
        0x0001a152:    f0120fff    ....    TST      r2,#0xff
        0x0001a156:    d115        ..      BNE      0x1a184 ; am_hal_pwrctrl_periph_disable + 244
        0x0001a158:    e8bd83f8    ....    POP      {r3-r9,pc}
        0x0001a15c:    f5b25ff0    ..._    CMP      r2,#0x1e00
        0x0001a160:    d00a        ..      BEQ      0x1a178 ; am_hal_pwrctrl_periph_disable + 232
        0x0001a162:    f5b23fe0    ...?    CMP      r2,#0x1c000
        0x0001a166:    bf18        ..      IT       NE
        0x0001a168:    e8bd83f8    ....    POPNE    {r3-r9,pc}
        0x0001a16c:    680a        .h      LDR      r2,[r1,#0]
        0x0001a16e:    f4123fe0    ...?    TST      r2,#0x1c000
        0x0001a172:    d107        ..      BNE      0x1a184 ; am_hal_pwrctrl_periph_disable + 244
        0x0001a174:    e8bd83f8    ....    POP      {r3-r9,pc}
        0x0001a178:    680a        .h      LDR      r2,[r1,#0]
        0x0001a17a:    f4125ff0    ..._    TST      r2,#0x1e00
        0x0001a17e:    bf08        ..      IT       EQ
        0x0001a180:    e8bd83f8    ....    POPEQ    {r3-r9,pc}
        0x0001a184:    6809        .h      LDR      r1,[r1,#0]
        0x0001a186:    e8bd83f8    ....    POP      {r3-r9,pc}
        0x0001a18a:    680a        .h      LDR      r2,[r1,#0]
        0x0001a18c:    f0120f1e    ....    TST      r2,#0x1e
        0x0001a190:    d1f8        ..      BNE      0x1a184 ; am_hal_pwrctrl_periph_disable + 244
        0x0001a192:    e8bd83f8    ....    POP      {r3-r9,pc}
        0x0001a196:    680a        .h      LDR      r2,[r1,#0]
        0x0001a198:    f4127ff0    ....    TST      r2,#0x1e0
        0x0001a19c:    d1f2        ..      BNE      0x1a184 ; am_hal_pwrctrl_periph_disable + 244
        0x0001a19e:    e8bd83f8    ....    POP      {r3-r9,pc}
    $d
        0x0001a1a2:    0000        ..      DCW    0
        0x0001a1a4:    0001f248    H...    DCD    127560
        0x0001a1a8:    400c0fe0    ...@    DCD    1074532320
        0x0001a1ac:    400c0a7c    |..@    DCD    1074530940
        0x0001a1b0:    400c1f10    ...@    DCD    1074536208
        0x0001a1b4:    400c0a80    ...@    DCD    1074530944
        0x0001a1b8:    100001f8    ....    DCD    268435960
    $t
    i.am_hal_pwrctrl_periph_enable
    am_hal_pwrctrl_periph_enable
        0x0001a1bc:    2822        "(      CMP      r0,#0x22
        0x0001a1be:    bf24        $.      ITT      CS
        0x0001a1c0:    2006        .       MOVCS    r0,#6
        0x0001a1c2:    4770        pG      BXCS     lr
        0x0001a1c4:    e92d43f8    -..C    PUSH     {r3-r9,lr}
        0x0001a1c8:    4926        &I      LDR      r1,[pc,#152] ; [0x1a264] = 0x1f248
        0x0001a1ca:    4604        .F      MOV      r4,r0
        0x0001a1cc:    eb011004    ....    ADD      r0,r1,r4,LSL #4
        0x0001a1d0:    e9d06502    ...e    LDRD     r6,r5,[r0,#8]
        0x0001a1d4:    e9d08900    ....    LDRD     r8,r9,[r0,#0]
        0x0001a1d8:    f8d80000    ....    LDR      r0,[r8,#0]
        0x0001a1dc:    ea100f09    ....    TST      r0,r9
        0x0001a1e0:    d13c        <.      BNE      0x1a25c ; am_hal_pwrctrl_periph_enable + 160
        0x0001a1e2:    4f21        !O      LDR      r7,[pc,#132] ; [0x1a268] = 0x100001f8
        0x0001a1e4:    2c14        .,      CMP      r4,#0x14
        0x0001a1e6:    d105        ..      BNE      0x1a1f4 ; am_hal_pwrctrl_periph_enable + 56
        0x0001a1e8:    6a79        yj      LDR      r1,[r7,#0x24]
        0x0001a1ea:    2900        .)      CMP      r1,#0
        0x0001a1ec:    bf1c        ..      ITT      NE
        0x0001a1ee:    2001        .       MOVNE    r0,#1
        0x0001a1f0:    f001feac    ....    BLNE     crypto_boost_trims ; 0x1bf4c
        0x0001a1f4:    f7fef8b2    ....    BL       am_hal_interrupt_master_disable ; 0x1835c
        0x0001a1f8:    9000        ..      STR      r0,[sp,#0]
        0x0001a1fa:    f8d80000    ....    LDR      r0,[r8,#0]
        0x0001a1fe:    ea400009    @...    ORR      r0,r0,r9
        0x0001a202:    f8c80000    ....    STR      r0,[r8,#0]
        0x0001a206:    9800        ..      LDR      r0,[sp,#0]
        0x0001a208:    f7fef8ac    ....    BL       am_hal_interrupt_master_set ; 0x18364
        0x0001a20c:    2001        .       MOVS     r0,#1
        0x0001a20e:    462b        +F      MOV      r3,r5
        0x0001a210:    9000        ..      STR      r0,[sp,#0]
        0x0001a212:    461a        .F      MOV      r2,r3
        0x0001a214:    4631        1F      MOV      r1,r6
        0x0001a216:    2005        .       MOVS     r0,#5
        0x0001a218:    f7fffbbc    ....    BL       am_hal_delay_us_status_check ; 0x19994
        0x0001a21c:    ea5f0800    _...    MOVS     r8,r0
        0x0001a220:    d00a        ..      BEQ      0x1a238 ; am_hal_pwrctrl_periph_enable + 124
        0x0001a222:    2c14        .,      CMP      r4,#0x14
        0x0001a224:    d105        ..      BNE      0x1a232 ; am_hal_pwrctrl_periph_enable + 118
        0x0001a226:    6a79        yj      LDR      r1,[r7,#0x24]
        0x0001a228:    2900        .)      CMP      r1,#0
        0x0001a22a:    bf1c        ..      ITT      NE
        0x0001a22c:    2000        .       MOVNE    r0,#0
        0x0001a22e:    f001fe8d    ....    BLNE     crypto_boost_trims ; 0x1bf4c
        0x0001a232:    4640        @F      MOV      r0,r8
        0x0001a234:    e8bd83f8    ....    POP      {r3-r9,pc}
        0x0001a238:    2c14        .,      CMP      r4,#0x14
        0x0001a23a:    d109        ..      BNE      0x1a250 ; am_hal_pwrctrl_periph_enable + 148
        0x0001a23c:    2301        .#      MOVS     r3,#1
        0x0001a23e:    461a        .F      MOV      r2,r3
        0x0001a240:    490a        .I      LDR      r1,[pc,#40] ; [0x1a26c] = 0x400c1f10
        0x0001a242:    2064        d       MOVS     r0,#0x64
        0x0001a244:    f7fffb7a    ..z.    BL       am_hal_delay_us_status_change ; 0x1993c
        0x0001a248:    2800        .(      CMP      r0,#0
        0x0001a24a:    bf18        ..      IT       NE
        0x0001a24c:    e8bd83f8    ....    POPNE    {r3-r9,pc}
        0x0001a250:    6830        0h      LDR      r0,[r6,#0]
        0x0001a252:    4228        (B      TST      r0,r5
        0x0001a254:    bf04        ..      ITT      EQ
        0x0001a256:    2001        .       MOVEQ    r0,#1
        0x0001a258:    e8bd83f8    ....    POPEQ    {r3-r9,pc}
        0x0001a25c:    2000        .       MOVS     r0,#0
        0x0001a25e:    e8bd83f8    ....    POP      {r3-r9,pc}
    $d
        0x0001a262:    0000        ..      DCW    0
        0x0001a264:    0001f248    H...    DCD    127560
        0x0001a268:    100001f8    ....    DCD    268435960
        0x0001a26c:    400c1f10    ...@    DCD    1074536208
    $t
    i.am_hal_pwrctrl_sram_config
    am_hal_pwrctrl_sram_config
        0x0001a270:    b538        8.      PUSH     {r3-r5,lr}
        0x0001a272:    4c27        'L      LDR      r4,[pc,#156] ; [0x1a310] = 0x40021000
        0x0001a274:    4605        .F      MOV      r5,r0
        0x0001a276:    7801        .x      LDRB     r1,[r0,#0]
        0x0001a278:    6a60        `j      LDR      r0,[r4,#0x24]
        0x0001a27a:    f3610001    a...    BFI      r0,r1,#0,#2
        0x0001a27e:    6260        `b      STR      r0,[r4,#0x24]
        0x0001a280:    2001        .       MOVS     r0,#1
        0x0001a282:    9000        ..      STR      r0,[sp,#0]
        0x0001a284:    6a63        cj      LDR      r3,[r4,#0x24]
        0x0001a286:    2203        ."      MOVS     r2,#3
        0x0001a288:    4922        "I      LDR      r1,[pc,#136] ; [0x1a314] = 0x40021028
        0x0001a28a:    2005        .       MOVS     r0,#5
        0x0001a28c:    f7fffb82    ....    BL       am_hal_delay_us_status_check ; 0x19994
        0x0001a290:    2800        .(      CMP      r0,#0
        0x0001a292:    bf18        ..      IT       NE
        0x0001a294:    bd38        8.      POPNE    {r3-r5,pc}
        0x0001a296:    6aa0        .j      LDR      r0,[r4,#0x28]
        0x0001a298:    6a61        aj      LDR      r1,[r4,#0x24]
        0x0001a29a:    f0000003    ....    AND      r0,r0,#3
        0x0001a29e:    f0010103    ....    AND      r1,r1,#3
        0x0001a2a2:    4288        .B      CMP      r0,r1
        0x0001a2a4:    bf1c        ..      ITT      NE
        0x0001a2a6:    2001        .       MOVNE    r0,#1
        0x0001a2a8:    bd38        8.      POPNE    {r3-r5,pc}
        0x0001a2aa:    7869        ix      LDRB     r1,[r5,#1]
        0x0001a2ac:    6ae0        .j      LDR      r0,[r4,#0x2c]
        0x0001a2ae:    f3610083    a...    BFI      r0,r1,#2,#2
        0x0001a2b2:    62e0        .b      STR      r0,[r4,#0x2c]
        0x0001a2b4:    78a9        .x      LDRB     r1,[r5,#2]
        0x0001a2b6:    6ae0        .j      LDR      r0,[r4,#0x2c]
        0x0001a2b8:    f3611087    a...    BFI      r0,r1,#6,#2
        0x0001a2bc:    62e0        .b      STR      r0,[r4,#0x2c]
        0x0001a2be:    78e9        .x      LDRB     r1,[r5,#3]
        0x0001a2c0:    6ae0        .j      LDR      r0,[r4,#0x2c]
        0x0001a2c2:    f3612009    a..     BFI      r0,r1,#8,#2
        0x0001a2c6:    62e0        .b      STR      r0,[r4,#0x2c]
        0x0001a2c8:    7929        )y      LDRB     r1,[r5,#4]
        0x0001a2ca:    6ae0        .j      LDR      r0,[r4,#0x2c]
        0x0001a2cc:    f3611005    a...    BFI      r0,r1,#4,#2
        0x0001a2d0:    62e0        .b      STR      r0,[r4,#0x2c]
        0x0001a2d2:    7968        hy      LDRB     r0,[r5,#5]
        0x0001a2d4:    2800        .(      CMP      r0,#0
        0x0001a2d6:    bf04        ..      ITT      EQ
        0x0001a2d8:    6ae0        .j      LDREQ    r0,[r4,#0x2c]
        0x0001a2da:    f0400003    @...    ORREQ    r0,r0,#3
        0x0001a2de:    d00e        ..      BEQ      0x1a2fe ; am_hal_pwrctrl_sram_config + 142
        0x0001a2e0:    2801        .(      CMP      r0,#1
        0x0001a2e2:    d008        ..      BEQ      0x1a2f6 ; am_hal_pwrctrl_sram_config + 134
        0x0001a2e4:    2802        .(      CMP      r0,#2
        0x0001a2e6:    d00d        ..      BEQ      0x1a304 ; am_hal_pwrctrl_sram_config + 148
        0x0001a2e8:    2803        .(      CMP      r0,#3
        0x0001a2ea:    bf04        ..      ITT      EQ
        0x0001a2ec:    6ae0        .j      LDREQ    r0,[r4,#0x2c]
        0x0001a2ee:    f0200003     ...    BICEQ    r0,r0,#3
        0x0001a2f2:    d004        ..      BEQ      0x1a2fe ; am_hal_pwrctrl_sram_config + 142
        0x0001a2f4:    e004        ..      B        0x1a300 ; am_hal_pwrctrl_sram_config + 144
        0x0001a2f6:    6ae0        .j      LDR      r0,[r4,#0x2c]
        0x0001a2f8:    f0200003     ...    BIC      r0,r0,#3
        0x0001a2fc:    1c80        ..      ADDS     r0,r0,#2
        0x0001a2fe:    62e0        .b      STR      r0,[r4,#0x2c]
        0x0001a300:    2000        .       MOVS     r0,#0
        0x0001a302:    bd38        8.      POP      {r3-r5,pc}
        0x0001a304:    6ae0        .j      LDR      r0,[r4,#0x2c]
        0x0001a306:    f0200003     ...    BIC      r0,r0,#3
        0x0001a30a:    1c40        @.      ADDS     r0,r0,#1
        0x0001a30c:    e7f7        ..      B        0x1a2fe ; am_hal_pwrctrl_sram_config + 142
    $d
        0x0001a30e:    0000        ..      DCW    0
        0x0001a310:    40021000    ...@    DCD    1073876992
        0x0001a314:    40021028    (..@    DCD    1073877032
    $t
    i.am_hal_rtc_osc_disable
    am_hal_rtc_osc_disable
        0x0001a318:    4803        .H      LDR      r0,[pc,#12] ; [0x1a328] = 0x40004800
        0x0001a31a:    6801        .h      LDR      r1,[r0,#0]
        0x0001a31c:    f0410110    A...    ORR      r1,r1,#0x10
        0x0001a320:    6001        .`      STR      r1,[r0,#0]
        0x0001a322:    2000        .       MOVS     r0,#0
        0x0001a324:    4770        pG      BX       lr
    $d
        0x0001a326:    0000        ..      DCW    0
        0x0001a328:    40004800    .H.@    DCD    1073760256
    $t
    i.am_hal_sdhc_card_busy
    am_hal_sdhc_card_busy
        0x0001a32c:    2800        .(      CMP      r0,#0
        0x0001a32e:    bf1c        ..      ITT      NE
        0x0001a330:    6802        .h      LDRNE    r2,[r0,#0]
        0x0001a332:    f0127f80    ....    TSTNE    r2,#0x1000000
        0x0001a336:    d005        ..      BEQ      0x1a344 ; am_hal_sdhc_card_busy + 24
        0x0001a338:    f8dfc044    ..D.    LDR      r12,[pc,#68] ; [0x1a380] = 0x8313b0
        0x0001a33c:    f022437f    "..C    BIC      r3,r2,#0xff000000
        0x0001a340:    4563        cE      CMP      r3,r12
        0x0001a342:    d001        ..      BEQ      0x1a348 ; am_hal_sdhc_card_busy + 28
        0x0001a344:    2002        .       MOVS     r0,#2
        0x0001a346:    4770        pG      BX       lr
        0x0001a348:    f0127f00    ....    TST      r2,#0x2000000
        0x0001a34c:    bf04        ..      ITT      EQ
        0x0001a34e:    2007        .       MOVEQ    r0,#7
        0x0001a350:    4770        pG      BXEQ     lr
        0x0001a352:    b538        8.      PUSH     {r3-r5,lr}
        0x0001a354:    6840        @h      LDR      r0,[r0,#4]
        0x0001a356:    f44f1280    O...    MOV      r2,#0x100000
        0x0001a35a:    f1004480    ...D    ADD      r4,r0,#0x40000000
        0x0001a35e:    2001        .       MOVS     r0,#1
        0x0001a360:    9000        ..      STR      r0,[sp,#0]
        0x0001a362:    f44f707a    O.zp    MOV      r0,#0x3e8
        0x0001a366:    f50424e0    ...$    ADD      r4,r4,#0x70000
        0x0001a36a:    4348        HC      MULS     r0,r1,r0
        0x0001a36c:    4613        .F      MOV      r3,r2
        0x0001a36e:    f1040124    ..$.    ADD      r1,r4,#0x24
        0x0001a372:    f7fffb0f    ....    BL       am_hal_delay_us_status_check ; 0x19994
        0x0001a376:    6ae1        .j      LDR      r1,[r4,#0x2c]
        0x0001a378:    f0210104    !...    BIC      r1,r1,#4
        0x0001a37c:    62e1        .b      STR      r1,[r4,#0x2c]
        0x0001a37e:    bd38        8.      POP      {r3-r5,pc}
    $d
        0x0001a380:    008313b0    ....    DCD    8590256
    $t
    i.am_hal_sdhc_deinitialize
    am_hal_sdhc_deinitialize
        0x0001a384:    2800        .(      CMP      r0,#0
        0x0001a386:    bf1c        ..      ITT      NE
        0x0001a388:    6801        .h      LDRNE    r1,[r0,#0]
        0x0001a38a:    f0117f80    ....    TSTNE    r1,#0x1000000
        0x0001a38e:    d004        ..      BEQ      0x1a39a ; am_hal_sdhc_deinitialize + 22
        0x0001a390:    4b06        .K      LDR      r3,[pc,#24] ; [0x1a3ac] = 0x8313b0
        0x0001a392:    f021427f    !..B    BIC      r2,r1,#0xff000000
        0x0001a396:    429a        .B      CMP      r2,r3
        0x0001a398:    d001        ..      BEQ      0x1a39e ; am_hal_sdhc_deinitialize + 26
        0x0001a39a:    2002        .       MOVS     r0,#2
        0x0001a39c:    4770        pG      BX       lr
        0x0001a39e:    f0217180    !..q    BIC      r1,r1,#0x1000000
        0x0001a3a2:    6001        .`      STR      r1,[r0,#0]
        0x0001a3a4:    2100        .!      MOVS     r1,#0
        0x0001a3a6:    6041        A`      STR      r1,[r0,#4]
        0x0001a3a8:    4608        .F      MOV      r0,r1
        0x0001a3aa:    4770        pG      BX       lr
    $d
        0x0001a3ac:    008313b0    ....    DCD    8590256
    $t
    i.am_hal_sdhc_disable
    am_hal_sdhc_disable
        0x0001a3b0:    2800        .(      CMP      r0,#0
        0x0001a3b2:    bf1c        ..      ITT      NE
        0x0001a3b4:    6801        .h      LDRNE    r1,[r0,#0]
        0x0001a3b6:    f0117f80    ....    TSTNE    r1,#0x1000000
        0x0001a3ba:    d004        ..      BEQ      0x1a3c6 ; am_hal_sdhc_disable + 22
        0x0001a3bc:    4b1b        .K      LDR      r3,[pc,#108] ; [0x1a42c] = 0x8313b0
        0x0001a3be:    f021427f    !..B    BIC      r2,r1,#0xff000000
        0x0001a3c2:    429a        .B      CMP      r2,r3
        0x0001a3c4:    d001        ..      BEQ      0x1a3ca ; am_hal_sdhc_disable + 26
        0x0001a3c6:    2002        .       MOVS     r0,#2
        0x0001a3c8:    4770        pG      BX       lr
        0x0001a3ca:    f0117f00    ....    TST      r1,#0x2000000
        0x0001a3ce:    bf04        ..      ITT      EQ
        0x0001a3d0:    2000        .       MOVEQ    r0,#0
        0x0001a3d2:    4770        pG      BXEQ     lr
        0x0001a3d4:    b510        ..      PUSH     {r4,lr}
        0x0001a3d6:    f0217100    !..q    BIC      r1,r1,#0x2000000
        0x0001a3da:    6001        .`      STR      r1,[r0,#0]
        0x0001a3dc:    f04f23e0    O..#    MOV      r3,#0xe000e000
        0x0001a3e0:    f04f6280    O..b    MOV      r2,#0x4000000
        0x0001a3e4:    2100        .!      MOVS     r1,#0
        0x0001a3e6:    f8c32180    ...!    STR      r2,[r3,#0x180]
        0x0001a3ea:    f3bf8f4f    ..O.    DSB      
        0x0001a3ee:    f3bf8f6f    ..o.    ISB      
        0x0001a3f2:    6842        Bh      LDR      r2,[r0,#4]
        0x0001a3f4:    f1024280    ...B    ADD      r2,r2,#0x40000000
        0x0001a3f8:    f50222e0    ..."    ADD      r2,r2,#0x70000
        0x0001a3fc:    6391        .c      STR      r1,[r2,#0x38]
        0x0001a3fe:    6842        Bh      LDR      r2,[r0,#4]
        0x0001a400:    f1024280    ...B    ADD      r2,r2,#0x40000000
        0x0001a404:    f50222e0    ..."    ADD      r2,r2,#0x70000
        0x0001a408:    6351        Qc      STR      r1,[r2,#0x34]
        0x0001a40a:    6840        @h      LDR      r0,[r0,#4]
        0x0001a40c:    1e49        I.      SUBS     r1,r1,#1
        0x0001a40e:    f1004080    ...@    ADD      r0,r0,#0x40000000
        0x0001a412:    f50020e0    ...     ADD      r0,r0,#0x70000
        0x0001a416:    6301        .c      STR      r1,[r0,#0x30]
        0x0001a418:    4805        .H      LDR      r0,[pc,#20] ; [0x1a430] = 0x40020450
        0x0001a41a:    6801        .h      LDR      r1,[r0,#0]
        0x0001a41c:    f0210103    !...    BIC      r1,r1,#3
        0x0001a420:    6001        .`      STR      r1,[r0,#0]
        0x0001a422:    200a        .       MOVS     r0,#0xa
        0x0001a424:    f000ff68    ..h.    BL       am_util_delay_ms ; 0x1b2f8
        0x0001a428:    2000        .       MOVS     r0,#0
        0x0001a42a:    bd10        ..      POP      {r4,pc}
    $d
        0x0001a42c:    008313b0    ....    DCD    8590256
        0x0001a430:    40020450    P..@    DCD    1073874000
    $t
    i.am_hal_sdhc_enable
    am_hal_sdhc_enable
        0x0001a434:    e92d41f0    -..A    PUSH     {r4-r8,lr}
        0x0001a438:    1e04        ..      SUBS     r4,r0,#0
        0x0001a43a:    bf1c        ..      ITT      NE
        0x0001a43c:    6820         h      LDRNE    r0,[r4,#0]
        0x0001a43e:    f0107f80    ....    TSTNE    r0,#0x1000000
        0x0001a442:    d004        ..      BEQ      0x1a44e ; am_hal_sdhc_enable + 26
        0x0001a444:    4a33        3J      LDR      r2,[pc,#204] ; [0x1a514] = 0x8313b0
        0x0001a446:    f020417f     ..A    BIC      r1,r0,#0xff000000
        0x0001a44a:    4291        .B      CMP      r1,r2
        0x0001a44c:    d002        ..      BEQ      0x1a454 ; am_hal_sdhc_enable + 32
        0x0001a44e:    2002        .       MOVS     r0,#2
        0x0001a450:    e8bd81f0    ....    POP      {r4-r8,pc}
        0x0001a454:    f0107f00    ....    TST      r0,#0x2000000
        0x0001a458:    bf1c        ..      ITT      NE
        0x0001a45a:    2007        .       MOVNE    r0,#7
        0x0001a45c:    e8bd81f0    ....    POPNE    {r4-r8,pc}
        0x0001a460:    6860        `h      LDR      r0,[r4,#4]
        0x0001a462:    f1004580    ...E    ADD      r5,r0,#0x40000000
        0x0001a466:    482c        ,H      LDR      r0,[pc,#176] ; [0x1a518] = 0x40020450
        0x0001a468:    f50525e0    ...%    ADD      r5,r5,#0x70000
        0x0001a46c:    6801        .h      LDR      r1,[r0,#0]
        0x0001a46e:    f0410103    A...    ORR      r1,r1,#3
        0x0001a472:    6001        .`      STR      r1,[r0,#0]
        0x0001a474:    200a        .       MOVS     r0,#0xa
        0x0001a476:    f000ff3f    ..?.    BL       am_util_delay_ms ; 0x1b2f8
        0x0001a47a:    6a68        hj      LDR      r0,[r5,#0x24]
        0x0001a47c:    f04f0801    O...    MOV      r8,#1
        0x0001a480:    f4103f80    ...?    TST      r0,#0x10000
        0x0001a484:    d007        ..      BEQ      0x1a496 ; am_hal_sdhc_enable + 98
        0x0001a486:    6ae8        .j      LDR      r0,[r5,#0x2c]
        0x0001a488:    f04f7780    O..w    MOV      r7,#0x1000000
        0x0001a48c:    f0407080    @..p    ORR      r0,r0,#0x1000000
        0x0001a490:    62e8        .b      STR      r0,[r5,#0x2c]
        0x0001a492:    2696        .&      MOVS     r6,#0x96
        0x0001a494:    e004        ..      B        0x1a4a0 ; am_hal_sdhc_enable + 108
        0x0001a496:    4640        @F      MOV      r0,r8
        0x0001a498:    e8bd81f0    ....    POP      {r4-r8,pc}
        0x0001a49c:    2e00        ..      CMP      r6,#0
        0x0001a49e:    d0fa        ..      BEQ      0x1a496 ; am_hal_sdhc_enable + 98
        0x0001a4a0:    2001        .       MOVS     r0,#1
        0x0001a4a2:    1e76        v.      SUBS     r6,r6,#1
        0x0001a4a4:    f000ff28    ..(.    BL       am_util_delay_ms ; 0x1b2f8
        0x0001a4a8:    6ae8        .j      LDR      r0,[r5,#0x2c]
        0x0001a4aa:    4238        8B      TST      r0,r7
        0x0001a4ac:    d1f6        ..      BNE      0x1a49c ; am_hal_sdhc_enable + 104
        0x0001a4ae:    491b        .I      LDR      r1,[pc,#108] ; [0x1a51c] = 0x40010000
        0x0001a4b0:    2000        .       MOVS     r0,#0
        0x0001a4b2:    f8d12294    ..."    LDR      r2,[r1,#0x294]
        0x0001a4b6:    f022027f    "...    BIC      r2,r2,#0x7f
        0x0001a4ba:    324b        K2      ADDS     r2,r2,#0x4b
        0x0001a4bc:    f8c12294    ..."    STR      r2,[r1,#0x294]
        0x0001a4c0:    f8d12294    ..."    LDR      r2,[r1,#0x294]
        0x0001a4c4:    f42242fe    "..B    BIC      r2,r2,#0x7f00
        0x0001a4c8:    f5024294    ...B    ADD      r2,r2,#0x4a00
        0x0001a4cc:    f8c12294    ..."    STR      r2,[r1,#0x294]
        0x0001a4d0:    6862        bh      LDR      r2,[r4,#4]
        0x0001a4d2:    1e41        A.      SUBS     r1,r0,#1
        0x0001a4d4:    f1024280    ...B    ADD      r2,r2,#0x40000000
        0x0001a4d8:    f50222e0    ..."    ADD      r2,r2,#0x70000
        0x0001a4dc:    6351        Qc      STR      r1,[r2,#0x34]
        0x0001a4de:    6861        ah      LDR      r1,[r4,#4]
        0x0001a4e0:    f1014180    ...A    ADD      r1,r1,#0x40000000
        0x0001a4e4:    f50121e0    ...!    ADD      r1,r1,#0x70000
        0x0001a4e8:    6388        .c      STR      r0,[r1,#0x38]
        0x0001a4ea:    4a0d        .J      LDR      r2,[pc,#52] ; [0x1a520] = 0xe000e01a
        0x0001a4ec:    2180        .!      MOVS     r1,#0x80
        0x0001a4ee:    f8821400    ....    STRB     r1,[r2,#0x400]
        0x0001a4f2:    f04f22e0    O.."    MOV      r2,#0xe000e000
        0x0001a4f6:    04c9        ..      LSLS     r1,r1,#19
        0x0001a4f8:    f8c21100    ....    STR      r1,[r2,#0x100]
        0x0001a4fc:    7520         u      STRB     r0,[r4,#0x14]
        0x0001a4fe:    7560        `u      STRB     r0,[r4,#0x15]
        0x0001a500:    61a0        .a      STR      r0,[r4,#0x18]
        0x0001a502:    61e0        .a      STR      r0,[r4,#0x1c]
        0x0001a504:    6820         h      LDR      r0,[r4,#0]
        0x0001a506:    f0407000    @..p    ORR      r0,r0,#0x2000000
        0x0001a50a:    6020         `      STR      r0,[r4,#0]
        0x0001a50c:    2000        .       MOVS     r0,#0
        0x0001a50e:    e8bd81f0    ....    POP      {r4-r8,pc}
    $d
        0x0001a512:    0000        ..      DCW    0
        0x0001a514:    008313b0    ....    DCD    8590256
        0x0001a518:    40020450    P..@    DCD    1073874000
        0x0001a51c:    40010000    ...@    DCD    1073807360
        0x0001a520:    e000e01a    ....    DCD    3758153754
    $t
    i.am_hal_sdhc_execute_cmd
    am_hal_sdhc_execute_cmd
        0x0001a524:    e92d4ff7    -..O    PUSH     {r0-r2,r4-r11,lr}
        0x0001a528:    b082        ..      SUB      sp,sp,#8
        0x0001a52a:    460f        .F      MOV      r7,r1
        0x0001a52c:    1e04        ..      SUBS     r4,r0,#0
        0x0001a52e:    bf1c        ..      ITT      NE
        0x0001a530:    6820         h      LDRNE    r0,[r4,#0]
        0x0001a532:    f0107f80    ....    TSTNE    r0,#0x1000000
        0x0001a536:    d004        ..      BEQ      0x1a542 ; am_hal_sdhc_execute_cmd + 30
        0x0001a538:    4aff        .J      LDR      r2,[pc,#1020] ; [0x1a938] = 0x8313b0
        0x0001a53a:    f020417f     ..A    BIC      r1,r0,#0xff000000
        0x0001a53e:    4291        .B      CMP      r1,r2
        0x0001a540:    d003        ..      BEQ      0x1a54a ; am_hal_sdhc_execute_cmd + 38
        0x0001a542:    b005        ..      ADD      sp,sp,#0x14
        0x0001a544:    2002        .       MOVS     r0,#2
        0x0001a546:    e8bd8ff0    ....    POP      {r4-r11,pc}
        0x0001a54a:    f0107f00    ....    TST      r0,#0x2000000
        0x0001a54e:    bf02        ..      ITTT     EQ
        0x0001a550:    2007        .       MOVEQ    r0,#7
        0x0001a552:    b005        ..      ADDEQ    sp,sp,#0x14
        0x0001a554:    e8bd8ff0    ....    POPEQ    {r4-r11,pc}
        0x0001a558:    6860        `h      LDR      r0,[r4,#4]
        0x0001a55a:    f1004580    ...E    ADD      r5,r0,#0x40000000
        0x0001a55e:    f8940039    ..9.    LDRB     r0,[r4,#0x39]
        0x0001a562:    f50525e0    ...%    ADD      r5,r5,#0x70000
        0x0001a566:    2800        .(      CMP      r0,#0
        0x0001a568:    bf02        ..      ITTT     EQ
        0x0001a56a:    2003        .       MOVEQ    r0,#3
        0x0001a56c:    b005        ..      ADDEQ    sp,sp,#0x14
        0x0001a56e:    e8bd8ff0    ....    POPEQ    {r4-r11,pc}
        0x0001a572:    7d20         }      LDRB     r0,[r4,#0x14]
        0x0001a574:    f04f0800    O...    MOV      r8,#0
        0x0001a578:    b1c0        ..      CBZ      r0,0x1a5ac ; am_hal_sdhc_execute_cmd + 136
        0x0001a57a:    6a68        hj      LDR      r0,[r5,#0x24]
        0x0001a57c:    f4103f80    ...?    TST      r0,#0x10000
        0x0001a580:    d012        ..      BEQ      0x1a5a8 ; am_hal_sdhc_execute_cmd + 132
        0x0001a582:    6ae8        .j      LDR      r0,[r5,#0x2c]
        0x0001a584:    f04f7600    O..v    MOV      r6,#0x2000000
        0x0001a588:    f0407000    @..p    ORR      r0,r0,#0x2000000
        0x0001a58c:    62e8        .b      STR      r0,[r5,#0x2c]
        0x0001a58e:    f04f0996    O...    MOV      r9,#0x96
        0x0001a592:    2001        .       MOVS     r0,#1
        0x0001a594:    f1a90901    ....    SUB      r9,r9,#1
        0x0001a598:    f000feae    ....    BL       am_util_delay_ms ; 0x1b2f8
        0x0001a59c:    6ae8        .j      LDR      r0,[r5,#0x2c]
        0x0001a59e:    4230        0B      TST      r0,r6
        0x0001a5a0:    bf18        ..      IT       NE
        0x0001a5a2:    f1b90f00    ....    CMPNE    r9,#0
        0x0001a5a6:    d1f4        ..      BNE      0x1a592 ; am_hal_sdhc_execute_cmd + 110
        0x0001a5a8:    f8848014    ....    STRB     r8,[r4,#0x14]
        0x0001a5ac:    7d60        `}      LDRB     r0,[r4,#0x15]
        0x0001a5ae:    b1c8        ..      CBZ      r0,0x1a5e4 ; am_hal_sdhc_execute_cmd + 192
        0x0001a5b0:    6a68        hj      LDR      r0,[r5,#0x24]
        0x0001a5b2:    f4103f80    ...?    TST      r0,#0x10000
        0x0001a5b6:    d013        ..      BEQ      0x1a5e0 ; am_hal_sdhc_execute_cmd + 188
        0x0001a5b8:    6ae8        .j      LDR      r0,[r5,#0x2c]
        0x0001a5ba:    f04f6680    O..f    MOV      r6,#0x4000000
        0x0001a5be:    f0406080    @..`    ORR      r0,r0,#0x4000000
        0x0001a5c2:    62e8        .b      STR      r0,[r5,#0x2c]
        0x0001a5c4:    f04f0996    O...    MOV      r9,#0x96
        0x0001a5c8:    f04f0001    O...    MOV      r0,#1
        0x0001a5cc:    f1a90901    ....    SUB      r9,r9,#1
        0x0001a5d0:    f000fe92    ....    BL       am_util_delay_ms ; 0x1b2f8
        0x0001a5d4:    6ae8        .j      LDR      r0,[r5,#0x2c]
        0x0001a5d6:    4230        0B      TST      r0,r6
        0x0001a5d8:    bf18        ..      IT       NE
        0x0001a5da:    f1b90f00    ....    CMPNE    r9,#0
        0x0001a5de:    d1f3        ..      BNE      0x1a5c8 ; am_hal_sdhc_execute_cmd + 164
        0x0001a5e0:    f8848015    ....    STRB     r8,[r4,#0x15]
        0x0001a5e4:    6b68        hk      LDR      r0,[r5,#0x34]
        0x0001a5e6:    f4207080     ..p    BIC      r0,r0,#0x100
        0x0001a5ea:    6368        hc      STR      r0,[r5,#0x34]
        0x0001a5ec:    f04f30ff    O..0    MOV      r0,#0xffffffff
        0x0001a5f0:    6328        (c      STR      r0,[r5,#0x30]
        0x0001a5f2:    f8c58038    ..8.    STR      r8,[r5,#0x38]
        0x0001a5f6:    6ae8        .j      LDR      r0,[r5,#0x2c]
        0x0001a5f8:    f0400004    @...    ORR      r0,r0,#4
        0x0001a5fc:    62e8        .b      STR      r0,[r5,#0x2c]
        0x0001a5fe:    9e04        ..      LDR      r6,[sp,#0x10]
        0x0001a600:    f04f0203    O...    MOV      r2,#3
        0x0001a604:    b10e        ..      CBZ      r6,0x1a60a ; am_hal_sdhc_execute_cmd + 230
        0x0001a606:    78b0        .x      LDRB     r0,[r6,#2]
        0x0001a608:    b108        ..      CBZ      r0,0x1a60e ; am_hal_sdhc_execute_cmd + 234
        0x0001a60a:    f04f0201    O...    MOV      r2,#1
        0x0001a60e:    4613        .F      MOV      r3,r2
        0x0001a610:    f1050124    ..$.    ADD      r1,r5,#0x24
        0x0001a614:    f04f0064    O.d.    MOV      r0,#0x64
        0x0001a618:    f8cd8000    ....    STR      r8,[sp,#0]
        0x0001a61c:    f7fff9ba    ....    BL       am_hal_delay_us_status_check ; 0x19994
        0x0001a620:    2804        .(      CMP      r0,#4
        0x0001a622:    d039        9.      BEQ      0x1a698 ; am_hal_sdhc_execute_cmd + 372
        0x0001a624:    68b9        .h      LDR      r1,[r7,#8]
        0x0001a626:    2000        .       MOVS     r0,#0
        0x0001a628:    f0110f01    ....    TST      r1,#1
        0x0001a62c:    d005        ..      BEQ      0x1a63a ; am_hal_sdhc_execute_cmd + 278
        0x0001a62e:    f0110f02    ....    TST      r1,#2
        0x0001a632:    bf18        ..      IT       NE
        0x0001a634:    f44f3080    O..0    MOVNE    r0,#0x10000
        0x0001a638:    d039        9.      BEQ      0x1a6ae ; am_hal_sdhc_execute_cmd + 394
        0x0001a63a:    2e00        ..      CMP      r6,#0
        0x0001a63c:    bf18        ..      IT       NE
        0x0001a63e:    f4401000    @...    ORRNE    r0,r0,#0x200000
        0x0001a642:    f0110f04    ....    TST      r1,#4
        0x0001a646:    bf18        ..      IT       NE
        0x0001a648:    f4402000    @..     ORRNE    r0,r0,#0x80000
        0x0001a64c:    f0110f10    ....    TST      r1,#0x10
        0x0001a650:    bf18        ..      IT       NE
        0x0001a652:    f4401080    @...    ORRNE    r0,r0,#0x100000
        0x0001a656:    7839        9x      LDRB     r1,[r7,#0]
        0x0001a658:    f04f0b00    O...    MOV      r11,#0
        0x0001a65c:    ea406001    @..`    ORR      r0,r0,r1,LSL #24
        0x0001a660:    f8cdb004    ....    STR      r11,[sp,#4]
        0x0001a664:    9000        ..      STR      r0,[sp,#0]
        0x0001a666:    2e00        ..      CMP      r6,#0
        0x0001a668:    d07e        ~.      BEQ      0x1a768 ; am_hal_sdhc_execute_cmd + 580
        0x0001a66a:    6870        ph      LDR      r0,[r6,#4]
        0x0001a66c:    6220         b      STR      r0,[r4,#0x20]
        0x0001a66e:    e9d61002    ....    LDRD     r1,r0,[r6,#8]
        0x0001a672:    4348        HC      MULS     r0,r1,r0
        0x0001a674:    6260        `b      STR      r0,[r4,#0x24]
        0x0001a676:    7830        0x      LDRB     r0,[r6,#0]
        0x0001a678:    f8840038    ..8.    STRB     r0,[r4,#0x38]
        0x0001a67c:    68b0        .h      LDR      r0,[r6,#8]
        0x0001a67e:    6320         c      STR      r0,[r4,#0x30]
        0x0001a680:    68f0        .h      LDR      r0,[r6,#0xc]
        0x0001a682:    62a0        .b      STR      r0,[r4,#0x28]
        0x0001a684:    68f0        .h      LDR      r0,[r6,#0xc]
        0x0001a686:    62e0        .b      STR      r0,[r4,#0x2c]
        0x0001a688:    7830        0x      LDRB     r0,[r6,#0]
        0x0001a68a:    2800        .(      CMP      r0,#0
        0x0001a68c:    bf08        ..      IT       EQ
        0x0001a68e:    f04f0b10    O...    MOVEQ    r11,#0x10
        0x0001a692:    7870        px      LDRB     r0,[r6,#1]
        0x0001a694:    b9b0        ..      CBNZ     r0,0x1a6c4 ; am_hal_sdhc_execute_cmd + 416
        0x0001a696:    e012        ..      B        0x1a6be ; am_hal_sdhc_execute_cmd + 410
        0x0001a698:    2101        .!      MOVS     r1,#1
        0x0001a69a:    f8871020    .. .    STRB     r1,[r7,#0x20]
        0x0001a69e:    7521        !u      STRB     r1,[r4,#0x14]
        0x0001a6a0:    69e1        .i      LDR      r1,[r4,#0x1c]
        0x0001a6a2:    2004        .       MOVS     r0,#4
        0x0001a6a4:    1c49        I.      ADDS     r1,r1,#1
        0x0001a6a6:    61e1        .a      STR      r1,[r4,#0x1c]
        0x0001a6a8:    b005        ..      ADD      sp,sp,#0x14
        0x0001a6aa:    e8bd8ff0    ....    POP      {r4-r11,pc}
        0x0001a6ae:    f0110f08    ....    TST      r1,#8
        0x0001a6b2:    bf14        ..      ITE      NE
        0x0001a6b4:    f44f3040    O.@0    MOVNE    r0,#0x30000
        0x0001a6b8:    f44f3000    O..0    MOVEQ    r0,#0x20000
        0x0001a6bc:    e7bd        ..      B        0x1a63a ; am_hal_sdhc_execute_cmd + 278
        0x0001a6be:    6920         i      LDR      r0,[r4,#0x10]
        0x0001a6c0:    7a80        .z      LDRB     r0,[r0,#0xa]
        0x0001a6c2:    7070        pp      STRB     r0,[r6,#1]
        0x0001a6c4:    b2c0        ..      UXTB     r0,r0
        0x0001a6c6:    2802        .(      CMP      r0,#2
        0x0001a6c8:    d002        ..      BEQ      0x1a6d0 ; am_hal_sdhc_execute_cmd + 428
        0x0001a6ca:    2803        .(      CMP      r0,#3
        0x0001a6cc:    d00e        ..      BEQ      0x1a6ec ; am_hal_sdhc_execute_cmd + 456
        0x0001a6ce:    e042        B.      B        0x1a756 ; am_hal_sdhc_execute_cmd + 562
        0x0001a6d0:    6aa8        .j      LDR      r0,[r5,#0x28]
        0x0001a6d2:    f04b0b01    K...    ORR      r11,r11,#1
        0x0001a6d6:    f0200118     ...    BIC      r1,r0,#0x18
        0x0001a6da:    62a9        .b      STR      r1,[r5,#0x28]
        0x0001a6dc:    6871        qh      LDR      r1,[r6,#4]
        0x0001a6de:    6029        )`      STR      r1,[r5,#0]
        0x0001a6e0:    68a0        .h      LDR      r0,[r4,#8]
        0x0001a6e2:    68b1        .h      LDR      r1,[r6,#8]
        0x0001a6e4:    fbb0f0f1    ....    UDIV     r0,r0,r1
        0x0001a6e8:    6360        `c      STR      r0,[r4,#0x34]
        0x0001a6ea:    e034        4.      B        0x1a756 ; am_hal_sdhc_execute_cmd + 562
        0x0001a6ec:    6aa8        .j      LDR      r0,[r5,#0x28]
        0x0001a6ee:    f04b0b01    K...    ORR      r11,r11,#1
        0x0001a6f2:    f0200018     ...    BIC      r0,r0,#0x18
        0x0001a6f6:    f1000110    ....    ADD      r1,r0,#0x10
        0x0001a6fa:    62a9        .b      STR      r1,[r5,#0x28]
        0x0001a6fc:    68f0        .h      LDR      r0,[r6,#0xc]
        0x0001a6fe:    2200        ."      MOVS     r2,#0
        0x0001a700:    f8dfe238    ..8.    LDR      lr,[pc,#568] ; [0x1a93c] = 0x1000108c
        0x0001a704:    6871        qh      LDR      r1,[r6,#4]
        0x0001a706:    2800        .(      CMP      r0,#0
        0x0001a708:    dd23        #.      BLE      0x1a752 ; am_hal_sdhc_execute_cmd + 558
        0x0001a70a:    68b3        .h      LDR      r3,[r6,#8]
        0x0001a70c:    287f        .(      CMP      r0,#0x7f
        0x0001a70e:    bfcd        ..      ITEET    GT
        0x0001a710:    ebc31cc3    ....    RSBGT    r12,r3,r3,LSL #7
        0x0001a714:    fb03fc00    ....    MULLE    r12,r3,r0
        0x0001a718:    f04f0801    O...    MOVLE    r8,#1
        0x0001a71c:    f04f0800    O...    MOVGT    r8,#0
        0x0001a720:    fa1ffa8c    ....    UXTH     r10,r12
        0x0001a724:    eb0e03c2    ....    ADD      r3,lr,r2,LSL #3
        0x0001a728:    f04f0921    O.!.    MOV      r9,#0x21
        0x0001a72c:    f1b80f00    ....    CMP      r8,#0
        0x0001a730:    bf18        ..      IT       NE
        0x0001a732:    f04f0923    O.#.    MOVNE    r9,#0x23
        0x0001a736:    f8839000    ....    STRB     r9,[r3,#0]
        0x0001a73a:    f8a3a002    ....    STRH     r10,[r3,#2]
        0x0001a73e:    f04f0800    O...    MOV      r8,#0
        0x0001a742:    f8838001    ....    STRB     r8,[r3,#1]
        0x0001a746:    6059        Y`      STR      r1,[r3,#4]
        0x0001a748:    387f        .8      SUBS     r0,r0,#0x7f
        0x0001a74a:    1c52        R.      ADDS     r2,r2,#1
        0x0001a74c:    4461        aD      ADD      r1,r1,r12
        0x0001a74e:    2800        .(      CMP      r0,#0
        0x0001a750:    dcdb        ..      BGT      0x1a70a ; am_hal_sdhc_execute_cmd + 486
        0x0001a752:    f8c5e058    ..X.    STR      lr,[r5,#0x58]
        0x0001a756:    7bb8        .{      LDRB     r0,[r7,#0xe]
        0x0001a758:    2800        .(      CMP      r0,#0
        0x0001a75a:    bf18        ..      IT       NE
        0x0001a75c:    f04b0b04    K...    ORRNE    r11,r11,#4
        0x0001a760:    d107        ..      BNE      0x1a772 ; am_hal_sdhc_execute_cmd + 590
        0x0001a762:    7bf8        .{      LDRB     r0,[r7,#0xf]
        0x0001a764:    b128        (.      CBZ      r0,0x1a772 ; am_hal_sdhc_execute_cmd + 590
        0x0001a766:    e000        ..      B        0x1a76a ; am_hal_sdhc_execute_cmd + 582
        0x0001a768:    e014        ..      B        0x1a794 ; am_hal_sdhc_execute_cmd + 624
        0x0001a76a:    68f1        .h      LDR      r1,[r6,#0xc]
        0x0001a76c:    f04b0b08    K...    ORR      r11,r11,#8
        0x0001a770:    6029        )`      STR      r1,[r5,#0]
        0x0001a772:    68b1        .h      LDR      r1,[r6,#8]
        0x0001a774:    9801        ..      LDR      r0,[sp,#4]
        0x0001a776:    4308        .C      ORRS     r0,r0,r1
        0x0001a778:    68f1        .h      LDR      r1,[r6,#0xc]
        0x0001a77a:    2901        .)      CMP      r1,#1
        0x0001a77c:    bf84        ..      ITT      HI
        0x0001a77e:    f04b0b22    K.".    ORRHI    r11,r11,#0x22
        0x0001a782:    ea404001    @..@    ORRHI    r0,r0,r1,LSL #16
        0x0001a786:    6869        ih      LDR      r1,[r5,#4]
        0x0001a788:    4301        .C      ORRS     r1,r1,r0
        0x0001a78a:    6069        i`      STR      r1,[r5,#4]
        0x0001a78c:    6ae8        .j      LDR      r0,[r5,#0x2c]
        0x0001a78e:    f4402160    @.`!    ORR      r1,r0,#0xe0000
        0x0001a792:    62e9        .b      STR      r1,[r5,#0x2c]
        0x0001a794:    9800        ..      LDR      r0,[sp,#0]
        0x0001a796:    2100        .!      MOVS     r1,#0
        0x0001a798:    ea4b0600    K...    ORR      r6,r11,r0
        0x0001a79c:    2001        .       MOVS     r0,#1
        0x0001a79e:    f7feffbd    ....    BL       am_hal_daxi_control ; 0x1971c
        0x0001a7a2:    6879        yh      LDR      r1,[r7,#4]
        0x0001a7a4:    60a9        .`      STR      r1,[r5,#8]
        0x0001a7a6:    60ee        .`      STR      r6,[r5,#0xc]
        0x0001a7a8:    2601        .&      MOVS     r6,#1
        0x0001a7aa:    46b0        .F      MOV      r8,r6
        0x0001a7ac:    4642        BF      MOV      r2,r8
        0x0001a7ae:    f04f0900    O...    MOV      r9,#0
        0x0001a7b2:    4613        .F      MOV      r3,r2
        0x0001a7b4:    f1050130    ..0.    ADD      r1,r5,#0x30
        0x0001a7b8:    f44f60fa    O..`    MOV      r0,#0x7d0
        0x0001a7bc:    9600        ..      STR      r6,[sp,#0]
        0x0001a7be:    f7fff8e9    ....    BL       am_hal_delay_us_status_check ; 0x19994
        0x0001a7c2:    b300        ..      CBZ      r0,0x1a806 ; am_hal_sdhc_execute_cmd + 738
        0x0001a7c4:    6b28        (k      LDR      r0,[r5,#0x30]
        0x0001a7c6:    f4102f00    .../    TST      r0,#0x80000
        0x0001a7ca:    bf18        ..      IT       NE
        0x0001a7cc:    2003        .       MOVNE    r0,#3
        0x0001a7ce:    d00a        ..      BEQ      0x1a7e6 ; am_hal_sdhc_execute_cmd + 706
        0x0001a7d0:    f8870020    .. .    STRB     r0,[r7,#0x20]
        0x0001a7d4:    f8848014    ....    STRB     r8,[r4,#0x14]
        0x0001a7d8:    69e0        .i      LDR      r0,[r4,#0x1c]
        0x0001a7da:    1c40        @.      ADDS     r0,r0,#1
        0x0001a7dc:    61e0        .a      STR      r0,[r4,#0x1c]
        0x0001a7de:    b005        ..      ADD      sp,sp,#0x14
        0x0001a7e0:    2004        .       MOVS     r0,#4
        0x0001a7e2:    e8bd8ff0    ....    POP      {r4-r11,pc}
        0x0001a7e6:    f4102f80    .../    TST      r0,#0x40000
        0x0001a7ea:    bf18        ..      IT       NE
        0x0001a7ec:    2005        .       MOVNE    r0,#5
        0x0001a7ee:    d1ef        ..      BNE      0x1a7d0 ; am_hal_sdhc_execute_cmd + 684
        0x0001a7f0:    f4103f00    ...?    TST      r0,#0x20000
        0x0001a7f4:    bf18        ..      IT       NE
        0x0001a7f6:    2004        .       MOVNE    r0,#4
        0x0001a7f8:    d1ea        ..      BNE      0x1a7d0 ; am_hal_sdhc_execute_cmd + 684
        0x0001a7fa:    f4103f80    ...?    TST      r0,#0x10000
        0x0001a7fe:    bf14        ..      ITE      NE
        0x0001a800:    2006        .       MOVNE    r0,#6
        0x0001a802:    2002        .       MOVEQ    r0,#2
        0x0001a804:    e7e4        ..      B        0x1a7d0 ; am_hal_sdhc_execute_cmd + 684
        0x0001a806:    632e        .c      STR      r6,[r5,#0x30]
        0x0001a808:    f8879020    .. .    STRB     r9,[r7,#0x20]
        0x0001a80c:    68b8        .h      LDR      r0,[r7,#8]
        0x0001a80e:    b1b8        ..      CBZ      r0,0x1a840 ; am_hal_sdhc_execute_cmd + 796
        0x0001a810:    f0100f02    ....    TST      r0,#2
        0x0001a814:    bf04        ..      ITT      EQ
        0x0001a816:    6928        (i      LDREQ    r0,[r5,#0x10]
        0x0001a818:    6138        8a      STREQ    r0,[r7,#0x10]
        0x0001a81a:    d011        ..      BEQ      0x1a840 ; am_hal_sdhc_execute_cmd + 796
        0x0001a81c:    6929        )i      LDR      r1,[r5,#0x10]
        0x0001a81e:    6968        hi      LDR      r0,[r5,#0x14]
        0x0001a820:    69aa        .i      LDR      r2,[r5,#0x18]
        0x0001a822:    69eb        .i      LDR      r3,[r5,#0x1c]
        0x0001a824:    021b        ..      LSLS     r3,r3,#8
        0x0001a826:    ea436312    C..c    ORR      r3,r3,r2,LSR #24
        0x0001a82a:    0212        ..      LSLS     r2,r2,#8
        0x0001a82c:    ea426210    B..b    ORR      r2,r2,r0,LSR #24
        0x0001a830:    0200        ..      LSLS     r0,r0,#8
        0x0001a832:    ea406011    @..`    ORR      r0,r0,r1,LSR #24
        0x0001a836:    613b        ;a      STR      r3,[r7,#0x10]
        0x0001a838:    e9c72005    ...     STRD     r2,r0,[r7,#0x14]
        0x0001a83c:    0208        ..      LSLS     r0,r1,#8
        0x0001a83e:    61f8        .a      STR      r0,[r7,#0x1c]
        0x0001a840:    7b78        x{      LDRB     r0,[r7,#0xd]
        0x0001a842:    b150        P.      CBZ      r0,0x1a85a ; am_hal_sdhc_execute_cmd + 822
        0x0001a844:    f7fdfd8a    ....    BL       am_hal_interrupt_master_disable ; 0x1835c
        0x0001a848:    9000        ..      STR      r0,[sp,#0]
        0x0001a84a:    f04f30ff    O..0    MOV      r0,#0xffffffff
        0x0001a84e:    63a8        .c      STR      r0,[r5,#0x38]
        0x0001a850:    f8849039    ..9.    STRB     r9,[r4,#0x39]
        0x0001a854:    9800        ..      LDR      r0,[sp,#0]
        0x0001a856:    f7fdfd85    ....    BL       am_hal_interrupt_master_set ; 0x18364
        0x0001a85a:    9804        ..      LDR      r0,[sp,#0x10]
        0x0001a85c:    b110        ..      CBZ      r0,0x1a864 ; am_hal_sdhc_execute_cmd + 832
        0x0001a85e:    7b78        x{      LDRB     r0,[r7,#0xd]
        0x0001a860:    b150        P.      CBZ      r0,0x1a878 ; am_hal_sdhc_execute_cmd + 852
        0x0001a862:    e005        ..      B        0x1a870 ; am_hal_sdhc_execute_cmd + 844
        0x0001a864:    7b38        8{      LDRB     r0,[r7,#0xc]
        0x0001a866:    b918        ..      CBNZ     r0,0x1a870 ; am_hal_sdhc_execute_cmd + 844
        0x0001a868:    6ae8        .j      LDR      r0,[r5,#0x2c]
        0x0001a86a:    f0200004     ...    BIC      r0,r0,#4
        0x0001a86e:    62e8        .b      STR      r0,[r5,#0x2c]
        0x0001a870:    b005        ..      ADD      sp,sp,#0x14
        0x0001a872:    2000        .       MOVS     r0,#0
        0x0001a874:    e8bd8ff0    ....    POP      {r4-r11,pc}
        0x0001a878:    f8dda010    ....    LDR      r10,[sp,#0x10]
        0x0001a87c:    6860        `h      LDR      r0,[r4,#4]
        0x0001a87e:    f44f51fa    O..Q    MOV      r1,#0x1f40
        0x0001a882:    f1004680    ...F    ADD      r6,r0,#0x40000000
        0x0001a886:    f8da000c    ....    LDR      r0,[r10,#0xc]
        0x0001a88a:    f50626e0    ...&    ADD      r6,r6,#0x70000
        0x0001a88e:    fb00f701    ....    MUL      r7,r0,r1
        0x0001a892:    f8940038    ..8.    LDRB     r0,[r4,#0x38]
        0x0001a896:    2800        .(      CMP      r0,#0
        0x0001a898:    bf14        ..      ITE      NE
        0x0001a89a:    2010        .       MOVNE    r0,#0x10
        0x0001a89c:    2020                MOVEQ    r0,#0x20
        0x0001a89e:    f04f0b00    O...    MOV      r11,#0
        0x0001a8a2:    465d        ]F      MOV      r5,r11
        0x0001a8a4:    f04f0902    O...    MOV      r9,#2
        0x0001a8a8:    9000        ..      STR      r0,[sp,#0]
        0x0001a8aa:    e0c4        ..      B        0x1aa36 ; am_hal_sdhc_execute_cmd + 1298
        0x0001a8ac:    6b35        5k      LDR      r5,[r6,#0x30]
        0x0001a8ae:    f0150f02    ....    TST      r5,#2
        0x0001a8b2:    d00a        ..      BEQ      0x1a8ca ; am_hal_sdhc_execute_cmd + 934
        0x0001a8b4:    2100        .!      MOVS     r1,#0
        0x0001a8b6:    4608        .F      MOV      r0,r1
        0x0001a8b8:    f7feff30    ..0.    BL       am_hal_daxi_control ; 0x1971c
        0x0001a8bc:    f8c69030    ..0.    STR      r9,[r6,#0x30]
        0x0001a8c0:    2000        .       MOVS     r0,#0
        0x0001a8c2:    f04f0b01    O...    MOV      r11,#1
        0x0001a8c6:    62a0        .b      STR      r0,[r4,#0x28]
        0x0001a8c8:    e0b0        ..      B        0x1aa2c ; am_hal_sdhc_execute_cmd + 1288
        0x0001a8ca:    f0150f08    ....    TST      r5,#8
        0x0001a8ce:    d016        ..      BEQ      0x1a8fe ; am_hal_sdhc_execute_cmd + 986
        0x0001a8d0:    2100        .!      MOVS     r1,#0
        0x0001a8d2:    4608        .F      MOV      r0,r1
        0x0001a8d4:    f7feff22    ..".    BL       am_hal_daxi_control ; 0x1971c
        0x0001a8d8:    2008        .       MOVS     r0,#8
        0x0001a8da:    6330        0c      STR      r0,[r6,#0x30]
        0x0001a8dc:    6b62        bk      LDR      r2,[r4,#0x34]
        0x0001a8de:    6aa1        .j      LDR      r1,[r4,#0x28]
        0x0001a8e0:    6860        `h      LDR      r0,[r4,#4]
        0x0001a8e2:    1a89        ..      SUBS     r1,r1,r2
        0x0001a8e4:    62a1        .b      STR      r1,[r4,#0x28]
        0x0001a8e6:    68a2        .h      LDR      r2,[r4,#8]
        0x0001a8e8:    6a21        !j      LDR      r1,[r4,#0x20]
        0x0001a8ea:    f0220203    "...    BIC      r2,r2,#3
        0x0001a8ee:    f1004080    ...@    ADD      r0,r0,#0x40000000
        0x0001a8f2:    4411        .D      ADD      r1,r1,r2
        0x0001a8f4:    f50020e0    ...     ADD      r0,r0,#0x70000
        0x0001a8f8:    6221        !b      STR      r1,[r4,#0x20]
        0x0001a8fa:    6001        .`      STR      r1,[r0,#0]
        0x0001a8fc:    e096        ..      B        0x1aa2c ; am_hal_sdhc_execute_cmd + 1288
        0x0001a8fe:    9800        ..      LDR      r0,[sp,#0]
        0x0001a900:    4205        .B      TST      r5,r0
        0x0001a902:    d06f        o.      BEQ      0x1a9e4 ; am_hal_sdhc_execute_cmd + 1216
        0x0001a904:    9800        ..      LDR      r0,[sp,#0]
        0x0001a906:    6330        0c      STR      r0,[r6,#0x30]
        0x0001a908:    f8940038    ..8.    LDRB     r0,[r4,#0x38]
        0x0001a90c:    2800        .(      CMP      r0,#0
        0x0001a90e:    bf0c        ..      ITE      EQ
        0x0001a910:    f44f6300    O..c    MOVEQ    r3,#0x800
        0x0001a914:    f44f6380    O..c    MOVNE    r3,#0x400
        0x0001a918:    6860        `h      LDR      r0,[r4,#4]
        0x0001a91a:    f1004080    ...@    ADD      r0,r0,#0x40000000
        0x0001a91e:    f50020e0    ...     ADD      r0,r0,#0x70000
        0x0001a922:    6a41        Aj      LDR      r1,[r0,#0x24]
        0x0001a924:    4219        .B      TST      r1,r3
        0x0001a926:    d070        p.      BEQ      0x1aa0a ; am_hal_sdhc_execute_cmd + 1254
        0x0001a928:    f8941038    ..8.    LDRB     r1,[r4,#0x38]
        0x0001a92c:    2900        .)      CMP      r1,#0
        0x0001a92e:    6b21        !k      LDR      r1,[r4,#0x30]
        0x0001a930:    d02d        -.      BEQ      0x1a98e ; am_hal_sdhc_execute_cmd + 1130
        0x0001a932:    b329        ).      CBZ      r1,0x1a980 ; am_hal_sdhc_execute_cmd + 1116
        0x0001a934:    1cc9        ..      ADDS     r1,r1,#3
        0x0001a936:    e003        ..      B        0x1a940 ; am_hal_sdhc_execute_cmd + 1052
    $d
        0x0001a938:    008313b0    ....    DCD    8590256
        0x0001a93c:    1000108c    ....    DCD    268439692
    $t
        0x0001a940:    2903        .)      CMP      r1,#3
        0x0001a942:    bf98        ..      IT       LS
        0x0001a944:    2100        .!      MOVLS    r1,#0
        0x0001a946:    d908        ..      BLS      0x1a95a ; am_hal_sdhc_execute_cmd + 1078
        0x0001a948:    f3c10180    ....    UBFX     r1,r1,#2,#1
        0x0001a94c:    b129        ).      CBZ      r1,0x1a95a ; am_hal_sdhc_execute_cmd + 1078
        0x0001a94e:    6a22        "j      LDR      r2,[r4,#0x20]
        0x0001a950:    6812        .h      LDR      r2,[r2,#0]
        0x0001a952:    6202        .b      STR      r2,[r0,#0x20]
        0x0001a954:    6a22        "j      LDR      r2,[r4,#0x20]
        0x0001a956:    1d12        ..      ADDS     r2,r2,#4
        0x0001a958:    6222        "b      STR      r2,[r4,#0x20]
        0x0001a95a:    6b22        "k      LDR      r2,[r4,#0x30]
        0x0001a95c:    0089        ..      LSLS     r1,r1,#2
        0x0001a95e:    428a        .B      CMP      r2,r1
        0x0001a960:    d90e        ..      BLS      0x1a980 ; am_hal_sdhc_execute_cmd + 1116
        0x0001a962:    6a22        "j      LDR      r2,[r4,#0x20]
        0x0001a964:    6812        .h      LDR      r2,[r2,#0]
        0x0001a966:    6202        .b      STR      r2,[r0,#0x20]
        0x0001a968:    6a22        "j      LDR      r2,[r4,#0x20]
        0x0001a96a:    1d12        ..      ADDS     r2,r2,#4
        0x0001a96c:    6222        "b      STR      r2,[r4,#0x20]
        0x0001a96e:    6812        .h      LDR      r2,[r2,#0]
        0x0001a970:    6202        .b      STR      r2,[r0,#0x20]
        0x0001a972:    6a22        "j      LDR      r2,[r4,#0x20]
        0x0001a974:    3108        .1      ADDS     r1,r1,#8
        0x0001a976:    1d12        ..      ADDS     r2,r2,#4
        0x0001a978:    6222        "b      STR      r2,[r4,#0x20]
        0x0001a97a:    6b22        "k      LDR      r2,[r4,#0x30]
        0x0001a97c:    428a        .B      CMP      r2,r1
        0x0001a97e:    d8f0        ..      BHI      0x1a962 ; am_hal_sdhc_execute_cmd + 1086
        0x0001a980:    6aa1        .j      LDR      r1,[r4,#0x28]
        0x0001a982:    1e49        I.      SUBS     r1,r1,#1
        0x0001a984:    62a1        .b      STR      r1,[r4,#0x28]
        0x0001a986:    6a41        Aj      LDR      r1,[r0,#0x24]
        0x0001a988:    4219        .B      TST      r1,r3
        0x0001a98a:    d1cd        ..      BNE      0x1a928 ; am_hal_sdhc_execute_cmd + 1028
        0x0001a98c:    e04e        N.      B        0x1aa2c ; am_hal_sdhc_execute_cmd + 1288
        0x0001a98e:    2900        .)      CMP      r1,#0
        0x0001a990:    d0f6        ..      BEQ      0x1a980 ; am_hal_sdhc_execute_cmd + 1116
        0x0001a992:    1cc9        ..      ADDS     r1,r1,#3
        0x0001a994:    2903        .)      CMP      r1,#3
        0x0001a996:    bf98        ..      IT       LS
        0x0001a998:    2100        .!      MOVLS    r1,#0
        0x0001a99a:    d90a        ..      BLS      0x1a9b2 ; am_hal_sdhc_execute_cmd + 1166
        0x0001a99c:    f3c10180    ....    UBFX     r1,r1,#2,#1
        0x0001a9a0:    b139        9.      CBZ      r1,0x1a9b2 ; am_hal_sdhc_execute_cmd + 1166
        0x0001a9a2:    6a02        .j      LDR      r2,[r0,#0x20]
        0x0001a9a4:    f8d4c020    .. .    LDR      r12,[r4,#0x20]
        0x0001a9a8:    f8cc2000    ...     STR      r2,[r12,#0]
        0x0001a9ac:    6a22        "j      LDR      r2,[r4,#0x20]
        0x0001a9ae:    1d12        ..      ADDS     r2,r2,#4
        0x0001a9b0:    6222        "b      STR      r2,[r4,#0x20]
        0x0001a9b2:    6b22        "k      LDR      r2,[r4,#0x30]
        0x0001a9b4:    0089        ..      LSLS     r1,r1,#2
        0x0001a9b6:    428a        .B      CMP      r2,r1
        0x0001a9b8:    d9e2        ..      BLS      0x1a980 ; am_hal_sdhc_execute_cmd + 1116
        0x0001a9ba:    6a02        .j      LDR      r2,[r0,#0x20]
        0x0001a9bc:    f8d4c020    .. .    LDR      r12,[r4,#0x20]
        0x0001a9c0:    f8cc2000    ...     STR      r2,[r12,#0]
        0x0001a9c4:    6a22        "j      LDR      r2,[r4,#0x20]
        0x0001a9c6:    1d12        ..      ADDS     r2,r2,#4
        0x0001a9c8:    6222        "b      STR      r2,[r4,#0x20]
        0x0001a9ca:    f8d0c020    .. .    LDR      r12,[r0,#0x20]
        0x0001a9ce:    f8c2c000    ....    STR      r12,[r2,#0]
        0x0001a9d2:    6a22        "j      LDR      r2,[r4,#0x20]
        0x0001a9d4:    3108        .1      ADDS     r1,r1,#8
        0x0001a9d6:    1d12        ..      ADDS     r2,r2,#4
        0x0001a9d8:    6222        "b      STR      r2,[r4,#0x20]
        0x0001a9da:    6b22        "k      LDR      r2,[r4,#0x30]
        0x0001a9dc:    428a        .B      CMP      r2,r1
        0x0001a9de:    d8ec        ..      BHI      0x1a9ba ; am_hal_sdhc_execute_cmd + 1174
        0x0001a9e0:    e7ce        ..      B        0x1a980 ; am_hal_sdhc_execute_cmd + 1116
        0x0001a9e2:    e7ff        ..      B        0x1a9e4 ; am_hal_sdhc_execute_cmd + 1216
        0x0001a9e4:    f0157f1c    ....    TST      r5,#0x2700000
        0x0001a9e8:    d020         .      BEQ      0x1aa2c ; am_hal_sdhc_execute_cmd + 1288
        0x0001a9ea:    6335        5c      STR      r5,[r6,#0x30]
        0x0001a9ec:    4628        (F      MOV      r0,r5
        0x0001a9ee:    f0157f00    ....    TST      r5,#0x2000000
        0x0001a9f2:    bf18        ..      IT       NE
        0x0001a9f4:    2001        .       MOVNE    r0,#1
        0x0001a9f6:    d009        ..      BEQ      0x1aa0c ; am_hal_sdhc_execute_cmd + 1256
        0x0001a9f8:    f88a0010    ....    STRB     r0,[r10,#0x10]
        0x0001a9fc:    f8848015    ....    STRB     r8,[r4,#0x15]
        0x0001aa00:    69a0        .i      LDR      r0,[r4,#0x18]
        0x0001aa02:    1c40        @.      ADDS     r0,r0,#1
        0x0001aa04:    2700        .'      MOVS     r7,#0
        0x0001aa06:    61a0        .a      STR      r0,[r4,#0x18]
        0x0001aa08:    e012        ..      B        0x1aa30 ; am_hal_sdhc_execute_cmd + 1292
        0x0001aa0a:    e00f        ..      B        0x1aa2c ; am_hal_sdhc_execute_cmd + 1288
        0x0001aa0c:    f4101f00    ....    TST      r0,#0x200000
        0x0001aa10:    bf18        ..      IT       NE
        0x0001aa12:    2002        .       MOVNE    r0,#2
        0x0001aa14:    d1f0        ..      BNE      0x1a9f8 ; am_hal_sdhc_execute_cmd + 1236
        0x0001aa16:    f4101f80    ....    TST      r0,#0x100000
        0x0001aa1a:    bf18        ..      IT       NE
        0x0001aa1c:    2003        .       MOVNE    r0,#3
        0x0001aa1e:    d1eb        ..      BNE      0x1a9f8 ; am_hal_sdhc_execute_cmd + 1236
        0x0001aa20:    f4100f80    ....    TST      r0,#0x400000
        0x0001aa24:    bf14        ..      ITE      NE
        0x0001aa26:    2004        .       MOVNE    r0,#4
        0x0001aa28:    2005        .       MOVEQ    r0,#5
        0x0001aa2a:    e7e5        ..      B        0x1a9f8 ; am_hal_sdhc_execute_cmd + 1236
        0x0001aa2c:    1e7f        ..      SUBS     r7,r7,#1
        0x0001aa2e:    d302        ..      BCC      0x1aa36 ; am_hal_sdhc_execute_cmd + 1298
        0x0001aa30:    2005        .       MOVS     r0,#5
        0x0001aa32:    f000fc6a    ..j.    BL       am_util_delay_us ; 0x1b30a
        0x0001aa36:    f0150f02    ....    TST      r5,#2
        0x0001aa3a:    d102        ..      BNE      0x1aa42 ; am_hal_sdhc_execute_cmd + 1310
        0x0001aa3c:    2f00        ./      CMP      r7,#0
        0x0001aa3e:    f47faf35    ..5.    BNE      0x1a8ac ; am_hal_sdhc_execute_cmd + 904
        0x0001aa42:    6af0        .j      LDR      r0,[r6,#0x2c]
        0x0001aa44:    f0200004     ...    BIC      r0,r0,#4
        0x0001aa48:    62f0        .b      STR      r0,[r6,#0x2c]
        0x0001aa4a:    ea5b0007    [...    ORRS     r0,r11,r7
        0x0001aa4e:    8da0        ..      LDRH     r0,[r4,#0x2c]
        0x0001aa50:    8d21        !.      LDRH     r1,[r4,#0x28]
        0x0001aa52:    bf1f        ..      ITTTT    NE
        0x0001aa54:    1a40        @.      SUBNE    r0,r0,r1
        0x0001aa56:    0400        ..      LSLNE    r0,r0,#16
        0x0001aa58:    b005        ..      ADDNE    sp,sp,#0x14
        0x0001aa5a:    e8bd8ff0    ....    POPNE    {r4-r11,pc}
        0x0001aa5e:    1a41        A.      SUBS     r1,r0,r1
        0x0001aa60:    2004        .       MOVS     r0,#4
        0x0001aa62:    b005        ..      ADD      sp,sp,#0x14
        0x0001aa64:    ea404001    @..@    ORR      r0,r0,r1,LSL #16
        0x0001aa68:    e8bd8ff0    ....    POP      {r4-r11,pc}
    i.am_hal_sdhc_get_cd
    am_hal_sdhc_get_cd
        0x0001aa6c:    2800        .(      CMP      r0,#0
        0x0001aa6e:    bf1c        ..      ITT      NE
        0x0001aa70:    6801        .h      LDRNE    r1,[r0,#0]
        0x0001aa72:    f0117f80    ....    TSTNE    r1,#0x1000000
        0x0001aa76:    d010        ..      BEQ      0x1aa9a ; am_hal_sdhc_get_cd + 46
        0x0001aa78:    4b09        .K      LDR      r3,[pc,#36] ; [0x1aaa0] = 0x8313b0
        0x0001aa7a:    f021427f    !..B    BIC      r2,r1,#0xff000000
        0x0001aa7e:    429a        .B      CMP      r2,r3
        0x0001aa80:    d10b        ..      BNE      0x1aa9a ; am_hal_sdhc_get_cd + 46
        0x0001aa82:    f0117f00    ....    TST      r1,#0x2000000
        0x0001aa86:    d008        ..      BEQ      0x1aa9a ; am_hal_sdhc_get_cd + 46
        0x0001aa88:    6840        @h      LDR      r0,[r0,#4]
        0x0001aa8a:    f1004080    ...@    ADD      r0,r0,#0x40000000
        0x0001aa8e:    f50020e0    ...     ADD      r0,r0,#0x70000
        0x0001aa92:    6a40        @j      LDR      r0,[r0,#0x24]
        0x0001aa94:    f3c04000    ...@    UBFX     r0,r0,#16,#1
        0x0001aa98:    4770        pG      BX       lr
        0x0001aa9a:    2001        .       MOVS     r0,#1
        0x0001aa9c:    4770        pG      BX       lr
    $d
        0x0001aa9e:    0000        ..      DCW    0
        0x0001aaa0:    008313b0    ....    DCD    8590256
    $t
    i.am_hal_sdhc_host_deinit
    am_hal_sdhc_host_deinit
        0x0001aaa4:    b510        ..      PUSH     {r4,lr}
        0x0001aaa6:    4604        .F      MOV      r4,r0
        0x0001aaa8:    f7fffc82    ....    BL       am_hal_sdhc_disable ; 0x1a3b0
        0x0001aaac:    b958        X.      CBNZ     r0,0x1aac6 ; am_hal_sdhc_host_deinit + 34
        0x0001aaae:    2200        ."      MOVS     r2,#0
        0x0001aab0:    2101        .!      MOVS     r1,#1
        0x0001aab2:    4620         F      MOV      r0,r4
        0x0001aab4:    f000f9ac    ....    BL       am_hal_sdhc_power_control ; 0x1ae10
        0x0001aab8:    b928        (.      CBNZ     r0,0x1aac6 ; am_hal_sdhc_host_deinit + 34
        0x0001aaba:    4620         F      MOV      r0,r4
        0x0001aabc:    f7fffc62    ..b.    BL       am_hal_sdhc_deinitialize ; 0x1a384
        0x0001aac0:    2800        .(      CMP      r0,#0
        0x0001aac2:    bf08        ..      IT       EQ
        0x0001aac4:    bd10        ..      POPEQ    {r4,pc}
        0x0001aac6:    2001        .       MOVS     r0,#1
        0x0001aac8:    bd10        ..      POP      {r4,pc}
    i.am_hal_sdhc_host_execute_cmd
    am_hal_sdhc_host_execute_cmd
        0x0001aaca:    e92d41f0    -..A    PUSH     {r4-r8,lr}
        0x0001aace:    4615        .F      MOV      r5,r2
        0x0001aad0:    460e        .F      MOV      r6,r1
        0x0001aad2:    4607        .F      MOV      r7,r0
        0x0001aad4:    2402        .$      MOVS     r4,#2
        0x0001aad6:    462a        *F      MOV      r2,r5
        0x0001aad8:    4631        1F      MOV      r1,r6
        0x0001aada:    4638        8F      MOV      r0,r7
        0x0001aadc:    f7fffd22    ..".    BL       am_hal_sdhc_execute_cmd ; 0x1a524
        0x0001aae0:    0401        ..      LSLS     r1,r0,#16
        0x0001aae2:    0c09        ..      LSRS     r1,r1,#16
        0x0001aae4:    bf08        ..      IT       EQ
        0x0001aae6:    e8bd81f0    ....    POPEQ    {r4-r8,pc}
        0x0001aaea:    1e62        b.      SUBS     r2,r4,#1
        0x0001aaec:    b2d4        ..      UXTB     r4,r2
        0x0001aaee:    d2f2        ..      BCS      0x1aad6 ; am_hal_sdhc_host_execute_cmd + 12
        0x0001aaf0:    e8bd81f0    ....    POP      {r4-r8,pc}
    i.am_hal_sdhc_host_init
    am_hal_sdhc_host_init
        0x0001aaf4:    b510        ..      PUSH     {r4,lr}
        0x0001aaf6:    4604        .F      MOV      r4,r0
        0x0001aaf8:    6840        @h      LDR      r0,[r0,#4]
        0x0001aafa:    4621        !F      MOV      r1,r4
        0x0001aafc:    f000f81e    ....    BL       am_hal_sdhc_initialize ; 0x1ab3c
        0x0001ab00:    b9d0        ..      CBNZ     r0,0x1ab38 ; am_hal_sdhc_host_init + 68
        0x0001ab02:    2200        ."      MOVS     r2,#0
        0x0001ab04:    4611        .F      MOV      r1,r2
        0x0001ab06:    6820         h      LDR      r0,[r4,#0]
        0x0001ab08:    f000f982    ....    BL       am_hal_sdhc_power_control ; 0x1ae10
        0x0001ab0c:    b9a0        ..      CBNZ     r0,0x1ab38 ; am_hal_sdhc_host_init + 68
        0x0001ab0e:    6820         h      LDR      r0,[r4,#0]
        0x0001ab10:    f7fffc90    ....    BL       am_hal_sdhc_enable ; 0x1a434
        0x0001ab14:    b980        ..      CBNZ     r0,0x1ab38 ; am_hal_sdhc_host_init + 68
        0x0001ab16:    4621        !F      MOV      r1,r4
        0x0001ab18:    6820         h      LDR      r0,[r4,#0]
        0x0001ab1a:    f000fb31    ..1.    BL       am_hal_sdhc_setup_host ; 0x1b180
        0x0001ab1e:    b958        X.      CBNZ     r0,0x1ab38 ; am_hal_sdhc_host_init + 68
        0x0001ab20:    7b21        !{      LDRB     r1,[r4,#0xc]
        0x0001ab22:    6820         h      LDR      r0,[r4,#0]
        0x0001ab24:    f000fa5a    ..Z.    BL       am_hal_sdhc_set_bus_voltage ; 0x1afdc
        0x0001ab28:    b930        0.      CBNZ     r0,0x1ab38 ; am_hal_sdhc_host_init + 68
        0x0001ab2a:    6a21        !j      LDR      r1,[r4,#0x20]
        0x0001ab2c:    6820         h      LDR      r0,[r4,#0]
        0x0001ab2e:    f000f9fd    ....    BL       am_hal_sdhc_set_bus_clock ; 0x1af2c
        0x0001ab32:    2800        .(      CMP      r0,#0
        0x0001ab34:    bf08        ..      IT       EQ
        0x0001ab36:    bd10        ..      POPEQ    {r4,pc}
        0x0001ab38:    2001        .       MOVS     r0,#1
        0x0001ab3a:    bd10        ..      POP      {r4,pc}
    i.am_hal_sdhc_initialize
    am_hal_sdhc_initialize
        0x0001ab3c:    2800        .(      CMP      r0,#0
        0x0001ab3e:    bf1c        ..      ITT      NE
        0x0001ab40:    2005        .       MOVNE    r0,#5
        0x0001ab42:    4770        pG      BXNE     lr
        0x0001ab44:    2900        .)      CMP      r1,#0
        0x0001ab46:    bf04        ..      ITT      EQ
        0x0001ab48:    2006        .       MOVEQ    r0,#6
        0x0001ab4a:    4770        pG      BXEQ     lr
        0x0001ab4c:    2300        .#      MOVS     r3,#0
        0x0001ab4e:    4809        .H      LDR      r0,[pc,#36] ; [0x1ab74] = 0x10001038
        0x0001ab50:    6802        .h      LDR      r2,[r0,#0]
        0x0001ab52:    f0127f80    ....    TST      r2,#0x1000000
        0x0001ab56:    bf1c        ..      ITT      NE
        0x0001ab58:    2007        .       MOVNE    r0,#7
        0x0001ab5a:    4770        pG      BXNE     lr
        0x0001ab5c:    f0427280    B..r    ORR      r2,r2,#0x1000000
        0x0001ab60:    f8dfc014    ....    LDR      r12,[pc,#20] ; [0x1ab78] = 0x8313b0
        0x0001ab64:    f36c0217    l...    BFI      r2,r12,#0,#24
        0x0001ab68:    e9c02300    ...#    STRD     r2,r3,[r0,#0]
        0x0001ab6c:    6008        .`      STR      r0,[r1,#0]
        0x0001ab6e:    2000        .       MOVS     r0,#0
        0x0001ab70:    4770        pG      BX       lr
    $d
        0x0001ab72:    0000        ..      DCW    0
        0x0001ab74:    10001038    8...    DCD    268439608
        0x0001ab78:    008313b0    ....    DCD    8590256
    $t
    i.am_hal_sdhc_interrupt_service
    am_hal_sdhc_interrupt_service
        0x0001ab7c:    e92d41f0    -..A    PUSH     {r4-r8,lr}
        0x0001ab80:    f8d08010    ....    LDR      r8,[r0,#0x10]
        0x0001ab84:    b084        ..      SUB      sp,sp,#0x10
        0x0001ab86:    460d        .F      MOV      r5,r1
        0x0001ab88:    1e04        ..      SUBS     r4,r0,#0
        0x0001ab8a:    bf1c        ..      ITT      NE
        0x0001ab8c:    6820         h      LDRNE    r0,[r4,#0]
        0x0001ab8e:    f0107f80    ....    TSTNE    r0,#0x1000000
        0x0001ab92:    d004        ..      BEQ      0x1ab9e ; am_hal_sdhc_interrupt_service + 34
        0x0001ab94:    4a47        GJ      LDR      r2,[pc,#284] ; [0x1acb4] = 0x8313b0
        0x0001ab96:    f020417f     ..A    BIC      r1,r0,#0xff000000
        0x0001ab9a:    4291        .B      CMP      r1,r2
        0x0001ab9c:    d003        ..      BEQ      0x1aba6 ; am_hal_sdhc_interrupt_service + 42
        0x0001ab9e:    b004        ..      ADD      sp,sp,#0x10
        0x0001aba0:    2002        .       MOVS     r0,#2
        0x0001aba2:    e8bd81f0    ....    POP      {r4-r8,pc}
        0x0001aba6:    f0107f00    ....    TST      r0,#0x2000000
        0x0001abaa:    bf02        ..      ITTT     EQ
        0x0001abac:    2007        .       MOVEQ    r0,#7
        0x0001abae:    b004        ..      ADDEQ    sp,sp,#0x10
        0x0001abb0:    e8bd81f0    ....    POPEQ    {r4-r8,pc}
        0x0001abb4:    6860        `h      LDR      r0,[r4,#4]
        0x0001abb6:    f0150f30    ..0.    TST      r5,#0x30
        0x0001abba:    f1004680    ...F    ADD      r6,r0,#0x40000000
        0x0001abbe:    f50626e0    ...&    ADD      r6,r6,#0x70000
        0x0001abc2:    bf1c        ..      ITT      NE
        0x0001abc4:    4620         F      MOVNE    r0,r4
        0x0001abc6:    f000f8bb    ....    BLNE     am_hal_sdhc_pio_xfer_data ; 0x1ad40
        0x0001abca:    f0150f08    ....    TST      r5,#8
        0x0001abce:    d020         .      BEQ      0x1ac12 ; am_hal_sdhc_interrupt_service + 150
        0x0001abd0:    2100        .!      MOVS     r1,#0
        0x0001abd2:    4608        .F      MOV      r0,r1
        0x0001abd4:    f7fefda2    ....    BL       am_hal_daxi_control ; 0x1971c
        0x0001abd8:    6b62        bk      LDR      r2,[r4,#0x34]
        0x0001abda:    6aa1        .j      LDR      r1,[r4,#0x28]
        0x0001abdc:    6860        `h      LDR      r0,[r4,#4]
        0x0001abde:    1a89        ..      SUBS     r1,r1,r2
        0x0001abe0:    62a1        .b      STR      r1,[r4,#0x28]
        0x0001abe2:    68a2        .h      LDR      r2,[r4,#8]
        0x0001abe4:    6a21        !j      LDR      r1,[r4,#0x20]
        0x0001abe6:    f0220203    "...    BIC      r2,r2,#3
        0x0001abea:    f1004080    ...@    ADD      r0,r0,#0x40000000
        0x0001abee:    4411        .D      ADD      r1,r1,r2
        0x0001abf0:    f50020e0    ...     ADD      r0,r0,#0x70000
        0x0001abf4:    6221        !b      STR      r1,[r4,#0x20]
        0x0001abf6:    6001        .`      STR      r1,[r0,#0]
        0x0001abf8:    2003        .       MOVS     r0,#3
        0x0001abfa:    f88d0000    ....    STRB     r0,[sp,#0]
        0x0001abfe:    6920         i      LDR      r0,[r4,#0x10]
        0x0001ac00:    9002        ..      STR      r0,[sp,#8]
        0x0001ac02:    6b60        `k      LDR      r0,[r4,#0x34]
        0x0001ac04:    9001        ..      STR      r0,[sp,#4]
        0x0001ac06:    6920         i      LDR      r0,[r4,#0x10]
        0x0001ac08:    6e41        An      LDR      r1,[r0,#0x64]
        0x0001ac0a:    2900        .)      CMP      r1,#0
        0x0001ac0c:    bf1c        ..      ITT      NE
        0x0001ac0e:    4668        hF      MOVNE    r0,sp
        0x0001ac10:    4788        .G      BLXNE    r1
        0x0001ac12:    f0150f02    ....    TST      r5,#2
        0x0001ac16:    f04f0701    O...    MOV      r7,#1
        0x0001ac1a:    d016        ..      BEQ      0x1ac4a ; am_hal_sdhc_interrupt_service + 206
        0x0001ac1c:    2100        .!      MOVS     r1,#0
        0x0001ac1e:    4608        .F      MOV      r0,r1
        0x0001ac20:    f7fefd7c    ..|.    BL       am_hal_daxi_control ; 0x1971c
        0x0001ac24:    2004        .       MOVS     r0,#4
        0x0001ac26:    f88d0000    ....    STRB     r0,[sp,#0]
        0x0001ac2a:    6920         i      LDR      r0,[r4,#0x10]
        0x0001ac2c:    9002        ..      STR      r0,[sp,#8]
        0x0001ac2e:    6aa0        .j      LDR      r0,[r4,#0x28]
        0x0001ac30:    9001        ..      STR      r0,[sp,#4]
        0x0001ac32:    6920         i      LDR      r0,[r4,#0x10]
        0x0001ac34:    6e41        An      LDR      r1,[r0,#0x64]
        0x0001ac36:    2900        .)      CMP      r1,#0
        0x0001ac38:    bf1c        ..      ITT      NE
        0x0001ac3a:    4668        hF      MOVNE    r0,sp
        0x0001ac3c:    4788        .G      BLXNE    r1
        0x0001ac3e:    f8847039    ..9p    STRB     r7,[r4,#0x39]
        0x0001ac42:    6af0        .j      LDR      r0,[r6,#0x2c]
        0x0001ac44:    f0200004     ...    BIC      r0,r0,#4
        0x0001ac48:    62f0        .b      STR      r0,[r6,#0x2c]
        0x0001ac4a:    f0157f1c    ....    TST      r5,#0x2700000
        0x0001ac4e:    d01d        ..      BEQ      0x1ac8c ; am_hal_sdhc_interrupt_service + 272
        0x0001ac50:    2006        .       MOVS     r0,#6
        0x0001ac52:    f88d0000    ....    STRB     r0,[sp,#0]
        0x0001ac56:    6920         i      LDR      r0,[r4,#0x10]
        0x0001ac58:    9002        ..      STR      r0,[sp,#8]
        0x0001ac5a:    6aa0        .j      LDR      r0,[r4,#0x28]
        0x0001ac5c:    f0157f00    ....    TST      r5,#0x2000000
        0x0001ac60:    9001        ..      STR      r0,[sp,#4]
        0x0001ac62:    bf18        ..      IT       NE
        0x0001ac64:    2001        .       MOVNE    r0,#1
        0x0001ac66:    d015        ..      BEQ      0x1ac94 ; am_hal_sdhc_interrupt_service + 280
        0x0001ac68:    f888005c    ..\.    STRB     r0,[r8,#0x5c]
        0x0001ac6c:    7567        gu      STRB     r7,[r4,#0x15]
        0x0001ac6e:    69a0        .i      LDR      r0,[r4,#0x18]
        0x0001ac70:    1c40        @.      ADDS     r0,r0,#1
        0x0001ac72:    61a0        .a      STR      r0,[r4,#0x18]
        0x0001ac74:    6920         i      LDR      r0,[r4,#0x10]
        0x0001ac76:    6e41        An      LDR      r1,[r0,#0x64]
        0x0001ac78:    2900        .)      CMP      r1,#0
        0x0001ac7a:    bf1c        ..      ITT      NE
        0x0001ac7c:    4668        hF      MOVNE    r0,sp
        0x0001ac7e:    4788        .G      BLXNE    r1
        0x0001ac80:    f8847039    ..9p    STRB     r7,[r4,#0x39]
        0x0001ac84:    6af0        .j      LDR      r0,[r6,#0x2c]
        0x0001ac86:    f0200004     ...    BIC      r0,r0,#4
        0x0001ac8a:    62f0        .b      STR      r0,[r6,#0x2c]
        0x0001ac8c:    b004        ..      ADD      sp,sp,#0x10
        0x0001ac8e:    2000        .       MOVS     r0,#0
        0x0001ac90:    e8bd81f0    ....    POP      {r4-r8,pc}
        0x0001ac94:    f4151f00    ....    TST      r5,#0x200000
        0x0001ac98:    bf18        ..      IT       NE
        0x0001ac9a:    2002        .       MOVNE    r0,#2
        0x0001ac9c:    d1e4        ..      BNE      0x1ac68 ; am_hal_sdhc_interrupt_service + 236
        0x0001ac9e:    f4151f80    ....    TST      r5,#0x100000
        0x0001aca2:    bf18        ..      IT       NE
        0x0001aca4:    2003        .       MOVNE    r0,#3
        0x0001aca6:    d1df        ..      BNE      0x1ac68 ; am_hal_sdhc_interrupt_service + 236
        0x0001aca8:    f4150f80    ....    TST      r5,#0x400000
        0x0001acac:    bf14        ..      ITE      NE
        0x0001acae:    2004        .       MOVNE    r0,#4
        0x0001acb0:    2005        .       MOVEQ    r0,#5
        0x0001acb2:    e7d9        ..      B        0x1ac68 ; am_hal_sdhc_interrupt_service + 236
    $d
        0x0001acb4:    008313b0    ....    DCD    8590256
    $t
    i.am_hal_sdhc_intr_status_clear
    am_hal_sdhc_intr_status_clear
        0x0001acb8:    2800        .(      CMP      r0,#0
        0x0001acba:    bf1c        ..      ITT      NE
        0x0001acbc:    6802        .h      LDRNE    r2,[r0,#0]
        0x0001acbe:    f0127f80    ....    TSTNE    r2,#0x1000000
        0x0001acc2:    d005        ..      BEQ      0x1acd0 ; am_hal_sdhc_intr_status_clear + 24
        0x0001acc4:    f8dfc028    ..(.    LDR      r12,[pc,#40] ; [0x1acf0] = 0x8313b0
        0x0001acc8:    f022437f    "..C    BIC      r3,r2,#0xff000000
        0x0001accc:    4563        cE      CMP      r3,r12
        0x0001acce:    d001        ..      BEQ      0x1acd4 ; am_hal_sdhc_intr_status_clear + 28
        0x0001acd0:    2002        .       MOVS     r0,#2
        0x0001acd2:    4770        pG      BX       lr
        0x0001acd4:    f0127f00    ....    TST      r2,#0x2000000
        0x0001acd8:    bf04        ..      ITT      EQ
        0x0001acda:    2007        .       MOVEQ    r0,#7
        0x0001acdc:    4770        pG      BXEQ     lr
        0x0001acde:    6840        @h      LDR      r0,[r0,#4]
        0x0001ace0:    f1004080    ...@    ADD      r0,r0,#0x40000000
        0x0001ace4:    f50020e0    ...     ADD      r0,r0,#0x70000
        0x0001ace8:    6301        .c      STR      r1,[r0,#0x30]
        0x0001acea:    2000        .       MOVS     r0,#0
        0x0001acec:    4770        pG      BX       lr
    $d
        0x0001acee:    0000        ..      DCW    0
        0x0001acf0:    008313b0    ....    DCD    8590256
    $t
    i.am_hal_sdhc_intr_status_get
    am_hal_sdhc_intr_status_get
        0x0001acf4:    b410        ..      PUSH     {r4}
        0x0001acf6:    2800        .(      CMP      r0,#0
        0x0001acf8:    bf1c        ..      ITT      NE
        0x0001acfa:    6803        .h      LDRNE    r3,[r0,#0]
        0x0001acfc:    f0137f80    ....    TSTNE    r3,#0x1000000
        0x0001ad00:    d004        ..      BEQ      0x1ad0c ; am_hal_sdhc_intr_status_get + 24
        0x0001ad02:    4c0e        .L      LDR      r4,[pc,#56] ; [0x1ad3c] = 0x8313b0
        0x0001ad04:    f0234c7f    #..L    BIC      r12,r3,#0xff000000
        0x0001ad08:    45a4        .E      CMP      r12,r4
        0x0001ad0a:    d002        ..      BEQ      0x1ad12 ; am_hal_sdhc_intr_status_get + 30
        0x0001ad0c:    bc10        ..      POP      {r4}
        0x0001ad0e:    2002        .       MOVS     r0,#2
        0x0001ad10:    4770        pG      BX       lr
        0x0001ad12:    f0137f00    ....    TST      r3,#0x2000000
        0x0001ad16:    bf02        ..      ITTT     EQ
        0x0001ad18:    2007        .       MOVEQ    r0,#7
        0x0001ad1a:    bc10        ..      POPEQ    {r4}
        0x0001ad1c:    4770        pG      BXEQ     lr
        0x0001ad1e:    6840        @h      LDR      r0,[r0,#4]
        0x0001ad20:    2a00        .*      CMP      r2,#0
        0x0001ad22:    f1004080    ...@    ADD      r0,r0,#0x40000000
        0x0001ad26:    f50020e0    ...     ADD      r0,r0,#0x70000
        0x0001ad2a:    bf1d        ..      ITTTE    NE
        0x0001ad2c:    6b02        .k      LDRNE    r2,[r0,#0x30]
        0x0001ad2e:    6b40        @k      LDRNE    r0,[r0,#0x34]
        0x0001ad30:    4010        .@      ANDNE    r0,r0,r2
        0x0001ad32:    6b00        .k      LDREQ    r0,[r0,#0x30]
        0x0001ad34:    6008        .`      STR      r0,[r1,#0]
        0x0001ad36:    bc10        ..      POP      {r4}
        0x0001ad38:    2000        .       MOVS     r0,#0
        0x0001ad3a:    4770        pG      BX       lr
    $d
        0x0001ad3c:    008313b0    ....    DCD    8590256
    $t
    i.am_hal_sdhc_pio_xfer_data
    am_hal_sdhc_pio_xfer_data
        0x0001ad40:    b410        ..      PUSH     {r4}
        0x0001ad42:    f8901038    ..8.    LDRB     r1,[r0,#0x38]
        0x0001ad46:    2900        .)      CMP      r1,#0
        0x0001ad48:    bf0c        ..      ITE      EQ
        0x0001ad4a:    f44f6c00    O..l    MOVEQ    r12,#0x800
        0x0001ad4e:    f44f6c80    O..l    MOVNE    r12,#0x400
        0x0001ad52:    6841        Ah      LDR      r1,[r0,#4]
        0x0001ad54:    f1014180    ...A    ADD      r1,r1,#0x40000000
        0x0001ad58:    f50121e0    ...!    ADD      r1,r1,#0x70000
        0x0001ad5c:    6a4a        Jj      LDR      r2,[r1,#0x24]
        0x0001ad5e:    ea120f0c    ....    TST      r2,r12
        0x0001ad62:    bf04        ..      ITT      EQ
        0x0001ad64:    bc10        ..      POPEQ    {r4}
        0x0001ad66:    4770        pG      BXEQ     lr
        0x0001ad68:    f8902038    ..8     LDRB     r2,[r0,#0x38]
        0x0001ad6c:    2a00        .*      CMP      r2,#0
        0x0001ad6e:    6b02        .k      LDR      r2,[r0,#0x30]
        0x0001ad70:    d02a        *.      BEQ      0x1adc8 ; am_hal_sdhc_pio_xfer_data + 136
        0x0001ad72:    b302        ..      CBZ      r2,0x1adb6 ; am_hal_sdhc_pio_xfer_data + 118
        0x0001ad74:    1cd2        ..      ADDS     r2,r2,#3
        0x0001ad76:    2a03        .*      CMP      r2,#3
        0x0001ad78:    bf98        ..      IT       LS
        0x0001ad7a:    2200        ."      MOVLS    r2,#0
        0x0001ad7c:    d908        ..      BLS      0x1ad90 ; am_hal_sdhc_pio_xfer_data + 80
        0x0001ad7e:    f3c20280    ....    UBFX     r2,r2,#2,#1
        0x0001ad82:    b12a        *.      CBZ      r2,0x1ad90 ; am_hal_sdhc_pio_xfer_data + 80
        0x0001ad84:    6a03        .j      LDR      r3,[r0,#0x20]
        0x0001ad86:    681b        .h      LDR      r3,[r3,#0]
        0x0001ad88:    620b        .b      STR      r3,[r1,#0x20]
        0x0001ad8a:    6a03        .j      LDR      r3,[r0,#0x20]
        0x0001ad8c:    1d1b        ..      ADDS     r3,r3,#4
        0x0001ad8e:    6203        .b      STR      r3,[r0,#0x20]
        0x0001ad90:    6b03        .k      LDR      r3,[r0,#0x30]
        0x0001ad92:    0092        ..      LSLS     r2,r2,#2
        0x0001ad94:    4293        .B      CMP      r3,r2
        0x0001ad96:    d90e        ..      BLS      0x1adb6 ; am_hal_sdhc_pio_xfer_data + 118
        0x0001ad98:    6a03        .j      LDR      r3,[r0,#0x20]
        0x0001ad9a:    681b        .h      LDR      r3,[r3,#0]
        0x0001ad9c:    620b        .b      STR      r3,[r1,#0x20]
        0x0001ad9e:    6a03        .j      LDR      r3,[r0,#0x20]
        0x0001ada0:    1d1b        ..      ADDS     r3,r3,#4
        0x0001ada2:    6203        .b      STR      r3,[r0,#0x20]
        0x0001ada4:    681b        .h      LDR      r3,[r3,#0]
        0x0001ada6:    620b        .b      STR      r3,[r1,#0x20]
        0x0001ada8:    6a03        .j      LDR      r3,[r0,#0x20]
        0x0001adaa:    3208        .2      ADDS     r2,r2,#8
        0x0001adac:    1d1b        ..      ADDS     r3,r3,#4
        0x0001adae:    6203        .b      STR      r3,[r0,#0x20]
        0x0001adb0:    6b03        .k      LDR      r3,[r0,#0x30]
        0x0001adb2:    4293        .B      CMP      r3,r2
        0x0001adb4:    d8f0        ..      BHI      0x1ad98 ; am_hal_sdhc_pio_xfer_data + 88
        0x0001adb6:    6a82        .j      LDR      r2,[r0,#0x28]
        0x0001adb8:    1e52        R.      SUBS     r2,r2,#1
        0x0001adba:    6282        .b      STR      r2,[r0,#0x28]
        0x0001adbc:    6a4a        Jj      LDR      r2,[r1,#0x24]
        0x0001adbe:    ea120f0c    ....    TST      r2,r12
        0x0001adc2:    d1d1        ..      BNE      0x1ad68 ; am_hal_sdhc_pio_xfer_data + 40
        0x0001adc4:    bc10        ..      POP      {r4}
        0x0001adc6:    4770        pG      BX       lr
        0x0001adc8:    2a00        .*      CMP      r2,#0
        0x0001adca:    d0f4        ..      BEQ      0x1adb6 ; am_hal_sdhc_pio_xfer_data + 118
        0x0001adcc:    1cd2        ..      ADDS     r2,r2,#3
        0x0001adce:    2a03        .*      CMP      r2,#3
        0x0001add0:    bf98        ..      IT       LS
        0x0001add2:    2200        ."      MOVLS    r2,#0
        0x0001add4:    d908        ..      BLS      0x1ade8 ; am_hal_sdhc_pio_xfer_data + 168
        0x0001add6:    f3c20280    ....    UBFX     r2,r2,#2,#1
        0x0001adda:    b12a        *.      CBZ      r2,0x1ade8 ; am_hal_sdhc_pio_xfer_data + 168
        0x0001addc:    6a0b        .j      LDR      r3,[r1,#0x20]
        0x0001adde:    6a04        .j      LDR      r4,[r0,#0x20]
        0x0001ade0:    6023        #`      STR      r3,[r4,#0]
        0x0001ade2:    6a03        .j      LDR      r3,[r0,#0x20]
        0x0001ade4:    1d1b        ..      ADDS     r3,r3,#4
        0x0001ade6:    6203        .b      STR      r3,[r0,#0x20]
        0x0001ade8:    6b03        .k      LDR      r3,[r0,#0x30]
        0x0001adea:    0092        ..      LSLS     r2,r2,#2
        0x0001adec:    4293        .B      CMP      r3,r2
        0x0001adee:    d9e2        ..      BLS      0x1adb6 ; am_hal_sdhc_pio_xfer_data + 118
        0x0001adf0:    6a0b        .j      LDR      r3,[r1,#0x20]
        0x0001adf2:    6a04        .j      LDR      r4,[r0,#0x20]
        0x0001adf4:    6023        #`      STR      r3,[r4,#0]
        0x0001adf6:    6a03        .j      LDR      r3,[r0,#0x20]
        0x0001adf8:    1d1b        ..      ADDS     r3,r3,#4
        0x0001adfa:    6203        .b      STR      r3,[r0,#0x20]
        0x0001adfc:    6a0c        .j      LDR      r4,[r1,#0x20]
        0x0001adfe:    601c        .`      STR      r4,[r3,#0]
        0x0001ae00:    6a03        .j      LDR      r3,[r0,#0x20]
        0x0001ae02:    3208        .2      ADDS     r2,r2,#8
        0x0001ae04:    1d1b        ..      ADDS     r3,r3,#4
        0x0001ae06:    6203        .b      STR      r3,[r0,#0x20]
        0x0001ae08:    6b03        .k      LDR      r3,[r0,#0x30]
        0x0001ae0a:    4293        .B      CMP      r3,r2
        0x0001ae0c:    d8f0        ..      BHI      0x1adf0 ; am_hal_sdhc_pio_xfer_data + 176
        0x0001ae0e:    e7d2        ..      B        0x1adb6 ; am_hal_sdhc_pio_xfer_data + 118
    i.am_hal_sdhc_power_control
    am_hal_sdhc_power_control
        0x0001ae10:    b570        p.      PUSH     {r4-r6,lr}
        0x0001ae12:    4616        .F      MOV      r6,r2
        0x0001ae14:    1e04        ..      SUBS     r4,r0,#0
        0x0001ae16:    bf1c        ..      ITT      NE
        0x0001ae18:    6802        .h      LDRNE    r2,[r0,#0]
        0x0001ae1a:    f0127f80    ....    TSTNE    r2,#0x1000000
        0x0001ae1e:    d004        ..      BEQ      0x1ae2a ; am_hal_sdhc_power_control + 26
        0x0001ae20:    f022437f    "..C    BIC      r3,r2,#0xff000000
        0x0001ae24:    4a40        @J      LDR      r2,[pc,#256] ; [0x1af28] = 0x8313b0
        0x0001ae26:    4293        .B      CMP      r3,r2
        0x0001ae28:    d001        ..      BEQ      0x1ae2e ; am_hal_sdhc_power_control + 30
        0x0001ae2a:    2002        .       MOVS     r0,#2
        0x0001ae2c:    bd70        p.      POP      {r4-r6,pc}
        0x0001ae2e:    2500        .%      MOVS     r5,#0
        0x0001ae30:    2900        .)      CMP      r1,#0
        0x0001ae32:    d045        E.      BEQ      0x1aec0 ; am_hal_sdhc_power_control + 176
        0x0001ae34:    2901        .)      CMP      r1,#1
        0x0001ae36:    bf1e        ..      ITTT     NE
        0x0001ae38:    2902        .)      CMPNE    r1,#2
        0x0001ae3a:    2006        .       MOVNE    r0,#6
        0x0001ae3c:    bd70        p.      POPNE    {r4-r6,pc}
        0x0001ae3e:    b336        6.      CBZ      r6,0x1ae8e ; am_hal_sdhc_power_control + 126
        0x0001ae40:    6861        ah      LDR      r1,[r4,#4]
        0x0001ae42:    f1014180    ...A    ADD      r1,r1,#0x40000000
        0x0001ae46:    f50121e0    ...!    ADD      r1,r1,#0x70000
        0x0001ae4a:    6a89        .j      LDR      r1,[r1,#0x28]
        0x0001ae4c:    6421        !d      STR      r1,[r4,#0x40]
        0x0001ae4e:    6861        ah      LDR      r1,[r4,#4]
        0x0001ae50:    f1014180    ...A    ADD      r1,r1,#0x40000000
        0x0001ae54:    f50121e0    ...!    ADD      r1,r1,#0x70000
        0x0001ae58:    6ac9        .j      LDR      r1,[r1,#0x2c]
        0x0001ae5a:    6461        ad      STR      r1,[r4,#0x44]
        0x0001ae5c:    6861        ah      LDR      r1,[r4,#4]
        0x0001ae5e:    f1014180    ...A    ADD      r1,r1,#0x40000000
        0x0001ae62:    f50121e0    ...!    ADD      r1,r1,#0x70000
        0x0001ae66:    6b49        Ik      LDR      r1,[r1,#0x34]
        0x0001ae68:    64a1        .d      STR      r1,[r4,#0x48]
        0x0001ae6a:    6861        ah      LDR      r1,[r4,#4]
        0x0001ae6c:    f1014180    ...A    ADD      r1,r1,#0x40000000
        0x0001ae70:    f50121e0    ...!    ADD      r1,r1,#0x70000
        0x0001ae74:    6b89        .k      LDR      r1,[r1,#0x38]
        0x0001ae76:    64e1        .d      STR      r1,[r4,#0x4c]
        0x0001ae78:    6861        ah      LDR      r1,[r4,#4]
        0x0001ae7a:    f1014180    ...A    ADD      r1,r1,#0x40000000
        0x0001ae7e:    f50121e0    ...!    ADD      r1,r1,#0x70000
        0x0001ae82:    6bc9        .k      LDR      r1,[r1,#0x3c]
        0x0001ae84:    6521        !e      STR      r1,[r4,#0x50]
        0x0001ae86:    f04f0101    O...    MOV      r1,#1
        0x0001ae8a:    f884103c    ..<.    STRB     r1,[r4,#0x3c]
        0x0001ae8e:    6801        .h      LDR      r1,[r0,#0]
        0x0001ae90:    f0117f80    ....    TST      r1,#0x1000000
        0x0001ae94:    d00d        ..      BEQ      0x1aeb2 ; am_hal_sdhc_power_control + 162
        0x0001ae96:    f021437f    !..C    BIC      r3,r1,#0xff000000
        0x0001ae9a:    4293        .B      CMP      r3,r2
        0x0001ae9c:    d109        ..      BNE      0x1aeb2 ; am_hal_sdhc_power_control + 162
        0x0001ae9e:    f0117f00    ....    TST      r1,#0x2000000
        0x0001aea2:    d006        ..      BEQ      0x1aeb2 ; am_hal_sdhc_power_control + 162
        0x0001aea4:    6860        `h      LDR      r0,[r4,#4]
        0x0001aea6:    f1004080    ...@    ADD      r0,r0,#0x40000000
        0x0001aeaa:    f50020e0    ...     ADD      r0,r0,#0x70000
        0x0001aeae:    6b41        Ak      LDR      r1,[r0,#0x34]
        0x0001aeb0:    6345        Ec      STR      r5,[r0,#0x34]
        0x0001aeb2:    7920         y      LDRB     r0,[r4,#4]
        0x0001aeb4:    3015        .0      ADDS     r0,r0,#0x15
        0x0001aeb6:    b2c0        ..      UXTB     r0,r0
        0x0001aeb8:    f7fff8ea    ....    BL       am_hal_pwrctrl_periph_disable ; 0x1a090
        0x0001aebc:    2000        .       MOVS     r0,#0
        0x0001aebe:    bd70        p.      POP      {r4-r6,pc}
        0x0001aec0:    b12e        ..      CBZ      r6,0x1aece ; am_hal_sdhc_power_control + 190
        0x0001aec2:    f894003c    ..<.    LDRB     r0,[r4,#0x3c]
        0x0001aec6:    2800        .(      CMP      r0,#0
        0x0001aec8:    bf04        ..      ITT      EQ
        0x0001aeca:    2007        .       MOVEQ    r0,#7
        0x0001aecc:    bd70        p.      POPEQ    {r4-r6,pc}
        0x0001aece:    7920         y      LDRB     r0,[r4,#4]
        0x0001aed0:    3015        .0      ADDS     r0,r0,#0x15
        0x0001aed2:    b2c0        ..      UXTB     r0,r0
        0x0001aed4:    f7fff972    ..r.    BL       am_hal_pwrctrl_periph_enable ; 0x1a1bc
        0x0001aed8:    2e00        ..      CMP      r6,#0
        0x0001aeda:    d0ef        ..      BEQ      0x1aebc ; am_hal_sdhc_power_control + 172
        0x0001aedc:    6861        ah      LDR      r1,[r4,#4]
        0x0001aede:    6c20         l      LDR      r0,[r4,#0x40]
        0x0001aee0:    f1014180    ...A    ADD      r1,r1,#0x40000000
        0x0001aee4:    f50121e0    ...!    ADD      r1,r1,#0x70000
        0x0001aee8:    6288        .b      STR      r0,[r1,#0x28]
        0x0001aeea:    6861        ah      LDR      r1,[r4,#4]
        0x0001aeec:    6c60        `l      LDR      r0,[r4,#0x44]
        0x0001aeee:    f1014180    ...A    ADD      r1,r1,#0x40000000
        0x0001aef2:    f50121e0    ...!    ADD      r1,r1,#0x70000
        0x0001aef6:    62c8        .b      STR      r0,[r1,#0x2c]
        0x0001aef8:    6861        ah      LDR      r1,[r4,#4]
        0x0001aefa:    6ca0        .l      LDR      r0,[r4,#0x48]
        0x0001aefc:    f1014180    ...A    ADD      r1,r1,#0x40000000
        0x0001af00:    f50121e0    ...!    ADD      r1,r1,#0x70000
        0x0001af04:    6348        Hc      STR      r0,[r1,#0x34]
        0x0001af06:    6861        ah      LDR      r1,[r4,#4]
        0x0001af08:    6ce0        .l      LDR      r0,[r4,#0x4c]
        0x0001af0a:    f1014180    ...A    ADD      r1,r1,#0x40000000
        0x0001af0e:    f50121e0    ...!    ADD      r1,r1,#0x70000
        0x0001af12:    6388        .c      STR      r0,[r1,#0x38]
        0x0001af14:    6861        ah      LDR      r1,[r4,#4]
        0x0001af16:    6d20         m      LDR      r0,[r4,#0x50]
        0x0001af18:    f1014180    ...A    ADD      r1,r1,#0x40000000
        0x0001af1c:    f50121e0    ...!    ADD      r1,r1,#0x70000
        0x0001af20:    63c8        .c      STR      r0,[r1,#0x3c]
        0x0001af22:    f884503c    ..<P    STRB     r5,[r4,#0x3c]
        0x0001af26:    e7c9        ..      B        0x1aebc ; am_hal_sdhc_power_control + 172
    $d
        0x0001af28:    008313b0    ....    DCD    8590256
    $t
    i.am_hal_sdhc_set_bus_clock
    am_hal_sdhc_set_bus_clock
        0x0001af2c:    2800        .(      CMP      r0,#0
        0x0001af2e:    bf1c        ..      ITT      NE
        0x0001af30:    6802        .h      LDRNE    r2,[r0,#0]
        0x0001af32:    f0127f80    ....    TSTNE    r2,#0x1000000
        0x0001af36:    d005        ..      BEQ      0x1af44 ; am_hal_sdhc_set_bus_clock + 24
        0x0001af38:    f8dfc09c    ....    LDR      r12,[pc,#156] ; [0x1afd8] = 0x8313b0
        0x0001af3c:    f022437f    "..C    BIC      r3,r2,#0xff000000
        0x0001af40:    4563        cE      CMP      r3,r12
        0x0001af42:    d001        ..      BEQ      0x1af48 ; am_hal_sdhc_set_bus_clock + 28
        0x0001af44:    2002        .       MOVS     r0,#2
        0x0001af46:    4770        pG      BX       lr
        0x0001af48:    f0127f00    ....    TST      r2,#0x2000000
        0x0001af4c:    bf04        ..      ITT      EQ
        0x0001af4e:    2007        .       MOVEQ    r0,#7
        0x0001af50:    4770        pG      BXEQ     lr
        0x0001af52:    e92d41f0    -..A    PUSH     {r4-r8,lr}
        0x0001af56:    6842        Bh      LDR      r2,[r0,#4]
        0x0001af58:    6906        .i      LDR      r6,[r0,#0x10]
        0x0001af5a:    f1024480    ...D    ADD      r4,r2,#0x40000000
        0x0001af5e:    f50424e0    ...$    ADD      r4,r4,#0x70000
        0x0001af62:    f8d6201c    ...     LDR.W    r2,[r6,#0x1c]
        0x0001af66:    2001        .       MOVS     r0,#1
        0x0001af68:    fbb2f3f0    ....    UDIV     r3,r2,r0
        0x0001af6c:    428b        .B      CMP      r3,r1
        0x0001af6e:    d903        ..      BLS      0x1af78 ; am_hal_sdhc_set_bus_clock + 76
        0x0001af70:    0040        @.      LSLS     r0,r0,#1
        0x0001af72:    f5b07f80    ....    CMP      r0,#0x100
        0x0001af76:    d9f7        ..      BLS      0x1af68 ; am_hal_sdhc_set_bus_clock + 60
        0x0001af78:    fbb2f7f0    ....    UDIV     r7,r2,r0
        0x0001af7c:    6971        qi      LDR      r1,[r6,#0x14]
        0x0001af7e:    42b9        .B      CMP      r1,r7
        0x0001af80:    bf04        ..      ITT      EQ
        0x0001af82:    2000        .       MOVEQ    r0,#0
        0x0001af84:    e8bd81f0    ....    POPEQ    {r4-r8,pc}
        0x0001af88:    0840        @.      LSRS     r0,r0,#1
        0x0001af8a:    6ae1        .j      LDR      r1,[r4,#0x2c]
        0x0001af8c:    f0210105    !...    BIC      r1,r1,#5
        0x0001af90:    62e1        .b      STR      r1,[r4,#0x2c]
        0x0001af92:    6ae1        .j      LDR      r1,[r4,#0x2c]
        0x0001af94:    f360210f    `..!    BFI      r1,r0,#8,#8
        0x0001af98:    62e1        .b      STR      r1,[r4,#0x2c]
        0x0001af9a:    6ae0        .j      LDR      r0,[r4,#0x2c]
        0x0001af9c:    f0400001    @...    ORR      r0,r0,#1
        0x0001afa0:    62e0        .b      STR      r0,[r4,#0x2c]
        0x0001afa2:    6ae0        .j      LDR      r0,[r4,#0x2c]
        0x0001afa4:    250a        .%      MOVS     r5,#0xa
        0x0001afa6:    f0100f02    ....    TST      r0,#2
        0x0001afaa:    d009        ..      BEQ      0x1afc0 ; am_hal_sdhc_set_bus_clock + 148
        0x0001afac:    e000        ..      B        0x1afb0 ; am_hal_sdhc_set_bus_clock + 132
        0x0001afae:    b17d        }.      CBZ      r5,0x1afd0 ; am_hal_sdhc_set_bus_clock + 164
        0x0001afb0:    2001        .       MOVS     r0,#1
        0x0001afb2:    1e6d        m.      SUBS     r5,r5,#1
        0x0001afb4:    f000f9a0    ....    BL       am_util_delay_ms ; 0x1b2f8
        0x0001afb8:    6ae0        .j      LDR      r0,[r4,#0x2c]
        0x0001afba:    f0100f02    ....    TST      r0,#2
        0x0001afbe:    d1f6        ..      BNE      0x1afae ; am_hal_sdhc_set_bus_clock + 130
        0x0001afc0:    6ae0        .j      LDR      r0,[r4,#0x2c]
        0x0001afc2:    f0400004    @...    ORR      r0,r0,#4
        0x0001afc6:    62e0        .b      STR      r0,[r4,#0x2c]
        0x0001afc8:    2000        .       MOVS     r0,#0
        0x0001afca:    6177        wa      STR      r7,[r6,#0x14]
        0x0001afcc:    e8bd81f0    ....    POP      {r4-r8,pc}
        0x0001afd0:    2001        .       MOVS     r0,#1
        0x0001afd2:    e8bd81f0    ....    POP      {r4-r8,pc}
    $d
        0x0001afd6:    0000        ..      DCW    0
        0x0001afd8:    008313b0    ....    DCD    8590256
    $t
    i.am_hal_sdhc_set_bus_voltage
    am_hal_sdhc_set_bus_voltage
        0x0001afdc:    2800        .(      CMP      r0,#0
        0x0001afde:    bf1c        ..      ITT      NE
        0x0001afe0:    6802        .h      LDRNE    r2,[r0,#0]
        0x0001afe2:    f0127f80    ....    TSTNE    r2,#0x1000000
        0x0001afe6:    d005        ..      BEQ      0x1aff4 ; am_hal_sdhc_set_bus_voltage + 24
        0x0001afe8:    f8dfc080    ....    LDR      r12,[pc,#128] ; [0x1b06c] = 0x8313b0
        0x0001afec:    f022437f    "..C    BIC      r3,r2,#0xff000000
        0x0001aff0:    4563        cE      CMP      r3,r12
        0x0001aff2:    d001        ..      BEQ      0x1aff8 ; am_hal_sdhc_set_bus_voltage + 28
        0x0001aff4:    2002        .       MOVS     r0,#2
        0x0001aff6:    4770        pG      BX       lr
        0x0001aff8:    f0127f00    ....    TST      r2,#0x2000000
        0x0001affc:    bf04        ..      ITT      EQ
        0x0001affe:    2007        .       MOVEQ    r0,#7
        0x0001b000:    4770        pG      BXEQ     lr
        0x0001b002:    6902        .i      LDR      r2,[r0,#0x10]
        0x0001b004:    b121        !.      CBZ      r1,0x1b010 ; am_hal_sdhc_set_bus_voltage + 52
        0x0001b006:    2901        .)      CMP      r1,#1
        0x0001b008:    d00c        ..      BEQ      0x1b024 ; am_hal_sdhc_set_bus_voltage + 72
        0x0001b00a:    2902        .)      CMP      r1,#2
        0x0001b00c:    d016        ..      BEQ      0x1b03c ; am_hal_sdhc_set_bus_voltage + 96
        0x0001b00e:    e020         .      B        0x1b052 ; am_hal_sdhc_set_bus_voltage + 118
        0x0001b010:    6843        Ch      LDR      r3,[r0,#4]
        0x0001b012:    f1034380    ...C    ADD      r3,r3,#0x40000000
        0x0001b016:    f50323e0    ...#    ADD      r3,r3,#0x70000
        0x0001b01a:    f8d3c028    ..(.    LDR      r12,[r3,#0x28]
        0x0001b01e:    f44c6c20    L. l    ORR      r12,r12,#0xa00
        0x0001b022:    e008        ..      B        0x1b036 ; am_hal_sdhc_set_bus_voltage + 90
        0x0001b024:    6843        Ch      LDR      r3,[r0,#4]
        0x0001b026:    f1034380    ...C    ADD      r3,r3,#0x40000000
        0x0001b02a:    f50323e0    ...#    ADD      r3,r3,#0x70000
        0x0001b02e:    f8d3c028    ..(.    LDR      r12,[r3,#0x28]
        0x0001b032:    f44c6c40    L.@l    ORR      r12,r12,#0xc00
        0x0001b036:    f8c3c028    ..(.    STR      r12,[r3,#0x28]
        0x0001b03a:    e00a        ..      B        0x1b052 ; am_hal_sdhc_set_bus_voltage + 118
        0x0001b03c:    6843        Ch      LDR      r3,[r0,#4]
        0x0001b03e:    f1034380    ...C    ADD      r3,r3,#0x40000000
        0x0001b042:    f50323e0    ...#    ADD      r3,r3,#0x70000
        0x0001b046:    f8d3c028    ..(.    LDR      r12,[r3,#0x28]
        0x0001b04a:    f44c6c60    L.`l    ORR      r12,r12,#0xe00
        0x0001b04e:    f8c3c028    ..(.    STR      r12,[r3,#0x28]
        0x0001b052:    6840        @h      LDR      r0,[r0,#4]
        0x0001b054:    f1004080    ...@    ADD      r0,r0,#0x40000000
        0x0001b058:    f50020e0    ...     ADD      r0,r0,#0x70000
        0x0001b05c:    6a83        .j      LDR      r3,[r0,#0x28]
        0x0001b05e:    f4437380    C..s    ORR      r3,r3,#0x100
        0x0001b062:    6283        .b      STR      r3,[r0,#0x28]
        0x0001b064:    7311        .s      STRB     r1,[r2,#0xc]
        0x0001b066:    2000        .       MOVS     r0,#0
        0x0001b068:    4770        pG      BX       lr
    $d
        0x0001b06a:    0000        ..      DCW    0
        0x0001b06c:    008313b0    ....    DCD    8590256
    $t
    i.am_hal_sdhc_set_bus_width
    am_hal_sdhc_set_bus_width
        0x0001b070:    2800        .(      CMP      r0,#0
        0x0001b072:    bf1c        ..      ITT      NE
        0x0001b074:    6802        .h      LDRNE    r2,[r0,#0]
        0x0001b076:    f0127f80    ....    TSTNE    r2,#0x1000000
        0x0001b07a:    d005        ..      BEQ      0x1b088 ; am_hal_sdhc_set_bus_width + 24
        0x0001b07c:    f8dfc070    ..p.    LDR      r12,[pc,#112] ; [0x1b0f0] = 0x8313b0
        0x0001b080:    f022437f    "..C    BIC      r3,r2,#0xff000000
        0x0001b084:    4563        cE      CMP      r3,r12
        0x0001b086:    d001        ..      BEQ      0x1b08c ; am_hal_sdhc_set_bus_width + 28
        0x0001b088:    2002        .       MOVS     r0,#2
        0x0001b08a:    4770        pG      BX       lr
        0x0001b08c:    f0127f00    ....    TST      r2,#0x2000000
        0x0001b090:    bf04        ..      ITT      EQ
        0x0001b092:    2007        .       MOVEQ    r0,#7
        0x0001b094:    4770        pG      BXEQ     lr
        0x0001b096:    6902        .i      LDR      r2,[r0,#0x10]
        0x0001b098:    2908        .)      CMP      r1,#8
        0x0001b09a:    d01f        ..      BEQ      0x1b0dc ; am_hal_sdhc_set_bus_width + 108
        0x0001b09c:    6843        Ch      LDR      r3,[r0,#4]
        0x0001b09e:    f1034380    ...C    ADD      r3,r3,#0x40000000
        0x0001b0a2:    f50323e0    ...#    ADD      r3,r3,#0x70000
        0x0001b0a6:    f8d3c028    ..(.    LDR      r12,[r3,#0x28]
        0x0001b0aa:    f02c0c20    ,. .    BIC      r12,r12,#0x20
        0x0001b0ae:    f8c3c028    ..(.    STR      r12,[r3,#0x28]
        0x0001b0b2:    6843        Ch      LDR      r3,[r0,#4]
        0x0001b0b4:    2904        .)      CMP      r1,#4
        0x0001b0b6:    f1034380    ...C    ADD      r3,r3,#0x40000000
        0x0001b0ba:    f50323e0    ...#    ADD      r3,r3,#0x70000
        0x0001b0be:    6a9b        .j      LDR      r3,[r3,#0x28]
        0x0001b0c0:    bf0c        ..      ITE      EQ
        0x0001b0c2:    f0430302    C...    ORREQ    r3,r3,#2
        0x0001b0c6:    f0230302    #...    BICNE    r3,r3,#2
        0x0001b0ca:    6840        @h      LDR      r0,[r0,#4]
        0x0001b0cc:    f1004080    ...@    ADD      r0,r0,#0x40000000
        0x0001b0d0:    f50020e0    ...     ADD      r0,r0,#0x70000
        0x0001b0d4:    6283        .b      STR      r3,[r0,#0x28]
        0x0001b0d6:    72d1        .r      STRB     r1,[r2,#0xb]
        0x0001b0d8:    2000        .       MOVS     r0,#0
        0x0001b0da:    4770        pG      BX       lr
        0x0001b0dc:    6840        @h      LDR      r0,[r0,#4]
        0x0001b0de:    f1004080    ...@    ADD      r0,r0,#0x40000000
        0x0001b0e2:    f50020e0    ...     ADD      r0,r0,#0x70000
        0x0001b0e6:    6a83        .j      LDR      r3,[r0,#0x28]
        0x0001b0e8:    f0430320    C. .    ORR      r3,r3,#0x20
        0x0001b0ec:    e7f2        ..      B        0x1b0d4 ; am_hal_sdhc_set_bus_width + 100
    $d
        0x0001b0ee:    0000        ..      DCW    0
        0x0001b0f0:    008313b0    ....    DCD    8590256
    $t
    i.am_hal_sdhc_set_txrx_delay
    am_hal_sdhc_set_txrx_delay
        0x0001b0f4:    480d        .H      LDR      r0,[pc,#52] ; [0x1b12c] = 0x40020450
        0x0001b0f6:    6802        .h      LDR      r2,[r0,#0]
        0x0001b0f8:    f0420204    B...    ORR      r2,r2,#4
        0x0001b0fc:    6002        .`      STR      r2,[r0,#0]
        0x0001b0fe:    780b        .x      LDRB     r3,[r1,#0]
        0x0001b100:    6802        .h      LDR      r2,[r0,#0]
        0x0001b102:    f363228d    c.."    BFI      r2,r3,#10,#4
        0x0001b106:    6002        .`      STR      r2,[r0,#0]
        0x0001b108:    6802        .h      LDR      r2,[r0,#0]
        0x0001b10a:    f4427200    B..r    ORR      r2,r2,#0x200
        0x0001b10e:    6002        .`      STR      r2,[r0,#0]
        0x0001b110:    784a        Jx      LDRB     r2,[r1,#1]
        0x0001b112:    6801        .h      LDR      r1,[r0,#0]
        0x0001b114:    f3621108    b...    BFI      r1,r2,#4,#5
        0x0001b118:    6001        .`      STR      r1,[r0,#0]
        0x0001b11a:    6801        .h      LDR      r1,[r0,#0]
        0x0001b11c:    f0410108    A...    ORR      r1,r1,#8
        0x0001b120:    6001        .`      STR      r1,[r0,#0]
        0x0001b122:    6801        .h      LDR      r1,[r0,#0]
        0x0001b124:    f0210104    !...    BIC      r1,r1,#4
        0x0001b128:    6001        .`      STR      r1,[r0,#0]
        0x0001b12a:    4770        pG      BX       lr
    $d
        0x0001b12c:    40020450    P..@    DCD    1073874000
    $t
    i.am_hal_sdhc_set_uhs_mode
    am_hal_sdhc_set_uhs_mode
        0x0001b130:    2800        .(      CMP      r0,#0
        0x0001b132:    bf1c        ..      ITT      NE
        0x0001b134:    6802        .h      LDRNE    r2,[r0,#0]
        0x0001b136:    f0127f80    ....    TSTNE    r2,#0x1000000
        0x0001b13a:    d005        ..      BEQ      0x1b148 ; am_hal_sdhc_set_uhs_mode + 24
        0x0001b13c:    f8dfc03c    ..<.    LDR      r12,[pc,#60] ; [0x1b17c] = 0x8313b0
        0x0001b140:    f022437f    "..C    BIC      r3,r2,#0xff000000
        0x0001b144:    4563        cE      CMP      r3,r12
        0x0001b146:    d001        ..      BEQ      0x1b14c ; am_hal_sdhc_set_uhs_mode + 28
        0x0001b148:    2002        .       MOVS     r0,#2
        0x0001b14a:    4770        pG      BX       lr
        0x0001b14c:    f0127f00    ....    TST      r2,#0x2000000
        0x0001b150:    bf04        ..      ITT      EQ
        0x0001b152:    2007        .       MOVEQ    r0,#7
        0x0001b154:    4770        pG      BXEQ     lr
        0x0001b156:    6842        Bh      LDR      r2,[r0,#4]
        0x0001b158:    6900        .i      LDR      r0,[r0,#0x10]
        0x0001b15a:    f1024280    ...B    ADD      r2,r2,#0x40000000
        0x0001b15e:    f50222e0    ..."    ADD      r2,r2,#0x70000
        0x0001b162:    7b43        C{      LDRB     r3,[r0,#0xd]
        0x0001b164:    428b        .B      CMP      r3,r1
        0x0001b166:    bf04        ..      ITT      EQ
        0x0001b168:    2000        .       MOVEQ    r0,#0
        0x0001b16a:    4770        pG      BXEQ     lr
        0x0001b16c:    6bd3        .k      LDR      r3,[r2,#0x3c]
        0x0001b16e:    f3614312    a..C    BFI      r3,r1,#16,#3
        0x0001b172:    63d3        .c      STR      r3,[r2,#0x3c]
        0x0001b174:    7341        As      STRB     r1,[r0,#0xd]
        0x0001b176:    2000        .       MOVS     r0,#0
        0x0001b178:    4770        pG      BX       lr
    $d
        0x0001b17a:    0000        ..      DCW    0
        0x0001b17c:    008313b0    ....    DCD    8590256
    $t
    i.am_hal_sdhc_setup_host
    am_hal_sdhc_setup_host
        0x0001b180:    2800        .(      CMP      r0,#0
        0x0001b182:    bf1c        ..      ITT      NE
        0x0001b184:    6802        .h      LDRNE    r2,[r0,#0]
        0x0001b186:    f0127f80    ....    TSTNE    r2,#0x1000000
        0x0001b18a:    d005        ..      BEQ      0x1b198 ; am_hal_sdhc_setup_host + 24
        0x0001b18c:    f8dfc074    ..t.    LDR      r12,[pc,#116] ; [0x1b204] = 0x8313b0
        0x0001b190:    f022437f    "..C    BIC      r3,r2,#0xff000000
        0x0001b194:    4563        cE      CMP      r3,r12
        0x0001b196:    d001        ..      BEQ      0x1b19c ; am_hal_sdhc_setup_host + 28
        0x0001b198:    2002        .       MOVS     r0,#2
        0x0001b19a:    4770        pG      BX       lr
        0x0001b19c:    f0127f00    ....    TST      r2,#0x2000000
        0x0001b1a0:    bf04        ..      ITT      EQ
        0x0001b1a2:    2007        .       MOVEQ    r0,#7
        0x0001b1a4:    4770        pG      BXEQ     lr
        0x0001b1a6:    6101        .a      STR      r1,[r0,#0x10]
        0x0001b1a8:    6842        Bh      LDR      r2,[r0,#4]
        0x0001b1aa:    f1024280    ...B    ADD      r2,r2,#0x40000000
        0x0001b1ae:    f50222e0    ..."    ADD      r2,r2,#0x70000
        0x0001b1b2:    6c13        .l      LDR      r3,[r2,#0x40]
        0x0001b1b4:    0a1b        ..      LSRS     r3,r3,#8
        0x0001b1b6:    7303        .s      STRB     r3,[r0,#0xc]
        0x0001b1b8:    f8d230fc    ...0    LDR      r3,[r2,#0xfc]
        0x0001b1bc:    f8dfc048    ..H.    LDR      r12,[pc,#72] ; [0x1b208] = 0xf4240
        0x0001b1c0:    0c1b        ..      LSRS     r3,r3,#16
        0x0001b1c2:    760b        .v      STRB     r3,[r1,#0x18]
        0x0001b1c4:    7b03        .{      LDRB     r3,[r0,#0xc]
        0x0001b1c6:    fb03f30c    ....    MUL      r3,r3,r12
        0x0001b1ca:    61cb        .a      STR      r3,[r1,#0x1c]
        0x0001b1cc:    0a1b        ..      LSRS     r3,r3,#8
        0x0001b1ce:    620b        .b      STR      r3,[r1,#0x20]
        0x0001b1d0:    2300        .#      MOVS     r3,#0
        0x0001b1d2:    f04f0c03    O...    MOV      r12,#3
        0x0001b1d6:    614b        Ka      STR      r3,[r1,#0x14]
        0x0001b1d8:    f881c00a    ....    STRB     r12,[r1,#0xa]
        0x0001b1dc:    f04f0c01    O...    MOV      r12,#1
        0x0001b1e0:    f881c00b    ....    STRB     r12,[r1,#0xb]
        0x0001b1e4:    734b        Ks      STRB     r3,[r1,#0xd]
        0x0001b1e6:    f44f63fe    O..c    MOV      r3,#0x7f0
        0x0001b1ea:    610b        .a      STR      r3,[r1,#0x10]
        0x0001b1ec:    6851        Qh      LDR      r1,[r2,#4]
        0x0001b1ee:    f44f5280    O..R    MOV      r2,#0x1000
        0x0001b1f2:    f3c13102    ...1    UBFX     r1,r1,#12,#3
        0x0001b1f6:    fa02f101    ....    LSL      r1,r2,r1
        0x0001b1fa:    6081        .`      STR      r1,[r0,#8]
        0x0001b1fc:    f880c039    ..9.    STRB     r12,[r0,#0x39]
        0x0001b200:    2000        .       MOVS     r0,#0
        0x0001b202:    4770        pG      BX       lr
    $d
        0x0001b204:    008313b0    ....    DCD    8590256
        0x0001b208:    000f4240    @B..    DCD    1000000
    $t
    i.am_hal_tpiu_enable
    am_hal_tpiu_enable
        0x0001b20c:    4914        .I      LDR      r1,[pc,#80] ; [0x1b260] = 0xe0040000
        0x0001b20e:    2200        ."      MOVS     r2,#0
        0x0001b210:    f8c12304    ...#    STR      r2,[r1,#0x304]
        0x0001b214:    2301        .#      MOVS     r3,#1
        0x0001b216:    604b        K`      STR      r3,[r1,#4]
        0x0001b218:    f8dfc048    ..H.    LDR      r12,[pc,#72] ; [0x1b264] = 0x1da381
        0x0001b21c:    f5a04361    ..aC    SUB      r3,r0,#0xe100
        0x0001b220:    4563        cE      CMP      r3,r12
        0x0001b222:    bf28        (.      IT       CS
        0x0001b224:    4810        .H      LDRCS    r0,[pc,#64] ; [0x1b268] = 0xf4240
        0x0001b226:    4b11        .K      LDR      r3,[pc,#68] ; [0x1b26c] = 0x2dc6c00
        0x0001b228:    fbb3f0f0    ....    UDIV     r0,r3,r0
        0x0001b22c:    1e40        @.      SUBS     r0,r0,#1
        0x0001b22e:    b280        ..      UXTH     r0,r0
        0x0001b230:    6108        .a      STR      r0,[r1,#0x10]
        0x0001b232:    2002        .       MOVS     r0,#2
        0x0001b234:    f8c100f0    ....    STR      r0,[r1,#0xf0]
        0x0001b238:    480d        .H      LDR      r0,[pc,#52] ; [0x1b270] = 0xe0040f00
        0x0001b23a:    6002        .`      STR      r2,[r0,#0]
        0x0001b23c:    480d        .H      LDR      r0,[pc,#52] ; [0x1b274] = 0x40020000
        0x0001b23e:    f8d01250    ..P.    LDR      r1,[r0,#0x250]
        0x0001b242:    f021010e    !...    BIC      r1,r1,#0xe
        0x0001b246:    1d09        ..      ADDS     r1,r1,#4
        0x0001b248:    f8c01250    ..P.    STR      r1,[r0,#0x250]
        0x0001b24c:    f8d01250    ..P.    LDR      r1,[r0,#0x250]
        0x0001b250:    f0410101    A...    ORR      r1,r1,#1
        0x0001b254:    f8c01250    ..P.    STR      r1,[r0,#0x250]
        0x0001b258:    2064        d       MOVS     r0,#0x64
        0x0001b25a:    f7febb59    ..Y.    B        am_hal_delay_us ; 0x19910
    $d
        0x0001b25e:    0000        ..      DCW    0
        0x0001b260:    e0040000    ....    DCD    3758358528
        0x0001b264:    001da381    ....    DCD    1942401
        0x0001b268:    000f4240    @B..    DCD    1000000
        0x0001b26c:    02dc6c00    .l..    DCD    48000000
        0x0001b270:    e0040f00    ....    DCD    3758362368
        0x0001b274:    40020000    ...@    DCD    1073872896
    $t
    i.am_hal_unstuff_bytes
    am_hal_unstuff_bytes
        0x0001b278:    4603        .F      MOV      r3,r0
        0x0001b27a:    b410        ..      PUSH     {r4}
        0x0001b27c:    2000        .       MOVS     r0,#0
        0x0001b27e:    2a00        .*      CMP      r2,#0
        0x0001b280:    bf04        ..      ITT      EQ
        0x0001b282:    bc10        ..      POPEQ    {r4}
        0x0001b284:    4770        pG      BXEQ     lr
        0x0001b286:    4419        .D      ADD      r1,r1,r3
        0x0001b288:    2300        .#      MOVS     r3,#0
        0x0001b28a:    1e49        I.      SUBS     r1,r1,#1
        0x0001b28c:    f0120f01    ....    TST      r2,#1
        0x0001b290:    d002        ..      BEQ      0x1b298 ; am_hal_unstuff_bytes + 32
        0x0001b292:    f8110f01    ....    LDRB     r0,[r1,#1]!
        0x0001b296:    2301        .#      MOVS     r3,#1
        0x0001b298:    0852        R.      LSRS     r2,r2,#1
        0x0001b29a:    bf04        ..      ITT      EQ
        0x0001b29c:    bc10        ..      POPEQ    {r4}
        0x0001b29e:    4770        pG      BXEQ     lr
        0x0001b2a0:    784c        Lx      LDRB     r4,[r1,#1]
        0x0001b2a2:    ea4f0cc3    O...    LSL      r12,r3,#3
        0x0001b2a6:    fa04f40c    ....    LSL      r4,r4,r12
        0x0001b2aa:    4320         C      ORRS     r0,r0,r4
        0x0001b2ac:    f8114f02    ...O    LDRB     r4,[r1,#2]!
        0x0001b2b0:    f10c0c08    ....    ADD      r12,r12,#8
        0x0001b2b4:    fa04fc0c    ....    LSL      r12,r4,r12
        0x0001b2b8:    ea4c0000    L...    ORR      r0,r12,r0
        0x0001b2bc:    1e52        R.      SUBS     r2,r2,#1
        0x0001b2be:    f1030302    ....    ADD      r3,r3,#2
        0x0001b2c2:    d1ed        ..      BNE      0x1b2a0 ; am_hal_unstuff_bytes + 40
        0x0001b2c4:    bc10        ..      POP      {r4}
        0x0001b2c6:    4770        pG      BX       lr
    i.am_sdio_isr
    am_sdio_isr
        0x0001b2c8:    b508        ..      PUSH     {r3,lr}
        0x0001b2ca:    490a        .I      LDR      r1,[pc,#40] ; [0x1b2f4] = 0x1000011c
        0x0001b2cc:    6809        .h      LDR      r1,[r1,#0]
        0x0001b2ce:    2201        ."      MOVS     r2,#1
        0x0001b2d0:    6808        .h      LDR      r0,[r1,#0]
        0x0001b2d2:    4669        iF      MOV      r1,sp
        0x0001b2d4:    f7fffd0e    ....    BL       am_hal_sdhc_intr_status_get ; 0x1acf4
        0x0001b2d8:    4906        .I      LDR      r1,[pc,#24] ; [0x1b2f4] = 0x1000011c
        0x0001b2da:    6809        .h      LDR      r1,[r1,#0]
        0x0001b2dc:    6808        .h      LDR      r0,[r1,#0]
        0x0001b2de:    9900        ..      LDR      r1,[sp,#0]
        0x0001b2e0:    f7fffcea    ....    BL       am_hal_sdhc_intr_status_clear ; 0x1acb8
        0x0001b2e4:    4903        .I      LDR      r1,[pc,#12] ; [0x1b2f4] = 0x1000011c
        0x0001b2e6:    6809        .h      LDR      r1,[r1,#0]
        0x0001b2e8:    6808        .h      LDR      r0,[r1,#0]
        0x0001b2ea:    9900        ..      LDR      r1,[sp,#0]
        0x0001b2ec:    f7fffc46    ..F.    BL       am_hal_sdhc_interrupt_service ; 0x1ab7c
        0x0001b2f0:    bd08        ..      POP      {r3,pc}
    $d
        0x0001b2f2:    0000        ..      DCW    0
        0x0001b2f4:    1000011c    ....    DCD    268435740
    $t
    i.am_util_delay_ms
    am_util_delay_ms
        0x0001b2f8:    b510        ..      PUSH     {r4,lr}
        0x0001b2fa:    4604        .F      MOV      r4,r0
        0x0001b2fc:    f44f717a    O.zq    MOV      r1,#0x3e8
        0x0001b300:    fb04f001    ....    MUL      r0,r4,r1
        0x0001b304:    f7fefb04    ....    BL       am_hal_delay_us ; 0x19910
        0x0001b308:    bd10        ..      POP      {r4,pc}
    i.am_util_delay_us
    am_util_delay_us
        0x0001b30a:    b510        ..      PUSH     {r4,lr}
        0x0001b30c:    4604        .F      MOV      r4,r0
        0x0001b30e:    4620         F      MOV      r0,r4
        0x0001b310:    f7fefafe    ....    BL       am_hal_delay_us ; 0x19910
        0x0001b314:    bd10        ..      POP      {r4,pc}
        0x0001b316:    0000        ..      MOVS     r0,r0
    i.am_util_faultisr_collect_data
    am_util_faultisr_collect_data
        0x0001b318:    b092        ..      SUB      sp,sp,#0x48
        0x0001b31a:    4604        .F      MOV      r4,r0
        0x0001b31c:    2118        .!      MOVS     r1,#0x18
        0x0001b31e:    4668        hF      MOV      r0,sp
        0x0001b320:    f7fdf856    ..V.    BL       __aeabi_memclr4 ; 0x183d0
        0x0001b324:    2500        .%      MOVS     r5,#0
        0x0001b326:    9510        ..      STR      r5,[sp,#0x40]
        0x0001b328:    4828        (H      LDR      r0,[pc,#160] ; [0x1b3cc] = 0xe000ed28
        0x0001b32a:    6800        .h      LDR      r0,[r0,#0]
        0x0001b32c:    9010        ..      STR      r0,[sp,#0x40]
        0x0001b32e:    9810        ..      LDR      r0,[sp,#0x40]
        0x0001b330:    b2c0        ..      UXTB     r0,r0
        0x0001b332:    f88d0044    ..D.    STRB     r0,[sp,#0x44]
        0x0001b336:    9810        ..      LDR      r0,[sp,#0x40]
        0x0001b338:    0a00        ..      LSRS     r0,r0,#8
        0x0001b33a:    f88d0045    ..E.    STRB     r0,[sp,#0x45]
        0x0001b33e:    9810        ..      LDR      r0,[sp,#0x40]
        0x0001b340:    f64f71ff    O..q    MOV      r1,#0xffff
        0x0001b344:    ea014010    ...@    AND      r0,r1,r0,LSR #16
        0x0001b348:    f8ad0046    ..F.    STRH     r0,[sp,#0x46]
        0x0001b34c:    481f        .H      LDR      r0,[pc,#124] ; [0x1b3cc] = 0xe000ed28
        0x0001b34e:    3010        .0      ADDS     r0,r0,#0x10
        0x0001b350:    6800        .h      LDR      r0,[r0,#0]
        0x0001b352:    900f        ..      STR      r0,[sp,#0x3c]
        0x0001b354:    f89d0045    ..E.    LDRB     r0,[sp,#0x45]
        0x0001b358:    f0000002    ....    AND      r0,r0,#2
        0x0001b35c:    b120         .      CBZ      r0,0x1b368 ; am_util_faultisr_collect_data + 80
        0x0001b35e:    4621        !F      MOV      r1,r4
        0x0001b360:    2006        .       MOVS     r0,#6
        0x0001b362:    f7fcfff2    ....    BL       getStackedReg ; 0x1834a
        0x0001b366:    e001        ..      B        0x1b36c ; am_util_faultisr_collect_data + 84
        0x0001b368:    f04f30ff    O..0    MOV      r0,#0xffffffff
        0x0001b36c:    900e        ..      STR      r0,[sp,#0x38]
        0x0001b36e:    4621        !F      MOV      r1,r4
        0x0001b370:    2000        .       MOVS     r0,#0
        0x0001b372:    f7fcffea    ....    BL       getStackedReg ; 0x1834a
        0x0001b376:    9006        ..      STR      r0,[sp,#0x18]
        0x0001b378:    4621        !F      MOV      r1,r4
        0x0001b37a:    2001        .       MOVS     r0,#1
        0x0001b37c:    f7fcffe5    ....    BL       getStackedReg ; 0x1834a
        0x0001b380:    9007        ..      STR      r0,[sp,#0x1c]
        0x0001b382:    4621        !F      MOV      r1,r4
        0x0001b384:    2002        .       MOVS     r0,#2
        0x0001b386:    f7fcffe0    ....    BL       getStackedReg ; 0x1834a
        0x0001b38a:    9008        ..      STR      r0,[sp,#0x20]
        0x0001b38c:    4621        !F      MOV      r1,r4
        0x0001b38e:    2003        .       MOVS     r0,#3
        0x0001b390:    f7fcffdb    ....    BL       getStackedReg ; 0x1834a
        0x0001b394:    9009        ..      STR      r0,[sp,#0x24]
        0x0001b396:    4621        !F      MOV      r1,r4
        0x0001b398:    2004        .       MOVS     r0,#4
        0x0001b39a:    f7fcffd6    ....    BL       getStackedReg ; 0x1834a
        0x0001b39e:    900a        ..      STR      r0,[sp,#0x28]
        0x0001b3a0:    4621        !F      MOV      r1,r4
        0x0001b3a2:    2005        .       MOVS     r0,#5
        0x0001b3a4:    f7fcffd1    ....    BL       getStackedReg ; 0x1834a
        0x0001b3a8:    900b        ..      STR      r0,[sp,#0x2c]
        0x0001b3aa:    4621        !F      MOV      r1,r4
        0x0001b3ac:    2006        .       MOVS     r0,#6
        0x0001b3ae:    f7fcffcc    ....    BL       getStackedReg ; 0x1834a
        0x0001b3b2:    900c        ..      STR      r0,[sp,#0x30]
        0x0001b3b4:    4621        !F      MOV      r1,r4
        0x0001b3b6:    2007        .       MOVS     r0,#7
        0x0001b3b8:    f7fcffc7    ....    BL       getStackedReg ; 0x1834a
        0x0001b3bc:    900d        ..      STR      r0,[sp,#0x34]
        0x0001b3be:    4668        hF      MOV      r0,sp
        0x0001b3c0:    f7fefb1a    ....    BL       am_hal_fault_status_get ; 0x199f8
        0x0001b3c4:    bf00        ..      NOP      
        0x0001b3c6:    bf00        ..      NOP      
        0x0001b3c8:    e7fe        ..      B        0x1b3c8 ; am_util_faultisr_collect_data + 176
    $d
        0x0001b3ca:    0000        ..      DCW    0
        0x0001b3cc:    e000ed28    (...    DCD    3758157096
    $t
    i.am_util_stdio_printf
    am_util_stdio_printf
        0x0001b3d0:    b40f        ..      PUSH     {r0-r3}
        0x0001b3d2:    b538        8.      PUSH     {r3-r5,lr}
        0x0001b3d4:    480b        .H      LDR      r0,[pc,#44] ; [0x1b404] = 0x10000124
        0x0001b3d6:    6800        .h      LDR      r0,[r0,#0]
        0x0001b3d8:    b918        ..      CBNZ     r0,0x1b3e2 ; am_util_stdio_printf + 18
        0x0001b3da:    2000        .       MOVS     r0,#0
        0x0001b3dc:    bc38        8.      POP      {r3-r5}
        0x0001b3de:    f85dfb14    ]...    LDR      pc,[sp],#0x14
        0x0001b3e2:    a805        ..      ADD      r0,sp,#0x14
        0x0001b3e4:    9000        ..      STR      r0,[sp,#0]
        0x0001b3e6:    4808        .H      LDR      r0,[pc,#32] ; [0x1b408] = 0x10000c38
        0x0001b3e8:    9a00        ..      LDR      r2,[sp,#0]
        0x0001b3ea:    9904        ..      LDR      r1,[sp,#0x10]
        0x0001b3ec:    f000f814    ....    BL       am_util_stdio_vsprintf ; 0x1b418
        0x0001b3f0:    4604        .F      MOV      r4,r0
        0x0001b3f2:    2000        .       MOVS     r0,#0
        0x0001b3f4:    9000        ..      STR      r0,[sp,#0]
        0x0001b3f6:    4804        .H      LDR      r0,[pc,#16] ; [0x1b408] = 0x10000c38
        0x0001b3f8:    4902        .I      LDR      r1,[pc,#8] ; [0x1b404] = 0x10000124
        0x0001b3fa:    6809        .h      LDR      r1,[r1,#0]
        0x0001b3fc:    4788        .G      BLX      r1
        0x0001b3fe:    4620         F      MOV      r0,r4
        0x0001b400:    e7ec        ..      B        0x1b3dc ; am_util_stdio_printf + 12
    $d
        0x0001b402:    0000        ..      DCW    0
        0x0001b404:    10000124    $...    DCD    268435748
        0x0001b408:    10000c38    8...    DCD    268438584
    $t
    i.am_util_stdio_printf_init
    am_util_stdio_printf_init
        0x0001b40c:    4901        .I      LDR      r1,[pc,#4] ; [0x1b414] = 0x10000124
        0x0001b40e:    6008        .`      STR      r0,[r1,#0]
        0x0001b410:    4770        pG      BX       lr
    $d
        0x0001b412:    0000        ..      DCW    0
        0x0001b414:    10000124    $...    DCD    268435748
    $t
    i.am_util_stdio_vsprintf
    am_util_stdio_vsprintf
        0x0001b418:    e92d4ff7    -..O    PUSH     {r0-r2,r4-r11,lr}
        0x0001b41c:    ed2d8b02    -...    VPUSH    {d8}
        0x0001b420:    b08a        ..      SUB      sp,sp,#0x28
        0x0001b422:    4604        .F      MOV      r4,r0
        0x0001b424:    460d        .F      MOV      r5,r1
        0x0001b426:    f04f0900    O...    MOV      r9,#0
        0x0001b42a:    2000        .       MOVS     r0,#0
        0x0001b42c:    9000        ..      STR      r0,[sp,#0]
        0x0001b42e:    e1b9        ..      B        0x1b7a4 ; am_util_stdio_vsprintf + 908
        0x0001b430:    2006        .       MOVS     r0,#6
        0x0001b432:    9006        ..      STR      r0,[sp,#0x18]
        0x0001b434:    7828        (x      LDRB     r0,[r5,#0]
        0x0001b436:    2825        %(      CMP      r0,#0x25
        0x0001b438:    d012        ..      BEQ      0x1b460 ; am_util_stdio_vsprintf + 72
        0x0001b43a:    b16c        l.      CBZ      r4,0x1b458 ; am_util_stdio_vsprintf + 64
        0x0001b43c:    7828        (x      LDRB     r0,[r5,#0]
        0x0001b43e:    280a        .(      CMP      r0,#0xa
        0x0001b440:    d107        ..      BNE      0x1b452 ; am_util_stdio_vsprintf + 58
        0x0001b442:    48de        .H      LDR      r0,[pc,#888] ; [0x1b7bc] = 0x10000128
        0x0001b444:    7800        .x      LDRB     r0,[r0,#0]
        0x0001b446:    b120         .      CBZ      r0,0x1b452 ; am_util_stdio_vsprintf + 58
        0x0001b448:    200d        .       MOVS     r0,#0xd
        0x0001b44a:    f8040b01    ....    STRB     r0,[r4],#1
        0x0001b44e:    f1090901    ....    ADD      r9,r9,#1
        0x0001b452:    7828        (x      LDRB     r0,[r5,#0]
        0x0001b454:    f8040b01    ....    STRB     r0,[r4],#1
        0x0001b458:    1c6d        m.      ADDS     r5,r5,#1
        0x0001b45a:    f1090901    ....    ADD      r9,r9,#1
        0x0001b45e:    e1a1        ..      B        0x1b7a4 ; am_util_stdio_vsprintf + 908
        0x0001b460:    1c6d        m.      ADDS     r5,r5,#1
        0x0001b462:    2000        .       MOVS     r0,#0
        0x0001b464:    9002        ..      STR      r0,[sp,#8]
        0x0001b466:    9003        ..      STR      r0,[sp,#0xc]
        0x0001b468:    2020                MOVS     r0,#0x20
        0x0001b46a:    9004        ..      STR      r0,[sp,#0x10]
        0x0001b46c:    7828        (x      LDRB     r0,[r5,#0]
        0x0001b46e:    2830        0(      CMP      r0,#0x30
        0x0001b470:    d101        ..      BNE      0x1b476 ; am_util_stdio_vsprintf + 94
        0x0001b472:    9004        ..      STR      r0,[sp,#0x10]
        0x0001b474:    1c6d        m.      ADDS     r5,r5,#1
        0x0001b476:    a907        ..      ADD      r1,sp,#0x1c
        0x0001b478:    4628        (F      MOV      r0,r5
        0x0001b47a:    f000fdcb    ....    BL       decstr_to_int ; 0x1c014
        0x0001b47e:    4606        .F      MOV      r6,r0
        0x0001b480:    9807        ..      LDR      r0,[sp,#0x1c]
        0x0001b482:    4405        .D      ADD      r5,r5,r0
        0x0001b484:    7828        (x      LDRB     r0,[r5,#0]
        0x0001b486:    2873        s(      CMP      r0,#0x73
        0x0001b488:    d002        ..      BEQ      0x1b490 ; am_util_stdio_vsprintf + 120
        0x0001b48a:    2e00        ..      CMP      r6,#0
        0x0001b48c:    da00        ..      BGE      0x1b490 ; am_util_stdio_vsprintf + 120
        0x0001b48e:    4276        vB      RSBS     r6,r6,#0
        0x0001b490:    7828        (x      LDRB     r0,[r5,#0]
        0x0001b492:    282e        .(      CMP      r0,#0x2e
        0x0001b494:    d107        ..      BNE      0x1b4a6 ; am_util_stdio_vsprintf + 142
        0x0001b496:    1c6d        m.      ADDS     r5,r5,#1
        0x0001b498:    a907        ..      ADD      r1,sp,#0x1c
        0x0001b49a:    4628        (F      MOV      r0,r5
        0x0001b49c:    f000fdba    ....    BL       decstr_to_int ; 0x1c014
        0x0001b4a0:    9006        ..      STR      r0,[sp,#0x18]
        0x0001b4a2:    9807        ..      LDR      r0,[sp,#0x1c]
        0x0001b4a4:    4405        .D      ADD      r5,r5,r0
        0x0001b4a6:    7828        (x      LDRB     r0,[r5,#0]
        0x0001b4a8:    286c        l(      CMP      r0,#0x6c
        0x0001b4aa:    d106        ..      BNE      0x1b4ba ; am_util_stdio_vsprintf + 162
        0x0001b4ac:    1c6d        m.      ADDS     r5,r5,#1
        0x0001b4ae:    7828        (x      LDRB     r0,[r5,#0]
        0x0001b4b0:    286c        l(      CMP      r0,#0x6c
        0x0001b4b2:    d102        ..      BNE      0x1b4ba ; am_util_stdio_vsprintf + 162
        0x0001b4b4:    1c6d        m.      ADDS     r5,r5,#1
        0x0001b4b6:    2001        .       MOVS     r0,#1
        0x0001b4b8:    9002        ..      STR      r0,[sp,#8]
        0x0001b4ba:    7828        (x      LDRB     r0,[r5,#0]
        0x0001b4bc:    2866        f(      CMP      r0,#0x66
        0x0001b4be:    d06f        o.      BEQ      0x1b5a0 ; am_util_stdio_vsprintf + 392
        0x0001b4c0:    dc08        ..      BGT      0x1b4d4 ; am_util_stdio_vsprintf + 188
        0x0001b4c2:    2846        F(      CMP      r0,#0x46
        0x0001b4c4:    d06d        m.      BEQ      0x1b5a2 ; am_util_stdio_vsprintf + 394
        0x0001b4c6:    2858        X(      CMP      r0,#0x58
        0x0001b4c8:    d05c        \.      BEQ      0x1b584 ; am_util_stdio_vsprintf + 364
        0x0001b4ca:    2863        c(      CMP      r0,#0x63
        0x0001b4cc:    d00b        ..      BEQ      0x1b4e6 ; am_util_stdio_vsprintf + 206
        0x0001b4ce:    2864        d(      CMP      r0,#0x64
        0x0001b4d0:    d168        h.      BNE      0x1b5a4 ; am_util_stdio_vsprintf + 396
        0x0001b4d2:    e0c3        ..      B        0x1b65c ; am_util_stdio_vsprintf + 580
        0x0001b4d4:    2869        i(      CMP      r0,#0x69
        0x0001b4d6:    d07d        }.      BEQ      0x1b5d4 ; am_util_stdio_vsprintf + 444
        0x0001b4d8:    2873        s(      CMP      r0,#0x73
        0x0001b4da:    d011        ..      BEQ      0x1b500 ; am_util_stdio_vsprintf + 232
        0x0001b4dc:    2875        u(      CMP      r0,#0x75
        0x0001b4de:    d07a        z.      BEQ      0x1b5d6 ; am_util_stdio_vsprintf + 446
        0x0001b4e0:    2878        x(      CMP      r0,#0x78
        0x0001b4e2:    d1f5        ..      BNE      0x1b4d0 ; am_util_stdio_vsprintf + 184
        0x0001b4e4:    e04b        K.      B        0x1b57e ; am_util_stdio_vsprintf + 358
        0x0001b4e6:    980e        ..      LDR      r0,[sp,#0x38]
        0x0001b4e8:    f8101b04    ....    LDRB     r1,[r0],#4
        0x0001b4ec:    900e        ..      STR      r0,[sp,#0x38]
        0x0001b4ee:    b2c8        ..      UXTB     r0,r1
        0x0001b4f0:    9005        ..      STR      r0,[sp,#0x14]
        0x0001b4f2:    b114        ..      CBZ      r4,0x1b4fa ; am_util_stdio_vsprintf + 226
        0x0001b4f4:    9805        ..      LDR      r0,[sp,#0x14]
        0x0001b4f6:    f8040b01    ....    STRB     r0,[r4],#1
        0x0001b4fa:    f1090901    ....    ADD      r9,r9,#1
        0x0001b4fe:    e14e        N.      B        0x1b79e ; am_util_stdio_vsprintf + 902
        0x0001b500:    980e        ..      LDR      r0,[sp,#0x38]
        0x0001b502:    f850bb04    P...    LDR      r11,[r0],#4
        0x0001b506:    900e        ..      STR      r0,[sp,#0x38]
        0x0001b508:    4658        XF      MOV      r0,r11
        0x0001b50a:    f003fa06    ....    BL       simple_strlen ; 0x1e91a
        0x0001b50e:    9000        ..      STR      r0,[sp,#0]
        0x0001b510:    2e00        ..      CMP      r6,#0
        0x0001b512:    dd11        ..      BLE      0x1b538 ; am_util_stdio_vsprintf + 288
        0x0001b514:    9800        ..      LDR      r0,[sp,#0]
        0x0001b516:    42b0        .B      CMP      r0,r6
        0x0001b518:    d20e        ..      BCS      0x1b538 ; am_util_stdio_vsprintf + 288
        0x0001b51a:    9800        ..      LDR      r0,[sp,#0]
        0x0001b51c:    1a36        6.      SUBS     r6,r6,r0
        0x0001b51e:    4632        2F      MOV      r2,r6
        0x0001b520:    4620         F      MOV      r0,r4
        0x0001b522:    9904        ..      LDR      r1,[sp,#0x10]
        0x0001b524:    f003f8bf    ....    BL       padbuffer ; 0x1e6a6
        0x0001b528:    4606        .F      MOV      r6,r0
        0x0001b52a:    b10c        ..      CBZ      r4,0x1b530 ; am_util_stdio_vsprintf + 280
        0x0001b52c:    4630        0F      MOV      r0,r6
        0x0001b52e:    e000        ..      B        0x1b532 ; am_util_stdio_vsprintf + 282
        0x0001b530:    2000        .       MOVS     r0,#0
        0x0001b532:    4404        .D      ADD      r4,r4,r0
        0x0001b534:    44b1        .D      ADD      r9,r9,r6
        0x0001b536:    2600        .&      MOVS     r6,#0
        0x0001b538:    e008        ..      B        0x1b54c ; am_util_stdio_vsprintf + 308
        0x0001b53a:    b11c        ..      CBZ      r4,0x1b544 ; am_util_stdio_vsprintf + 300
        0x0001b53c:    f89b0000    ....    LDRB     r0,[r11,#0]
        0x0001b540:    f8040b01    ....    STRB     r0,[r4],#1
        0x0001b544:    f10b0b01    ....    ADD      r11,r11,#1
        0x0001b548:    f1090901    ....    ADD      r9,r9,#1
        0x0001b54c:    f89b0000    ....    LDRB     r0,[r11,#0]
        0x0001b550:    2800        .(      CMP      r0,#0
        0x0001b552:    d1f2        ..      BNE      0x1b53a ; am_util_stdio_vsprintf + 290
        0x0001b554:    b196        ..      CBZ      r6,0x1b57c ; am_util_stdio_vsprintf + 356
        0x0001b556:    4276        vB      RSBS     r6,r6,#0
        0x0001b558:    9800        ..      LDR      r0,[sp,#0]
        0x0001b55a:    42b0        .B      CMP      r0,r6
        0x0001b55c:    d20e        ..      BCS      0x1b57c ; am_util_stdio_vsprintf + 356
        0x0001b55e:    9800        ..      LDR      r0,[sp,#0]
        0x0001b560:    1a36        6.      SUBS     r6,r6,r0
        0x0001b562:    4632        2F      MOV      r2,r6
        0x0001b564:    4620         F      MOV      r0,r4
        0x0001b566:    9904        ..      LDR      r1,[sp,#0x10]
        0x0001b568:    f003f89d    ....    BL       padbuffer ; 0x1e6a6
        0x0001b56c:    4606        .F      MOV      r6,r0
        0x0001b56e:    b10c        ..      CBZ      r4,0x1b574 ; am_util_stdio_vsprintf + 348
        0x0001b570:    4630        0F      MOV      r0,r6
        0x0001b572:    e000        ..      B        0x1b576 ; am_util_stdio_vsprintf + 350
        0x0001b574:    2000        .       MOVS     r0,#0
        0x0001b576:    4404        .D      ADD      r4,r4,r0
        0x0001b578:    44b1        .D      ADD      r9,r9,r6
        0x0001b57a:    2600        .&      MOVS     r6,#0
        0x0001b57c:    e10f        ..      B        0x1b79e ; am_util_stdio_vsprintf + 902
        0x0001b57e:    2001        .       MOVS     r0,#1
        0x0001b580:    9003        ..      STR      r0,[sp,#0xc]
        0x0001b582:    bf00        ..      NOP      
        0x0001b584:    9802        ..      LDR      r0,[sp,#8]
        0x0001b586:    b170        p.      CBZ      r0,0x1b5a6 ; am_util_stdio_vsprintf + 398
        0x0001b588:    980e        ..      LDR      r0,[sp,#0x38]
        0x0001b58a:    1dc0        ..      ADDS     r0,r0,#7
        0x0001b58c:    f0200007     ...    BIC      r0,r0,#7
        0x0001b590:    4601        .F      MOV      r1,r0
        0x0001b592:    900e        ..      STR      r0,[sp,#0x38]
        0x0001b594:    6800        .h      LDR      r0,[r0,#0]
        0x0001b596:    6849        Ih      LDR      r1,[r1,#4]
        0x0001b598:    9a0e        ..      LDR      r2,[sp,#0x38]
        0x0001b59a:    3208        .2      ADDS     r2,r2,#8
        0x0001b59c:    920e        ..      STR      r2,[sp,#0x38]
        0x0001b59e:    e008        ..      B        0x1b5b2 ; am_util_stdio_vsprintf + 410
        0x0001b5a0:    e0c3        ..      B        0x1b72a ; am_util_stdio_vsprintf + 786
        0x0001b5a2:    e0c3        ..      B        0x1b72c ; am_util_stdio_vsprintf + 788
        0x0001b5a4:    e0f4        ..      B        0x1b790 ; am_util_stdio_vsprintf + 888
        0x0001b5a6:    980e        ..      LDR      r0,[sp,#0x38]
        0x0001b5a8:    6800        .h      LDR      r0,[r0,#0]
        0x0001b5aa:    990e        ..      LDR      r1,[sp,#0x38]
        0x0001b5ac:    1d09        ..      ADDS     r1,r1,#4
        0x0001b5ae:    910e        ..      STR      r1,[sp,#0x38]
        0x0001b5b0:    2100        .!      MOVS     r1,#0
        0x0001b5b2:    4607        .F      MOV      r7,r0
        0x0001b5b4:    4688        .F      MOV      r8,r1
        0x0001b5b6:    b19e        ..      CBZ      r6,0x1b5e0 ; am_util_stdio_vsprintf + 456
        0x0001b5b8:    4638        8F      MOV      r0,r7
        0x0001b5ba:    4641        AF      MOV      r1,r8
        0x0001b5bc:    f003f82a    ..*.    BL       ndigits_in_hex ; 0x1e614
        0x0001b5c0:    1a36        6.      SUBS     r6,r6,r0
        0x0001b5c2:    4632        2F      MOV      r2,r6
        0x0001b5c4:    4620         F      MOV      r0,r4
        0x0001b5c6:    9904        ..      LDR      r1,[sp,#0x10]
        0x0001b5c8:    f003f86d    ..m.    BL       padbuffer ; 0x1e6a6
        0x0001b5cc:    4606        .F      MOV      r6,r0
        0x0001b5ce:    b11c        ..      CBZ      r4,0x1b5d8 ; am_util_stdio_vsprintf + 448
        0x0001b5d0:    4630        0F      MOV      r0,r6
        0x0001b5d2:    e002        ..      B        0x1b5da ; am_util_stdio_vsprintf + 450
        0x0001b5d4:    e043        C.      B        0x1b65e ; am_util_stdio_vsprintf + 582
        0x0001b5d6:    e00e        ..      B        0x1b5f6 ; am_util_stdio_vsprintf + 478
        0x0001b5d8:    2000        .       MOVS     r0,#0
        0x0001b5da:    4404        .D      ADD      r4,r4,r0
        0x0001b5dc:    44b1        .D      ADD      r9,r9,r6
        0x0001b5de:    2600        .&      MOVS     r6,#0
        0x0001b5e0:    4622        "F      MOV      r2,r4
        0x0001b5e2:    4638        8F      MOV      r0,r7
        0x0001b5e4:    4641        AF      MOV      r1,r8
        0x0001b5e6:    9b03        ..      LDR      r3,[sp,#0xc]
        0x0001b5e8:    f003fa6b    ..k.    BL       uint64_to_hexstr ; 0x1eac2
        0x0001b5ec:    4682        .F      MOV      r10,r0
        0x0001b5ee:    b104        ..      CBZ      r4,0x1b5f2 ; am_util_stdio_vsprintf + 474
        0x0001b5f0:    4454        TD      ADD      r4,r4,r10
        0x0001b5f2:    44d1        .D      ADD      r9,r9,r10
        0x0001b5f4:    e0d3        ..      B        0x1b79e ; am_util_stdio_vsprintf + 902
        0x0001b5f6:    9802        ..      LDR      r0,[sp,#8]
        0x0001b5f8:    b158        X.      CBZ      r0,0x1b612 ; am_util_stdio_vsprintf + 506
        0x0001b5fa:    980e        ..      LDR      r0,[sp,#0x38]
        0x0001b5fc:    1dc0        ..      ADDS     r0,r0,#7
        0x0001b5fe:    f0200007     ...    BIC      r0,r0,#7
        0x0001b602:    4601        .F      MOV      r1,r0
        0x0001b604:    900e        ..      STR      r0,[sp,#0x38]
        0x0001b606:    6800        .h      LDR      r0,[r0,#0]
        0x0001b608:    6849        Ih      LDR      r1,[r1,#4]
        0x0001b60a:    9a0e        ..      LDR      r2,[sp,#0x38]
        0x0001b60c:    3208        .2      ADDS     r2,r2,#8
        0x0001b60e:    920e        ..      STR      r2,[sp,#0x38]
        0x0001b610:    e005        ..      B        0x1b61e ; am_util_stdio_vsprintf + 518
        0x0001b612:    980e        ..      LDR      r0,[sp,#0x38]
        0x0001b614:    6800        .h      LDR      r0,[r0,#0]
        0x0001b616:    990e        ..      LDR      r1,[sp,#0x38]
        0x0001b618:    1d09        ..      ADDS     r1,r1,#4
        0x0001b61a:    910e        ..      STR      r1,[sp,#0x38]
        0x0001b61c:    2100        .!      MOVS     r1,#0
        0x0001b61e:    4607        .F      MOV      r7,r0
        0x0001b620:    4688        .F      MOV      r8,r1
        0x0001b622:    b18e        ..      CBZ      r6,0x1b648 ; am_util_stdio_vsprintf + 560
        0x0001b624:    4638        8F      MOV      r0,r7
        0x0001b626:    4641        AF      MOV      r1,r8
        0x0001b628:    f003f820    .. .    BL       ndigits_in_u64 ; 0x1e66c
        0x0001b62c:    1a36        6.      SUBS     r6,r6,r0
        0x0001b62e:    4632        2F      MOV      r2,r6
        0x0001b630:    4620         F      MOV      r0,r4
        0x0001b632:    9904        ..      LDR      r1,[sp,#0x10]
        0x0001b634:    f003f837    ..7.    BL       padbuffer ; 0x1e6a6
        0x0001b638:    4606        .F      MOV      r6,r0
        0x0001b63a:    b10c        ..      CBZ      r4,0x1b640 ; am_util_stdio_vsprintf + 552
        0x0001b63c:    4630        0F      MOV      r0,r6
        0x0001b63e:    e000        ..      B        0x1b642 ; am_util_stdio_vsprintf + 554
        0x0001b640:    2000        .       MOVS     r0,#0
        0x0001b642:    4404        .D      ADD      r4,r4,r0
        0x0001b644:    44b1        .D      ADD      r9,r9,r6
        0x0001b646:    2600        .&      MOVS     r6,#0
        0x0001b648:    4622        "F      MOV      r2,r4
        0x0001b64a:    4638        8F      MOV      r0,r7
        0x0001b64c:    4641        AF      MOV      r1,r8
        0x0001b64e:    f003fa7d    ..}.    BL       uint64_to_str ; 0x1eb4c
        0x0001b652:    4682        .F      MOV      r10,r0
        0x0001b654:    b104        ..      CBZ      r4,0x1b658 ; am_util_stdio_vsprintf + 576
        0x0001b656:    4454        TD      ADD      r4,r4,r10
        0x0001b658:    44d1        .D      ADD      r9,r9,r10
        0x0001b65a:    e0a0        ..      B        0x1b79e ; am_util_stdio_vsprintf + 902
        0x0001b65c:    bf00        ..      NOP      
        0x0001b65e:    9802        ..      LDR      r0,[sp,#8]
        0x0001b660:    b158        X.      CBZ      r0,0x1b67a ; am_util_stdio_vsprintf + 610
        0x0001b662:    980e        ..      LDR      r0,[sp,#0x38]
        0x0001b664:    1dc0        ..      ADDS     r0,r0,#7
        0x0001b666:    f0200007     ...    BIC      r0,r0,#7
        0x0001b66a:    4601        .F      MOV      r1,r0
        0x0001b66c:    900e        ..      STR      r0,[sp,#0x38]
        0x0001b66e:    6800        .h      LDR      r0,[r0,#0]
        0x0001b670:    6849        Ih      LDR      r1,[r1,#4]
        0x0001b672:    9a0e        ..      LDR      r2,[sp,#0x38]
        0x0001b674:    3208        .2      ADDS     r2,r2,#8
        0x0001b676:    920e        ..      STR      r2,[sp,#0x38]
        0x0001b678:    e005        ..      B        0x1b686 ; am_util_stdio_vsprintf + 622
        0x0001b67a:    980e        ..      LDR      r0,[sp,#0x38]
        0x0001b67c:    6800        .h      LDR      r0,[r0,#0]
        0x0001b67e:    990e        ..      LDR      r1,[sp,#0x38]
        0x0001b680:    1d09        ..      ADDS     r1,r1,#4
        0x0001b682:    910e        ..      STR      r1,[sp,#0x38]
        0x0001b684:    17c1        ..      ASRS     r1,r0,#31
        0x0001b686:    e9cd0108    ....    STRD     r0,r1,[sp,#0x20]
        0x0001b68a:    2300        .#      MOVS     r3,#0
        0x0001b68c:    e9dd0108    ....    LDRD     r0,r1,[sp,#0x20]
        0x0001b690:    1ac0        ..      SUBS     r0,r0,r3
        0x0001b692:    4199        .A      SBCS     r1,r1,r3
        0x0001b694:    da08        ..      BGE      0x1b6a8 ; am_util_stdio_vsprintf + 656
        0x0001b696:    2200        ."      MOVS     r2,#0
        0x0001b698:    e9dd1008    ....    LDRD     r1,r0,[sp,#0x20]
        0x0001b69c:    424f        OB      RSBS     r7,r1,#0
        0x0001b69e:    eb620800    b...    SBC      r8,r2,r0
        0x0001b6a2:    2001        .       MOVS     r0,#1
        0x0001b6a4:    9001        ..      STR      r0,[sp,#4]
        0x0001b6a6:    e003        ..      B        0x1b6b0 ; am_util_stdio_vsprintf + 664
        0x0001b6a8:    e9dd7808    ...x    LDRD     r7,r8,[sp,#0x20]
        0x0001b6ac:    2000        .       MOVS     r0,#0
        0x0001b6ae:    9001        ..      STR      r0,[sp,#4]
        0x0001b6b0:    b34e        N.      CBZ      r6,0x1b706 ; am_util_stdio_vsprintf + 750
        0x0001b6b2:    4638        8F      MOV      r0,r7
        0x0001b6b4:    4641        AF      MOV      r1,r8
        0x0001b6b6:    f002ffc7    ....    BL       ndigits_in_i64 ; 0x1e648
        0x0001b6ba:    1a36        6.      SUBS     r6,r6,r0
        0x0001b6bc:    9801        ..      LDR      r0,[sp,#4]
        0x0001b6be:    b148        H.      CBZ      r0,0x1b6d4 ; am_util_stdio_vsprintf + 700
        0x0001b6c0:    1e76        v.      SUBS     r6,r6,#1
        0x0001b6c2:    9804        ..      LDR      r0,[sp,#0x10]
        0x0001b6c4:    2830        0(      CMP      r0,#0x30
        0x0001b6c6:    d105        ..      BNE      0x1b6d4 ; am_util_stdio_vsprintf + 700
        0x0001b6c8:    b114        ..      CBZ      r4,0x1b6d0 ; am_util_stdio_vsprintf + 696
        0x0001b6ca:    202d        -       MOVS     r0,#0x2d
        0x0001b6cc:    f8040b01    ....    STRB     r0,[r4],#1
        0x0001b6d0:    f1090901    ....    ADD      r9,r9,#1
        0x0001b6d4:    4632        2F      MOV      r2,r6
        0x0001b6d6:    4620         F      MOV      r0,r4
        0x0001b6d8:    9904        ..      LDR      r1,[sp,#0x10]
        0x0001b6da:    f002ffe4    ....    BL       padbuffer ; 0x1e6a6
        0x0001b6de:    4606        .F      MOV      r6,r0
        0x0001b6e0:    b10c        ..      CBZ      r4,0x1b6e6 ; am_util_stdio_vsprintf + 718
        0x0001b6e2:    4630        0F      MOV      r0,r6
        0x0001b6e4:    e000        ..      B        0x1b6e8 ; am_util_stdio_vsprintf + 720
        0x0001b6e6:    2000        .       MOVS     r0,#0
        0x0001b6e8:    4404        .D      ADD      r4,r4,r0
        0x0001b6ea:    44b1        .D      ADD      r9,r9,r6
        0x0001b6ec:    2600        .&      MOVS     r6,#0
        0x0001b6ee:    9801        ..      LDR      r0,[sp,#4]
        0x0001b6f0:    b188        ..      CBZ      r0,0x1b716 ; am_util_stdio_vsprintf + 766
        0x0001b6f2:    9804        ..      LDR      r0,[sp,#0x10]
        0x0001b6f4:    2820         (      CMP      r0,#0x20
        0x0001b6f6:    d10e        ..      BNE      0x1b716 ; am_util_stdio_vsprintf + 766
        0x0001b6f8:    b114        ..      CBZ      r4,0x1b700 ; am_util_stdio_vsprintf + 744
        0x0001b6fa:    202d        -       MOVS     r0,#0x2d
        0x0001b6fc:    f8040b01    ....    STRB     r0,[r4],#1
        0x0001b700:    f1090901    ....    ADD      r9,r9,#1
        0x0001b704:    e007        ..      B        0x1b716 ; am_util_stdio_vsprintf + 766
        0x0001b706:    9801        ..      LDR      r0,[sp,#4]
        0x0001b708:    b128        (.      CBZ      r0,0x1b716 ; am_util_stdio_vsprintf + 766
        0x0001b70a:    b114        ..      CBZ      r4,0x1b712 ; am_util_stdio_vsprintf + 762
        0x0001b70c:    202d        -       MOVS     r0,#0x2d
        0x0001b70e:    f8040b01    ....    STRB     r0,[r4],#1
        0x0001b712:    f1090901    ....    ADD      r9,r9,#1
        0x0001b716:    4622        "F      MOV      r2,r4
        0x0001b718:    4638        8F      MOV      r0,r7
        0x0001b71a:    4641        AF      MOV      r1,r8
        0x0001b71c:    f003fa16    ....    BL       uint64_to_str ; 0x1eb4c
        0x0001b720:    4682        .F      MOV      r10,r0
        0x0001b722:    b104        ..      CBZ      r4,0x1b726 ; am_util_stdio_vsprintf + 782
        0x0001b724:    4454        TD      ADD      r4,r4,r10
        0x0001b726:    44d1        .D      ADD      r9,r9,r10
        0x0001b728:    e039        9.      B        0x1b79e ; am_util_stdio_vsprintf + 902
        0x0001b72a:    bf00        ..      NOP      
        0x0001b72c:    b37c        |.      CBZ      r4,0x1b78e ; am_util_stdio_vsprintf + 886
        0x0001b72e:    980e        ..      LDR      r0,[sp,#0x38]
        0x0001b730:    1dc0        ..      ADDS     r0,r0,#7
        0x0001b732:    f0200007     ...    BIC      r0,r0,#7
        0x0001b736:    900e        ..      STR      r0,[sp,#0x38]
        0x0001b738:    ecb01b02    ....    VLDM     r0!,{d1}
        0x0001b73c:    eeb00a41    ..A.    VMOV.F32 s0,s2
        0x0001b740:    eef00a61    ..a.    VMOV.F32 s1,s3
        0x0001b744:    900e        ..      STR      r0,[sp,#0x38]
        0x0001b746:    ec510b10    Q...    VMOV     r0,r1,d0
        0x0001b74a:    f003fa55    ..U.    BL       __aeabi_d2f ; 0x1ebf8
        0x0001b74e:    ee080a10    ....    VMOV     s16,r0
        0x0001b752:    2014        .       MOVS     r0,#0x14
        0x0001b754:    6020         `      STR      r0,[r4,#0]
        0x0001b756:    4620         F      MOV      r0,r4
        0x0001b758:    eeb00a48    ..H.    VMOV.F32 s0,s16
        0x0001b75c:    9906        ..      LDR      r1,[sp,#0x18]
        0x0001b75e:    f001ff25    ..%.    BL       ftoa ; 0x1d5ac
        0x0001b762:    4682        .F      MOV      r10,r0
        0x0001b764:    f1ba0f00    ....    CMP      r10,#0
        0x0001b768:    da0e        ..      BGE      0x1b788 ; am_util_stdio_vsprintf + 880
        0x0001b76a:    f10a0101    ....    ADD      r1,r10,#1
        0x0001b76e:    b909        ..      CBNZ     r1,0x1b774 ; am_util_stdio_vsprintf + 860
        0x0001b770:    4813        .H      LDR      r0,[pc,#76] ; [0x1b7c0] = 0x302e30
        0x0001b772:    e005        ..      B        0x1b780 ; am_util_stdio_vsprintf + 872
        0x0001b774:    f10a0102    ....    ADD      r1,r10,#2
        0x0001b778:    b909        ..      CBNZ     r1,0x1b77e ; am_util_stdio_vsprintf + 870
        0x0001b77a:    4812        .H      LDR      r0,[pc,#72] ; [0x1b7c4] = 0x232e23
        0x0001b77c:    e000        ..      B        0x1b780 ; am_util_stdio_vsprintf + 872
        0x0001b77e:    4812        .H      LDR      r0,[pc,#72] ; [0x1b7c8] = 0x3f2e3f
        0x0001b780:    6020         `      STR      r0,[r4,#0]
        0x0001b782:    f04f0a03    O...    MOV      r10,#3
        0x0001b786:    bf00        ..      NOP      
        0x0001b788:    44d1        .D      ADD      r9,r9,r10
        0x0001b78a:    4454        TD      ADD      r4,r4,r10
        0x0001b78c:    bf00        ..      NOP      
        0x0001b78e:    e006        ..      B        0x1b79e ; am_util_stdio_vsprintf + 902
        0x0001b790:    b114        ..      CBZ      r4,0x1b798 ; am_util_stdio_vsprintf + 896
        0x0001b792:    7828        (x      LDRB     r0,[r5,#0]
        0x0001b794:    f8040b01    ....    STRB     r0,[r4],#1
        0x0001b798:    f1090901    ....    ADD      r9,r9,#1
        0x0001b79c:    bf00        ..      NOP      
        0x0001b79e:    bf00        ..      NOP      
        0x0001b7a0:    1c6d        m.      ADDS     r5,r5,#1
        0x0001b7a2:    bf00        ..      NOP      
        0x0001b7a4:    7828        (x      LDRB     r0,[r5,#0]
        0x0001b7a6:    2800        .(      CMP      r0,#0
        0x0001b7a8:    f47fae42    ..B.    BNE      0x1b430 ; am_util_stdio_vsprintf + 24
        0x0001b7ac:    b104        ..      CBZ      r4,0x1b7b0 ; am_util_stdio_vsprintf + 920
        0x0001b7ae:    7020         p      STRB     r0,[r4,#0]
        0x0001b7b0:    4648        HF      MOV      r0,r9
        0x0001b7b2:    b00a        ..      ADD      sp,sp,#0x28
        0x0001b7b4:    ecbd8b02    ....    VPOP     {d8}
        0x0001b7b8:    e8bd8ffe    ....    POP      {r1-r11,pc}
    $d
        0x0001b7bc:    10000128    (...    DCD    268435752
        0x0001b7c0:    00302e30    0.0.    DCD    3157552
        0x0001b7c4:    00232e23    #.#.    DCD    2305571
        0x0001b7c8:    003f2e3f    ?.?.    DCD    4140607
    $t
    i.check_fs
    check_fs
        0x0001b7cc:    b570        p.      PUSH     {r4-r6,lr}
        0x0001b7ce:    4604        .F      MOV      r4,r0
        0x0001b7d0:    460d        .F      MOV      r5,r1
        0x0001b7d2:    2000        .       MOVS     r0,#0
        0x0001b7d4:    70e0        .p      STRB     r0,[r4,#3]
        0x0001b7d6:    1e40        @.      SUBS     r0,r0,#1
        0x0001b7d8:    6360        `c      STR      r0,[r4,#0x34]
        0x0001b7da:    4629        )F      MOV      r1,r5
        0x0001b7dc:    4620         F      MOV      r0,r4
        0x0001b7de:    f002feff    ....    BL       move_window ; 0x1e5e0
        0x0001b7e2:    b108        ..      CBZ      r0,0x1b7e8 ; check_fs + 28
        0x0001b7e4:    2004        .       MOVS     r0,#4
        0x0001b7e6:    bd70        p.      POP      {r4-r6,pc}
        0x0001b7e8:    f2042036    ..6     ADD      r0,r4,#0x236
        0x0001b7ec:    f002f8b9    ....    BL       ld_word ; 0x1d962
        0x0001b7f0:    f64a2155    J.U!    MOV      r1,#0xaa55
        0x0001b7f4:    4288        .B      CMP      r0,r1
        0x0001b7f6:    d001        ..      BEQ      0x1b7fc ; check_fs + 48
        0x0001b7f8:    2003        .       MOVS     r0,#3
        0x0001b7fa:    e7f4        ..      B        0x1b7e6 ; check_fs + 26
        0x0001b7fc:    bf00        ..      NOP      
        0x0001b7fe:    f8940038    ..8.    LDRB     r0,[r4,#0x38]
        0x0001b802:    28e9        .(      CMP      r0,#0xe9
        0x0001b804:    d007        ..      BEQ      0x1b816 ; check_fs + 74
        0x0001b806:    f8940038    ..8.    LDRB     r0,[r4,#0x38]
        0x0001b80a:    28eb        .(      CMP      r0,#0xeb
        0x0001b80c:    d003        ..      BEQ      0x1b816 ; check_fs + 74
        0x0001b80e:    f8940038    ..8.    LDRB     r0,[r4,#0x38]
        0x0001b812:    28e8        .(      CMP      r0,#0xe8
        0x0001b814:    d111        ..      BNE      0x1b83a ; check_fs + 110
        0x0001b816:    2203        ."      MOVS     r2,#3
        0x0001b818:    a109        ..      ADR      r1,{pc}+0x28 ; 0x1b840
        0x0001b81a:    f104006e    ..n.    ADD      r0,r4,#0x6e
        0x0001b81e:    f002fa27    ..'.    BL       mem_cmp ; 0x1dc70
        0x0001b822:    b908        ..      CBNZ     r0,0x1b828 ; check_fs + 92
        0x0001b824:    2000        .       MOVS     r0,#0
        0x0001b826:    e7de        ..      B        0x1b7e6 ; check_fs + 26
        0x0001b828:    2205        ."      MOVS     r2,#5
        0x0001b82a:    a106        ..      ADR      r1,{pc}+0x1a ; 0x1b844
        0x0001b82c:    f104008a    ....    ADD      r0,r4,#0x8a
        0x0001b830:    f002fa1e    ....    BL       mem_cmp ; 0x1dc70
        0x0001b834:    b908        ..      CBNZ     r0,0x1b83a ; check_fs + 110
        0x0001b836:    2000        .       MOVS     r0,#0
        0x0001b838:    e7d5        ..      B        0x1b7e6 ; check_fs + 26
        0x0001b83a:    2002        .       MOVS     r0,#2
        0x0001b83c:    e7d3        ..      B        0x1b7e6 ; check_fs + 26
    $d
        0x0001b83e:    0000        ..      DCW    0
        0x0001b840:    00544146    FAT.    DCD    5521734
        0x0001b844:    33544146    FAT3    DCD    861159750
        0x0001b848:    00000032    2...    DCD    50
    $t
    i.check_if_rwbuf_match
    check_if_rwbuf_match
        0x0001b84c:    e92d41f0    -..A    PUSH     {r4-r8,lr}
        0x0001b850:    4606        .F      MOV      r6,r0
        0x0001b852:    460f        .F      MOV      r7,r1
        0x0001b854:    4615        .F      MOV      r5,r2
        0x0001b856:    2400        .$      MOVS     r4,#0
        0x0001b858:    e009        ..      B        0x1b86e ; check_if_rwbuf_match + 34
        0x0001b85a:    5d38        8]      LDRB     r0,[r7,r4]
        0x0001b85c:    5d31        1]      LDRB     r1,[r6,r4]
        0x0001b85e:    4288        .B      CMP      r0,r1
        0x0001b860:    d004        ..      BEQ      0x1b86c ; check_if_rwbuf_match + 32
        0x0001b862:    4621        !F      MOV      r1,r4
        0x0001b864:    a007        ..      ADR      r0,{pc}+0x20 ; 0x1b884
        0x0001b866:    f7fffdb3    ....    BL       am_util_stdio_printf ; 0x1b3d0
        0x0001b86a:    e002        ..      B        0x1b872 ; check_if_rwbuf_match + 38
        0x0001b86c:    1c64        d.      ADDS     r4,r4,#1
        0x0001b86e:    42ac        .B      CMP      r4,r5
        0x0001b870:    d3f3        ..      BCC      0x1b85a ; check_if_rwbuf_match + 14
        0x0001b872:    bf00        ..      NOP      
        0x0001b874:    42ac        .B      CMP      r4,r5
        0x0001b876:    d102        ..      BNE      0x1b87e ; check_if_rwbuf_match + 50
        0x0001b878:    a011        ..      ADR      r0,{pc}+0x48 ; 0x1b8c0
        0x0001b87a:    f7fffda9    ....    BL       am_util_stdio_printf ; 0x1b3d0
        0x0001b87e:    e8bd81f0    ....    POP      {r4-r8,pc}
    $d
        0x0001b882:    0000        ..      DCW    0
        0x0001b884:    74736554    Test    DCD    1953719636
        0x0001b888:    69614620     Fai    DCD    1767982624
        0x0001b88c:    72203a6c    l: r    DCD    1914714732
        0x0001b890:    20646165    ead     DCD    543449445
        0x0001b894:    20646e61    and     DCD    543452769
        0x0001b898:    74697277    writ    DCD    1953067639
        0x0001b89c:    75622065    e bu    DCD    1969365093
        0x0001b8a0:    72656666    ffer    DCD    1919247974
        0x0001b8a4:    656f6420     doe    DCD    1701798944
        0x0001b8a8:    6f6e2073    s no    DCD    1869488243
        0x0001b8ac:    616d2074    t ma    DCD    1634541684
        0x0001b8b0:    20686374    tch     DCD    543712116
        0x0001b8b4:    6d6f7266    from    DCD    1836020326
        0x0001b8b8:    0a642520     %d.    DCD    174335264
        0x0001b8bc:    00000000    ....    DCD    0
        0x0001b8c0:    6165520a    .Rea    DCD    1634030090
        0x0001b8c4:    72772064    d wr    DCD    1920409700
        0x0001b8c8:    20657469    ite     DCD    543519849
        0x0001b8cc:    61746164    data    DCD    1635017060
        0x0001b8d0:    74616d20     mat    DCD    1952541984
        0x0001b8d4:    64656863    ched    DCD    1684367459
        0x0001b8d8:    4d650a21    !.eM    DCD    1298467361
        0x0001b8dc:    4620434d    MC F    DCD    1176519501
        0x0001b8e0:    73467461    atFs    DCD    1933997153
        0x0001b8e4:    73655420     Tes    DCD    1936020512
        0x0001b8e8:    61502074    t Pa    DCD    1632641140
        0x0001b8ec:    000a7373    ss..    DCD    684915
    $t
    i.chk_chr
    chk_chr
        0x0001b8f0:    4602        .F      MOV      r2,r0
        0x0001b8f2:    e000        ..      B        0x1b8f6 ; chk_chr + 6
        0x0001b8f4:    1c52        R.      ADDS     r2,r2,#1
        0x0001b8f6:    7810        .x      LDRB     r0,[r2,#0]
        0x0001b8f8:    b110        ..      CBZ      r0,0x1b900 ; chk_chr + 16
        0x0001b8fa:    7810        .x      LDRB     r0,[r2,#0]
        0x0001b8fc:    4288        .B      CMP      r0,r1
        0x0001b8fe:    d1f9        ..      BNE      0x1b8f4 ; chk_chr + 4
        0x0001b900:    7810        .x      LDRB     r0,[r2,#0]
        0x0001b902:    4770        pG      BX       lr
    i.clmt_clust
    clmt_clust
        0x0001b904:    b5f0        ..      PUSH     {r4-r7,lr}
        0x0001b906:    4603        .F      MOV      r3,r0
        0x0001b908:    460d        .F      MOV      r5,r1
        0x0001b90a:    681e        .h      LDR      r6,[r3,#0]
        0x0001b90c:    6a98        .j      LDR      r0,[r3,#0x28]
        0x0001b90e:    1d02        ..      ADDS     r2,r0,#4
        0x0001b910:    0a68        h.      LSRS     r0,r5,#9
        0x0001b912:    8977        w.      LDRH     r7,[r6,#0xa]
        0x0001b914:    fbb0f4f7    ....    UDIV     r4,r0,r7
        0x0001b918:    bf00        ..      NOP      
        0x0001b91a:    ca02        ..      LDM      r2!,{r1}
        0x0001b91c:    b909        ..      CBNZ     r1,0x1b922 ; clmt_clust + 30
        0x0001b91e:    2000        .       MOVS     r0,#0
        0x0001b920:    bdf0        ..      POP      {r4-r7,pc}
        0x0001b922:    428c        .B      CMP      r4,r1
        0x0001b924:    d200        ..      BCS      0x1b928 ; clmt_clust + 36
        0x0001b926:    e002        ..      B        0x1b92e ; clmt_clust + 42
        0x0001b928:    1a64        d.      SUBS     r4,r4,r1
        0x0001b92a:    1d12        ..      ADDS     r2,r2,#4
        0x0001b92c:    e7f5        ..      B        0x1b91a ; clmt_clust + 22
        0x0001b92e:    bf00        ..      NOP      
        0x0001b930:    6810        .h      LDR      r0,[r2,#0]
        0x0001b932:    4420         D      ADD      r0,r0,r4
        0x0001b934:    e7f4        ..      B        0x1b920 ; clmt_clust + 28
    i.clst2sect
    clst2sect
        0x0001b936:    4602        .F      MOV      r2,r0
        0x0001b938:    1e89        ..      SUBS     r1,r1,#2
        0x0001b93a:    69d0        .i      LDR      r0,[r2,#0x1c]
        0x0001b93c:    1e80        ..      SUBS     r0,r0,#2
        0x0001b93e:    4288        .B      CMP      r0,r1
        0x0001b940:    d801        ..      BHI      0x1b946 ; clst2sect + 16
        0x0001b942:    2000        .       MOVS     r0,#0
        0x0001b944:    4770        pG      BX       lr
        0x0001b946:    8953        S.      LDRH     r3,[r2,#0xa]
        0x0001b948:    6b10        .k      LDR      r0,[r2,#0x30]
        0x0001b94a:    fb030001    ....    MLA      r0,r3,r1,r0
        0x0001b94e:    e7f9        ..      B        0x1b944 ; clst2sect + 14
    i.cmp_lfn
    cmp_lfn
        0x0001b950:    e92d47f0    -..G    PUSH     {r4-r10,lr}
        0x0001b954:    4680        .F      MOV      r8,r0
        0x0001b956:    460c        .F      MOV      r4,r1
        0x0001b958:    f104001a    ....    ADD      r0,r4,#0x1a
        0x0001b95c:    f002f801    ....    BL       ld_word ; 0x1d962
        0x0001b960:    b110        ..      CBZ      r0,0x1b968 ; cmp_lfn + 24
        0x0001b962:    2000        .       MOVS     r0,#0
        0x0001b964:    e8bd87f0    ....    POP      {r4-r10,pc}
        0x0001b968:    7820         x      LDRB     r0,[r4,#0]
        0x0001b96a:    f000003f    ..?.    AND      r0,r0,#0x3f
        0x0001b96e:    1e40        @.      SUBS     r0,r0,#1
        0x0001b970:    eb000180    ....    ADD      r1,r0,r0,LSL #2
        0x0001b974:    eb0105c0    ....    ADD      r5,r1,r0,LSL #3
        0x0001b978:    f04f0901    O...    MOV      r9,#1
        0x0001b97c:    2600        .&      MOVS     r6,#0
        0x0001b97e:    e021        !.      B        0x1b9c4 ; cmp_lfn + 116
        0x0001b980:    4918        .I      LDR      r1,[pc,#96] ; [0x1b9e4] = 0x1ed0c
        0x0001b982:    5d89        .]      LDRB     r1,[r1,r6]
        0x0001b984:    1908        ..      ADDS     r0,r1,r4
        0x0001b986:    f001ffec    ....    BL       ld_word ; 0x1d962
        0x0001b98a:    4607        .F      MOV      r7,r0
        0x0001b98c:    f1b90f00    ....    CMP      r9,#0
        0x0001b990:    d011        ..      BEQ      0x1b9b6 ; cmp_lfn + 102
        0x0001b992:    2dff        .-      CMP      r5,#0xff
        0x0001b994:    d80b        ..      BHI      0x1b9ae ; cmp_lfn + 94
        0x0001b996:    4638        8F      MOV      r0,r7
        0x0001b998:    f001fd0e    ....    BL       ff_wtoupper ; 0x1d3b8
        0x0001b99c:    4682        .F      MOV      r10,r0
        0x0001b99e:    4629        )F      MOV      r1,r5
        0x0001b9a0:    1c6d        m.      ADDS     r5,r5,#1
        0x0001b9a2:    f8380011    8...    LDRH     r0,[r8,r1,LSL #1]
        0x0001b9a6:    f001fd07    ....    BL       ff_wtoupper ; 0x1d3b8
        0x0001b9aa:    4582        .E      CMP      r10,r0
        0x0001b9ac:    d001        ..      BEQ      0x1b9b2 ; cmp_lfn + 98
        0x0001b9ae:    2000        .       MOVS     r0,#0
        0x0001b9b0:    e7d8        ..      B        0x1b964 ; cmp_lfn + 20
        0x0001b9b2:    46b9        .F      MOV      r9,r7
        0x0001b9b4:    e005        ..      B        0x1b9c2 ; cmp_lfn + 114
        0x0001b9b6:    f64f70ff    O..p    MOV      r0,#0xffff
        0x0001b9ba:    4287        .B      CMP      r7,r0
        0x0001b9bc:    d001        ..      BEQ      0x1b9c2 ; cmp_lfn + 114
        0x0001b9be:    2000        .       MOVS     r0,#0
        0x0001b9c0:    e7d0        ..      B        0x1b964 ; cmp_lfn + 20
        0x0001b9c2:    1c76        v.      ADDS     r6,r6,#1
        0x0001b9c4:    2e0d        ..      CMP      r6,#0xd
        0x0001b9c6:    d3db        ..      BCC      0x1b980 ; cmp_lfn + 48
        0x0001b9c8:    7820         x      LDRB     r0,[r4,#0]
        0x0001b9ca:    f0000040    ..@.    AND      r0,r0,#0x40
        0x0001b9ce:    b138        8.      CBZ      r0,0x1b9e0 ; cmp_lfn + 144
        0x0001b9d0:    f1b90f00    ....    CMP      r9,#0
        0x0001b9d4:    d004        ..      BEQ      0x1b9e0 ; cmp_lfn + 144
        0x0001b9d6:    f8380015    8...    LDRH     r0,[r8,r5,LSL #1]
        0x0001b9da:    b108        ..      CBZ      r0,0x1b9e0 ; cmp_lfn + 144
        0x0001b9dc:    2000        .       MOVS     r0,#0
        0x0001b9de:    e7c1        ..      B        0x1b964 ; cmp_lfn + 20
        0x0001b9e0:    2001        .       MOVS     r0,#1
        0x0001b9e2:    e7bf        ..      B        0x1b964 ; cmp_lfn + 20
    $d
        0x0001b9e4:    0001ed0c    ....    DCD    126220
    $t
    i.copy_words
    copy_words
        0x0001b9e8:    b430        0.      PUSH     {r4,r5}
        0x0001b9ea:    2301        .#      MOVS     r3,#1
        0x0001b9ec:    f05f0403    _...    MOVS.W   r4,#3
        0x0001b9f0:    f1a20c01    ....    SUB      r12,r2,#1
        0x0001b9f4:    f851502c    Q.,P    LDR      r5,[r1,r12,LSL #2]
        0x0001b9f8:    f840502c    @.,P    STR      r5,[r0,r12,LSL #2]
        0x0001b9fc:    1e92        ..      SUBS     r2,r2,#2
        0x0001b9fe:    f851c022    Q.".    LDR      r12,[r1,r2,LSL #2]
        0x0001ba02:    f840c022    @.".    STR      r12,[r0,r2,LSL #2]
        0x0001ba06:    1c9b        ..      ADDS     r3,r3,#2
        0x0001ba08:    42a3        .B      CMP      r3,r4
        0x0001ba0a:    dbf1        ..      BLT      0x1b9f0 ; copy_words + 8
        0x0001ba0c:    bc30        0.      POP      {r4,r5}
        0x0001ba0e:    4770        pG      BX       lr
    i.create_chain
    create_chain
        0x0001ba10:    e92d47f0    -..G    PUSH     {r4-r10,lr}
        0x0001ba14:    4682        .F      MOV      r10,r0
        0x0001ba16:    4688        .F      MOV      r8,r1
        0x0001ba18:    f8da4000    ...@    LDR      r4,[r10,#0]
        0x0001ba1c:    f1b80f00    ....    CMP      r8,#0
        0x0001ba20:    d106        ..      BNE      0x1ba30 ; create_chain + 32
        0x0001ba22:    6927        'i      LDR      r7,[r4,#0x10]
        0x0001ba24:    b117        ..      CBZ      r7,0x1ba2c ; create_chain + 28
        0x0001ba26:    69e0        .i      LDR      r0,[r4,#0x1c]
        0x0001ba28:    42b8        .B      CMP      r0,r7
        0x0001ba2a:    d815        ..      BHI      0x1ba58 ; create_chain + 72
        0x0001ba2c:    2701        .'      MOVS     r7,#1
        0x0001ba2e:    e013        ..      B        0x1ba58 ; create_chain + 72
        0x0001ba30:    4641        AF      MOV      r1,r8
        0x0001ba32:    4650        PF      MOV      r0,r10
        0x0001ba34:    f001fedc    ....    BL       get_fat ; 0x1d7f0
        0x0001ba38:    4605        .F      MOV      r5,r0
        0x0001ba3a:    2d02        .-      CMP      r5,#2
        0x0001ba3c:    d202        ..      BCS      0x1ba44 ; create_chain + 52
        0x0001ba3e:    2001        .       MOVS     r0,#1
        0x0001ba40:    e8bd87f0    ....    POP      {r4-r10,pc}
        0x0001ba44:    1c68        h.      ADDS     r0,r5,#1
        0x0001ba46:    b908        ..      CBNZ     r0,0x1ba4c ; create_chain + 60
        0x0001ba48:    4628        (F      MOV      r0,r5
        0x0001ba4a:    e7f9        ..      B        0x1ba40 ; create_chain + 48
        0x0001ba4c:    69e0        .i      LDR      r0,[r4,#0x1c]
        0x0001ba4e:    42a8        .B      CMP      r0,r5
        0x0001ba50:    d901        ..      BLS      0x1ba56 ; create_chain + 70
        0x0001ba52:    4628        (F      MOV      r0,r5
        0x0001ba54:    e7f4        ..      B        0x1ba40 ; create_chain + 48
        0x0001ba56:    4647        GF      MOV      r7,r8
        0x0001ba58:    6960        `i      LDR      r0,[r4,#0x14]
        0x0001ba5a:    b908        ..      CBNZ     r0,0x1ba60 ; create_chain + 80
        0x0001ba5c:    2000        .       MOVS     r0,#0
        0x0001ba5e:    e7ef        ..      B        0x1ba40 ; create_chain + 48
        0x0001ba60:    2600        .&      MOVS     r6,#0
        0x0001ba62:    4547        GE      CMP      r7,r8
        0x0001ba64:    d118        ..      BNE      0x1ba98 ; create_chain + 136
        0x0001ba66:    1c7e        ~.      ADDS     r6,r7,#1
        0x0001ba68:    69e0        .i      LDR      r0,[r4,#0x1c]
        0x0001ba6a:    42b0        .B      CMP      r0,r6
        0x0001ba6c:    d800        ..      BHI      0x1ba70 ; create_chain + 96
        0x0001ba6e:    2602        .&      MOVS     r6,#2
        0x0001ba70:    4631        1F      MOV      r1,r6
        0x0001ba72:    4650        PF      MOV      r0,r10
        0x0001ba74:    f001febc    ....    BL       get_fat ; 0x1d7f0
        0x0001ba78:    4605        .F      MOV      r5,r0
        0x0001ba7a:    2d01        .-      CMP      r5,#1
        0x0001ba7c:    d001        ..      BEQ      0x1ba82 ; create_chain + 114
        0x0001ba7e:    1c68        h.      ADDS     r0,r5,#1
        0x0001ba80:    b908        ..      CBNZ     r0,0x1ba86 ; create_chain + 118
        0x0001ba82:    4628        (F      MOV      r0,r5
        0x0001ba84:    e7dc        ..      B        0x1ba40 ; create_chain + 48
        0x0001ba86:    b13d        =.      CBZ      r5,0x1ba98 ; create_chain + 136
        0x0001ba88:    6925        %i      LDR      r5,[r4,#0x10]
        0x0001ba8a:    2d02        .-      CMP      r5,#2
        0x0001ba8c:    d303        ..      BCC      0x1ba96 ; create_chain + 134
        0x0001ba8e:    69e0        .i      LDR      r0,[r4,#0x1c]
        0x0001ba90:    42a8        .B      CMP      r0,r5
        0x0001ba92:    d900        ..      BLS      0x1ba96 ; create_chain + 134
        0x0001ba94:    462f        /F      MOV      r7,r5
        0x0001ba96:    2600        .&      MOVS     r6,#0
        0x0001ba98:    b9e6        ..      CBNZ     r6,0x1bad4 ; create_chain + 196
        0x0001ba9a:    463e        >F      MOV      r6,r7
        0x0001ba9c:    bf00        ..      NOP      
        0x0001ba9e:    1c76        v.      ADDS     r6,r6,#1
        0x0001baa0:    69e0        .i      LDR      r0,[r4,#0x1c]
        0x0001baa2:    42b0        .B      CMP      r0,r6
        0x0001baa4:    d804        ..      BHI      0x1bab0 ; create_chain + 160
        0x0001baa6:    2602        .&      MOVS     r6,#2
        0x0001baa8:    42be        .B      CMP      r6,r7
        0x0001baaa:    d901        ..      BLS      0x1bab0 ; create_chain + 160
        0x0001baac:    2000        .       MOVS     r0,#0
        0x0001baae:    e7c7        ..      B        0x1ba40 ; create_chain + 48
        0x0001bab0:    4631        1F      MOV      r1,r6
        0x0001bab2:    4650        PF      MOV      r0,r10
        0x0001bab4:    f001fe9c    ....    BL       get_fat ; 0x1d7f0
        0x0001bab8:    4605        .F      MOV      r5,r0
        0x0001baba:    b905        ..      CBNZ     r5,0x1babe ; create_chain + 174
        0x0001babc:    e009        ..      B        0x1bad2 ; create_chain + 194
        0x0001babe:    2d01        .-      CMP      r5,#1
        0x0001bac0:    d001        ..      BEQ      0x1bac6 ; create_chain + 182
        0x0001bac2:    1c68        h.      ADDS     r0,r5,#1
        0x0001bac4:    b908        ..      CBNZ     r0,0x1baca ; create_chain + 186
        0x0001bac6:    4628        (F      MOV      r0,r5
        0x0001bac8:    e7ba        ..      B        0x1ba40 ; create_chain + 48
        0x0001baca:    42be        .B      CMP      r6,r7
        0x0001bacc:    d1e7        ..      BNE      0x1ba9e ; create_chain + 142
        0x0001bace:    2000        .       MOVS     r0,#0
        0x0001bad0:    e7b6        ..      B        0x1ba40 ; create_chain + 48
        0x0001bad2:    bf00        ..      NOP      
        0x0001bad4:    f04f32ff    O..2    MOV      r2,#0xffffffff
        0x0001bad8:    4631        1F      MOV      r1,r6
        0x0001bada:    4620         F      MOV      r0,r4
        0x0001badc:    f002fdf4    ....    BL       put_fat ; 0x1e6c8
        0x0001bae0:    4681        .F      MOV      r9,r0
        0x0001bae2:    f1b90f00    ....    CMP      r9,#0
        0x0001bae6:    d108        ..      BNE      0x1bafa ; create_chain + 234
        0x0001bae8:    f1b80f00    ....    CMP      r8,#0
        0x0001baec:    d005        ..      BEQ      0x1bafa ; create_chain + 234
        0x0001baee:    4632        2F      MOV      r2,r6
        0x0001baf0:    4641        AF      MOV      r1,r8
        0x0001baf2:    4620         F      MOV      r0,r4
        0x0001baf4:    f002fde8    ....    BL       put_fat ; 0x1e6c8
        0x0001baf8:    4681        .F      MOV      r9,r0
        0x0001bafa:    f1b90f00    ....    CMP      r9,#0
        0x0001bafe:    d10d        ..      BNE      0x1bb1c ; create_chain + 268
        0x0001bb00:    6126        &a      STR      r6,[r4,#0x10]
        0x0001bb02:    69e0        .i      LDR      r0,[r4,#0x1c]
        0x0001bb04:    1e80        ..      SUBS     r0,r0,#2
        0x0001bb06:    6961        ai      LDR      r1,[r4,#0x14]
        0x0001bb08:    4281        .B      CMP      r1,r0
        0x0001bb0a:    d802        ..      BHI      0x1bb12 ; create_chain + 258
        0x0001bb0c:    6960        `i      LDR      r0,[r4,#0x14]
        0x0001bb0e:    1e40        @.      SUBS     r0,r0,#1
        0x0001bb10:    6160        `a      STR      r0,[r4,#0x14]
        0x0001bb12:    7920         y      LDRB     r0,[r4,#4]
        0x0001bb14:    f0400001    @...    ORR      r0,r0,#1
        0x0001bb18:    7120         q      STRB     r0,[r4,#4]
        0x0001bb1a:    e007        ..      B        0x1bb2c ; create_chain + 284
        0x0001bb1c:    f1b90f01    ....    CMP      r9,#1
        0x0001bb20:    d102        ..      BNE      0x1bb28 ; create_chain + 280
        0x0001bb22:    f04f30ff    O..0    MOV      r0,#0xffffffff
        0x0001bb26:    e000        ..      B        0x1bb2a ; create_chain + 282
        0x0001bb28:    2001        .       MOVS     r0,#1
        0x0001bb2a:    4606        .F      MOV      r6,r0
        0x0001bb2c:    4630        0F      MOV      r0,r6
        0x0001bb2e:    e787        ..      B        0x1ba40 ; create_chain + 48
    i.create_name
    create_name
        0x0001bb30:    e92d4ff3    -..O    PUSH     {r0,r1,r4-r11,lr}
        0x0001bb34:    b083        ..      SUB      sp,sp,#0xc
        0x0001bb36:    4681        .F      MOV      r9,r0
        0x0001bb38:    9804        ..      LDR      r0,[sp,#0x10]
        0x0001bb3a:    6800        .h      LDR      r0,[r0,#0]
        0x0001bb3c:    9000        ..      STR      r0,[sp,#0]
        0x0001bb3e:    f8d90000    ....    LDR      r0,[r9,#0]
        0x0001bb42:    68c7        .h      LDR      r7,[r0,#0xc]
        0x0001bb44:    2500        .%      MOVS     r5,#0
        0x0001bb46:    bf00        ..      NOP      
        0x0001bb48:    4668        hF      MOV      r0,sp
        0x0001bb4a:    f002ff94    ....    BL       tchar2uni ; 0x1ea76
        0x0001bb4e:    9002        ..      STR      r0,[sp,#8]
        0x0001bb50:    9802        ..      LDR      r0,[sp,#8]
        0x0001bb52:    1c40        @.      ADDS     r0,r0,#1
        0x0001bb54:    b918        ..      CBNZ     r0,0x1bb5e ; create_name + 46
        0x0001bb56:    2006        .       MOVS     r0,#6
        0x0001bb58:    b005        ..      ADD      sp,sp,#0x14
        0x0001bb5a:    e8bd8ff0    ....    POP      {r4-r11,pc}
        0x0001bb5e:    9802        ..      LDR      r0,[sp,#8]
        0x0001bb60:    f5b03f80    ...?    CMP      r0,#0x10000
        0x0001bb64:    d305        ..      BCC      0x1bb72 ; create_name + 66
        0x0001bb66:    9802        ..      LDR      r0,[sp,#8]
        0x0001bb68:    0c02        ..      LSRS     r2,r0,#16
        0x0001bb6a:    4628        (F      MOV      r0,r5
        0x0001bb6c:    1c6d        m.      ADDS     r5,r5,#1
        0x0001bb6e:    f8272010    '..     STRH     r2,[r7,r0,LSL #1]
        0x0001bb72:    9802        ..      LDR      r0,[sp,#8]
        0x0001bb74:    b284        ..      UXTH     r4,r0
        0x0001bb76:    2c20         ,      CMP      r4,#0x20
        0x0001bb78:    db03        ..      BLT      0x1bb82 ; create_name + 82
        0x0001bb7a:    2c2f        /,      CMP      r4,#0x2f
        0x0001bb7c:    d001        ..      BEQ      0x1bb82 ; create_name + 82
        0x0001bb7e:    2c5c        \,      CMP      r4,#0x5c
        0x0001bb80:    d100        ..      BNE      0x1bb84 ; create_name + 84
        0x0001bb82:    e011        ..      B        0x1bba8 ; create_name + 120
        0x0001bb84:    2c80        .,      CMP      r4,#0x80
        0x0001bb86:    da06        ..      BGE      0x1bb96 ; create_name + 102
        0x0001bb88:    4621        !F      MOV      r1,r4
        0x0001bb8a:    a093        ..      ADR      r0,{pc}+0x24e ; 0x1bdd8
        0x0001bb8c:    f7fffeb0    ....    BL       chk_chr ; 0x1b8f0
        0x0001bb90:    b108        ..      CBZ      r0,0x1bb96 ; create_name + 102
        0x0001bb92:    2006        .       MOVS     r0,#6
        0x0001bb94:    e7e0        ..      B        0x1bb58 ; create_name + 40
        0x0001bb96:    2dff        .-      CMP      r5,#0xff
        0x0001bb98:    d301        ..      BCC      0x1bb9e ; create_name + 110
        0x0001bb9a:    2006        .       MOVS     r0,#6
        0x0001bb9c:    e7dc        ..      B        0x1bb58 ; create_name + 40
        0x0001bb9e:    4628        (F      MOV      r0,r5
        0x0001bba0:    1c6d        m.      ADDS     r5,r5,#1
        0x0001bba2:    f8274010    '..@    STRH     r4,[r7,r0,LSL #1]
        0x0001bba6:    e7cf        ..      B        0x1bb48 ; create_name + 24
        0x0001bba8:    bf00        ..      NOP      
        0x0001bbaa:    2c20         ,      CMP      r4,#0x20
        0x0001bbac:    da01        ..      BGE      0x1bbb2 ; create_name + 130
        0x0001bbae:    2604        .&      MOVS     r6,#4
        0x0001bbb0:    e00c        ..      B        0x1bbcc ; create_name + 156
        0x0001bbb2:    2600        .&      MOVS     r6,#0
        0x0001bbb4:    e002        ..      B        0x1bbbc ; create_name + 140
        0x0001bbb6:    9800        ..      LDR      r0,[sp,#0]
        0x0001bbb8:    1c40        @.      ADDS     r0,r0,#1
        0x0001bbba:    9000        ..      STR      r0,[sp,#0]
        0x0001bbbc:    9800        ..      LDR      r0,[sp,#0]
        0x0001bbbe:    7800        .x      LDRB     r0,[r0,#0]
        0x0001bbc0:    282f        /(      CMP      r0,#0x2f
        0x0001bbc2:    d0f8        ..      BEQ      0x1bbb6 ; create_name + 134
        0x0001bbc4:    9800        ..      LDR      r0,[sp,#0]
        0x0001bbc6:    7800        .x      LDRB     r0,[r0,#0]
        0x0001bbc8:    285c        \(      CMP      r0,#0x5c
        0x0001bbca:    d0f4        ..      BEQ      0x1bbb6 ; create_name + 134
        0x0001bbcc:    9900        ..      LDR      r1,[sp,#0]
        0x0001bbce:    9804        ..      LDR      r0,[sp,#0x10]
        0x0001bbd0:    6001        .`      STR      r1,[r0,#0]
        0x0001bbd2:    2d01        .-      CMP      r5,#1
        0x0001bbd4:    d104        ..      BNE      0x1bbe0 ; create_name + 176
        0x0001bbd6:    1e68        h.      SUBS     r0,r5,#1
        0x0001bbd8:    f8370010    7...    LDRH     r0,[r7,r0,LSL #1]
        0x0001bbdc:    282e        .(      CMP      r0,#0x2e
        0x0001bbde:    d00b        ..      BEQ      0x1bbf8 ; create_name + 200
        0x0001bbe0:    2d02        .-      CMP      r5,#2
        0x0001bbe2:    d124        $.      BNE      0x1bc2e ; create_name + 254
        0x0001bbe4:    1e68        h.      SUBS     r0,r5,#1
        0x0001bbe6:    f8370010    7...    LDRH     r0,[r7,r0,LSL #1]
        0x0001bbea:    282e        .(      CMP      r0,#0x2e
        0x0001bbec:    d11f        ..      BNE      0x1bc2e ; create_name + 254
        0x0001bbee:    1ea8        ..      SUBS     r0,r5,#2
        0x0001bbf0:    f8370010    7...    LDRH     r0,[r7,r0,LSL #1]
        0x0001bbf4:    282e        .(      CMP      r0,#0x2e
        0x0001bbf6:    d11a        ..      BNE      0x1bc2e ; create_name + 254
        0x0001bbf8:    2000        .       MOVS     r0,#0
        0x0001bbfa:    f8270015    '...    STRH     r0,[r7,r5,LSL #1]
        0x0001bbfe:    4680        .F      MOV      r8,r0
        0x0001bc00:    e00a        ..      B        0x1bc18 ; create_name + 232
        0x0001bc02:    45a8        .E      CMP      r8,r5
        0x0001bc04:    d201        ..      BCS      0x1bc0a ; create_name + 218
        0x0001bc06:    212e        .!      MOVS     r1,#0x2e
        0x0001bc08:    e000        ..      B        0x1bc0c ; create_name + 220
        0x0001bc0a:    2120         !      MOVS     r1,#0x20
        0x0001bc0c:    f1090020    .. .    ADD      r0,r9,#0x20
        0x0001bc10:    f8001008    ....    STRB     r1,[r0,r8]
        0x0001bc14:    f1080801    ....    ADD      r8,r8,#1
        0x0001bc18:    f1b80f0b    ....    CMP      r8,#0xb
        0x0001bc1c:    d3f1        ..      BCC      0x1bc02 ; create_name + 210
        0x0001bc1e:    f0460120    F. .    ORR      r1,r6,#0x20
        0x0001bc22:    f1090020    .. .    ADD      r0,r9,#0x20
        0x0001bc26:    f8001008    ....    STRB     r1,[r0,r8]
        0x0001bc2a:    2000        .       MOVS     r0,#0
        0x0001bc2c:    e794        ..      B        0x1bb58 ; create_name + 40
        0x0001bc2e:    e008        ..      B        0x1bc42 ; create_name + 274
        0x0001bc30:    1e68        h.      SUBS     r0,r5,#1
        0x0001bc32:    f8374010    7..@    LDRH     r4,[r7,r0,LSL #1]
        0x0001bc36:    2c20         ,      CMP      r4,#0x20
        0x0001bc38:    d002        ..      BEQ      0x1bc40 ; create_name + 272
        0x0001bc3a:    2c2e        .,      CMP      r4,#0x2e
        0x0001bc3c:    d000        ..      BEQ      0x1bc40 ; create_name + 272
        0x0001bc3e:    e002        ..      B        0x1bc46 ; create_name + 278
        0x0001bc40:    1e6d        m.      SUBS     r5,r5,#1
        0x0001bc42:    2d00        .-      CMP      r5,#0
        0x0001bc44:    d1f4        ..      BNE      0x1bc30 ; create_name + 256
        0x0001bc46:    bf00        ..      NOP      
        0x0001bc48:    2000        .       MOVS     r0,#0
        0x0001bc4a:    f8270015    '...    STRH     r0,[r7,r5,LSL #1]
        0x0001bc4e:    b90d        ..      CBNZ     r5,0x1bc54 ; create_name + 292
        0x0001bc50:    2006        .       MOVS     r0,#6
        0x0001bc52:    e781        ..      B        0x1bb58 ; create_name + 40
        0x0001bc54:    f04f0a00    O...    MOV      r10,#0
        0x0001bc58:    e001        ..      B        0x1bc5e ; create_name + 302
        0x0001bc5a:    f10a0a01    ....    ADD      r10,r10,#1
        0x0001bc5e:    f837001a    7...    LDRH     r0,[r7,r10,LSL #1]
        0x0001bc62:    2820         (      CMP      r0,#0x20
        0x0001bc64:    d0f9        ..      BEQ      0x1bc5a ; create_name + 298
        0x0001bc66:    f1ba0f00    ....    CMP      r10,#0
        0x0001bc6a:    d103        ..      BNE      0x1bc74 ; create_name + 324
        0x0001bc6c:    f837001a    7...    LDRH     r0,[r7,r10,LSL #1]
        0x0001bc70:    282e        .(      CMP      r0,#0x2e
        0x0001bc72:    d101        ..      BNE      0x1bc78 ; create_name + 328
        0x0001bc74:    f0460603    F...    ORR      r6,r6,#3
        0x0001bc78:    e000        ..      B        0x1bc7c ; create_name + 332
        0x0001bc7a:    1e6d        m.      SUBS     r5,r5,#1
        0x0001bc7c:    b125        %.      CBZ      r5,0x1bc88 ; create_name + 344
        0x0001bc7e:    1e68        h.      SUBS     r0,r5,#1
        0x0001bc80:    f8370010    7...    LDRH     r0,[r7,r0,LSL #1]
        0x0001bc84:    282e        .(      CMP      r0,#0x2e
        0x0001bc86:    d1f8        ..      BNE      0x1bc7a ; create_name + 330
        0x0001bc88:    220b        ."      MOVS     r2,#0xb
        0x0001bc8a:    2120         !      MOVS     r1,#0x20
        0x0001bc8c:    f1090020    .. .    ADD      r0,r9,#0x20
        0x0001bc90:    f002f80d    ....    BL       mem_set ; 0x1dcae
        0x0001bc94:    f04f0800    O...    MOV      r8,#0
        0x0001bc98:    46c3        .F      MOV      r11,r8
        0x0001bc9a:    2008        .       MOVS     r0,#8
        0x0001bc9c:    9001        ..      STR      r0,[sp,#4]
        0x0001bc9e:    bf00        ..      NOP      
        0x0001bca0:    4650        PF      MOV      r0,r10
        0x0001bca2:    f10a0a01    ....    ADD      r10,r10,#1
        0x0001bca6:    f8374010    7..@    LDRH     r4,[r7,r0,LSL #1]
        0x0001bcaa:    b904        ..      CBNZ     r4,0x1bcae ; create_name + 382
        0x0001bcac:    e068        h.      B        0x1bd80 ; create_name + 592
        0x0001bcae:    2c20         ,      CMP      r4,#0x20
        0x0001bcb0:    d003        ..      BEQ      0x1bcba ; create_name + 394
        0x0001bcb2:    2c2e        .,      CMP      r4,#0x2e
        0x0001bcb4:    d104        ..      BNE      0x1bcc0 ; create_name + 400
        0x0001bcb6:    45aa        .E      CMP      r10,r5
        0x0001bcb8:    d002        ..      BEQ      0x1bcc0 ; create_name + 400
        0x0001bcba:    f0460603    F...    ORR      r6,r6,#3
        0x0001bcbe:    e7ef        ..      B        0x1bca0 ; create_name + 368
        0x0001bcc0:    9801        ..      LDR      r0,[sp,#4]
        0x0001bcc2:    4580        .E      CMP      r8,r0
        0x0001bcc4:    d201        ..      BCS      0x1bcca ; create_name + 410
        0x0001bcc6:    45aa        .E      CMP      r10,r5
        0x0001bcc8:    d116        ..      BNE      0x1bcf8 ; create_name + 456
        0x0001bcca:    9801        ..      LDR      r0,[sp,#4]
        0x0001bccc:    280b        .(      CMP      r0,#0xb
        0x0001bcce:    d102        ..      BNE      0x1bcd6 ; create_name + 422
        0x0001bcd0:    f0460603    F...    ORR      r6,r6,#3
        0x0001bcd4:    e054        T.      B        0x1bd80 ; create_name + 592
        0x0001bcd6:    45aa        .E      CMP      r10,r5
        0x0001bcd8:    d001        ..      BEQ      0x1bcde ; create_name + 430
        0x0001bcda:    f0460603    F...    ORR      r6,r6,#3
        0x0001bcde:    45aa        .E      CMP      r10,r5
        0x0001bce0:    d900        ..      BLS      0x1bce4 ; create_name + 436
        0x0001bce2:    e04d        M.      B        0x1bd80 ; create_name + 592
        0x0001bce4:    46aa        .F      MOV      r10,r5
        0x0001bce6:    f04f0808    O...    MOV      r8,#8
        0x0001bcea:    200b        .       MOVS     r0,#0xb
        0x0001bcec:    9001        ..      STR      r0,[sp,#4]
        0x0001bcee:    ea4f608b    O..`    LSL      r0,r11,#26
        0x0001bcf2:    ea4f6b10    O..k    LSR      r11,r0,#24
        0x0001bcf6:    e7d3        ..      B        0x1bca0 ; create_name + 368
        0x0001bcf8:    2c80        .,      CMP      r4,#0x80
        0x0001bcfa:    db0e        ..      BLT      0x1bd1a ; create_name + 490
        0x0001bcfc:    f0460602    F...    ORR      r6,r6,#2
        0x0001bd00:    f2403152    @.R1    MOV      r1,#0x352
        0x0001bd04:    4620         F      MOV      r0,r4
        0x0001bd06:    f001fb37    ..7.    BL       ff_uni2oem ; 0x1d378
        0x0001bd0a:    4604        .F      MOV      r4,r0
        0x0001bd0c:    f0040080    ....    AND      r0,r4,#0x80
        0x0001bd10:    b118        ..      CBZ      r0,0x1bd1a ; create_name + 490
        0x0001bd12:    f004007f    ....    AND      r0,r4,#0x7f
        0x0001bd16:    4933        3I      LDR      r1,[pc,#204] ; [0x1bde4] = 0x1ed19
        0x0001bd18:    5c0c        .\      LDRB     r4,[r1,r0]
        0x0001bd1a:    2cff        .,      CMP      r4,#0xff
        0x0001bd1c:    dd10        ..      BLE      0x1bd40 ; create_name + 528
        0x0001bd1e:    9801        ..      LDR      r0,[sp,#4]
        0x0001bd20:    1e40        @.      SUBS     r0,r0,#1
        0x0001bd22:    4540        @E      CMP      r0,r8
        0x0001bd24:    d804        ..      BHI      0x1bd30 ; create_name + 512
        0x0001bd26:    f0460603    F...    ORR      r6,r6,#3
        0x0001bd2a:    f8dd8004    ....    LDR      r8,[sp,#4]
        0x0001bd2e:    e7b7        ..      B        0x1bca0 ; create_name + 368
        0x0001bd30:    1222        ".      ASRS     r2,r4,#8
        0x0001bd32:    4640        @F      MOV      r0,r8
        0x0001bd34:    f1080801    ....    ADD      r8,r8,#1
        0x0001bd38:    f1090120    .. .    ADD      r1,r9,#0x20
        0x0001bd3c:    540a        .T      STRB     r2,[r1,r0]
        0x0001bd3e:    e018        ..      B        0x1bd72 ; create_name + 578
        0x0001bd40:    b124        $.      CBZ      r4,0x1bd4c ; create_name + 540
        0x0001bd42:    4621        !F      MOV      r1,r4
        0x0001bd44:    a028        (.      ADR      r0,{pc}+0xa4 ; 0x1bde8
        0x0001bd46:    f7fffdd3    ....    BL       chk_chr ; 0x1b8f0
        0x0001bd4a:    b118        ..      CBZ      r0,0x1bd54 ; create_name + 548
        0x0001bd4c:    245f        _$      MOVS     r4,#0x5f
        0x0001bd4e:    f0460603    F...    ORR      r6,r6,#3
        0x0001bd52:    e00e        ..      B        0x1bd72 ; create_name + 578
        0x0001bd54:    2c41        A,      CMP      r4,#0x41
        0x0001bd56:    db03        ..      BLT      0x1bd60 ; create_name + 560
        0x0001bd58:    2c5a        Z,      CMP      r4,#0x5a
        0x0001bd5a:    dc01        ..      BGT      0x1bd60 ; create_name + 560
        0x0001bd5c:    f04b0b02    K...    ORR      r11,r11,#2
        0x0001bd60:    2c61        a,      CMP      r4,#0x61
        0x0001bd62:    db06        ..      BLT      0x1bd72 ; create_name + 578
        0x0001bd64:    2c7a        z,      CMP      r4,#0x7a
        0x0001bd66:    dc04        ..      BGT      0x1bd72 ; create_name + 578
        0x0001bd68:    f04b0b01    K...    ORR      r11,r11,#1
        0x0001bd6c:    f1a40020    .. .    SUB      r0,r4,#0x20
        0x0001bd70:    b284        ..      UXTH     r4,r0
        0x0001bd72:    4640        @F      MOV      r0,r8
        0x0001bd74:    f1080801    ....    ADD      r8,r8,#1
        0x0001bd78:    f1090120    .. .    ADD      r1,r9,#0x20
        0x0001bd7c:    540c        .T      STRB     r4,[r1,r0]
        0x0001bd7e:    e78f        ..      B        0x1bca0 ; create_name + 368
        0x0001bd80:    bf00        ..      NOP      
        0x0001bd82:    f8990020    .. .    LDRB     r0,[r9,#0x20]
        0x0001bd86:    28e5        .(      CMP      r0,#0xe5
        0x0001bd88:    d102        ..      BNE      0x1bd90 ; create_name + 608
        0x0001bd8a:    2005        .       MOVS     r0,#5
        0x0001bd8c:    f8890020    .. .    STRB     r0,[r9,#0x20]
        0x0001bd90:    9801        ..      LDR      r0,[sp,#4]
        0x0001bd92:    2808        .(      CMP      r0,#8
        0x0001bd94:    d103        ..      BNE      0x1bd9e ; create_name + 622
        0x0001bd96:    ea4f608b    O..`    LSL      r0,r11,#26
        0x0001bd9a:    ea4f6b10    O..k    LSR      r11,r0,#24
        0x0001bd9e:    f00b000c    ....    AND      r0,r11,#0xc
        0x0001bda2:    280c        .(      CMP      r0,#0xc
        0x0001bda4:    d003        ..      BEQ      0x1bdae ; create_name + 638
        0x0001bda6:    f00b0003    ....    AND      r0,r11,#3
        0x0001bdaa:    2803        .(      CMP      r0,#3
        0x0001bdac:    d101        ..      BNE      0x1bdb2 ; create_name + 642
        0x0001bdae:    f0460602    F...    ORR      r6,r6,#2
        0x0001bdb2:    f0060002    ....    AND      r0,r6,#2
        0x0001bdb6:    b948        H.      CBNZ     r0,0x1bdcc ; create_name + 668
        0x0001bdb8:    f00b0001    ....    AND      r0,r11,#1
        0x0001bdbc:    b108        ..      CBZ      r0,0x1bdc2 ; create_name + 658
        0x0001bdbe:    f0460610    F...    ORR      r6,r6,#0x10
        0x0001bdc2:    f00b0004    ....    AND      r0,r11,#4
        0x0001bdc6:    b108        ..      CBZ      r0,0x1bdcc ; create_name + 668
        0x0001bdc8:    f0460608    F...    ORR      r6,r6,#8
        0x0001bdcc:    202b        +       MOVS     r0,#0x2b
        0x0001bdce:    f8006009    ...`    STRB     r6,[r0,r9]
        0x0001bdd2:    2000        .       MOVS     r0,#0
        0x0001bdd4:    e6c0        ..      B        0x1bb58 ; create_name + 40
    $d
        0x0001bdd6:    0000        ..      DCW    0
        0x0001bdd8:    3c3a2a22    "*:<    DCD    1010444834
        0x0001bddc:    7f7c3f3e    >?|.    DCD    2138849086
        0x0001bde0:    00000000    ....    DCD    0
        0x0001bde4:    0001ed19    ....    DCD    126233
        0x0001bde8:    3d3b2c2b    +,;=    DCD    1027288107
        0x0001bdec:    00005d5b    []..    DCD    23899
    $t
    i.create_partition
    create_partition
        0x0001bdf0:    e92d4fff    -..O    PUSH     {r0-r11,lr}
        0x0001bdf4:    b085        ..      SUB      sp,sp,#0x14
        0x0001bdf6:    469a        .F      MOV      r10,r3
        0x0001bdf8:    aa03        ..      ADD      r2,sp,#0xc
        0x0001bdfa:    2101        .!      MOVS     r1,#1
        0x0001bdfc:    9805        ..      LDR      r0,[sp,#0x14]
        0x0001bdfe:    f000fb63    ..c.    BL       disk_ioctl ; 0x1c4c8
        0x0001be02:    b118        ..      CBZ      r0,0x1be0c ; create_partition + 28
        0x0001be04:    2001        .       MOVS     r0,#1
        0x0001be06:    b009        ..      ADD      sp,sp,#0x24
        0x0001be08:    e8bd8ff0    ....    POP      {r4-r11,pc}
        0x0001be0c:    f8dd900c    ....    LDR      r9,[sp,#0xc]
        0x0001be10:    f04f083f    O.?.    MOV      r8,#0x3f
        0x0001be14:    2708        .'      MOVS     r7,#8
        0x0001be16:    e001        ..      B        0x1be1c ; create_partition + 44
        0x0001be18:    0678        x.      LSLS     r0,r7,#25
        0x0001be1a:    0e07        ..      LSRS     r7,r0,#24
        0x0001be1c:    b137        7.      CBZ      r7,0x1be2c ; create_partition + 60
        0x0001be1e:    fbb9f0f7    ....    UDIV     r0,r9,r7
        0x0001be22:    fbb0f0f8    ....    UDIV     r0,r0,r8
        0x0001be26:    f5b06f80    ...o    CMP      r0,#0x400
        0x0001be2a:    d8f5        ..      BHI      0x1be18 ; create_partition + 40
        0x0001be2c:    b907        ..      CBNZ     r7,0x1be30 ; create_partition + 64
        0x0001be2e:    27ff        .'      MOVS     r7,#0xff
        0x0001be30:    f44f7200    O..r    MOV      r2,#0x200
        0x0001be34:    2100        .!      MOVS     r1,#0
        0x0001be36:    4650        PF      MOV      r0,r10
        0x0001be38:    f001ff39    ..9.    BL       mem_set ; 0x1dcae
        0x0001be3c:    f50a76df    ...v    ADD      r6,r10,#0x1be
        0x0001be40:    f04f0b00    O...    MOV      r11,#0
        0x0001be44:    4644        DF      MOV      r4,r8
        0x0001be46:    e069        i.      B        0x1bf1c ; create_partition + 300
        0x0001be48:    9806        ..      LDR      r0,[sp,#0x18]
        0x0001be4a:    f850502b    P.+P    LDR      r5,[r0,r11,LSL #2]
        0x0001be4e:    2d64        d-      CMP      r5,#0x64
        0x0001be50:    d807        ..      BHI      0x1be62 ; create_partition + 114
        0x0001be52:    d101        ..      BNE      0x1be58 ; create_partition + 104
        0x0001be54:    4648        HF      MOV      r0,r9
        0x0001be56:    e003        ..      B        0x1be60 ; create_partition + 112
        0x0001be58:    2064        d       MOVS     r0,#0x64
        0x0001be5a:    fbb9f0f0    ....    UDIV     r0,r9,r0
        0x0001be5e:    4368        hC      MULS     r0,r5,r0
        0x0001be60:    4605        .F      MOV      r5,r0
        0x0001be62:    1960        `.      ADDS     r0,r4,r5
        0x0001be64:    4548        HE      CMP      r0,r9
        0x0001be66:    d801        ..      BHI      0x1be6c ; create_partition + 124
        0x0001be68:    1960        `.      ADDS     r0,r4,r5
        0x0001be6a:    d301        ..      BCC      0x1be70 ; create_partition + 128
        0x0001be6c:    eba90504    ....    SUB      r5,r9,r4
        0x0001be70:    b905        ..      CBNZ     r5,0x1be74 ; create_partition + 132
        0x0001be72:    e059        Y.      B        0x1bf28 ; create_partition + 312
        0x0001be74:    4621        !F      MOV      r1,r4
        0x0001be76:    f1060008    ....    ADD      r0,r6,#8
        0x0001be7a:    f002fd6c    ..l.    BL       st_dword ; 0x1e956
        0x0001be7e:    4629        )F      MOV      r1,r5
        0x0001be80:    f106000c    ....    ADD      r0,r6,#0xc
        0x0001be84:    f002fd67    ..g.    BL       st_dword ; 0x1e956
        0x0001be88:    9807        ..      LDR      r0,[sp,#0x1c]
        0x0001be8a:    7130        0q      STRB     r0,[r6,#4]
        0x0001be8c:    fbb4f0f8    ....    UDIV     r0,r4,r8
        0x0001be90:    fbb0f0f7    ....    UDIV     r0,r0,r7
        0x0001be94:    9004        ..      STR      r0,[sp,#0x10]
        0x0001be96:    fbb4f0f8    ....    UDIV     r0,r4,r8
        0x0001be9a:    fbb0f1f7    ....    UDIV     r1,r0,r7
        0x0001be9e:    fb070011    ....    MLS      r0,r7,r1,r0
        0x0001bea2:    b2c0        ..      UXTB     r0,r0
        0x0001bea4:    9002        ..      STR      r0,[sp,#8]
        0x0001bea6:    fbb4f0f8    ....    UDIV     r0,r4,r8
        0x0001beaa:    fb084010    ...@    MLS      r0,r8,r0,r4
        0x0001beae:    1c40        @.      ADDS     r0,r0,#1
        0x0001beb0:    b2c0        ..      UXTB     r0,r0
        0x0001beb2:    9001        ..      STR      r0,[sp,#4]
        0x0001beb4:    9802        ..      LDR      r0,[sp,#8]
        0x0001beb6:    7070        pp      STRB     r0,[r6,#1]
        0x0001beb8:    21c0        .!      MOVS     r1,#0xc0
        0x0001beba:    9804        ..      LDR      r0,[sp,#0x10]
        0x0001bebc:    ea010090    ....    AND      r0,r1,r0,LSR #2
        0x0001bec0:    9901        ..      LDR      r1,[sp,#4]
        0x0001bec2:    4308        .C      ORRS     r0,r0,r1
        0x0001bec4:    70b0        .p      STRB     r0,[r6,#2]
        0x0001bec6:    9804        ..      LDR      r0,[sp,#0x10]
        0x0001bec8:    70f0        .p      STRB     r0,[r6,#3]
        0x0001beca:    1960        `.      ADDS     r0,r4,r5
        0x0001becc:    1e40        @.      SUBS     r0,r0,#1
        0x0001bece:    fbb0f0f8    ....    UDIV     r0,r0,r8
        0x0001bed2:    fbb0f0f7    ....    UDIV     r0,r0,r7
        0x0001bed6:    9004        ..      STR      r0,[sp,#0x10]
        0x0001bed8:    1960        `.      ADDS     r0,r4,r5
        0x0001beda:    1e40        @.      SUBS     r0,r0,#1
        0x0001bedc:    fbb0f0f8    ....    UDIV     r0,r0,r8
        0x0001bee0:    fbb0f1f7    ....    UDIV     r1,r0,r7
        0x0001bee4:    fb070011    ....    MLS      r0,r7,r1,r0
        0x0001bee8:    b2c0        ..      UXTB     r0,r0
        0x0001beea:    9002        ..      STR      r0,[sp,#8]
        0x0001beec:    1960        `.      ADDS     r0,r4,r5
        0x0001beee:    1e40        @.      SUBS     r0,r0,#1
        0x0001bef0:    fbb0f1f8    ....    UDIV     r1,r0,r8
        0x0001bef4:    fb080011    ....    MLS      r0,r8,r1,r0
        0x0001bef8:    1c40        @.      ADDS     r0,r0,#1
        0x0001befa:    b2c0        ..      UXTB     r0,r0
        0x0001befc:    9001        ..      STR      r0,[sp,#4]
        0x0001befe:    9802        ..      LDR      r0,[sp,#8]
        0x0001bf00:    7170        pq      STRB     r0,[r6,#5]
        0x0001bf02:    21c0        .!      MOVS     r1,#0xc0
        0x0001bf04:    9804        ..      LDR      r0,[sp,#0x10]
        0x0001bf06:    ea010090    ....    AND      r0,r1,r0,LSR #2
        0x0001bf0a:    9901        ..      LDR      r1,[sp,#4]
        0x0001bf0c:    4308        .C      ORRS     r0,r0,r1
        0x0001bf0e:    71b0        .q      STRB     r0,[r6,#6]
        0x0001bf10:    9804        ..      LDR      r0,[sp,#0x10]
        0x0001bf12:    71f0        .q      STRB     r0,[r6,#7]
        0x0001bf14:    3610        .6      ADDS     r6,r6,#0x10
        0x0001bf16:    f10b0b01    ....    ADD      r11,r11,#1
        0x0001bf1a:    442c        ,D      ADD      r4,r4,r5
        0x0001bf1c:    f1bb0f04    ....    CMP      r11,#4
        0x0001bf20:    d202        ..      BCS      0x1bf28 ; create_partition + 312
        0x0001bf22:    b10c        ..      CBZ      r4,0x1bf28 ; create_partition + 312
        0x0001bf24:    454c        LE      CMP      r4,r9
        0x0001bf26:    d38f        ..      BCC      0x1be48 ; create_partition + 88
        0x0001bf28:    bf00        ..      NOP      
        0x0001bf2a:    f64a2155    J.U!    MOV      r1,#0xaa55
        0x0001bf2e:    f50a70ff    ...p    ADD      r0,r10,#0x1fe
        0x0001bf32:    f002fd1c    ....    BL       st_word ; 0x1e96e
        0x0001bf36:    2301        .#      MOVS     r3,#1
        0x0001bf38:    2200        ."      MOVS     r2,#0
        0x0001bf3a:    4651        QF      MOV      r1,r10
        0x0001bf3c:    9805        ..      LDR      r0,[sp,#0x14]
        0x0001bf3e:    f000fae7    ....    BL       disk_write ; 0x1c510
        0x0001bf42:    b108        ..      CBZ      r0,0x1bf48 ; create_partition + 344
        0x0001bf44:    2001        .       MOVS     r0,#1
        0x0001bf46:    e75e        ^.      B        0x1be06 ; create_partition + 22
        0x0001bf48:    2000        .       MOVS     r0,#0
        0x0001bf4a:    e75c        \.      B        0x1be06 ; create_partition + 22
    i.crypto_boost_trims
    crypto_boost_trims
        0x0001bf4c:    b5f8        ..      PUSH     {r3-r7,lr}
        0x0001bf4e:    4f29        )O      LDR      r7,[pc,#164] ; [0x1bff4] = 0x100001f8
        0x0001bf50:    4606        .F      MOV      r6,r0
        0x0001bf52:    460c        .F      MOV      r4,r1
        0x0001bf54:    78b8        .x      LDRB     r0,[r7,#2]
        0x0001bf56:    ea460100    F...    ORR      r1,r6,r0
        0x0001bf5a:    4030        0@      ANDS     r0,r0,r6
        0x0001bf5c:    ea310000    1...    BICS     r0,r1,r0
        0x0001bf60:    bf08        ..      IT       EQ
        0x0001bf62:    bdf8        ..      POPEQ    {r3-r7,pc}
        0x0001bf64:    f7fcf9fa    ....    BL       am_hal_interrupt_master_disable ; 0x1835c
        0x0001bf68:    9000        ..      STR      r0,[sp,#0]
        0x0001bf6a:    70be        .p      STRB     r6,[r7,#2]
        0x0001bf6c:    6ab8        .j      LDR      r0,[r7,#0x28]
        0x0001bf6e:    2e00        ..      CMP      r6,#0
        0x0001bf70:    bf0c        ..      ITE      EQ
        0x0001bf72:    1b05        ..      SUBEQ    r5,r0,r4
        0x0001bf74:    1905        ..      ADDNE    r5,r0,r4
        0x0001bf76:    62bd        .b      STR      r5,[r7,#0x28]
        0x0001bf78:    2d00        .-      CMP      r5,#0
        0x0001bf7a:    bfb8        ..      IT       LT
        0x0001bf7c:    2500        .%      MOVLT    r5,#0
        0x0001bf7e:    db02        ..      BLT      0x1bf86 ; crypto_boost_trims + 58
        0x0001bf80:    2d3f        ?-      CMP      r5,#0x3f
        0x0001bf82:    bf88        ..      IT       HI
        0x0001bf84:    253f        ?%      MOVHI    r5,#0x3f
        0x0001bf86:    2e00        ..      CMP      r6,#0
        0x0001bf88:    6af8        .j      LDR      r0,[r7,#0x2c]
        0x0001bf8a:    bf14        ..      ITE      NE
        0x0001bf8c:    4404        .D      ADDNE    r4,r0
        0x0001bf8e:    1b04        ..      SUBEQ    r4,r0,r4
        0x0001bf90:    62fc        .b      STR      r4,[r7,#0x2c]
        0x0001bf92:    2c00        .,      CMP      r4,#0
        0x0001bf94:    bfb8        ..      IT       LT
        0x0001bf96:    2400        .$      MOVLT    r4,#0
        0x0001bf98:    db02        ..      BLT      0x1bfa0 ; crypto_boost_trims + 84
        0x0001bf9a:    2c3f        ?,      CMP      r4,#0x3f
        0x0001bf9c:    bf88        ..      IT       HI
        0x0001bf9e:    243f        ?$      MOVHI    r4,#0x3f
        0x0001bfa0:    4f15        .O      LDR      r7,[pc,#84] ; [0x1bff8] = 0x40020000
        0x0001bfa2:    b17e        ~.      CBZ      r6,0x1bfc4 ; crypto_boost_trims + 120
        0x0001bfa4:    f8d7036c    ..l.    LDR      r0,[r7,#0x36c]
        0x0001bfa8:    f3655019    e..P    BFI      r0,r5,#20,#6
        0x0001bfac:    f8c7036c    ..l.    STR      r0,[r7,#0x36c]
        0x0001bfb0:    2014        .       MOVS     r0,#0x14
        0x0001bfb2:    f7fdfcad    ....    BL       am_hal_delay_us ; 0x19910
        0x0001bfb6:    f8d70088    ....    LDR      r0,[r7,#0x88]
        0x0001bfba:    f3640005    d...    BFI      r0,r4,#0,#6
        0x0001bfbe:    f8c70088    ....    STR      r0,[r7,#0x88]
        0x0001bfc2:    e00e        ..      B        0x1bfe2 ; crypto_boost_trims + 150
        0x0001bfc4:    f8d70088    ....    LDR      r0,[r7,#0x88]
        0x0001bfc8:    f3640005    d...    BFI      r0,r4,#0,#6
        0x0001bfcc:    f8c70088    ....    STR      r0,[r7,#0x88]
        0x0001bfd0:    2014        .       MOVS     r0,#0x14
        0x0001bfd2:    f7fdfc9d    ....    BL       am_hal_delay_us ; 0x19910
        0x0001bfd6:    f8d7036c    ..l.    LDR      r0,[r7,#0x36c]
        0x0001bfda:    f3655019    e..P    BFI      r0,r5,#20,#6
        0x0001bfde:    f8c7036c    ..l.    STR      r0,[r7,#0x36c]
        0x0001bfe2:    9800        ..      LDR      r0,[sp,#0]
        0x0001bfe4:    f7fcf9be    ....    BL       am_hal_interrupt_master_set ; 0x18364
        0x0001bfe8:    e8bd40f8    ...@    POP      {r3-r7,lr}
        0x0001bfec:    2014        .       MOVS     r0,#0x14
        0x0001bfee:    f7fdbc8f    ....    B        am_hal_delay_us ; 0x19910
    $d
        0x0001bff2:    0000        ..      DCW    0
        0x0001bff4:    100001f8    ....    DCD    268435960
        0x0001bff8:    40020000    ...@    DCD    1073872896
    $t
    i.dbc_1st
    dbc_1st
        0x0001bffc:    4601        .F      MOV      r1,r0
        0x0001bffe:    b109        ..      CBZ      r1,0x1c004 ; dbc_1st + 8
        0x0001c000:    2000        .       MOVS     r0,#0
        0x0001c002:    4770        pG      BX       lr
        0x0001c004:    2000        .       MOVS     r0,#0
        0x0001c006:    e7fc        ..      B        0x1c002 ; dbc_1st + 6
    i.dbc_2nd
    dbc_2nd
        0x0001c008:    4601        .F      MOV      r1,r0
        0x0001c00a:    b109        ..      CBZ      r1,0x1c010 ; dbc_2nd + 8
        0x0001c00c:    2000        .       MOVS     r0,#0
        0x0001c00e:    4770        pG      BX       lr
        0x0001c010:    2000        .       MOVS     r0,#0
        0x0001c012:    e7fc        ..      B        0x1c00e ; dbc_2nd + 6
    i.decstr_to_int
    decstr_to_int
        0x0001c014:    b530        0.      PUSH     {r4,r5,lr}
        0x0001c016:    4602        .F      MOV      r2,r0
        0x0001c018:    2500        .%      MOVS     r5,#0
        0x0001c01a:    2300        .#      MOVS     r3,#0
        0x0001c01c:    2400        .$      MOVS     r4,#0
        0x0001c01e:    7810        .x      LDRB     r0,[r2,#0]
        0x0001c020:    282d        -(      CMP      r0,#0x2d
        0x0001c022:    d102        ..      BNE      0x1c02a ; decstr_to_int + 22
        0x0001c024:    2501        .%      MOVS     r5,#1
        0x0001c026:    1c52        R.      ADDS     r2,r2,#1
        0x0001c028:    1c64        d.      ADDS     r4,r4,#1
        0x0001c02a:    e007        ..      B        0x1c03c ; decstr_to_int + 40
        0x0001c02c:    1c64        d.      ADDS     r4,r4,#1
        0x0001c02e:    eb030083    ....    ADD      r0,r3,r3,LSL #2
        0x0001c032:    0043        C.      LSLS     r3,r0,#1
        0x0001c034:    7810        .x      LDRB     r0,[r2,#0]
        0x0001c036:    3830        08      SUBS     r0,r0,#0x30
        0x0001c038:    4403        .D      ADD      r3,r3,r0
        0x0001c03a:    1c52        R.      ADDS     r2,r2,#1
        0x0001c03c:    7810        .x      LDRB     r0,[r2,#0]
        0x0001c03e:    2830        0(      CMP      r0,#0x30
        0x0001c040:    db02        ..      BLT      0x1c048 ; decstr_to_int + 52
        0x0001c042:    7810        .x      LDRB     r0,[r2,#0]
        0x0001c044:    2839        9(      CMP      r0,#0x39
        0x0001c046:    ddf1        ..      BLE      0x1c02c ; decstr_to_int + 24
        0x0001c048:    b101        ..      CBZ      r1,0x1c04c ; decstr_to_int + 56
        0x0001c04a:    600c        .`      STR      r4,[r1,#0]
        0x0001c04c:    b10d        ..      CBZ      r5,0x1c052 ; decstr_to_int + 62
        0x0001c04e:    4258        XB      RSBS     r0,r3,#0
        0x0001c050:    bd30        0.      POP      {r4,r5,pc}
        0x0001c052:    4618        .F      MOV      r0,r3
        0x0001c054:    e7fc        ..      B        0x1c050 ; decstr_to_int + 60
    i.dir_alloc
    dir_alloc
        0x0001c056:    e92d41f0    -..A    PUSH     {r4-r8,lr}
        0x0001c05a:    4604        .F      MOV      r4,r0
        0x0001c05c:    460e        .F      MOV      r6,r1
        0x0001c05e:    f8d48000    ....    LDR      r8,[r4,#0]
        0x0001c062:    2100        .!      MOVS     r1,#0
        0x0001c064:    4620         F      MOV      r0,r4
        0x0001c066:    f000f9da    ....    BL       dir_sdi ; 0x1c41e
        0x0001c06a:    4605        .F      MOV      r5,r0
        0x0001c06c:    b9ed        ..      CBNZ     r5,0x1c0aa ; dir_alloc + 84
        0x0001c06e:    2700        .'      MOVS     r7,#0
        0x0001c070:    bf00        ..      NOP      
        0x0001c072:    4640        @F      MOV      r0,r8
        0x0001c074:    69a1        .i      LDR      r1,[r4,#0x18]
        0x0001c076:    f002fab3    ....    BL       move_window ; 0x1e5e0
        0x0001c07a:    4605        .F      MOV      r5,r0
        0x0001c07c:    b105        ..      CBZ      r5,0x1c080 ; dir_alloc + 42
        0x0001c07e:    e013        ..      B        0x1c0a8 ; dir_alloc + 82
        0x0001c080:    69e0        .i      LDR      r0,[r4,#0x1c]
        0x0001c082:    7800        .x      LDRB     r0,[r0,#0]
        0x0001c084:    28e5        .(      CMP      r0,#0xe5
        0x0001c086:    d002        ..      BEQ      0x1c08e ; dir_alloc + 56
        0x0001c088:    69e0        .i      LDR      r0,[r4,#0x1c]
        0x0001c08a:    7800        .x      LDRB     r0,[r0,#0]
        0x0001c08c:    b920         .      CBNZ     r0,0x1c098 ; dir_alloc + 66
        0x0001c08e:    1c78        x.      ADDS     r0,r7,#1
        0x0001c090:    4607        .F      MOV      r7,r0
        0x0001c092:    42b0        .B      CMP      r0,r6
        0x0001c094:    d101        ..      BNE      0x1c09a ; dir_alloc + 68
        0x0001c096:    e007        ..      B        0x1c0a8 ; dir_alloc + 82
        0x0001c098:    2700        .'      MOVS     r7,#0
        0x0001c09a:    2101        .!      MOVS     r1,#1
        0x0001c09c:    4620         F      MOV      r0,r4
        0x0001c09e:    f000f8b8    ....    BL       dir_next ; 0x1c212
        0x0001c0a2:    4605        .F      MOV      r5,r0
        0x0001c0a4:    2d00        .-      CMP      r5,#0
        0x0001c0a6:    d0e4        ..      BEQ      0x1c072 ; dir_alloc + 28
        0x0001c0a8:    bf00        ..      NOP      
        0x0001c0aa:    2d04        .-      CMP      r5,#4
        0x0001c0ac:    d100        ..      BNE      0x1c0b0 ; dir_alloc + 90
        0x0001c0ae:    2507        .%      MOVS     r5,#7
        0x0001c0b0:    4628        (F      MOV      r0,r5
        0x0001c0b2:    e8bd81f0    ....    POP      {r4-r8,pc}
    i.dir_clear
    dir_clear
        0x0001c0b6:    e92d47f0    -..G    PUSH     {r4-r10,lr}
        0x0001c0ba:    4604        .F      MOV      r4,r0
        0x0001c0bc:    4689        .F      MOV      r9,r1
        0x0001c0be:    4620         F      MOV      r0,r4
        0x0001c0c0:    f002fcb4    ....    BL       sync_window ; 0x1ea2c
        0x0001c0c4:    b110        ..      CBZ      r0,0x1c0cc ; dir_clear + 22
        0x0001c0c6:    2001        .       MOVS     r0,#1
        0x0001c0c8:    e8bd87f0    ....    POP      {r4-r10,pc}
        0x0001c0cc:    4649        IF      MOV      r1,r9
        0x0001c0ce:    4620         F      MOV      r0,r4
        0x0001c0d0:    f7fffc31    ..1.    BL       clst2sect ; 0x1b936
        0x0001c0d4:    4606        .F      MOV      r6,r0
        0x0001c0d6:    6366        fc      STR      r6,[r4,#0x34]
        0x0001c0d8:    f44f7200    O..r    MOV      r2,#0x200
        0x0001c0dc:    2100        .!      MOVS     r1,#0
        0x0001c0de:    f1040038    ..8.    ADD      r0,r4,#0x38
        0x0001c0e2:    f001fde4    ....    BL       mem_set ; 0x1dcae
        0x0001c0e6:    f1040838    ..8.    ADD      r8,r4,#0x38
        0x0001c0ea:    2701        .'      MOVS     r7,#1
        0x0001c0ec:    2500        .%      MOVS     r5,#0
        0x0001c0ee:    e000        ..      B        0x1c0f2 ; dir_clear + 60
        0x0001c0f0:    443d        =D      ADD      r5,r5,r7
        0x0001c0f2:    8960        `.      LDRH     r0,[r4,#0xa]
        0x0001c0f4:    42a8        .B      CMP      r0,r5
        0x0001c0f6:    d907        ..      BLS      0x1c108 ; dir_clear + 82
        0x0001c0f8:    1972        r.      ADDS     r2,r6,r5
        0x0001c0fa:    7860        `x      LDRB     r0,[r4,#1]
        0x0001c0fc:    463b        ;F      MOV      r3,r7
        0x0001c0fe:    4641        AF      MOV      r1,r8
        0x0001c100:    f000fa06    ....    BL       disk_write ; 0x1c510
        0x0001c104:    2800        .(      CMP      r0,#0
        0x0001c106:    d0f3        ..      BEQ      0x1c0f0 ; dir_clear + 58
        0x0001c108:    8960        `.      LDRH     r0,[r4,#0xa]
        0x0001c10a:    42a8        .B      CMP      r0,r5
        0x0001c10c:    d001        ..      BEQ      0x1c112 ; dir_clear + 92
        0x0001c10e:    2001        .       MOVS     r0,#1
        0x0001c110:    e7da        ..      B        0x1c0c8 ; dir_clear + 18
        0x0001c112:    2000        .       MOVS     r0,#0
        0x0001c114:    e7d8        ..      B        0x1c0c8 ; dir_clear + 18
    i.dir_find
    dir_find
        0x0001c116:    e92d47f0    -..G    PUSH     {r4-r10,lr}
        0x0001c11a:    4604        .F      MOV      r4,r0
        0x0001c11c:    f8d4a000    ....    LDR      r10,[r4,#0]
        0x0001c120:    2100        .!      MOVS     r1,#0
        0x0001c122:    4620         F      MOV      r0,r4
        0x0001c124:    f000f97b    ..{.    BL       dir_sdi ; 0x1c41e
        0x0001c128:    4606        .F      MOV      r6,r0
        0x0001c12a:    b116        ..      CBZ      r6,0x1c132 ; dir_find + 28
        0x0001c12c:    4630        0F      MOV      r0,r6
        0x0001c12e:    e8bd87f0    ....    POP      {r4-r10,pc}
        0x0001c132:    f04f08ff    O...    MOV      r8,#0xff
        0x0001c136:    46c1        .F      MOV      r9,r8
        0x0001c138:    f04f30ff    O..0    MOV      r0,#0xffffffff
        0x0001c13c:    62e0        .b      STR      r0,[r4,#0x2c]
        0x0001c13e:    bf00        ..      NOP      
        0x0001c140:    4650        PF      MOV      r0,r10
        0x0001c142:    69a1        .i      LDR      r1,[r4,#0x18]
        0x0001c144:    f002fa4c    ..L.    BL       move_window ; 0x1e5e0
        0x0001c148:    4606        .F      MOV      r6,r0
        0x0001c14a:    b106        ..      CBZ      r6,0x1c14e ; dir_find + 56
        0x0001c14c:    e05e        ^.      B        0x1c20c ; dir_find + 246
        0x0001c14e:    69e0        .i      LDR      r0,[r4,#0x1c]
        0x0001c150:    7805        .x      LDRB     r5,[r0,#0]
        0x0001c152:    b90d        ..      CBNZ     r5,0x1c158 ; dir_find + 66
        0x0001c154:    2604        .&      MOVS     r6,#4
        0x0001c156:    e059        Y.      B        0x1c20c ; dir_find + 246
        0x0001c158:    69e0        .i      LDR      r0,[r4,#0x1c]
        0x0001c15a:    7ac0        .z      LDRB     r0,[r0,#0xb]
        0x0001c15c:    f000073f    ..?.    AND      r7,r0,#0x3f
        0x0001c160:    71a7        .q      STRB     r7,[r4,#6]
        0x0001c162:    2de5        .-      CMP      r5,#0xe5
        0x0001c164:    d004        ..      BEQ      0x1c170 ; dir_find + 90
        0x0001c166:    f0070008    ....    AND      r0,r7,#8
        0x0001c16a:    b138        8.      CBZ      r0,0x1c17c ; dir_find + 102
        0x0001c16c:    2f0f        ./      CMP      r7,#0xf
        0x0001c16e:    d005        ..      BEQ      0x1c17c ; dir_find + 102
        0x0001c170:    f04f08ff    O...    MOV      r8,#0xff
        0x0001c174:    f04f30ff    O..0    MOV      r0,#0xffffffff
        0x0001c178:    62e0        .b      STR      r0,[r4,#0x2c]
        0x0001c17a:    e040        @.      B        0x1c1fe ; dir_find + 232
        0x0001c17c:    2f0f        ./      CMP      r7,#0xf
        0x0001c17e:    d122        ".      BNE      0x1c1c6 ; dir_find + 176
        0x0001c180:    202b        +       MOVS     r0,#0x2b
        0x0001c182:    5d00        .]      LDRB     r0,[r0,r4]
        0x0001c184:    f0000040    ..@.    AND      r0,r0,#0x40
        0x0001c188:    bb98        ..      CBNZ     r0,0x1c1f2 ; dir_find + 220
        0x0001c18a:    f0050040    ..@.    AND      r0,r5,#0x40
        0x0001c18e:    b138        8.      CBZ      r0,0x1c1a0 ; dir_find + 138
        0x0001c190:    69e0        .i      LDR      r0,[r4,#0x1c]
        0x0001c192:    f890900d    ....    LDRB     r9,[r0,#0xd]
        0x0001c196:    f00505bf    ....    AND      r5,r5,#0xbf
        0x0001c19a:    46a8        .F      MOV      r8,r5
        0x0001c19c:    6920         i      LDR      r0,[r4,#0x10]
        0x0001c19e:    62e0        .b      STR      r0,[r4,#0x2c]
        0x0001c1a0:    4545        EE      CMP      r5,r8
        0x0001c1a2:    d10c        ..      BNE      0x1c1be ; dir_find + 168
        0x0001c1a4:    69e0        .i      LDR      r0,[r4,#0x1c]
        0x0001c1a6:    7b40        @{      LDRB     r0,[r0,#0xd]
        0x0001c1a8:    4548        HE      CMP      r0,r9
        0x0001c1aa:    d108        ..      BNE      0x1c1be ; dir_find + 168
        0x0001c1ac:    69e1        .i      LDR      r1,[r4,#0x1c]
        0x0001c1ae:    f8da000c    ....    LDR      r0,[r10,#0xc]
        0x0001c1b2:    f7fffbcd    ....    BL       cmp_lfn ; 0x1b950
        0x0001c1b6:    b110        ..      CBZ      r0,0x1c1be ; dir_find + 168
        0x0001c1b8:    f1a80001    ....    SUB      r0,r8,#1
        0x0001c1bc:    e000        ..      B        0x1c1c0 ; dir_find + 170
        0x0001c1be:    20ff        .       MOVS     r0,#0xff
        0x0001c1c0:    f00008ff    ....    AND      r8,r0,#0xff
        0x0001c1c4:    e01b        ..      B        0x1c1fe ; dir_find + 232
        0x0001c1c6:    f1b80f00    ....    CMP      r8,#0
        0x0001c1ca:    d105        ..      BNE      0x1c1d8 ; dir_find + 194
        0x0001c1cc:    69e0        .i      LDR      r0,[r4,#0x1c]
        0x0001c1ce:    f002fbd4    ....    BL       sum_sfn ; 0x1e97a
        0x0001c1d2:    4548        HE      CMP      r0,r9
        0x0001c1d4:    d100        ..      BNE      0x1c1d8 ; dir_find + 194
        0x0001c1d6:    e019        ..      B        0x1c20c ; dir_find + 246
        0x0001c1d8:    202b        +       MOVS     r0,#0x2b
        0x0001c1da:    5d00        .]      LDRB     r0,[r0,r4]
        0x0001c1dc:    f0000001    ....    AND      r0,r0,#1
        0x0001c1e0:    b940        @.      CBNZ     r0,0x1c1f4 ; dir_find + 222
        0x0001c1e2:    220b        ."      MOVS     r2,#0xb
        0x0001c1e4:    f1040120    .. .    ADD      r1,r4,#0x20
        0x0001c1e8:    69e0        .i      LDR      r0,[r4,#0x1c]
        0x0001c1ea:    f001fd41    ..A.    BL       mem_cmp ; 0x1dc70
        0x0001c1ee:    b908        ..      CBNZ     r0,0x1c1f4 ; dir_find + 222
        0x0001c1f0:    e00c        ..      B        0x1c20c ; dir_find + 246
        0x0001c1f2:    e004        ..      B        0x1c1fe ; dir_find + 232
        0x0001c1f4:    f04f08ff    O...    MOV      r8,#0xff
        0x0001c1f8:    f04f30ff    O..0    MOV      r0,#0xffffffff
        0x0001c1fc:    62e0        .b      STR      r0,[r4,#0x2c]
        0x0001c1fe:    2100        .!      MOVS     r1,#0
        0x0001c200:    4620         F      MOV      r0,r4
        0x0001c202:    f000f806    ....    BL       dir_next ; 0x1c212
        0x0001c206:    4606        .F      MOV      r6,r0
        0x0001c208:    2e00        ..      CMP      r6,#0
        0x0001c20a:    d099        ..      BEQ      0x1c140 ; dir_find + 42
        0x0001c20c:    bf00        ..      NOP      
        0x0001c20e:    4630        0F      MOV      r0,r6
        0x0001c210:    e78d        ..      B        0x1c12e ; dir_find + 24
    i.dir_next
    dir_next
        0x0001c212:    e92d41f0    -..A    PUSH     {r4-r8,lr}
        0x0001c216:    4604        .F      MOV      r4,r0
        0x0001c218:    4688        .F      MOV      r8,r1
        0x0001c21a:    6827        'h      LDR      r7,[r4,#0]
        0x0001c21c:    6920         i      LDR      r0,[r4,#0x10]
        0x0001c21e:    f1000620    .. .    ADD      r6,r0,#0x20
        0x0001c222:    f5b61f00    ....    CMP      r6,#0x200000
        0x0001c226:    d301        ..      BCC      0x1c22c ; dir_next + 26
        0x0001c228:    2000        .       MOVS     r0,#0
        0x0001c22a:    61a0        .a      STR      r0,[r4,#0x18]
        0x0001c22c:    69a0        .i      LDR      r0,[r4,#0x18]
        0x0001c22e:    b910        ..      CBNZ     r0,0x1c236 ; dir_next + 36
        0x0001c230:    2004        .       MOVS     r0,#4
        0x0001c232:    e8bd81f0    ....    POP      {r4-r8,pc}
        0x0001c236:    f3c60008    ....    UBFX     r0,r6,#0,#9
        0x0001c23a:    2800        .(      CMP      r0,#0
        0x0001c23c:    d145        E.      BNE      0x1c2ca ; dir_next + 184
        0x0001c23e:    69a0        .i      LDR      r0,[r4,#0x18]
        0x0001c240:    1c40        @.      ADDS     r0,r0,#1
        0x0001c242:    61a0        .a      STR      r0,[r4,#0x18]
        0x0001c244:    6960        `i      LDR      r0,[r4,#0x14]
        0x0001c246:    b938        8.      CBNZ     r0,0x1c258 ; dir_next + 70
        0x0001c248:    8938        8.      LDRH     r0,[r7,#8]
        0x0001c24a:    ebb01f56    ..V.    CMP      r0,r6,LSR #5
        0x0001c24e:    d83c        <.      BHI      0x1c2ca ; dir_next + 184
        0x0001c250:    2000        .       MOVS     r0,#0
        0x0001c252:    61a0        .a      STR      r0,[r4,#0x18]
        0x0001c254:    2004        .       MOVS     r0,#4
        0x0001c256:    e7ec        ..      B        0x1c232 ; dir_next + 32
        0x0001c258:    8978        x.      LDRH     r0,[r7,#0xa]
        0x0001c25a:    1e40        @.      SUBS     r0,r0,#1
        0x0001c25c:    ea002056    ..V     AND      r0,r0,r6,LSR #9
        0x0001c260:    bb98        ..      CBNZ     r0,0x1c2ca ; dir_next + 184
        0x0001c262:    4620         F      MOV      r0,r4
        0x0001c264:    6961        ai      LDR      r1,[r4,#0x14]
        0x0001c266:    f001fac3    ....    BL       get_fat ; 0x1d7f0
        0x0001c26a:    4605        .F      MOV      r5,r0
        0x0001c26c:    2d01        .-      CMP      r5,#1
        0x0001c26e:    d801        ..      BHI      0x1c274 ; dir_next + 98
        0x0001c270:    2002        .       MOVS     r0,#2
        0x0001c272:    e7de        ..      B        0x1c232 ; dir_next + 32
        0x0001c274:    1c68        h.      ADDS     r0,r5,#1
        0x0001c276:    b908        ..      CBNZ     r0,0x1c27c ; dir_next + 106
        0x0001c278:    2001        .       MOVS     r0,#1
        0x0001c27a:    e7da        ..      B        0x1c232 ; dir_next + 32
        0x0001c27c:    69f8        .i      LDR      r0,[r7,#0x1c]
        0x0001c27e:    42a8        .B      CMP      r0,r5
        0x0001c280:    d81d        ..      BHI      0x1c2be ; dir_next + 172
        0x0001c282:    f1b80f00    ....    CMP      r8,#0
        0x0001c286:    d103        ..      BNE      0x1c290 ; dir_next + 126
        0x0001c288:    2000        .       MOVS     r0,#0
        0x0001c28a:    61a0        .a      STR      r0,[r4,#0x18]
        0x0001c28c:    2004        .       MOVS     r0,#4
        0x0001c28e:    e7d0        ..      B        0x1c232 ; dir_next + 32
        0x0001c290:    4620         F      MOV      r0,r4
        0x0001c292:    6961        ai      LDR      r1,[r4,#0x14]
        0x0001c294:    f7fffbbc    ....    BL       create_chain ; 0x1ba10
        0x0001c298:    4605        .F      MOV      r5,r0
        0x0001c29a:    b90d        ..      CBNZ     r5,0x1c2a0 ; dir_next + 142
        0x0001c29c:    2007        .       MOVS     r0,#7
        0x0001c29e:    e7c8        ..      B        0x1c232 ; dir_next + 32
        0x0001c2a0:    2d01        .-      CMP      r5,#1
        0x0001c2a2:    d101        ..      BNE      0x1c2a8 ; dir_next + 150
        0x0001c2a4:    2002        .       MOVS     r0,#2
        0x0001c2a6:    e7c4        ..      B        0x1c232 ; dir_next + 32
        0x0001c2a8:    1c68        h.      ADDS     r0,r5,#1
        0x0001c2aa:    b908        ..      CBNZ     r0,0x1c2b0 ; dir_next + 158
        0x0001c2ac:    2001        .       MOVS     r0,#1
        0x0001c2ae:    e7c0        ..      B        0x1c232 ; dir_next + 32
        0x0001c2b0:    4629        )F      MOV      r1,r5
        0x0001c2b2:    4638        8F      MOV      r0,r7
        0x0001c2b4:    f7fffeff    ....    BL       dir_clear ; 0x1c0b6
        0x0001c2b8:    b108        ..      CBZ      r0,0x1c2be ; dir_next + 172
        0x0001c2ba:    2001        .       MOVS     r0,#1
        0x0001c2bc:    e7b9        ..      B        0x1c232 ; dir_next + 32
        0x0001c2be:    6165        ea      STR      r5,[r4,#0x14]
        0x0001c2c0:    4629        )F      MOV      r1,r5
        0x0001c2c2:    4638        8F      MOV      r0,r7
        0x0001c2c4:    f7fffb37    ..7.    BL       clst2sect ; 0x1b936
        0x0001c2c8:    61a0        .a      STR      r0,[r4,#0x18]
        0x0001c2ca:    6126        &a      STR      r6,[r4,#0x10]
        0x0001c2cc:    f3c60108    ....    UBFX     r1,r6,#0,#9
        0x0001c2d0:    f1070038    ..8.    ADD      r0,r7,#0x38
        0x0001c2d4:    4408        .D      ADD      r0,r0,r1
        0x0001c2d6:    61e0        .a      STR      r0,[r4,#0x1c]
        0x0001c2d8:    2000        .       MOVS     r0,#0
        0x0001c2da:    e7aa        ..      B        0x1c232 ; dir_next + 32
    i.dir_register
    dir_register
        0x0001c2dc:    e92d4ffe    -..O    PUSH     {r1-r11,lr}
        0x0001c2e0:    4604        .F      MOV      r4,r0
        0x0001c2e2:    6826        &h      LDR      r6,[r4,#0]
        0x0001c2e4:    202b        +       MOVS     r0,#0x2b
        0x0001c2e6:    5d00        .]      LDRB     r0,[r0,r4]
        0x0001c2e8:    f00000a0    ....    AND      r0,r0,#0xa0
        0x0001c2ec:    b110        ..      CBZ      r0,0x1c2f4 ; dir_register + 24
        0x0001c2ee:    2006        .       MOVS     r0,#6
        0x0001c2f0:    e8bd8ffe    ....    POP      {r1-r11,pc}
        0x0001c2f4:    f04f0900    O...    MOV      r9,#0
        0x0001c2f8:    e001        ..      B        0x1c2fe ; dir_register + 34
        0x0001c2fa:    f1090901    ....    ADD      r9,r9,#1
        0x0001c2fe:    68f0        .h      LDR      r0,[r6,#0xc]
        0x0001c300:    f8300019    0...    LDRH     r0,[r0,r9,LSL #1]
        0x0001c304:    2800        .(      CMP      r0,#0
        0x0001c306:    d1f8        ..      BNE      0x1c2fa ; dir_register + 30
        0x0001c308:    220c        ."      MOVS     r2,#0xc
        0x0001c30a:    f1040120    .. .    ADD      r1,r4,#0x20
        0x0001c30e:    4668        hF      MOV      r0,sp
        0x0001c310:    f001fcc0    ....    BL       mem_cpy ; 0x1dc94
        0x0001c314:    f89d000b    ....    LDRB     r0,[sp,#0xb]
        0x0001c318:    f0000001    ....    AND      r0,r0,#1
        0x0001c31c:    b328        (.      CBZ      r0,0x1c36a ; dir_register + 142
        0x0001c31e:    2140        @!      MOVS     r1,#0x40
        0x0001c320:    202b        +       MOVS     r0,#0x2b
        0x0001c322:    5501        .U      STRB     r1,[r0,r4]
        0x0001c324:    f04f0801    O...    MOV      r8,#1
        0x0001c328:    e00e        ..      B        0x1c348 ; dir_register + 108
        0x0001c32a:    4643        CF      MOV      r3,r8
        0x0001c32c:    4669        iF      MOV      r1,sp
        0x0001c32e:    f1040020    .. .    ADD      r0,r4,#0x20
        0x0001c332:    68f2        .h      LDR      r2,[r6,#0xc]
        0x0001c334:    f001f9f6    ....    BL       gen_numname ; 0x1d724
        0x0001c338:    4620         F      MOV      r0,r4
        0x0001c33a:    f7fffeec    ....    BL       dir_find ; 0x1c116
        0x0001c33e:    4605        .F      MOV      r5,r0
        0x0001c340:    b105        ..      CBZ      r5,0x1c344 ; dir_register + 104
        0x0001c342:    e004        ..      B        0x1c34e ; dir_register + 114
        0x0001c344:    f1080801    ....    ADD      r8,r8,#1
        0x0001c348:    f1b80f64    ..d.    CMP      r8,#0x64
        0x0001c34c:    d3ed        ..      BCC      0x1c32a ; dir_register + 78
        0x0001c34e:    bf00        ..      NOP      
        0x0001c350:    f1b80f64    ..d.    CMP      r8,#0x64
        0x0001c354:    d101        ..      BNE      0x1c35a ; dir_register + 126
        0x0001c356:    2007        .       MOVS     r0,#7
        0x0001c358:    e7ca        ..      B        0x1c2f0 ; dir_register + 20
        0x0001c35a:    2d04        .-      CMP      r5,#4
        0x0001c35c:    d001        ..      BEQ      0x1c362 ; dir_register + 134
        0x0001c35e:    4628        (F      MOV      r0,r5
        0x0001c360:    e7c6        ..      B        0x1c2f0 ; dir_register + 20
        0x0001c362:    f89d100b    ....    LDRB     r1,[sp,#0xb]
        0x0001c366:    202b        +       MOVS     r0,#0x2b
        0x0001c368:    5501        .U      STRB     r1,[r0,r4]
        0x0001c36a:    f89d000b    ....    LDRB     r0,[sp,#0xb]
        0x0001c36e:    f0000002    ....    AND      r0,r0,#2
        0x0001c372:    b130        0.      CBZ      r0,0x1c382 ; dir_register + 166
        0x0001c374:    f109000c    ....    ADD      r0,r9,#0xc
        0x0001c378:    210d        .!      MOVS     r1,#0xd
        0x0001c37a:    fbb0f0f1    ....    UDIV     r0,r0,r1
        0x0001c37e:    1c40        @.      ADDS     r0,r0,#1
        0x0001c380:    e000        ..      B        0x1c384 ; dir_register + 168
        0x0001c382:    2001        .       MOVS     r0,#1
        0x0001c384:    4607        .F      MOV      r7,r0
        0x0001c386:    4639        9F      MOV      r1,r7
        0x0001c388:    4620         F      MOV      r0,r4
        0x0001c38a:    f7fffe64    ..d.    BL       dir_alloc ; 0x1c056
        0x0001c38e:    4605        .F      MOV      r5,r0
        0x0001c390:    bb4d        M.      CBNZ     r5,0x1c3e6 ; dir_register + 266
        0x0001c392:    1e78        x.      SUBS     r0,r7,#1
        0x0001c394:    1e07        ..      SUBS     r7,r0,#0
        0x0001c396:    d026        &.      BEQ      0x1c3e6 ; dir_register + 266
        0x0001c398:    6920         i      LDR      r0,[r4,#0x10]
        0x0001c39a:    eba01147    ..G.    SUB      r1,r0,r7,LSL #5
        0x0001c39e:    4620         F      MOV      r0,r4
        0x0001c3a0:    f000f83d    ..=.    BL       dir_sdi ; 0x1c41e
        0x0001c3a4:    4605        .F      MOV      r5,r0
        0x0001c3a6:    b9f5        ..      CBNZ     r5,0x1c3e6 ; dir_register + 266
        0x0001c3a8:    f1040020    .. .    ADD      r0,r4,#0x20
        0x0001c3ac:    f002fae5    ....    BL       sum_sfn ; 0x1e97a
        0x0001c3b0:    4682        .F      MOV      r10,r0
        0x0001c3b2:    bf00        ..      NOP      
        0x0001c3b4:    4630        0F      MOV      r0,r6
        0x0001c3b6:    69a1        .i      LDR      r1,[r4,#0x18]
        0x0001c3b8:    f002f912    ....    BL       move_window ; 0x1e5e0
        0x0001c3bc:    4605        .F      MOV      r5,r0
        0x0001c3be:    b105        ..      CBZ      r5,0x1c3c2 ; dir_register + 230
        0x0001c3c0:    e010        ..      B        0x1c3e4 ; dir_register + 264
        0x0001c3c2:    b2fa        ..      UXTB     r2,r7
        0x0001c3c4:    69e1        .i      LDR      r1,[r4,#0x1c]
        0x0001c3c6:    4653        SF      MOV      r3,r10
        0x0001c3c8:    68f0        .h      LDR      r0,[r6,#0xc]
        0x0001c3ca:    f002fa19    ....    BL       put_lfn ; 0x1e800
        0x0001c3ce:    2001        .       MOVS     r0,#1
        0x0001c3d0:    70f0        .p      STRB     r0,[r6,#3]
        0x0001c3d2:    2100        .!      MOVS     r1,#0
        0x0001c3d4:    4620         F      MOV      r0,r4
        0x0001c3d6:    f7ffff1c    ....    BL       dir_next ; 0x1c212
        0x0001c3da:    4605        .F      MOV      r5,r0
        0x0001c3dc:    b915        ..      CBNZ     r5,0x1c3e4 ; dir_register + 264
        0x0001c3de:    1e78        x.      SUBS     r0,r7,#1
        0x0001c3e0:    1e07        ..      SUBS     r7,r0,#0
        0x0001c3e2:    d1e7        ..      BNE      0x1c3b4 ; dir_register + 216
        0x0001c3e4:    bf00        ..      NOP      
        0x0001c3e6:    b9c5        ..      CBNZ     r5,0x1c41a ; dir_register + 318
        0x0001c3e8:    4630        0F      MOV      r0,r6
        0x0001c3ea:    69a1        .i      LDR      r1,[r4,#0x18]
        0x0001c3ec:    f002f8f8    ....    BL       move_window ; 0x1e5e0
        0x0001c3f0:    4605        .F      MOV      r5,r0
        0x0001c3f2:    b995        ..      CBNZ     r5,0x1c41a ; dir_register + 318
        0x0001c3f4:    2220         "      MOVS     r2,#0x20
        0x0001c3f6:    2100        .!      MOVS     r1,#0
        0x0001c3f8:    69e0        .i      LDR      r0,[r4,#0x1c]
        0x0001c3fa:    f001fc58    ..X.    BL       mem_set ; 0x1dcae
        0x0001c3fe:    220b        ."      MOVS     r2,#0xb
        0x0001c400:    f1040120    .. .    ADD      r1,r4,#0x20
        0x0001c404:    69e0        .i      LDR      r0,[r4,#0x1c]
        0x0001c406:    f001fc45    ..E.    BL       mem_cpy ; 0x1dc94
        0x0001c40a:    202b        +       MOVS     r0,#0x2b
        0x0001c40c:    5d00        .]      LDRB     r0,[r0,r4]
        0x0001c40e:    f0000018    ....    AND      r0,r0,#0x18
        0x0001c412:    69e1        .i      LDR      r1,[r4,#0x1c]
        0x0001c414:    7308        .s      STRB     r0,[r1,#0xc]
        0x0001c416:    2001        .       MOVS     r0,#1
        0x0001c418:    70f0        .p      STRB     r0,[r6,#3]
        0x0001c41a:    4628        (F      MOV      r0,r5
        0x0001c41c:    e768        h.      B        0x1c2f0 ; dir_register + 20
    i.dir_sdi
    dir_sdi
        0x0001c41e:    e92d41f0    -..A    PUSH     {r4-r8,lr}
        0x0001c422:    4604        .F      MOV      r4,r0
        0x0001c424:    460d        .F      MOV      r5,r1
        0x0001c426:    6826        &h      LDR      r6,[r4,#0]
        0x0001c428:    f5b51f00    ....    CMP      r5,#0x200000
        0x0001c42c:    d202        ..      BCS      0x1c434 ; dir_sdi + 22
        0x0001c42e:    f005001f    ....    AND      r0,r5,#0x1f
        0x0001c432:    b110        ..      CBZ      r0,0x1c43a ; dir_sdi + 28
        0x0001c434:    2002        .       MOVS     r0,#2
        0x0001c436:    e8bd81f0    ....    POP      {r4-r8,pc}
        0x0001c43a:    6125        %a      STR      r5,[r4,#0x10]
        0x0001c43c:    68a7        .h      LDR      r7,[r4,#8]
        0x0001c43e:    b91f        ..      CBNZ     r7,0x1c448 ; dir_sdi + 42
        0x0001c440:    7830        0x      LDRB     r0,[r6,#0]
        0x0001c442:    2803        .(      CMP      r0,#3
        0x0001c444:    db00        ..      BLT      0x1c448 ; dir_sdi + 42
        0x0001c446:    6af7        .j      LDR      r7,[r6,#0x2c]
        0x0001c448:    b947        G.      CBNZ     r7,0x1c45c ; dir_sdi + 62
        0x0001c44a:    8930        0.      LDRH     r0,[r6,#8]
        0x0001c44c:    ebb01f55    ..U.    CMP      r0,r5,LSR #5
        0x0001c450:    d801        ..      BHI      0x1c456 ; dir_sdi + 56
        0x0001c452:    2002        .       MOVS     r0,#2
        0x0001c454:    e7ef        ..      B        0x1c436 ; dir_sdi + 24
        0x0001c456:    6af0        .j      LDR      r0,[r6,#0x2c]
        0x0001c458:    61a0        .a      STR      r0,[r4,#0x18]
        0x0001c45a:    e01c        ..      B        0x1c496 ; dir_sdi + 120
        0x0001c45c:    8970        p.      LDRH     r0,[r6,#0xa]
        0x0001c45e:    ea4f2840    O.@(    LSL      r8,r0,#9
        0x0001c462:    e011        ..      B        0x1c488 ; dir_sdi + 106
        0x0001c464:    4639        9F      MOV      r1,r7
        0x0001c466:    4620         F      MOV      r0,r4
        0x0001c468:    f001f9c2    ....    BL       get_fat ; 0x1d7f0
        0x0001c46c:    4607        .F      MOV      r7,r0
        0x0001c46e:    1c78        x.      ADDS     r0,r7,#1
        0x0001c470:    b908        ..      CBNZ     r0,0x1c476 ; dir_sdi + 88
        0x0001c472:    2001        .       MOVS     r0,#1
        0x0001c474:    e7df        ..      B        0x1c436 ; dir_sdi + 24
        0x0001c476:    2f02        ./      CMP      r7,#2
        0x0001c478:    d302        ..      BCC      0x1c480 ; dir_sdi + 98
        0x0001c47a:    69f0        .i      LDR      r0,[r6,#0x1c]
        0x0001c47c:    42b8        .B      CMP      r0,r7
        0x0001c47e:    d801        ..      BHI      0x1c484 ; dir_sdi + 102
        0x0001c480:    2002        .       MOVS     r0,#2
        0x0001c482:    e7d8        ..      B        0x1c436 ; dir_sdi + 24
        0x0001c484:    eba50508    ....    SUB      r5,r5,r8
        0x0001c488:    4545        EE      CMP      r5,r8
        0x0001c48a:    d2eb        ..      BCS      0x1c464 ; dir_sdi + 70
        0x0001c48c:    4639        9F      MOV      r1,r7
        0x0001c48e:    4630        0F      MOV      r0,r6
        0x0001c490:    f7fffa51    ..Q.    BL       clst2sect ; 0x1b936
        0x0001c494:    61a0        .a      STR      r0,[r4,#0x18]
        0x0001c496:    6167        ga      STR      r7,[r4,#0x14]
        0x0001c498:    69a0        .i      LDR      r0,[r4,#0x18]
        0x0001c49a:    b908        ..      CBNZ     r0,0x1c4a0 ; dir_sdi + 130
        0x0001c49c:    2002        .       MOVS     r0,#2
        0x0001c49e:    e7ca        ..      B        0x1c436 ; dir_sdi + 24
        0x0001c4a0:    69a0        .i      LDR      r0,[r4,#0x18]
        0x0001c4a2:    eb002055    ..U     ADD      r0,r0,r5,LSR #9
        0x0001c4a6:    61a0        .a      STR      r0,[r4,#0x18]
        0x0001c4a8:    f3c50108    ....    UBFX     r1,r5,#0,#9
        0x0001c4ac:    f1060038    ..8.    ADD      r0,r6,#0x38
        0x0001c4b0:    4408        .D      ADD      r0,r0,r1
        0x0001c4b2:    61e0        .a      STR      r0,[r4,#0x1c]
        0x0001c4b4:    2000        .       MOVS     r0,#0
        0x0001c4b6:    e7be        ..      B        0x1c436 ; dir_sdi + 24
    i.disk_initialize
    disk_initialize
        0x0001c4b8:    b510        ..      PUSH     {r4,lr}
        0x0001c4ba:    4604        .F      MOV      r4,r0
        0x0001c4bc:    b914        ..      CBNZ     r4,0x1c4c4 ; disk_initialize + 12
        0x0001c4be:    f001fbff    ....    BL       mmc_disk_initialize ; 0x1dcc0
        0x0001c4c2:    bd10        ..      POP      {r4,pc}
        0x0001c4c4:    2001        .       MOVS     r0,#1
        0x0001c4c6:    e7fc        ..      B        0x1c4c2 ; disk_initialize + 10
    i.disk_ioctl
    disk_ioctl
        0x0001c4c8:    b570        p.      PUSH     {r4-r6,lr}
        0x0001c4ca:    4604        .F      MOV      r4,r0
        0x0001c4cc:    460d        .F      MOV      r5,r1
        0x0001c4ce:    4616        .F      MOV      r6,r2
        0x0001c4d0:    b924        $.      CBNZ     r4,0x1c4dc ; disk_ioctl + 20
        0x0001c4d2:    4631        1F      MOV      r1,r6
        0x0001c4d4:    4628        (F      MOV      r0,r5
        0x0001c4d6:    f001fd4d    ..M.    BL       mmc_disk_ioctl ; 0x1df74
        0x0001c4da:    bd70        p.      POP      {r4-r6,pc}
        0x0001c4dc:    2004        .       MOVS     r0,#4
        0x0001c4de:    e7fc        ..      B        0x1c4da ; disk_ioctl + 18
    i.disk_read
    disk_read
        0x0001c4e0:    e92d41f0    -..A    PUSH     {r4-r8,lr}
        0x0001c4e4:    4604        .F      MOV      r4,r0
        0x0001c4e6:    460d        .F      MOV      r5,r1
        0x0001c4e8:    4616        .F      MOV      r6,r2
        0x0001c4ea:    461f        .F      MOV      r7,r3
        0x0001c4ec:    b934        4.      CBNZ     r4,0x1c4fc ; disk_read + 28
        0x0001c4ee:    463a        :F      MOV      r2,r7
        0x0001c4f0:    4631        1F      MOV      r1,r6
        0x0001c4f2:    4628        (F      MOV      r0,r5
        0x0001c4f4:    f001fd62    ..b.    BL       mmc_disk_read ; 0x1dfbc
        0x0001c4f8:    e8bd81f0    ....    POP      {r4-r8,pc}
        0x0001c4fc:    2004        .       MOVS     r0,#4
        0x0001c4fe:    e7fb        ..      B        0x1c4f8 ; disk_read + 24
    i.disk_status
    disk_status
        0x0001c500:    b510        ..      PUSH     {r4,lr}
        0x0001c502:    4604        .F      MOV      r4,r0
        0x0001c504:    b914        ..      CBNZ     r4,0x1c50c ; disk_status + 12
        0x0001c506:    f001fe33    ..3.    BL       mmc_disk_status ; 0x1e170
        0x0001c50a:    bd10        ..      POP      {r4,pc}
        0x0001c50c:    2001        .       MOVS     r0,#1
        0x0001c50e:    e7fc        ..      B        0x1c50a ; disk_status + 10
    i.disk_write
    disk_write
        0x0001c510:    e92d41f0    -..A    PUSH     {r4-r8,lr}
        0x0001c514:    4604        .F      MOV      r4,r0
        0x0001c516:    460d        .F      MOV      r5,r1
        0x0001c518:    4616        .F      MOV      r6,r2
        0x0001c51a:    461f        .F      MOV      r7,r3
        0x0001c51c:    b934        4.      CBNZ     r4,0x1c52c ; disk_write + 28
        0x0001c51e:    463a        :F      MOV      r2,r7
        0x0001c520:    4631        1F      MOV      r1,r6
        0x0001c522:    4628        (F      MOV      r0,r5
        0x0001c524:    f001fe2a    ..*.    BL       mmc_disk_write ; 0x1e17c
        0x0001c528:    e8bd81f0    ....    POP      {r4-r8,pc}
        0x0001c52c:    2004        .       MOVS     r0,#4
        0x0001c52e:    e7fb        ..      B        0x1c528 ; disk_write + 24
    i.divu64_10
    divu64_10
        0x0001c530:    e92d4ff0    -..O    PUSH     {r4-r11,lr}
        0x0001c534:    4604        .F      MOV      r4,r0
        0x0001c536:    460d        .F      MOV      r5,r1
        0x0001c538:    2000        .       MOVS     r0,#0
        0x0001c53a:    ea850100    ....    EOR      r1,r5,r0
        0x0001c53e:    4040        @@      EORS     r0,r0,r0
        0x0001c540:    4301        .C      ORRS     r1,r1,r0
        0x0001c542:    d044        D.      BEQ      0x1c5ce ; divu64_10 + 158
        0x0001c544:    ea5f0a55    _.U.    LSRS     r10,r5,#1
        0x0001c548:    ea4f0134    O.4.    RRX      r1,r4
        0x0001c54c:    ea4f0b94    O...    LSR      r11,r4,#2
        0x0001c550:    ea4b7085    K..p    ORR      r0,r11,r5,LSL #30
        0x0001c554:    180a        ..      ADDS     r2,r1,r0
        0x0001c556:    eb4a0395    J...    ADC      r3,r10,r5,LSR #2
        0x0001c55a:    ea4f1012    O...    LSR      r0,r2,#4
        0x0001c55e:    ea407a03    @..z    ORR      r10,r0,r3,LSL #28
        0x0001c562:    eb1a0202    ....    ADDS     r2,r10,r2
        0x0001c566:    eb431313    C...    ADC      r3,r3,r3,LSR #4
        0x0001c56a:    ea4f2012    O..     LSR      r0,r2,#8
        0x0001c56e:    ea406a03    @..j    ORR      r10,r0,r3,LSL #24
        0x0001c572:    eb1a0202    ....    ADDS     r2,r10,r2
        0x0001c576:    eb432313    C..#    ADC      r3,r3,r3,LSR #8
        0x0001c57a:    ea4f4012    O..@    LSR      r0,r2,#16
        0x0001c57e:    ea404a03    @..J    ORR      r10,r0,r3,LSL #16
        0x0001c582:    eb1a0202    ....    ADDS     r2,r10,r2
        0x0001c586:    eb434313    C..C    ADC      r3,r3,r3,LSR #16
        0x0001c58a:    189a        ..      ADDS     r2,r3,r2
        0x0001c58c:    f1430300    C...    ADC      r3,r3,#0
        0x0001c590:    08d0        ..      LSRS     r0,r2,#3
        0x0001c592:    ea407243    @.Cr    ORR      r2,r0,r3,LSL #29
        0x0001c596:    08db        ..      LSRS     r3,r3,#3
        0x0001c598:    210a        .!      MOVS     r1,#0xa
        0x0001c59a:    f04f0a00    O...    MOV      r10,#0
        0x0001c59e:    fba20b01    ....    UMULL    r0,r11,r2,r1
        0x0001c5a2:    fb03b101    ....    MLA      r1,r3,r1,r11
        0x0001c5a6:    fb02110a    ....    MLA      r1,r2,r10,r1
        0x0001c5aa:    1a26        &.      SUBS     r6,r4,r0
        0x0001c5ac:    eb650701    e...    SBC      r7,r5,r1
        0x0001c5b0:    2106        .!      MOVS     r1,#6
        0x0001c5b2:    eb160a01    ....    ADDS     r10,r6,r1
        0x0001c5b6:    f1470100    G...    ADC      r1,r7,#0
        0x0001c5ba:    ea4f101a    O...    LSR      r0,r10,#4
        0x0001c5be:    ea407a01    @..z    ORR      r10,r0,r1,LSL #28
        0x0001c5c2:    eb1a0002    ....    ADDS     r0,r10,r2
        0x0001c5c6:    eb431111    C...    ADC      r1,r3,r1,LSR #4
        0x0001c5ca:    e8bd8ff0    ....    POP      {r4-r11,pc}
        0x0001c5ce:    46a0        .F      MOV      r8,r4
        0x0001c5d0:    ea4f0058    O.X.    LSR      r0,r8,#1
        0x0001c5d4:    eb000c98    ....    ADD      r12,r0,r8,LSR #2
        0x0001c5d8:    eb0c1c1c    ....    ADD      r12,r12,r12,LSR #4
        0x0001c5dc:    eb0c2c1c    ...,    ADD      r12,r12,r12,LSR #8
        0x0001c5e0:    eb0c4c1c    ...L    ADD      r12,r12,r12,LSR #16
        0x0001c5e4:    ea4f0cdc    O...    LSR      r12,r12,#3
        0x0001c5e8:    eb0c008c    ....    ADD      r0,r12,r12,LSL #2
        0x0001c5ec:    eba80940    ..@.    SUB      r9,r8,r0,LSL #1
        0x0001c5f0:    f1090006    ....    ADD      r0,r9,#6
        0x0001c5f4:    eb0c1010    ....    ADD      r0,r12,r0,LSR #4
        0x0001c5f8:    2100        .!      MOVS     r1,#0
        0x0001c5fa:    e7e6        ..      B        0x1c5ca ; divu64_10 + 154
    i.f_close
    f_close
        0x0001c5fc:    b538        8.      PUSH     {r3-r5,lr}
        0x0001c5fe:    4605        .F      MOV      r5,r0
        0x0001c600:    4628        (F      MOV      r0,r5
        0x0001c602:    f000fd5b    ..[.    BL       f_sync ; 0x1d0bc
        0x0001c606:    4604        .F      MOV      r4,r0
        0x0001c608:    b93c        <.      CBNZ     r4,0x1c61a ; f_close + 30
        0x0001c60a:    4669        iF      MOV      r1,sp
        0x0001c60c:    4628        (F      MOV      r0,r5
        0x0001c60e:    f002fad5    ....    BL       validate ; 0x1ebbc
        0x0001c612:    4604        .F      MOV      r4,r0
        0x0001c614:    b90c        ..      CBNZ     r4,0x1c61a ; f_close + 30
        0x0001c616:    2000        .       MOVS     r0,#0
        0x0001c618:    6028        (`      STR      r0,[r5,#0]
        0x0001c61a:    4620         F      MOV      r0,r4
        0x0001c61c:    bd38        8.      POP      {r3-r5,pc}
        0x0001c61e:    0000        ..      MOVS     r0,r0
    i.f_mkfs
    f_mkfs
        0x0001c620:    e92d4fff    -..O    PUSH     {r0-r11,lr}
        0x0001c624:    b097        ..      SUB      sp,sp,#0x5c
        0x0001c626:    460e        .F      MOV      r6,r1
        0x0001c628:    a817        ..      ADD      r0,sp,#0x5c
        0x0001c62a:    f001f951    ..Q.    BL       get_ldnumber ; 0x1d8d0
        0x0001c62e:    9002        ..      STR      r0,[sp,#8]
        0x0001c630:    9802        ..      LDR      r0,[sp,#8]
        0x0001c632:    2800        .(      CMP      r0,#0
        0x0001c634:    da03        ..      BGE      0x1c63e ; f_mkfs + 30
        0x0001c636:    200b        .       MOVS     r0,#0xb
        0x0001c638:    b01b        ..      ADD      sp,sp,#0x6c
        0x0001c63a:    e8bd8ff0    ....    POP      {r4-r11,pc}
        0x0001c63e:    49fe        .I      LDR      r1,[pc,#1016] ; [0x1ca38] = 0x10000000
        0x0001c640:    9802        ..      LDR      r0,[sp,#8]
        0x0001c642:    f8510020    Q. .    LDR      r0,[r1,r0,LSL #2]
        0x0001c646:    b128        (.      CBZ      r0,0x1c654 ; f_mkfs + 52
        0x0001c648:    2100        .!      MOVS     r1,#0
        0x0001c64a:    4afb        .J      LDR      r2,[pc,#1004] ; [0x1ca38] = 0x10000000
        0x0001c64c:    9802        ..      LDR      r0,[sp,#8]
        0x0001c64e:    f8520020    R. .    LDR      r0,[r2,r0,LSL #2]
        0x0001c652:    7001        .p      STRB     r1,[r0,#0]
        0x0001c654:    9802        ..      LDR      r0,[sp,#8]
        0x0001c656:    b2c0        ..      UXTB     r0,r0
        0x0001c658:    9014        ..      STR      r0,[sp,#0x50]
        0x0001c65a:    2000        .       MOVS     r0,#0
        0x0001c65c:    9013        ..      STR      r0,[sp,#0x4c]
        0x0001c65e:    b906        ..      CBNZ     r6,0x1c662 ; f_mkfs + 66
        0x0001c660:    4ef6        .N      LDR      r6,[pc,#984] ; [0x1ca3c] = 0x1edb8
        0x0001c662:    9814        ..      LDR      r0,[sp,#0x50]
        0x0001c664:    f7ffff28    ..(.    BL       disk_initialize ; 0x1c4b8
        0x0001c668:    9001        ..      STR      r0,[sp,#4]
        0x0001c66a:    9801        ..      LDR      r0,[sp,#4]
        0x0001c66c:    f0000001    ....    AND      r0,r0,#1
        0x0001c670:    b108        ..      CBZ      r0,0x1c676 ; f_mkfs + 86
        0x0001c672:    2003        .       MOVS     r0,#3
        0x0001c674:    e7e0        ..      B        0x1c638 ; f_mkfs + 24
        0x0001c676:    9801        ..      LDR      r0,[sp,#4]
        0x0001c678:    f0000004    ....    AND      r0,r0,#4
        0x0001c67c:    b108        ..      CBZ      r0,0x1c682 ; f_mkfs + 98
        0x0001c67e:    200a        .       MOVS     r0,#0xa
        0x0001c680:    e7da        ..      B        0x1c638 ; f_mkfs + 24
        0x0001c682:    6870        ph      LDR      r0,[r6,#4]
        0x0001c684:    9011        ..      STR      r0,[sp,#0x44]
        0x0001c686:    9811        ..      LDR      r0,[sp,#0x44]
        0x0001c688:    b938        8.      CBNZ     r0,0x1c69a ; f_mkfs + 122
        0x0001c68a:    aa11        ..      ADD      r2,sp,#0x44
        0x0001c68c:    2103        .!      MOVS     r1,#3
        0x0001c68e:    9814        ..      LDR      r0,[sp,#0x50]
        0x0001c690:    f7ffff1a    ....    BL       disk_ioctl ; 0x1c4c8
        0x0001c694:    b108        ..      CBZ      r0,0x1c69a ; f_mkfs + 122
        0x0001c696:    2001        .       MOVS     r0,#1
        0x0001c698:    9011        ..      STR      r0,[sp,#0x44]
        0x0001c69a:    9811        ..      LDR      r0,[sp,#0x44]
        0x0001c69c:    b140        @.      CBZ      r0,0x1c6b0 ; f_mkfs + 144
        0x0001c69e:    9811        ..      LDR      r0,[sp,#0x44]
        0x0001c6a0:    f5b04f00    ...O    CMP      r0,#0x8000
        0x0001c6a4:    d804        ..      BHI      0x1c6b0 ; f_mkfs + 144
        0x0001c6a6:    9811        ..      LDR      r0,[sp,#0x44]
        0x0001c6a8:    1e40        @.      SUBS     r0,r0,#1
        0x0001c6aa:    9911        ..      LDR      r1,[sp,#0x44]
        0x0001c6ac:    4008        .@      ANDS     r0,r0,r1
        0x0001c6ae:    b108        ..      CBZ      r0,0x1c6b4 ; f_mkfs + 148
        0x0001c6b0:    2001        .       MOVS     r0,#1
        0x0001c6b2:    9011        ..      STR      r0,[sp,#0x44]
        0x0001c6b4:    f44f7800    O..x    MOV      r8,#0x200
        0x0001c6b8:    7830        0x      LDRB     r0,[r6,#0]
        0x0001c6ba:    f000000f    ....    AND      r0,r0,#0xf
        0x0001c6be:    9016        ..      STR      r0,[sp,#0x58]
        0x0001c6c0:    7870        px      LDRB     r0,[r6,#1]
        0x0001c6c2:    2801        .(      CMP      r0,#1
        0x0001c6c4:    db04        ..      BLT      0x1c6d0 ; f_mkfs + 176
        0x0001c6c6:    7870        px      LDRB     r0,[r6,#1]
        0x0001c6c8:    2802        .(      CMP      r0,#2
        0x0001c6ca:    dc01        ..      BGT      0x1c6d0 ; f_mkfs + 176
        0x0001c6cc:    7870        px      LDRB     r0,[r6,#1]
        0x0001c6ce:    e000        ..      B        0x1c6d2 ; f_mkfs + 178
        0x0001c6d0:    2001        .       MOVS     r0,#1
        0x0001c6d2:    9005        ..      STR      r0,[sp,#0x14]
        0x0001c6d4:    68b1        .h      LDR      r1,[r6,#8]
        0x0001c6d6:    b189        ..      CBZ      r1,0x1c6fc ; f_mkfs + 220
        0x0001c6d8:    68b1        .h      LDR      r1,[r6,#8]
        0x0001c6da:    f5b14f00    ...O    CMP      r1,#0x8000
        0x0001c6de:    d80d        ..      BHI      0x1c6fc ; f_mkfs + 220
        0x0001c6e0:    4640        @F      MOV      r0,r8
        0x0001c6e2:    ea4f71e8    O..q    ASR      r1,r8,#31
        0x0001c6e6:    eb0861d1    ...a    ADD      r1,r8,r1,LSR #27
        0x0001c6ea:    1149        I.      ASRS     r1,r1,#5
        0x0001c6ec:    68b2        .h      LDR      r2,[r6,#8]
        0x0001c6ee:    fbb2f3f1    ....    UDIV     r3,r2,r1
        0x0001c6f2:    fb012113    ...!    MLS      r1,r1,r3,r2
        0x0001c6f6:    b909        ..      CBNZ     r1,0x1c6fc ; f_mkfs + 220
        0x0001c6f8:    68b1        .h      LDR      r1,[r6,#8]
        0x0001c6fa:    e001        ..      B        0x1c700 ; f_mkfs + 224
        0x0001c6fc:    f44f7100    O..q    MOV      r1,#0x200
        0x0001c700:    9104        ..      STR      r1,[sp,#0x10]
        0x0001c702:    68f0        .h      LDR      r0,[r6,#0xc]
        0x0001c704:    f1b07f80    ....    CMP      r0,#0x1000000
        0x0001c708:    d805        ..      BHI      0x1c716 ; f_mkfs + 246
        0x0001c70a:    68f0        .h      LDR      r0,[r6,#0xc]
        0x0001c70c:    1e41        A.      SUBS     r1,r0,#1
        0x0001c70e:    4008        .@      ANDS     r0,r0,r1
        0x0001c710:    b908        ..      CBNZ     r0,0x1c716 ; f_mkfs + 246
        0x0001c712:    68f0        .h      LDR      r0,[r6,#0xc]
        0x0001c714:    e000        ..      B        0x1c718 ; f_mkfs + 248
        0x0001c716:    2000        .       MOVS     r0,#0
        0x0001c718:    9006        ..      STR      r0,[sp,#0x18]
        0x0001c71a:    9806        ..      LDR      r0,[sp,#0x18]
        0x0001c71c:    fbb0f0f8    ....    UDIV     r0,r0,r8
        0x0001c720:    9006        ..      STR      r0,[sp,#0x18]
        0x0001c722:    981a        ..      LDR      r0,[sp,#0x68]
        0x0001c724:    fbb0f0f8    ....    UDIV     r0,r0,r8
        0x0001c728:    9012        ..      STR      r0,[sp,#0x48]
        0x0001c72a:    9812        ..      LDR      r0,[sp,#0x48]
        0x0001c72c:    b908        ..      CBNZ     r0,0x1c732 ; f_mkfs + 274
        0x0001c72e:    2011        .       MOVS     r0,#0x11
        0x0001c730:    e782        ..      B        0x1c638 ; f_mkfs + 24
        0x0001c732:    9c19        ..      LDR      r4,[sp,#0x64]
        0x0001c734:    b90c        ..      CBNZ     r4,0x1c73a ; f_mkfs + 282
        0x0001c736:    2011        .       MOVS     r0,#0x11
        0x0001c738:    e77e        ~.      B        0x1c638 ; f_mkfs + 24
        0x0001c73a:    f04f0b00    O...    MOV      r11,#0
        0x0001c73e:    f8cdb03c    ..<.    STR      r11,[sp,#0x3c]
        0x0001c742:    bf00        ..      NOP      
        0x0001c744:    aa0f        ..      ADD      r2,sp,#0x3c
        0x0001c746:    2101        .!      MOVS     r1,#1
        0x0001c748:    9814        ..      LDR      r0,[sp,#0x50]
        0x0001c74a:    f7fffebd    ....    BL       disk_ioctl ; 0x1c4c8
        0x0001c74e:    b108        ..      CBZ      r0,0x1c754 ; f_mkfs + 308
        0x0001c750:    2001        .       MOVS     r0,#1
        0x0001c752:    e771        q.      B        0x1c638 ; f_mkfs + 24
        0x0001c754:    9816        ..      LDR      r0,[sp,#0x58]
        0x0001c756:    f0000008    ....    AND      r0,r0,#8
        0x0001c75a:    b940        @.      CBNZ     r0,0x1c76e ; f_mkfs + 334
        0x0001c75c:    980f        ..      LDR      r0,[sp,#0x3c]
        0x0001c75e:    283f        ?(      CMP      r0,#0x3f
        0x0001c760:    d905        ..      BLS      0x1c76e ; f_mkfs + 334
        0x0001c762:    f04f0b3f    O.?.    MOV      r11,#0x3f
        0x0001c766:    980f        ..      LDR      r0,[sp,#0x3c]
        0x0001c768:    eba0000b    ....    SUB      r0,r0,r11
        0x0001c76c:    900f        ..      STR      r0,[sp,#0x3c]
        0x0001c76e:    980f        ..      LDR      r0,[sp,#0x3c]
        0x0001c770:    2880        .(      CMP      r0,#0x80
        0x0001c772:    d201        ..      BCS      0x1c778 ; f_mkfs + 344
        0x0001c774:    200e        .       MOVS     r0,#0xe
        0x0001c776:    e75f        _.      B        0x1c638 ; f_mkfs + 24
        0x0001c778:    bf00        ..      NOP      
        0x0001c77a:    bf00        ..      NOP      
        0x0001c77c:    9806        ..      LDR      r0,[sp,#0x18]
        0x0001c77e:    2880        .(      CMP      r0,#0x80
        0x0001c780:    d901        ..      BLS      0x1c786 ; f_mkfs + 358
        0x0001c782:    2080        .       MOVS     r0,#0x80
        0x0001c784:    9006        ..      STR      r0,[sp,#0x18]
        0x0001c786:    9816        ..      LDR      r0,[sp,#0x58]
        0x0001c788:    f0000002    ....    AND      r0,r0,#2
        0x0001c78c:    b128        (.      CBZ      r0,0x1c79a ; f_mkfs + 378
        0x0001c78e:    9816        ..      LDR      r0,[sp,#0x58]
        0x0001c790:    f0000001    ....    AND      r0,r0,#1
        0x0001c794:    b908        ..      CBNZ     r0,0x1c79a ; f_mkfs + 378
        0x0001c796:    2703        .'      MOVS     r7,#3
        0x0001c798:    e007        ..      B        0x1c7aa ; f_mkfs + 394
        0x0001c79a:    9816        ..      LDR      r0,[sp,#0x58]
        0x0001c79c:    f0000001    ....    AND      r0,r0,#1
        0x0001c7a0:    b908        ..      CBNZ     r0,0x1c7a6 ; f_mkfs + 390
        0x0001c7a2:    2013        .       MOVS     r0,#0x13
        0x0001c7a4:    e748        H.      B        0x1c638 ; f_mkfs + 24
        0x0001c7a6:    2702        .'      MOVS     r7,#2
        0x0001c7a8:    bf00        ..      NOP      
        0x0001c7aa:    bf00        ..      NOP      
        0x0001c7ac:    bf00        ..      NOP      
        0x0001c7ae:    9d06        ..      LDR      r5,[sp,#0x18]
        0x0001c7b0:    2f03        ./      CMP      r7,#3
        0x0001c7b2:    d12d        -.      BNE      0x1c810 ; f_mkfs + 496
        0x0001c7b4:    b9a5        ..      CBNZ     r5,0x1c7e0 ; f_mkfs + 448
        0x0001c7b6:    980f        ..      LDR      r0,[sp,#0x3c]
        0x0001c7b8:    ea4f4a50    O.PJ    LSR      r10,r0,#17
        0x0001c7bc:    2000        .       MOVS     r0,#0
        0x0001c7be:    9003        ..      STR      r0,[sp,#0xc]
        0x0001c7c0:    2501        .%      MOVS     r5,#1
        0x0001c7c2:    e003        ..      B        0x1c7cc ; f_mkfs + 428
        0x0001c7c4:    9803        ..      LDR      r0,[sp,#0xc]
        0x0001c7c6:    1c40        @.      ADDS     r0,r0,#1
        0x0001c7c8:    9003        ..      STR      r0,[sp,#0xc]
        0x0001c7ca:    006d        m.      LSLS     r5,r5,#1
        0x0001c7cc:    499c        .I      LDR      r1,[pc,#624] ; [0x1ca40] = 0x1eda8
        0x0001c7ce:    9803        ..      LDR      r0,[sp,#0xc]
        0x0001c7d0:    f8310010    1...    LDRH     r0,[r1,r0,LSL #1]
        0x0001c7d4:    b120         .      CBZ      r0,0x1c7e0 ; f_mkfs + 448
        0x0001c7d6:    9803        ..      LDR      r0,[sp,#0xc]
        0x0001c7d8:    f8310010    1...    LDRH     r0,[r1,r0,LSL #1]
        0x0001c7dc:    4550        PE      CMP      r0,r10
        0x0001c7de:    d9f1        ..      BLS      0x1c7c4 ; f_mkfs + 420
        0x0001c7e0:    980f        ..      LDR      r0,[sp,#0x3c]
        0x0001c7e2:    fbb0f9f5    ....    UDIV     r9,r0,r5
        0x0001c7e6:    2008        .       MOVS     r0,#8
        0x0001c7e8:    eb000089    ....    ADD      r0,r0,r9,LSL #2
        0x0001c7ec:    4440        @D      ADD      r0,r0,r8
        0x0001c7ee:    1e40        @.      SUBS     r0,r0,#1
        0x0001c7f0:    fbb0f0f8    ....    UDIV     r0,r0,r8
        0x0001c7f4:    9008        ..      STR      r0,[sp,#0x20]
        0x0001c7f6:    2020                MOVS     r0,#0x20
        0x0001c7f8:    9009        ..      STR      r0,[sp,#0x24]
        0x0001c7fa:    2000        .       MOVS     r0,#0
        0x0001c7fc:    9007        ..      STR      r0,[sp,#0x1c]
        0x0001c7fe:    f64f70f5    O..p    MOV      r0,#0xfff5
        0x0001c802:    4581        .E      CMP      r9,r0
        0x0001c804:    d902        ..      BLS      0x1c80c ; f_mkfs + 492
        0x0001c806:    488f        .H      LDR      r0,[pc,#572] ; [0x1ca44] = 0xffffff5
        0x0001c808:    4581        .E      CMP      r9,r0
        0x0001c80a:    d936        6.      BLS      0x1c87a ; f_mkfs + 602
        0x0001c80c:    200e        .       MOVS     r0,#0xe
        0x0001c80e:    e713        ..      B        0x1c638 ; f_mkfs + 24
        0x0001c810:    b9a5        ..      CBNZ     r5,0x1c83c ; f_mkfs + 540
        0x0001c812:    980f        ..      LDR      r0,[sp,#0x3c]
        0x0001c814:    ea4f3a10    O..:    LSR      r10,r0,#12
        0x0001c818:    2000        .       MOVS     r0,#0
        0x0001c81a:    9003        ..      STR      r0,[sp,#0xc]
        0x0001c81c:    2501        .%      MOVS     r5,#1
        0x0001c81e:    e003        ..      B        0x1c828 ; f_mkfs + 520
        0x0001c820:    9803        ..      LDR      r0,[sp,#0xc]
        0x0001c822:    1c40        @.      ADDS     r0,r0,#1
        0x0001c824:    9003        ..      STR      r0,[sp,#0xc]
        0x0001c826:    006d        m.      LSLS     r5,r5,#1
        0x0001c828:    4987        .I      LDR      r1,[pc,#540] ; [0x1ca48] = 0x1ed9a
        0x0001c82a:    9803        ..      LDR      r0,[sp,#0xc]
        0x0001c82c:    f8310010    1...    LDRH     r0,[r1,r0,LSL #1]
        0x0001c830:    b120         .      CBZ      r0,0x1c83c ; f_mkfs + 540
        0x0001c832:    9803        ..      LDR      r0,[sp,#0xc]
        0x0001c834:    f8310010    1...    LDRH     r0,[r1,r0,LSL #1]
        0x0001c838:    4550        PE      CMP      r0,r10
        0x0001c83a:    d9f1        ..      BLS      0x1c820 ; f_mkfs + 512
        0x0001c83c:    980f        ..      LDR      r0,[sp,#0x3c]
        0x0001c83e:    fbb0f9f5    ....    UDIV     r9,r0,r5
        0x0001c842:    f64070f5    @..p    MOV      r0,#0xff5
        0x0001c846:    4581        .E      CMP      r9,r0
        0x0001c848:    d903        ..      BLS      0x1c852 ; f_mkfs + 562
        0x0001c84a:    2004        .       MOVS     r0,#4
        0x0001c84c:    eb000a49    ..I.    ADD      r10,r0,r9,LSL #1
        0x0001c850:    e006        ..      B        0x1c860 ; f_mkfs + 576
        0x0001c852:    2701        .'      MOVS     r7,#1
        0x0001c854:    eb090049    ..I.    ADD      r0,r9,r9,LSL #1
        0x0001c858:    1c40        @.      ADDS     r0,r0,#1
        0x0001c85a:    2103        .!      MOVS     r1,#3
        0x0001c85c:    eb010a50    ..P.    ADD      r10,r1,r0,LSR #1
        0x0001c860:    eb0a0008    ....    ADD      r0,r10,r8
        0x0001c864:    1e40        @.      SUBS     r0,r0,#1
        0x0001c866:    fbb0f0f8    ....    UDIV     r0,r0,r8
        0x0001c86a:    9008        ..      STR      r0,[sp,#0x20]
        0x0001c86c:    2001        .       MOVS     r0,#1
        0x0001c86e:    9009        ..      STR      r0,[sp,#0x24]
        0x0001c870:    9804        ..      LDR      r0,[sp,#0x10]
        0x0001c872:    0140        @.      LSLS     r0,r0,#5
        0x0001c874:    fbb0f0f8    ....    UDIV     r0,r0,r8
        0x0001c878:    9007        ..      STR      r0,[sp,#0x1c]
        0x0001c87a:    9809        ..      LDR      r0,[sp,#0x24]
        0x0001c87c:    4458        XD      ADD      r0,r0,r11
        0x0001c87e:    900e        ..      STR      r0,[sp,#0x38]
        0x0001c880:    9a05        ..      LDR      r2,[sp,#0x14]
        0x0001c882:    9908        ..      LDR      r1,[sp,#0x20]
        0x0001c884:    980e        ..      LDR      r0,[sp,#0x38]
        0x0001c886:    fb010102    ....    MLA      r1,r1,r2,r0
        0x0001c88a:    9807        ..      LDR      r0,[sp,#0x1c]
        0x0001c88c:    4408        .D      ADD      r0,r0,r1
        0x0001c88e:    900d        ..      STR      r0,[sp,#0x34]
        0x0001c890:    9911        ..      LDR      r1,[sp,#0x44]
        0x0001c892:    980d        ..      LDR      r0,[sp,#0x34]
        0x0001c894:    4408        .D      ADD      r0,r0,r1
        0x0001c896:    1e40        @.      SUBS     r0,r0,#1
        0x0001c898:    1e49        I.      SUBS     r1,r1,#1
        0x0001c89a:    ea200101     ...    BIC      r1,r0,r1
        0x0001c89e:    980d        ..      LDR      r0,[sp,#0x34]
        0x0001c8a0:    eba10a00    ....    SUB      r10,r1,r0
        0x0001c8a4:    2f03        ./      CMP      r7,#3
        0x0001c8a6:    d106        ..      BNE      0x1c8b6 ; f_mkfs + 662
        0x0001c8a8:    9809        ..      LDR      r0,[sp,#0x24]
        0x0001c8aa:    4450        PD      ADD      r0,r0,r10
        0x0001c8ac:    9009        ..      STR      r0,[sp,#0x24]
        0x0001c8ae:    980e        ..      LDR      r0,[sp,#0x38]
        0x0001c8b0:    4450        PD      ADD      r0,r0,r10
        0x0001c8b2:    900e        ..      STR      r0,[sp,#0x38]
        0x0001c8b4:    e013        ..      B        0x1c8de ; f_mkfs + 702
        0x0001c8b6:    9805        ..      LDR      r0,[sp,#0x14]
        0x0001c8b8:    fbbaf1f0    ....    UDIV     r1,r10,r0
        0x0001c8bc:    fb00a011    ....    MLS      r0,r0,r1,r10
        0x0001c8c0:    b138        8.      CBZ      r0,0x1c8d2 ; f_mkfs + 690
        0x0001c8c2:    f1aa0a01    ....    SUB      r10,r10,#1
        0x0001c8c6:    9809        ..      LDR      r0,[sp,#0x24]
        0x0001c8c8:    1c40        @.      ADDS     r0,r0,#1
        0x0001c8ca:    9009        ..      STR      r0,[sp,#0x24]
        0x0001c8cc:    980e        ..      LDR      r0,[sp,#0x38]
        0x0001c8ce:    1c40        @.      ADDS     r0,r0,#1
        0x0001c8d0:    900e        ..      STR      r0,[sp,#0x38]
        0x0001c8d2:    9805        ..      LDR      r0,[sp,#0x14]
        0x0001c8d4:    fbbaf1f0    ....    UDIV     r1,r10,r0
        0x0001c8d8:    9808        ..      LDR      r0,[sp,#0x20]
        0x0001c8da:    4408        .D      ADD      r0,r0,r1
        0x0001c8dc:    9008        ..      STR      r0,[sp,#0x20]
        0x0001c8de:    980d        ..      LDR      r0,[sp,#0x34]
        0x0001c8e0:    eb001005    ....    ADD      r0,r0,r5,LSL #4
        0x0001c8e4:    eba0000b    ....    SUB      r0,r0,r11
        0x0001c8e8:    990f        ..      LDR      r1,[sp,#0x3c]
        0x0001c8ea:    4288        .B      CMP      r0,r1
        0x0001c8ec:    d901        ..      BLS      0x1c8f2 ; f_mkfs + 722
        0x0001c8ee:    200e        .       MOVS     r0,#0xe
        0x0001c8f0:    e6a2        ..      B        0x1c638 ; f_mkfs + 24
        0x0001c8f2:    990f        ..      LDR      r1,[sp,#0x3c]
        0x0001c8f4:    9809        ..      LDR      r0,[sp,#0x24]
        0x0001c8f6:    1a0a        ..      SUBS     r2,r1,r0
        0x0001c8f8:    9905        ..      LDR      r1,[sp,#0x14]
        0x0001c8fa:    9808        ..      LDR      r0,[sp,#0x20]
        0x0001c8fc:    fb002111    ...!    MLS      r1,r0,r1,r2
        0x0001c900:    9807        ..      LDR      r0,[sp,#0x1c]
        0x0001c902:    1a08        ..      SUBS     r0,r1,r0
        0x0001c904:    fbb0f9f5    ....    UDIV     r9,r0,r5
        0x0001c908:    2f03        ./      CMP      r7,#3
        0x0001c90a:    d10b        ..      BNE      0x1c924 ; f_mkfs + 772
        0x0001c90c:    f64f70f5    O..p    MOV      r0,#0xfff5
        0x0001c910:    4581        .E      CMP      r9,r0
        0x0001c912:    d807        ..      BHI      0x1c924 ; f_mkfs + 772
        0x0001c914:    9806        ..      LDR      r0,[sp,#0x18]
        0x0001c916:    b918        ..      CBNZ     r0,0x1c920 ; f_mkfs + 768
        0x0001c918:    0868        h.      LSRS     r0,r5,#1
        0x0001c91a:    9006        ..      STR      r0,[sp,#0x18]
        0x0001c91c:    b100        ..      CBZ      r0,0x1c920 ; f_mkfs + 768
        0x0001c91e:    e035        5.      B        0x1c98c ; f_mkfs + 876
        0x0001c920:    200e        .       MOVS     r0,#0xe
        0x0001c922:    e689        ..      B        0x1c638 ; f_mkfs + 24
        0x0001c924:    2f02        ./      CMP      r7,#2
        0x0001c926:    d128        (.      BNE      0x1c97a ; f_mkfs + 858
        0x0001c928:    f64f70f5    O..p    MOV      r0,#0xfff5
        0x0001c92c:    4581        .E      CMP      r9,r0
        0x0001c92e:    d917        ..      BLS      0x1c960 ; f_mkfs + 832
        0x0001c930:    9806        ..      LDR      r0,[sp,#0x18]
        0x0001c932:    b930        0.      CBNZ     r0,0x1c942 ; f_mkfs + 802
        0x0001c934:    2040        @       MOVS     r0,#0x40
        0x0001c936:    ebb00f45    ..E.    CMP      r0,r5,LSL #1
        0x0001c93a:    d302        ..      BCC      0x1c942 ; f_mkfs + 802
        0x0001c93c:    0068        h.      LSLS     r0,r5,#1
        0x0001c93e:    9006        ..      STR      r0,[sp,#0x18]
        0x0001c940:    e024        $.      B        0x1c98c ; f_mkfs + 876
        0x0001c942:    9816        ..      LDR      r0,[sp,#0x58]
        0x0001c944:    f0000002    ....    AND      r0,r0,#2
        0x0001c948:    b108        ..      CBZ      r0,0x1c94e ; f_mkfs + 814
        0x0001c94a:    2703        .'      MOVS     r7,#3
        0x0001c94c:    e01e        ..      B        0x1c98c ; f_mkfs + 876
        0x0001c94e:    9806        ..      LDR      r0,[sp,#0x18]
        0x0001c950:    b920         .      CBNZ     r0,0x1c95c ; f_mkfs + 828
        0x0001c952:    0068        h.      LSLS     r0,r5,#1
        0x0001c954:    9006        ..      STR      r0,[sp,#0x18]
        0x0001c956:    2880        .(      CMP      r0,#0x80
        0x0001c958:    d800        ..      BHI      0x1c95c ; f_mkfs + 828
        0x0001c95a:    e017        ..      B        0x1c98c ; f_mkfs + 876
        0x0001c95c:    200e        .       MOVS     r0,#0xe
        0x0001c95e:    e66b        k.      B        0x1c638 ; f_mkfs + 24
        0x0001c960:    f64070f5    @..p    MOV      r0,#0xff5
        0x0001c964:    4581        .E      CMP      r9,r0
        0x0001c966:    d808        ..      BHI      0x1c97a ; f_mkfs + 858
        0x0001c968:    9806        ..      LDR      r0,[sp,#0x18]
        0x0001c96a:    b920         .      CBNZ     r0,0x1c976 ; f_mkfs + 854
        0x0001c96c:    0068        h.      LSLS     r0,r5,#1
        0x0001c96e:    9006        ..      STR      r0,[sp,#0x18]
        0x0001c970:    2880        .(      CMP      r0,#0x80
        0x0001c972:    d800        ..      BHI      0x1c976 ; f_mkfs + 854
        0x0001c974:    e00a        ..      B        0x1c98c ; f_mkfs + 876
        0x0001c976:    200e        .       MOVS     r0,#0xe
        0x0001c978:    e65e        ^.      B        0x1c638 ; f_mkfs + 24
        0x0001c97a:    2f01        ./      CMP      r7,#1
        0x0001c97c:    d105        ..      BNE      0x1c98a ; f_mkfs + 874
        0x0001c97e:    f64070f5    @..p    MOV      r0,#0xff5
        0x0001c982:    4581        .E      CMP      r9,r0
        0x0001c984:    d901        ..      BLS      0x1c98a ; f_mkfs + 874
        0x0001c986:    200e        .       MOVS     r0,#0xe
        0x0001c988:    e656        V.      B        0x1c638 ; f_mkfs + 24
        0x0001c98a:    e000        ..      B        0x1c98e ; f_mkfs + 878
        0x0001c98c:    e70f        ..      B        0x1c7ae ; f_mkfs + 398
        0x0001c98e:    bf00        ..      NOP      
        0x0001c990:    4642        BF      MOV      r2,r8
        0x0001c992:    2100        .!      MOVS     r1,#0
        0x0001c994:    4620         F      MOV      r0,r4
        0x0001c996:    f001f98a    ....    BL       mem_set ; 0x1dcae
        0x0001c99a:    220b        ."      MOVS     r2,#0xb
        0x0001c99c:    a12b        +.      ADR      r1,{pc}+0xb0 ; 0x1ca4c
        0x0001c99e:    4620         F      MOV      r0,r4
        0x0001c9a0:    f001f978    ..x.    BL       mem_cpy ; 0x1dc94
        0x0001c9a4:    4641        AF      MOV      r1,r8
        0x0001c9a6:    f104000b    ....    ADD      r0,r4,#0xb
        0x0001c9aa:    f001ffe0    ....    BL       st_word ; 0x1e96e
        0x0001c9ae:    7365        es      STRB     r5,[r4,#0xd]
        0x0001c9b0:    9809        ..      LDR      r0,[sp,#0x24]
        0x0001c9b2:    b281        ..      UXTH     r1,r0
        0x0001c9b4:    f104000e    ....    ADD      r0,r4,#0xe
        0x0001c9b8:    f001ffd9    ....    BL       st_word ; 0x1e96e
        0x0001c9bc:    9805        ..      LDR      r0,[sp,#0x14]
        0x0001c9be:    7420         t      STRB     r0,[r4,#0x10]
        0x0001c9c0:    2f03        ./      CMP      r7,#3
        0x0001c9c2:    d101        ..      BNE      0x1c9c8 ; f_mkfs + 936
        0x0001c9c4:    2000        .       MOVS     r0,#0
        0x0001c9c6:    e000        ..      B        0x1c9ca ; f_mkfs + 938
        0x0001c9c8:    9804        ..      LDR      r0,[sp,#0x10]
        0x0001c9ca:    b281        ..      UXTH     r1,r0
        0x0001c9cc:    f1040011    ....    ADD      r0,r4,#0x11
        0x0001c9d0:    f001ffcd    ....    BL       st_word ; 0x1e96e
        0x0001c9d4:    980f        ..      LDR      r0,[sp,#0x3c]
        0x0001c9d6:    f5b03f80    ...?    CMP      r0,#0x10000
        0x0001c9da:    d206        ..      BCS      0x1c9ea ; f_mkfs + 970
        0x0001c9dc:    980f        ..      LDR      r0,[sp,#0x3c]
        0x0001c9de:    b281        ..      UXTH     r1,r0
        0x0001c9e0:    f1040013    ....    ADD      r0,r4,#0x13
        0x0001c9e4:    f001ffc3    ....    BL       st_word ; 0x1e96e
        0x0001c9e8:    e004        ..      B        0x1c9f4 ; f_mkfs + 980
        0x0001c9ea:    f1040020    .. .    ADD      r0,r4,#0x20
        0x0001c9ee:    990f        ..      LDR      r1,[sp,#0x3c]
        0x0001c9f0:    f001ffb1    ....    BL       st_dword ; 0x1e956
        0x0001c9f4:    20f8        .       MOVS     r0,#0xf8
        0x0001c9f6:    7560        `u      STRB     r0,[r4,#0x15]
        0x0001c9f8:    213f        ?!      MOVS     r1,#0x3f
        0x0001c9fa:    f1040018    ....    ADD      r0,r4,#0x18
        0x0001c9fe:    f001ffb6    ....    BL       st_word ; 0x1e96e
        0x0001ca02:    21ff        .!      MOVS     r1,#0xff
        0x0001ca04:    f104001a    ....    ADD      r0,r4,#0x1a
        0x0001ca08:    f001ffb1    ....    BL       st_word ; 0x1e96e
        0x0001ca0c:    4659        YF      MOV      r1,r11
        0x0001ca0e:    f104001c    ....    ADD      r0,r4,#0x1c
        0x0001ca12:    f001ffa0    ....    BL       st_dword ; 0x1e956
        0x0001ca16:    2f03        ./      CMP      r7,#3
        0x0001ca18:    d139        9.      BNE      0x1ca8e ; f_mkfs + 1134
        0x0001ca1a:    490f        .I      LDR      r1,[pc,#60] ; [0x1ca58] = 0x51210000
        0x0001ca1c:    f1040043    ..C.    ADD      r0,r4,#0x43
        0x0001ca20:    f001ff99    ....    BL       st_dword ; 0x1e956
        0x0001ca24:    f1040024    ..$.    ADD      r0,r4,#0x24
        0x0001ca28:    9908        ..      LDR      r1,[sp,#0x20]
        0x0001ca2a:    f001ff94    ....    BL       st_dword ; 0x1e956
        0x0001ca2e:    2102        .!      MOVS     r1,#2
        0x0001ca30:    f104002c    ..,.    ADD      r0,r4,#0x2c
        0x0001ca34:    e012        ..      B        0x1ca5c ; f_mkfs + 1084
    $d
        0x0001ca36:    0000        ..      DCW    0
        0x0001ca38:    10000000    ....    DCD    268435456
        0x0001ca3c:    0001edb8    ....    DCD    126392
        0x0001ca40:    0001eda8    ....    DCD    126376
        0x0001ca44:    0ffffff5    ....    DCD    268435445
        0x0001ca48:    0001ed9a    ....    DCD    126362
        0x0001ca4c:    4d90feeb    ...M    DCD    1301348075
        0x0001ca50:    534f4453    SDOS    DCD    1397703763
        0x0001ca54:    00302e35    5.0.    DCD    3157557
        0x0001ca58:    51210000    ..!Q    DCD    1361117184
    $t
        0x0001ca5c:    f001ff7b    ..{.    BL       st_dword ; 0x1e956
        0x0001ca60:    2101        .!      MOVS     r1,#1
        0x0001ca62:    f1040030    ..0.    ADD      r0,r4,#0x30
        0x0001ca66:    f001ff82    ....    BL       st_word ; 0x1e96e
        0x0001ca6a:    2106        .!      MOVS     r1,#6
        0x0001ca6c:    f1040032    ..2.    ADD      r0,r4,#0x32
        0x0001ca70:    f001ff7d    ..}.    BL       st_word ; 0x1e96e
        0x0001ca74:    2080        .       MOVS     r0,#0x80
        0x0001ca76:    f8840040    ..@.    STRB     r0,[r4,#0x40]
        0x0001ca7a:    2029        )       MOVS     r0,#0x29
        0x0001ca7c:    f8840042    ..B.    STRB     r0,[r4,#0x42]
        0x0001ca80:    2213        ."      MOVS     r2,#0x13
        0x0001ca82:    a183        ..      ADR      r1,{pc}+0x20e ; 0x1cc90
        0x0001ca84:    f1040047    ..G.    ADD      r0,r4,#0x47
        0x0001ca88:    f001f904    ....    BL       mem_cpy ; 0x1dc94
        0x0001ca8c:    e016        ..      B        0x1cabc ; f_mkfs + 1180
        0x0001ca8e:    4985        .I      LDR      r1,[pc,#532] ; [0x1cca4] = 0x51210000
        0x0001ca90:    f1040027    ..'.    ADD      r0,r4,#0x27
        0x0001ca94:    f001ff5f    .._.    BL       st_dword ; 0x1e956
        0x0001ca98:    9808        ..      LDR      r0,[sp,#0x20]
        0x0001ca9a:    b281        ..      UXTH     r1,r0
        0x0001ca9c:    f1040016    ....    ADD      r0,r4,#0x16
        0x0001caa0:    f001ff65    ..e.    BL       st_word ; 0x1e96e
        0x0001caa4:    2080        .       MOVS     r0,#0x80
        0x0001caa6:    f8840024    ..$.    STRB     r0,[r4,#0x24]
        0x0001caaa:    2029        )       MOVS     r0,#0x29
        0x0001caac:    f8840026    ..&.    STRB     r0,[r4,#0x26]
        0x0001cab0:    2213        ."      MOVS     r2,#0x13
        0x0001cab2:    a17d        }.      ADR      r1,{pc}+0x1f6 ; 0x1cca8
        0x0001cab4:    f104002b    ..+.    ADD      r0,r4,#0x2b
        0x0001cab8:    f001f8ec    ....    BL       mem_cpy ; 0x1dc94
        0x0001cabc:    f64a2155    J.U!    MOV      r1,#0xaa55
        0x0001cac0:    f50470ff    ...p    ADD      r0,r4,#0x1fe
        0x0001cac4:    f001ff53    ..S.    BL       st_word ; 0x1e96e
        0x0001cac8:    2301        .#      MOVS     r3,#1
        0x0001caca:    465a        ZF      MOV      r2,r11
        0x0001cacc:    4621        !F      MOV      r1,r4
        0x0001cace:    9814        ..      LDR      r0,[sp,#0x50]
        0x0001cad0:    f7fffd1e    ....    BL       disk_write ; 0x1c510
        0x0001cad4:    b108        ..      CBZ      r0,0x1cada ; f_mkfs + 1210
        0x0001cad6:    2001        .       MOVS     r0,#1
        0x0001cad8:    e5ae        ..      B        0x1c638 ; f_mkfs + 24
        0x0001cada:    2f03        ./      CMP      r7,#3
        0x0001cadc:    d133        3.      BNE      0x1cb46 ; f_mkfs + 1318
        0x0001cade:    2301        .#      MOVS     r3,#1
        0x0001cae0:    f10b0206    ....    ADD      r2,r11,#6
        0x0001cae4:    4621        !F      MOV      r1,r4
        0x0001cae6:    9814        ..      LDR      r0,[sp,#0x50]
        0x0001cae8:    f7fffd12    ....    BL       disk_write ; 0x1c510
        0x0001caec:    4642        BF      MOV      r2,r8
        0x0001caee:    2100        .!      MOVS     r1,#0
        0x0001caf0:    4620         F      MOV      r0,r4
        0x0001caf2:    f001f8dc    ....    BL       mem_set ; 0x1dcae
        0x0001caf6:    4971        qI      LDR      r1,[pc,#452] ; [0x1ccbc] = 0x41615252
        0x0001caf8:    4620         F      MOV      r0,r4
        0x0001cafa:    f001ff2c    ..,.    BL       st_dword ; 0x1e956
        0x0001cafe:    4970        pI      LDR      r1,[pc,#448] ; [0x1ccc0] = 0x61417272
        0x0001cb00:    f50470f2    ...p    ADD      r0,r4,#0x1e4
        0x0001cb04:    f001ff27    ..'.    BL       st_dword ; 0x1e956
        0x0001cb08:    f1a90101    ....    SUB      r1,r9,#1
        0x0001cb0c:    f50470f4    ...p    ADD      r0,r4,#0x1e8
        0x0001cb10:    f001ff21    ..!.    BL       st_dword ; 0x1e956
        0x0001cb14:    2102        .!      MOVS     r1,#2
        0x0001cb16:    f50470f6    ...p    ADD      r0,r4,#0x1ec
        0x0001cb1a:    f001ff1c    ....    BL       st_dword ; 0x1e956
        0x0001cb1e:    f64a2155    J.U!    MOV      r1,#0xaa55
        0x0001cb22:    f50470ff    ...p    ADD      r0,r4,#0x1fe
        0x0001cb26:    f001ff22    ..".    BL       st_word ; 0x1e96e
        0x0001cb2a:    2301        .#      MOVS     r3,#1
        0x0001cb2c:    f10b0207    ....    ADD      r2,r11,#7
        0x0001cb30:    4621        !F      MOV      r1,r4
        0x0001cb32:    9814        ..      LDR      r0,[sp,#0x50]
        0x0001cb34:    f7fffcec    ....    BL       disk_write ; 0x1c510
        0x0001cb38:    2301        .#      MOVS     r3,#1
        0x0001cb3a:    f10b0201    ....    ADD      r2,r11,#1
        0x0001cb3e:    4621        !F      MOV      r1,r4
        0x0001cb40:    9814        ..      LDR      r0,[sp,#0x50]
        0x0001cb42:    f7fffce5    ....    BL       disk_write ; 0x1c510
        0x0001cb46:    9812        ..      LDR      r0,[sp,#0x48]
        0x0001cb48:    fb00f208    ....    MUL      r2,r0,r8
        0x0001cb4c:    2100        .!      MOVS     r1,#0
        0x0001cb4e:    4620         F      MOV      r0,r4
        0x0001cb50:    f001f8ad    ....    BL       mem_set ; 0x1dcae
        0x0001cb54:    980e        ..      LDR      r0,[sp,#0x38]
        0x0001cb56:    900c        ..      STR      r0,[sp,#0x30]
        0x0001cb58:    2000        .       MOVS     r0,#0
        0x0001cb5a:    9003        ..      STR      r0,[sp,#0xc]
        0x0001cb5c:    e041        A.      B        0x1cbe2 ; f_mkfs + 1474
        0x0001cb5e:    2f03        ./      CMP      r7,#3
        0x0001cb60:    d10f        ..      BNE      0x1cb82 ; f_mkfs + 1378
        0x0001cb62:    f06f0107    o...    MVN      r1,#7
        0x0001cb66:    4620         F      MOV      r0,r4
        0x0001cb68:    f001fef5    ....    BL       st_dword ; 0x1e956
        0x0001cb6c:    1f39        9.      SUBS     r1,r7,#4
        0x0001cb6e:    1d20         .      ADDS     r0,r4,#4
        0x0001cb70:    f001fef1    ....    BL       st_dword ; 0x1e956
        0x0001cb74:    f06f4170    o.pA    MVN      r1,#0xf0000000
        0x0001cb78:    f1040008    ....    ADD      r0,r4,#8
        0x0001cb7c:    f001feeb    ....    BL       st_dword ; 0x1e956
        0x0001cb80:    e009        ..      B        0x1cb96 ; f_mkfs + 1398
        0x0001cb82:    2f01        ./      CMP      r7,#1
        0x0001cb84:    d101        ..      BNE      0x1cb8a ; f_mkfs + 1386
        0x0001cb86:    484f        OH      LDR      r0,[pc,#316] ; [0x1ccc4] = 0xfffff8
        0x0001cb88:    e001        ..      B        0x1cb8e ; f_mkfs + 1390
        0x0001cb8a:    f06f0007    o...    MVN      r0,#7
        0x0001cb8e:    4601        .F      MOV      r1,r0
        0x0001cb90:    4620         F      MOV      r0,r4
        0x0001cb92:    f001fee0    ....    BL       st_dword ; 0x1e956
        0x0001cb96:    9808        ..      LDR      r0,[sp,#0x20]
        0x0001cb98:    9010        ..      STR      r0,[sp,#0x40]
        0x0001cb9a:    bf00        ..      NOP      
        0x0001cb9c:    9912        ..      LDR      r1,[sp,#0x48]
        0x0001cb9e:    9810        ..      LDR      r0,[sp,#0x40]
        0x0001cba0:    4288        .B      CMP      r0,r1
        0x0001cba2:    d901        ..      BLS      0x1cba8 ; f_mkfs + 1416
        0x0001cba4:    9812        ..      LDR      r0,[sp,#0x48]
        0x0001cba6:    e000        ..      B        0x1cbaa ; f_mkfs + 1418
        0x0001cba8:    9810        ..      LDR      r0,[sp,#0x40]
        0x0001cbaa:    4682        .F      MOV      r10,r0
        0x0001cbac:    4653        SF      MOV      r3,r10
        0x0001cbae:    4621        !F      MOV      r1,r4
        0x0001cbb0:    9a0c        ..      LDR      r2,[sp,#0x30]
        0x0001cbb2:    9814        ..      LDR      r0,[sp,#0x50]
        0x0001cbb4:    f7fffcac    ....    BL       disk_write ; 0x1c510
        0x0001cbb8:    b108        ..      CBZ      r0,0x1cbbe ; f_mkfs + 1438
        0x0001cbba:    2001        .       MOVS     r0,#1
        0x0001cbbc:    e53c        <.      B        0x1c638 ; f_mkfs + 24
        0x0001cbbe:    4642        BF      MOV      r2,r8
        0x0001cbc0:    2100        .!      MOVS     r1,#0
        0x0001cbc2:    4620         F      MOV      r0,r4
        0x0001cbc4:    f001f873    ..s.    BL       mem_set ; 0x1dcae
        0x0001cbc8:    980c        ..      LDR      r0,[sp,#0x30]
        0x0001cbca:    4450        PD      ADD      r0,r0,r10
        0x0001cbcc:    900c        ..      STR      r0,[sp,#0x30]
        0x0001cbce:    9810        ..      LDR      r0,[sp,#0x40]
        0x0001cbd0:    eba0000a    ....    SUB      r0,r0,r10
        0x0001cbd4:    9010        ..      STR      r0,[sp,#0x40]
        0x0001cbd6:    9810        ..      LDR      r0,[sp,#0x40]
        0x0001cbd8:    2800        .(      CMP      r0,#0
        0x0001cbda:    d1df        ..      BNE      0x1cb9c ; f_mkfs + 1404
        0x0001cbdc:    9803        ..      LDR      r0,[sp,#0xc]
        0x0001cbde:    1c40        @.      ADDS     r0,r0,#1
        0x0001cbe0:    9003        ..      STR      r0,[sp,#0xc]
        0x0001cbe2:    9905        ..      LDR      r1,[sp,#0x14]
        0x0001cbe4:    9803        ..      LDR      r0,[sp,#0xc]
        0x0001cbe6:    4288        .B      CMP      r0,r1
        0x0001cbe8:    d3b9        ..      BCC      0x1cb5e ; f_mkfs + 1342
        0x0001cbea:    2f03        ./      CMP      r7,#3
        0x0001cbec:    d101        ..      BNE      0x1cbf2 ; f_mkfs + 1490
        0x0001cbee:    4628        (F      MOV      r0,r5
        0x0001cbf0:    e000        ..      B        0x1cbf4 ; f_mkfs + 1492
        0x0001cbf2:    9807        ..      LDR      r0,[sp,#0x1c]
        0x0001cbf4:    9010        ..      STR      r0,[sp,#0x40]
        0x0001cbf6:    bf00        ..      NOP      
        0x0001cbf8:    9912        ..      LDR      r1,[sp,#0x48]
        0x0001cbfa:    9810        ..      LDR      r0,[sp,#0x40]
        0x0001cbfc:    4288        .B      CMP      r0,r1
        0x0001cbfe:    d901        ..      BLS      0x1cc04 ; f_mkfs + 1508
        0x0001cc00:    9812        ..      LDR      r0,[sp,#0x48]
        0x0001cc02:    e000        ..      B        0x1cc06 ; f_mkfs + 1510
        0x0001cc04:    9810        ..      LDR      r0,[sp,#0x40]
        0x0001cc06:    4682        .F      MOV      r10,r0
        0x0001cc08:    4653        SF      MOV      r3,r10
        0x0001cc0a:    4621        !F      MOV      r1,r4
        0x0001cc0c:    9a0c        ..      LDR      r2,[sp,#0x30]
        0x0001cc0e:    9814        ..      LDR      r0,[sp,#0x50]
        0x0001cc10:    f7fffc7e    ..~.    BL       disk_write ; 0x1c510
        0x0001cc14:    b108        ..      CBZ      r0,0x1cc1a ; f_mkfs + 1530
        0x0001cc16:    2001        .       MOVS     r0,#1
        0x0001cc18:    e50e        ..      B        0x1c638 ; f_mkfs + 24
        0x0001cc1a:    980c        ..      LDR      r0,[sp,#0x30]
        0x0001cc1c:    4450        PD      ADD      r0,r0,r10
        0x0001cc1e:    900c        ..      STR      r0,[sp,#0x30]
        0x0001cc20:    9810        ..      LDR      r0,[sp,#0x40]
        0x0001cc22:    eba0000a    ....    SUB      r0,r0,r10
        0x0001cc26:    9010        ..      STR      r0,[sp,#0x40]
        0x0001cc28:    9810        ..      LDR      r0,[sp,#0x40]
        0x0001cc2a:    2800        .(      CMP      r0,#0
        0x0001cc2c:    d1e4        ..      BNE      0x1cbf8 ; f_mkfs + 1496
        0x0001cc2e:    bf00        ..      NOP      
        0x0001cc30:    2f03        ./      CMP      r7,#3
        0x0001cc32:    d102        ..      BNE      0x1cc3a ; f_mkfs + 1562
        0x0001cc34:    200c        .       MOVS     r0,#0xc
        0x0001cc36:    9015        ..      STR      r0,[sp,#0x54]
        0x0001cc38:    e00c        ..      B        0x1cc54 ; f_mkfs + 1588
        0x0001cc3a:    980f        ..      LDR      r0,[sp,#0x3c]
        0x0001cc3c:    f5b03f80    ...?    CMP      r0,#0x10000
        0x0001cc40:    d302        ..      BCC      0x1cc48 ; f_mkfs + 1576
        0x0001cc42:    2006        .       MOVS     r0,#6
        0x0001cc44:    9015        ..      STR      r0,[sp,#0x54]
        0x0001cc46:    e005        ..      B        0x1cc54 ; f_mkfs + 1588
        0x0001cc48:    2f02        ./      CMP      r7,#2
        0x0001cc4a:    d101        ..      BNE      0x1cc50 ; f_mkfs + 1584
        0x0001cc4c:    2004        .       MOVS     r0,#4
        0x0001cc4e:    e000        ..      B        0x1cc52 ; f_mkfs + 1586
        0x0001cc50:    2001        .       MOVS     r0,#1
        0x0001cc52:    9015        ..      STR      r0,[sp,#0x54]
        0x0001cc54:    bf00        ..      NOP      
        0x0001cc56:    9816        ..      LDR      r0,[sp,#0x58]
        0x0001cc58:    f0000008    ....    AND      r0,r0,#8
        0x0001cc5c:    b970        p.      CBNZ     r0,0x1cc7c ; f_mkfs + 1628
        0x0001cc5e:    980f        ..      LDR      r0,[sp,#0x3c]
        0x0001cc60:    900a        ..      STR      r0,[sp,#0x28]
        0x0001cc62:    2000        .       MOVS     r0,#0
        0x0001cc64:    900b        ..      STR      r0,[sp,#0x2c]
        0x0001cc66:    4623        #F      MOV      r3,r4
        0x0001cc68:    a90a        ..      ADD      r1,sp,#0x28
        0x0001cc6a:    e9dd0214    ....    LDRD     r0,r2,[sp,#0x50]
        0x0001cc6e:    f7fff8bf    ....    BL       create_partition ; 0x1bdf0
        0x0001cc72:    9000        ..      STR      r0,[sp,#0]
        0x0001cc74:    9800        ..      LDR      r0,[sp,#0]
        0x0001cc76:    b108        ..      CBZ      r0,0x1cc7c ; f_mkfs + 1628
        0x0001cc78:    9800        ..      LDR      r0,[sp,#0]
        0x0001cc7a:    e4dd        ..      B        0x1c638 ; f_mkfs + 24
        0x0001cc7c:    2200        ."      MOVS     r2,#0
        0x0001cc7e:    4611        .F      MOV      r1,r2
        0x0001cc80:    9814        ..      LDR      r0,[sp,#0x50]
        0x0001cc82:    f7fffc21    ..!.    BL       disk_ioctl ; 0x1c4c8
        0x0001cc86:    b108        ..      CBZ      r0,0x1cc8c ; f_mkfs + 1644
        0x0001cc88:    2001        .       MOVS     r0,#1
        0x0001cc8a:    e4d5        ..      B        0x1c638 ; f_mkfs + 24
        0x0001cc8c:    2000        .       MOVS     r0,#0
        0x0001cc8e:    e4d3        ..      B        0x1c638 ; f_mkfs + 24
    $d
        0x0001cc90:    4e204f4e    NO N    DCD    1310740302
        0x0001cc94:    20454d41    AME     DCD    541412673
        0x0001cc98:    46202020       F    DCD    1176510496
        0x0001cc9c:    32335441    AT32    DCD    842224705
        0x0001cca0:    00202020       .    DCD    2105376
        0x0001cca4:    51210000    ..!Q    DCD    1361117184
        0x0001cca8:    4e204f4e    NO N    DCD    1310740302
        0x0001ccac:    20454d41    AME     DCD    541412673
        0x0001ccb0:    46202020       F    DCD    1176510496
        0x0001ccb4:    20205441    AT      DCD    538989633
        0x0001ccb8:    00202020       .    DCD    2105376
        0x0001ccbc:    41615252    RRaA    DCD    1096897106
        0x0001ccc0:    61417272    rrAa    DCD    1631679090
        0x0001ccc4:    00fffff8    ....    DCD    16777208
    $t
    i.f_mount
    f_mount
        0x0001ccc8:    b5f7        ..      PUSH     {r0-r2,r4-r7,lr}
        0x0001ccca:    b082        ..      SUB      sp,sp,#8
        0x0001cccc:    4616        .F      MOV      r6,r2
        0x0001ccce:    9803        ..      LDR      r0,[sp,#0xc]
        0x0001ccd0:    9001        ..      STR      r0,[sp,#4]
        0x0001ccd2:    a801        ..      ADD      r0,sp,#4
        0x0001ccd4:    f000fdfc    ....    BL       get_ldnumber ; 0x1d8d0
        0x0001ccd8:    4605        .F      MOV      r5,r0
        0x0001ccda:    2d00        .-      CMP      r5,#0
        0x0001ccdc:    da02        ..      BGE      0x1cce4 ; f_mount + 28
        0x0001ccde:    200b        .       MOVS     r0,#0xb
        0x0001cce0:    b005        ..      ADD      sp,sp,#0x14
        0x0001cce2:    bdf0        ..      POP      {r4-r7,pc}
        0x0001cce4:    480c        .H      LDR      r0,[pc,#48] ; [0x1cd18] = 0x10000000
        0x0001cce6:    f8504025    P.%@    LDR      r4,[r0,r5,LSL #2]
        0x0001ccea:    b10c        ..      CBZ      r4,0x1ccf0 ; f_mount + 40
        0x0001ccec:    2000        .       MOVS     r0,#0
        0x0001ccee:    7020         p      STRB     r0,[r4,#0]
        0x0001ccf0:    9802        ..      LDR      r0,[sp,#8]
        0x0001ccf2:    b110        ..      CBZ      r0,0x1ccfa ; f_mount + 50
        0x0001ccf4:    2000        .       MOVS     r0,#0
        0x0001ccf6:    9902        ..      LDR      r1,[sp,#8]
        0x0001ccf8:    7008        .p      STRB     r0,[r1,#0]
        0x0001ccfa:    4907        .I      LDR      r1,[pc,#28] ; [0x1cd18] = 0x10000000
        0x0001ccfc:    9802        ..      LDR      r0,[sp,#8]
        0x0001ccfe:    f8410025    A.%.    STR      r0,[r1,r5,LSL #2]
        0x0001cd02:    b90e        ..      CBNZ     r6,0x1cd08 ; f_mount + 64
        0x0001cd04:    2000        .       MOVS     r0,#0
        0x0001cd06:    e7eb        ..      B        0x1cce0 ; f_mount + 24
        0x0001cd08:    2200        ."      MOVS     r2,#0
        0x0001cd0a:    a902        ..      ADD      r1,sp,#8
        0x0001cd0c:    a803        ..      ADD      r0,sp,#0xc
        0x0001cd0e:    f001fb11    ....    BL       mount_volume ; 0x1e334
        0x0001cd12:    4607        .F      MOV      r7,r0
        0x0001cd14:    4638        8F      MOV      r0,r7
        0x0001cd16:    e7e3        ..      B        0x1cce0 ; f_mount + 24
    $d
        0x0001cd18:    10000000    ....    DCD    268435456
    $t
    i.f_open
    f_open
        0x0001cd1c:    e92d4ff7    -..O    PUSH     {r0-r2,r4-r11,lr}
        0x0001cd20:    f5ad7d0e    ...}    SUB      sp,sp,#0x238
        0x0001cd24:    4604        .F      MOV      r4,r0
        0x0001cd26:    4616        .F      MOV      r6,r2
        0x0001cd28:    b924        $.      CBNZ     r4,0x1cd34 ; f_open + 24
        0x0001cd2a:    2009        .       MOVS     r0,#9
        0x0001cd2c:    f50d7d11    ...}    ADD      sp,sp,#0x244
        0x0001cd30:    e8bd8ff0    ....    POP      {r4-r11,pc}
        0x0001cd34:    f006063f    ..?.    AND      r6,r6,#0x3f
        0x0001cd38:    4632        2F      MOV      r2,r6
        0x0001cd3a:    a980        ..      ADD      r1,sp,#0x200
        0x0001cd3c:    a88f        ..      ADD      r0,sp,#0x23c
        0x0001cd3e:    f001faf9    ....    BL       mount_volume ; 0x1e334
        0x0001cd42:    4605        .F      MOV      r5,r0
        0x0001cd44:    2d00        .-      CMP      r5,#0
        0x0001cd46:    d17d        }.      BNE      0x1ce44 ; f_open + 296
        0x0001cd48:    9880        ..      LDR      r0,[sp,#0x200]
        0x0001cd4a:    9081        ..      STR      r0,[sp,#0x204]
        0x0001cd4c:    9980        ..      LDR      r1,[sp,#0x200]
        0x0001cd4e:    f8c1d00c    ....    STR      sp,[r1,#0xc]
        0x0001cd52:    a881        ..      ADD      r0,sp,#0x204
        0x0001cd54:    998f        ..      LDR      r1,[sp,#0x23c]
        0x0001cd56:    f000fbc3    ....    BL       follow_path ; 0x1d4e0
        0x0001cd5a:    4605        .F      MOV      r5,r0
        0x0001cd5c:    b92d        -.      CBNZ     r5,0x1cd6a ; f_open + 78
        0x0001cd5e:    f89d022f    ../.    LDRB     r0,[sp,#0x22f]
        0x0001cd62:    f0000080    ....    AND      r0,r0,#0x80
        0x0001cd66:    b100        ..      CBZ      r0,0x1cd6a ; f_open + 78
        0x0001cd68:    2506        .%      MOVS     r5,#6
        0x0001cd6a:    f006001c    ....    AND      r0,r6,#0x1c
        0x0001cd6e:    2800        .(      CMP      r0,#0
        0x0001cd70:    d04d        M.      BEQ      0x1ce0e ; f_open + 242
        0x0001cd72:    b145        E.      CBZ      r5,0x1cd86 ; f_open + 106
        0x0001cd74:    2d04        .-      CMP      r5,#4
        0x0001cd76:    d103        ..      BNE      0x1cd80 ; f_open + 100
        0x0001cd78:    a881        ..      ADD      r0,sp,#0x204
        0x0001cd7a:    f7fffaaf    ....    BL       dir_register ; 0x1c2dc
        0x0001cd7e:    4605        .F      MOV      r5,r0
        0x0001cd80:    f0460608    F...    ORR      r6,r6,#8
        0x0001cd84:    e00a        ..      B        0x1cd9c ; f_open + 128
        0x0001cd86:    f89d020a    ....    LDRB     r0,[sp,#0x20a]
        0x0001cd8a:    f0000011    ....    AND      r0,r0,#0x11
        0x0001cd8e:    b108        ..      CBZ      r0,0x1cd94 ; f_open + 120
        0x0001cd90:    2507        .%      MOVS     r5,#7
        0x0001cd92:    e003        ..      B        0x1cd9c ; f_open + 128
        0x0001cd94:    f0060004    ....    AND      r0,r6,#4
        0x0001cd98:    b100        ..      CBZ      r0,0x1cd9c ; f_open + 128
        0x0001cd9a:    2508        .%      MOVS     r5,#8
        0x0001cd9c:    2d00        .-      CMP      r5,#0
        0x0001cd9e:    d147        G.      BNE      0x1ce30 ; f_open + 276
        0x0001cda0:    f0060008    ....    AND      r0,r6,#8
        0x0001cda4:    2800        .(      CMP      r0,#0
        0x0001cda6:    d043        C.      BEQ      0x1ce30 ; f_open + 276
        0x0001cda8:    9988        ..      LDR      r1,[sp,#0x220]
        0x0001cdaa:    9880        ..      LDR      r0,[sp,#0x200]
        0x0001cdac:    f000fdba    ....    BL       ld_clust ; 0x1d924
        0x0001cdb0:    4681        .F      MOV      r9,r0
        0x0001cdb2:    9988        ..      LDR      r1,[sp,#0x220]
        0x0001cdb4:    f101000e    ....    ADD      r0,r1,#0xe
        0x0001cdb8:    4954        TI      LDR      r1,[pc,#336] ; [0x1cf0c] = 0x51210000
        0x0001cdba:    f001fdcc    ....    BL       st_dword ; 0x1e956
        0x0001cdbe:    2020                MOVS     r0,#0x20
        0x0001cdc0:    9988        ..      LDR      r1,[sp,#0x220]
        0x0001cdc2:    72c8        .r      STRB     r0,[r1,#0xb]
        0x0001cdc4:    2200        ."      MOVS     r2,#0
        0x0001cdc6:    9988        ..      LDR      r1,[sp,#0x220]
        0x0001cdc8:    9880        ..      LDR      r0,[sp,#0x200]
        0x0001cdca:    f001fdb2    ....    BL       st_clust ; 0x1e932
        0x0001cdce:    9988        ..      LDR      r1,[sp,#0x220]
        0x0001cdd0:    f101001c    ....    ADD      r0,r1,#0x1c
        0x0001cdd4:    2100        .!      MOVS     r1,#0
        0x0001cdd6:    f001fdbe    ....    BL       st_dword ; 0x1e956
        0x0001cdda:    2001        .       MOVS     r0,#1
        0x0001cddc:    9980        ..      LDR      r1,[sp,#0x200]
        0x0001cdde:    70c8        .p      STRB     r0,[r1,#3]
        0x0001cde0:    f1b90f00    ....    CMP      r9,#0
        0x0001cde4:    d024        $.      BEQ      0x1ce30 ; f_open + 276
        0x0001cde6:    9880        ..      LDR      r0,[sp,#0x200]
        0x0001cde8:    f8d0a034    ..4.    LDR      r10,[r0,#0x34]
        0x0001cdec:    2200        ."      MOVS     r2,#0
        0x0001cdee:    4649        IF      MOV      r1,r9
        0x0001cdf0:    a881        ..      ADD      r0,sp,#0x204
        0x0001cdf2:    f001fd45    ..E.    BL       remove_chain ; 0x1e880
        0x0001cdf6:    4605        .F      MOV      r5,r0
        0x0001cdf8:    b9d5        ..      CBNZ     r5,0x1ce30 ; f_open + 276
        0x0001cdfa:    4651        QF      MOV      r1,r10
        0x0001cdfc:    9880        ..      LDR      r0,[sp,#0x200]
        0x0001cdfe:    f001fbef    ....    BL       move_window ; 0x1e5e0
        0x0001ce02:    4605        .F      MOV      r5,r0
        0x0001ce04:    f1a90001    ....    SUB      r0,r9,#1
        0x0001ce08:    9980        ..      LDR      r1,[sp,#0x200]
        0x0001ce0a:    6108        .a      STR      r0,[r1,#0x10]
        0x0001ce0c:    e010        ..      B        0x1ce30 ; f_open + 276
        0x0001ce0e:    b97d        }.      CBNZ     r5,0x1ce30 ; f_open + 276
        0x0001ce10:    f89d020a    ....    LDRB     r0,[sp,#0x20a]
        0x0001ce14:    f0000010    ....    AND      r0,r0,#0x10
        0x0001ce18:    b108        ..      CBZ      r0,0x1ce1e ; f_open + 258
        0x0001ce1a:    2504        .%      MOVS     r5,#4
        0x0001ce1c:    e008        ..      B        0x1ce30 ; f_open + 276
        0x0001ce1e:    f0060002    ....    AND      r0,r6,#2
        0x0001ce22:    b128        (.      CBZ      r0,0x1ce30 ; f_open + 276
        0x0001ce24:    f89d020a    ....    LDRB     r0,[sp,#0x20a]
        0x0001ce28:    f0000001    ....    AND      r0,r0,#1
        0x0001ce2c:    b100        ..      CBZ      r0,0x1ce30 ; f_open + 276
        0x0001ce2e:    2507        .%      MOVS     r5,#7
        0x0001ce30:    b95d        ].      CBNZ     r5,0x1ce4a ; f_open + 302
        0x0001ce32:    f0060008    ....    AND      r0,r6,#8
        0x0001ce36:    b108        ..      CBZ      r0,0x1ce3c ; f_open + 288
        0x0001ce38:    f0460640    F.@.    ORR      r6,r6,#0x40
        0x0001ce3c:    9880        ..      LDR      r0,[sp,#0x200]
        0x0001ce3e:    6b40        @k      LDR      r0,[r0,#0x34]
        0x0001ce40:    6220         b      STR      r0,[r4,#0x20]
        0x0001ce42:    e000        ..      B        0x1ce46 ; f_open + 298
        0x0001ce44:    e04e        N.      B        0x1cee4 ; f_open + 456
        0x0001ce46:    9888        ..      LDR      r0,[sp,#0x220]
        0x0001ce48:    6260        `b      STR      r0,[r4,#0x24]
        0x0001ce4a:    2d00        .-      CMP      r5,#0
        0x0001ce4c:    d158        X.      BNE      0x1cf00 ; f_open + 484
        0x0001ce4e:    9988        ..      LDR      r1,[sp,#0x220]
        0x0001ce50:    9880        ..      LDR      r0,[sp,#0x200]
        0x0001ce52:    f000fd67    ..g.    BL       ld_clust ; 0x1d924
        0x0001ce56:    60a0        .`      STR      r0,[r4,#8]
        0x0001ce58:    9988        ..      LDR      r1,[sp,#0x220]
        0x0001ce5a:    f101001c    ....    ADD      r0,r1,#0x1c
        0x0001ce5e:    f000fd74    ..t.    BL       ld_dword ; 0x1d94a
        0x0001ce62:    60e0        .`      STR      r0,[r4,#0xc]
        0x0001ce64:    2000        .       MOVS     r0,#0
        0x0001ce66:    62a0        .b      STR      r0,[r4,#0x28]
        0x0001ce68:    9880        ..      LDR      r0,[sp,#0x200]
        0x0001ce6a:    6020         `      STR      r0,[r4,#0]
        0x0001ce6c:    9880        ..      LDR      r0,[sp,#0x200]
        0x0001ce6e:    88c0        ..      LDRH     r0,[r0,#6]
        0x0001ce70:    80a0        ..      STRH     r0,[r4,#4]
        0x0001ce72:    7426        &t      STRB     r6,[r4,#0x10]
        0x0001ce74:    2000        .       MOVS     r0,#0
        0x0001ce76:    7460        `t      STRB     r0,[r4,#0x11]
        0x0001ce78:    61e0        .a      STR      r0,[r4,#0x1c]
        0x0001ce7a:    6160        `a      STR      r0,[r4,#0x14]
        0x0001ce7c:    f44f7200    O..r    MOV      r2,#0x200
        0x0001ce80:    2100        .!      MOVS     r1,#0
        0x0001ce82:    f104002c    ..,.    ADD      r0,r4,#0x2c
        0x0001ce86:    f000ff12    ....    BL       mem_set ; 0x1dcae
        0x0001ce8a:    f0060020    .. .    AND      r0,r6,#0x20
        0x0001ce8e:    b348        H.      CBZ      r0,0x1cee4 ; f_open + 456
        0x0001ce90:    68e0        .h      LDR      r0,[r4,#0xc]
        0x0001ce92:    b338        8.      CBZ      r0,0x1cee4 ; f_open + 456
        0x0001ce94:    68e0        .h      LDR      r0,[r4,#0xc]
        0x0001ce96:    6160        `a      STR      r0,[r4,#0x14]
        0x0001ce98:    9880        ..      LDR      r0,[sp,#0x200]
        0x0001ce9a:    8940        @.      LDRH     r0,[r0,#0xa]
        0x0001ce9c:    ea4f2b40    O.@+    LSL      r11,r0,#9
        0x0001cea0:    68a7        .h      LDR      r7,[r4,#8]
        0x0001cea2:    f8d4800c    ....    LDR      r8,[r4,#0xc]
        0x0001cea6:    e00c        ..      B        0x1cec2 ; f_open + 422
        0x0001cea8:    4639        9F      MOV      r1,r7
        0x0001ceaa:    4620         F      MOV      r0,r4
        0x0001ceac:    f000fca0    ....    BL       get_fat ; 0x1d7f0
        0x0001ceb0:    4607        .F      MOV      r7,r0
        0x0001ceb2:    2f01        ./      CMP      r7,#1
        0x0001ceb4:    d800        ..      BHI      0x1ceb8 ; f_open + 412
        0x0001ceb6:    2502        .%      MOVS     r5,#2
        0x0001ceb8:    1c78        x.      ADDS     r0,r7,#1
        0x0001ceba:    b900        ..      CBNZ     r0,0x1cebe ; f_open + 418
        0x0001cebc:    2501        .%      MOVS     r5,#1
        0x0001cebe:    eba8080b    ....    SUB      r8,r8,r11
        0x0001cec2:    b90d        ..      CBNZ     r5,0x1cec8 ; f_open + 428
        0x0001cec4:    45d8        .E      CMP      r8,r11
        0x0001cec6:    d8ef        ..      BHI      0x1cea8 ; f_open + 396
        0x0001cec8:    61a7        .a      STR      r7,[r4,#0x18]
        0x0001ceca:    b95d        ].      CBNZ     r5,0x1cee4 ; f_open + 456
        0x0001cecc:    f3c80008    ....    UBFX     r0,r8,#0,#9
        0x0001ced0:    b140        @.      CBZ      r0,0x1cee4 ; f_open + 456
        0x0001ced2:    4639        9F      MOV      r1,r7
        0x0001ced4:    9880        ..      LDR      r0,[sp,#0x200]
        0x0001ced6:    f7fefd2e    ....    BL       clst2sect ; 0x1b936
        0x0001ceda:    4682        .F      MOV      r10,r0
        0x0001cedc:    f1ba0f00    ....    CMP      r10,#0
        0x0001cee0:    d101        ..      BNE      0x1cee6 ; f_open + 458
        0x0001cee2:    2502        .%      MOVS     r5,#2
        0x0001cee4:    e00c        ..      B        0x1cf00 ; f_open + 484
        0x0001cee6:    eb0a2058    ..X     ADD      r0,r10,r8,LSR #9
        0x0001ceea:    61e0        .a      STR      r0,[r4,#0x1c]
        0x0001ceec:    69e2        .i      LDR      r2,[r4,#0x1c]
        0x0001ceee:    9980        ..      LDR      r1,[sp,#0x200]
        0x0001cef0:    7848        Hx      LDRB     r0,[r1,#1]
        0x0001cef2:    2301        .#      MOVS     r3,#1
        0x0001cef4:    f104012c    ..,.    ADD      r1,r4,#0x2c
        0x0001cef8:    f7fffaf2    ....    BL       disk_read ; 0x1c4e0
        0x0001cefc:    b100        ..      CBZ      r0,0x1cf00 ; f_open + 484
        0x0001cefe:    2501        .%      MOVS     r5,#1
        0x0001cf00:    b10d        ..      CBZ      r5,0x1cf06 ; f_open + 490
        0x0001cf02:    2000        .       MOVS     r0,#0
        0x0001cf04:    6020         `      STR      r0,[r4,#0]
        0x0001cf06:    4628        (F      MOV      r0,r5
        0x0001cf08:    e710        ..      B        0x1cd2c ; f_open + 16
    $d
        0x0001cf0a:    0000        ..      DCW    0
        0x0001cf0c:    51210000    ..!Q    DCD    1361117184
    $t
    i.f_read
    f_read
        0x0001cf10:    e92d4fff    -..O    PUSH     {r0-r11,lr}
        0x0001cf14:    b085        ..      SUB      sp,sp,#0x14
        0x0001cf16:    4604        .F      MOV      r4,r0
        0x0001cf18:    4615        .F      MOV      r5,r2
        0x0001cf1a:    469a        .F      MOV      r10,r3
        0x0001cf1c:    f8ddb018    ....    LDR      r11,[sp,#0x18]
        0x0001cf20:    2000        .       MOVS     r0,#0
        0x0001cf22:    f8ca0000    ....    STR      r0,[r10,#0]
        0x0001cf26:    a903        ..      ADD      r1,sp,#0xc
        0x0001cf28:    4620         F      MOV      r0,r4
        0x0001cf2a:    f001fe47    ..G.    BL       validate ; 0x1ebbc
        0x0001cf2e:    9004        ..      STR      r0,[sp,#0x10]
        0x0001cf30:    9804        ..      LDR      r0,[sp,#0x10]
        0x0001cf32:    b910        ..      CBNZ     r0,0x1cf3a ; f_read + 42
        0x0001cf34:    7c60        `|      LDRB     r0,[r4,#0x11]
        0x0001cf36:    9004        ..      STR      r0,[sp,#0x10]
        0x0001cf38:    b118        ..      CBZ      r0,0x1cf42 ; f_read + 50
        0x0001cf3a:    9804        ..      LDR      r0,[sp,#0x10]
        0x0001cf3c:    b009        ..      ADD      sp,sp,#0x24
        0x0001cf3e:    e8bd8ff0    ....    POP      {r4-r11,pc}
        0x0001cf42:    7c20         |      LDRB     r0,[r4,#0x10]
        0x0001cf44:    f0000001    ....    AND      r0,r0,#1
        0x0001cf48:    b908        ..      CBNZ     r0,0x1cf4e ; f_read + 62
        0x0001cf4a:    2007        .       MOVS     r0,#7
        0x0001cf4c:    e7f6        ..      B        0x1cf3c ; f_read + 44
        0x0001cf4e:    6961        ai      LDR      r1,[r4,#0x14]
        0x0001cf50:    68e0        .h      LDR      r0,[r4,#0xc]
        0x0001cf52:    1a40        @.      SUBS     r0,r0,r1
        0x0001cf54:    9001        ..      STR      r0,[sp,#4]
        0x0001cf56:    9801        ..      LDR      r0,[sp,#4]
        0x0001cf58:    4285        .B      CMP      r5,r0
        0x0001cf5a:    d900        ..      BLS      0x1cf5e ; f_read + 78
        0x0001cf5c:    9d01        ..      LDR      r5,[sp,#4]
        0x0001cf5e:    e0a8        ..      B        0x1d0b2 ; f_read + 418
        0x0001cf60:    8aa0        ..      LDRH     r0,[r4,#0x14]
        0x0001cf62:    f3c00008    ....    UBFX     r0,r0,#0,#9
        0x0001cf66:    2800        .(      CMP      r0,#0
        0x0001cf68:    d174        t.      BNE      0x1d054 ; f_read + 324
        0x0001cf6a:    9803        ..      LDR      r0,[sp,#0xc]
        0x0001cf6c:    8940        @.      LDRH     r0,[r0,#0xa]
        0x0001cf6e:    1e40        @.      SUBS     r0,r0,#1
        0x0001cf70:    6961        ai      LDR      r1,[r4,#0x14]
        0x0001cf72:    ea002951    ..Q)    AND      r9,r0,r1,LSR #9
        0x0001cf76:    f1b90f00    ....    CMP      r9,#0
        0x0001cf7a:    d11f        ..      BNE      0x1cfbc ; f_read + 172
        0x0001cf7c:    6960        `i      LDR      r0,[r4,#0x14]
        0x0001cf7e:    b910        ..      CBNZ     r0,0x1cf86 ; f_read + 118
        0x0001cf80:    68a0        .h      LDR      r0,[r4,#8]
        0x0001cf82:    9002        ..      STR      r0,[sp,#8]
        0x0001cf84:    e00c        ..      B        0x1cfa0 ; f_read + 144
        0x0001cf86:    6aa0        .j      LDR      r0,[r4,#0x28]
        0x0001cf88:    b128        (.      CBZ      r0,0x1cf96 ; f_read + 134
        0x0001cf8a:    4620         F      MOV      r0,r4
        0x0001cf8c:    6961        ai      LDR      r1,[r4,#0x14]
        0x0001cf8e:    f7fefcb9    ....    BL       clmt_clust ; 0x1b904
        0x0001cf92:    9002        ..      STR      r0,[sp,#8]
        0x0001cf94:    e004        ..      B        0x1cfa0 ; f_read + 144
        0x0001cf96:    4620         F      MOV      r0,r4
        0x0001cf98:    69a1        .i      LDR      r1,[r4,#0x18]
        0x0001cf9a:    f000fc29    ..).    BL       get_fat ; 0x1d7f0
        0x0001cf9e:    9002        ..      STR      r0,[sp,#8]
        0x0001cfa0:    9802        ..      LDR      r0,[sp,#8]
        0x0001cfa2:    2802        .(      CMP      r0,#2
        0x0001cfa4:    d202        ..      BCS      0x1cfac ; f_read + 156
        0x0001cfa6:    2002        .       MOVS     r0,#2
        0x0001cfa8:    7460        `t      STRB     r0,[r4,#0x11]
        0x0001cfaa:    e7c7        ..      B        0x1cf3c ; f_read + 44
        0x0001cfac:    9802        ..      LDR      r0,[sp,#8]
        0x0001cfae:    1c40        @.      ADDS     r0,r0,#1
        0x0001cfb0:    b910        ..      CBNZ     r0,0x1cfb8 ; f_read + 168
        0x0001cfb2:    2001        .       MOVS     r0,#1
        0x0001cfb4:    7460        `t      STRB     r0,[r4,#0x11]
        0x0001cfb6:    e7c1        ..      B        0x1cf3c ; f_read + 44
        0x0001cfb8:    9802        ..      LDR      r0,[sp,#8]
        0x0001cfba:    61a0        .a      STR      r0,[r4,#0x18]
        0x0001cfbc:    69a1        .i      LDR      r1,[r4,#0x18]
        0x0001cfbe:    9803        ..      LDR      r0,[sp,#0xc]
        0x0001cfc0:    f7fefcb9    ....    BL       clst2sect ; 0x1b936
        0x0001cfc4:    4606        .F      MOV      r6,r0
        0x0001cfc6:    b916        ..      CBNZ     r6,0x1cfce ; f_read + 190
        0x0001cfc8:    2002        .       MOVS     r0,#2
        0x0001cfca:    7460        `t      STRB     r0,[r4,#0x11]
        0x0001cfcc:    e7b6        ..      B        0x1cf3c ; f_read + 44
        0x0001cfce:    444e        ND      ADD      r6,r6,r9
        0x0001cfd0:    ea4f2855    O.U(    LSR      r8,r5,#9
        0x0001cfd4:    f1b80f00    ....    CMP      r8,#0
        0x0001cfd8:    d029        ).      BEQ      0x1d02e ; f_read + 286
        0x0001cfda:    eb090008    ....    ADD      r0,r9,r8
        0x0001cfde:    9903        ..      LDR      r1,[sp,#0xc]
        0x0001cfe0:    8949        I.      LDRH     r1,[r1,#0xa]
        0x0001cfe2:    4288        .B      CMP      r0,r1
        0x0001cfe4:    d903        ..      BLS      0x1cfee ; f_read + 222
        0x0001cfe6:    9803        ..      LDR      r0,[sp,#0xc]
        0x0001cfe8:    8940        @.      LDRH     r0,[r0,#0xa]
        0x0001cfea:    eba00809    ....    SUB      r8,r0,r9
        0x0001cfee:    9903        ..      LDR      r1,[sp,#0xc]
        0x0001cff0:    7848        Hx      LDRB     r0,[r1,#1]
        0x0001cff2:    4643        CF      MOV      r3,r8
        0x0001cff4:    4632        2F      MOV      r2,r6
        0x0001cff6:    4659        YF      MOV      r1,r11
        0x0001cff8:    f7fffa72    ..r.    BL       disk_read ; 0x1c4e0
        0x0001cffc:    b110        ..      CBZ      r0,0x1d004 ; f_read + 244
        0x0001cffe:    2001        .       MOVS     r0,#1
        0x0001d000:    7460        `t      STRB     r0,[r4,#0x11]
        0x0001d002:    e79b        ..      B        0x1cf3c ; f_read + 44
        0x0001d004:    7c20         |      LDRB     r0,[r4,#0x10]
        0x0001d006:    f0000080    ....    AND      r0,r0,#0x80
        0x0001d00a:    b168        h.      CBZ      r0,0x1d028 ; f_read + 280
        0x0001d00c:    69e0        .i      LDR      r0,[r4,#0x1c]
        0x0001d00e:    1b80        ..      SUBS     r0,r0,r6
        0x0001d010:    4540        @E      CMP      r0,r8
        0x0001d012:    d209        ..      BCS      0x1d028 ; f_read + 280
        0x0001d014:    69e1        .i      LDR      r1,[r4,#0x1c]
        0x0001d016:    1b89        ..      SUBS     r1,r1,r6
        0x0001d018:    eb0b2041    ..A     ADD      r0,r11,r1,LSL #9
        0x0001d01c:    f44f7200    O..r    MOV      r2,#0x200
        0x0001d020:    f104012c    ..,.    ADD      r1,r4,#0x2c
        0x0001d024:    f000fe36    ..6.    BL       mem_cpy ; 0x1dc94
        0x0001d028:    ea4f2748    O.H'    LSL      r7,r8,#9
        0x0001d02c:    e037        7.      B        0x1d09e ; f_read + 398
        0x0001d02e:    69e0        .i      LDR      r0,[r4,#0x1c]
        0x0001d030:    42b0        .B      CMP      r0,r6
        0x0001d032:    d020         .      BEQ      0x1d076 ; f_read + 358
        0x0001d034:    7c20         |      LDRB     r0,[r4,#0x10]
        0x0001d036:    f0000080    ....    AND      r0,r0,#0x80
        0x0001d03a:    b180        ..      CBZ      r0,0x1d05e ; f_read + 334
        0x0001d03c:    69e2        .i      LDR      r2,[r4,#0x1c]
        0x0001d03e:    9903        ..      LDR      r1,[sp,#0xc]
        0x0001d040:    7848        Hx      LDRB     r0,[r1,#1]
        0x0001d042:    2301        .#      MOVS     r3,#1
        0x0001d044:    f104012c    ..,.    ADD      r1,r4,#0x2c
        0x0001d048:    f7fffa62    ..b.    BL       disk_write ; 0x1c510
        0x0001d04c:    b118        ..      CBZ      r0,0x1d056 ; f_read + 326
        0x0001d04e:    2001        .       MOVS     r0,#1
        0x0001d050:    7460        `t      STRB     r0,[r4,#0x11]
        0x0001d052:    e773        s.      B        0x1cf3c ; f_read + 44
        0x0001d054:    e010        ..      B        0x1d078 ; f_read + 360
        0x0001d056:    7c20         |      LDRB     r0,[r4,#0x10]
        0x0001d058:    f000007f    ....    AND      r0,r0,#0x7f
        0x0001d05c:    7420         t      STRB     r0,[r4,#0x10]
        0x0001d05e:    9903        ..      LDR      r1,[sp,#0xc]
        0x0001d060:    7848        Hx      LDRB     r0,[r1,#1]
        0x0001d062:    2301        .#      MOVS     r3,#1
        0x0001d064:    4632        2F      MOV      r2,r6
        0x0001d066:    f104012c    ..,.    ADD      r1,r4,#0x2c
        0x0001d06a:    f7fffa39    ..9.    BL       disk_read ; 0x1c4e0
        0x0001d06e:    b110        ..      CBZ      r0,0x1d076 ; f_read + 358
        0x0001d070:    2001        .       MOVS     r0,#1
        0x0001d072:    7460        `t      STRB     r0,[r4,#0x11]
        0x0001d074:    e762        b.      B        0x1cf3c ; f_read + 44
        0x0001d076:    61e6        .a      STR      r6,[r4,#0x1c]
        0x0001d078:    8aa0        ..      LDRH     r0,[r4,#0x14]
        0x0001d07a:    f3c00008    ....    UBFX     r0,r0,#0,#9
        0x0001d07e:    f5c07700    ...w    RSB      r7,r0,#0x200
        0x0001d082:    42af        .B      CMP      r7,r5
        0x0001d084:    d900        ..      BLS      0x1d088 ; f_read + 376
        0x0001d086:    462f        /F      MOV      r7,r5
        0x0001d088:    8aa0        ..      LDRH     r0,[r4,#0x14]
        0x0001d08a:    f3c00208    ....    UBFX     r2,r0,#0,#9
        0x0001d08e:    f104002c    ..,.    ADD      r0,r4,#0x2c
        0x0001d092:    1811        ..      ADDS     r1,r2,r0
        0x0001d094:    463a        :F      MOV      r2,r7
        0x0001d096:    4658        XF      MOV      r0,r11
        0x0001d098:    f000fdfc    ....    BL       mem_cpy ; 0x1dc94
        0x0001d09c:    bf00        ..      NOP      
        0x0001d09e:    1bed        ..      SUBS     r5,r5,r7
        0x0001d0a0:    f8da0000    ....    LDR      r0,[r10,#0]
        0x0001d0a4:    4438        8D      ADD      r0,r0,r7
        0x0001d0a6:    f8ca0000    ....    STR      r0,[r10,#0]
        0x0001d0aa:    44bb        .D      ADD      r11,r11,r7
        0x0001d0ac:    6960        `i      LDR      r0,[r4,#0x14]
        0x0001d0ae:    4438        8D      ADD      r0,r0,r7
        0x0001d0b0:    6160        `a      STR      r0,[r4,#0x14]
        0x0001d0b2:    2d00        .-      CMP      r5,#0
        0x0001d0b4:    f47faf54    ..T.    BNE      0x1cf60 ; f_read + 80
        0x0001d0b8:    2000        .       MOVS     r0,#0
        0x0001d0ba:    e73f        ?.      B        0x1cf3c ; f_read + 44
    i.f_sync
    f_sync
        0x0001d0bc:    b5f8        ..      PUSH     {r3-r7,lr}
        0x0001d0be:    4604        .F      MOV      r4,r0
        0x0001d0c0:    4669        iF      MOV      r1,sp
        0x0001d0c2:    4620         F      MOV      r0,r4
        0x0001d0c4:    f001fd7a    ..z.    BL       validate ; 0x1ebbc
        0x0001d0c8:    4606        .F      MOV      r6,r0
        0x0001d0ca:    2e00        ..      CMP      r6,#0
        0x0001d0cc:    d142        B.      BNE      0x1d154 ; f_sync + 152
        0x0001d0ce:    7c20         |      LDRB     r0,[r4,#0x10]
        0x0001d0d0:    f0000040    ..@.    AND      r0,r0,#0x40
        0x0001d0d4:    2800        .(      CMP      r0,#0
        0x0001d0d6:    d03d        =.      BEQ      0x1d154 ; f_sync + 152
        0x0001d0d8:    7c20         |      LDRB     r0,[r4,#0x10]
        0x0001d0da:    f0000080    ....    AND      r0,r0,#0x80
        0x0001d0de:    b170        p.      CBZ      r0,0x1d0fe ; f_sync + 66
        0x0001d0e0:    69e2        .i      LDR      r2,[r4,#0x1c]
        0x0001d0e2:    9900        ..      LDR      r1,[sp,#0]
        0x0001d0e4:    7848        Hx      LDRB     r0,[r1,#1]
        0x0001d0e6:    2301        .#      MOVS     r3,#1
        0x0001d0e8:    f104012c    ..,.    ADD      r1,r4,#0x2c
        0x0001d0ec:    f7fffa10    ....    BL       disk_write ; 0x1c510
        0x0001d0f0:    b108        ..      CBZ      r0,0x1d0f6 ; f_sync + 58
        0x0001d0f2:    2001        .       MOVS     r0,#1
        0x0001d0f4:    bdf8        ..      POP      {r3-r7,pc}
        0x0001d0f6:    7c20         |      LDRB     r0,[r4,#0x10]
        0x0001d0f8:    f000007f    ....    AND      r0,r0,#0x7f
        0x0001d0fc:    7420         t      STRB     r0,[r4,#0x10]
        0x0001d0fe:    4f16        .O      LDR      r7,[pc,#88] ; [0x1d158] = 0x51210000
        0x0001d100:    6a21        !j      LDR      r1,[r4,#0x20]
        0x0001d102:    9800        ..      LDR      r0,[sp,#0]
        0x0001d104:    f001fa6c    ..l.    BL       move_window ; 0x1e5e0
        0x0001d108:    4606        .F      MOV      r6,r0
        0x0001d10a:    bb1e        ..      CBNZ     r6,0x1d154 ; f_sync + 152
        0x0001d10c:    6a65        ej      LDR      r5,[r4,#0x24]
        0x0001d10e:    7ae8        .z      LDRB     r0,[r5,#0xb]
        0x0001d110:    f0400020    @. .    ORR      r0,r0,#0x20
        0x0001d114:    72e8        .r      STRB     r0,[r5,#0xb]
        0x0001d116:    4629        )F      MOV      r1,r5
        0x0001d118:    68a2        .h      LDR      r2,[r4,#8]
        0x0001d11a:    6820         h      LDR      r0,[r4,#0]
        0x0001d11c:    f001fc09    ....    BL       st_clust ; 0x1e932
        0x0001d120:    f105001c    ....    ADD      r0,r5,#0x1c
        0x0001d124:    68e1        .h      LDR      r1,[r4,#0xc]
        0x0001d126:    f001fc16    ....    BL       st_dword ; 0x1e956
        0x0001d12a:    4639        9F      MOV      r1,r7
        0x0001d12c:    f1050016    ....    ADD      r0,r5,#0x16
        0x0001d130:    f001fc11    ....    BL       st_dword ; 0x1e956
        0x0001d134:    2100        .!      MOVS     r1,#0
        0x0001d136:    f1050012    ....    ADD      r0,r5,#0x12
        0x0001d13a:    f001fc18    ....    BL       st_word ; 0x1e96e
        0x0001d13e:    2001        .       MOVS     r0,#1
        0x0001d140:    9900        ..      LDR      r1,[sp,#0]
        0x0001d142:    70c8        .p      STRB     r0,[r1,#3]
        0x0001d144:    9800        ..      LDR      r0,[sp,#0]
        0x0001d146:    f001fc29    ..).    BL       sync_fs ; 0x1e99c
        0x0001d14a:    4606        .F      MOV      r6,r0
        0x0001d14c:    7c20         |      LDRB     r0,[r4,#0x10]
        0x0001d14e:    f00000bf    ....    AND      r0,r0,#0xbf
        0x0001d152:    7420         t      STRB     r0,[r4,#0x10]
        0x0001d154:    4630        0F      MOV      r0,r6
        0x0001d156:    e7cd        ..      B        0x1d0f4 ; f_sync + 56
    $d
        0x0001d158:    51210000    ..!Q    DCD    1361117184
    $t
    i.f_write
    f_write
        0x0001d15c:    e92d4fff    -..O    PUSH     {r0-r11,lr}
        0x0001d160:    b083        ..      SUB      sp,sp,#0xc
        0x0001d162:    4604        .F      MOV      r4,r0
        0x0001d164:    4615        .F      MOV      r5,r2
        0x0001d166:    469b        .F      MOV      r11,r3
        0x0001d168:    9804        ..      LDR      r0,[sp,#0x10]
        0x0001d16a:    9000        ..      STR      r0,[sp,#0]
        0x0001d16c:    2000        .       MOVS     r0,#0
        0x0001d16e:    f8cb0000    ....    STR      r0,[r11,#0]
        0x0001d172:    a901        ..      ADD      r1,sp,#4
        0x0001d174:    4620         F      MOV      r0,r4
        0x0001d176:    f001fd21    ..!.    BL       validate ; 0x1ebbc
        0x0001d17a:    9002        ..      STR      r0,[sp,#8]
        0x0001d17c:    9802        ..      LDR      r0,[sp,#8]
        0x0001d17e:    b910        ..      CBNZ     r0,0x1d186 ; f_write + 42
        0x0001d180:    7c60        `|      LDRB     r0,[r4,#0x11]
        0x0001d182:    9002        ..      STR      r0,[sp,#8]
        0x0001d184:    b118        ..      CBZ      r0,0x1d18e ; f_write + 50
        0x0001d186:    9802        ..      LDR      r0,[sp,#8]
        0x0001d188:    b007        ..      ADD      sp,sp,#0x1c
        0x0001d18a:    e8bd8ff0    ....    POP      {r4-r11,pc}
        0x0001d18e:    7c20         |      LDRB     r0,[r4,#0x10]
        0x0001d190:    f0000002    ....    AND      r0,r0,#2
        0x0001d194:    b908        ..      CBNZ     r0,0x1d19a ; f_write + 62
        0x0001d196:    2007        .       MOVS     r0,#7
        0x0001d198:    e7f6        ..      B        0x1d188 ; f_write + 44
        0x0001d19a:    bf00        ..      NOP      
        0x0001d19c:    6960        `i      LDR      r0,[r4,#0x14]
        0x0001d19e:    4428        (D      ADD      r0,r0,r5
        0x0001d1a0:    6961        ai      LDR      r1,[r4,#0x14]
        0x0001d1a2:    4288        .B      CMP      r0,r1
        0x0001d1a4:    d202        ..      BCS      0x1d1ac ; f_write + 80
        0x0001d1a6:    6960        `i      LDR      r0,[r4,#0x14]
        0x0001d1a8:    f1c035ff    ...5    RSB      r5,r0,#0xffffffff
        0x0001d1ac:    e0c3        ..      B        0x1d336 ; f_write + 474
        0x0001d1ae:    8aa0        ..      LDRH     r0,[r4,#0x14]
        0x0001d1b0:    f3c00008    ....    UBFX     r0,r0,#0,#9
        0x0001d1b4:    2800        .(      CMP      r0,#0
        0x0001d1b6:    d17d        }.      BNE      0x1d2b4 ; f_write + 344
        0x0001d1b8:    9801        ..      LDR      r0,[sp,#4]
        0x0001d1ba:    8940        @.      LDRH     r0,[r0,#0xa]
        0x0001d1bc:    1e40        @.      SUBS     r0,r0,#1
        0x0001d1be:    6961        ai      LDR      r1,[r4,#0x14]
        0x0001d1c0:    ea002a51    ..Q*    AND      r10,r0,r1,LSR #9
        0x0001d1c4:    f1ba0f00    ....    CMP      r10,#0
        0x0001d1c8:    d126        &.      BNE      0x1d218 ; f_write + 188
        0x0001d1ca:    6960        `i      LDR      r0,[r4,#0x14]
        0x0001d1cc:    b938        8.      CBNZ     r0,0x1d1de ; f_write + 130
        0x0001d1ce:    68a7        .h      LDR      r7,[r4,#8]
        0x0001d1d0:    b997        ..      CBNZ     r7,0x1d1f8 ; f_write + 156
        0x0001d1d2:    2100        .!      MOVS     r1,#0
        0x0001d1d4:    4620         F      MOV      r0,r4
        0x0001d1d6:    f7fefc1b    ....    BL       create_chain ; 0x1ba10
        0x0001d1da:    4607        .F      MOV      r7,r0
        0x0001d1dc:    e00c        ..      B        0x1d1f8 ; f_write + 156
        0x0001d1de:    6aa0        .j      LDR      r0,[r4,#0x28]
        0x0001d1e0:    b128        (.      CBZ      r0,0x1d1ee ; f_write + 146
        0x0001d1e2:    4620         F      MOV      r0,r4
        0x0001d1e4:    6961        ai      LDR      r1,[r4,#0x14]
        0x0001d1e6:    f7fefb8d    ....    BL       clmt_clust ; 0x1b904
        0x0001d1ea:    4607        .F      MOV      r7,r0
        0x0001d1ec:    e004        ..      B        0x1d1f8 ; f_write + 156
        0x0001d1ee:    4620         F      MOV      r0,r4
        0x0001d1f0:    69a1        .i      LDR      r1,[r4,#0x18]
        0x0001d1f2:    f7fefc0d    ....    BL       create_chain ; 0x1ba10
        0x0001d1f6:    4607        .F      MOV      r7,r0
        0x0001d1f8:    b907        ..      CBNZ     r7,0x1d1fc ; f_write + 160
        0x0001d1fa:    e09f        ..      B        0x1d33c ; f_write + 480
        0x0001d1fc:    2f01        ./      CMP      r7,#1
        0x0001d1fe:    d102        ..      BNE      0x1d206 ; f_write + 170
        0x0001d200:    2002        .       MOVS     r0,#2
        0x0001d202:    7460        `t      STRB     r0,[r4,#0x11]
        0x0001d204:    e7c0        ..      B        0x1d188 ; f_write + 44
        0x0001d206:    1c78        x.      ADDS     r0,r7,#1
        0x0001d208:    b910        ..      CBNZ     r0,0x1d210 ; f_write + 180
        0x0001d20a:    2001        .       MOVS     r0,#1
        0x0001d20c:    7460        `t      STRB     r0,[r4,#0x11]
        0x0001d20e:    e7bb        ..      B        0x1d188 ; f_write + 44
        0x0001d210:    61a7        .a      STR      r7,[r4,#0x18]
        0x0001d212:    68a0        .h      LDR      r0,[r4,#8]
        0x0001d214:    b900        ..      CBNZ     r0,0x1d218 ; f_write + 188
        0x0001d216:    60a7        .`      STR      r7,[r4,#8]
        0x0001d218:    7c20         |      LDRB     r0,[r4,#0x10]
        0x0001d21a:    f0000080    ....    AND      r0,r0,#0x80
        0x0001d21e:    b178        x.      CBZ      r0,0x1d240 ; f_write + 228
        0x0001d220:    69e2        .i      LDR      r2,[r4,#0x1c]
        0x0001d222:    9901        ..      LDR      r1,[sp,#4]
        0x0001d224:    7848        Hx      LDRB     r0,[r1,#1]
        0x0001d226:    2301        .#      MOVS     r3,#1
        0x0001d228:    f104012c    ..,.    ADD      r1,r4,#0x2c
        0x0001d22c:    f7fff970    ..p.    BL       disk_write ; 0x1c510
        0x0001d230:    b110        ..      CBZ      r0,0x1d238 ; f_write + 220
        0x0001d232:    2001        .       MOVS     r0,#1
        0x0001d234:    7460        `t      STRB     r0,[r4,#0x11]
        0x0001d236:    e7a7        ..      B        0x1d188 ; f_write + 44
        0x0001d238:    7c20         |      LDRB     r0,[r4,#0x10]
        0x0001d23a:    f000007f    ....    AND      r0,r0,#0x7f
        0x0001d23e:    7420         t      STRB     r0,[r4,#0x10]
        0x0001d240:    69a1        .i      LDR      r1,[r4,#0x18]
        0x0001d242:    9801        ..      LDR      r0,[sp,#4]
        0x0001d244:    f7fefb77    ..w.    BL       clst2sect ; 0x1b936
        0x0001d248:    4606        .F      MOV      r6,r0
        0x0001d24a:    b916        ..      CBNZ     r6,0x1d252 ; f_write + 246
        0x0001d24c:    2002        .       MOVS     r0,#2
        0x0001d24e:    7460        `t      STRB     r0,[r4,#0x11]
        0x0001d250:    e79a        ..      B        0x1d188 ; f_write + 44
        0x0001d252:    4456        VD      ADD      r6,r6,r10
        0x0001d254:    ea4f2955    O.U)    LSR      r9,r5,#9
        0x0001d258:    f1b90f00    ....    CMP      r9,#0
        0x0001d25c:    d02b        +.      BEQ      0x1d2b6 ; f_write + 346
        0x0001d25e:    eb0a0009    ....    ADD      r0,r10,r9
        0x0001d262:    9901        ..      LDR      r1,[sp,#4]
        0x0001d264:    8949        I.      LDRH     r1,[r1,#0xa]
        0x0001d266:    4288        .B      CMP      r0,r1
        0x0001d268:    d903        ..      BLS      0x1d272 ; f_write + 278
        0x0001d26a:    9801        ..      LDR      r0,[sp,#4]
        0x0001d26c:    8940        @.      LDRH     r0,[r0,#0xa]
        0x0001d26e:    eba0090a    ....    SUB      r9,r0,r10
        0x0001d272:    9901        ..      LDR      r1,[sp,#4]
        0x0001d274:    7848        Hx      LDRB     r0,[r1,#1]
        0x0001d276:    464b        KF      MOV      r3,r9
        0x0001d278:    4632        2F      MOV      r2,r6
        0x0001d27a:    9900        ..      LDR      r1,[sp,#0]
        0x0001d27c:    f7fff948    ..H.    BL       disk_write ; 0x1c510
        0x0001d280:    b110        ..      CBZ      r0,0x1d288 ; f_write + 300
        0x0001d282:    2001        .       MOVS     r0,#1
        0x0001d284:    7460        `t      STRB     r0,[r4,#0x11]
        0x0001d286:    e77f        ..      B        0x1d188 ; f_write + 44
        0x0001d288:    69e0        .i      LDR      r0,[r4,#0x1c]
        0x0001d28a:    1b80        ..      SUBS     r0,r0,r6
        0x0001d28c:    4548        HE      CMP      r0,r9
        0x0001d28e:    d20e        ..      BCS      0x1d2ae ; f_write + 338
        0x0001d290:    69e0        .i      LDR      r0,[r4,#0x1c]
        0x0001d292:    1b80        ..      SUBS     r0,r0,r6
        0x0001d294:    9a00        ..      LDR      r2,[sp,#0]
        0x0001d296:    eb022140    ..@!    ADD      r1,r2,r0,LSL #9
        0x0001d29a:    f44f7200    O..r    MOV      r2,#0x200
        0x0001d29e:    f104002c    ..,.    ADD      r0,r4,#0x2c
        0x0001d2a2:    f000fcf7    ....    BL       mem_cpy ; 0x1dc94
        0x0001d2a6:    7c20         |      LDRB     r0,[r4,#0x10]
        0x0001d2a8:    f000007f    ....    AND      r0,r0,#0x7f
        0x0001d2ac:    7420         t      STRB     r0,[r4,#0x10]
        0x0001d2ae:    ea4f2849    O.I(    LSL      r8,r9,#9
        0x0001d2b2:    e02b        +.      B        0x1d30c ; f_write + 432
        0x0001d2b4:    e013        ..      B        0x1d2de ; f_write + 386
        0x0001d2b6:    69e0        .i      LDR      r0,[r4,#0x1c]
        0x0001d2b8:    42b0        .B      CMP      r0,r6
        0x0001d2ba:    d00f        ..      BEQ      0x1d2dc ; f_write + 384
        0x0001d2bc:    68e1        .h      LDR      r1,[r4,#0xc]
        0x0001d2be:    6960        `i      LDR      r0,[r4,#0x14]
        0x0001d2c0:    4288        .B      CMP      r0,r1
        0x0001d2c2:    d20b        ..      BCS      0x1d2dc ; f_write + 384
        0x0001d2c4:    9901        ..      LDR      r1,[sp,#4]
        0x0001d2c6:    7848        Hx      LDRB     r0,[r1,#1]
        0x0001d2c8:    2301        .#      MOVS     r3,#1
        0x0001d2ca:    4632        2F      MOV      r2,r6
        0x0001d2cc:    f104012c    ..,.    ADD      r1,r4,#0x2c
        0x0001d2d0:    f7fff906    ....    BL       disk_read ; 0x1c4e0
        0x0001d2d4:    b110        ..      CBZ      r0,0x1d2dc ; f_write + 384
        0x0001d2d6:    2001        .       MOVS     r0,#1
        0x0001d2d8:    7460        `t      STRB     r0,[r4,#0x11]
        0x0001d2da:    e755        U.      B        0x1d188 ; f_write + 44
        0x0001d2dc:    61e6        .a      STR      r6,[r4,#0x1c]
        0x0001d2de:    8aa0        ..      LDRH     r0,[r4,#0x14]
        0x0001d2e0:    f3c00008    ....    UBFX     r0,r0,#0,#9
        0x0001d2e4:    f5c07800    ...x    RSB      r8,r0,#0x200
        0x0001d2e8:    45a8        .E      CMP      r8,r5
        0x0001d2ea:    d900        ..      BLS      0x1d2ee ; f_write + 402
        0x0001d2ec:    46a8        .F      MOV      r8,r5
        0x0001d2ee:    8aa1        ..      LDRH     r1,[r4,#0x14]
        0x0001d2f0:    f3c10208    ....    UBFX     r2,r1,#0,#9
        0x0001d2f4:    f104012c    ..,.    ADD      r1,r4,#0x2c
        0x0001d2f8:    1850        P.      ADDS     r0,r2,r1
        0x0001d2fa:    4642        BF      MOV      r2,r8
        0x0001d2fc:    9900        ..      LDR      r1,[sp,#0]
        0x0001d2fe:    f000fcc9    ....    BL       mem_cpy ; 0x1dc94
        0x0001d302:    7c20         |      LDRB     r0,[r4,#0x10]
        0x0001d304:    f0400080    @...    ORR      r0,r0,#0x80
        0x0001d308:    7420         t      STRB     r0,[r4,#0x10]
        0x0001d30a:    bf00        ..      NOP      
        0x0001d30c:    eba50508    ....    SUB      r5,r5,r8
        0x0001d310:    f8db0000    ....    LDR      r0,[r11,#0]
        0x0001d314:    4440        @D      ADD      r0,r0,r8
        0x0001d316:    f8cb0000    ....    STR      r0,[r11,#0]
        0x0001d31a:    9800        ..      LDR      r0,[sp,#0]
        0x0001d31c:    4440        @D      ADD      r0,r0,r8
        0x0001d31e:    9000        ..      STR      r0,[sp,#0]
        0x0001d320:    6960        `i      LDR      r0,[r4,#0x14]
        0x0001d322:    4440        @D      ADD      r0,r0,r8
        0x0001d324:    6160        `a      STR      r0,[r4,#0x14]
        0x0001d326:    68e1        .h      LDR      r1,[r4,#0xc]
        0x0001d328:    6960        `i      LDR      r0,[r4,#0x14]
        0x0001d32a:    4288        .B      CMP      r0,r1
        0x0001d32c:    d901        ..      BLS      0x1d332 ; f_write + 470
        0x0001d32e:    6960        `i      LDR      r0,[r4,#0x14]
        0x0001d330:    e000        ..      B        0x1d334 ; f_write + 472
        0x0001d332:    68e0        .h      LDR      r0,[r4,#0xc]
        0x0001d334:    60e0        .`      STR      r0,[r4,#0xc]
        0x0001d336:    2d00        .-      CMP      r5,#0
        0x0001d338:    f47faf39    ..9.    BNE      0x1d1ae ; f_write + 82
        0x0001d33c:    bf00        ..      NOP      
        0x0001d33e:    7c20         |      LDRB     r0,[r4,#0x10]
        0x0001d340:    f0400040    @.@.    ORR      r0,r0,#0x40
        0x0001d344:    7420         t      STRB     r0,[r4,#0x10]
        0x0001d346:    2000        .       MOVS     r0,#0
        0x0001d348:    e71e        ..      B        0x1d188 ; f_write + 44
        0x0001d34a:    0000        ..      MOVS     r0,r0
    i.ff_oem2uni
    ff_oem2uni
        0x0001d34c:    b510        ..      PUSH     {r4,lr}
        0x0001d34e:    4602        .F      MOV      r2,r0
        0x0001d350:    2000        .       MOVS     r0,#0
        0x0001d352:    4b08        .K      LDR      r3,[pc,#32] ; [0x1d374] = 0x1edc8
        0x0001d354:    2a80        .*      CMP      r2,#0x80
        0x0001d356:    da01        ..      BGE      0x1d35c ; ff_oem2uni + 16
        0x0001d358:    4610        .F      MOV      r0,r2
        0x0001d35a:    e009        ..      B        0x1d370 ; ff_oem2uni + 36
        0x0001d35c:    f2403452    @.R4    MOV      r4,#0x352
        0x0001d360:    42a1        .B      CMP      r1,r4
        0x0001d362:    d105        ..      BNE      0x1d370 ; ff_oem2uni + 36
        0x0001d364:    2aff        .*      CMP      r2,#0xff
        0x0001d366:    dc03        ..      BGT      0x1d370 ; ff_oem2uni + 36
        0x0001d368:    f1a20480    ....    SUB      r4,r2,#0x80
        0x0001d36c:    f8330014    3...    LDRH     r0,[r3,r4,LSL #1]
        0x0001d370:    bd10        ..      POP      {r4,pc}
    $d
        0x0001d372:    0000        ..      DCW    0
        0x0001d374:    0001edc8    ....    DCD    126408
    $t
    i.ff_uni2oem
    ff_uni2oem
        0x0001d378:    b510        ..      PUSH     {r4,lr}
        0x0001d37a:    4602        .F      MOV      r2,r0
        0x0001d37c:    2000        .       MOVS     r0,#0
        0x0001d37e:    4b0d        .K      LDR      r3,[pc,#52] ; [0x1d3b4] = 0x1edc8
        0x0001d380:    2a80        .*      CMP      r2,#0x80
        0x0001d382:    d201        ..      BCS      0x1d388 ; ff_uni2oem + 16
        0x0001d384:    b290        ..      UXTH     r0,r2
        0x0001d386:    e013        ..      B        0x1d3b0 ; ff_uni2oem + 56
        0x0001d388:    f5b23f80    ...?    CMP      r2,#0x10000
        0x0001d38c:    d210        ..      BCS      0x1d3b0 ; ff_uni2oem + 56
        0x0001d38e:    f2403452    @.R4    MOV      r4,#0x352
        0x0001d392:    42a1        .B      CMP      r1,r4
        0x0001d394:    d10c        ..      BNE      0x1d3b0 ; ff_uni2oem + 56
        0x0001d396:    2000        .       MOVS     r0,#0
        0x0001d398:    e001        ..      B        0x1d39e ; ff_uni2oem + 38
        0x0001d39a:    1c44        D.      ADDS     r4,r0,#1
        0x0001d39c:    b2a0        ..      UXTH     r0,r4
        0x0001d39e:    2880        .(      CMP      r0,#0x80
        0x0001d3a0:    da03        ..      BGE      0x1d3aa ; ff_uni2oem + 50
        0x0001d3a2:    f8334010    3..@    LDRH     r4,[r3,r0,LSL #1]
        0x0001d3a6:    4294        .B      CMP      r4,r2
        0x0001d3a8:    d1f7        ..      BNE      0x1d39a ; ff_uni2oem + 34
        0x0001d3aa:    f1000480    ....    ADD      r4,r0,#0x80
        0x0001d3ae:    b2e0        ..      UXTB     r0,r4
        0x0001d3b0:    bd10        ..      POP      {r4,pc}
    $d
        0x0001d3b2:    0000        ..      DCW    0
        0x0001d3b4:    0001edc8    ....    DCD    126408
    $t
    i.ff_wtoupper
    ff_wtoupper
        0x0001d3b8:    b570        p.      PUSH     {r4-r6,lr}
        0x0001d3ba:    f5b03f80    ...?    CMP      r0,#0x10000
        0x0001d3be:    d24d        M.      BCS      0x1d45c ; ff_wtoupper + 164
        0x0001d3c0:    b281        ..      UXTH     r1,r0
        0x0001d3c2:    f5b15f80    ..._    CMP      r1,#0x1000
        0x0001d3c6:    da01        ..      BGE      0x1d3cc ; ff_wtoupper + 20
        0x0001d3c8:    4e25        %N      LDR      r6,[pc,#148] ; [0x1d460] = 0x1eec8
        0x0001d3ca:    e000        ..      B        0x1d3ce ; ff_wtoupper + 22
        0x0001d3cc:    4e25        %N      LDR      r6,[pc,#148] ; [0x1d464] = 0x1f0ba
        0x0001d3ce:    4632        2F      MOV      r2,r6
        0x0001d3d0:    bf00        ..      NOP      
        0x0001d3d2:    f8323b02    2..;    LDRH     r3,[r2],#2
        0x0001d3d6:    b10b        ..      CBZ      r3,0x1d3dc ; ff_wtoupper + 36
        0x0001d3d8:    4299        .B      CMP      r1,r3
        0x0001d3da:    da00        ..      BGE      0x1d3de ; ff_wtoupper + 38
        0x0001d3dc:    e03c        <.      B        0x1d458 ; ff_wtoupper + 160
        0x0001d3de:    f8324b02    2..K    LDRH     r4,[r2],#2
        0x0001d3e2:    1225        %.      ASRS     r5,r4,#8
        0x0001d3e4:    b2e4        ..      UXTB     r4,r4
        0x0001d3e6:    191e        ..      ADDS     r6,r3,r4
        0x0001d3e8:    428e        .B      CMP      r6,r1
        0x0001d3ea:    dd30        0.      BLE      0x1d44e ; ff_wtoupper + 150
        0x0001d3ec:    2d09        .-      CMP      r5,#9
        0x0001d3ee:    d22c        ,.      BCS      0x1d44a ; ff_wtoupper + 146
        0x0001d3f0:    e8dff005    ....    TBB      [pc,r5]
    $d
        0x0001d3f4:    130f0905    ....    DCD    319752453
        0x0001d3f8:    231f1b17    ...#    DCD    589241111
        0x0001d3fc:    0027        '.      DCW    39
    $t
        0x0001d3fe:    1ace        ..      SUBS     r6,r1,r3
        0x0001d400:    f8321016    2...    LDRH     r1,[r2,r6,LSL #1]
        0x0001d404:    e021        !.      B        0x1d44a ; ff_wtoupper + 146
        0x0001d406:    1ace        ..      SUBS     r6,r1,r3
        0x0001d408:    f0060601    ....    AND      r6,r6,#1
        0x0001d40c:    1b8e        ..      SUBS     r6,r1,r6
        0x0001d40e:    b2b1        ..      UXTH     r1,r6
        0x0001d410:    e01b        ..      B        0x1d44a ; ff_wtoupper + 146
        0x0001d412:    f1a10610    ....    SUB      r6,r1,#0x10
        0x0001d416:    b2b1        ..      UXTH     r1,r6
        0x0001d418:    e017        ..      B        0x1d44a ; ff_wtoupper + 146
        0x0001d41a:    f1a10620    .. .    SUB      r6,r1,#0x20
        0x0001d41e:    b2b1        ..      UXTH     r1,r6
        0x0001d420:    e013        ..      B        0x1d44a ; ff_wtoupper + 146
        0x0001d422:    f1a10630    ..0.    SUB      r6,r1,#0x30
        0x0001d426:    b2b1        ..      UXTH     r1,r6
        0x0001d428:    e00f        ..      B        0x1d44a ; ff_wtoupper + 146
        0x0001d42a:    f1a1061a    ....    SUB      r6,r1,#0x1a
        0x0001d42e:    b2b1        ..      UXTH     r1,r6
        0x0001d430:    e00b        ..      B        0x1d44a ; ff_wtoupper + 146
        0x0001d432:    f1010608    ....    ADD      r6,r1,#8
        0x0001d436:    b2b1        ..      UXTH     r1,r6
        0x0001d438:    e007        ..      B        0x1d44a ; ff_wtoupper + 146
        0x0001d43a:    f1a10650    ..P.    SUB      r6,r1,#0x50
        0x0001d43e:    b2b1        ..      UXTH     r1,r6
        0x0001d440:    e003        ..      B        0x1d44a ; ff_wtoupper + 146
        0x0001d442:    f5a156e3    ...V    SUB      r6,r1,#0x1c60
        0x0001d446:    b2b1        ..      UXTH     r1,r6
        0x0001d448:    bf00        ..      NOP      
        0x0001d44a:    bf00        ..      NOP      
        0x0001d44c:    e004        ..      B        0x1d458 ; ff_wtoupper + 160
        0x0001d44e:    2d00        .-      CMP      r5,#0
        0x0001d450:    d1bf        ..      BNE      0x1d3d2 ; ff_wtoupper + 26
        0x0001d452:    eb020244    ..D.    ADD      r2,r2,r4,LSL #1
        0x0001d456:    e7bc        ..      B        0x1d3d2 ; ff_wtoupper + 26
        0x0001d458:    bf00        ..      NOP      
        0x0001d45a:    4608        .F      MOV      r0,r1
        0x0001d45c:    bd70        p.      POP      {r4-r6,pc}
    $d
        0x0001d45e:    0000        ..      DCW    0
        0x0001d460:    0001eec8    ....    DCD    126664
        0x0001d464:    0001f0ba    ....    DCD    127162
    $t
    i.find_volume
    find_volume
        0x0001d468:    e92d41ff    -..A    PUSH     {r0-r8,lr}
        0x0001d46c:    4607        .F      MOV      r7,r0
        0x0001d46e:    460d        .F      MOV      r5,r1
        0x0001d470:    2100        .!      MOVS     r1,#0
        0x0001d472:    4638        8F      MOV      r0,r7
        0x0001d474:    f7fef9aa    ....    BL       check_fs ; 0x1b7cc
        0x0001d478:    4606        .F      MOV      r6,r0
        0x0001d47a:    2e02        ..      CMP      r6,#2
        0x0001d47c:    d006        ..      BEQ      0x1d48c ; find_volume + 36
        0x0001d47e:    2e03        ..      CMP      r6,#3
        0x0001d480:    d200        ..      BCS      0x1d484 ; find_volume + 28
        0x0001d482:    b91d        ..      CBNZ     r5,0x1d48c ; find_volume + 36
        0x0001d484:    4630        0F      MOV      r0,r6
        0x0001d486:    b004        ..      ADD      sp,sp,#0x10
        0x0001d488:    e8bd81f0    ....    POP      {r4-r8,pc}
        0x0001d48c:    bf00        ..      NOP      
        0x0001d48e:    2400        .$      MOVS     r4,#0
        0x0001d490:    e00a        ..      B        0x1d4a8 ; find_volume + 64
        0x0001d492:    f50771fb    ...q    ADD      r1,r7,#0x1f6
        0x0001d496:    eb011104    ....    ADD      r1,r1,r4,LSL #4
        0x0001d49a:    f1010008    ....    ADD      r0,r1,#8
        0x0001d49e:    f000fa54    ..T.    BL       ld_dword ; 0x1d94a
        0x0001d4a2:    f84d0024    M.$.    STR      r0,[sp,r4,LSL #2]
        0x0001d4a6:    1c64        d.      ADDS     r4,r4,#1
        0x0001d4a8:    2c04        .,      CMP      r4,#4
        0x0001d4aa:    d3f2        ..      BCC      0x1d492 ; find_volume + 42
        0x0001d4ac:    b10d        ..      CBZ      r5,0x1d4b2 ; find_volume + 74
        0x0001d4ae:    1e68        h.      SUBS     r0,r5,#1
        0x0001d4b0:    e000        ..      B        0x1d4b4 ; find_volume + 76
        0x0001d4b2:    2000        .       MOVS     r0,#0
        0x0001d4b4:    4604        .F      MOV      r4,r0
        0x0001d4b6:    bf00        ..      NOP      
        0x0001d4b8:    f85d0024    ].$.    LDR      r0,[sp,r4,LSL #2]
        0x0001d4bc:    b128        (.      CBZ      r0,0x1d4ca ; find_volume + 98
        0x0001d4be:    f85d1024    ].$.    LDR      r1,[sp,r4,LSL #2]
        0x0001d4c2:    4638        8F      MOV      r0,r7
        0x0001d4c4:    f7fef982    ....    BL       check_fs ; 0x1b7cc
        0x0001d4c8:    e000        ..      B        0x1d4cc ; find_volume + 100
        0x0001d4ca:    2003        .       MOVS     r0,#3
        0x0001d4cc:    4606        .F      MOV      r6,r0
        0x0001d4ce:    b92d        -.      CBNZ     r5,0x1d4dc ; find_volume + 116
        0x0001d4d0:    2e02        ..      CMP      r6,#2
        0x0001d4d2:    d303        ..      BCC      0x1d4dc ; find_volume + 116
        0x0001d4d4:    1c60        `.      ADDS     r0,r4,#1
        0x0001d4d6:    4604        .F      MOV      r4,r0
        0x0001d4d8:    2804        .(      CMP      r0,#4
        0x0001d4da:    d3ed        ..      BCC      0x1d4b8 ; find_volume + 80
        0x0001d4dc:    4630        0F      MOV      r0,r6
        0x0001d4de:    e7d2        ..      B        0x1d486 ; find_volume + 30
    i.follow_path
    follow_path
        0x0001d4e0:    e92d41f3    -..A    PUSH     {r0,r1,r4-r8,lr}
        0x0001d4e4:    4604        .F      MOV      r4,r0
        0x0001d4e6:    6827        'h      LDR      r7,[r4,#0]
        0x0001d4e8:    9801        ..      LDR      r0,[sp,#4]
        0x0001d4ea:    7800        .x      LDRB     r0,[r0,#0]
        0x0001d4ec:    282f        /(      CMP      r0,#0x2f
        0x0001d4ee:    d006        ..      BEQ      0x1d4fe ; follow_path + 30
        0x0001d4f0:    9801        ..      LDR      r0,[sp,#4]
        0x0001d4f2:    7800        .x      LDRB     r0,[r0,#0]
        0x0001d4f4:    285c        \(      CMP      r0,#0x5c
        0x0001d4f6:    d002        ..      BEQ      0x1d4fe ; follow_path + 30
        0x0001d4f8:    69b8        .i      LDR      r0,[r7,#0x18]
        0x0001d4fa:    60a0        .`      STR      r0,[r4,#8]
        0x0001d4fc:    e00d        ..      B        0x1d51a ; follow_path + 58
        0x0001d4fe:    e002        ..      B        0x1d506 ; follow_path + 38
        0x0001d500:    9801        ..      LDR      r0,[sp,#4]
        0x0001d502:    1c40        @.      ADDS     r0,r0,#1
        0x0001d504:    9001        ..      STR      r0,[sp,#4]
        0x0001d506:    9801        ..      LDR      r0,[sp,#4]
        0x0001d508:    7800        .x      LDRB     r0,[r0,#0]
        0x0001d50a:    282f        /(      CMP      r0,#0x2f
        0x0001d50c:    d0f8        ..      BEQ      0x1d500 ; follow_path + 32
        0x0001d50e:    9801        ..      LDR      r0,[sp,#4]
        0x0001d510:    7800        .x      LDRB     r0,[r0,#0]
        0x0001d512:    285c        \(      CMP      r0,#0x5c
        0x0001d514:    d0f4        ..      BEQ      0x1d500 ; follow_path + 32
        0x0001d516:    2000        .       MOVS     r0,#0
        0x0001d518:    60a0        .`      STR      r0,[r4,#8]
        0x0001d51a:    9801        ..      LDR      r0,[sp,#4]
        0x0001d51c:    7800        .x      LDRB     r0,[r0,#0]
        0x0001d51e:    2820         (      CMP      r0,#0x20
        0x0001d520:    d208        ..      BCS      0x1d534 ; follow_path + 84
        0x0001d522:    2180        .!      MOVS     r1,#0x80
        0x0001d524:    202b        +       MOVS     r0,#0x2b
        0x0001d526:    5501        .U      STRB     r1,[r0,r4]
        0x0001d528:    2100        .!      MOVS     r1,#0
        0x0001d52a:    4620         F      MOV      r0,r4
        0x0001d52c:    f7feff77    ..w.    BL       dir_sdi ; 0x1c41e
        0x0001d530:    4605        .F      MOV      r5,r0
        0x0001d532:    e037        7.      B        0x1d5a4 ; follow_path + 196
        0x0001d534:    bf00        ..      NOP      
        0x0001d536:    a901        ..      ADD      r1,sp,#4
        0x0001d538:    4620         F      MOV      r0,r4
        0x0001d53a:    f7fefaf9    ....    BL       create_name ; 0x1bb30
        0x0001d53e:    4605        .F      MOV      r5,r0
        0x0001d540:    b105        ..      CBZ      r5,0x1d544 ; follow_path + 100
        0x0001d542:    e02e        ..      B        0x1d5a2 ; follow_path + 194
        0x0001d544:    4620         F      MOV      r0,r4
        0x0001d546:    f7fefde6    ....    BL       dir_find ; 0x1c116
        0x0001d54a:    4605        .F      MOV      r5,r0
        0x0001d54c:    202b        +       MOVS     r0,#0x2b
        0x0001d54e:    5d06        .]      LDRB     r6,[r0,r4]
        0x0001d550:    b195        ..      CBZ      r5,0x1d578 ; follow_path + 152
        0x0001d552:    2d04        .-      CMP      r5,#4
        0x0001d554:    d10f        ..      BNE      0x1d576 ; follow_path + 150
        0x0001d556:    f0060020    .. .    AND      r0,r6,#0x20
        0x0001d55a:    b140        @.      CBZ      r0,0x1d56e ; follow_path + 142
        0x0001d55c:    f0060004    ....    AND      r0,r6,#4
        0x0001d560:    b900        ..      CBNZ     r0,0x1d564 ; follow_path + 132
        0x0001d562:    e7e8        ..      B        0x1d536 ; follow_path + 86
        0x0001d564:    2180        .!      MOVS     r1,#0x80
        0x0001d566:    202b        +       MOVS     r0,#0x2b
        0x0001d568:    5501        .U      STRB     r1,[r0,r4]
        0x0001d56a:    2500        .%      MOVS     r5,#0
        0x0001d56c:    e003        ..      B        0x1d576 ; follow_path + 150
        0x0001d56e:    f0060004    ....    AND      r0,r6,#4
        0x0001d572:    b900        ..      CBNZ     r0,0x1d576 ; follow_path + 150
        0x0001d574:    2505        .%      MOVS     r5,#5
        0x0001d576:    e014        ..      B        0x1d5a2 ; follow_path + 194
        0x0001d578:    f0060004    ....    AND      r0,r6,#4
        0x0001d57c:    b100        ..      CBZ      r0,0x1d580 ; follow_path + 160
        0x0001d57e:    e010        ..      B        0x1d5a2 ; follow_path + 194
        0x0001d580:    79a0        .y      LDRB     r0,[r4,#6]
        0x0001d582:    f0000010    ....    AND      r0,r0,#0x10
        0x0001d586:    b908        ..      CBNZ     r0,0x1d58c ; follow_path + 172
        0x0001d588:    2505        .%      MOVS     r5,#5
        0x0001d58a:    e00a        ..      B        0x1d5a2 ; follow_path + 194
        0x0001d58c:    8a20         .      LDRH     r0,[r4,#0x10]
        0x0001d58e:    f3c00208    ....    UBFX     r2,r0,#0,#9
        0x0001d592:    f1070038    ..8.    ADD      r0,r7,#0x38
        0x0001d596:    1811        ..      ADDS     r1,r2,r0
        0x0001d598:    4638        8F      MOV      r0,r7
        0x0001d59a:    f000f9c3    ....    BL       ld_clust ; 0x1d924
        0x0001d59e:    60a0        .`      STR      r0,[r4,#8]
        0x0001d5a0:    e7c9        ..      B        0x1d536 ; follow_path + 86
        0x0001d5a2:    bf00        ..      NOP      
        0x0001d5a4:    4628        (F      MOV      r0,r5
        0x0001d5a6:    e8bd81fc    ....    POP      {r2-r8,pc}
        0x0001d5aa:    0000        ..      MOVS     r0,r0
    i.ftoa
    ftoa
        0x0001d5ac:    e92d4ff3    -..O    PUSH     {r0,r1,r4-r11,lr}
        0x0001d5b0:    ed2d0b02    -...    VPUSH    {d0}
        0x0001d5b4:    ed2d8b02    -...    VPUSH    {d8}
        0x0001d5b8:    b081        ..      SUB      sp,sp,#4
        0x0001d5ba:    eeb08a40    ..@.    VMOV.F32 s16,s0
        0x0001d5be:    4604        .F      MOV      r4,r0
        0x0001d5c0:    f8d4b000    ....    LDR      r11,[r4,#0]
        0x0001d5c4:    f1bb0f04    ....    CMP      r11,#4
        0x0001d5c8:    da07        ..      BGE      0x1d5da ; ftoa + 46
        0x0001d5ca:    f06f0002    o...    MVN      r0,#2
        0x0001d5ce:    b001        ..      ADD      sp,sp,#4
        0x0001d5d0:    ecbd8b02    ....    VPOP     {d8}
        0x0001d5d4:    b004        ..      ADD      sp,sp,#0x10
        0x0001d5d6:    e8bd8ff0    ....    POP      {r4-r11,pc}
        0x0001d5da:    eeb58ac0    ....    VCMPE.F32 s16,#0.0
        0x0001d5de:    eef1fa10    ....    VMRS     APSR_nzcv,FPSCR
        0x0001d5e2:    d103        ..      BNE      0x1d5ec ; ftoa + 64
        0x0001d5e4:    484e        NH      LDR      r0,[pc,#312] ; [0x1d720] = 0x302e30
        0x0001d5e6:    6020         `      STR      r0,[r4,#0]
        0x0001d5e8:    2003        .       MOVS     r0,#3
        0x0001d5ea:    e7f0        ..      B        0x1d5ce ; ftoa + 34
        0x0001d5ec:    46a2        .F      MOV      r10,r4
        0x0001d5ee:    ed8d8a00    ....    VSTR     s16,[sp,#0]
        0x0001d5f2:    9800        ..      LDR      r0,[sp,#0]
        0x0001d5f4:    f3c050c7    ...P    UBFX     r0,r0,#23,#8
        0x0001d5f8:    f1a0057f    ....    SUB      r5,r0,#0x7f
        0x0001d5fc:    9800        ..      LDR      r0,[sp,#0]
        0x0001d5fe:    f020407f     ..@    BIC      r0,r0,#0xff000000
        0x0001d602:    f4400900    @...    ORR      r9,r0,#0x800000
        0x0001d606:    f04f0800    O...    MOV      r8,#0
        0x0001d60a:    2700        .'      MOVS     r7,#0
        0x0001d60c:    2d1f        .-      CMP      r5,#0x1f
        0x0001d60e:    db01        ..      BLT      0x1d614 ; ftoa + 104
        0x0001d610:    1eb8        ..      SUBS     r0,r7,#2
        0x0001d612:    e7dc        ..      B        0x1d5ce ; ftoa + 34
        0x0001d614:    f1150f17    ....    CMN      r5,#0x17
        0x0001d618:    da02        ..      BGE      0x1d620 ; ftoa + 116
        0x0001d61a:    f04f30ff    O..0    MOV      r0,#0xffffffff
        0x0001d61e:    e7d6        ..      B        0x1d5ce ; ftoa + 34
        0x0001d620:    2d17        .-      CMP      r5,#0x17
        0x0001d622:    db04        ..      BLT      0x1d62e ; ftoa + 130
        0x0001d624:    f1a50017    ....    SUB      r0,r5,#0x17
        0x0001d628:    fa09f700    ....    LSL      r7,r9,r0
        0x0001d62c:    e011        ..      B        0x1d652 ; ftoa + 166
        0x0001d62e:    2d00        .-      CMP      r5,#0
        0x0001d630:    db09        ..      BLT      0x1d646 ; ftoa + 154
        0x0001d632:    f1c50017    ....    RSB      r0,r5,#0x17
        0x0001d636:    fa49f700    I...    ASR      r7,r9,r0
        0x0001d63a:    1c68        h.      ADDS     r0,r5,#1
        0x0001d63c:    fa09f000    ....    LSL      r0,r9,r0
        0x0001d640:    f020487f     ..H    BIC      r8,r0,#0xff000000
        0x0001d644:    e005        ..      B        0x1d652 ; ftoa + 166
        0x0001d646:    f029407f    )..@    BIC      r0,r9,#0xff000000
        0x0001d64a:    1c69        i.      ADDS     r1,r5,#1
        0x0001d64c:    4249        IB      RSBS     r1,r1,#0
        0x0001d64e:    fa40f801    @...    ASR      r8,r0,r1
        0x0001d652:    9800        ..      LDR      r0,[sp,#0]
        0x0001d654:    2800        .(      CMP      r0,#0
        0x0001d656:    da02        ..      BGE      0x1d65e ; ftoa + 178
        0x0001d658:    202d        -       MOVS     r0,#0x2d
        0x0001d65a:    f8040b01    ....    STRB     r0,[r4],#1
        0x0001d65e:    b91f        ..      CBNZ     r7,0x1d668 ; ftoa + 188
        0x0001d660:    2030        0       MOVS     r0,#0x30
        0x0001d662:    f8040b01    ....    STRB     r0,[r4],#1
        0x0001d666:    e014        ..      B        0x1d692 ; ftoa + 230
        0x0001d668:    2f00        ./      CMP      r7,#0
        0x0001d66a:    dd05        ..      BLE      0x1d678 ; ftoa + 204
        0x0001d66c:    4622        "F      MOV      r2,r4
        0x0001d66e:    4638        8F      MOV      r0,r7
        0x0001d670:    17f9        ..      ASRS     r1,r7,#31
        0x0001d672:    f001fa6b    ..k.    BL       uint64_to_str ; 0x1eb4c
        0x0001d676:    e007        ..      B        0x1d688 ; ftoa + 220
        0x0001d678:    202d        -       MOVS     r0,#0x2d
        0x0001d67a:    f8040b01    ....    STRB     r0,[r4],#1
        0x0001d67e:    4622        "F      MOV      r2,r4
        0x0001d680:    4278        xB      RSBS     r0,r7,#0
        0x0001d682:    17c1        ..      ASRS     r1,r0,#31
        0x0001d684:    f001fa62    ..b.    BL       uint64_to_str ; 0x1eb4c
        0x0001d688:    e000        ..      B        0x1d68c ; ftoa + 224
        0x0001d68a:    1c64        d.      ADDS     r4,r4,#1
        0x0001d68c:    7820         x      LDRB     r0,[r4,#0]
        0x0001d68e:    2800        .(      CMP      r0,#0
        0x0001d690:    d1fb        ..      BNE      0x1d68a ; ftoa + 222
        0x0001d692:    202e        .       MOVS     r0,#0x2e
        0x0001d694:    f8040b01    ....    STRB     r0,[r4],#1
        0x0001d698:    f1b80f00    ....    CMP      r8,#0
        0x0001d69c:    d103        ..      BNE      0x1d6a6 ; ftoa + 250
        0x0001d69e:    2030        0       MOVS     r0,#0x30
        0x0001d6a0:    f8040b01    ....    STRB     r0,[r4],#1
        0x0001d6a4:    e036        6.      B        0x1d714 ; ftoa + 360
        0x0001d6a6:    eba4020a    ....    SUB      r2,r4,r10
        0x0001d6aa:    ebab0202    ....    SUB      r2,r11,r2
        0x0001d6ae:    1e51        Q.      SUBS     r1,r2,#1
        0x0001d6b0:    9a06        ..      LDR      r2,[sp,#0x18]
        0x0001d6b2:    4291        .B      CMP      r1,r2
        0x0001d6b4:    dd01        ..      BLE      0x1d6ba ; ftoa + 270
        0x0001d6b6:    9a06        ..      LDR      r2,[sp,#0x18]
        0x0001d6b8:    e000        ..      B        0x1d6bc ; ftoa + 272
        0x0001d6ba:    460a        .F      MOV      r2,r1
        0x0001d6bc:    4611        .F      MOV      r1,r2
        0x0001d6be:    2000        .       MOVS     r0,#0
        0x0001d6c0:    e00b        ..      B        0x1d6da ; ftoa + 302
        0x0001d6c2:    eb080288    ....    ADD      r2,r8,r8,LSL #2
        0x0001d6c6:    ea4f0842    O.B.    LSL      r8,r2,#1
        0x0001d6ca:    2230        0"      MOVS     r2,#0x30
        0x0001d6cc:    eb026228    ..(b    ADD      r2,r2,r8,ASR #24
        0x0001d6d0:    f8042b01    ...+    STRB     r2,[r4],#1
        0x0001d6d4:    f028487f    (..H    BIC      r8,r8,#0xff000000
        0x0001d6d8:    1c40        @.      ADDS     r0,r0,#1
        0x0001d6da:    4288        .B      CMP      r0,r1
        0x0001d6dc:    dbf1        ..      BLT      0x1d6c2 ; ftoa + 278
        0x0001d6de:    eb080288    ....    ADD      r2,r8,r8,LSL #2
        0x0001d6e2:    0052        R.      LSLS     r2,r2,#1
        0x0001d6e4:    2305        .#      MOVS     r3,#5
        0x0001d6e6:    ebb36f22    .."o    CMP      r3,r2,ASR #24
        0x0001d6ea:    dc12        ..      BGT      0x1d712 ; ftoa + 358
        0x0001d6ec:    1e66        f.      SUBS     r6,r4,#1
        0x0001d6ee:    e00d        ..      B        0x1d70c ; ftoa + 352
        0x0001d6f0:    7832        2x      LDRB     r2,[r6,#0]
        0x0001d6f2:    2a2e        .*      CMP      r2,#0x2e
        0x0001d6f4:    d009        ..      BEQ      0x1d70a ; ftoa + 350
        0x0001d6f6:    7832        2x      LDRB     r2,[r6,#0]
        0x0001d6f8:    2a39        9*      CMP      r2,#0x39
        0x0001d6fa:    d102        ..      BNE      0x1d702 ; ftoa + 342
        0x0001d6fc:    2230        0"      MOVS     r2,#0x30
        0x0001d6fe:    7032        2p      STRB     r2,[r6,#0]
        0x0001d700:    e003        ..      B        0x1d70a ; ftoa + 350
        0x0001d702:    7832        2x      LDRB     r2,[r6,#0]
        0x0001d704:    1c52        R.      ADDS     r2,r2,#1
        0x0001d706:    7032        2p      STRB     r2,[r6,#0]
        0x0001d708:    e002        ..      B        0x1d710 ; ftoa + 356
        0x0001d70a:    1e76        v.      SUBS     r6,r6,#1
        0x0001d70c:    4556        VE      CMP      r6,r10
        0x0001d70e:    d2ef        ..      BCS      0x1d6f0 ; ftoa + 324
        0x0001d710:    bf00        ..      NOP      
        0x0001d712:    bf00        ..      NOP      
        0x0001d714:    2000        .       MOVS     r0,#0
        0x0001d716:    7020         p      STRB     r0,[r4,#0]
        0x0001d718:    eba4000a    ....    SUB      r0,r4,r10
        0x0001d71c:    e757        W.      B        0x1d5ce ; ftoa + 34
    $d
        0x0001d71e:    0000        ..      DCW    0
        0x0001d720:    00302e30    0.0.    DCD    3157552
    $t
    i.gen_numname
    gen_numname
        0x0001d724:    e92d4fff    -..O    PUSH     {r0-r11,lr}
        0x0001d728:    b083        ..      SUB      sp,sp,#0xc
        0x0001d72a:    4680        .F      MOV      r8,r0
        0x0001d72c:    4691        .F      MOV      r9,r2
        0x0001d72e:    461e        .F      MOV      r6,r3
        0x0001d730:    220b        ."      MOVS     r2,#0xb
        0x0001d732:    4640        @F      MOV      r0,r8
        0x0001d734:    9904        ..      LDR      r1,[sp,#0x10]
        0x0001d736:    f000faad    ....    BL       mem_cpy ; 0x1dc94
        0x0001d73a:    2e05        ..      CMP      r6,#5
        0x0001d73c:    d918        ..      BLS      0x1d770 ; gen_numname + 76
        0x0001d73e:    4637        7F      MOV      r7,r6
        0x0001d740:    e011        ..      B        0x1d766 ; gen_numname + 66
        0x0001d742:    f839bb02    9...    LDRH     r11,[r9],#2
        0x0001d746:    2500        .%      MOVS     r5,#0
        0x0001d748:    e00b        ..      B        0x1d762 ; gen_numname + 62
        0x0001d74a:    4658        XF      MOV      r0,r11
        0x0001d74c:    f367005f    g._.    BFI      r0,r7,#1,#31
        0x0001d750:    4607        .F      MOV      r7,r0
        0x0001d752:    ea4f0b6b    O.k.    ASR      r11,r11,#1
        0x0001d756:    f4073080    ...0    AND      r0,r7,#0x10000
        0x0001d75a:    b108        ..      CBZ      r0,0x1d760 ; gen_numname + 60
        0x0001d75c:    4823        #H      LDR      r0,[pc,#140] ; [0x1d7ec] = 0x11021
        0x0001d75e:    4047        G@      EORS     r7,r7,r0
        0x0001d760:    1c6d        m.      ADDS     r5,r5,#1
        0x0001d762:    2d10        .-      CMP      r5,#0x10
        0x0001d764:    d3f1        ..      BCC      0x1d74a ; gen_numname + 38
        0x0001d766:    f8b90000    ....    LDRH     r0,[r9,#0]
        0x0001d76a:    2800        .(      CMP      r0,#0
        0x0001d76c:    d1e9        ..      BNE      0x1d742 ; gen_numname + 30
        0x0001d76e:    463e        >F      MOV      r6,r7
        0x0001d770:    2507        .%      MOVS     r5,#7
        0x0001d772:    bf00        ..      NOP      
        0x0001d774:    f006000f    ....    AND      r0,r6,#0xf
        0x0001d778:    f1000a30    ..0.    ADD      r10,r0,#0x30
        0x0001d77c:    f1ba0f39    ..9.    CMP      r10,#0x39
        0x0001d780:    dd03        ..      BLE      0x1d78a ; gen_numname + 102
        0x0001d782:    f10a0007    ....    ADD      r0,r10,#7
        0x0001d786:    f0000aff    ....    AND      r10,r0,#0xff
        0x0001d78a:    4628        (F      MOV      r0,r5
        0x0001d78c:    1e6d        m.      SUBS     r5,r5,#1
        0x0001d78e:    a901        ..      ADD      r1,sp,#4
        0x0001d790:    f801a000    ....    STRB     r10,[r1,r0]
        0x0001d794:    0936        6.      LSRS     r6,r6,#4
        0x0001d796:    2e00        ..      CMP      r6,#0
        0x0001d798:    d1ec        ..      BNE      0x1d774 ; gen_numname + 80
        0x0001d79a:    207e        ~       MOVS     r0,#0x7e
        0x0001d79c:    5548        HU      STRB     r0,[r1,r5]
        0x0001d79e:    2400        .$      MOVS     r4,#0
        0x0001d7a0:    e00a        ..      B        0x1d7b8 ; gen_numname + 148
        0x0001d7a2:    f8180004    ....    LDRB     r0,[r8,r4]
        0x0001d7a6:    f7fefc29    ..).    BL       dbc_1st ; 0x1bffc
        0x0001d7aa:    b120         .      CBZ      r0,0x1d7b6 ; gen_numname + 146
        0x0001d7ac:    1e68        h.      SUBS     r0,r5,#1
        0x0001d7ae:    42a0        .B      CMP      r0,r4
        0x0001d7b0:    d100        ..      BNE      0x1d7b4 ; gen_numname + 144
        0x0001d7b2:    e007        ..      B        0x1d7c4 ; gen_numname + 160
        0x0001d7b4:    1c64        d.      ADDS     r4,r4,#1
        0x0001d7b6:    1c64        d.      ADDS     r4,r4,#1
        0x0001d7b8:    42ac        .B      CMP      r4,r5
        0x0001d7ba:    d203        ..      BCS      0x1d7c4 ; gen_numname + 160
        0x0001d7bc:    f8180004    ....    LDRB     r0,[r8,r4]
        0x0001d7c0:    2820         (      CMP      r0,#0x20
        0x0001d7c2:    d1ee        ..      BNE      0x1d7a2 ; gen_numname + 126
        0x0001d7c4:    bf00        ..      NOP      
        0x0001d7c6:    bf00        ..      NOP      
        0x0001d7c8:    2d08        .-      CMP      r5,#8
        0x0001d7ca:    d204        ..      BCS      0x1d7d6 ; gen_numname + 178
        0x0001d7cc:    4628        (F      MOV      r0,r5
        0x0001d7ce:    1c6d        m.      ADDS     r5,r5,#1
        0x0001d7d0:    a901        ..      ADD      r1,sp,#4
        0x0001d7d2:    5c08        .\      LDRB     r0,[r1,r0]
        0x0001d7d4:    e000        ..      B        0x1d7d8 ; gen_numname + 180
        0x0001d7d6:    2020                MOVS     r0,#0x20
        0x0001d7d8:    4621        !F      MOV      r1,r4
        0x0001d7da:    1c64        d.      ADDS     r4,r4,#1
        0x0001d7dc:    f8080001    ....    STRB     r0,[r8,r1]
        0x0001d7e0:    2c08        .,      CMP      r4,#8
        0x0001d7e2:    d3f1        ..      BCC      0x1d7c8 ; gen_numname + 164
        0x0001d7e4:    b007        ..      ADD      sp,sp,#0x1c
        0x0001d7e6:    e8bd8ff0    ....    POP      {r4-r11,pc}
    $d
        0x0001d7ea:    0000        ..      DCW    0
        0x0001d7ec:    00011021    !...    DCD    69665
    $t
    i.get_fat
    get_fat
        0x0001d7f0:    e92d47f0    -..G    PUSH     {r4-r10,lr}
        0x0001d7f4:    4681        .F      MOV      r9,r0
        0x0001d7f6:    460c        .F      MOV      r4,r1
        0x0001d7f8:    f8d95000    ...P    LDR      r5,[r9,#0]
        0x0001d7fc:    2c02        .,      CMP      r4,#2
        0x0001d7fe:    d302        ..      BCC      0x1d806 ; get_fat + 22
        0x0001d800:    69e8        .i      LDR      r0,[r5,#0x1c]
        0x0001d802:    42a0        .B      CMP      r0,r4
        0x0001d804:    d802        ..      BHI      0x1d80c ; get_fat + 28
        0x0001d806:    f04f0801    O...    MOV      r8,#1
        0x0001d80a:    e05e        ^.      B        0x1d8ca ; get_fat + 218
        0x0001d80c:    f04f38ff    O..8    MOV      r8,#0xffffffff
        0x0001d810:    7828        (x      LDRB     r0,[r5,#0]
        0x0001d812:    2801        .(      CMP      r0,#1
        0x0001d814:    d004        ..      BEQ      0x1d820 ; get_fat + 48
        0x0001d816:    2802        .(      CMP      r0,#2
        0x0001d818:    d02c        ,.      BEQ      0x1d874 ; get_fat + 132
        0x0001d81a:    2803        .(      CMP      r0,#3
        0x0001d81c:    d151        Q.      BNE      0x1d8c2 ; get_fat + 210
        0x0001d81e:    e03c        <.      B        0x1d89a ; get_fat + 170
        0x0001d820:    4626        &F      MOV      r6,r4
        0x0001d822:    eb060656    ..V.    ADD      r6,r6,r6,LSR #1
        0x0001d826:    6aa8        .j      LDR      r0,[r5,#0x28]
        0x0001d828:    eb002156    ..V!    ADD      r1,r0,r6,LSR #9
        0x0001d82c:    4628        (F      MOV      r0,r5
        0x0001d82e:    f000fed7    ....    BL       move_window ; 0x1e5e0
        0x0001d832:    b100        ..      CBZ      r0,0x1d836 ; get_fat + 70
        0x0001d834:    e048        H.      B        0x1d8c8 ; get_fat + 216
        0x0001d836:    4630        0F      MOV      r0,r6
        0x0001d838:    1c76        v.      ADDS     r6,r6,#1
        0x0001d83a:    f3c00108    ....    UBFX     r1,r0,#0,#9
        0x0001d83e:    f1050038    ..8.    ADD      r0,r5,#0x38
        0x0001d842:    5c47        G\      LDRB     r7,[r0,r1]
        0x0001d844:    6aa8        .j      LDR      r0,[r5,#0x28]
        0x0001d846:    eb002156    ..V!    ADD      r1,r0,r6,LSR #9
        0x0001d84a:    4628        (F      MOV      r0,r5
        0x0001d84c:    f000fec8    ....    BL       move_window ; 0x1e5e0
        0x0001d850:    b100        ..      CBZ      r0,0x1d854 ; get_fat + 100
        0x0001d852:    e039        9.      B        0x1d8c8 ; get_fat + 216
        0x0001d854:    f3c60108    ....    UBFX     r1,r6,#0,#9
        0x0001d858:    f1050038    ..8.    ADD      r0,r5,#0x38
        0x0001d85c:    5c40        @\      LDRB     r0,[r0,r1]
        0x0001d85e:    ea472700    G..'    ORR      r7,r7,r0,LSL #8
        0x0001d862:    f0040001    ....    AND      r0,r4,#1
        0x0001d866:    b108        ..      CBZ      r0,0x1d86c ; get_fat + 124
        0x0001d868:    0938        8.      LSRS     r0,r7,#4
        0x0001d86a:    e001        ..      B        0x1d870 ; get_fat + 128
        0x0001d86c:    f3c7000b    ....    UBFX     r0,r7,#0,#12
        0x0001d870:    4680        .F      MOV      r8,r0
        0x0001d872:    e029        ).      B        0x1d8c8 ; get_fat + 216
        0x0001d874:    6aa8        .j      LDR      r0,[r5,#0x28]
        0x0001d876:    eb002114    ...!    ADD      r1,r0,r4,LSR #8
        0x0001d87a:    4628        (F      MOV      r0,r5
        0x0001d87c:    f000feb0    ....    BL       move_window ; 0x1e5e0
        0x0001d880:    b100        ..      CBZ      r0,0x1d884 ; get_fat + 148
        0x0001d882:    e021        !.      B        0x1d8c8 ; get_fat + 216
        0x0001d884:    f24011ff    @...    MOV      r1,#0x1ff
        0x0001d888:    ea010244    ..D.    AND      r2,r1,r4,LSL #1
        0x0001d88c:    f1050138    ..8.    ADD      r1,r5,#0x38
        0x0001d890:    1850        P.      ADDS     r0,r2,r1
        0x0001d892:    f000f866    ..f.    BL       ld_word ; 0x1d962
        0x0001d896:    4680        .F      MOV      r8,r0
        0x0001d898:    e016        ..      B        0x1d8c8 ; get_fat + 216
        0x0001d89a:    6aa8        .j      LDR      r0,[r5,#0x28]
        0x0001d89c:    eb0011d4    ....    ADD      r1,r0,r4,LSR #7
        0x0001d8a0:    4628        (F      MOV      r0,r5
        0x0001d8a2:    f000fe9d    ....    BL       move_window ; 0x1e5e0
        0x0001d8a6:    b100        ..      CBZ      r0,0x1d8aa ; get_fat + 186
        0x0001d8a8:    e00e        ..      B        0x1d8c8 ; get_fat + 216
        0x0001d8aa:    f24011ff    @...    MOV      r1,#0x1ff
        0x0001d8ae:    ea010284    ....    AND      r2,r1,r4,LSL #2
        0x0001d8b2:    f1050138    ..8.    ADD      r1,r5,#0x38
        0x0001d8b6:    1850        P.      ADDS     r0,r2,r1
        0x0001d8b8:    f000f847    ..G.    BL       ld_dword ; 0x1d94a
        0x0001d8bc:    f0204870     .pH    BIC      r8,r0,#0xf0000000
        0x0001d8c0:    e002        ..      B        0x1d8c8 ; get_fat + 216
        0x0001d8c2:    f04f0801    O...    MOV      r8,#1
        0x0001d8c6:    bf00        ..      NOP      
        0x0001d8c8:    bf00        ..      NOP      
        0x0001d8ca:    4640        @F      MOV      r0,r8
        0x0001d8cc:    e8bd87f0    ....    POP      {r4-r10,pc}
    i.get_ldnumber
    get_ldnumber
        0x0001d8d0:    b570        p.      PUSH     {r4-r6,lr}
        0x0001d8d2:    4604        .F      MOV      r4,r0
        0x0001d8d4:    f04f30ff    O..0    MOV      r0,#0xffffffff
        0x0001d8d8:    6826        &h      LDR      r6,[r4,#0]
        0x0001d8da:    4631        1F      MOV      r1,r6
        0x0001d8dc:    4632        2F      MOV      r2,r6
        0x0001d8de:    b901        ..      CBNZ     r1,0x1d8e2 ; get_ldnumber + 18
        0x0001d8e0:    bd70        p.      POP      {r4-r6,pc}
        0x0001d8e2:    bf00        ..      NOP      
        0x0001d8e4:    f8123b01    ...;    LDRB     r3,[r2],#1
        0x0001d8e8:    2b20         +      CMP      r3,#0x20
        0x0001d8ea:    d301        ..      BCC      0x1d8f0 ; get_ldnumber + 32
        0x0001d8ec:    2b3a        :+      CMP      r3,#0x3a
        0x0001d8ee:    d1f9        ..      BNE      0x1d8e4 ; get_ldnumber + 20
        0x0001d8f0:    2b3a        :+      CMP      r3,#0x3a
        0x0001d8f2:    d111        ..      BNE      0x1d918 ; get_ldnumber + 72
        0x0001d8f4:    2501        .%      MOVS     r5,#1
        0x0001d8f6:    780e        .x      LDRB     r6,[r1,#0]
        0x0001d8f8:    2e30        0.      CMP      r6,#0x30
        0x0001d8fa:    db08        ..      BLT      0x1d90e ; get_ldnumber + 62
        0x0001d8fc:    780e        .x      LDRB     r6,[r1,#0]
        0x0001d8fe:    2e39        9.      CMP      r6,#0x39
        0x0001d900:    dc05        ..      BGT      0x1d90e ; get_ldnumber + 62
        0x0001d902:    1c8e        ..      ADDS     r6,r1,#2
        0x0001d904:    4296        .B      CMP      r6,r2
        0x0001d906:    d102        ..      BNE      0x1d90e ; get_ldnumber + 62
        0x0001d908:    780e        .x      LDRB     r6,[r1,#0]
        0x0001d90a:    f1a60530    ..0.    SUB      r5,r6,#0x30
        0x0001d90e:    2d01        .-      CMP      r5,#1
        0x0001d910:    da01        ..      BGE      0x1d916 ; get_ldnumber + 70
        0x0001d912:    4628        (F      MOV      r0,r5
        0x0001d914:    6022        "`      STR      r2,[r4,#0]
        0x0001d916:    e7e3        ..      B        0x1d8e0 ; get_ldnumber + 16
        0x0001d918:    4e01        .N      LDR      r6,[pc,#4] ; [0x1d920] = 0x10000006
        0x0001d91a:    7830        0x      LDRB     r0,[r6,#0]
        0x0001d91c:    bf00        ..      NOP      
        0x0001d91e:    e7df        ..      B        0x1d8e0 ; get_ldnumber + 16
    $d
        0x0001d920:    10000006    ....    DCD    268435462
    $t
    i.ld_clust
    ld_clust
        0x0001d924:    b570        p.      PUSH     {r4-r6,lr}
        0x0001d926:    4605        .F      MOV      r5,r0
        0x0001d928:    460c        .F      MOV      r4,r1
        0x0001d92a:    f104001a    ....    ADD      r0,r4,#0x1a
        0x0001d92e:    f000f818    ....    BL       ld_word ; 0x1d962
        0x0001d932:    4606        .F      MOV      r6,r0
        0x0001d934:    7828        (x      LDRB     r0,[r5,#0]
        0x0001d936:    2803        .(      CMP      r0,#3
        0x0001d938:    d105        ..      BNE      0x1d946 ; ld_clust + 34
        0x0001d93a:    f1040014    ....    ADD      r0,r4,#0x14
        0x0001d93e:    f000f810    ....    BL       ld_word ; 0x1d962
        0x0001d942:    ea464600    F..F    ORR      r6,r6,r0,LSL #16
        0x0001d946:    4630        0F      MOV      r0,r6
        0x0001d948:    bd70        p.      POP      {r4-r6,pc}
    i.ld_dword
    ld_dword
        0x0001d94a:    4601        .F      MOV      r1,r0
        0x0001d94c:    78c8        .x      LDRB     r0,[r1,#3]
        0x0001d94e:    788a        .x      LDRB     r2,[r1,#2]
        0x0001d950:    ea422000    B..     ORR      r0,r2,r0,LSL #8
        0x0001d954:    784a        Jx      LDRB     r2,[r1,#1]
        0x0001d956:    ea422000    B..     ORR      r0,r2,r0,LSL #8
        0x0001d95a:    780a        .x      LDRB     r2,[r1,#0]
        0x0001d95c:    ea422000    B..     ORR      r0,r2,r0,LSL #8
        0x0001d960:    4770        pG      BX       lr
    i.ld_word
    ld_word
        0x0001d962:    4601        .F      MOV      r1,r0
        0x0001d964:    7848        Hx      LDRB     r0,[r1,#1]
        0x0001d966:    780a        .x      LDRB     r2,[r1,#0]
        0x0001d968:    ea422000    B..     ORR      r0,r2,r0,LSL #8
        0x0001d96c:    4770        pG      BX       lr
        0x0001d96e:    0000        ..      MOVS     r0,r0
    i.main
    main
        0x0001d970:    f7fafdd2    ....    BL       am_bsp_low_power_init ; 0x18518
        0x0001d974:    2008        .       MOVS     r0,#8
        0x0001d976:    f7fafddb    ....    BL       am_bsp_sdio_pins_enable ; 0x18530
        0x0001d97a:    f7fafceb    ....    BL       am_hal_interrupt_master_enable ; 0x18354
        0x0001d97e:    f7fafd8f    ....    BL       am_bsp_itm_printf_enable ; 0x184a0
        0x0001d982:    a04c        L.      ADR      r0,{pc}+0x132 ; 0x1dab4
        0x0001d984:    f7fdfd24    ..$.    BL       am_util_stdio_printf ; 0x1b3d0
        0x0001d988:    2200        ."      MOVS     r2,#0
        0x0001d98a:    4952        RI      LDR      r1,[pc,#328] ; [0x1dad4] = 0x10000009
        0x0001d98c:    4852        RH      LDR      r0,[pc,#328] ; [0x1dad8] = 0x10000260
        0x0001d98e:    f7fff99b    ....    BL       f_mount ; 0x1ccc8
        0x0001d992:    4952        RI      LDR      r1,[pc,#328] ; [0x1dadc] = 0x10000008
        0x0001d994:    7008        .p      STRB     r0,[r1,#0]
        0x0001d996:    4608        .F      MOV      r0,r1
        0x0001d998:    7800        .x      LDRB     r0,[r0,#0]
        0x0001d99a:    2800        .(      CMP      r0,#0
        0x0001d99c:    d175        u.      BNE      0x1da8a ; main + 282
        0x0001d99e:    a050        P.      ADR      r0,{pc}+0x142 ; 0x1dae0
        0x0001d9a0:    f7fdfd16    ....    BL       am_util_stdio_printf ; 0x1b3d0
        0x0001d9a4:    f44f7300    O..s    MOV      r3,#0x200
        0x0001d9a8:    4a53        SJ      LDR      r2,[pc,#332] ; [0x1daf8] = 0x100006c4
        0x0001d9aa:    2100        .!      MOVS     r1,#0
        0x0001d9ac:    4849        IH      LDR      r0,[pc,#292] ; [0x1dad4] = 0x10000009
        0x0001d9ae:    f7fefe37    ..7.    BL       f_mkfs ; 0x1c620
        0x0001d9b2:    494a        JI      LDR      r1,[pc,#296] ; [0x1dadc] = 0x10000008
        0x0001d9b4:    7008        .p      STRB     r0,[r1,#0]
        0x0001d9b6:    4608        .F      MOV      r0,r1
        0x0001d9b8:    7800        .x      LDRB     r0,[r0,#0]
        0x0001d9ba:    2800        .(      CMP      r0,#0
        0x0001d9bc:    d16e        n.      BNE      0x1da9c ; main + 300
        0x0001d9be:    a04f        O.      ADR      r0,{pc}+0x13e ; 0x1dafc
        0x0001d9c0:    f7fdfd06    ....    BL       am_util_stdio_printf ; 0x1b3d0
        0x0001d9c4:    220a        ."      MOVS     r2,#0xa
        0x0001d9c6:    a158        X.      ADR      r1,{pc}+0x162 ; 0x1db28
        0x0001d9c8:    485a        ZH      LDR      r0,[pc,#360] ; [0x1db34] = 0x10000498
        0x0001d9ca:    f7fff9a7    ....    BL       f_open ; 0x1cd1c
        0x0001d9ce:    4943        CI      LDR      r1,[pc,#268] ; [0x1dadc] = 0x10000008
        0x0001d9d0:    7008        .p      STRB     r0,[r1,#0]
        0x0001d9d2:    4608        .F      MOV      r0,r1
        0x0001d9d4:    7800        .x      LDRB     r0,[r0,#0]
        0x0001d9d6:    2800        .(      CMP      r0,#0
        0x0001d9d8:    d15c        \.      BNE      0x1da94 ; main + 292
        0x0001d9da:    a057        W.      ADR      r0,{pc}+0x15e ; 0x1db38
        0x0001d9dc:    f7fdfcf8    ....    BL       am_util_stdio_printf ; 0x1b3d0
        0x0001d9e0:    4b5e        ^K      LDR      r3,[pc,#376] ; [0x1db5c] = 0x10000110
        0x0001d9e2:    f44f7280    O..r    MOV      r2,#0x100
        0x0001d9e6:    495e        ^I      LDR      r1,[pc,#376] ; [0x1db60] = 0x1000000d
        0x0001d9e8:    4852        RH      LDR      r0,[pc,#328] ; [0x1db34] = 0x10000498
        0x0001d9ea:    f7fffbb7    ....    BL       f_write ; 0x1d15c
        0x0001d9ee:    493b        ;I      LDR      r1,[pc,#236] ; [0x1dadc] = 0x10000008
        0x0001d9f0:    7008        .p      STRB     r0,[r1,#0]
        0x0001d9f2:    4608        .F      MOV      r0,r1
        0x0001d9f4:    7800        .x      LDRB     r0,[r0,#0]
        0x0001d9f6:    b910        ..      CBNZ     r0,0x1d9fe ; main + 142
        0x0001d9f8:    4858        XH      LDR      r0,[pc,#352] ; [0x1db5c] = 0x10000110
        0x0001d9fa:    6800        .h      LDR      r0,[r0,#0]
        0x0001d9fc:    b918        ..      CBNZ     r0,0x1da06 ; main + 150
        0x0001d9fe:    a059        Y.      ADR      r0,{pc}+0x166 ; 0x1db64
        0x0001da00:    f7fdfce6    ....    BL       am_util_stdio_printf ; 0x1b3d0
        0x0001da04:    e051        Q.      B        0x1daaa ; main + 314
        0x0001da06:    484b        KH      LDR      r0,[pc,#300] ; [0x1db34] = 0x10000498
        0x0001da08:    f7fefdf8    ....    BL       f_close ; 0x1c5fc
        0x0001da0c:    4933        3I      LDR      r1,[pc,#204] ; [0x1dadc] = 0x10000008
        0x0001da0e:    7008        .p      STRB     r0,[r1,#0]
        0x0001da10:    4608        .F      MOV      r0,r1
        0x0001da12:    7800        .x      LDRB     r0,[r0,#0]
        0x0001da14:    b918        ..      CBNZ     r0,0x1da1e ; main + 174
        0x0001da16:    a058        X.      ADR      r0,{pc}+0x162 ; 0x1db78
        0x0001da18:    f7fdfcda    ....    BL       am_util_stdio_printf ; 0x1b3d0
        0x0001da1c:    e002        ..      B        0x1da24 ; main + 180
        0x0001da1e:    a05a        Z.      ADR      r0,{pc}+0x16a ; 0x1db88
        0x0001da20:    f7fdfcd6    ....    BL       am_util_stdio_printf ; 0x1b3d0
        0x0001da24:    2201        ."      MOVS     r2,#1
        0x0001da26:    a140        @.      ADR      r1,{pc}+0x102 ; 0x1db28
        0x0001da28:    4842        BH      LDR      r0,[pc,#264] ; [0x1db34] = 0x10000498
        0x0001da2a:    f7fff977    ..w.    BL       f_open ; 0x1cd1c
        0x0001da2e:    492b        +I      LDR      r1,[pc,#172] ; [0x1dadc] = 0x10000008
        0x0001da30:    7008        .p      STRB     r0,[r1,#0]
        0x0001da32:    4608        .F      MOV      r0,r1
        0x0001da34:    7800        .x      LDRB     r0,[r0,#0]
        0x0001da36:    2800        .(      CMP      r0,#0
        0x0001da38:    d128        (.      BNE      0x1da8c ; main + 284
        0x0001da3a:    a058        X.      ADR      r0,{pc}+0x162 ; 0x1db9c
        0x0001da3c:    f7fdfcc8    ....    BL       am_util_stdio_printf ; 0x1b3d0
        0x0001da40:    4b5f        _K      LDR      r3,[pc,#380] ; [0x1dbc0] = 0x10000114
        0x0001da42:    f44f7280    O..r    MOV      r2,#0x100
        0x0001da46:    495f        _I      LDR      r1,[pc,#380] ; [0x1dbc4] = 0x100008c4
        0x0001da48:    483a        :H      LDR      r0,[pc,#232] ; [0x1db34] = 0x10000498
        0x0001da4a:    f7fffa61    ..a.    BL       f_read ; 0x1cf10
        0x0001da4e:    4923        #I      LDR      r1,[pc,#140] ; [0x1dadc] = 0x10000008
        0x0001da50:    7008        .p      STRB     r0,[r1,#0]
        0x0001da52:    4608        .F      MOV      r0,r1
        0x0001da54:    7800        .x      LDRB     r0,[r0,#0]
        0x0001da56:    b910        ..      CBNZ     r0,0x1da5e ; main + 238
        0x0001da58:    4859        YH      LDR      r0,[pc,#356] ; [0x1dbc0] = 0x10000114
        0x0001da5a:    6800        .h      LDR      r0,[r0,#0]
        0x0001da5c:    b918        ..      CBNZ     r0,0x1da66 ; main + 246
        0x0001da5e:    a05a        Z.      ADR      r0,{pc}+0x16a ; 0x1dbc8
        0x0001da60:    f7fdfcb6    ....    BL       am_util_stdio_printf ; 0x1b3d0
        0x0001da64:    e021        !.      B        0x1daaa ; main + 314
        0x0001da66:    4833        3H      LDR      r0,[pc,#204] ; [0x1db34] = 0x10000498
        0x0001da68:    f7fefdc8    ....    BL       f_close ; 0x1c5fc
        0x0001da6c:    491b        .I      LDR      r1,[pc,#108] ; [0x1dadc] = 0x10000008
        0x0001da6e:    7008        .p      STRB     r0,[r1,#0]
        0x0001da70:    4608        .F      MOV      r0,r1
        0x0001da72:    7800        .x      LDRB     r0,[r0,#0]
        0x0001da74:    b110        ..      CBZ      r0,0x1da7c ; main + 268
        0x0001da76:    a044        D.      ADR      r0,{pc}+0x112 ; 0x1db88
        0x0001da78:    f7fdfcaa    ....    BL       am_util_stdio_printf ; 0x1b3d0
        0x0001da7c:    f44f7280    O..r    MOV      r2,#0x100
        0x0001da80:    4937        7I      LDR      r1,[pc,#220] ; [0x1db60] = 0x1000000d
        0x0001da82:    4850        PH      LDR      r0,[pc,#320] ; [0x1dbc4] = 0x100008c4
        0x0001da84:    f7fdfee2    ....    BL       check_if_rwbuf_match ; 0x1b84c
        0x0001da88:    e00f        ..      B        0x1daaa ; main + 314
        0x0001da8a:    e00b        ..      B        0x1daa4 ; main + 308
        0x0001da8c:    a053        S.      ADR      r0,{pc}+0x150 ; 0x1dbdc
        0x0001da8e:    f7fdfc9f    ....    BL       am_util_stdio_printf ; 0x1b3d0
        0x0001da92:    e00a        ..      B        0x1daaa ; main + 314
        0x0001da94:    a058        X.      ADR      r0,{pc}+0x164 ; 0x1dbf8
        0x0001da96:    f7fdfc9b    ....    BL       am_util_stdio_printf ; 0x1b3d0
        0x0001da9a:    e006        ..      B        0x1daaa ; main + 314
        0x0001da9c:    a05e        ^.      ADR      r0,{pc}+0x17c ; 0x1dc18
        0x0001da9e:    f7fdfc97    ....    BL       am_util_stdio_printf ; 0x1b3d0
        0x0001daa2:    e002        ..      B        0x1daaa ; main + 314
        0x0001daa4:    a061        a.      ADR      r0,{pc}+0x188 ; 0x1dc2c
        0x0001daa6:    f7fdfc93    ....    BL       am_util_stdio_printf ; 0x1b3d0
        0x0001daaa:    a067        g.      ADR      r0,{pc}+0x19e ; 0x1dc48
        0x0001daac:    f7fdfc90    ....    BL       am_util_stdio_printf ; 0x1b3d0
        0x0001dab0:    bf00        ..      NOP      
        0x0001dab2:    e7fe        ..      B        0x1dab2 ; main + 322
    $d
        0x0001dab4:    6f70410a    .Apo    DCD    1869627658
        0x0001dab8:    346f6c6c    llo4    DCD    879717484
        0x0001dabc:    4d4d6520     eMM    DCD    1296917792
        0x0001dac0:    61462043    C Fa    DCD    1631985731
        0x0001dac4:    20734674    tFs     DCD    544425588
        0x0001dac8:    6d617865    exam    DCD    1835104357
        0x0001dacc:    0a656c70    ple.    DCD    174419056
        0x0001dad0:    00000000    ....    DCD    0
        0x0001dad4:    10000009    ....    DCD    268435465
        0x0001dad8:    10000260    `...    DCD    268436064
        0x0001dadc:    10000008    ....    DCD    268435464
        0x0001dae0:    7461460a    .Fat    DCD    1952531978
        0x0001dae4:    69207346    Fs i    DCD    1763734342
        0x0001dae8:    6e692073    s in    DCD    1852383347
        0x0001daec:    61697469    itia    DCD    1634301033
        0x0001daf0:    657a696c    lize    DCD    1702521196
        0x0001daf4:    00000a64    d...    DCD    2660
        0x0001daf8:    100006c4    ....    DCD    268437188
        0x0001dafc:    6c6f560a    .Vol    DCD    1819235850
        0x0001db00:    20656d75    ume     DCD    543518069
        0x0001db04:    63207369    is c    DCD    1663071081
        0x0001db08:    74616572    reat    DCD    1952540018
        0x0001db0c:    6f206465    ed o    DCD    1864393829
        0x0001db10:    6874206e    n th    DCD    1752440942
        0x0001db14:    6f6c2065    e lo    DCD    1869357157
        0x0001db18:    61636967    gica    DCD    1633904999
        0x0001db1c:    7264206c    l dr    DCD    1919164524
        0x0001db20:    0a657669    ive.    DCD    174421609
        0x0001db24:    00000000    ....    DCD    0
        0x0001db28:    46746146    FatF    DCD    1182032198
        0x0001db2c:    58542e73    s.TX    DCD    1481911923
        0x0001db30:    00000054    T...    DCD    84
        0x0001db34:    10000498    ....    DCD    268436632
        0x0001db38:    656c6946    File    DCD    1701603654
        0x0001db3c:    74614620     Fat    DCD    1952532000
        0x0001db40:    542e7346    Fs.T    DCD    1412330310
        0x0001db44:    69205458    XT i    DCD    1763726424
        0x0001db48:    706f2073    s op    DCD    1886330995
        0x0001db4c:    64656e65    ened    DCD    1684368997
        0x0001db50:    726f6620     for    DCD    1919903264
        0x0001db54:    69727720     wri    DCD    1769109280
        0x0001db58:    000a6574    te..    DCD    681332
        0x0001db5c:    10000110    ....    DCD    268435728
        0x0001db60:    1000000d    ....    DCD    268435469
        0x0001db64:    656c6946    File    DCD    1701603654
        0x0001db68:    69725720     Wri    DCD    1769101088
        0x0001db6c:    45206574    te E    DCD    1159751028
        0x0001db70:    726f7272    rror    DCD    1919906418
        0x0001db74:    00000a21    !...    DCD    2593
        0x0001db78:    656c6946    File    DCD    1701603654
        0x0001db7c:    20736920     is     DCD    544434464
        0x0001db80:    736f6c63    clos    DCD    1936682083
        0x0001db84:    000a6465    ed..    DCD    681061
        0x0001db88:    6c696146    Fail    DCD    1818845510
        0x0001db8c:    206f7420     to     DCD    544175136
        0x0001db90:    736f6c63    clos    DCD    1936682083
        0x0001db94:    69662065    e fi    DCD    1768300645
        0x0001db98:    000a656c    le..    DCD    681324
        0x0001db9c:    656c6946    File    DCD    1701603654
        0x0001dba0:    74614620     Fat    DCD    1952532000
        0x0001dba4:    542e7346    Fs.T    DCD    1412330310
        0x0001dba8:    69205458    XT i    DCD    1763726424
        0x0001dbac:    706f2073    s op    DCD    1886330995
        0x0001dbb0:    64656e65    ened    DCD    1684368997
        0x0001dbb4:    726f6620     for    DCD    1919903264
        0x0001dbb8:    61657220     rea    DCD    1634038304
        0x0001dbbc:    00000a64    d...    DCD    2660
        0x0001dbc0:    10000114    ....    DCD    268435732
        0x0001dbc4:    100008c4    ....    DCD    268437700
        0x0001dbc8:    656c6946    File    DCD    1701603654
        0x0001dbcc:    61655220     Rea    DCD    1634030112
        0x0001dbd0:    72452064    d Er    DCD    1917132900
        0x0001dbd4:    21726f72    ror!    DCD    561147762
        0x0001dbd8:    0000000a    ....    DCD    10
        0x0001dbdc:    6c696146    Fail    DCD    1818845510
        0x0001dbe0:    206f7420     to     DCD    544175136
        0x0001dbe4:    6e65706f    open    DCD    1852141679
        0x0001dbe8:    6c696620     fil    DCD    1818846752
        0x0001dbec:    6f662065    e fo    DCD    1868963941
        0x0001dbf0:    65722072    r re    DCD    1701978226
        0x0001dbf4:    000a6461    ad..    DCD    681057
        0x0001dbf8:    6c696146    Fail    DCD    1818845510
        0x0001dbfc:    206f7420     to     DCD    544175136
        0x0001dc00:    6e65706f    open    DCD    1852141679
        0x0001dc04:    6c696620     fil    DCD    1818846752
        0x0001dc08:    6f662065    e fo    DCD    1868963941
        0x0001dc0c:    72772072    r wr    DCD    1920409714
        0x0001dc10:    0a657469    ite.    DCD    174421097
        0x0001dc14:    00000000    ....    DCD    0
        0x0001dc18:    46746146    FatF    DCD    1182032198
        0x0001dc1c:    6f462073    s Fo    DCD    1866866803
        0x0001dc20:    74616d72    rmat    DCD    1952542066
        0x0001dc24:    69614620     Fai    DCD    1767982624
        0x0001dc28:    00000a6c    l...    DCD    2668
        0x0001dc2c:    46746146    FatF    DCD    1182032198
        0x0001dc30:    6e492073    s In    DCD    1850286195
        0x0001dc34:    61697469    itia    DCD    1634301033
        0x0001dc38:    617a696c    liza    DCD    1635412332
        0x0001dc3c:    6e6f6974    tion    DCD    1852795252
        0x0001dc40:    69614620     Fai    DCD    1767982624
        0x0001dc44:    00000a6c    l...    DCD    2668
        0x0001dc48:    6f70410a    .Apo    DCD    1869627658
        0x0001dc4c:    346f6c6c    llo4    DCD    879717484
        0x0001dc50:    4d4d6520     eMM    DCD    1296917792
        0x0001dc54:    61462043    C Fa    DCD    1631985731
        0x0001dc58:    20734674    tFs     DCD    544425588
        0x0001dc5c:    6d617865    exam    DCD    1835104357
        0x0001dc60:    20656c70    ple     DCD    543517808
        0x0001dc64:    706d6f63    comp    DCD    1886220131
        0x0001dc68:    6574656c    lete    DCD    1702126956
        0x0001dc6c:    0000000a    ....    DCD    10
    $t
    i.mem_cmp
    mem_cmp
        0x0001dc70:    b5f0        ..      PUSH     {r4-r7,lr}
        0x0001dc72:    4603        .F      MOV      r3,r0
        0x0001dc74:    461d        .F      MOV      r5,r3
        0x0001dc76:    460c        .F      MOV      r4,r1
        0x0001dc78:    2000        .       MOVS     r0,#0
        0x0001dc7a:    bf00        ..      NOP      
        0x0001dc7c:    f8157b01    ...{    LDRB     r7,[r5],#1
        0x0001dc80:    f814cb01    ....    LDRB     r12,[r4],#1
        0x0001dc84:    eba7000c    ....    SUB      r0,r7,r12
        0x0001dc88:    1e56        V.      SUBS     r6,r2,#1
        0x0001dc8a:    1e32        2.      SUBS     r2,r6,#0
        0x0001dc8c:    d001        ..      BEQ      0x1dc92 ; mem_cmp + 34
        0x0001dc8e:    2800        .(      CMP      r0,#0
        0x0001dc90:    d0f4        ..      BEQ      0x1dc7c ; mem_cmp + 12
        0x0001dc92:    bdf0        ..      POP      {r4-r7,pc}
    i.mem_cpy
    mem_cpy
        0x0001dc94:    b530        0.      PUSH     {r4,r5,lr}
        0x0001dc96:    4603        .F      MOV      r3,r0
        0x0001dc98:    460c        .F      MOV      r4,r1
        0x0001dc9a:    b13a        :.      CBZ      r2,0x1dcac ; mem_cpy + 24
        0x0001dc9c:    bf00        ..      NOP      
        0x0001dc9e:    f8145b01    ...[    LDRB     r5,[r4],#1
        0x0001dca2:    f8035b01    ...[    STRB     r5,[r3],#1
        0x0001dca6:    1e55        U.      SUBS     r5,r2,#1
        0x0001dca8:    1e2a        *.      SUBS     r2,r5,#0
        0x0001dcaa:    d1f8        ..      BNE      0x1dc9e ; mem_cpy + 10
        0x0001dcac:    bd30        0.      POP      {r4,r5,pc}
    i.mem_set
    mem_set
        0x0001dcae:    b510        ..      PUSH     {r4,lr}
        0x0001dcb0:    4603        .F      MOV      r3,r0
        0x0001dcb2:    bf00        ..      NOP      
        0x0001dcb4:    f8031b01    ....    STRB     r1,[r3],#1
        0x0001dcb8:    1e54        T.      SUBS     r4,r2,#1
        0x0001dcba:    1e22        ".      SUBS     r2,r4,#0
        0x0001dcbc:    d1fa        ..      BNE      0x1dcb4 ; mem_set + 6
        0x0001dcbe:    bd10        ..      POP      {r4,pc}
    i.mmc_disk_initialize
    mmc_disk_initialize
        0x0001dcc0:    b51c        ..      PUSH     {r2-r4,lr}
        0x0001dcc2:    2400        .$      MOVS     r4,#0
        0x0001dcc4:    4855        UH      LDR      r0,[pc,#340] ; [0x1de1c] = 0x10000118
        0x0001dcc6:    7800        .x      LDRB     r0,[r0,#0]
        0x0001dcc8:    2801        .(      CMP      r0,#1
        0x0001dcca:    d16e        n.      BNE      0x1ddaa ; mmc_disk_initialize + 234
        0x0001dccc:    2101        .!      MOVS     r1,#1
        0x0001dcce:    2000        .       MOVS     r0,#0
        0x0001dcd0:    f7fbfeb2    ....    BL       am_hal_get_card_host ; 0x19a38
        0x0001dcd4:    4952        RI      LDR      r1,[pc,#328] ; [0x1de20] = 0x1000011c
        0x0001dcd6:    6008        .`      STR      r0,[r1,#0]
        0x0001dcd8:    4608        .F      MOV      r0,r1
        0x0001dcda:    6800        .h      LDR      r0,[r0,#0]
        0x0001dcdc:    b958        X.      CBNZ     r0,0x1dcf6 ; mmc_disk_initialize + 54
        0x0001dcde:    a051        Q.      ADR      r0,{pc}+0x146 ; 0x1de24
        0x0001dce0:    f7fdfb76    ..v.    BL       am_util_stdio_printf ; 0x1b3d0
        0x0001dce4:    484d        MH      LDR      r0,[pc,#308] ; [0x1de1c] = 0x10000118
        0x0001dce6:    7800        .x      LDRB     r0,[r0,#0]
        0x0001dce8:    f0400001    @...    ORR      r0,r0,#1
        0x0001dcec:    494b        KI      LDR      r1,[pc,#300] ; [0x1de1c] = 0x10000118
        0x0001dcee:    7008        .p      STRB     r0,[r1,#0]
        0x0001dcf0:    4608        .F      MOV      r0,r1
        0x0001dcf2:    7800        .x      LDRB     r0,[r0,#0]
        0x0001dcf4:    bd1c        ..      POP      {r2-r4,pc}
        0x0001dcf6:    a052        R.      ADR      r0,{pc}+0x14a ; 0x1de40
        0x0001dcf8:    f7fdfb6a    ..j.    BL       am_util_stdio_printf ; 0x1b3d0
        0x0001dcfc:    e014        ..      B        0x1dd28 ; mmc_disk_initialize + 104
        0x0001dcfe:    a055        U.      ADR      r0,{pc}+0x156 ; 0x1de54
        0x0001dd00:    f7fdfb66    ..f.    BL       am_util_stdio_printf ; 0x1b3d0
        0x0001dd04:    200a        .       MOVS     r0,#0xa
        0x0001dd06:    f7fdfaf7    ....    BL       am_util_delay_ms ; 0x1b2f8
        0x0001dd0a:    a058        X.      ADR      r0,{pc}+0x162 ; 0x1de6c
        0x0001dd0c:    f7fdfb60    ..`.    BL       am_util_stdio_printf ; 0x1b3d0
        0x0001dd10:    1c64        d.      ADDS     r4,r4,#1
        0x0001dd12:    2c64        d,      CMP      r4,#0x64
        0x0001dd14:    d108        ..      BNE      0x1dd28 ; mmc_disk_initialize + 104
        0x0001dd16:    4841        AH      LDR      r0,[pc,#260] ; [0x1de1c] = 0x10000118
        0x0001dd18:    7800        .x      LDRB     r0,[r0,#0]
        0x0001dd1a:    f0400001    @...    ORR      r0,r0,#1
        0x0001dd1e:    493f        ?I      LDR      r1,[pc,#252] ; [0x1de1c] = 0x10000118
        0x0001dd20:    7008        .p      STRB     r0,[r1,#0]
        0x0001dd22:    4608        .F      MOV      r0,r1
        0x0001dd24:    7800        .x      LDRB     r0,[r0,#0]
        0x0001dd26:    e7e5        ..      B        0x1dcf4 ; mmc_disk_initialize + 52
        0x0001dd28:    495a        ZI      LDR      r1,[pc,#360] ; [0x1de94] = 0x100009c4
        0x0001dd2a:    483d        =H      LDR      r0,[pc,#244] ; [0x1de20] = 0x1000011c
        0x0001dd2c:    6800        .h      LDR      r0,[r0,#0]
        0x0001dd2e:    f7fafee7    ....    BL       am_hal_card_host_find_card ; 0x18b00
        0x0001dd32:    2800        .(      CMP      r0,#0
        0x0001dd34:    d1e3        ..      BNE      0x1dcfe ; mmc_disk_initialize + 62
        0x0001dd36:    2400        .$      MOVS     r4,#0
        0x0001dd38:    e011        ..      B        0x1dd5e ; mmc_disk_initialize + 158
        0x0001dd3a:    200a        .       MOVS     r0,#0xa
        0x0001dd3c:    f7fdfadc    ....    BL       am_util_delay_ms ; 0x1b2f8
        0x0001dd40:    a055        U.      ADR      r0,{pc}+0x158 ; 0x1de98
        0x0001dd42:    f7fdfb45    ..E.    BL       am_util_stdio_printf ; 0x1b3d0
        0x0001dd46:    1c64        d.      ADDS     r4,r4,#1
        0x0001dd48:    2c64        d,      CMP      r4,#0x64
        0x0001dd4a:    d108        ..      BNE      0x1dd5e ; mmc_disk_initialize + 158
        0x0001dd4c:    4833        3H      LDR      r0,[pc,#204] ; [0x1de1c] = 0x10000118
        0x0001dd4e:    7800        .x      LDRB     r0,[r0,#0]
        0x0001dd50:    f0400001    @...    ORR      r0,r0,#1
        0x0001dd54:    4931        1I      LDR      r1,[pc,#196] ; [0x1de1c] = 0x10000118
        0x0001dd56:    7008        .p      STRB     r0,[r1,#0]
        0x0001dd58:    4608        .F      MOV      r0,r1
        0x0001dd5a:    7800        .x      LDRB     r0,[r0,#0]
        0x0001dd5c:    e7ca        ..      B        0x1dcf4 ; mmc_disk_initialize + 52
        0x0001dd5e:    2201        ."      MOVS     r2,#1
        0x0001dd60:    2100        .!      MOVS     r1,#0
        0x0001dd62:    484c        LH      LDR      r0,[pc,#304] ; [0x1de94] = 0x100009c4
        0x0001dd64:    f7fafefa    ....    BL       am_hal_card_init ; 0x18b5c
        0x0001dd68:    2800        .(      CMP      r0,#0
        0x0001dd6a:    d1e6        ..      BNE      0x1dd3a ; mmc_disk_initialize + 122
        0x0001dd6c:    2103        .!      MOVS     r1,#3
        0x0001dd6e:    482c        ,H      LDR      r0,[pc,#176] ; [0x1de20] = 0x1000011c
        0x0001dd70:    6800        .h      LDR      r0,[r0,#0]
        0x0001dd72:    f7fafef1    ....    BL       am_hal_card_host_set_xfer_mode ; 0x18b58
        0x0001dd76:    4952        RI      LDR      r1,[pc,#328] ; [0x1dec0] = 0x1895d
        0x0001dd78:    4846        FH      LDR      r0,[pc,#280] ; [0x1de94] = 0x100009c4
        0x0001dd7a:    f7fbfbf6    ....    BL       am_hal_card_register_evt_callback ; 0x1956a
        0x0001dd7e:    2204        ."      MOVS     r2,#4
        0x0001dd80:    21d4        .!      MOVS     r1,#0xd4
        0x0001dd82:    4844        DH      LDR      r0,[pc,#272] ; [0x1de94] = 0x100009c4
        0x0001dd84:    f7fafe6a    ..j.    BL       am_hal_card_get_ext_csd_field ; 0x18a5c
        0x0001dd88:    494e        NI      LDR      r1,[pc,#312] ; [0x1dec4] = 0x10000120
        0x0001dd8a:    6008        .`      STR      r0,[r1,#0]
        0x0001dd8c:    4608        .F      MOV      r0,r1
        0x0001dd8e:    6800        .h      LDR      r0,[r0,#0]
        0x0001dd90:    b960        `.      CBNZ     r0,0x1ddac ; mmc_disk_initialize + 236
        0x0001dd92:    a04d        M.      ADR      r0,{pc}+0x136 ; 0x1dec8
        0x0001dd94:    f7fdfb1c    ....    BL       am_util_stdio_printf ; 0x1b3d0
        0x0001dd98:    4820         H      LDR      r0,[pc,#128] ; [0x1de1c] = 0x10000118
        0x0001dd9a:    7800        .x      LDRB     r0,[r0,#0]
        0x0001dd9c:    f0400001    @...    ORR      r0,r0,#1
        0x0001dda0:    491e        .I      LDR      r1,[pc,#120] ; [0x1de1c] = 0x10000118
        0x0001dda2:    7008        .p      STRB     r0,[r1,#0]
        0x0001dda4:    4608        .F      MOV      r0,r1
        0x0001dda6:    7800        .x      LDRB     r0,[r0,#0]
        0x0001dda8:    e7a4        ..      B        0x1dcf4 ; mmc_disk_initialize + 52
        0x0001ddaa:    e034        4.      B        0x1de16 ; mmc_disk_initialize + 342
        0x0001ddac:    4845        EH      LDR      r0,[pc,#276] ; [0x1dec4] = 0x10000120
        0x0001ddae:    6801        .h      LDR      r1,[r0,#0]
        0x0001ddb0:    a04f        O.      ADR      r0,{pc}+0x140 ; 0x1def0
        0x0001ddb2:    f7fdfb0d    ....    BL       am_util_stdio_printf ; 0x1b3d0
        0x0001ddb6:    2002        .       MOVS     r0,#2
        0x0001ddb8:    2100        .!      MOVS     r1,#0
        0x0001ddba:    4b56        VK      LDR      r3,[pc,#344] ; [0x1df14] = 0x2dc6c00
        0x0001ddbc:    2208        ."      MOVS     r2,#8
        0x0001ddbe:    e9cd1000    ....    STRD     r1,r0,[sp,#0]
        0x0001ddc2:    4601        .F      MOV      r1,r0
        0x0001ddc4:    4833        3H      LDR      r0,[pc,#204] ; [0x1de94] = 0x100009c4
        0x0001ddc6:    f7fafca5    ....    BL       am_hal_card_cfg_set ; 0x18714
        0x0001ddca:    b158        X.      CBZ      r0,0x1dde4 ; mmc_disk_initialize + 292
        0x0001ddcc:    a052        R.      ADR      r0,{pc}+0x14c ; 0x1df18
        0x0001ddce:    f7fdfaff    ....    BL       am_util_stdio_printf ; 0x1b3d0
        0x0001ddd2:    4812        .H      LDR      r0,[pc,#72] ; [0x1de1c] = 0x10000118
        0x0001ddd4:    7800        .x      LDRB     r0,[r0,#0]
        0x0001ddd6:    f0400001    @...    ORR      r0,r0,#1
        0x0001ddda:    4910        .I      LDR      r1,[pc,#64] ; [0x1de1c] = 0x10000118
        0x0001dddc:    7008        .p      STRB     r0,[r1,#0]
        0x0001ddde:    4608        .F      MOV      r0,r1
        0x0001dde0:    7800        .x      LDRB     r0,[r0,#0]
        0x0001dde2:    e787        ..      B        0x1dcf4 ; mmc_disk_initialize + 52
        0x0001dde4:    482b        +H      LDR      r0,[pc,#172] ; [0x1de94] = 0x100009c4
        0x0001dde6:    f7fbf971    ..q.    BL       am_hal_card_pwrctrl_sleep ; 0x190cc
        0x0001ddea:    b158        X.      CBZ      r0,0x1de04 ; mmc_disk_initialize + 324
        0x0001ddec:    a051        Q.      ADR      r0,{pc}+0x148 ; 0x1df34
        0x0001ddee:    f7fdfaef    ....    BL       am_util_stdio_printf ; 0x1b3d0
        0x0001ddf2:    480a        .H      LDR      r0,[pc,#40] ; [0x1de1c] = 0x10000118
        0x0001ddf4:    7800        .x      LDRB     r0,[r0,#0]
        0x0001ddf6:    f0400001    @...    ORR      r0,r0,#1
        0x0001ddfa:    4908        .I      LDR      r1,[pc,#32] ; [0x1de1c] = 0x10000118
        0x0001ddfc:    7008        .p      STRB     r0,[r1,#0]
        0x0001ddfe:    4608        .F      MOV      r0,r1
        0x0001de00:    7800        .x      LDRB     r0,[r0,#0]
        0x0001de02:    e777        w.      B        0x1dcf4 ; mmc_disk_initialize + 52
        0x0001de04:    a054        T.      ADR      r0,{pc}+0x154 ; 0x1df58
        0x0001de06:    f7fdfae3    ....    BL       am_util_stdio_printf ; 0x1b3d0
        0x0001de0a:    4804        .H      LDR      r0,[pc,#16] ; [0x1de1c] = 0x10000118
        0x0001de0c:    7800        .x      LDRB     r0,[r0,#0]
        0x0001de0e:    f0200001     ...    BIC      r0,r0,#1
        0x0001de12:    4902        .I      LDR      r1,[pc,#8] ; [0x1de1c] = 0x10000118
        0x0001de14:    7008        .p      STRB     r0,[r1,#0]
        0x0001de16:    4801        .H      LDR      r0,[pc,#4] ; [0x1de1c] = 0x10000118
        0x0001de18:    7800        .x      LDRB     r0,[r0,#0]
        0x0001de1a:    e76b        k.      B        0x1dcf4 ; mmc_disk_initialize + 52
    $d
        0x0001de1c:    10000118    ....    DCD    268435736
        0x0001de20:    1000011c    ....    DCD    268435740
        0x0001de24:    6f727245    Erro    DCD    1869771333
        0x0001de28:    4e203a72    r: N    DCD    1310734962
        0x0001de2c:    6163206f    o ca    DCD    1633886319
        0x0001de30:    68206472    rd h    DCD    1746953330
        0x0001de34:    2074736f    ost     DCD    544502639
        0x0001de38:    6e756f66    foun    DCD    1853189990
        0x0001de3c:    000a2164    d!..    DCD    663908
        0x0001de40:    64726163    card    DCD    1685217635
        0x0001de44:    736f6820     hos    DCD    1936680992
        0x0001de48:    73692074    t is    DCD    1936269428
        0x0001de4c:    756f6620     fou    DCD    1970234912
        0x0001de50:    000a646e    nd..    DCD    681070
        0x0001de54:    63206f4e    No c    DCD    1663070030
        0x0001de58:    20647261    ard     DCD    543453793
        0x0001de5c:    70207369    is p    DCD    1881174889
        0x0001de60:    65736572    rese    DCD    1702061426
        0x0001de64:    6e20746e    nt n    DCD    1847620718
        0x0001de68:    000a776f    ow..    DCD    685935
        0x0001de6c:    63656843    Chec    DCD    1667590211
        0x0001de70:    676e696b    king    DCD    1735289195
        0x0001de74:    20666920     if     DCD    543582496
        0x0001de78:    64726163    card    DCD    1685217635
        0x0001de7c:    20736920     is     DCD    544434464
        0x0001de80:    69617661    avai    DCD    1767994977
        0x0001de84:    6c62616c    labl    DCD    1818386796
        0x0001de88:    67612065    e ag    DCD    1734418533
        0x0001de8c:    0a6e6961    ain.    DCD    175008097
        0x0001de90:    00000000    ....    DCD    0
        0x0001de94:    100009c4    ....    DCD    268437956
        0x0001de98:    64726163    card    DCD    1685217635
        0x0001de9c:    646e6120     and    DCD    1684955424
        0x0001dea0:    736f6820     hos    DCD    1936680992
        0x0001dea4:    73692074    t is    DCD    1936269428
        0x0001dea8:    746f6e20     not    DCD    1953459744
        0x0001deac:    61657220     rea    DCD    1634038304
        0x0001deb0:    202c7964    dy,     DCD    539785572
        0x0001deb4:    20797274    try     DCD    544830068
        0x0001deb8:    69616761    agai    DCD    1767991137
        0x0001debc:    00000a6e    n...    DCD    2670
        0x0001dec0:    0001895d    ]...    DCD    100701
        0x0001dec4:    10000120     ...    DCD    268435744
        0x0001dec8:    6c696146    Fail    DCD    1818845510
        0x0001decc:    206f7420     to     DCD    544175136
        0x0001ded0:    20746567    get     DCD    544499047
        0x0001ded4:    20656874    the     DCD    543516788
        0x0001ded8:    74636573    sect    DCD    1952671091
        0x0001dedc:    6320726f    or c    DCD    1663070831
        0x0001dee0:    746e756f    ount    DCD    1953396079
        0x0001dee4:    6f207265    er o    DCD    1864397413
        0x0001dee8:    4d652066    f eM    DCD    1298473062
        0x0001deec:    000a434d    MC..    DCD    672589
        0x0001def0:    434d4d65    eMMC    DCD    1129139557
        0x0001def4:    54584520     EXT    DCD    1415071008
        0x0001def8:    44534320     CSD    DCD    1146307360
        0x0001defc:    63655320     Sec    DCD    1667584800
        0x0001df00:    20726f74    tor     DCD    544370548
        0x0001df04:    6e756f43    Coun    DCD    1853189955
        0x0001df08:    73692074    t is    DCD    1936269428
        0x0001df0c:    7830203a    : 0x    DCD    2016419898
        0x0001df10:    000a7825    %x..    DCD    686117
        0x0001df14:    02dc6c00    .l..    DCD    48000000
        0x0001df18:    6c696146    Fail    DCD    1818845510
        0x0001df1c:    206f7420     to     DCD    544175136
        0x0001df20:    666e6f63    conf    DCD    1718513507
        0x0001df24:    72756769    igur    DCD    1920296809
        0x0001df28:    68742065    e th    DCD    1752440933
        0x0001df2c:    61632065    e ca    DCD    1633886309
        0x0001df30:    000a6472    rd..    DCD    681074
        0x0001df34:    6c696146    Fail    DCD    1818845510
        0x0001df38:    206f7420     to     DCD    544175136
        0x0001df3c:    65776f70    powe    DCD    1702326128
        0x0001df40:    6f642072    r do    DCD    1868832882
        0x0001df44:    53206e77    wn S    DCD    1394634359
        0x0001df48:    204f4944    DIO     DCD    542067012
        0x0001df4c:    69726570    peri    DCD    1769104752
        0x0001df50:    72656870    pher    DCD    1919248496
        0x0001df54:    000a6c61    al..    DCD    683105
        0x0001df58:    65776f50    Powe    DCD    1702326096
        0x0001df5c:    6f642072    r do    DCD    1868832882
        0x0001df60:    53206e77    wn S    DCD    1394634359
        0x0001df64:    204f4944    DIO     DCD    542067012
        0x0001df68:    69726570    peri    DCD    1769104752
        0x0001df6c:    72656870    pher    DCD    1919248496
        0x0001df70:    000a6c61    al..    DCD    683105
    $t
    i.mmc_disk_ioctl
    mmc_disk_ioctl
        0x0001df74:    4602        .F      MOV      r2,r0
        0x0001df76:    2301        .#      MOVS     r3,#1
        0x0001df78:    480e        .H      LDR      r0,[pc,#56] ; [0x1dfb4] = 0x10000118
        0x0001df7a:    7800        .x      LDRB     r0,[r0,#0]
        0x0001df7c:    f0000001    ....    AND      r0,r0,#1
        0x0001df80:    b108        ..      CBZ      r0,0x1df86 ; mmc_disk_ioctl + 18
        0x0001df82:    2003        .       MOVS     r0,#3
        0x0001df84:    4770        pG      BX       lr
        0x0001df86:    b122        ".      CBZ      r2,0x1df92 ; mmc_disk_ioctl + 30
        0x0001df88:    2a01        .*      CMP      r2,#1
        0x0001df8a:    d004        ..      BEQ      0x1df96 ; mmc_disk_ioctl + 34
        0x0001df8c:    2a03        .*      CMP      r2,#3
        0x0001df8e:    d10b        ..      BNE      0x1dfa8 ; mmc_disk_ioctl + 52
        0x0001df90:    e006        ..      B        0x1dfa0 ; mmc_disk_ioctl + 44
        0x0001df92:    2300        .#      MOVS     r3,#0
        0x0001df94:    e00a        ..      B        0x1dfac ; mmc_disk_ioctl + 56
        0x0001df96:    4808        .H      LDR      r0,[pc,#32] ; [0x1dfb8] = 0x10000120
        0x0001df98:    6800        .h      LDR      r0,[r0,#0]
        0x0001df9a:    6008        .`      STR      r0,[r1,#0]
        0x0001df9c:    2300        .#      MOVS     r3,#0
        0x0001df9e:    e005        ..      B        0x1dfac ; mmc_disk_ioctl + 56
        0x0001dfa0:    2001        .       MOVS     r0,#1
        0x0001dfa2:    6008        .`      STR      r0,[r1,#0]
        0x0001dfa4:    2300        .#      MOVS     r3,#0
        0x0001dfa6:    e001        ..      B        0x1dfac ; mmc_disk_ioctl + 56
        0x0001dfa8:    2304        .#      MOVS     r3,#4
        0x0001dfaa:    bf00        ..      NOP      
        0x0001dfac:    bf00        ..      NOP      
        0x0001dfae:    4618        .F      MOV      r0,r3
        0x0001dfb0:    e7e8        ..      B        0x1df84 ; mmc_disk_ioctl + 16
    $d
        0x0001dfb2:    0000        ..      DCW    0
        0x0001dfb4:    10000118    ....    DCD    268435736
        0x0001dfb8:    10000120     ...    DCD    268435744
    $t
    i.mmc_disk_read
    mmc_disk_read
        0x0001dfbc:    e92d41f0    -..A    PUSH     {r4-r8,lr}
        0x0001dfc0:    4606        .F      MOV      r6,r0
        0x0001dfc2:    460f        .F      MOV      r7,r1
        0x0001dfc4:    4615        .F      MOV      r5,r2
        0x0001dfc6:    f04f0800    O...    MOV      r8,#0
        0x0001dfca:    b915        ..      CBNZ     r5,0x1dfd2 ; mmc_disk_read + 22
        0x0001dfcc:    2004        .       MOVS     r0,#4
        0x0001dfce:    e8bd81f0    ....    POP      {r4-r8,pc}
        0x0001dfd2:    4827        'H      LDR      r0,[pc,#156] ; [0x1e070] = 0x10000118
        0x0001dfd4:    7800        .x      LDRB     r0,[r0,#0]
        0x0001dfd6:    f0000001    ....    AND      r0,r0,#1
        0x0001dfda:    b108        ..      CBZ      r0,0x1dfe0 ; mmc_disk_read + 36
        0x0001dfdc:    2003        .       MOVS     r0,#3
        0x0001dfde:    e7f6        ..      B        0x1dfce ; mmc_disk_read + 18
        0x0001dfe0:    4824        $H      LDR      r0,[pc,#144] ; [0x1e074] = 0x100009c4
        0x0001dfe2:    f7fbf9e1    ....    BL       am_hal_card_pwrctrl_wakeup ; 0x193a8
        0x0001dfe6:    b120         .      CBZ      r0,0x1dff2 ; mmc_disk_read + 54
        0x0001dfe8:    a023        #.      ADR      r0,{pc}+0x90 ; 0x1e078
        0x0001dfea:    f7fdf9f1    ....    BL       am_util_stdio_printf ; 0x1b3d0
        0x0001dfee:    2001        .       MOVS     r0,#1
        0x0001dff0:    e7ed        ..      B        0x1dfce ; mmc_disk_read + 18
        0x0001dff2:    a02a        *.      ADR      r0,{pc}+0xaa ; 0x1e09c
        0x0001dff4:    f7fdf9ec    ....    BL       am_util_stdio_printf ; 0x1b3d0
        0x0001dff8:    a02f        /.      ADR      r0,{pc}+0xc0 ; 0x1e0b8
        0x0001dffa:    f7fdf9e9    ....    BL       am_util_stdio_printf ; 0x1b3d0
        0x0001dffe:    463a        :F      MOV      r2,r7
        0x0001e000:    4629        )F      MOV      r1,r5
        0x0001e002:    a030        0.      ADR      r0,{pc}+0xc2 ; 0x1e0c4
        0x0001e004:    f7fdf9e4    ....    BL       am_util_stdio_printf ; 0x1b3d0
        0x0001e008:    2000        .       MOVS     r0,#0
        0x0001e00a:    4934        4I      LDR      r1,[pc,#208] ; [0x1e0dc] = 0x1000011a
        0x0001e00c:    7008        .p      STRB     r0,[r1,#0]
        0x0001e00e:    4633        3F      MOV      r3,r6
        0x0001e010:    462a        *F      MOV      r2,r5
        0x0001e012:    4639        9F      MOV      r1,r7
        0x0001e014:    4817        .H      LDR      r0,[pc,#92] ; [0x1e074] = 0x100009c4
        0x0001e016:    f7fafaeb    ....    BL       am_hal_card_block_read_async ; 0x185f0
        0x0001e01a:    4604        .F      MOV      r4,r0
        0x0001e01c:    b12c        ,.      CBZ      r4,0x1e02a ; mmc_disk_read + 110
        0x0001e01e:    4621        !F      MOV      r1,r4
        0x0001e020:    a02f        /.      ADR      r0,{pc}+0xc0 ; 0x1e0e0
        0x0001e022:    f7fdf9d5    ....    BL       am_util_stdio_printf ; 0x1b3d0
        0x0001e026:    2001        .       MOVS     r0,#1
        0x0001e028:    e7d1        ..      B        0x1dfce ; mmc_disk_read + 18
        0x0001e02a:    e00c        ..      B        0x1e046 ; mmc_disk_read + 138
        0x0001e02c:    2001        .       MOVS     r0,#1
        0x0001e02e:    f7fdf963    ..c.    BL       am_util_delay_ms ; 0x1b2f8
        0x0001e032:    f1080801    ....    ADD      r8,r8,#1
        0x0001e036:    f5b87f7a    ..z.    CMP      r8,#0x3e8
        0x0001e03a:    d104        ..      BNE      0x1e046 ; mmc_disk_read + 138
        0x0001e03c:    a033        3.      ADR      r0,{pc}+0xd0 ; 0x1e10c
        0x0001e03e:    f7fdf9c7    ....    BL       am_util_stdio_printf ; 0x1b3d0
        0x0001e042:    2001        .       MOVS     r0,#1
        0x0001e044:    e7c3        ..      B        0x1dfce ; mmc_disk_read + 18
        0x0001e046:    4825        %H      LDR      r0,[pc,#148] ; [0x1e0dc] = 0x1000011a
        0x0001e048:    7800        .x      LDRB     r0,[r0,#0]
        0x0001e04a:    2800        .(      CMP      r0,#0
        0x0001e04c:    d0ee        ..      BEQ      0x1e02c ; mmc_disk_read + 112
        0x0001e04e:    a033        3.      ADR      r0,{pc}+0xce ; 0x1e11c
        0x0001e050:    f7fdf9be    ....    BL       am_util_stdio_printf ; 0x1b3d0
        0x0001e054:    4807        .H      LDR      r0,[pc,#28] ; [0x1e074] = 0x100009c4
        0x0001e056:    f7fbf839    ..9.    BL       am_hal_card_pwrctrl_sleep ; 0x190cc
        0x0001e05a:    b120         .      CBZ      r0,0x1e066 ; mmc_disk_read + 170
        0x0001e05c:    a034        4.      ADR      r0,{pc}+0xd4 ; 0x1e130
        0x0001e05e:    f7fdf9b7    ....    BL       am_util_stdio_printf ; 0x1b3d0
        0x0001e062:    2001        .       MOVS     r0,#1
        0x0001e064:    e7b3        ..      B        0x1dfce ; mmc_disk_read + 18
        0x0001e066:    a03b        ;.      ADR      r0,{pc}+0xee ; 0x1e154
        0x0001e068:    f7fdf9b2    ....    BL       am_util_stdio_printf ; 0x1b3d0
        0x0001e06c:    2000        .       MOVS     r0,#0
        0x0001e06e:    e7ae        ..      B        0x1dfce ; mmc_disk_read + 18
    $d
        0x0001e070:    10000118    ....    DCD    268435736
        0x0001e074:    100009c4    ....    DCD    268437956
        0x0001e078:    6c696146    Fail    DCD    1818845510
        0x0001e07c:    206f7420     to     DCD    544175136
        0x0001e080:    65776f70    powe    DCD    1702326128
        0x0001e084:    70752072    r up    DCD    1886724210
        0x0001e088:    49445320     SDI    DCD    1229214496
        0x0001e08c:    6570204f    O pe    DCD    1701847119
        0x0001e090:    68706972    riph    DCD    1752197490
        0x0001e094:    6c617265    eral    DCD    1818325605
        0x0001e098:    0000000a    ....    DCD    10
        0x0001e09c:    65776f50    Powe    DCD    1702326096
        0x0001e0a0:    70752072    r up    DCD    1886724210
        0x0001e0a4:    49445320     SDI    DCD    1229214496
        0x0001e0a8:    6570204f    O pe    DCD    1701847119
        0x0001e0ac:    68706972    riph    DCD    1752197490
        0x0001e0b0:    6c617265    eral    DCD    1818325605
        0x0001e0b4:    0000000a    ....    DCD    10
        0x0001e0b8:    64616552    Read    DCD    1684104530
        0x0001e0bc:    74614420     Dat    DCD    1952531488
        0x0001e0c0:    00000a61    a...    DCD    2657
        0x0001e0c4:    6e756f63    coun    DCD    1853189987
        0x0001e0c8:    203d2074    t =     DCD    540876916
        0x0001e0cc:    20206425    %d      DCD    538993701
        0x0001e0d0:    74636573    sect    DCD    1952671091
        0x0001e0d4:    203d726f    or=     DCD    540897903
        0x0001e0d8:    000a6425    %d..    DCD    680997
        0x0001e0dc:    1000011a    ....    DCD    268435738
        0x0001e0e0:    6c696146    Fail    DCD    1818845510
        0x0001e0e4:    206f7420     to     DCD    544175136
        0x0001e0e8:    6c6c6163    call    DCD    1819042147
        0x0001e0ec:    61657220     rea    DCD    1634038304
        0x0001e0f0:    50412064    d AP    DCD    1346445412
        0x0001e0f4:    52202e49    I. R    DCD    1377840713
        0x0001e0f8:    20646165    ead     DCD    543449445
        0x0001e0fc:    74617453    Stat    DCD    1952543827
        0x0001e100:    3d207375    us =    DCD    1025536885
        0x0001e104:    0a642520     %d.    DCD    174335264
        0x0001e108:    00000000    ....    DCD    0
        0x0001e10c:    64616552    Read    DCD    1684104530
        0x0001e110:    6d695420     Tim    DCD    1835619360
        0x0001e114:    74756f65    eout    DCD    1953853285
        0x0001e118:    0000000a    ....    DCD    10
        0x0001e11c:    64616552    Read    DCD    1684104530
        0x0001e120:    6d6f4320     Com    DCD    1836008224
        0x0001e124:    74656c70    plet    DCD    1952803952
        0x0001e128:    0a206465    ed .    DCD    169895013
        0x0001e12c:    00000000    ....    DCD    0
        0x0001e130:    6c696146    Fail    DCD    1818845510
        0x0001e134:    206f7420     to     DCD    544175136
        0x0001e138:    65776f70    powe    DCD    1702326128
        0x0001e13c:    6f642072    r do    DCD    1868832882
        0x0001e140:    53206e77    wn S    DCD    1394634359
        0x0001e144:    204f4944    DIO     DCD    542067012
        0x0001e148:    69726570    peri    DCD    1769104752
        0x0001e14c:    72656870    pher    DCD    1919248496
        0x0001e150:    000a6c61    al..    DCD    683105
        0x0001e154:    65776f50    Powe    DCD    1702326096
        0x0001e158:    6f642072    r do    DCD    1868832882
        0x0001e15c:    53206e77    wn S    DCD    1394634359
        0x0001e160:    204f4944    DIO     DCD    542067012
        0x0001e164:    69726570    peri    DCD    1769104752
        0x0001e168:    72656870    pher    DCD    1919248496
        0x0001e16c:    000a6c61    al..    DCD    683105
    $t
    i.mmc_disk_status
    mmc_disk_status
        0x0001e170:    4801        .H      LDR      r0,[pc,#4] ; [0x1e178] = 0x10000118
        0x0001e172:    7800        .x      LDRB     r0,[r0,#0]
        0x0001e174:    4770        pG      BX       lr
    $d
        0x0001e176:    0000        ..      DCW    0
        0x0001e178:    10000118    ....    DCD    268435736
    $t
    i.mmc_disk_write
    mmc_disk_write
        0x0001e17c:    e92d47f0    -..G    PUSH     {r4-r10,lr}
        0x0001e180:    4606        .F      MOV      r6,r0
        0x0001e182:    460f        .F      MOV      r7,r1
        0x0001e184:    4615        .F      MOV      r5,r2
        0x0001e186:    f04f0900    O...    MOV      r9,#0
        0x0001e18a:    b915        ..      CBNZ     r5,0x1e192 ; mmc_disk_write + 22
        0x0001e18c:    2004        .       MOVS     r0,#4
        0x0001e18e:    e8bd87f0    ....    POP      {r4-r10,pc}
        0x0001e192:    4828        (H      LDR      r0,[pc,#160] ; [0x1e234] = 0x10000118
        0x0001e194:    7800        .x      LDRB     r0,[r0,#0]
        0x0001e196:    f0000001    ....    AND      r0,r0,#1
        0x0001e19a:    b108        ..      CBZ      r0,0x1e1a0 ; mmc_disk_write + 36
        0x0001e19c:    2003        .       MOVS     r0,#3
        0x0001e19e:    e7f6        ..      B        0x1e18e ; mmc_disk_write + 18
        0x0001e1a0:    4825        %H      LDR      r0,[pc,#148] ; [0x1e238] = 0x100009c4
        0x0001e1a2:    f7fbf901    ....    BL       am_hal_card_pwrctrl_wakeup ; 0x193a8
        0x0001e1a6:    b120         .      CBZ      r0,0x1e1b2 ; mmc_disk_write + 54
        0x0001e1a8:    a024        $.      ADR      r0,{pc}+0x94 ; 0x1e23c
        0x0001e1aa:    f7fdf911    ....    BL       am_util_stdio_printf ; 0x1b3d0
        0x0001e1ae:    2001        .       MOVS     r0,#1
        0x0001e1b0:    e7ed        ..      B        0x1e18e ; mmc_disk_write + 18
        0x0001e1b2:    a02b        +.      ADR      r0,{pc}+0xae ; 0x1e260
        0x0001e1b4:    f7fdf90c    ....    BL       am_util_stdio_printf ; 0x1b3d0
        0x0001e1b8:    a030        0.      ADR      r0,{pc}+0xc4 ; 0x1e27c
        0x0001e1ba:    f7fdf909    ....    BL       am_util_stdio_printf ; 0x1b3d0
        0x0001e1be:    463a        :F      MOV      r2,r7
        0x0001e1c0:    4629        )F      MOV      r1,r5
        0x0001e1c2:    a031        1.      ADR      r0,{pc}+0xc6 ; 0x1e288
        0x0001e1c4:    f7fdf904    ....    BL       am_util_stdio_printf ; 0x1b3d0
        0x0001e1c8:    46b0        .F      MOV      r8,r6
        0x0001e1ca:    2000        .       MOVS     r0,#0
        0x0001e1cc:    4934        4I      LDR      r1,[pc,#208] ; [0x1e2a0] = 0x10000119
        0x0001e1ce:    7008        .p      STRB     r0,[r1,#0]
        0x0001e1d0:    4643        CF      MOV      r3,r8
        0x0001e1d2:    462a        *F      MOV      r2,r5
        0x0001e1d4:    4639        9F      MOV      r1,r7
        0x0001e1d6:    4818        .H      LDR      r0,[pc,#96] ; [0x1e238] = 0x100009c4
        0x0001e1d8:    f7fafa90    ....    BL       am_hal_card_block_write_async ; 0x186fc
        0x0001e1dc:    4604        .F      MOV      r4,r0
        0x0001e1de:    b12c        ,.      CBZ      r4,0x1e1ec ; mmc_disk_write + 112
        0x0001e1e0:    4621        !F      MOV      r1,r4
        0x0001e1e2:    a030        0.      ADR      r0,{pc}+0xc2 ; 0x1e2a4
        0x0001e1e4:    f7fdf8f4    ....    BL       am_util_stdio_printf ; 0x1b3d0
        0x0001e1e8:    2001        .       MOVS     r0,#1
        0x0001e1ea:    e7d0        ..      B        0x1e18e ; mmc_disk_write + 18
        0x0001e1ec:    e00c        ..      B        0x1e208 ; mmc_disk_write + 140
        0x0001e1ee:    2001        .       MOVS     r0,#1
        0x0001e1f0:    f7fdf882    ....    BL       am_util_delay_ms ; 0x1b2f8
        0x0001e1f4:    f1090901    ....    ADD      r9,r9,#1
        0x0001e1f8:    f5b97f7a    ..z.    CMP      r9,#0x3e8
        0x0001e1fc:    d104        ..      BNE      0x1e208 ; mmc_disk_write + 140
        0x0001e1fe:    a034        4.      ADR      r0,{pc}+0xd2 ; 0x1e2d0
        0x0001e200:    f7fdf8e6    ....    BL       am_util_stdio_printf ; 0x1b3d0
        0x0001e204:    2001        .       MOVS     r0,#1
        0x0001e206:    e7c2        ..      B        0x1e18e ; mmc_disk_write + 18
        0x0001e208:    4825        %H      LDR      r0,[pc,#148] ; [0x1e2a0] = 0x10000119
        0x0001e20a:    7800        .x      LDRB     r0,[r0,#0]
        0x0001e20c:    2800        .(      CMP      r0,#0
        0x0001e20e:    d0ee        ..      BEQ      0x1e1ee ; mmc_disk_write + 114
        0x0001e210:    a033        3.      ADR      r0,{pc}+0xd0 ; 0x1e2e0
        0x0001e212:    f7fdf8dd    ....    BL       am_util_stdio_printf ; 0x1b3d0
        0x0001e216:    4808        .H      LDR      r0,[pc,#32] ; [0x1e238] = 0x100009c4
        0x0001e218:    f7faff58    ..X.    BL       am_hal_card_pwrctrl_sleep ; 0x190cc
        0x0001e21c:    b120         .      CBZ      r0,0x1e228 ; mmc_disk_write + 172
        0x0001e21e:    a035        5.      ADR      r0,{pc}+0xd6 ; 0x1e2f4
        0x0001e220:    f7fdf8d6    ....    BL       am_util_stdio_printf ; 0x1b3d0
        0x0001e224:    2001        .       MOVS     r0,#1
        0x0001e226:    e7b2        ..      B        0x1e18e ; mmc_disk_write + 18
        0x0001e228:    a03b        ;.      ADR      r0,{pc}+0xf0 ; 0x1e318
        0x0001e22a:    f7fdf8d1    ....    BL       am_util_stdio_printf ; 0x1b3d0
        0x0001e22e:    2000        .       MOVS     r0,#0
        0x0001e230:    e7ad        ..      B        0x1e18e ; mmc_disk_write + 18
    $d
        0x0001e232:    0000        ..      DCW    0
        0x0001e234:    10000118    ....    DCD    268435736
        0x0001e238:    100009c4    ....    DCD    268437956
        0x0001e23c:    6c696146    Fail    DCD    1818845510
        0x0001e240:    206f7420     to     DCD    544175136
        0x0001e244:    65776f70    powe    DCD    1702326128
        0x0001e248:    70752072    r up    DCD    1886724210
        0x0001e24c:    49445320     SDI    DCD    1229214496
        0x0001e250:    6570204f    O pe    DCD    1701847119
        0x0001e254:    68706972    riph    DCD    1752197490
        0x0001e258:    6c617265    eral    DCD    1818325605
        0x0001e25c:    0000000a    ....    DCD    10
        0x0001e260:    65776f50    Powe    DCD    1702326096
        0x0001e264:    70752072    r up    DCD    1886724210
        0x0001e268:    49445320     SDI    DCD    1229214496
        0x0001e26c:    6570204f    O pe    DCD    1701847119
        0x0001e270:    68706972    riph    DCD    1752197490
        0x0001e274:    6c617265    eral    DCD    1818325605
        0x0001e278:    0000000a    ....    DCD    10
        0x0001e27c:    74697257    Writ    DCD    1953067607
        0x0001e280:    61442065    e Da    DCD    1631854693
        0x0001e284:    000a6174    ta..    DCD    680308
        0x0001e288:    6e756f63    coun    DCD    1853189987
        0x0001e28c:    203d2074    t =     DCD    540876916
        0x0001e290:    20206425    %d      DCD    538993701
        0x0001e294:    74636573    sect    DCD    1952671091
        0x0001e298:    203d726f    or=     DCD    540897903
        0x0001e29c:    000a6425    %d..    DCD    680997
        0x0001e2a0:    10000119    ....    DCD    268435737
        0x0001e2a4:    6c696146    Fail    DCD    1818845510
        0x0001e2a8:    206f7420     to     DCD    544175136
        0x0001e2ac:    6c6c6163    call    DCD    1819042147
        0x0001e2b0:    69727720     wri    DCD    1769109280
        0x0001e2b4:    41206574    te A    DCD    1092642164
        0x0001e2b8:    202e4950    PI.     DCD    539904336
        0x0001e2bc:    74697257    Writ    DCD    1953067607
        0x0001e2c0:    74532065    e St    DCD    1951604837
        0x0001e2c4:    73757461    atus    DCD    1937077345
        0x0001e2c8:    25203d20     = %    DCD    622869792
        0x0001e2cc:    00000a64    d...    DCD    2660
        0x0001e2d0:    74697257    Writ    DCD    1953067607
        0x0001e2d4:    69542065    e Ti    DCD    1767120997
        0x0001e2d8:    756f656d    meou    DCD    1970234733
        0x0001e2dc:    00000a74    t...    DCD    2676
        0x0001e2e0:    74697257    Writ    DCD    1953067607
        0x0001e2e4:    6f432065    e Co    DCD    1866670181
        0x0001e2e8:    656c706d    mple    DCD    1701605485
        0x0001e2ec:    20646574    ted     DCD    543450484
        0x0001e2f0:    0000000a    ....    DCD    10
        0x0001e2f4:    6c696146    Fail    DCD    1818845510
        0x0001e2f8:    206f7420     to     DCD    544175136
        0x0001e2fc:    65776f70    powe    DCD    1702326128
        0x0001e300:    6f642072    r do    DCD    1868832882
        0x0001e304:    53206e77    wn S    DCD    1394634359
        0x0001e308:    204f4944    DIO     DCD    542067012
        0x0001e30c:    69726570    peri    DCD    1769104752
        0x0001e310:    72656870    pher    DCD    1919248496
        0x0001e314:    000a6c61    al..    DCD    683105
        0x0001e318:    65776f50    Powe    DCD    1702326096
        0x0001e31c:    6f642072    r do    DCD    1868832882
        0x0001e320:    53206e77    wn S    DCD    1394634359
        0x0001e324:    204f4944    DIO     DCD    542067012
        0x0001e328:    69726570    peri    DCD    1769104752
        0x0001e32c:    72656870    pher    DCD    1919248496
        0x0001e330:    000a6c61    al..    DCD    683105
    $t
    i.mount_volume
    mount_volume
        0x0001e334:    e92d4ff7    -..O    PUSH     {r0-r2,r4-r11,lr}
        0x0001e338:    b084        ..      SUB      sp,sp,#0x10
        0x0001e33a:    2100        .!      MOVS     r1,#0
        0x0001e33c:    9805        ..      LDR      r0,[sp,#0x14]
        0x0001e33e:    6001        .`      STR      r1,[r0,#0]
        0x0001e340:    9804        ..      LDR      r0,[sp,#0x10]
        0x0001e342:    f7fffac5    ....    BL       get_ldnumber ; 0x1d8d0
        0x0001e346:    9003        ..      STR      r0,[sp,#0xc]
        0x0001e348:    9803        ..      LDR      r0,[sp,#0xc]
        0x0001e34a:    2800        .(      CMP      r0,#0
        0x0001e34c:    da03        ..      BGE      0x1e356 ; mount_volume + 34
        0x0001e34e:    200b        .       MOVS     r0,#0xb
        0x0001e350:    b007        ..      ADD      sp,sp,#0x1c
        0x0001e352:    e8bd8ff0    ....    POP      {r4-r11,pc}
        0x0001e356:    499d        .I      LDR      r1,[pc,#628] ; [0x1e5cc] = 0x10000000
        0x0001e358:    9803        ..      LDR      r0,[sp,#0xc]
        0x0001e35a:    f8514020    Q. @    LDR      r4,[r1,r0,LSL #2]
        0x0001e35e:    b90c        ..      CBNZ     r4,0x1e364 ; mount_volume + 48
        0x0001e360:    200c        .       MOVS     r0,#0xc
        0x0001e362:    e7f5        ..      B        0x1e350 ; mount_volume + 28
        0x0001e364:    9805        ..      LDR      r0,[sp,#0x14]
        0x0001e366:    6004        .`      STR      r4,[r0,#0]
        0x0001e368:    9806        ..      LDR      r0,[sp,#0x18]
        0x0001e36a:    f00000fe    ....    AND      r0,r0,#0xfe
        0x0001e36e:    9006        ..      STR      r0,[sp,#0x18]
        0x0001e370:    7820         x      LDRB     r0,[r4,#0]
        0x0001e372:    b178        x.      CBZ      r0,0x1e394 ; mount_volume + 96
        0x0001e374:    7860        `x      LDRB     r0,[r4,#1]
        0x0001e376:    f7fef8c3    ....    BL       disk_status ; 0x1c500
        0x0001e37a:    4607        .F      MOV      r7,r0
        0x0001e37c:    f0070001    ....    AND      r0,r7,#1
        0x0001e380:    b940        @.      CBNZ     r0,0x1e394 ; mount_volume + 96
        0x0001e382:    9806        ..      LDR      r0,[sp,#0x18]
        0x0001e384:    b120         .      CBZ      r0,0x1e390 ; mount_volume + 92
        0x0001e386:    f0070004    ....    AND      r0,r7,#4
        0x0001e38a:    b108        ..      CBZ      r0,0x1e390 ; mount_volume + 92
        0x0001e38c:    200a        .       MOVS     r0,#0xa
        0x0001e38e:    e7df        ..      B        0x1e350 ; mount_volume + 28
        0x0001e390:    2000        .       MOVS     r0,#0
        0x0001e392:    e7dd        ..      B        0x1e350 ; mount_volume + 28
        0x0001e394:    2000        .       MOVS     r0,#0
        0x0001e396:    7020         p      STRB     r0,[r4,#0]
        0x0001e398:    9803        ..      LDR      r0,[sp,#0xc]
        0x0001e39a:    7060        `p      STRB     r0,[r4,#1]
        0x0001e39c:    7860        `x      LDRB     r0,[r4,#1]
        0x0001e39e:    f7fef88b    ....    BL       disk_initialize ; 0x1c4b8
        0x0001e3a2:    4607        .F      MOV      r7,r0
        0x0001e3a4:    f0070001    ....    AND      r0,r7,#1
        0x0001e3a8:    b108        ..      CBZ      r0,0x1e3ae ; mount_volume + 122
        0x0001e3aa:    2003        .       MOVS     r0,#3
        0x0001e3ac:    e7d0        ..      B        0x1e350 ; mount_volume + 28
        0x0001e3ae:    9806        ..      LDR      r0,[sp,#0x18]
        0x0001e3b0:    b120         .      CBZ      r0,0x1e3bc ; mount_volume + 136
        0x0001e3b2:    f0070004    ....    AND      r0,r7,#4
        0x0001e3b6:    b108        ..      CBZ      r0,0x1e3bc ; mount_volume + 136
        0x0001e3b8:    200a        .       MOVS     r0,#0xa
        0x0001e3ba:    e7c9        ..      B        0x1e350 ; mount_volume + 28
        0x0001e3bc:    2100        .!      MOVS     r1,#0
        0x0001e3be:    4620         F      MOV      r0,r4
        0x0001e3c0:    f7fff852    ..R.    BL       find_volume ; 0x1d468
        0x0001e3c4:    4605        .F      MOV      r5,r0
        0x0001e3c6:    2d04        .-      CMP      r5,#4
        0x0001e3c8:    d101        ..      BNE      0x1e3ce ; mount_volume + 154
        0x0001e3ca:    2001        .       MOVS     r0,#1
        0x0001e3cc:    e7c0        ..      B        0x1e350 ; mount_volume + 28
        0x0001e3ce:    2d02        .-      CMP      r5,#2
        0x0001e3d0:    d301        ..      BCC      0x1e3d6 ; mount_volume + 162
        0x0001e3d2:    200d        .       MOVS     r0,#0xd
        0x0001e3d4:    e7bc        ..      B        0x1e350 ; mount_volume + 28
        0x0001e3d6:    f8d49034    ..4.    LDR      r9,[r4,#0x34]
        0x0001e3da:    f1040043    ..C.    ADD      r0,r4,#0x43
        0x0001e3de:    f7fffac0    ....    BL       ld_word ; 0x1d962
        0x0001e3e2:    f5b07f00    ....    CMP      r0,#0x200
        0x0001e3e6:    d001        ..      BEQ      0x1e3ec ; mount_volume + 184
        0x0001e3e8:    200d        .       MOVS     r0,#0xd
        0x0001e3ea:    e7b1        ..      B        0x1e350 ; mount_volume + 28
        0x0001e3ec:    f104004e    ..N.    ADD      r0,r4,#0x4e
        0x0001e3f0:    f7fffab7    ....    BL       ld_word ; 0x1d962
        0x0001e3f4:    4606        .F      MOV      r6,r0
        0x0001e3f6:    b926        &.      CBNZ     r6,0x1e402 ; mount_volume + 206
        0x0001e3f8:    f104005c    ..\.    ADD      r0,r4,#0x5c
        0x0001e3fc:    f7fffaa5    ....    BL       ld_dword ; 0x1d94a
        0x0001e400:    4606        .F      MOV      r6,r0
        0x0001e402:    6226        &b      STR      r6,[r4,#0x20]
        0x0001e404:    2048        H       MOVS     r0,#0x48
        0x0001e406:    5d00        .]      LDRB     r0,[r0,r4]
        0x0001e408:    70a0        .p      STRB     r0,[r4,#2]
        0x0001e40a:    78a0        .x      LDRB     r0,[r4,#2]
        0x0001e40c:    2801        .(      CMP      r0,#1
        0x0001e40e:    d004        ..      BEQ      0x1e41a ; mount_volume + 230
        0x0001e410:    78a0        .x      LDRB     r0,[r4,#2]
        0x0001e412:    2802        .(      CMP      r0,#2
        0x0001e414:    d001        ..      BEQ      0x1e41a ; mount_volume + 230
        0x0001e416:    200d        .       MOVS     r0,#0xd
        0x0001e418:    e79a        ..      B        0x1e350 ; mount_volume + 28
        0x0001e41a:    78a0        .x      LDRB     r0,[r4,#2]
        0x0001e41c:    4346        FC      MULS     r6,r0,r6
        0x0001e41e:    2045        E       MOVS     r0,#0x45
        0x0001e420:    5d00        .]      LDRB     r0,[r0,r4]
        0x0001e422:    8160        `.      STRH     r0,[r4,#0xa]
        0x0001e424:    8960        `.      LDRH     r0,[r4,#0xa]
        0x0001e426:    b118        ..      CBZ      r0,0x1e430 ; mount_volume + 252
        0x0001e428:    8960        `.      LDRH     r0,[r4,#0xa]
        0x0001e42a:    1e41        A.      SUBS     r1,r0,#1
        0x0001e42c:    4008        .@      ANDS     r0,r0,r1
        0x0001e42e:    b108        ..      CBZ      r0,0x1e434 ; mount_volume + 256
        0x0001e430:    200d        .       MOVS     r0,#0xd
        0x0001e432:    e78d        ..      B        0x1e350 ; mount_volume + 28
        0x0001e434:    f1040049    ..I.    ADD      r0,r4,#0x49
        0x0001e438:    f7fffa93    ....    BL       ld_word ; 0x1d962
        0x0001e43c:    8120         .      STRH     r0,[r4,#8]
        0x0001e43e:    7a20         z      LDRB     r0,[r4,#8]
        0x0001e440:    f000000f    ....    AND      r0,r0,#0xf
        0x0001e444:    b108        ..      CBZ      r0,0x1e44a ; mount_volume + 278
        0x0001e446:    200d        .       MOVS     r0,#0xd
        0x0001e448:    e782        ..      B        0x1e350 ; mount_volume + 28
        0x0001e44a:    f104004b    ..K.    ADD      r0,r4,#0x4b
        0x0001e44e:    f7fffa88    ....    BL       ld_word ; 0x1d962
        0x0001e452:    4682        .F      MOV      r10,r0
        0x0001e454:    f1ba0f00    ....    CMP      r10,#0
        0x0001e458:    d104        ..      BNE      0x1e464 ; mount_volume + 304
        0x0001e45a:    f1040058    ..X.    ADD      r0,r4,#0x58
        0x0001e45e:    f7fffa74    ..t.    BL       ld_dword ; 0x1d94a
        0x0001e462:    4682        .F      MOV      r10,r0
        0x0001e464:    f1040046    ..F.    ADD      r0,r4,#0x46
        0x0001e468:    f7fffa7b    ..{.    BL       ld_word ; 0x1d962
        0x0001e46c:    4683        .F      MOV      r11,r0
        0x0001e46e:    f1bb0f00    ....    CMP      r11,#0
        0x0001e472:    d101        ..      BNE      0x1e478 ; mount_volume + 324
        0x0001e474:    200d        .       MOVS     r0,#0xd
        0x0001e476:    e76b        k.      B        0x1e350 ; mount_volume + 28
        0x0001e478:    eb0b0006    ....    ADD      r0,r11,r6
        0x0001e47c:    8921        !.      LDRH     r1,[r4,#8]
        0x0001e47e:    eb001011    ....    ADD      r0,r0,r1,LSR #4
        0x0001e482:    9002        ..      STR      r0,[sp,#8]
        0x0001e484:    9802        ..      LDR      r0,[sp,#8]
        0x0001e486:    4582        .E      CMP      r10,r0
        0x0001e488:    d201        ..      BCS      0x1e48e ; mount_volume + 346
        0x0001e48a:    200d        .       MOVS     r0,#0xd
        0x0001e48c:    e760        `.      B        0x1e350 ; mount_volume + 28
        0x0001e48e:    9802        ..      LDR      r0,[sp,#8]
        0x0001e490:    ebaa0000    ....    SUB      r0,r10,r0
        0x0001e494:    8961        a.      LDRH     r1,[r4,#0xa]
        0x0001e496:    fbb0f8f1    ....    UDIV     r8,r0,r1
        0x0001e49a:    f1b80f00    ....    CMP      r8,#0
        0x0001e49e:    d101        ..      BNE      0x1e4a4 ; mount_volume + 368
        0x0001e4a0:    200d        .       MOVS     r0,#0xd
        0x0001e4a2:    e755        U.      B        0x1e350 ; mount_volume + 28
        0x0001e4a4:    2500        .%      MOVS     r5,#0
        0x0001e4a6:    484a        JH      LDR      r0,[pc,#296] ; [0x1e5d0] = 0xffffff5
        0x0001e4a8:    4580        .E      CMP      r8,r0
        0x0001e4aa:    d800        ..      BHI      0x1e4ae ; mount_volume + 378
        0x0001e4ac:    2503        .%      MOVS     r5,#3
        0x0001e4ae:    f64f70f5    O..p    MOV      r0,#0xfff5
        0x0001e4b2:    4580        .E      CMP      r8,r0
        0x0001e4b4:    d800        ..      BHI      0x1e4b8 ; mount_volume + 388
        0x0001e4b6:    2502        .%      MOVS     r5,#2
        0x0001e4b8:    f64070f5    @..p    MOV      r0,#0xff5
        0x0001e4bc:    4580        .E      CMP      r8,r0
        0x0001e4be:    d800        ..      BHI      0x1e4c2 ; mount_volume + 398
        0x0001e4c0:    2501        .%      MOVS     r5,#1
        0x0001e4c2:    b90d        ..      CBNZ     r5,0x1e4c8 ; mount_volume + 404
        0x0001e4c4:    200d        .       MOVS     r0,#0xd
        0x0001e4c6:    e743        C.      B        0x1e350 ; mount_volume + 28
        0x0001e4c8:    f1080002    ....    ADD      r0,r8,#2
        0x0001e4cc:    61e0        .a      STR      r0,[r4,#0x1c]
        0x0001e4ce:    f8c49024    ..$.    STR      r9,[r4,#0x24]
        0x0001e4d2:    eb09000b    ....    ADD      r0,r9,r11
        0x0001e4d6:    62a0        .b      STR      r0,[r4,#0x28]
        0x0001e4d8:    9802        ..      LDR      r0,[sp,#8]
        0x0001e4da:    4448        HD      ADD      r0,r0,r9
        0x0001e4dc:    6320         c      STR      r0,[r4,#0x30]
        0x0001e4de:    2d03        .-      CMP      r5,#3
        0x0001e4e0:    d113        ..      BNE      0x1e50a ; mount_volume + 470
        0x0001e4e2:    f1040062    ..b.    ADD      r0,r4,#0x62
        0x0001e4e6:    f7fffa3c    ..<.    BL       ld_word ; 0x1d962
        0x0001e4ea:    b108        ..      CBZ      r0,0x1e4f0 ; mount_volume + 444
        0x0001e4ec:    200d        .       MOVS     r0,#0xd
        0x0001e4ee:    e72f        /.      B        0x1e350 ; mount_volume + 28
        0x0001e4f0:    8920         .      LDRH     r0,[r4,#8]
        0x0001e4f2:    b108        ..      CBZ      r0,0x1e4f8 ; mount_volume + 452
        0x0001e4f4:    200d        .       MOVS     r0,#0xd
        0x0001e4f6:    e72b        +.      B        0x1e350 ; mount_volume + 28
        0x0001e4f8:    f1040064    ..d.    ADD      r0,r4,#0x64
        0x0001e4fc:    f7fffa25    ..%.    BL       ld_dword ; 0x1d94a
        0x0001e500:    62e0        .b      STR      r0,[r4,#0x2c]
        0x0001e502:    69e0        .i      LDR      r0,[r4,#0x1c]
        0x0001e504:    0080        ..      LSLS     r0,r0,#2
        0x0001e506:    9001        ..      STR      r0,[sp,#4]
        0x0001e508:    e014        ..      B        0x1e534 ; mount_volume + 512
        0x0001e50a:    8920         .      LDRH     r0,[r4,#8]
        0x0001e50c:    b908        ..      CBNZ     r0,0x1e512 ; mount_volume + 478
        0x0001e50e:    200d        .       MOVS     r0,#0xd
        0x0001e510:    e71e        ..      B        0x1e350 ; mount_volume + 28
        0x0001e512:    6aa0        .j      LDR      r0,[r4,#0x28]
        0x0001e514:    4430        0D      ADD      r0,r0,r6
        0x0001e516:    62e0        .b      STR      r0,[r4,#0x2c]
        0x0001e518:    2d02        .-      CMP      r5,#2
        0x0001e51a:    d102        ..      BNE      0x1e522 ; mount_volume + 494
        0x0001e51c:    69e0        .i      LDR      r0,[r4,#0x1c]
        0x0001e51e:    0040        @.      LSLS     r0,r0,#1
        0x0001e520:    e007        ..      B        0x1e532 ; mount_volume + 510
        0x0001e522:    7f20         .      LDRB     r0,[r4,#0x1c]
        0x0001e524:    f0000001    ....    AND      r0,r0,#1
        0x0001e528:    69e1        .i      LDR      r1,[r4,#0x1c]
        0x0001e52a:    eb010141    ..A.    ADD      r1,r1,r1,LSL #1
        0x0001e52e:    eb000051    ..Q.    ADD      r0,r0,r1,LSR #1
        0x0001e532:    9001        ..      STR      r0,[sp,#4]
        0x0001e534:    6a21        !j      LDR      r1,[r4,#0x20]
        0x0001e536:    9801        ..      LDR      r0,[sp,#4]
        0x0001e538:    f20010ff    ....    ADD      r0,r0,#0x1ff
        0x0001e53c:    ebb12f50    ..P/    CMP      r1,r0,LSR #9
        0x0001e540:    d201        ..      BCS      0x1e546 ; mount_volume + 530
        0x0001e542:    200d        .       MOVS     r0,#0xd
        0x0001e544:    e704        ..      B        0x1e350 ; mount_volume + 28
        0x0001e546:    f04f30ff    O..0    MOV      r0,#0xffffffff
        0x0001e54a:    6160        `a      STR      r0,[r4,#0x14]
        0x0001e54c:    6120         a      STR      r0,[r4,#0x10]
        0x0001e54e:    2080        .       MOVS     r0,#0x80
        0x0001e550:    7120         q      STRB     r0,[r4,#4]
        0x0001e552:    2d03        .-      CMP      r5,#3
        0x0001e554:    d12d        -.      BNE      0x1e5b2 ; mount_volume + 638
        0x0001e556:    f1040068    ..h.    ADD      r0,r4,#0x68
        0x0001e55a:    f7fffa02    ....    BL       ld_word ; 0x1d962
        0x0001e55e:    2801        .(      CMP      r0,#1
        0x0001e560:    d127        '.      BNE      0x1e5b2 ; mount_volume + 638
        0x0001e562:    f1090101    ....    ADD      r1,r9,#1
        0x0001e566:    4620         F      MOV      r0,r4
        0x0001e568:    f000f83a    ..:.    BL       move_window ; 0x1e5e0
        0x0001e56c:    bb08        ..      CBNZ     r0,0x1e5b2 ; mount_volume + 638
        0x0001e56e:    2000        .       MOVS     r0,#0
        0x0001e570:    7120         q      STRB     r0,[r4,#4]
        0x0001e572:    f2042036    ..6     ADD      r0,r4,#0x236
        0x0001e576:    f7fff9f4    ....    BL       ld_word ; 0x1d962
        0x0001e57a:    f64a2155    J.U!    MOV      r1,#0xaa55
        0x0001e57e:    4288        .B      CMP      r0,r1
        0x0001e580:    d117        ..      BNE      0x1e5b2 ; mount_volume + 638
        0x0001e582:    f1040038    ..8.    ADD      r0,r4,#0x38
        0x0001e586:    f7fff9e0    ....    BL       ld_dword ; 0x1d94a
        0x0001e58a:    4912        .I      LDR      r1,[pc,#72] ; [0x1e5d4] = 0x41615252
        0x0001e58c:    4288        .B      CMP      r0,r1
        0x0001e58e:    d110        ..      BNE      0x1e5b2 ; mount_volume + 638
        0x0001e590:    f5047007    ...p    ADD      r0,r4,#0x21c
        0x0001e594:    f7fff9d9    ....    BL       ld_dword ; 0x1d94a
        0x0001e598:    490f        .I      LDR      r1,[pc,#60] ; [0x1e5d8] = 0x61417272
        0x0001e59a:    4288        .B      CMP      r0,r1
        0x0001e59c:    d109        ..      BNE      0x1e5b2 ; mount_volume + 638
        0x0001e59e:    f5047008    ...p    ADD      r0,r4,#0x220
        0x0001e5a2:    f7fff9d2    ....    BL       ld_dword ; 0x1d94a
        0x0001e5a6:    6160        `a      STR      r0,[r4,#0x14]
        0x0001e5a8:    f5047009    ...p    ADD      r0,r4,#0x224
        0x0001e5ac:    f7fff9cd    ....    BL       ld_dword ; 0x1d94a
        0x0001e5b0:    6120         a      STR      r0,[r4,#0x10]
        0x0001e5b2:    7025        %p      STRB     r5,[r4,#0]
        0x0001e5b4:    4809        .H      LDR      r0,[pc,#36] ; [0x1e5dc] = 0x10000004
        0x0001e5b6:    8800        ..      LDRH     r0,[r0,#0]
        0x0001e5b8:    1c40        @.      ADDS     r0,r0,#1
        0x0001e5ba:    b280        ..      UXTH     r0,r0
        0x0001e5bc:    4907        .I      LDR      r1,[pc,#28] ; [0x1e5dc] = 0x10000004
        0x0001e5be:    8008        ..      STRH     r0,[r1,#0]
        0x0001e5c0:    80e0        ..      STRH     r0,[r4,#6]
        0x0001e5c2:    2000        .       MOVS     r0,#0
        0x0001e5c4:    61a0        .a      STR      r0,[r4,#0x18]
        0x0001e5c6:    bf00        ..      NOP      
        0x0001e5c8:    e6c2        ..      B        0x1e350 ; mount_volume + 28
    $d
        0x0001e5ca:    0000        ..      DCW    0
        0x0001e5cc:    10000000    ....    DCD    268435456
        0x0001e5d0:    0ffffff5    ....    DCD    268435445
        0x0001e5d4:    41615252    RRaA    DCD    1096897106
        0x0001e5d8:    61417272    rrAa    DCD    1631679090
        0x0001e5dc:    10000004    ....    DCD    268435460
    $t
    i.move_window
    move_window
        0x0001e5e0:    b570        p.      PUSH     {r4-r6,lr}
        0x0001e5e2:    4604        .F      MOV      r4,r0
        0x0001e5e4:    460d        .F      MOV      r5,r1
        0x0001e5e6:    2600        .&      MOVS     r6,#0
        0x0001e5e8:    6b60        `k      LDR      r0,[r4,#0x34]
        0x0001e5ea:    42a8        .B      CMP      r0,r5
        0x0001e5ec:    d010        ..      BEQ      0x1e610 ; move_window + 48
        0x0001e5ee:    4620         F      MOV      r0,r4
        0x0001e5f0:    f000fa1c    ....    BL       sync_window ; 0x1ea2c
        0x0001e5f4:    4606        .F      MOV      r6,r0
        0x0001e5f6:    b95e        ^.      CBNZ     r6,0x1e610 ; move_window + 48
        0x0001e5f8:    7860        `x      LDRB     r0,[r4,#1]
        0x0001e5fa:    2301        .#      MOVS     r3,#1
        0x0001e5fc:    462a        *F      MOV      r2,r5
        0x0001e5fe:    f1040138    ..8.    ADD      r1,r4,#0x38
        0x0001e602:    f7fdff6d    ..m.    BL       disk_read ; 0x1c4e0
        0x0001e606:    b110        ..      CBZ      r0,0x1e60e ; move_window + 46
        0x0001e608:    f04f35ff    O..5    MOV      r5,#0xffffffff
        0x0001e60c:    2601        .&      MOVS     r6,#1
        0x0001e60e:    6365        ec      STR      r5,[r4,#0x34]
        0x0001e610:    4630        0F      MOV      r0,r6
        0x0001e612:    bd70        p.      POP      {r4-r6,pc}
    i.ndigits_in_hex
    ndigits_in_hex
        0x0001e614:    b530        0.      PUSH     {r4,r5,lr}
        0x0001e616:    4602        .F      MOV      r2,r0
        0x0001e618:    460b        .F      MOV      r3,r1
        0x0001e61a:    2400        .$      MOVS     r4,#0
        0x0001e61c:    ea820104    ....    EOR      r1,r2,r4
        0x0001e620:    405c        \@      EORS     r4,r4,r3
        0x0001e622:    4321        !C      ORRS     r1,r1,r4
        0x0001e624:    d101        ..      BNE      0x1e62a ; ndigits_in_hex + 22
        0x0001e626:    2101        .!      MOVS     r1,#1
        0x0001e628:    e000        ..      B        0x1e62c ; ndigits_in_hex + 24
        0x0001e62a:    2100        .!      MOVS     r1,#0
        0x0001e62c:    4608        .F      MOV      r0,r1
        0x0001e62e:    e004        ..      B        0x1e63a ; ndigits_in_hex + 38
        0x0001e630:    0911        ..      LSRS     r1,r2,#4
        0x0001e632:    ea417203    A..r    ORR      r2,r1,r3,LSL #28
        0x0001e636:    091b        ..      LSRS     r3,r3,#4
        0x0001e638:    1c40        @.      ADDS     r0,r0,#1
        0x0001e63a:    2400        .$      MOVS     r4,#0
        0x0001e63c:    ea820104    ....    EOR      r1,r2,r4
        0x0001e640:    405c        \@      EORS     r4,r4,r3
        0x0001e642:    4321        !C      ORRS     r1,r1,r4
        0x0001e644:    d1f4        ..      BNE      0x1e630 ; ndigits_in_hex + 28
        0x0001e646:    bd30        0.      POP      {r4,r5,pc}
    i.ndigits_in_i64
    ndigits_in_i64
        0x0001e648:    b570        p.      PUSH     {r4-r6,lr}
        0x0001e64a:    4604        .F      MOV      r4,r0
        0x0001e64c:    460d        .F      MOV      r5,r1
        0x0001e64e:    2100        .!      MOVS     r1,#0
        0x0001e650:    4608        .F      MOV      r0,r1
        0x0001e652:    1a61        a.      SUBS     r1,r4,r1
        0x0001e654:    eb750000    u...    SBCS     r0,r5,r0
        0x0001e658:    da03        ..      BGE      0x1e662 ; ndigits_in_i64 + 26
        0x0001e65a:    2200        ."      MOVS     r2,#0
        0x0001e65c:    4264        dB      RSBS     r4,r4,#0
        0x0001e65e:    eb620505    b...    SBC      r5,r2,r5
        0x0001e662:    4620         F      MOV      r0,r4
        0x0001e664:    4629        )F      MOV      r1,r5
        0x0001e666:    f000f801    ....    BL       ndigits_in_u64 ; 0x1e66c
        0x0001e66a:    bd70        p.      POP      {r4-r6,pc}
    i.ndigits_in_u64
    ndigits_in_u64
        0x0001e66c:    b570        p.      PUSH     {r4-r6,lr}
        0x0001e66e:    4604        .F      MOV      r4,r0
        0x0001e670:    460d        .F      MOV      r5,r1
        0x0001e672:    2100        .!      MOVS     r1,#0
        0x0001e674:    ea840001    ....    EOR      r0,r4,r1
        0x0001e678:    4069        i@      EORS     r1,r1,r5
        0x0001e67a:    4308        .C      ORRS     r0,r0,r1
        0x0001e67c:    d101        ..      BNE      0x1e682 ; ndigits_in_u64 + 22
        0x0001e67e:    2001        .       MOVS     r0,#1
        0x0001e680:    e000        ..      B        0x1e684 ; ndigits_in_u64 + 24
        0x0001e682:    2000        .       MOVS     r0,#0
        0x0001e684:    4606        .F      MOV      r6,r0
        0x0001e686:    e006        ..      B        0x1e696 ; ndigits_in_u64 + 42
        0x0001e688:    4620         F      MOV      r0,r4
        0x0001e68a:    4629        )F      MOV      r1,r5
        0x0001e68c:    f7fdff50    ..P.    BL       divu64_10 ; 0x1c530
        0x0001e690:    4604        .F      MOV      r4,r0
        0x0001e692:    460d        .F      MOV      r5,r1
        0x0001e694:    1c76        v.      ADDS     r6,r6,#1
        0x0001e696:    2100        .!      MOVS     r1,#0
        0x0001e698:    ea840001    ....    EOR      r0,r4,r1
        0x0001e69c:    4069        i@      EORS     r1,r1,r5
        0x0001e69e:    4308        .C      ORRS     r0,r0,r1
        0x0001e6a0:    d1f2        ..      BNE      0x1e688 ; ndigits_in_u64 + 28
        0x0001e6a2:    4630        0F      MOV      r0,r6
        0x0001e6a4:    bd70        p.      POP      {r4-r6,pc}
    i.padbuffer
    padbuffer
        0x0001e6a6:    b530        0.      PUSH     {r4,r5,lr}
        0x0001e6a8:    4603        .F      MOV      r3,r0
        0x0001e6aa:    2000        .       MOVS     r0,#0
        0x0001e6ac:    2a00        .*      CMP      r2,#0
        0x0001e6ae:    dc00        ..      BGT      0x1e6b2 ; padbuffer + 12
        0x0001e6b0:    bd30        0.      POP      {r4,r5,pc}
        0x0001e6b2:    e003        ..      B        0x1e6bc ; padbuffer + 22
        0x0001e6b4:    b10b        ..      CBZ      r3,0x1e6ba ; padbuffer + 20
        0x0001e6b6:    f8031b01    ....    STRB     r1,[r3],#1
        0x0001e6ba:    1c40        @.      ADDS     r0,r0,#1
        0x0001e6bc:    1e14        ..      SUBS     r4,r2,#0
        0x0001e6be:    f1a20201    ....    SUB      r2,r2,#1
        0x0001e6c2:    d1f7        ..      BNE      0x1e6b4 ; padbuffer + 14
        0x0001e6c4:    bf00        ..      NOP      
        0x0001e6c6:    e7f3        ..      B        0x1e6b0 ; padbuffer + 10
    i.put_fat
    put_fat
        0x0001e6c8:    e92d47f0    -..G    PUSH     {r4-r10,lr}
        0x0001e6cc:    4604        .F      MOV      r4,r0
        0x0001e6ce:    460d        .F      MOV      r5,r1
        0x0001e6d0:    4616        .F      MOV      r6,r2
        0x0001e6d2:    f04f0902    O...    MOV      r9,#2
        0x0001e6d6:    2d02        .-      CMP      r5,#2
        0x0001e6d8:    d374        t.      BCC      0x1e7c4 ; put_fat + 252
        0x0001e6da:    69e0        .i      LDR      r0,[r4,#0x1c]
        0x0001e6dc:    42a8        .B      CMP      r0,r5
        0x0001e6de:    d971        q.      BLS      0x1e7c4 ; put_fat + 252
        0x0001e6e0:    7820         x      LDRB     r0,[r4,#0]
        0x0001e6e2:    2801        .(      CMP      r0,#1
        0x0001e6e4:    d004        ..      BEQ      0x1e6f0 ; put_fat + 40
        0x0001e6e6:    2802        .(      CMP      r0,#2
        0x0001e6e8:    d049        I.      BEQ      0x1e77e ; put_fat + 182
        0x0001e6ea:    2803        .(      CMP      r0,#3
        0x0001e6ec:    d10d        ..      BNE      0x1e70a ; put_fat + 66
        0x0001e6ee:    e05e        ^.      B        0x1e7ae ; put_fat + 230
        0x0001e6f0:    462f        /F      MOV      r7,r5
        0x0001e6f2:    eb070757    ..W.    ADD      r7,r7,r7,LSR #1
        0x0001e6f6:    6aa0        .j      LDR      r0,[r4,#0x28]
        0x0001e6f8:    eb002157    ..W!    ADD      r1,r0,r7,LSR #9
        0x0001e6fc:    4620         F      MOV      r0,r4
        0x0001e6fe:    f7ffff6f    ..o.    BL       move_window ; 0x1e5e0
        0x0001e702:    4681        .F      MOV      r9,r0
        0x0001e704:    f1b90f00    ....    CMP      r9,#0
        0x0001e708:    d000        ..      BEQ      0x1e70c ; put_fat + 68
        0x0001e70a:    e075        u.      B        0x1e7f8 ; put_fat + 304
        0x0001e70c:    4638        8F      MOV      r0,r7
        0x0001e70e:    1c7f        ..      ADDS     r7,r7,#1
        0x0001e710:    f3c00108    ....    UBFX     r1,r0,#0,#9
        0x0001e714:    f1040038    ..8.    ADD      r0,r4,#0x38
        0x0001e718:    eb010800    ....    ADD      r8,r1,r0
        0x0001e71c:    f0050001    ....    AND      r0,r5,#1
        0x0001e720:    b128        (.      CBZ      r0,0x1e72e ; put_fat + 102
        0x0001e722:    b2f1        ..      UXTB     r1,r6
        0x0001e724:    f8980000    ....    LDRB     r0,[r8,#0]
        0x0001e728:    f361101f    a...    BFI      r0,r1,#4,#28
        0x0001e72c:    e000        ..      B        0x1e730 ; put_fat + 104
        0x0001e72e:    4630        0F      MOV      r0,r6
        0x0001e730:    f8880000    ....    STRB     r0,[r8,#0]
        0x0001e734:    2001        .       MOVS     r0,#1
        0x0001e736:    70e0        .p      STRB     r0,[r4,#3]
        0x0001e738:    6aa0        .j      LDR      r0,[r4,#0x28]
        0x0001e73a:    eb002157    ..W!    ADD      r1,r0,r7,LSR #9
        0x0001e73e:    4620         F      MOV      r0,r4
        0x0001e740:    f7ffff4e    ..N.    BL       move_window ; 0x1e5e0
        0x0001e744:    4681        .F      MOV      r9,r0
        0x0001e746:    f1b90f00    ....    CMP      r9,#0
        0x0001e74a:    d000        ..      BEQ      0x1e74e ; put_fat + 134
        0x0001e74c:    e054        T.      B        0x1e7f8 ; put_fat + 304
        0x0001e74e:    f3c70108    ....    UBFX     r1,r7,#0,#9
        0x0001e752:    f1040038    ..8.    ADD      r0,r4,#0x38
        0x0001e756:    eb010800    ....    ADD      r8,r1,r0
        0x0001e75a:    f0050001    ....    AND      r0,r5,#1
        0x0001e75e:    b110        ..      CBZ      r0,0x1e766 ; put_fat + 158
        0x0001e760:    f3c61007    ....    UBFX     r0,r6,#4,#8
        0x0001e764:    e006        ..      B        0x1e774 ; put_fat + 172
        0x0001e766:    f8980000    ....    LDRB     r0,[r8,#0]
        0x0001e76a:    f00000f0    ....    AND      r0,r0,#0xf0
        0x0001e76e:    f3c62103    ...!    UBFX     r1,r6,#8,#4
        0x0001e772:    4308        .C      ORRS     r0,r0,r1
        0x0001e774:    f8880000    ....    STRB     r0,[r8,#0]
        0x0001e778:    2001        .       MOVS     r0,#1
        0x0001e77a:    70e0        .p      STRB     r0,[r4,#3]
        0x0001e77c:    e03c        <.      B        0x1e7f8 ; put_fat + 304
        0x0001e77e:    6aa0        .j      LDR      r0,[r4,#0x28]
        0x0001e780:    eb002115    ...!    ADD      r1,r0,r5,LSR #8
        0x0001e784:    4620         F      MOV      r0,r4
        0x0001e786:    f7ffff2b    ..+.    BL       move_window ; 0x1e5e0
        0x0001e78a:    4681        .F      MOV      r9,r0
        0x0001e78c:    f1b90f00    ....    CMP      r9,#0
        0x0001e790:    d000        ..      BEQ      0x1e794 ; put_fat + 204
        0x0001e792:    e031        1.      B        0x1e7f8 ; put_fat + 304
        0x0001e794:    b2b1        ..      UXTH     r1,r6
        0x0001e796:    f24012ff    @...    MOV      r2,#0x1ff
        0x0001e79a:    ea020345    ..E.    AND      r3,r2,r5,LSL #1
        0x0001e79e:    f1040238    ..8.    ADD      r2,r4,#0x38
        0x0001e7a2:    1898        ..      ADDS     r0,r3,r2
        0x0001e7a4:    f000f8e3    ....    BL       st_word ; 0x1e96e
        0x0001e7a8:    2001        .       MOVS     r0,#1
        0x0001e7aa:    70e0        .p      STRB     r0,[r4,#3]
        0x0001e7ac:    e024        $.      B        0x1e7f8 ; put_fat + 304
        0x0001e7ae:    6aa0        .j      LDR      r0,[r4,#0x28]
        0x0001e7b0:    eb0011d5    ....    ADD      r1,r0,r5,LSR #7
        0x0001e7b4:    4620         F      MOV      r0,r4
        0x0001e7b6:    f7ffff13    ....    BL       move_window ; 0x1e5e0
        0x0001e7ba:    4681        .F      MOV      r9,r0
        0x0001e7bc:    f1b90f00    ....    CMP      r9,#0
        0x0001e7c0:    d001        ..      BEQ      0x1e7c6 ; put_fat + 254
        0x0001e7c2:    e019        ..      B        0x1e7f8 ; put_fat + 304
        0x0001e7c4:    e019        ..      B        0x1e7fa ; put_fat + 306
        0x0001e7c6:    f24011ff    @...    MOV      r1,#0x1ff
        0x0001e7ca:    ea010285    ....    AND      r2,r1,r5,LSL #2
        0x0001e7ce:    f1040138    ..8.    ADD      r1,r4,#0x38
        0x0001e7d2:    1850        P.      ADDS     r0,r2,r1
        0x0001e7d4:    f7fff8b9    ....    BL       ld_dword ; 0x1d94a
        0x0001e7d8:    f366001b    f...    BFI      r0,r6,#0,#28
        0x0001e7dc:    4606        .F      MOV      r6,r0
        0x0001e7de:    f24011ff    @...    MOV      r1,#0x1ff
        0x0001e7e2:    ea010285    ....    AND      r2,r1,r5,LSL #2
        0x0001e7e6:    f1040138    ..8.    ADD      r1,r4,#0x38
        0x0001e7ea:    1850        P.      ADDS     r0,r2,r1
        0x0001e7ec:    4631        1F      MOV      r1,r6
        0x0001e7ee:    f000f8b2    ....    BL       st_dword ; 0x1e956
        0x0001e7f2:    2001        .       MOVS     r0,#1
        0x0001e7f4:    70e0        .p      STRB     r0,[r4,#3]
        0x0001e7f6:    bf00        ..      NOP      
        0x0001e7f8:    bf00        ..      NOP      
        0x0001e7fa:    4648        HF      MOV      r0,r9
        0x0001e7fc:    e8bd87f0    ....    POP      {r4-r10,pc}
    i.put_lfn
    put_lfn
        0x0001e800:    e92d47f0    -..G    PUSH     {r4-r10,lr}
        0x0001e804:    4607        .F      MOV      r7,r0
        0x0001e806:    460c        .F      MOV      r4,r1
        0x0001e808:    4615        .F      MOV      r5,r2
        0x0001e80a:    4698        .F      MOV      r8,r3
        0x0001e80c:    f884800d    ....    STRB     r8,[r4,#0xd]
        0x0001e810:    200f        .       MOVS     r0,#0xf
        0x0001e812:    72e0        .r      STRB     r0,[r4,#0xb]
        0x0001e814:    2000        .       MOVS     r0,#0
        0x0001e816:    7320         s      STRB     r0,[r4,#0xc]
        0x0001e818:    2100        .!      MOVS     r1,#0
        0x0001e81a:    f104001a    ....    ADD      r0,r4,#0x1a
        0x0001e81e:    f000f8a6    ....    BL       st_word ; 0x1e96e
        0x0001e822:    1e68        h.      SUBS     r0,r5,#1
        0x0001e824:    eb000180    ....    ADD      r1,r0,r0,LSL #2
        0x0001e828:    eb0109c0    ....    ADD      r9,r1,r0,LSL #3
        0x0001e82c:    2000        .       MOVS     r0,#0
        0x0001e82e:    4606        .F      MOV      r6,r0
        0x0001e830:    4682        .F      MOV      r10,r0
        0x0001e832:    bf00        ..      NOP      
        0x0001e834:    f64f70ff    O..p    MOV      r0,#0xffff
        0x0001e838:    4286        .B      CMP      r6,r0
        0x0001e83a:    d004        ..      BEQ      0x1e846 ; put_lfn + 70
        0x0001e83c:    4648        HF      MOV      r0,r9
        0x0001e83e:    f1090901    ....    ADD      r9,r9,#1
        0x0001e842:    f8376010    7..`    LDRH     r6,[r7,r0,LSL #1]
        0x0001e846:    490d        .I      LDR      r1,[pc,#52] ; [0x1e87c] = 0x1ed0c
        0x0001e848:    f811100a    ....    LDRB     r1,[r1,r10]
        0x0001e84c:    1908        ..      ADDS     r0,r1,r4
        0x0001e84e:    4631        1F      MOV      r1,r6
        0x0001e850:    f000f88d    ....    BL       st_word ; 0x1e96e
        0x0001e854:    b90e        ..      CBNZ     r6,0x1e85a ; put_lfn + 90
        0x0001e856:    f64f76ff    O..v    MOV      r6,#0xffff
        0x0001e85a:    f10a0001    ....    ADD      r0,r10,#1
        0x0001e85e:    4682        .F      MOV      r10,r0
        0x0001e860:    280d        .(      CMP      r0,#0xd
        0x0001e862:    d3e7        ..      BCC      0x1e834 ; put_lfn + 52
        0x0001e864:    f64f70ff    O..p    MOV      r0,#0xffff
        0x0001e868:    4286        .B      CMP      r6,r0
        0x0001e86a:    d002        ..      BEQ      0x1e872 ; put_lfn + 114
        0x0001e86c:    f8370019    7...    LDRH     r0,[r7,r9,LSL #1]
        0x0001e870:    b908        ..      CBNZ     r0,0x1e876 ; put_lfn + 118
        0x0001e872:    f0450540    E.@.    ORR      r5,r5,#0x40
        0x0001e876:    7025        %p      STRB     r5,[r4,#0]
        0x0001e878:    e8bd87f0    ....    POP      {r4-r10,pc}
    $d
        0x0001e87c:    0001ed0c    ....    DCD    126220
    $t
    i.remove_chain
    remove_chain
        0x0001e880:    e92d47f0    -..G    PUSH     {r4-r10,lr}
        0x0001e884:    4681        .F      MOV      r9,r0
        0x0001e886:    460e        .F      MOV      r6,r1
        0x0001e888:    4617        .F      MOV      r7,r2
        0x0001e88a:    f04f0800    O...    MOV      r8,#0
        0x0001e88e:    f8d94000    ...@    LDR      r4,[r9,#0]
        0x0001e892:    2e02        ..      CMP      r6,#2
        0x0001e894:    d302        ..      BCC      0x1e89c ; remove_chain + 28
        0x0001e896:    69e0        .i      LDR      r0,[r4,#0x1c]
        0x0001e898:    42b0        .B      CMP      r0,r6
        0x0001e89a:    d802        ..      BHI      0x1e8a2 ; remove_chain + 34
        0x0001e89c:    2002        .       MOVS     r0,#2
        0x0001e89e:    e8bd87f0    ....    POP      {r4-r10,pc}
        0x0001e8a2:    b167        g.      CBZ      r7,0x1e8be ; remove_chain + 62
        0x0001e8a4:    bf00        ..      NOP      
        0x0001e8a6:    f04f32ff    O..2    MOV      r2,#0xffffffff
        0x0001e8aa:    4639        9F      MOV      r1,r7
        0x0001e8ac:    4620         F      MOV      r0,r4
        0x0001e8ae:    f7ffff0b    ....    BL       put_fat ; 0x1e6c8
        0x0001e8b2:    4680        .F      MOV      r8,r0
        0x0001e8b4:    f1b80f00    ....    CMP      r8,#0
        0x0001e8b8:    d001        ..      BEQ      0x1e8be ; remove_chain + 62
        0x0001e8ba:    4640        @F      MOV      r0,r8
        0x0001e8bc:    e7ef        ..      B        0x1e89e ; remove_chain + 30
        0x0001e8be:    bf00        ..      NOP      
        0x0001e8c0:    4631        1F      MOV      r1,r6
        0x0001e8c2:    4648        HF      MOV      r0,r9
        0x0001e8c4:    f7feff94    ....    BL       get_fat ; 0x1d7f0
        0x0001e8c8:    4605        .F      MOV      r5,r0
        0x0001e8ca:    b905        ..      CBNZ     r5,0x1e8ce ; remove_chain + 78
        0x0001e8cc:    e022        ".      B        0x1e914 ; remove_chain + 148
        0x0001e8ce:    2d01        .-      CMP      r5,#1
        0x0001e8d0:    d101        ..      BNE      0x1e8d6 ; remove_chain + 86
        0x0001e8d2:    2002        .       MOVS     r0,#2
        0x0001e8d4:    e7e3        ..      B        0x1e89e ; remove_chain + 30
        0x0001e8d6:    1c68        h.      ADDS     r0,r5,#1
        0x0001e8d8:    b908        ..      CBNZ     r0,0x1e8de ; remove_chain + 94
        0x0001e8da:    2001        .       MOVS     r0,#1
        0x0001e8dc:    e7df        ..      B        0x1e89e ; remove_chain + 30
        0x0001e8de:    2200        ."      MOVS     r2,#0
        0x0001e8e0:    4631        1F      MOV      r1,r6
        0x0001e8e2:    4620         F      MOV      r0,r4
        0x0001e8e4:    f7fffef0    ....    BL       put_fat ; 0x1e6c8
        0x0001e8e8:    4680        .F      MOV      r8,r0
        0x0001e8ea:    f1b80f00    ....    CMP      r8,#0
        0x0001e8ee:    d001        ..      BEQ      0x1e8f4 ; remove_chain + 116
        0x0001e8f0:    4640        @F      MOV      r0,r8
        0x0001e8f2:    e7d4        ..      B        0x1e89e ; remove_chain + 30
        0x0001e8f4:    69e0        .i      LDR      r0,[r4,#0x1c]
        0x0001e8f6:    1e80        ..      SUBS     r0,r0,#2
        0x0001e8f8:    6961        ai      LDR      r1,[r4,#0x14]
        0x0001e8fa:    4281        .B      CMP      r1,r0
        0x0001e8fc:    d206        ..      BCS      0x1e90c ; remove_chain + 140
        0x0001e8fe:    6960        `i      LDR      r0,[r4,#0x14]
        0x0001e900:    1c40        @.      ADDS     r0,r0,#1
        0x0001e902:    6160        `a      STR      r0,[r4,#0x14]
        0x0001e904:    7920         y      LDRB     r0,[r4,#4]
        0x0001e906:    f0400001    @...    ORR      r0,r0,#1
        0x0001e90a:    7120         q      STRB     r0,[r4,#4]
        0x0001e90c:    462e        .F      MOV      r6,r5
        0x0001e90e:    69e0        .i      LDR      r0,[r4,#0x1c]
        0x0001e910:    42b0        .B      CMP      r0,r6
        0x0001e912:    d8d5        ..      BHI      0x1e8c0 ; remove_chain + 64
        0x0001e914:    bf00        ..      NOP      
        0x0001e916:    2000        .       MOVS     r0,#0
        0x0001e918:    e7c1        ..      B        0x1e89e ; remove_chain + 30
    i.simple_strlen
    simple_strlen
        0x0001e91a:    4601        .F      MOV      r1,r0
        0x0001e91c:    2000        .       MOVS     r0,#0
        0x0001e91e:    b901        ..      CBNZ     r1,0x1e922 ; simple_strlen + 8
        0x0001e920:    4770        pG      BX       lr
        0x0001e922:    e000        ..      B        0x1e926 ; simple_strlen + 12
        0x0001e924:    1c40        @.      ADDS     r0,r0,#1
        0x0001e926:    f8113b01    ...;    LDRB     r3,[r1],#1
        0x0001e92a:    2b00        .+      CMP      r3,#0
        0x0001e92c:    d1fa        ..      BNE      0x1e924 ; simple_strlen + 10
        0x0001e92e:    bf00        ..      NOP      
        0x0001e930:    e7f6        ..      B        0x1e920 ; simple_strlen + 6
    i.st_clust
    st_clust
        0x0001e932:    b570        p.      PUSH     {r4-r6,lr}
        0x0001e934:    4606        .F      MOV      r6,r0
        0x0001e936:    460c        .F      MOV      r4,r1
        0x0001e938:    4615        .F      MOV      r5,r2
        0x0001e93a:    b2a9        ..      UXTH     r1,r5
        0x0001e93c:    f104001a    ....    ADD      r0,r4,#0x1a
        0x0001e940:    f000f815    ....    BL       st_word ; 0x1e96e
        0x0001e944:    7830        0x      LDRB     r0,[r6,#0]
        0x0001e946:    2803        .(      CMP      r0,#3
        0x0001e948:    d104        ..      BNE      0x1e954 ; st_clust + 34
        0x0001e94a:    0c29        ).      LSRS     r1,r5,#16
        0x0001e94c:    f1040014    ....    ADD      r0,r4,#0x14
        0x0001e950:    f000f80d    ....    BL       st_word ; 0x1e96e
        0x0001e954:    bd70        p.      POP      {r4-r6,pc}
    i.st_dword
    st_dword
        0x0001e956:    f8001b01    ....    STRB     r1,[r0],#1
        0x0001e95a:    0a09        ..      LSRS     r1,r1,#8
        0x0001e95c:    f8001b01    ....    STRB     r1,[r0],#1
        0x0001e960:    0a09        ..      LSRS     r1,r1,#8
        0x0001e962:    f8001b01    ....    STRB     r1,[r0],#1
        0x0001e966:    0a09        ..      LSRS     r1,r1,#8
        0x0001e968:    f8001b01    ....    STRB     r1,[r0],#1
        0x0001e96c:    4770        pG      BX       lr
    i.st_word
    st_word
        0x0001e96e:    f8001b01    ....    STRB     r1,[r0],#1
        0x0001e972:    1209        ..      ASRS     r1,r1,#8
        0x0001e974:    f8001b01    ....    STRB     r1,[r0],#1
        0x0001e978:    4770        pG      BX       lr
    i.sum_sfn
    sum_sfn
        0x0001e97a:    b530        0.      PUSH     {r4,r5,lr}
        0x0001e97c:    4601        .F      MOV      r1,r0
        0x0001e97e:    2000        .       MOVS     r0,#0
        0x0001e980:    220b        ."      MOVS     r2,#0xb
        0x0001e982:    bf00        ..      NOP      
        0x0001e984:    1043        C.      ASRS     r3,r0,#1
        0x0001e986:    eb0314c0    ....    ADD      r4,r3,r0,LSL #7
        0x0001e98a:    f8115b01    ...[    LDRB     r5,[r1],#1
        0x0001e98e:    1963        c.      ADDS     r3,r4,r5
        0x0001e990:    b2d8        ..      UXTB     r0,r3
        0x0001e992:    1e53        S.      SUBS     r3,r2,#1
        0x0001e994:    1e1a        ..      SUBS     r2,r3,#0
        0x0001e996:    d1f5        ..      BNE      0x1e984 ; sum_sfn + 10
        0x0001e998:    bd30        0.      POP      {r4,r5,pc}
        0x0001e99a:    0000        ..      MOVS     r0,r0
    i.sync_fs
    sync_fs
        0x0001e99c:    b570        p.      PUSH     {r4-r6,lr}
        0x0001e99e:    4604        .F      MOV      r4,r0
        0x0001e9a0:    4620         F      MOV      r0,r4
        0x0001e9a2:    f000f843    ..C.    BL       sync_window ; 0x1ea2c
        0x0001e9a6:    4605        .F      MOV      r5,r0
        0x0001e9a8:    2d00        .-      CMP      r5,#0
        0x0001e9aa:    d138        8.      BNE      0x1ea1e ; sync_fs + 130
        0x0001e9ac:    7820         x      LDRB     r0,[r4,#0]
        0x0001e9ae:    2803        .(      CMP      r0,#3
        0x0001e9b0:    d12e        ..      BNE      0x1ea10 ; sync_fs + 116
        0x0001e9b2:    7920         y      LDRB     r0,[r4,#4]
        0x0001e9b4:    2801        .(      CMP      r0,#1
        0x0001e9b6:    d12b        +.      BNE      0x1ea10 ; sync_fs + 116
        0x0001e9b8:    0242        B.      LSLS     r2,r0,#9
        0x0001e9ba:    2100        .!      MOVS     r1,#0
        0x0001e9bc:    f1040038    ..8.    ADD      r0,r4,#0x38
        0x0001e9c0:    f7fff975    ..u.    BL       mem_set ; 0x1dcae
        0x0001e9c4:    f64a2155    J.U!    MOV      r1,#0xaa55
        0x0001e9c8:    f2042036    ..6     ADD      r0,r4,#0x236
        0x0001e9cc:    f7ffffcf    ....    BL       st_word ; 0x1e96e
        0x0001e9d0:    4914        .I      LDR      r1,[pc,#80] ; [0x1ea24] = 0x41615252
        0x0001e9d2:    f1040038    ..8.    ADD      r0,r4,#0x38
        0x0001e9d6:    f7ffffbe    ....    BL       st_dword ; 0x1e956
        0x0001e9da:    4913        .I      LDR      r1,[pc,#76] ; [0x1ea28] = 0x61417272
        0x0001e9dc:    f5047007    ...p    ADD      r0,r4,#0x21c
        0x0001e9e0:    f7ffffb9    ....    BL       st_dword ; 0x1e956
        0x0001e9e4:    f5047008    ...p    ADD      r0,r4,#0x220
        0x0001e9e8:    6961        ai      LDR      r1,[r4,#0x14]
        0x0001e9ea:    f7ffffb4    ....    BL       st_dword ; 0x1e956
        0x0001e9ee:    f5047009    ...p    ADD      r0,r4,#0x224
        0x0001e9f2:    6921        !i      LDR      r1,[r4,#0x10]
        0x0001e9f4:    f7ffffaf    ....    BL       st_dword ; 0x1e956
        0x0001e9f8:    6a60        `j      LDR      r0,[r4,#0x24]
        0x0001e9fa:    1c40        @.      ADDS     r0,r0,#1
        0x0001e9fc:    6360        `c      STR      r0,[r4,#0x34]
        0x0001e9fe:    7860        `x      LDRB     r0,[r4,#1]
        0x0001ea00:    2301        .#      MOVS     r3,#1
        0x0001ea02:    f1040138    ..8.    ADD      r1,r4,#0x38
        0x0001ea06:    6b62        bk      LDR      r2,[r4,#0x34]
        0x0001ea08:    f7fdfd82    ....    BL       disk_write ; 0x1c510
        0x0001ea0c:    2000        .       MOVS     r0,#0
        0x0001ea0e:    7120         q      STRB     r0,[r4,#4]
        0x0001ea10:    7860        `x      LDRB     r0,[r4,#1]
        0x0001ea12:    2200        ."      MOVS     r2,#0
        0x0001ea14:    4611        .F      MOV      r1,r2
        0x0001ea16:    f7fdfd57    ..W.    BL       disk_ioctl ; 0x1c4c8
        0x0001ea1a:    b100        ..      CBZ      r0,0x1ea1e ; sync_fs + 130
        0x0001ea1c:    2501        .%      MOVS     r5,#1
        0x0001ea1e:    4628        (F      MOV      r0,r5
        0x0001ea20:    bd70        p.      POP      {r4-r6,pc}
    $d
        0x0001ea22:    0000        ..      DCW    0
        0x0001ea24:    41615252    RRaA    DCD    1096897106
        0x0001ea28:    61417272    rrAa    DCD    1631679090
    $t
    i.sync_window
    sync_window
        0x0001ea2c:    b570        p.      PUSH     {r4-r6,lr}
        0x0001ea2e:    4604        .F      MOV      r4,r0
        0x0001ea30:    2500        .%      MOVS     r5,#0
        0x0001ea32:    78e0        .x      LDRB     r0,[r4,#3]
        0x0001ea34:    b1e8        ..      CBZ      r0,0x1ea72 ; sync_window + 70
        0x0001ea36:    7860        `x      LDRB     r0,[r4,#1]
        0x0001ea38:    2301        .#      MOVS     r3,#1
        0x0001ea3a:    f1040138    ..8.    ADD      r1,r4,#0x38
        0x0001ea3e:    6b62        bk      LDR      r2,[r4,#0x34]
        0x0001ea40:    f7fdfd66    ..f.    BL       disk_write ; 0x1c510
        0x0001ea44:    b9a0        ..      CBNZ     r0,0x1ea70 ; sync_window + 68
        0x0001ea46:    2000        .       MOVS     r0,#0
        0x0001ea48:    70e0        .p      STRB     r0,[r4,#3]
        0x0001ea4a:    6aa1        .j      LDR      r1,[r4,#0x28]
        0x0001ea4c:    6b60        `k      LDR      r0,[r4,#0x34]
        0x0001ea4e:    1a40        @.      SUBS     r0,r0,r1
        0x0001ea50:    6a21        !j      LDR      r1,[r4,#0x20]
        0x0001ea52:    4288        .B      CMP      r0,r1
        0x0001ea54:    d20d        ..      BCS      0x1ea72 ; sync_window + 70
        0x0001ea56:    78a0        .x      LDRB     r0,[r4,#2]
        0x0001ea58:    2802        .(      CMP      r0,#2
        0x0001ea5a:    d10a        ..      BNE      0x1ea72 ; sync_window + 70
        0x0001ea5c:    6a23        #j      LDR      r3,[r4,#0x20]
        0x0001ea5e:    6b61        ak      LDR      r1,[r4,#0x34]
        0x0001ea60:    18ca        ..      ADDS     r2,r1,r3
        0x0001ea62:    7860        `x      LDRB     r0,[r4,#1]
        0x0001ea64:    2301        .#      MOVS     r3,#1
        0x0001ea66:    f1040138    ..8.    ADD      r1,r4,#0x38
        0x0001ea6a:    f7fdfd51    ..Q.    BL       disk_write ; 0x1c510
        0x0001ea6e:    e000        ..      B        0x1ea72 ; sync_window + 70
        0x0001ea70:    2501        .%      MOVS     r5,#1
        0x0001ea72:    4628        (F      MOV      r0,r5
        0x0001ea74:    bd70        p.      POP      {r4-r6,pc}
    i.tchar2uni
    tchar2uni
        0x0001ea76:    e92d41f0    -..A    PUSH     {r4-r8,lr}
        0x0001ea7a:    4606        .F      MOV      r6,r0
        0x0001ea7c:    6835        5h      LDR      r5,[r6,#0]
        0x0001ea7e:    f8154b01    ...K    LDRB     r4,[r5],#1
        0x0001ea82:    4620         F      MOV      r0,r4
        0x0001ea84:    f7fdfaba    ....    BL       dbc_1st ; 0x1bffc
        0x0001ea88:    b160        `.      CBZ      r0,0x1eaa4 ; tchar2uni + 46
        0x0001ea8a:    f8157b01    ...{    LDRB     r7,[r5],#1
        0x0001ea8e:    4638        8F      MOV      r0,r7
        0x0001ea90:    f7fdfaba    ....    BL       dbc_2nd ; 0x1c008
        0x0001ea94:    b918        ..      CBNZ     r0,0x1ea9e ; tchar2uni + 40
        0x0001ea96:    f04f30ff    O..0    MOV      r0,#0xffffffff
        0x0001ea9a:    e8bd81f0    ....    POP      {r4-r8,pc}
        0x0001ea9e:    eb072004    ...     ADD      r0,r7,r4,LSL #8
        0x0001eaa2:    b284        ..      UXTH     r4,r0
        0x0001eaa4:    b14c        L.      CBZ      r4,0x1eaba ; tchar2uni + 68
        0x0001eaa6:    f2403152    @.R1    MOV      r1,#0x352
        0x0001eaaa:    4620         F      MOV      r0,r4
        0x0001eaac:    f7fefc4e    ..N.    BL       ff_oem2uni ; 0x1d34c
        0x0001eab0:    4604        .F      MOV      r4,r0
        0x0001eab2:    b914        ..      CBNZ     r4,0x1eaba ; tchar2uni + 68
        0x0001eab4:    f04f30ff    O..0    MOV      r0,#0xffffffff
        0x0001eab8:    e7ef        ..      B        0x1ea9a ; tchar2uni + 36
        0x0001eaba:    46a0        .F      MOV      r8,r4
        0x0001eabc:    6035        5`      STR      r5,[r6,#0]
        0x0001eabe:    4640        @F      MOV      r0,r8
        0x0001eac0:    e7eb        ..      B        0x1ea9a ; tchar2uni + 36
    i.uint64_to_hexstr
    uint64_to_hexstr
        0x0001eac2:    e92d41f0    -..A    PUSH     {r4-r8,lr}
        0x0001eac6:    b085        ..      SUB      sp,sp,#0x14
        0x0001eac8:    4604        .F      MOV      r4,r0
        0x0001eaca:    460d        .F      MOV      r5,r1
        0x0001eacc:    461e        .F      MOV      r6,r3
        0x0001eace:    2100        .!      MOVS     r1,#0
        0x0001ead0:    468c        .F      MOV      r12,r1
        0x0001ead2:    ea84070c    ....    EOR      r7,r4,r12
        0x0001ead6:    ea850c0c    ....    EOR      r12,r5,r12
        0x0001eada:    ea57070c    W...    ORRS     r7,r7,r12
        0x0001eade:    d105        ..      BNE      0x1eaec ; uint64_to_hexstr + 42
        0x0001eae0:    f04f0830    O.0.    MOV      r8,#0x30
        0x0001eae4:    460f        .F      MOV      r7,r1
        0x0001eae6:    1c49        I.      ADDS     r1,r1,#1
        0x0001eae8:    f80d8007    ....    STRB     r8,[sp,r7]
        0x0001eaec:    e016        ..      B        0x1eb1c ; uint64_to_hexstr + 90
        0x0001eaee:    270f        .'      MOVS     r7,#0xf
        0x0001eaf0:    4027        '@      ANDS     r7,r7,r4
        0x0001eaf2:    b2fb        ..      UXTB     r3,r7
        0x0001eaf4:    2b09        .+      CMP      r3,#9
        0x0001eaf6:    dd05        ..      BLE      0x1eb04 ; uint64_to_hexstr + 66
        0x0001eaf8:    b10e        ..      CBZ      r6,0x1eafe ; uint64_to_hexstr + 60
        0x0001eafa:    2727        ''      MOVS     r7,#0x27
        0x0001eafc:    e000        ..      B        0x1eb00 ; uint64_to_hexstr + 62
        0x0001eafe:    2707        .'      MOVS     r7,#7
        0x0001eb00:    441f        .D      ADD      r7,r7,r3
        0x0001eb02:    b2fb        ..      UXTB     r3,r7
        0x0001eb04:    f1030730    ..0.    ADD      r7,r3,#0x30
        0x0001eb08:    f00708ff    ....    AND      r8,r7,#0xff
        0x0001eb0c:    460f        .F      MOV      r7,r1
        0x0001eb0e:    1c49        I.      ADDS     r1,r1,#1
        0x0001eb10:    f80d8007    ....    STRB     r8,[sp,r7]
        0x0001eb14:    0927        '.      LSRS     r7,r4,#4
        0x0001eb16:    ea477405    G..t    ORR      r4,r7,r5,LSL #28
        0x0001eb1a:    092d        -.      LSRS     r5,r5,#4
        0x0001eb1c:    f04f0c00    O...    MOV      r12,#0
        0x0001eb20:    ea84070c    ....    EOR      r7,r4,r12
        0x0001eb24:    ea850c0c    ....    EOR      r12,r5,r12
        0x0001eb28:    ea57070c    W...    ORRS     r7,r7,r12
        0x0001eb2c:    d1df        ..      BNE      0x1eaee ; uint64_to_hexstr + 44
        0x0001eb2e:    4608        .F      MOV      r0,r1
        0x0001eb30:    b14a        J.      CBZ      r2,0x1eb46 ; uint64_to_hexstr + 132
        0x0001eb32:    e003        ..      B        0x1eb3c ; uint64_to_hexstr + 122
        0x0001eb34:    f81d7001    ...p    LDRB     r7,[sp,r1]
        0x0001eb38:    f8027b01    ...{    STRB     r7,[r2],#1
        0x0001eb3c:    1e0f        ..      SUBS     r7,r1,#0
        0x0001eb3e:    f1a10101    ....    SUB      r1,r1,#1
        0x0001eb42:    d1f7        ..      BNE      0x1eb34 ; uint64_to_hexstr + 114
        0x0001eb44:    7017        .p      STRB     r7,[r2,#0]
        0x0001eb46:    b005        ..      ADD      sp,sp,#0x14
        0x0001eb48:    e8bd81f0    ....    POP      {r4-r8,pc}
    i.uint64_to_str
    uint64_to_str
        0x0001eb4c:    e92d4ff0    -..O    PUSH     {r4-r11,lr}
        0x0001eb50:    b087        ..      SUB      sp,sp,#0x1c
        0x0001eb52:    4607        .F      MOV      r7,r0
        0x0001eb54:    4688        .F      MOV      r8,r1
        0x0001eb56:    4616        .F      MOV      r6,r2
        0x0001eb58:    f04f0900    O...    MOV      r9,#0
        0x0001eb5c:    46cb        .F      MOV      r11,r9
        0x0001eb5e:    bf00        ..      NOP      
        0x0001eb60:    4638        8F      MOV      r0,r7
        0x0001eb62:    4641        AF      MOV      r1,r8
        0x0001eb64:    f7fdfce4    ....    BL       divu64_10 ; 0x1c530
        0x0001eb68:    4604        .F      MOV      r4,r0
        0x0001eb6a:    460d        .F      MOV      r5,r1
        0x0001eb6c:    210a        .!      MOVS     r1,#0xa
        0x0001eb6e:    fba40101    ....    UMULL    r0,r1,r4,r1
        0x0001eb72:    ebb70a00    ....    SUBS     r10,r7,r0
        0x0001eb76:    f10a0030    ..0.    ADD      r0,r10,#0x30
        0x0001eb7a:    b2c2        ..      UXTB     r2,r0
        0x0001eb7c:    4648        HF      MOV      r0,r9
        0x0001eb7e:    f1090901    ....    ADD      r9,r9,#1
        0x0001eb82:    f80d2000    ...     STRB     r2,[sp,r0]
        0x0001eb86:    4627        'F      MOV      r7,r4
        0x0001eb88:    46a8        .F      MOV      r8,r5
        0x0001eb8a:    f04f0200    O...    MOV      r2,#0
        0x0001eb8e:    ea870002    ....    EOR      r0,r7,r2
        0x0001eb92:    ea880102    ....    EOR      r1,r8,r2
        0x0001eb96:    4308        .C      ORRS     r0,r0,r1
        0x0001eb98:    d1e2        ..      BNE      0x1eb60 ; uint64_to_str + 20
        0x0001eb9a:    46cb        .F      MOV      r11,r9
        0x0001eb9c:    b156        V.      CBZ      r6,0x1ebb4 ; uint64_to_str + 104
        0x0001eb9e:    e003        ..      B        0x1eba8 ; uint64_to_str + 92
        0x0001eba0:    f81d0009    ....    LDRB     r0,[sp,r9]
        0x0001eba4:    f8060b01    ....    STRB     r0,[r6],#1
        0x0001eba8:    f1b90000    ....    SUBS     r0,r9,#0
        0x0001ebac:    f1a90901    ....    SUB      r9,r9,#1
        0x0001ebb0:    d1f6        ..      BNE      0x1eba0 ; uint64_to_str + 84
        0x0001ebb2:    7030        0p      STRB     r0,[r6,#0]
        0x0001ebb4:    4658        XF      MOV      r0,r11
        0x0001ebb6:    b007        ..      ADD      sp,sp,#0x1c
        0x0001ebb8:    e8bd8ff0    ....    POP      {r4-r11,pc}
    i.validate
    validate
        0x0001ebbc:    b570        p.      PUSH     {r4-r6,lr}
        0x0001ebbe:    4604        .F      MOV      r4,r0
        0x0001ebc0:    460d        .F      MOV      r5,r1
        0x0001ebc2:    2609        .&      MOVS     r6,#9
        0x0001ebc4:    b18c        ..      CBZ      r4,0x1ebea ; validate + 46
        0x0001ebc6:    6820         h      LDR      r0,[r4,#0]
        0x0001ebc8:    b178        x.      CBZ      r0,0x1ebea ; validate + 46
        0x0001ebca:    6820         h      LDR      r0,[r4,#0]
        0x0001ebcc:    7800        .x      LDRB     r0,[r0,#0]
        0x0001ebce:    b160        `.      CBZ      r0,0x1ebea ; validate + 46
        0x0001ebd0:    88a0        ..      LDRH     r0,[r4,#4]
        0x0001ebd2:    6821        !h      LDR      r1,[r4,#0]
        0x0001ebd4:    88c9        ..      LDRH     r1,[r1,#6]
        0x0001ebd6:    4288        .B      CMP      r0,r1
        0x0001ebd8:    d107        ..      BNE      0x1ebea ; validate + 46
        0x0001ebda:    6821        !h      LDR      r1,[r4,#0]
        0x0001ebdc:    7848        Hx      LDRB     r0,[r1,#1]
        0x0001ebde:    f7fdfc8f    ....    BL       disk_status ; 0x1c500
        0x0001ebe2:    f0000001    ....    AND      r0,r0,#1
        0x0001ebe6:    b900        ..      CBNZ     r0,0x1ebea ; validate + 46
        0x0001ebe8:    2600        .&      MOVS     r6,#0
        0x0001ebea:    b90e        ..      CBNZ     r6,0x1ebf0 ; validate + 52
        0x0001ebec:    6820         h      LDR      r0,[r4,#0]
        0x0001ebee:    e000        ..      B        0x1ebf2 ; validate + 54
        0x0001ebf0:    2000        .       MOVS     r0,#0
        0x0001ebf2:    6028        (`      STR      r0,[r5,#0]
        0x0001ebf4:    4630        0F      MOV      r0,r6
        0x0001ebf6:    bd70        p.      POP      {r4-r6,pc}
    x$fpl$d2f
    $v0
    __aeabi_d2f
    _d2f
        0x0001ebf8:    f0214200    !..B    BIC      r2,r1,#0x80000000
        0x0001ebfc:    f1a25260    ..`R    SUB      r2,r2,#0x38000000
        0x0001ec00:    f5b21f80    ....    CMP      r2,#0x100000
        0x0001ec04:    f0014300    ...C    AND      r3,r1,#0x80000000
        0x0001ec08:    bf28        (.      IT       CS
        0x0001ec0a:    f1d26c7f    ...l    RSBSCS   r12,r2,#0xff00000
        0x0001ec0e:    d90b        ..      BLS      0x1ec28 ; __aeabi_d2f + 48
        0x0001ec10:    ea5f1c00    _...    LSLS     r12,r0,#4
        0x0001ec14:    ea4302c2    C...    ORR      r2,r3,r2,LSL #3
        0x0001ec18:    eb427050    B.Pp    ADC      r0,r2,r0,LSR #29
        0x0001ec1c:    bf18        ..      IT       NE
        0x0001ec1e:    4770        pG      BXNE     lr
        0x0001ec20:    bf28        (.      IT       CS
        0x0001ec22:    f0200001     ...    BICCS    r0,r0,#1
        0x0001ec26:    4770        pG      BX       lr
        0x0001ec28:    f5b21f80    ....    CMP      r2,#0x100000
        0x0001ec2c:    bfbc        ..      ITT      LT
        0x0001ec2e:    4618        .F      MOVLT    r0,r3
        0x0001ec30:    4770        pG      BXLT     lr
        0x0001ec32:    ea4f0c41    O.A.    LSL      r12,r1,#1
        0x0001ec36:    f51c1f00    ....    CMN      r12,#0x200000
        0x0001ec3a:    d202        ..      BCS      0x1ec42 ; __aeabi_d2f + 74
        0x0001ec3c:    4608        .F      MOV      r0,r1
        0x0001ec3e:    f000b85f    .._.    B.W      __fpl_fretinf ; 0x1ed00
        0x0001ec42:    b570        p.      PUSH     {r4-r6,lr}
        0x0001ec44:    f000f809    ....    BL       __fpl_dnaninf ; 0x1ec5a
    $d
        0x0001ec48:    89000000    ....    DCD    2298478592
    $t
        0x0001ec4c:    f7ffbff6    ....    B.W      0x1ec3c ; __aeabi_d2f + 68
        0x0001ec50:    f04f4000    O..@    MOV      r0,#0x80000000
        0x0001ec54:    f5a00080    ....    SUB      r0,r0,#0x400000
        0x0001ec58:    4770        pG      BX       lr
    x$fpl$dnaninf
    $v0
    __fpl_dnaninf
        0x0001ec5a:    f10e0e02    ....    ADD      lr,lr,#2
        0x0001ec5e:    f02e0e03    ....    BIC      lr,lr,#3
        0x0001ec62:    f85e6b04    ^..k    LDR      r6,[lr],#4
        0x0001ec66:    4236        6B      TST      r6,r6
        0x0001ec68:    d405        ..      BMI      0x1ec76 ; __fpl_dnaninf + 28
        0x0001ec6a:    2a01        .*      CMP      r2,#1
        0x0001ec6c:    eb430503    C...    ADC      r5,r3,r3
        0x0001ec70:    f5151f00    ....    CMN      r5,#0x200000
        0x0001ec74:    d812        ..      BHI      0x1ec9c ; __fpl_dnaninf + 66
        0x0001ec76:    2801        .(      CMP      r0,#1
        0x0001ec78:    eb410c01    A...    ADC      r12,r1,r1
        0x0001ec7c:    f51c1f00    ....    CMN      r12,#0x200000
        0x0001ec80:    d80c        ..      BHI      0x1ec9c ; __fpl_dnaninf + 66
        0x0001ec82:    d10e        ..      BNE      0x1eca2 ; __fpl_dnaninf + 72
        0x0001ec84:    ea4f7cd1    O..|    LSR      r12,r1,#31
        0x0001ec88:    f5151f00    ....    CMN      r5,#0x200000
        0x0001ec8c:    eb0c0c4c    ..L.    ADD      r12,r12,r12,LSL #1
        0x0001ec90:    f10c0c02    ....    ADD      r12,r12,#2
        0x0001ec94:    bf08        ..      IT       EQ
        0x0001ec96:    eb4c7cd3    L..|    ADCEQ    r12,r12,r3,LSR #31
        0x0001ec9a:    e004        ..      B        0x1eca6 ; __fpl_dnaninf + 76
        0x0001ec9c:    f04f0c08    O...    MOV      r12,#8
        0x0001eca0:    e001        ..      B        0x1eca6 ; __fpl_dnaninf + 76
        0x0001eca2:    ea4f7cd3    O..|    LSR      r12,r3,#31
        0x0001eca6:    eb0c054c    ..L.    ADD      r5,r12,r12,LSL #1
        0x0001ecaa:    fa26f605    &...    LSR      r6,r6,r5
        0x0001ecae:    f0060607    ....    AND      r6,r6,#7
        0x0001ecb2:    f1b60c04    ....    SUBS     r12,r6,#4
        0x0001ecb6:    d206        ..      BCS      0x1ecc6 ; __fpl_dnaninf + 108
        0x0001ecb8:    eb0e0c86    ....    ADD      r12,lr,r6,LSL #2
        0x0001ecbc:    e8bd4070    ..p@    POP      {r4-r6,lr}
        0x0001ecc0:    f04c0c01    L...    ORR      r12,r12,#1
        0x0001ecc4:    4760        `G      BX       r12
        0x0001ecc6:    e8dff00c    ....    TBB      [pc,r12]
    $d
        0x0001ecca:    0b09        ..      DCW    2825
        0x0001eccc:    0202        ..      DCW    514
    $t
        0x0001ecce:    f04f4100    O..A    MOV      r1,#0x80000000
        0x0001ecd2:    f04f0000    O...    MOV      r0,#0
        0x0001ecd6:    f5a12100    ...!    SUB      r1,r1,#0x80000
        0x0001ecda:    bd70        p.      POP      {r4-r6,pc}
        0x0001ecdc:    4619        .F      MOV      r1,r3
        0x0001ecde:    4610        .F      MOV      r0,r2
        0x0001ece0:    2801        .(      CMP      r0,#1
        0x0001ece2:    eb510401    Q...    ADCS     r4,r1,r1
        0x0001ece6:    bf18        ..      IT       NE
        0x0001ece8:    f5d41400    ....    RSBSNE   r4,r4,#0x200000
        0x0001ecec:    bf84        ..      ITT      HI
        0x0001ecee:    2000        .       MOVHI    r0,#0
        0x0001ecf0:    f0014100    ...A    ANDHI    r1,r1,#0x80000000
        0x0001ecf4:    bd70        p.      POP      {r4-r6,pc}
    x$fpl$fpinit
    $v0
    _fp_init
        0x0001ecf6:    f04f7040    O.@p    MOV      r0,#0x3000000
        0x0001ecfa:    eee10a10    ....    VMSR     FPSCR,r0
    __fplib_config_fpu_vfp
    __fplib_config_pureend_doubles
        0x0001ecfe:    4770        pG      BX       lr
    x$fpl$fretinf
    $v0
    __fpl_fretinf
        0x0001ed00:    21ff        .!      MOVS     r1,#0xff
        0x0001ed02:    ea4150d0    A..P    ORR      r0,r1,r0,LSR #23
        0x0001ed06:    05c0        ..      LSLS     r0,r0,#23
        0x0001ed08:    4770        pG      BX       lr
    x$fpl$usenofp
    __I$use$fp
        0x0001ed0a:    0000        ..      MOVS     r0,r0
    $d.realdata
    .constdata
    LfnOfs
        0x0001ed0c:    07050301    ....    DCD    117768961
        0x0001ed10:    12100e09    ....    DCD    303042057
        0x0001ed14:    1c181614    ....    DCD    471340564
        0x0001ed18:    1e          .       DCB    30
    ExCvt
        0x0001ed19:    435545      CUE     DCB    67,85,69
        0x0001ed1c:    41414141    AAAA    DCD    1094795585
        0x0001ed20:    45454543    CEEE    DCD    1162167619
        0x0001ed24:    41494949    IIIA    DCD    1095321929
        0x0001ed28:    92924541    AE..    DCD    2459059521
        0x0001ed2c:    554f4f4f    OOOU    DCD    1431261007
        0x0001ed30:    554f5955    UYOU    DCD    1431263573
        0x0001ed34:    9e4f9c4f    O.O.    DCD    2656017487
        0x0001ed38:    4f49419f    .AIO    DCD    1330200991
        0x0001ed3c:    a6a5a555    U...    DCD    2795873621
        0x0001ed40:    aaa9a8a7    ....    DCD    2863245479
        0x0001ed44:    aeadacab    ....    DCD    2930617515
        0x0001ed48:    b2b1b0af    ....    DCD    2997989551
        0x0001ed4c:    4141b4b3    ..AA    DCD    1094825139
        0x0001ed50:    bab9b841    A...    DCD    3132733505
        0x0001ed54:    bebdbcbb    ....    DCD    3200105659
        0x0001ed58:    c2c1c0bf    ....    DCD    3267477695
        0x0001ed5c:    41c5c4c3    ...A    DCD    1103480003
        0x0001ed60:    cac9c841    A...    DCD    3402221633
        0x0001ed64:    cecdcccb    ....    DCD    3469593803
        0x0001ed68:    45d1d1cf    ...E    DCD    1171378639
        0x0001ed6c:    49494545    EEII    DCD    1229538629
        0x0001ed70:    dad94949    II..    DCD    3671673161
        0x0001ed74:    49dddcdb    ...I    DCD    1239276763
        0x0001ed78:    4fe14fdf    .O.O    DCD    1340166111
        0x0001ed7c:    e64f4f4f    OOO.    DCD    3863957327
        0x0001ed80:    5555e8e8    ..UU    DCD    1431693544
        0x0001ed84:    ee595955    UYY.    DCD    3998832981
        0x0001ed88:    f2f1f0ef    ....    DCD    4075942127
        0x0001ed8c:    f6f5f4f3    ....    DCD    4143314163
        0x0001ed90:    faf9f8f7    ....    DCD    4210686199
        0x0001ed94:    fefdfcfb    ....    DCD    4278058235
        0x0001ed98:    00ff        ..      DCW    255
    cst
        0x0001ed9a:    0001        ..      DCW    1
        0x0001ed9c:    00100004    ....    DCD    1048580
        0x0001eda0:    01000040    @...    DCD    16777280
        0x0001eda4:    00000200    ....    DCD    512
    cst32
        0x0001eda8:    00020001    ....    DCD    131073
        0x0001edac:    00080004    ....    DCD    524292
        0x0001edb0:    00200010    .. .    DCD    2097168
        0x0001edb4:    00000000    ....    DCD    0
    defopt
        0x0001edb8:    00000007    ....    DCD    7
        0x0001edbc:    00000000    ....    DCD    0
        0x0001edc0:    00000000    ....    DCD    0
        0x0001edc4:    00000000    ....    DCD    0
    .constdata
    uc850
        0x0001edc8:    00fc00c7    ....    DCD    16515271
        0x0001edcc:    00e200e9    ....    DCD    14811369
        0x0001edd0:    00e000e4    ....    DCD    14680292
        0x0001edd4:    00e700e5    ....    DCD    15139045
        0x0001edd8:    00eb00ea    ....    DCD    15401194
        0x0001eddc:    00ef00e8    ....    DCD    15663336
        0x0001ede0:    00ec00ee    ....    DCD    15466734
        0x0001ede4:    00c500c4    ....    DCD    12910788
        0x0001ede8:    00e600c9    ....    DCD    15073481
        0x0001edec:    00f400c6    ....    DCD    15990982
        0x0001edf0:    00f200f6    ....    DCD    15859958
        0x0001edf4:    00f900fb    ....    DCD    16318715
        0x0001edf8:    00d600ff    ....    DCD    14024959
        0x0001edfc:    00f800dc    ....    DCD    16253148
        0x0001ee00:    00d800a3    ....    DCD    14155939
        0x0001ee04:    019200d7    ....    DCD    26345687
        0x0001ee08:    00ed00e1    ....    DCD    15532257
        0x0001ee0c:    00fa00f3    ....    DCD    16384243
        0x0001ee10:    00d100f1    ....    DCD    13697265
        0x0001ee14:    00ba00aa    ....    DCD    12189866
        0x0001ee18:    00ae00bf    ....    DCD    11403455
        0x0001ee1c:    00bd00ac    ....    DCD    12386476
        0x0001ee20:    00a100bc    ....    DCD    10551484
        0x0001ee24:    00bb00ab    ....    DCD    12255403
        0x0001ee28:    25922591    .%.%    DCD    630334865
        0x0001ee2c:    25022593    .%.%    DCD    620897683
        0x0001ee30:    00c12524    $%..    DCD    12657956
        0x0001ee34:    00c000c2    ....    DCD    12583106
        0x0001ee38:    256300a9    ..c%    DCD    627245225
        0x0001ee3c:    25572551    Q%W%    DCD    626468177
        0x0001ee40:    00a2255d    ]%..    DCD    10626397
        0x0001ee44:    251000a5    ...%    DCD    621805733
        0x0001ee48:    25342514    .%4%    DCD    624174356
        0x0001ee4c:    251c252c    ,%.%    DCD    622601516
        0x0001ee50:    253c2500    .%<%    DCD    624698624
        0x0001ee54:    00c300e3    ....    DCD    12779747
        0x0001ee58:    2554255a    Z%T%    DCD    626271578
        0x0001ee5c:    25662569    i%f%    DCD    627451241
        0x0001ee60:    25502560    `%P%    DCD    626009440
        0x0001ee64:    00a4256c    l%..    DCD    10757484
        0x0001ee68:    00d000f0    ....    DCD    13631728
        0x0001ee6c:    00cb00ca    ....    DCD    13304010
        0x0001ee70:    013100c8    ..1.    DCD    19988680
        0x0001ee74:    00ce00cd    ....    DCD    13500621
        0x0001ee78:    251800cf    ...%    DCD    622330063
        0x0001ee7c:    2588250c    .%.%    DCD    629679372
        0x0001ee80:    00a62584    .%..    DCD    10888580
        0x0001ee84:    258000cc    ...%    DCD    629145804
        0x0001ee88:    00df00d3    ....    DCD    14614739
        0x0001ee8c:    00d200d4    ....    DCD    13762772
        0x0001ee90:    00d500f5    ....    DCD    13959413
        0x0001ee94:    00fe00b5    ....    DCD    16646325
        0x0001ee98:    00da00de    ....    DCD    14287070
        0x0001ee9c:    00d900db    ....    DCD    14221531
        0x0001eea0:    00dd00fd    ....    DCD    14483709
        0x0001eea4:    00b400af    ....    DCD    11796655
        0x0001eea8:    00b100ad    ....    DCD    11600045
        0x0001eeac:    00be2017    . ..    DCD    12460055
        0x0001eeb0:    00a700b6    ....    DCD    10944694
        0x0001eeb4:    00b800f7    ....    DCD    12058871
        0x0001eeb8:    00a800b0    ....    DCD    11010224
        0x0001eebc:    00b900b7    ....    DCD    12124343
        0x0001eec0:    00b200b3    ....    DCD    11665587
        0x0001eec4:    00a025a0    .%..    DCD    10495392
    cvt1
        0x0001eec8:    031a0061    a...    DCD    52035681
        0x0001eecc:    031700e0    ....    DCD    51839200
        0x0001eed0:    030700f8    ....    DCD    50790648
        0x0001eed4:    000100ff    ....    DCD    65791
        0x0001eed8:    01000178    x...    DCD    16777592
        0x0001eedc:    01320130    0.2.    DCD    20054320
        0x0001eee0:    01390106    ..9.    DCD    20513030
        0x0001eee4:    014a0110    ..J.    DCD    21627152
        0x0001eee8:    0179012e    ..y.    DCD    24707374
        0x0001eeec:    01800106    ....    DCD    25166086
        0x0001eef0:    0243004d    M.C.    DCD    37945421
        0x0001eef4:    01820181    ....    DCD    25297281
        0x0001eef8:    01840182    ....    DCD    25428354
        0x0001eefc:    01860184    ....    DCD    25559428
        0x0001ef00:    01870187    ....    DCD    25624967
        0x0001ef04:    018a0189    ....    DCD    25821577
        0x0001ef08:    018b018b    ....    DCD    25887115
        0x0001ef0c:    018e018d    ....    DCD    26083725
        0x0001ef10:    0190018f    ....    DCD    26214799
        0x0001ef14:    01910191    ....    DCD    26280337
        0x0001ef18:    01940193    ....    DCD    26476947
        0x0001ef1c:    019601f6    ....    DCD    26608118
        0x0001ef20:    01980197    ....    DCD    26739095
        0x0001ef24:    023d0198    ..=.    DCD    37552536
        0x0001ef28:    019c019b    ....    DCD    27001243
        0x0001ef2c:    0220019d    .. .    DCD    35651997
        0x0001ef30:    01a0019f    ....    DCD    27263391
        0x0001ef34:    01a201a0    ....    DCD    27394464
        0x0001ef38:    01a401a2    ....    DCD    27525538
        0x0001ef3c:    01a601a4    ....    DCD    27656612
        0x0001ef40:    01a701a7    ....    DCD    27722151
        0x0001ef44:    01aa01a9    ....    DCD    27918761
        0x0001ef48:    01ac01ab    ....    DCD    28049835
        0x0001ef4c:    01ae01ac    ....    DCD    28180908
        0x0001ef50:    01af01af    ....    DCD    28246447
        0x0001ef54:    01b201b1    ....    DCD    28443057
        0x0001ef58:    01b301b3    ....    DCD    28508595
        0x0001ef5c:    01b501b5    ....    DCD    28639669
        0x0001ef60:    01b801b7    ....    DCD    28836279
        0x0001ef64:    01ba01b8    ....    DCD    28967352
        0x0001ef68:    01bc01bb    ....    DCD    29098427
        0x0001ef6c:    01be01bc    ....    DCD    29229500
        0x0001ef70:    01c001f7    ....    DCD    29360631
        0x0001ef74:    01c201c1    ....    DCD    29491649
        0x0001ef78:    01c401c3    ....    DCD    29622723
        0x0001ef7c:    01c401c5    ....    DCD    29622725
        0x0001ef80:    01c801c7    ....    DCD    29884871
        0x0001ef84:    01ca01c7    ....    DCD    30015943
        0x0001ef88:    01ca01cb    ....    DCD    30015947
        0x0001ef8c:    011001cd    ....    DCD    17826253
        0x0001ef90:    000101dd    ....    DCD    66013
        0x0001ef94:    01de018e    ....    DCD    31326606
        0x0001ef98:    01f30112    ....    DCD    32702738
        0x0001ef9c:    01f10003    ....    DCD    32571395
        0x0001efa0:    01f401f4    ....    DCD    32768500
        0x0001efa4:    012801f8    ..(.    DCD    19399160
        0x0001efa8:    01120222    "...    DCD    17957410
        0x0001efac:    0009023a    :...    DCD    590394
        0x0001efb0:    023b2c65    e,;.    DCD    37432421
        0x0001efb4:    023d023b    ;.=.    DCD    37552699
        0x0001efb8:    023f2c66    f,?.    DCD    37694566
        0x0001efbc:    02410240    @.A.    DCD    37814848
        0x0001efc0:    02460241    A.F.    DCD    38142529
        0x0001efc4:    0253010a    ..S.    DCD    38994186
        0x0001efc8:    01810040    @...    DCD    25231424
        0x0001efcc:    02550186    ..U.    DCD    39125382
        0x0001efd0:    018a0189    ....    DCD    25821577
        0x0001efd4:    018f0258    X...    DCD    26149464
        0x0001efd8:    0190025a    Z...    DCD    26215002
        0x0001efdc:    025d025c    \.].    DCD    39649884
        0x0001efe0:    025f025e    ^._.    DCD    39780958
        0x0001efe4:    02610193    ..a.    DCD    39911827
        0x0001efe8:    01940262    b...    DCD    26477154
        0x0001efec:    02650264    d.e.    DCD    40174180
        0x0001eff0:    02670266    f.g.    DCD    40305254
        0x0001eff4:    01960197    ....    DCD    26608023
        0x0001eff8:    2c62026a    j.b,    DCD    744620650
        0x0001effc:    026d026c    l.m.    DCD    40698476
        0x0001f000:    019c026e    n...    DCD    27001454
        0x0001f004:    02710270    p.q.    DCD    40960624
        0x0001f008:    0273019d    ..s.    DCD    41091485
        0x0001f00c:    019f0274    t...    DCD    27198068
        0x0001f010:    02770276    v.w.    DCD    41353846
        0x0001f014:    02790278    x.y.    DCD    41484920
        0x0001f018:    027b027a    z.{.    DCD    41615994
        0x0001f01c:    2c64027c    |.d,    DCD    744751740
        0x0001f020:    027f027e    ~...    DCD    41878142
        0x0001f024:    028101a6    ....    DCD    42008998
        0x0001f028:    01a90282    ....    DCD    27853442
        0x0001f02c:    02850284    ....    DCD    42271364
        0x0001f030:    02870286    ....    DCD    42402438
        0x0001f034:    024401ae    ..D.    DCD    38011310
        0x0001f038:    01b201b1    ....    DCD    28443057
        0x0001f03c:    028d0245    E...    DCD    42795589
        0x0001f040:    028f028e    ....    DCD    42926734
        0x0001f044:    02910290    ....    DCD    43057808
        0x0001f048:    037b01b7    ..{.    DCD    58393015
        0x0001f04c:    03fd0003    ....    DCD    66912259
        0x0001f050:    03ff03fe    ....    DCD    67044350
        0x0001f054:    000403ac    ....    DCD    263084
        0x0001f058:    03880386    ....    DCD    59245446
        0x0001f05c:    038a0389    ....    DCD    59376521
        0x0001f060:    031103b1    ....    DCD    51446705
        0x0001f064:    000203c2    ....    DCD    132034
        0x0001f068:    03a303a3    ....    DCD    61014947
        0x0001f06c:    030803c4    ....    DCD    50856900
        0x0001f070:    000303cc    ....    DCD    197580
        0x0001f074:    038e038c    ....    DCD    59638668
        0x0001f078:    03d8038f    ....    DCD    64488335
        0x0001f07c:    03f20118    ....    DCD    66191640
        0x0001f080:    03f9000a    ....    DCD    66650122
        0x0001f084:    03f403f3    ....    DCD    66323443
        0x0001f088:    03f603f5    ....    DCD    66454517
        0x0001f08c:    03f703f7    ....    DCD    66520055
        0x0001f090:    03fa03f9    ....    DCD    66716665
        0x0001f094:    043003fa    ..0.    DCD    70255610
        0x0001f098:    04500320     .P.    DCD    72352544
        0x0001f09c:    04600710    ..`.    DCD    73402128
        0x0001f0a0:    048a0122    "...    DCD    76153122
        0x0001f0a4:    04c10136    6...    DCD    79757622
        0x0001f0a8:    04cf010e    ....    DCD    80675086
        0x0001f0ac:    04c00001    ....    DCD    79691777
        0x0001f0b0:    014404d0    ..D.    DCD    21234896
        0x0001f0b4:    04260561    a.&.    DCD    69600609
        0x0001f0b8:    0000        ..      DCW    0
    cvt2
        0x0001f0ba:    1d7d        }.      DCW    7549
        0x0001f0bc:    2c630001    ..c,    DCD    744685569
        0x0001f0c0:    01961e00    ....    DCD    26615296
        0x0001f0c4:    015a1ea0    ..Z.    DCD    22683296
        0x0001f0c8:    06081f00    ....    DCD    101195520
        0x0001f0cc:    06061f10    ....    DCD    101064464
        0x0001f0d0:    06081f20     ...    DCD    101195552
        0x0001f0d4:    06081f30    0...    DCD    101195568
        0x0001f0d8:    06061f40    @...    DCD    101064512
        0x0001f0dc:    00071f51    Q...    DCD    466769
        0x0001f0e0:    1f521f59    Y.R.    DCD    525475673
        0x0001f0e4:    1f541f5b    [.T.    DCD    525606747
        0x0001f0e8:    1f561f5d    ].V.    DCD    525737821
        0x0001f0ec:    1f601f5f    _.`.    DCD    526393183
        0x0001f0f0:    1f700608    ..p.    DCD    527435272
        0x0001f0f4:    1fba000e    ....    DCD    532283406
        0x0001f0f8:    1fc81fbb    ....    DCD    533209019
        0x0001f0fc:    1fca1fc9    ....    DCD    533340105
        0x0001f100:    1fda1fcb    ....    DCD    534388683
        0x0001f104:    1ff81fdb    ....    DCD    536354779
        0x0001f108:    1fea1ff9    ....    DCD    535437305
        0x0001f10c:    1ffa1feb    ....    DCD    536485867
        0x0001f110:    1f801ffb    ....    DCD    528490491
        0x0001f114:    1f900608    ....    DCD    529532424
        0x0001f118:    1fa00608    ....    DCD    530581000
        0x0001f11c:    1fb00608    ....    DCD    531629576
        0x0001f120:    1fb80004    ....    DCD    532152324
        0x0001f124:    1fb21fb9    ....    DCD    531767225
        0x0001f128:    1fcc1fbc    ....    DCD    533471164
        0x0001f12c:    1fc30001    ....    DCD    532873217
        0x0001f130:    06021fd0    ....    DCD    100802512
        0x0001f134:    06021fe0    ....    DCD    100802528
        0x0001f138:    00011fe5    ....    DCD    73701
        0x0001f13c:    1ff31fec    ....    DCD    536027116
        0x0001f140:    1ffc0001    ....    DCD    536608769
        0x0001f144:    0001214e    N!..    DCD    74062
        0x0001f148:    21702132    2!p!    DCD    560996658
        0x0001f14c:    21840210    ...!    DCD    562299408
        0x0001f150:    21830001    ...!    DCD    562233345
        0x0001f154:    051a24d0    .$..    DCD    85599440
        0x0001f158:    042f2c30    0,/.    DCD    70200368
        0x0001f15c:    01022c60    `,..    DCD    16919648
        0x0001f160:    01062c67    g,..    DCD    17181799
        0x0001f164:    01022c75    u,..    DCD    16919669
        0x0001f168:    01642c80    .,d.    DCD    23342208
        0x0001f16c:    08262d00    .-&.    DCD    136719616
        0x0001f170:    031aff41    A...    DCD    52100929
        0x0001f174:    00000000    ....    DCD    0
    .constdata
    ui32I2sWordLength
        0x0001f178:    00000008    ....    DCD    8
        0x0001f17c:    00000000    ....    DCD    0
        0x0001f180:    00000010    ....    DCD    16
        0x0001f184:    00000000    ....    DCD    0
        0x0001f188:    00000018    ....    DCD    24
        0x0001f18c:    00000020     ...    DCD    32
    __tagsym$$used
    ui32MCUAllowed
        0x0001f190:    00000000    ....    DCD    0
        0x0001f194:    00000000    ....    DCD    0
        0x0001f198:    00000000    ....    DCD    0
        0x0001f19c:    00000000    ....    DCD    0
        0x0001f1a0:    00000000    ....    DCD    0
    __tagsym$$used
    ui32DSP0Allowed
        0x0001f1a4:    00000000    ....    DCD    0
        0x0001f1a8:    00000000    ....    DCD    0
        0x0001f1ac:    00000000    ....    DCD    0
        0x0001f1b0:    00000000    ....    DCD    0
        0x0001f1b4:    00000000    ....    DCD    0
    __tagsym$$used
    ui32DSP1Allowed
        0x0001f1b8:    00000000    ....    DCD    0
        0x0001f1bc:    00000000    ....    DCD    0
        0x0001f1c0:    00000000    ....    DCD    0
        0x0001f1c4:    00000000    ....    DCD    0
        0x0001f1c8:    00000000    ....    DCD    0
    __tagsym$$used
    ui32SharedAccess
        0x0001f1cc:    00000000    ....    DCD    0
        0x0001f1d0:    00000000    ....    DCD    0
        0x0001f1d4:    00000000    ....    DCD    0
        0x0001f1d8:    00000000    ....    DCD    0
        0x0001f1dc:    00000000    ....    DCD    0
    __tagsym$$used
    sGlobalAccess
        0x0001f1e0:    0001f1cc    ....    DCD    127436
        0x0001f1e4:    0001f190    ....    DCD    127376
        0x0001f1e8:    0001f1a4    ....    DCD    127396
        0x0001f1ec:    0001f1b8    ....    DCD    127416
        0x0001f1f0:    10060004    ....    DCD    268828676
        0x0001f1f4:    10060018    ....    DCD    268828696
        0x0001f1f8:    1006002c    ,...    DCD    268828716
    .constdata
    g_am_hal_bootrom_helper
        0x0001f1fc:    0800004d    M...    DCD    134217805
        0x0001f200:    08000051    Q...    DCD    134217809
        0x0001f204:    08000055    U...    DCD    134217813
        0x0001f208:    08000059    Y...    DCD    134217817
        0x0001f20c:    0800006d    m...    DCD    134217837
        0x0001f210:    08000075    u...    DCD    134217845
        0x0001f214:    08000079    y...    DCD    134217849
        0x0001f218:    08000081    ....    DCD    134217857
        0x0001f21c:    08000099    ....    DCD    134217881
        0x0001f220:    0800009d    ....    DCD    134217885
    .constdata
    am_hal_daxi_defaults
        0x0001f224:    0f020100    ....    DCD    251789568
        0x0001f228:    00000001    ....    DCD    1
    .constdata
    g_ui32DSpintbl
        0x0001f22c:    8fc007e0    ....    DCD    2411726816
        0x0001f230:    e3fbffff    ....    DCD    3824943103
        0x0001f234:    01ffffff    ....    DCD    33554431
        0x0001f238:    00000000    ....    DCD    0
    .constdata
    g_DefaultMcuMemCfg
        0x0001f23c:    07070102    ....    DCD    117899522
        0x0001f240:    0001        ..      DCW    1
    g_DefaultSRAMCfg
        0x0001f242:    0003        ..      DCW    3
        0x0001f244:    03000000    ....    DCD    50331648
    am_hal_pwrctrl_peripheral_control
        0x0001f248:    40021004    ...@    DCD    1073876996
        0x0001f24c:    00000001    ....    DCD    1
        0x0001f250:    40021008    ...@    DCD    1073877000
        0x0001f254:    00000001    ....    DCD    1
        0x0001f258:    40021004    ...@    DCD    1073876996
        0x0001f25c:    00000002    ....    DCD    2
        0x0001f260:    40021008    ...@    DCD    1073877000
        0x0001f264:    0000001e    ....    DCD    30
        0x0001f268:    40021004    ...@    DCD    1073876996
        0x0001f26c:    00000004    ....    DCD    4
        0x0001f270:    40021008    ...@    DCD    1073877000
        0x0001f274:    0000001e    ....    DCD    30
        0x0001f278:    40021004    ...@    DCD    1073876996
        0x0001f27c:    00000008    ....    DCD    8
        0x0001f280:    40021008    ...@    DCD    1073877000
        0x0001f284:    0000001e    ....    DCD    30
        0x0001f288:    40021004    ...@    DCD    1073876996
        0x0001f28c:    00000010    ....    DCD    16
        0x0001f290:    40021008    ...@    DCD    1073877000
        0x0001f294:    0000001e    ....    DCD    30
        0x0001f298:    40021004    ...@    DCD    1073876996
        0x0001f29c:    00000020     ...    DCD    32
        0x0001f2a0:    40021008    ...@    DCD    1073877000
        0x0001f2a4:    000001e0    ....    DCD    480
        0x0001f2a8:    40021004    ...@    DCD    1073876996
        0x0001f2ac:    00000040    @...    DCD    64
        0x0001f2b0:    40021008    ...@    DCD    1073877000
        0x0001f2b4:    000001e0    ....    DCD    480
        0x0001f2b8:    40021004    ...@    DCD    1073876996
        0x0001f2bc:    00000080    ....    DCD    128
        0x0001f2c0:    40021008    ...@    DCD    1073877000
        0x0001f2c4:    000001e0    ....    DCD    480
        0x0001f2c8:    40021004    ...@    DCD    1073876996
        0x0001f2cc:    00000100    ....    DCD    256
        0x0001f2d0:    40021008    ...@    DCD    1073877000
        0x0001f2d4:    000001e0    ....    DCD    480
        0x0001f2d8:    40021004    ...@    DCD    1073876996
        0x0001f2dc:    00000200    ....    DCD    512
        0x0001f2e0:    40021008    ...@    DCD    1073877000
        0x0001f2e4:    00001e00    ....    DCD    7680
        0x0001f2e8:    40021004    ...@    DCD    1073876996
        0x0001f2ec:    00000400    ....    DCD    1024
        0x0001f2f0:    40021008    ...@    DCD    1073877000
        0x0001f2f4:    00001e00    ....    DCD    7680
        0x0001f2f8:    40021004    ...@    DCD    1073876996
        0x0001f2fc:    00000800    ....    DCD    2048
        0x0001f300:    40021008    ...@    DCD    1073877000
        0x0001f304:    00001e00    ....    DCD    7680
        0x0001f308:    40021004    ...@    DCD    1073876996
        0x0001f30c:    00001000    ....    DCD    4096
        0x0001f310:    40021008    ...@    DCD    1073877000
        0x0001f314:    00001e00    ....    DCD    7680
        0x0001f318:    40021004    ...@    DCD    1073876996
        0x0001f31c:    00002000    . ..    DCD    8192
        0x0001f320:    40021008    ...@    DCD    1073877000
        0x0001f324:    00002000    . ..    DCD    8192
        0x0001f328:    40021004    ...@    DCD    1073876996
        0x0001f32c:    00004000    .@..    DCD    16384
        0x0001f330:    40021008    ...@    DCD    1073877000
        0x0001f334:    0001c000    ....    DCD    114688
        0x0001f338:    40021004    ...@    DCD    1073876996
        0x0001f33c:    00008000    ....    DCD    32768
        0x0001f340:    40021008    ...@    DCD    1073877000
        0x0001f344:    0001c000    ....    DCD    114688
        0x0001f348:    40021004    ...@    DCD    1073876996
        0x0001f34c:    00010000    ....    DCD    65536
        0x0001f350:    40021008    ...@    DCD    1073877000
        0x0001f354:    0001c000    ....    DCD    114688
        0x0001f358:    40021004    ...@    DCD    1073876996
        0x0001f35c:    00020000    ....    DCD    131072
        0x0001f360:    40021008    ...@    DCD    1073877000
        0x0001f364:    00020000    ....    DCD    131072
        0x0001f368:    40021004    ...@    DCD    1073876996
        0x0001f36c:    00040000    ....    DCD    262144
        0x0001f370:    40021008    ...@    DCD    1073877000
        0x0001f374:    00040000    ....    DCD    262144
        0x0001f378:    40021004    ...@    DCD    1073876996
        0x0001f37c:    00080000    ....    DCD    524288
        0x0001f380:    40021008    ...@    DCD    1073877000
        0x0001f384:    00080000    ....    DCD    524288
        0x0001f388:    40021004    ...@    DCD    1073876996
        0x0001f38c:    00100000    ....    DCD    1048576
        0x0001f390:    40021008    ...@    DCD    1073877000
        0x0001f394:    00100000    ....    DCD    1048576
        0x0001f398:    40021004    ...@    DCD    1073876996
        0x0001f39c:    00200000    .. .    DCD    2097152
        0x0001f3a0:    40021008    ...@    DCD    1073877000
        0x0001f3a4:    00200000    .. .    DCD    2097152
        0x0001f3a8:    40021004    ...@    DCD    1073876996
        0x0001f3ac:    00400000    ..@.    DCD    4194304
        0x0001f3b0:    40021008    ...@    DCD    1073877000
        0x0001f3b4:    00400000    ..@.    DCD    4194304
        0x0001f3b8:    40021004    ...@    DCD    1073876996
        0x0001f3bc:    00800000    ....    DCD    8388608
        0x0001f3c0:    40021008    ...@    DCD    1073877000
        0x0001f3c4:    00800000    ....    DCD    8388608
        0x0001f3c8:    40021004    ...@    DCD    1073876996
        0x0001f3cc:    01000000    ....    DCD    16777216
        0x0001f3d0:    40021008    ...@    DCD    1073877000
        0x0001f3d4:    01000000    ....    DCD    16777216
        0x0001f3d8:    4002100c    ...@    DCD    1073877004
        0x0001f3dc:    00000001    ....    DCD    1
        0x0001f3e0:    40021010    ...@    DCD    1073877008
        0x0001f3e4:    000000ff    ....    DCD    255
        0x0001f3e8:    4002100c    ...@    DCD    1073877004
        0x0001f3ec:    00000002    ....    DCD    2
        0x0001f3f0:    40021010    ...@    DCD    1073877008
        0x0001f3f4:    000000ff    ....    DCD    255
        0x0001f3f8:    4002100c    ...@    DCD    1073877004
        0x0001f3fc:    00000004    ....    DCD    4
        0x0001f400:    40021010    ...@    DCD    1073877008
        0x0001f404:    000000ff    ....    DCD    255
        0x0001f408:    4002100c    ...@    DCD    1073877004
        0x0001f40c:    00000008    ....    DCD    8
        0x0001f410:    40021010    ...@    DCD    1073877008
        0x0001f414:    000000ff    ....    DCD    255
        0x0001f418:    4002100c    ...@    DCD    1073877004
        0x0001f41c:    00000010    ....    DCD    16
        0x0001f420:    40021010    ...@    DCD    1073877008
        0x0001f424:    000000ff    ....    DCD    255
        0x0001f428:    4002100c    ...@    DCD    1073877004
        0x0001f42c:    00000020     ...    DCD    32
        0x0001f430:    40021010    ...@    DCD    1073877008
        0x0001f434:    000000ff    ....    DCD    255
        0x0001f438:    4002100c    ...@    DCD    1073877004
        0x0001f43c:    00000040    @...    DCD    64
        0x0001f440:    40021010    ...@    DCD    1073877008
        0x0001f444:    000000ff    ....    DCD    255
        0x0001f448:    4002100c    ...@    DCD    1073877004
        0x0001f44c:    00000080    ....    DCD    128
        0x0001f450:    40021010    ...@    DCD    1073877008
        0x0001f454:    000000ff    ....    DCD    255
        0x0001f458:    4002100c    ...@    DCD    1073877004
        0x0001f45c:    00000400    ....    DCD    1024
        0x0001f460:    40021010    ...@    DCD    1073877008
        0x0001f464:    00000400    ....    DCD    1024
    g_VDDF_trimstbl
        0x0001f468:    f500f5ec    ....    DCD    4110480876
        0x0001f46c:    08fefffe    ....    DCD    150929406
        0x0001f470:    fd1108fe    ....    DCD    4245752062
        0x0001f474:    1afc1a11    ....    DCD    452729361
        0x0001f478:    2c23fb23    #.#,    DCD    740555555
        0x0001f47c:    f9352cfa    .,5.    DCD    4181011706
        0x0001f480:    7ff83c35    5<..    DCD    2146974773
        0x0001f484:    007f        ..      DCW    127
    g_VDDFLP_trimstbl
        0x0001f486:    f5ec        ..      DCW    62956
        0x0001f488:    fffef500    ....    DCD    4294898944
        0x0001f48c:    08fe08fe    ....    DCD    150866174
        0x0001f490:    1a11fd11    ....    DCD    437386513
        0x0001f494:    fb231afc    ..#.    DCD    4213381884
        0x0001f498:    2cfa2c23    #,.,    DCD    754592803
        0x0001f49c:    3c35f935    5.5<    DCD    1010170165
        0x0001f4a0:    007f7ff8    ....    DCD    8355832
    g_memlpldo_trimstbl
        0x0001f4a4:    f208f2ee    ....    DCD    4060672750
        0x0001f4a8:    faf607f6    ....    DCD    4210427894
        0x0001f4ac:    05fefa06    ....    DCD    100596230
        0x0001f4b0:    020402fe    ....    DCD    33817342
        0x0001f4b4:    0a060306    ....    DCD    168166150
        0x0001f4b8:    010e0a02    ....    DCD    17697282
        0x0001f4bc:    1200120e    ....    DCD    301994510
        0x0001f4c0:    1a16ff16    ....    DCD    437714710
        0x0001f4c4:    fd2a1afe    ..*.    DCD    4247395070
        0x0001f4c8:    7ffc3c2a    *<..    DCD    2147236906
        0x0001f4cc:    0000007f    ....    DCD    127
    Region$$Table$$Base
        0x0001f4d0:    0001f500    ....    DCD    128256
        0x0001f4d4:    10000000    ....    DCD    268435456
        0x0001f4d8:    00000260    `...    DCD    608
        0x0001f4dc:    00018270    p...    DCD    98928
        0x0001f4e0:    0001f5b0    ....    DCD    128432
        0x0001f4e4:    10060000    ....    DCD    268828672
        0x0001f4e8:    00000040    @...    DCD    64
        0x0001f4ec:    000182cc    ....    DCD    99020
        0x0001f4f0:    0001f5b0    ....    DCD    128432
        0x0001f4f4:    10000260    `...    DCD    268436064
        0x0001f4f8:    00003a10    .:..    DCD    14864
        0x0001f4fc:    000182e8    ....    DCD    99048
    Region$$Table$$Limit

** Section #2 'MCU_TCM' (SHT_PROGBITS) [SHF_ALLOC + SHF_WRITE]
    Size   : 176 bytes (alignment 8)
    Address: 0x10000000

    Data section was compressed (Original size: 608 bytes)

    0x10000000:   00 00 00 00 00 00 00 00 00 00 00 00 00 54 68 69    .............Thi
    0x10000010:   73 20 69 73 20 74 68 65 20 63 6f 6e 74 65 6e 74    s is the content
    0x10000020:   20 69 6e 73 69 64 65 64 20 74 68 65 20 54 58 54     insided the TXT
    0x10000030:   0a 41 70 6f 6c 6c 6f 34 20 65 4d 4d 43 20 46 69    .Apollo4 eMMC Fi
    0x10000040:   6c 65 20 53 79 73 74 65 6d 20 45 78 61 6d 70 6c    le System Exampl
    0x10000050:   65 21 21 21 0a 00 00 00 00 00 00 00 00 00 00 00    e!!!............
    0x10000060:   00 00 00 00 00 00 00 00 00 00 00 00 00 00 00 00    ................
    0x10000070:   00 00 00 00 00 00 00 00 00 00 00 00 00 00 00 00    ................
    0x10000080:   00 00 00 00 00 00 00 00 00 00 00 00 00 00 00 00    ................
    0x10000090:   00 00 00 00 00 00 00 00 00 00 00 00 00 00 00 00    ................
    0x100000a0:   00 00 00 00 00 00 00 00 00 00 00 00 00 00 00 00    ................
    0x100000b0:   00 00 00 00 00 00 00 00 00 00 00 00 00 00 00 00    ................
    0x100000c0:   00 00 00 00 00 00 00 00 00 00 00 00 00 00 00 00    ................
    0x100000d0:   00 00 00 00 00 00 00 00 00 00 00 00 00 00 00 00    ................
    0x100000e0:   00 00 00 00 00 00 00 00 00 00 00 00 00 00 00 00    ................
    0x100000f0:   00 00 00 00 00 00 00 00 00 00 00 00 00 00 00 00    ................
    0x10000100:   00 00 00 00 00 00 00 00 00 00 00 00 00 00 00 00    ................
    0x10000110:   00 00 00 00 00 00 00 00 01 00 00 00 00 00 00 00    ................
    0x10000120:   00 00 00 00 00 00 00 00 00 00 00 00 00 00 00 00    ................
    0x10000130:   f5 aa 01 00 a5 aa 01 00 4f 8b 01 00 cb aa 01 00    ........O.......
    0x10000140:   dd af 01 00 71 b0 01 00 2d af 01 00 31 b1 01 00    ....q...-...1...
    0x10000150:   f5 b0 01 00 6d aa 01 00 2d a3 01 00 00 00 00 00    ....m...-.......
    0x10000160:   00 00 00 00 00 00 00 00 00 00 00 00 00 00 00 00    ................
    0x10000170:   00 00 00 00 00 00 00 00 00 00 00 00 00 00 00 00    ................
    0x10000180:   00 00 00 00 00 00 00 00 00 00 00 00 00 00 00 00    ................
    0x10000190:   00 00 00 00 00 00 00 00 00 00 00 00 00 00 00 00    ................
    0x100001a0:   00 00 00 00 00 00 00 00 00 00 00 00 00 00 00 00    ................
    0x100001b0:   00 00 00 00 00 00 00 00 00 00 00 00 30 01 00 10    ............0...
    0x100001c0:   00 00 00 00 5c 01 00 10 00 00 00 00 00 00 00 00    ....\...........
    0x100001d0:   00 01 02 0f 01 00 00 00 00 00 00 00 08 1e 0c 40    ...............@
    0x100001e0:   18 1e 0c 40 00 00 00 00 6d db 02 40 d1 02 00 00    ...@....m..@....
    0x100001f0:   92 24 01 80 20 01 00 00 01 00 00 00 00 00 00 00    .$.. ...........
    0x10000200:   ff ff ff ff ff ff ff ff 00 00 00 00 00 00 00 00    ................
    0x10000210:   00 00 00 00 00 00 00 00 00 00 00 00 00 00 00 00    ................
    0x10000220:   00 00 00 00 00 00 00 00 00 00 00 00 00 00 00 00    ................
    0x10000230:   00 00 00 00 00 00 00 00 02 8c 00 00 02 0c 00 00    ................
    0x10000240:   02 0c 00 00 02 0c 00 00 02 0c 00 00 02 0c 00 00    ................
    0x10000250:   02 0c 00 00 02 0c 00 00 02 8c 00 00 02 8c 00 00    ................


** Section #3 'MCU_TCM' (SHT_NOBITS) [SHF_ALLOC + SHF_WRITE]
    Size   : 14864 bytes (alignment 8)
    Address: 0x10000260


** Section #4 'SHARED_SRAM' (SHT_PROGBITS) [SHF_ALLOC + SHF_WRITE]
    Size   : 64 bytes (alignment 4)
    Address: 0x10060000

    0x10060000:   e0 f1 01 00 00 00 00 00 00 00 00 00 00 00 00 00    ................
    0x10060010:   00 00 00 00 00 00 00 00 00 00 00 00 00 00 00 00    ................
    0x10060020:   00 00 00 00 00 00 00 00 00 00 00 00 00 00 00 00    ................
    0x10060030:   00 00 00 00 00 00 00 00 00 00 00 00 00 00 00 00    ................


** Section #5 '.debug_abbrev' (SHT_PROGBITS)
    Size   : 1476 bytes


** Section #6 '.debug_frame' (SHT_PROGBITS)
    Size   : 6328 bytes


** Section #7 '.debug_info' (SHT_PROGBITS)
    Size   : 55980 bytes


** Section #8 '.debug_line' (SHT_PROGBITS)
    Size   : 21280 bytes


** Section #9 '.debug_loc' (SHT_PROGBITS)
    Size   : 11536 bytes


** Section #10 '.debug_macinfo' (SHT_PROGBITS)
    Size   : 28540 bytes


** Section #11 '.debug_pubnames' (SHT_PROGBITS)
    Size   : 1403 bytes


** Section #12 '.symtab' (SHT_SYMTAB)
    Size   : 15568 bytes (alignment 4)
    String table #13 '.strtab'
    Last local symbol no. 673

    Symbol table .symtab (972 symbols, 673 local)

      #  Symbol Name                Value      Bind  Sec  Type  Vis  Size
    ========================================================================

      1  $d                         0x00018000   Lc    1   --   De 
      2  $t                         0x00018200   Lc    1   --   De 
      3  $d                         0x00018230   Lc    1   --   De 
      4  $t                         0x00018234   Lc    1   --   De 
      5  $d                         0x00018268   Lc    1   --   De 
      6  $t                         0x00018270   Lc    1   --   De 
      7  $d                         0x00018376   Lc    1   --   De 
      8  $t                         0x00018384   Lc    1   --   De 
      9  $d                         0x00018484   Lc    1   --   De 
     10  $t                         0x00018488   Lc    1   --   De 
     11  $d                         0x00018490   Lc    1   --   De 
     12  $t                         0x00018494   Lc    1   --   De 
     13  $d                         0x00018500   Lc    1   --   De 
     14  $t                         0x00018518   Lc    1   --   De 
     15  $d                         0x000185c6   Lc    1   --   De 
     16  $t                         0x000185f0   Lc    1   --   De 
     17  $d                         0x0001893a   Lc    1   --   De 
     18  $t                         0x0001895c   Lc    1   --   De 
     19  $d                         0x000189ce   Lc    1   --   De 
     20  $t                         0x00018a5c   Lc    1   --   De 
     21  $d                         0x00018f96   Lc    1   --   De 
     22  $t                         0x00018f9c   Lc    1   --   De 
     23  $d                         0x0001939e   Lc    1   --   De 
     24  $t                         0x000193a8   Lc    1   --   De 
     25  $d                         0x00019678   Lc    1   --   De 
     26  $t                         0x00019684   Lc    1   --   De 
     27  $d                         0x00019714   Lc    1   --   De 
     28  $t                         0x0001971c   Lc    1   --   De 
     29  $d                         0x00019792   Lc    1   --   De 
     30  $t                         0x0001979c   Lc    1   --   De 
     31  $d                         0x00019820   Lc    1   --   De 
     32  $t                         0x0001982c   Lc    1   --   De 
     33  $d                         0x00019902   Lc    1   --   De 
     34  $t                         0x00019910   Lc    1   --   De 
     35  $d                         0x00019932   Lc    1   --   De 
     36  $t                         0x0001993c   Lc    1   --   De 
     37  $d                         0x0001998c   Lc    1   --   De 
     38  $t                         0x00019994   Lc    1   --   De 
     39  $d                         0x000199f0   Lc    1   --   De 
     40  $t                         0x000199f8   Lc    1   --   De 
     41  $d                         0x00019a72   Lc    1   --   De 
     42  $t                         0x00019a78   Lc    1   --   De 
     43  $d                         0x00019ac4   Lc    1   --   De 
     44  $t                         0x00019acc   Lc    1   --   De 
     45  $d                         0x00019aee   Lc    1   --   De 
     46  $t                         0x00019af4   Lc    1   --   De 
     47  $d                         0x00019b6c   Lc    1   --   De 
     48  $t                         0x00019b88   Lc    1   --   De 
     49  $d                         0x00019c24   Lc    1   --   De 
     50  $t                         0x00019c28   Lc    1   --   De 
     51  $d                         0x00019c40   Lc    1   --   De 
     52  $t                         0x00019c46   Lc    1   --   De 
     53  $d                         0x00019e3c   Lc    1   --   De 
     54  $t                         0x00019e50   Lc    1   --   De 
     55  $d                         0x00019f56   Lc    1   --   De 
     56  $t                         0x00019f74   Lc    1   --   De 
     57  $d                         0x0001a088   Lc    1   --   De 
     58  $t                         0x0001a090   Lc    1   --   De 
     59  $d                         0x0001a1a2   Lc    1   --   De 
     60  $t                         0x0001a1bc   Lc    1   --   De 
     61  $d                         0x0001a262   Lc    1   --   De 
     62  $t                         0x0001a270   Lc    1   --   De 
     63  $d                         0x0001a30e   Lc    1   --   De 
     64  $t                         0x0001a318   Lc    1   --   De 
     65  $d                         0x0001a326   Lc    1   --   De 
     66  $t                         0x0001a32c   Lc    1   --   De 
     67  $d                         0x0001a380   Lc    1   --   De 
     68  $t                         0x0001a384   Lc    1   --   De 
     69  $d                         0x0001a3ac   Lc    1   --   De 
     70  $t                         0x0001a3b0   Lc    1   --   De 
     71  $d                         0x0001a42c   Lc    1   --   De 
     72  $t                         0x0001a434   Lc    1   --   De 
     73  $d                         0x0001a512   Lc    1   --   De 
     74  $t                         0x0001a524   Lc    1   --   De 
     75  $d                         0x0001a938   Lc    1   --   De 
     76  $t                         0x0001a940   Lc    1   --   De 
     77  $d                         0x0001aa9e   Lc    1   --   De 
     78  $t                         0x0001aaa4   Lc    1   --   De 
     79  $d                         0x0001ab72   Lc    1   --   De 
     80  $t                         0x0001ab7c   Lc    1   --   De 
     81  $d                         0x0001acb4   Lc    1   --   De 
     82  $t                         0x0001acb8   Lc    1   --   De 
     83  $d                         0x0001acee   Lc    1   --   De 
     84  $t                         0x0001acf4   Lc    1   --   De 
     85  $d                         0x0001ad3c   Lc    1   --   De 
     86  $t                         0x0001ad40   Lc    1   --   De 
     87  $d                         0x0001af28   Lc    1   --   De 
     88  $t                         0x0001af2c   Lc    1   --   De 
     89  $d                         0x0001afd6   Lc    1   --   De 
     90  $t                         0x0001afdc   Lc    1   --   De 
     91  $d                         0x0001b06a   Lc    1   --   De 
     92  $t                         0x0001b070   Lc    1   --   De 
     93  $d                         0x0001b0ee   Lc    1   --   De 
     94  $t                         0x0001b0f4   Lc    1   --   De 
     95  $d                         0x0001b12c   Lc    1   --   De 
     96  $t                         0x0001b130   Lc    1   --   De 
     97  $d                         0x0001b17a   Lc    1   --   De 
     98  $t                         0x0001b180   Lc    1   --   De 
     99  $d                         0x0001b204   Lc    1   --   De 
    100  $t                         0x0001b20c   Lc    1   --   De 
    101  $d                         0x0001b25e   Lc    1   --   De 
    102  $t                         0x0001b278   Lc    1   --   De 
    103  $d                         0x0001b2f2   Lc    1   --   De 
    104  $t                         0x0001b2f8   Lc    1   --   De 
    105  $d                         0x0001b3ca   Lc    1   --   De 
    106  $t                         0x0001b3d0   Lc    1   --   De 
    107  $d                         0x0001b402   Lc    1   --   De 
    108  $t                         0x0001b40c   Lc    1   --   De 
    109  $d                         0x0001b412   Lc    1   --   De 
    110  $t                         0x0001b418   Lc    1   --   De 
    111  $d                         0x0001b7bc   Lc    1   --   De 
    112  $t                         0x0001b7cc   Lc    1   --   De 
    113  $d                         0x0001b83e   Lc    1   --   De 
    114  $t                         0x0001b84c   Lc    1   --   De 
    115  $d                         0x0001b882   Lc    1   --   De 
    116  $t                         0x0001b8f0   Lc    1   --   De 
    117  $d                         0x0001b9e4   Lc    1   --   De 
    118  $t                         0x0001b9e8   Lc    1   --   De 
    119  $d                         0x0001bdd6   Lc    1   --   De 
    120  $t                         0x0001bdf0   Lc    1   --   De 
    121  $d                         0x0001bff2   Lc    1   --   De 
    122  $t                         0x0001bffc   Lc    1   --   De 
    123  $d                         0x0001ca36   Lc    1   --   De 
    124  $t                         0x0001ca5c   Lc    1   --   De 
    125  $d                         0x0001cc90   Lc    1   --   De 
    126  $t                         0x0001ccc8   Lc    1   --   De 
    127  $d                         0x0001cd18   Lc    1   --   De 
    128  $t                         0x0001cd1c   Lc    1   --   De 
    129  $d                         0x0001cf0a   Lc    1   --   De 
    130  $t                         0x0001cf10   Lc    1   --   De 
    131  $d                         0x0001d158   Lc    1   --   De 
    132  $t                         0x0001d15c   Lc    1   --   De 
    133  $d                         0x0001d372   Lc    1   --   De 
    134  $t                         0x0001d378   Lc    1   --   De 
    135  $d                         0x0001d3b2   Lc    1   --   De 
    136  $t                         0x0001d3b8   Lc    1   --   De 
    137  $d                         0x0001d3f4   Lc    1   --   De 
    138  $t                         0x0001d3fe   Lc    1   --   De 
    139  $d                         0x0001d45e   Lc    1   --   De 
    140  $t                         0x0001d468   Lc    1   --   De 
    141  $d                         0x0001d71e   Lc    1   --   De 
    142  $t                         0x0001d724   Lc    1   --   De 
    143  $d                         0x0001d7ea   Lc    1   --   De 
    144  $t                         0x0001d7f0   Lc    1   --   De 
    145  $d                         0x0001d920   Lc    1   --   De 
    146  $t                         0x0001d924   Lc    1   --   De 
    147  $d                         0x0001dab4   Lc    1   --   De 
    148  $t                         0x0001dc70   Lc    1   --   De 
    149  $d                         0x0001de1c   Lc    1   --   De 
    150  $t                         0x0001df74   Lc    1   --   De 
    151  $d                         0x0001dfb2   Lc    1   --   De 
    152  $t                         0x0001dfbc   Lc    1   --   De 
    153  $d                         0x0001e070   Lc    1   --   De 
    154  $t                         0x0001e170   Lc    1   --   De 
    155  $d                         0x0001e176   Lc    1   --   De 
    156  $t                         0x0001e17c   Lc    1   --   De 
    157  $d                         0x0001e232   Lc    1   --   De 
    158  $t                         0x0001e334   Lc    1   --   De 
    159  $d                         0x0001e5ca   Lc    1   --   De 
    160  $t                         0x0001e5e0   Lc    1   --   De 
    161  $d                         0x0001e87c   Lc    1   --   De 
    162  $t                         0x0001e880   Lc    1   --   De 
    163  $d                         0x0001ea22   Lc    1   --   De 
    164  $t                         0x0001ea2c   Lc    1   --   De 
    165  $d                         0x0001ec48   Lc    1   --   De 
    166  $t                         0x0001ec4c   Lc    1   --   De 
    167  $d                         0x0001ecca   Lc    1   --   De 
    168  $t                         0x0001ecce   Lc    1   --   De 
    169  $d.realdata                0x0001ed0c   Lc    1   --   De 
    170  $d.realdata                0x10000000   Lc    2   --   De 
    171  $d.realdata                0x10060000   Lc    4   --   De 
    172  ../../../../../../third_party/FatFs/source/diskio.c
                                    0x00000000   Lc  Abs  File  De 
    173  i.disk_initialize          0x0001c4b8   Lc    1  Sect  De 
    174  i.disk_ioctl               0x0001c4c8   Lc    1  Sect  De 
    175  i.disk_read                0x0001c4e0   Lc    1  Sect  De 
    176  i.disk_status              0x0001c500   Lc    1  Sect  De 
    177  i.disk_write               0x0001c510   Lc    1  Sect  De 
    178  ../../../../../../third_party/FatFs/source/ff.c
                                    0x00000000   Lc  Abs  File  De 
    179  i.check_fs                 0x0001b7cc   Lc    1  Sect  De 
    180  check_fs                   0x0001b7cd   Lc    1  Code  De   0x72
    181  i.chk_chr                  0x0001b8f0   Lc    1  Sect  De 
    182  chk_chr                    0x0001b8f1   Lc    1  Code  De   0x14
    183  i.clmt_clust               0x0001b904   Lc    1  Sect  De 
    184  clmt_clust                 0x0001b905   Lc    1  Code  De   0x32
    185  i.clst2sect                0x0001b936   Lc    1  Sect  De 
    186  clst2sect                  0x0001b937   Lc    1  Code  De   0x1a
    187  i.cmp_lfn                  0x0001b950   Lc    1  Sect  De 
    188  cmp_lfn                    0x0001b951   Lc    1  Code  De   0x94
    189  i.create_chain             0x0001ba10   Lc    1  Sect  De 
    190  create_chain               0x0001ba11   Lc    1  Code  De   0x120
    191  i.create_name              0x0001bb30   Lc    1  Sect  De 
    192  create_name                0x0001bb31   Lc    1  Code  De   0x2a6
    193  i.create_partition         0x0001bdf0   Lc    1  Sect  De 
    194  create_partition           0x0001bdf1   Lc    1  Code  De   0x15c
    195  i.dbc_1st                  0x0001bffc   Lc    1  Sect  De 
    196  dbc_1st                    0x0001bffd   Lc    1  Code  De   0xc
    197  i.dbc_2nd                  0x0001c008   Lc    1  Sect  De 
    198  dbc_2nd                    0x0001c009   Lc    1  Code  De   0xc
    199  i.dir_alloc                0x0001c056   Lc    1  Sect  De 
    200  dir_alloc                  0x0001c057   Lc    1  Code  De   0x60
    201  i.dir_clear                0x0001c0b6   Lc    1  Sect  De 
    202  dir_clear                  0x0001c0b7   Lc    1  Code  De   0x60
    203  i.dir_find                 0x0001c116   Lc    1  Sect  De 
    204  dir_find                   0x0001c117   Lc    1  Code  De   0xfc
    205  i.dir_next                 0x0001c212   Lc    1  Sect  De 
    206  dir_next                   0x0001c213   Lc    1  Code  De   0xca
    207  i.dir_register             0x0001c2dc   Lc    1  Sect  De 
    208  dir_register               0x0001c2dd   Lc    1  Code  De   0x142
    209  i.dir_sdi                  0x0001c41e   Lc    1  Sect  De 
    210  dir_sdi                    0x0001c41f   Lc    1  Code  De   0x9a
    211  i.f_close                  0x0001c5fc   Lc    1  Sect  De 
    212  i.f_mkfs                   0x0001c620   Lc    1  Sect  De 
    213  i.f_mount                  0x0001ccc8   Lc    1  Sect  De 
    214  i.f_open                   0x0001cd1c   Lc    1  Sect  De 
    215  i.f_read                   0x0001cf10   Lc    1  Sect  De 
    216  i.f_sync                   0x0001d0bc   Lc    1  Sect  De 
    217  i.f_write                  0x0001d15c   Lc    1  Sect  De 
    218  i.find_volume              0x0001d468   Lc    1  Sect  De 
    219  find_volume                0x0001d469   Lc    1  Code  De   0x78
    220  i.follow_path              0x0001d4e0   Lc    1  Sect  De 
    221  follow_path                0x0001d4e1   Lc    1  Code  De   0xca
    222  i.gen_numname              0x0001d724   Lc    1  Sect  De 
    223  gen_numname                0x0001d725   Lc    1  Code  De   0xc6
    224  i.get_fat                  0x0001d7f0   Lc    1  Sect  De 
    225  get_fat                    0x0001d7f1   Lc    1  Code  De   0xe0
    226  i.get_ldnumber             0x0001d8d0   Lc    1  Sect  De 
    227  get_ldnumber               0x0001d8d1   Lc    1  Code  De   0x50
    228  i.ld_clust                 0x0001d924   Lc    1  Sect  De 
    229  ld_clust                   0x0001d925   Lc    1  Code  De   0x26
    230  i.ld_dword                 0x0001d94a   Lc    1  Sect  De 
    231  ld_dword                   0x0001d94b   Lc    1  Code  De   0x18
    232  i.ld_word                  0x0001d962   Lc    1  Sect  De 
    233  ld_word                    0x0001d963   Lc    1  Code  De   0xc
    234  i.mem_cmp                  0x0001dc70   Lc    1  Sect  De 
    235  mem_cmp                    0x0001dc71   Lc    1  Code  De   0x24
    236  i.mem_cpy                  0x0001dc94   Lc    1  Sect  De 
    237  mem_cpy                    0x0001dc95   Lc    1  Code  De   0x1a
    238  i.mem_set                  0x0001dcae   Lc    1  Sect  De 
    239  mem_set                    0x0001dcaf   Lc    1  Code  De   0x12
    240  i.mount_volume             0x0001e334   Lc    1  Sect  De 
    241  mount_volume               0x0001e335   Lc    1  Code  De   0x296
    242  i.move_window              0x0001e5e0   Lc    1  Sect  De 
    243  move_window                0x0001e5e1   Lc    1  Code  De   0x34
    244  i.put_fat                  0x0001e6c8   Lc    1  Sect  De 
    245  put_fat                    0x0001e6c9   Lc    1  Code  De   0x138
    246  i.put_lfn                  0x0001e800   Lc    1  Sect  De 
    247  put_lfn                    0x0001e801   Lc    1  Code  De   0x7c
    248  i.remove_chain             0x0001e880   Lc    1  Sect  De 
    249  remove_chain               0x0001e881   Lc    1  Code  De   0x9a
    250  i.st_clust                 0x0001e932   Lc    1  Sect  De 
    251  st_clust                   0x0001e933   Lc    1  Code  De   0x24
    252  i.st_dword                 0x0001e956   Lc    1  Sect  De 
    253  st_dword                   0x0001e957   Lc    1  Code  De   0x18
    254  i.st_word                  0x0001e96e   Lc    1  Sect  De 
    255  st_word                    0x0001e96f   Lc    1  Code  De   0xc
    256  i.sum_sfn                  0x0001e97a   Lc    1  Sect  De 
    257  sum_sfn                    0x0001e97b   Lc    1  Code  De   0x20
    258  i.sync_fs                  0x0001e99c   Lc    1  Sect  De 
    259  sync_fs                    0x0001e99d   Lc    1  Code  De   0x86
    260  i.sync_window              0x0001ea2c   Lc    1  Sect  De 
    261  sync_window                0x0001ea2d   Lc    1  Code  De   0x4a
    262  i.tchar2uni                0x0001ea76   Lc    1  Sect  De 
    263  tchar2uni                  0x0001ea77   Lc    1  Code  De   0x4c
    264  i.validate                 0x0001ebbc   Lc    1  Sect  De 
    265  validate                   0x0001ebbd   Lc    1  Code  De   0x3c
    266  .constdata                 0x0001ed0c   Lc    1  Sect  De   0xbc
    267  LfnOfs                     0x0001ed0c   Lc    1  Data  De   0xd
    268  ExCvt                      0x0001ed19   Lc    1  Data  De   0x80
    269  cst                        0x0001ed9a   Lc    1  Data  De   0xe
    270  cst32                      0x0001eda8   Lc    1  Data  De   0xe
    271  defopt                     0x0001edb8   Lc    1  Data  De   0x10
    272  .data                      0x10000000   Lc    2  Sect  De   0x7
    273  FatFs                      0x10000000   Lc    2  Data  De   0x4
    274  Fsid                       0x10000004   Lc    2  Data  De   0x2
    275  CurrVol                    0x10000006   Lc    2  Data  De   0x1
    276  ../../../../../../third_party/FatFs/source/ffsystem.c
                                    0x00000000   Lc  Abs  File  De 
    277  ../../../../../../third_party/FatFs/source/ffunicode.c
                                    0x00000000   Lc  Abs  File  De 
    278  i.ff_oem2uni               0x0001d34c   Lc    1  Sect  De 
    279  i.ff_uni2oem               0x0001d378   Lc    1  Sect  De 
    280  i.ff_wtoupper              0x0001d3b8   Lc    1  Sect  De 
    281  .constdata                 0x0001edc8   Lc    1  Sect  De   0x3ae
    282  uc850                      0x0001edc8   Lc    1  Data  De   0x100
    283  cvt1                       0x0001eec8   Lc    1  Data  De   0x1f2
    284  cvt2                       0x0001f0ba   Lc    1  Data  De   0xbc
    285  ..\src\am_resources.c      0x00000000   Lc  Abs  File  De 
    286  ../src/am_resources.c      0x00000000   Lc  Abs  File  De 
    287  .constdata                 0x0001f178   Lc    1  Sect  De   0x84
    288  ui32I2sWordLength          0x0001f178   Lc    1  Data  De   0x18
    289  __tagsym$$used             0x0001f190   Lc    1   --   De 
    290  __tagsym$$used             0x0001f1a4   Lc    1   --   De 
    291  __tagsym$$used             0x0001f1b8   Lc    1   --   De 
    292  __tagsym$$used             0x0001f1cc   Lc    1   --   De 
    293  __tagsym$$used             0x0001f1e0   Lc    1   --   De 
    294  RESOURCE_TABLE             0x10060000   Lc    4  Sect  De   0x4
    295  __tagsym$$used             0x10060000   Lc    4   --   De 
    296  SHARED_RW                  0x10060004   Lc    4  Sect  De   0x3c
    297  __tagsym$$used             0x10060004   Lc    4   --   De 
    298  __tagsym$$used             0x10060018   Lc    4   --   De 
    299  __tagsym$$used             0x1006002c   Lc    4   --   De 
    300  ..\src\emmc_bm_fatfs.c     0x00000000   Lc  Abs  File  De 
    301  ../src/emmc_bm_fatfs.c     0x00000000   Lc  Abs  File  De 
    302  i.check_if_rwbuf_match     0x0001b84c   Lc    1  Sect  De 
    303  check_if_rwbuf_match       0x0001b84d   Lc    1  Code  De   0x36
    304  i.main                     0x0001d970   Lc    1  Sect  De 
    305  .bss                       0x10000260   Lc    3  Sect  De   0x764
    306  work_buf                   0x100006c4   Lc    3  Data  De   0x200
    307  read_buf                   0x100008c4   Lc    3  Data  De   0x100
    308  .data                      0x10000008   Lc    2  Sect  De   0x110
    309  write_buf                  0x1000000d   Lc    2  Data  De   0x100
    310  write_cnt                  0x10000110   Lc    2  Data  De   0x4
    311  read_cnt                   0x10000114   Lc    2  Data  De   0x4
    312  ..\src\mmc_apollo4.c       0x00000000   Lc  Abs  File  De 
    313  ../src/mmc_apollo4.c       0x00000000   Lc  Abs  File  De 
    314  i.am_hal_card_event_test_cb
                                    0x0001895c   Lc    1  Sect  De 
    315  i.am_sdio_isr              0x0001b2c8   Lc    1  Sect  De 
    316  i.mmc_disk_initialize      0x0001dcc0   Lc    1  Sect  De 
    317  i.mmc_disk_ioctl           0x0001df74   Lc    1  Sect  De 
    318  i.mmc_disk_read            0x0001dfbc   Lc    1  Sect  De 
    319  i.mmc_disk_status          0x0001e170   Lc    1  Sect  De 
    320  i.mmc_disk_write           0x0001e17c   Lc    1  Sect  De 
    321  .bss                       0x100009c4   Lc    3  Sect  De   0x274
    322  .data                      0x10000118   Lc    2  Sect  De   0xc
    323  Stat                       0x10000118   Lc    2  Data  De   0x1
    324  bAsyncWriteIsDone          0x10000119   Lc    2  Data  De   0x1
    325  bAsyncReadIsDone           0x1000011a   Lc    2  Data  De   0x1
    326  ../../../../../../utils/am_util_debug.c
                                    0x00000000   Lc  Abs  File  De 
    327  ..\..\..\..\..\..\utils\am_util_delay.c
                                    0x00000000   Lc  Abs  File  De 
    328  ../../../../../../utils/am_util_delay.c
                                    0x00000000   Lc  Abs  File  De 
    329  i.am_util_delay_ms         0x0001b2f8   Lc    1  Sect  De 
    330  i.am_util_delay_us         0x0001b30a   Lc    1  Sect  De 
    331  ..\..\..\..\..\..\utils\am_util_faultisr.c
                                    0x00000000   Lc  Abs  File  De 
    332  .emb_text                  0x00018330   Lc    1  Sect  De   0x22
    333  $v0                        0x00018330   Lc    1   --   De 
    334  ../../../../../../utils/am_util_faultisr.c
                                    0x00000000   Lc  Abs  File  De 
    335  i.am_util_faultisr_collect_data
                                    0x0001b318   Lc    1  Sect  De 
    336  ..\..\..\..\..\..\utils\am_util_id.c
                                    0x00000000   Lc  Abs  File  De 
    337  ../../../../../../utils/am_util_id.c
                                    0x00000000   Lc  Abs  File  De 
    338  ../../../../../../utils/am_util_stdio.c
                                    0x00000000   Lc  Abs  File  De 
    339  i.am_util_stdio_printf     0x0001b3d0   Lc    1  Sect  De 
    340  i.am_util_stdio_printf_init
                                    0x0001b40c   Lc    1  Sect  De 
    341  i.am_util_stdio_vsprintf   0x0001b418   Lc    1  Sect  De 
    342  i.decstr_to_int            0x0001c014   Lc    1  Sect  De 
    343  decstr_to_int              0x0001c015   Lc    1  Code  De   0x42
    344  i.divu64_10                0x0001c530   Lc    1  Sect  De 
    345  divu64_10                  0x0001c531   Lc    1  Code  De   0xcc
    346  i.ftoa                     0x0001d5ac   Lc    1  Sect  De 
    347  ftoa                       0x0001d5ad   Lc    1  Code  De   0x172
    348  i.ndigits_in_hex           0x0001e614   Lc    1  Sect  De 
    349  ndigits_in_hex             0x0001e615   Lc    1  Code  De   0x34
    350  i.ndigits_in_i64           0x0001e648   Lc    1  Sect  De 
    351  ndigits_in_i64             0x0001e649   Lc    1  Code  De   0x24
    352  i.ndigits_in_u64           0x0001e66c   Lc    1  Sect  De 
    353  ndigits_in_u64             0x0001e66d   Lc    1  Code  De   0x3a
    354  i.padbuffer                0x0001e6a6   Lc    1  Sect  De 
    355  padbuffer                  0x0001e6a7   Lc    1  Code  De   0x22
    356  i.simple_strlen            0x0001e91a   Lc    1  Sect  De 
    357  simple_strlen              0x0001e91b   Lc    1  Code  De   0x18
    358  i.uint64_to_hexstr         0x0001eac2   Lc    1  Sect  De 
    359  uint64_to_hexstr           0x0001eac3   Lc    1  Code  De   0x8a
    360  i.uint64_to_str            0x0001eb4c   Lc    1  Sect  De 
    361  uint64_to_str              0x0001eb4d   Lc    1  Code  De   0x70
    362  .bss                       0x10000c38   Lc    3  Sect  De   0x400
    363  g_prfbuf                   0x10000c38   Lc    3  Data  De   0x400
    364  .data                      0x10000124   Lc    2  Sect  De   0x5
    365  g_bTxtXlate                0x10000128   Lc    2  Data  De   0x1
    366  ../keil/startup_keil.s     0x00000000   Lc  Abs  File  De 
    367  STACK                      0x10001170   Lc    3  Sect  De   0x2b00
    368  StackMem                   0x10001170   Lc    3  Data  De 
    369  HEAP                       0x10001170   Lc    3  Sect  De 
    370  HeapMem                    0x10001170   Lc    3  Data  De 
    371  RESET                      0x00018000   Lc    1  Sect  De   0x234
    372  $v0                        0x00018200   Lc    1   --   De 
    373  am_cryptosec_isr           0x0001822f   Lc    1  Code  De 
    374  am_default_isr             0x0001822f   Lc    1  Code  De   0x2
    375  .text                      0x0001836c   Lc    1  Sect  De   0x18
    376  $v0                        0x0001836c   Lc    1   --   De 
    377  ..\..\..\..\..\mcu\apollo4p\hal\am_hal_global.c
                                    0x00000000   Lc  Abs  File  De 
    378  ../../../../../mcu/apollo4p/hal/am_hal_global.c
                                    0x00000000   Lc  Abs  File  De 
    379  .data                      0x1000012c   Lc    2  Sect  De   0x4
    380  ..\..\..\..\..\mcu\apollo4p\hal\mcu\am_hal_card.c
                                    0x00000000   Lc  Abs  File  De 
    381  ../../../../../mcu/apollo4p/hal/mcu/am_hal_card.c
                                    0x00000000   Lc  Abs  File  De 
    382  i.am_hal_card_block_read_async
                                    0x000185f0   Lc    1  Sect  De 
    383  i.am_hal_card_block_rw     0x00018608   Lc    1  Sect  De 
    384  am_hal_card_block_rw       0x00018609   Lc    1  Code  De   0xf4
    385  i.am_hal_card_block_write_async
                                    0x000186fc   Lc    1  Sect  De 
    386  i.am_hal_card_cfg_set      0x00018714   Lc    1  Sect  De 
    387  i.am_hal_card_get_ext_csd_field
                                    0x00018a5c   Lc    1  Sect  De 
    388  i.am_hal_card_host_find_card
                                    0x00018b00   Lc    1  Sect  De 
    389  i.am_hal_card_init         0x00018b5c   Lc    1  Sect  De 
    390  i.am_hal_card_mmc_init     0x00018b9c   Lc    1  Sect  De 
    391  am_hal_card_mmc_init       0x00018b9d   Lc    1  Code  De   0x3fa
    392  i.am_hal_card_mode_switch  0x00018f9c   Lc    1  Sect  De 
    393  i.am_hal_card_pwrctrl_sleep
                                    0x000190cc   Lc    1  Sect  De 
    394  i.am_hal_card_pwrctrl_wakeup
                                    0x000193a8   Lc    1  Sect  De 
    395  i.am_hal_card_register_evt_callback
                                    0x0001956a   Lc    1  Sect  De 
    396  i.am_hal_card_set_speed    0x00019580   Lc    1  Sect  De 
    397  am_hal_card_set_speed      0x00019581   Lc    1  Code  De   0xf8
    398  i.am_hal_unstuff_bytes     0x0001b278   Lc    1  Sect  De 
    399  am_hal_unstuff_bytes       0x0001b279   Lc    1  Code  De   0x50
    400  ..\..\..\..\..\mcu\apollo4p\hal\mcu\am_hal_card_host.c
                                    0x00000000   Lc  Abs  File  De 
    401  ../../../../../mcu/apollo4p/hal/mcu/am_hal_card_host.c
                                    0x00000000   Lc  Abs  File  De 
    402  i.am_hal_card_host_power_control
                                    0x00018b4e   Lc    1  Sect  De 
    403  am_hal_card_host_power_control
                                    0x00018b4f   Lc    1  Code  De   0xa
    404  i.am_hal_card_host_set_xfer_mode
                                    0x00018b58   Lc    1  Sect  De 
    405  i.am_hal_get_card_host     0x00019a38   Lc    1  Sect  De 
    406  i.am_hal_sdhc_host_deinit  0x0001aaa4   Lc    1  Sect  De 
    407  am_hal_sdhc_host_deinit    0x0001aaa5   Lc    1  Code  De   0x26
    408  i.am_hal_sdhc_host_execute_cmd
                                    0x0001aaca   Lc    1  Sect  De 
    409  am_hal_sdhc_host_execute_cmd
                                    0x0001aacb   Lc    1  Code  De   0x2a
    410  i.am_hal_sdhc_host_init    0x0001aaf4   Lc    1  Sect  De 
    411  am_hal_sdhc_host_init      0x0001aaf5   Lc    1  Code  De   0x48
    412  .data                      0x10000130   Lc    2  Sect  De   0x2c
    413  g_sdhc_host_ops            0x10000130   Lc    2  Data  De   0x2c
    414  .data                      0x1000015c   Lc    2  Sect  De   0x68
    415  g_sdhc_card_host           0x1000015c   Lc    2  Data  De   0x68
    416  .data                      0x100001c4   Lc    2  Sect  De   0x4
    417  g_CardHosts                0x100001c4   Lc    2  Data  De   0x4
    418  ..\..\..\..\..\mcu\apollo4p\hal\mcu\am_hal_fault.c
                                    0x00000000   Lc  Abs  File  De 
    419  ../../../../../mcu/apollo4p/hal/mcu/am_hal_fault.c
                                    0x00000000   Lc  Abs  File  De 
    420  i.am_hal_fault_status_get  0x000199f8   Lc    1  Sect  De 
    421  ..\..\..\..\..\mcu\apollo4p\hal\mcu\am_hal_interrupt.c
                                    0x00000000   Lc  Abs  File  De 
    422  .emb_text                  0x00018354   Lc    1  Sect  De   0x16
    423  $v0                        0x00018354   Lc    1   --   De 
    424  ../../../../../mcu/apollo4p/hal/mcu/am_hal_interrupt.c
                                    0x00000000   Lc  Abs  File  De 
    425  ..\..\..\..\..\mcu\apollo4p\hal\mcu\am_hal_mcuctrl.c
                                    0x00000000   Lc  Abs  File  De 
    426  ../../../../../mcu/apollo4p/hal/mcu/am_hal_mcuctrl.c
                                    0x00000000   Lc  Abs  File  De 
    427  ..\..\..\..\..\mcu\apollo4p\hal\mcu\am_hal_sdhc.c
                                    0x00000000   Lc  Abs  File  De 
    428  ../../../../../mcu/apollo4p/hal/mcu/am_hal_sdhc.c
                                    0x00000000   Lc  Abs  File  De 
    429  i.am_hal_sdhc_card_busy    0x0001a32c   Lc    1  Sect  De 
    430  i.am_hal_sdhc_deinitialize 0x0001a384   Lc    1  Sect  De 
    431  i.am_hal_sdhc_disable      0x0001a3b0   Lc    1  Sect  De 
    432  i.am_hal_sdhc_enable       0x0001a434   Lc    1  Sect  De 
    433  i.am_hal_sdhc_execute_cmd  0x0001a524   Lc    1  Sect  De 
    434  i.am_hal_sdhc_get_cd       0x0001aa6c   Lc    1  Sect  De 
    435  i.am_hal_sdhc_initialize   0x0001ab3c   Lc    1  Sect  De 
    436  i.am_hal_sdhc_interrupt_service
                                    0x0001ab7c   Lc    1  Sect  De 
    437  i.am_hal_sdhc_intr_status_clear
                                    0x0001acb8   Lc    1  Sect  De 
    438  i.am_hal_sdhc_intr_status_get
                                    0x0001acf4   Lc    1  Sect  De 
    439  i.am_hal_sdhc_pio_xfer_data
                                    0x0001ad40   Lc    1  Sect  De 
    440  am_hal_sdhc_pio_xfer_data  0x0001ad41   Lc    1  Code  De   0xd0
    441  i.am_hal_sdhc_power_control
                                    0x0001ae10   Lc    1  Sect  De 
    442  i.am_hal_sdhc_set_bus_clock
                                    0x0001af2c   Lc    1  Sect  De 
    443  i.am_hal_sdhc_set_bus_voltage
                                    0x0001afdc   Lc    1  Sect  De 
    444  i.am_hal_sdhc_set_bus_width
                                    0x0001b070   Lc    1  Sect  De 
    445  i.am_hal_sdhc_set_txrx_delay
                                    0x0001b0f4   Lc    1  Sect  De 
    446  i.am_hal_sdhc_set_uhs_mode 0x0001b130   Lc    1  Sect  De 
    447  i.am_hal_sdhc_setup_host   0x0001b180   Lc    1  Sect  De 
    448  .bss                       0x10001038   Lc    3  Sect  De   0xd4
    449  g_SDHCState                0x10001038   Lc    3  Data  De   0x54
    450  adma_desc_table            0x1000108c   Lc    3  Data  De   0x80
    451  ..\..\..\..\..\mcu\apollo4p\hal\mcu\am_hal_utils.c
                                    0x00000000   Lc  Abs  File  De 
    452  ../../../../../mcu/apollo4p/hal/mcu/am_hal_utils.c
                                    0x00000000   Lc  Abs  File  De 
    453  i.am_hal_delay_us          0x00019910   Lc    1  Sect  De 
    454  i.am_hal_delay_us_status_change
                                    0x0001993c   Lc    1  Sect  De 
    455  i.am_hal_delay_us_status_check
                                    0x00019994   Lc    1  Sect  De 
    456  ..\am_bsp.c                0x00000000   Lc  Abs  File  De 
    457  ../am_bsp.c                0x00000000   Lc  Abs  File  De 
    458  i.am_bsp_itm_printf_enable 0x000184a0   Lc    1  Sect  De 
    459  i.am_bsp_low_power_init    0x00018518   Lc    1  Sect  De 
    460  i.am_bsp_sdio_pins_enable  0x00018530   Lc    1  Sect  De 
    461  .data                      0x100001c8   Lc    2  Sect  De   0x8
    462  g_ePrintInterface          0x100001c8   Lc    2  Data  De   0x1
    463  g_sCOMUART                 0x100001cc   Lc    2  Data  De   0x4
    464  ..\..\..\..\..\mcu\apollo4p\hal\mcu\am_hal_bootrom_helper.c
                                    0x00000000   Lc  Abs  File  De 
    465  ../../../../../mcu/apollo4p/hal/mcu/am_hal_bootrom_helper.c
                                    0x00000000   Lc  Abs  File  De 
    466  .constdata                 0x0001f1fc   Lc    1  Sect  De   0x28
    467  ..\..\..\..\..\mcu\apollo4p\hal\mcu\am_hal_cachectrl.c
                                    0x00000000   Lc  Abs  File  De 
    468  ../../../../../mcu/apollo4p/hal/mcu/am_hal_cachectrl.c
                                    0x00000000   Lc  Abs  File  De 
    469  i.am_hal_daxi_config       0x00019684   Lc    1  Sect  De 
    470  i.am_hal_daxi_control      0x0001971c   Lc    1  Sect  De 
    471  .constdata                 0x0001f224   Lc    1  Sect  De   0x5
    472  .data                      0x100001d0   Lc    2  Sect  De   0x5
    473  i.__ARM_common_memcpy4_5   0x00018496   Lc    1  Sect  De 
    474  ..\..\..\..\..\mcu\apollo4p\hal\mcu\am_hal_itm.c
                                    0x00000000   Lc  Abs  File  De 
    475  ../../../../../mcu/apollo4p/hal/mcu/am_hal_itm.c
                                    0x00000000   Lc  Abs  File  De 
    476  i.am_hal_itm_enable        0x00019b40   Lc    1  Sect  De 
    477  i.am_hal_itm_print         0x00019b88   Lc    1  Sect  De 
    478  ..\..\..\..\..\mcu\apollo4p\hal\mcu\am_hal_rtc.c
                                    0x00000000   Lc  Abs  File  De 
    479  ../../../../../mcu/apollo4p/hal/mcu/am_hal_rtc.c
                                    0x00000000   Lc  Abs  File  De 
    480  i.am_hal_rtc_osc_disable   0x0001a318   Lc    1  Sect  De 
    481  ..\..\..\..\..\mcu\apollo4p\hal\mcu\am_hal_tpiu.c
                                    0x00000000   Lc  Abs  File  De 
    482  ../../../../../mcu/apollo4p/hal/mcu/am_hal_tpiu.c
                                    0x00000000   Lc  Abs  File  De 
    483  i.am_hal_tpiu_enable       0x0001b20c   Lc    1  Sect  De 
    484  ..\..\..\..\..\mcu\apollo4p\hal\mcu\am_hal_uart.c
                                    0x00000000   Lc  Abs  File  De 
    485  ../../../../../mcu/apollo4p/hal/mcu/am_hal_uart.c
                                    0x00000000   Lc  Abs  File  De 
    486  ..\..\..\..\..\mcu\apollo4p\hal\am_hal_dcu.c
                                    0x00000000   Lc  Abs  File  De 
    487  ../../../../../mcu/apollo4p/hal/am_hal_dcu.c
                                    0x00000000   Lc  Abs  File  De 
    488  i.am_hal_dcu_get           0x0001979c   Lc    1  Sect  De 
    489  i.am_hal_dcu_update        0x0001982c   Lc    1  Sect  De 
    490  i.copy_words               0x0001b9e8   Lc    1  Sect  De 
    491  copy_words                 0x0001b9e9   Lc    1  Code  De   0x28
    492  .data                      0x100001d8   Lc    2  Sect  De   0x20
    493  ..\..\..\..\..\mcu\apollo4p\hal\am_hal_gpio.c
                                    0x00000000   Lc  Abs  File  De 
    494  ../../../../../mcu/apollo4p/hal/am_hal_gpio.c
                                    0x00000000   Lc  Abs  File  De 
    495  i.am_hal_gpio_pinconfig    0x00019a78   Lc    1  Sect  De 
    496  i.am_hal_gpio_state_write  0x00019acc   Lc    1  Sect  De 
    497  .constdata                 0x0001f22c   Lc    1  Sect  De   0x10
    498  g_ui32DSpintbl             0x0001f22c   Lc    1  Data  De   0x10
    499  ..\..\..\..\..\mcu\apollo4p\hal\am_hal_pwrctrl.c
                                    0x00000000   Lc  Abs  File  De 
    500  ../../../../../mcu/apollo4p/hal/am_hal_pwrctrl.c
                                    0x00000000   Lc  Abs  File  De 
    501  i.am_hal_pwrctrl_control   0x00019c28   Lc    1  Sect  De 
    502  i.am_hal_pwrctrl_low_power_init
                                    0x00019e50   Lc    1  Sect  De 
    503  i.am_hal_pwrctrl_mcu_memory_config
                                    0x00019f74   Lc    1  Sect  De 
    504  i.am_hal_pwrctrl_periph_disable
                                    0x0001a090   Lc    1  Sect  De 
    505  i.am_hal_pwrctrl_periph_enable
                                    0x0001a1bc   Lc    1  Sect  De 
    506  i.am_hal_pwrctrl_sram_config
                                    0x0001a270   Lc    1  Sect  De 
    507  i.crypto_boost_trims       0x0001bf4c   Lc    1  Sect  De 
    508  .constdata                 0x0001f23c   Lc    1  Sect  De   0x292
    509  g_VDDF_trimstbl            0x0001f468   Lc    1  Data  De   0x1e
    510  g_VDDFLP_trimstbl          0x0001f486   Lc    1  Data  De   0x1e
    511  g_memlpldo_trimstbl        0x0001f4a4   Lc    1  Data  De   0x2a
    512  .data                      0x100001f8   Lc    2  Sect  De   0x3c
    513  g_bOrigTrimsStored         0x100001f9   Lc    2  Data  De   0x1
    514  g_bBoostForCryptoApplied   0x100001fa   Lc    2  Data  De   0x1
    515  g_bTempcoValid             0x100001fb   Lc    2  Data  De   0x1
    516  g_ui16TempcoTEMP_code      0x100001fc   Lc    2  Data  De   0x2
    517  g_orig_ACTTRIMVDDF         0x10000208   Lc    2  Data  De   0x4
    518  g_orig_MEMLDOACTIVETRIM    0x1000020c   Lc    2  Data  De   0x4
    519  g_orig_LPTRIMVDDF          0x10000210   Lc    2  Data  De   0x4
    520  g_orig_MEMLPLDOTRIM        0x10000214   Lc    2  Data  De   0x4
    521  g_orig_TVRGVREFTRIM        0x10000218   Lc    2  Data  De   0x4
    522  g_ui32VDDFAdjustCodes      0x1000021c   Lc    2  Data  De   0x4
    523  g_i32LatestVddfActTrim     0x10000220   Lc    2  Data  De   0x4
    524  g_i32LatestLDOActTrim      0x10000224   Lc    2  Data  De   0x4
    525  g_TempcoADCHandle          0x10000228   Lc    2  Data  De   0x4
    526  g_ui32TempcoADCslot        0x1000022c   Lc    2  Data  De   0x4
    527  g_pfTempMeasured           0x10000230   Lc    2  Data  De   0x4
    528  ..\am_bsp_pins.c           0x00000000   Lc  Abs  File  De 
    529  ../am_bsp_pins.c           0x00000000   Lc  Abs  File  De 
    530  .data                      0x10000234   Lc    2  Sect  De   0x4
    531  .data                      0x10000238   Lc    2  Sect  De   0x4
    532  .data                      0x1000023c   Lc    2  Sect  De   0x4
    533  .data                      0x10000240   Lc    2  Sect  De   0x4
    534  .data                      0x10000244   Lc    2  Sect  De   0x4
    535  .data                      0x10000248   Lc    2  Sect  De   0x4
    536  .data                      0x1000024c   Lc    2  Sect  De   0x4
    537  .data                      0x10000250   Lc    2  Sect  De   0x4
    538  .data                      0x10000254   Lc    2  Sect  De   0x4
    539  .data                      0x10000258   Lc    2  Sect  De   0x4
    540  .data                      0x1000025c   Lc    2  Sect  De   0x4
    541  ..\..\..\..\..\mcu\apollo4p\hal\mcu\am_hal_mram.c
                                    0x00000000   Lc  Abs  File  De 
    542  ../../../../../mcu/apollo4p/hal/mcu/am_hal_mram.c
                                    0x00000000   Lc  Abs  File  De 
    543  i.am_hal_mram_info_read    0x00019bb8   Lc    1  Sect  De 
    544  ..\..\..\..\..\mcu\apollo4p\hal\am_hal_adc.c
                                    0x00000000   Lc  Abs  File  De 
    545  ../../../../../mcu/apollo4p/hal/am_hal_adc.c
                                    0x00000000   Lc  Abs  File  De 
    546  ..\..\..\..\..\mcu\apollo4p\hal\am_hal_pin.c
                                    0x00000000   Lc  Abs  File  De 
    547  ../../../../../mcu/apollo4p/hal/am_hal_pin.c
                                    0x00000000   Lc  Abs  File  De 
    548  ..\..\..\..\..\mcu\apollo4p\hal\am_hal_queue.c
                                    0x00000000   Lc  Abs  File  De 
    549  ../../../../../mcu/apollo4p/hal/am_hal_queue.c
                                    0x00000000   Lc  Abs  File  De 
    550  dc.s                       0x00000000   Lc  Abs  File  De 
    551  ../clib/longlong.s         0x00000000   Lc  Abs  File  De 
    552  .text                      0x00018384   Lc    1  Sect  De   0x26
    553  ../clib/longlong.s         0x00000000   Lc  Abs  File  De 
    554  .text                      0x000183aa   Lc    1  Sect  De   0x26
    555  ../clib/memcpset.s         0x00000000   Lc  Abs  File  De 
    556  ../clib/memcpset.s         0x00000000   Lc  Abs  File  De 
    557  .text                      0x000183d0   Lc    1  Sect  De   0x4e
    558  ../clib/heapaux.c          0x00000000   Lc  Abs  File  De 
    559  .text                      0x0001841e   Lc    1  Sect  De 
    560  ../clib/angel/startup.s    0x00000000   Lc  Abs  File  De 
    561  !!!main                    0x00018234   Lc    1  Sect  De   0x8
    562  ../clib/angel/handlers.s   0x00000000   Lc  Abs  File  De 
    563  !!handler_copy             0x000182cc   Lc    1  Sect  De   0x1a
    564  ../fplib/d2f.s             0x00000000   Lc  Abs  File  De 
    565  x$fpl$d2f                  0x0001ebf8   Lc    1  Sect  De   0x62
    566  $v0                        0x0001ebf8   Lc    1   --   De 
    567  ../clib/angel/kernel.s     0x00000000   Lc  Abs  File  De 
    568  .ARM.Collect$$rtentry$$00000000
                                    0x00018310   Lc    1  Sect  De 
    569  ../fplib/dnaninf.s         0x00000000   Lc  Abs  File  De 
    570  x$fpl$dnaninf              0x0001ec5a   Lc    1  Sect  De   0x9c
    571  $v0                        0x0001ec5a   Lc    1   --   De 
    572  ../fplib/fretinf.s         0x00000000   Lc  Abs  File  De 
    573  x$fpl$fretinf              0x0001ed00   Lc    1  Sect  De   0xa
    574  $v0                        0x0001ed00   Lc    1   --   De 
    575  ../fplib/usenofp.s         0x00000000   Lc  Abs  File  De 
    576  x$fpl$usenofp              0x0001ed0a   Lc    1  Sect  De 
    577  ../clib/angel/kernel.s     0x00000000   Lc  Abs  File  De 
    578  .ARM.Collect$$rtentry$$00000002
                                    0x00018310   Lc    1  Sect  De 
    579  .ARM.Collect$$rtentry$$00000009
                                    0x00018316   Lc    1  Sect  De 
    580  .ARM.Collect$$rtentry$$0000000A
                                    0x00018316   Lc    1  Sect  De   0x4
    581  .ARM.Collect$$rtentry$$0000000C
                                    0x0001831a   Lc    1  Sect  De 
    582  .ARM.Collect$$rtentry$$0000000D
                                    0x0001831a   Lc    1  Sect  De   0x8
    583  ../clib/angel/kernel.s     0x00000000   Lc  Abs  File  De 
    584  .ARM.Collect$$rtentry$$00000004
                                    0x00018310   Lc    1  Sect  De   0x6
    585  ../clib/angel/sys.s        0x00000000   Lc  Abs  File  De 
    586  .text                      0x00018424   Lc    1  Sect  De   0x4a
    587  ../clib/stdlib.c           0x00000000   Lc  Abs  File  De 
    588  .text                      0x0001846e   Lc    1  Sect  De 
    589  ../clib/angel/boardlib.s   0x00000000   Lc  Abs  File  De 
    590  ../clib/angel/boardlib.s   0x00000000   Lc  Abs  File  De 
    591  ../clib/angel/boardlib.s   0x00000000   Lc  Abs  File  De 
    592  ../clib/libinit.s          0x00000000   Lc  Abs  File  De 
    593  .ARM.Collect$$libinit$$00000000
                                    0x00018304   Lc    1  Sect  De   0x2
    594  ../clib/angel/sys.s        0x00000000   Lc  Abs  File  De 
    595  .text                      0x00018480   Lc    1  Sect  De   0x8
    596  .bss                       0x1000110c   Lc    3  Sect  De   0x60
    597  ../clib/angel/kernel.s     0x00000000   Lc  Abs  File  De 
    598  .ARM.Collect$$rtexit$$00000000
                                    0x00018322   Lc    1  Sect  De   0x2
    599  ../clib/libinit.s          0x00000000   Lc  Abs  File  De 
    600  .ARM.Collect$$libinit$$00000001
                                    0x00018306   Lc    1  Sect  De   0x4
    601  .ARM.Collect$$libinit$$00000004
                                    0x0001830a   Lc    1  Sect  De 
    602  .ARM.Collect$$libinit$$0000000A
                                    0x0001830a   Lc    1  Sect  De 
    603  .ARM.Collect$$libinit$$0000000C
                                    0x0001830a   Lc    1  Sect  De 
    604  .ARM.Collect$$libinit$$0000000E
                                    0x0001830a   Lc    1  Sect  De 
    605  .ARM.Collect$$libinit$$00000011
                                    0x0001830a   Lc    1  Sect  De 
    606  .ARM.Collect$$libinit$$00000013
                                    0x0001830a   Lc    1  Sect  De 
    607  .ARM.Collect$$libinit$$00000015
                                    0x0001830a   Lc    1  Sect  De 
    608  .ARM.Collect$$libinit$$00000017
                                    0x0001830a   Lc    1  Sect  De 
    609  .ARM.Collect$$libinit$$00000019
                                    0x0001830a   Lc    1  Sect  De 
    610  .ARM.Collect$$libinit$$0000001B
                                    0x0001830a   Lc    1  Sect  De 
    611  .ARM.Collect$$libinit$$0000001D
                                    0x0001830a   Lc    1  Sect  De 
    612  .ARM.Collect$$libinit$$0000001F
                                    0x0001830a   Lc    1  Sect  De 
    613  .ARM.Collect$$libinit$$00000021
                                    0x0001830a   Lc    1  Sect  De 
    614  .ARM.Collect$$libinit$$00000023
                                    0x0001830a   Lc    1  Sect  De 
    615  .ARM.Collect$$libinit$$00000025
                                    0x0001830a   Lc    1  Sect  De 
    616  .ARM.Collect$$libinit$$0000002C
                                    0x0001830a   Lc    1  Sect  De 
    617  .ARM.Collect$$libinit$$0000002E
                                    0x0001830a   Lc    1  Sect  De 
    618  .ARM.Collect$$libinit$$00000030
                                    0x0001830a   Lc    1  Sect  De 
    619  .ARM.Collect$$libinit$$00000032
                                    0x0001830a   Lc    1  Sect  De 
    620  .ARM.Collect$$libinit$$00000033
                                    0x0001830a   Lc    1  Sect  De   0x2
    621  ../clib/angel/kernel.s     0x00000000   Lc  Abs  File  De 
    622  .ARM.Collect$$rtexit$$00000002
                                    0x00018324   Lc    1  Sect  De 
    623  .ARM.Collect$$rtexit$$00000003
                                    0x00018324   Lc    1  Sect  De   0x4
    624  .ARM.Collect$$rtexit$$00000004
                                    0x00018328   Lc    1  Sect  De   0x6
    625  ../clib/armsys.c           0x00000000   Lc  Abs  File  De 
    626  ../clib/armsys.c           0x00000000   Lc  Abs  File  De 
    627  ../fplib/fpinit.s          0x00000000   Lc  Abs  File  De 
    628  x$fpl$fpinit               0x0001ecf6   Lc    1  Sect  De   0xa
    629  $v0                        0x0001ecf6   Lc    1   --   De 
    630  ../clib/angel/sysapp.c     0x00000000   Lc  Abs  File  De 
    631  .text                      0x00018488   Lc    1  Sect  De 
    632  ../clib/angel/boardlib.s   0x00000000   Lc  Abs  File  De 
    633  ../clib/armsys.c           0x00000000   Lc  Abs  File  De 
    634  ../clib/armsys.c           0x00000000   Lc  Abs  File  De 
    635  ../clib/libinit.s          0x00000000   Lc  Abs  File  De 
    636  .ARM.Collect$$libshutdown$$00000000
                                    0x0001830c   Lc    1  Sect  De   0x2
    637  ../clib/angel/sysapp.c     0x00000000   Lc  Abs  File  De 
    638  ../clib/angel/sys.s        0x00000000   Lc  Abs  File  De 
    639  .text                      0x00018494   Lc    1  Sect  De   0x2
    640  ../clib/angel/sys.s        0x00000000   Lc  Abs  File  De 
    641  .text                      0x00018496   Lc    1  Sect  De 
    642  ../clib/heapalloc.c        0x00000000   Lc  Abs  File  De 
    643  ../clib/signal.c           0x00000000   Lc  Abs  File  De 
    644  ../clib/signal.c           0x00000000   Lc  Abs  File  De 
    645  ../clib/libinit.s          0x00000000   Lc  Abs  File  De 
    646  .ARM.Collect$$libshutdown$$00000002
                                    0x0001830e   Lc    1  Sect  De 
    647  .ARM.Collect$$libshutdown$$00000004
                                    0x0001830e   Lc    1  Sect  De 
    648  .ARM.Collect$$libshutdown$$00000007
                                    0x0001830e   Lc    1  Sect  De 
    649  .ARM.Collect$$libshutdown$$0000000A
                                    0x0001830e   Lc    1  Sect  De 
    650  .ARM.Collect$$libshutdown$$0000000C
                                    0x0001830e   Lc    1  Sect  De 
    651  .ARM.Collect$$libshutdown$$0000000F
                                    0x0001830e   Lc    1  Sect  De 
    652  .ARM.Collect$$libshutdown$$00000010
                                    0x0001830e   Lc    1  Sect  De   0x2
    653  ../clib/angel/rt.s         0x00000000   Lc  Abs  File  De 
    654  ../clib/signal.c           0x00000000   Lc  Abs  File  De 
    655  ../clib/signal.c           0x00000000   Lc  Abs  File  De 
    656  ../clib/signal.c           0x00000000   Lc  Abs  File  De 
    657  ../clib/signal.c           0x00000000   Lc  Abs  File  De 
    658  ../clib/angel/sysapp.c     0x00000000   Lc  Abs  File  De 
    659  ../clib/signal.s           0x00000000   Lc  Abs  File  De 
    660  ../clib/signal.c           0x00000000   Lc  Abs  File  De 
    661  ../clib/signal.c           0x00000000   Lc  Abs  File  De 
    662  ../clib/signal.c           0x00000000   Lc  Abs  File  De 
    663  ../clib/signal.c           0x00000000   Lc  Abs  File  De 
    664  ../clib/signal.c           0x00000000   Lc  Abs  File  De 
    665  ../clib/signal.c           0x00000000   Lc  Abs  File  De 
    666  ../clib/signal.c           0x00000000   Lc  Abs  File  De 
    667  ../clib/signal.c           0x00000000   Lc  Abs  File  De 
    668  ../clib/angel/dczerorl2.s  0x00000000   Lc  Abs  File  De 
    669  !!dczerorl2                0x00018270   Lc    1  Sect  De   0x5a
    670  ../clib/angel/scatter.s    0x00000000   Lc  Abs  File  De 
    671  !!!scatter                 0x0001823c   Lc    1  Sect  De   0x34
    672  ../clib/angel/handlers.s   0x00000000   Lc  Abs  File  De 
    673  !!handler_zi               0x000182e8   Lc    1  Sect  De   0x1c
    674  BuildAttributes$$THM_ISAv4$E$P$D$K$B$S$7EM$VFPi3$EXTD16$VFPS$VFMA$PE$A:L22UL41UL21$X:L11$S22US41US21$IEEE1$IW$USESV6$~STKCKD$USESV7$~SHL$OTIME$ROPI$EBA8$UX$STANDARDLIB$REQ8$PRES8$EABIv2
                                    0x00000000   Gb  Abs   --   Hi 
    675  __ARM_use_no_argv          0x00000000   Gb  Abs   --   Hi 
    676  __Vectors                  0x00018000   Gb    1  Data  Hi 
    677  __Patchable                0x00018190   Gb    1  Data  Hi 
    678  Reset_Handler              0x00018201   Wk    1  Code  Hi   0x1c
    679  NMI_Handler                0x0001821f   Wk    1  Code  Hi   0x2
    680  MemManage_Handler          0x00018221   Wk    1  Code  Hi   0x2
    681  BusFault_Handler           0x00018223   Wk    1  Code  Hi   0x2
    682  UsageFault_Handler         0x00018225   Wk    1  Code  Hi   0x2
    683  SVC_Handler                0x00018227   Wk    1  Code  Hi   0x2
    684  DebugMon_Handler           0x00018229   Wk    1  Code  Hi   0x2
    685  PendSV_Handler             0x0001822b   Wk    1  Code  Hi   0x2
    686  SysTick_Handler            0x0001822d   Wk    1  Code  Hi   0x2
    687  am_adc_isr                 0x0001822f   Wk    1  Code  Hi 
    688  am_audadc0_isr             0x0001822f   Wk    1  Code  Hi 
    689  am_brownout_isr            0x0001822f   Wk    1  Code  Hi 
    690  am_cachecpu_isr            0x0001822f   Wk    1  Code  Hi 
    691  am_clkgen_isr              0x0001822f   Wk    1  Code  Hi 
    692  am_ctimer_isr              0x0001822f   Wk    1  Code  Hi 
    693  am_disp_isr                0x0001822f   Wk    1  Code  Hi 
    694  am_dsi_isr                 0x0001822f   Wk    1  Code  Hi 
    695  am_dspi2s0_isr             0x0001822f   Wk    1  Code  Hi 
    696  am_dspi2s1_isr             0x0001822f   Wk    1  Code  Hi 
    697  am_dspi2s2_isr             0x0001822f   Wk    1  Code  Hi 
    698  am_dspi2s3_isr             0x0001822f   Wk    1  Code  Hi 
    699  am_gpio0_001f_isr          0x0001822f   Wk    1  Code  Hi 
    700  am_gpio0_203f_isr          0x0001822f   Wk    1  Code  Hi 
    701  am_gpio0_405f_isr          0x0001822f   Wk    1  Code  Hi 
    702  am_gpio0_607f_isr          0x0001822f   Wk    1  Code  Hi 
    703  am_gpio1_001f_isr          0x0001822f   Wk    1  Code  Hi 
    704  am_gpio1_203f_isr          0x0001822f   Wk    1  Code  Hi 
    705  am_gpio1_405f_isr          0x0001822f   Wk    1  Code  Hi 
    706  am_gpio1_607f_isr          0x0001822f   Wk    1  Code  Hi 
    707  am_gpu_isr                 0x0001822f   Wk    1  Code  Hi 
    708  am_iomaster0_isr           0x0001822f   Wk    1  Code  Hi 
    709  am_iomaster1_isr           0x0001822f   Wk    1  Code  Hi 
    710  am_iomaster2_isr           0x0001822f   Wk    1  Code  Hi 
    711  am_iomaster3_isr           0x0001822f   Wk    1  Code  Hi 
    712  am_iomaster4_isr           0x0001822f   Wk    1  Code  Hi 
    713  am_iomaster5_isr           0x0001822f   Wk    1  Code  Hi 
    714  am_iomaster6_isr           0x0001822f   Wk    1  Code  Hi 
    715  am_iomaster7_isr           0x0001822f   Wk    1  Code  Hi 
    716  am_ioslave_acc_isr         0x0001822f   Wk    1  Code  Hi 
    717  am_ioslave_ios_isr         0x0001822f   Wk    1  Code  Hi 
    718  am_mspi0_isr               0x0001822f   Wk    1  Code  Hi 
    719  am_mspi1_isr               0x0001822f   Wk    1  Code  Hi 
    720  am_mspi2_isr               0x0001822f   Wk    1  Code  Hi 
    721  am_pdm0_isr                0x0001822f   Wk    1  Code  Hi 
    722  am_pdm1_isr                0x0001822f   Wk    1  Code  Hi 
    723  am_pdm2_isr                0x0001822f   Wk    1  Code  Hi 
    724  am_pdm3_isr                0x0001822f   Wk    1  Code  Hi 
    725  am_rtc_isr                 0x0001822f   Wk    1  Code  Hi 
    726  am_stimer_cmpr0_isr        0x0001822f   Wk    1  Code  Hi 
    727  am_stimer_cmpr1_isr        0x0001822f   Wk    1  Code  Hi 
    728  am_stimer_cmpr2_isr        0x0001822f   Wk    1  Code  Hi 
    729  am_stimer_cmpr3_isr        0x0001822f   Wk    1  Code  Hi 
    730  am_stimer_cmpr4_isr        0x0001822f   Wk    1  Code  Hi 
    731  am_stimer_cmpr5_isr        0x0001822f   Wk    1  Code  Hi 
    732  am_stimer_cmpr6_isr        0x0001822f   Wk    1  Code  Hi 
    733  am_stimer_cmpr7_isr        0x0001822f   Wk    1  Code  Hi 
    734  am_stimerof_isr            0x0001822f   Wk    1  Code  Hi 
    735  am_timer00_isr             0x0001822f   Wk    1  Code  Hi 
    736  am_timer01_isr             0x0001822f   Wk    1  Code  Hi 
    737  am_timer02_isr             0x0001822f   Wk    1  Code  Hi 
    738  am_timer03_isr             0x0001822f   Wk    1  Code  Hi 
    739  am_timer04_isr             0x0001822f   Wk    1  Code  Hi 
    740  am_timer05_isr             0x0001822f   Wk    1  Code  Hi 
    741  am_timer06_isr             0x0001822f   Wk    1  Code  Hi 
    742  am_timer07_isr             0x0001822f   Wk    1  Code  Hi 
    743  am_timer08_isr             0x0001822f   Wk    1  Code  Hi 
    744  am_timer09_isr             0x0001822f   Wk    1  Code  Hi 
    745  am_timer10_isr             0x0001822f   Wk    1  Code  Hi 
    746  am_timer11_isr             0x0001822f   Wk    1  Code  Hi 
    747  am_timer12_isr             0x0001822f   Wk    1  Code  Hi 
    748  am_timer13_isr             0x0001822f   Wk    1  Code  Hi 
    749  am_timer14_isr             0x0001822f   Wk    1  Code  Hi 
    750  am_timer15_isr             0x0001822f   Wk    1  Code  Hi 
    751  am_uart1_isr               0x0001822f   Wk    1  Code  Hi 
    752  am_uart2_isr               0x0001822f   Wk    1  Code  Hi 
    753  am_uart3_isr               0x0001822f   Wk    1  Code  Hi 
    754  am_uart_isr                0x0001822f   Wk    1  Code  Hi 
    755  am_usb_isr                 0x0001822f   Wk    1  Code  Hi 
    756  am_vcomp_isr               0x0001822f   Wk    1  Code  Hi 
    757  am_watchdog_isr            0x0001822f   Wk    1  Code  Hi 
    758  __main                     0x00018235   Gb    1  Code  Hi   0x8
    759  __scatterload              0x0001823d   Gb    1  Code  Hi 
    760  __scatterload_rt2          0x0001823d   Gb    1  Code  Hi   0x2c
    761  __scatterload_rt2_thumb_only
                                    0x0001823d   Gb    1  Code  Hi 
    762  __scatterload_null         0x0001824b   Gb    1  Code  Hi 
    763  __decompress               0x00018271   Gb    1  Code  Hi   0x5a
    764  __decompress1              0x00018271   Gb    1  Code  Hi 
    765  __scatterload_copy         0x000182cd   Gb    1  Code  Hi   0x1a
    766  __scatterload_zeroinit     0x000182e9   Gb    1  Code  Hi   0x1c
    767  __rt_lib_init              0x00018305   Gb    1  Code  De 
    768  __rt_lib_init_fp_1         0x00018307   Gb    1  Code  Hi 
    769  __rt_lib_init_alloca_1     0x0001830b   Gb    1  Code  Hi 
    770  __rt_lib_init_argv_1       0x0001830b   Gb    1  Code  Hi 
    771  __rt_lib_init_atexit_1     0x0001830b   Gb    1  Code  Hi 
    772  __rt_lib_init_clock_1      0x0001830b   Gb    1  Code  Hi 
    773  __rt_lib_init_cpp_1        0x0001830b   Gb    1  Code  Hi 
    774  __rt_lib_init_exceptions_1 0x0001830b   Gb    1  Code  Hi 
    775  __rt_lib_init_fp_trap_1    0x0001830b   Gb    1  Code  Hi 
    776  __rt_lib_init_getenv_1     0x0001830b   Gb    1  Code  Hi 
    777  __rt_lib_init_heap_1       0x0001830b   Gb    1  Code  Hi 
    778  __rt_lib_init_lc_collate_1 0x0001830b   Gb    1  Code  Hi 
    779  __rt_lib_init_lc_ctype_1   0x0001830b   Gb    1  Code  Hi 
    780  __rt_lib_init_lc_monetary_1
                                    0x0001830b   Gb    1  Code  Hi 
    781  __rt_lib_init_lc_numeric_1 0x0001830b   Gb    1  Code  Hi 
    782  __rt_lib_init_lc_time_1    0x0001830b   Gb    1  Code  Hi 
    783  __rt_lib_init_preinit_1    0x0001830b   Gb    1  Code  Hi 
    784  __rt_lib_init_rand_1       0x0001830b   Gb    1  Code  Hi 
    785  __rt_lib_init_return       0x0001830b   Gb    1  Code  Hi 
    786  __rt_lib_init_signal_1     0x0001830b   Gb    1  Code  Hi 
    787  __rt_lib_init_stdio_1      0x0001830b   Gb    1  Code  Hi 
    788  __rt_lib_init_user_alloc_1 0x0001830b   Gb    1  Code  Hi 
    789  __rt_lib_shutdown          0x0001830d   Gb    1  Code  De 
    790  __rt_lib_shutdown_cpp_1    0x0001830f   Gb    1  Code  Hi 
    791  __rt_lib_shutdown_fp_trap_1
                                    0x0001830f   Gb    1  Code  Hi 
    792  __rt_lib_shutdown_heap_1   0x0001830f   Gb    1  Code  Hi 
    793  __rt_lib_shutdown_return   0x0001830f   Gb    1  Code  Hi 
    794  __rt_lib_shutdown_signal_1 0x0001830f   Gb    1  Code  Hi 
    795  __rt_lib_shutdown_stdio_1  0x0001830f   Gb    1  Code  Hi 
    796  __rt_lib_shutdown_user_alloc_1
                                    0x0001830f   Gb    1  Code  Hi 
    797  __rt_entry                 0x00018311   Gb    1  Code  Hi 
    798  __rt_entry_presh_1         0x00018311   Gb    1  Code  Hi 
    799  __rt_entry_sh              0x00018311   Gb    1  Code  Hi 
    800  __rt_entry_li              0x00018317   Gb    1  Code  Hi 
    801  __rt_entry_postsh_1        0x00018317   Gb    1  Code  Hi 
    802  __rt_entry_main            0x0001831b   Gb    1  Code  Hi 
    803  __rt_entry_postli_1        0x0001831b   Gb    1  Code  Hi 
    804  __rt_exit                  0x00018323   Gb    1  Code  De 
    805  __rt_exit_ls               0x00018325   Gb    1  Code  Hi 
    806  __rt_exit_prels_1          0x00018325   Gb    1  Code  Hi 
    807  __rt_exit_exit             0x00018329   Gb    1  Code  Hi 
    808  HardFault_Handler          0x00018331   Gb    1  Code  Hi   0x1a
    809  getStackedReg              0x0001834b   Gb    1  Code  Hi   0x8
    810  am_hal_interrupt_master_enable
                                    0x00018355   Gb    1  Code  Hi   0x8
    811  am_hal_interrupt_master_disable
                                    0x0001835d   Gb    1  Code  Hi   0x8
    812  am_hal_interrupt_master_set
                                    0x00018365   Gb    1  Code  Hi   0x6
    813  __user_initial_stackheap   0x0001836d   Gb    1  Code  Hi   0xa
    814  __aeabi_llsl               0x00018385   Gb    1  Code  Hi 
    815  _ll_shift_l                0x00018385   Gb    1  Code  De   0x26
    816  __aeabi_llsr               0x000183ab   Gb    1  Code  Hi 
    817  _ll_ushift_r               0x000183ab   Gb    1  Code  De   0x26
    818  __aeabi_memclr4            0x000183d1   Gb    1  Code  Hi 
    819  __aeabi_memclr8            0x000183d1   Gb    1  Code  De 
    820  __rt_memclr_w              0x000183d1   Gb    1  Code  De   0x4e
    821  _memset_w                  0x000183d5   Gb    1  Code  De 
    822  __use_two_region_memory    0x0001841f   Gb    1  Code  Hi   0x2
    823  __rt_heap_escrow$2region   0x00018421   Gb    1  Code  De   0x2
    824  __rt_heap_expand$2region   0x00018423   Gb    1  Code  De   0x2
    825  __user_setup_stackheap     0x00018425   Gb    1  Code  De   0x4a
    826  exit                       0x0001846f   Gb    1  Code  De   0x12
    827  __user_libspace            0x00018481   Wk    1  Code  De   0x8
    828  __user_perproc_libspace    0x00018481   Wk    1  Code  De 
    829  __user_perthread_libspace  0x00018481   Wk    1  Code  De 
    830  _sys_exit                  0x00018489   Gb    1  Code  De   0x8
    831  __I$use$semihosting        0x00018495   Gb    1  Code  Hi 
    832  __use_no_semihosting_swi   0x00018495   Gb    1  Code  Hi   0x2
    833  __ARM_common_memcpy4_5     0x00018497   Gb    1  Code  Hi   0xa
    834  __semihosting_library_function
                                    0x00018497   Gb    1  Code  Hi 
    835  am_bsp_itm_printf_enable   0x000184a1   Gb    1  Code  Hi   0x60
    836  am_bsp_low_power_init      0x00018519   Gb    1  Code  Hi   0x16
    837  am_bsp_sdio_pins_enable    0x00018531   Gb    1  Code  Hi   0x96
    838  am_hal_card_block_read_async
                                    0x000185f1   Gb    1  Code  Hi   0x18
    839  am_hal_card_block_write_async
                                    0x000186fd   Gb    1  Code  Hi   0x16
    840  am_hal_card_cfg_set        0x00018715   Gb    1  Code  Hi   0x226
    841  am_hal_card_event_test_cb  0x0001895d   Gb    1  Code  Hi   0x72
    842  am_hal_card_get_ext_csd_field
                                    0x00018a5d   Gb    1  Code  Hi   0xa4
    843  am_hal_card_host_find_card 0x00018b01   Gb    1  Code  Hi   0x4e
    844  am_hal_card_host_set_xfer_mode
                                    0x00018b59   Gb    1  Code  Hi   0x4
    845  am_hal_card_init           0x00018b5d   Gb    1  Code  Hi   0x40
    846  am_hal_card_mode_switch    0x00018f9d   Gb    1  Code  Hi   0x130
    847  am_hal_card_pwrctrl_sleep  0x000190cd   Gb    1  Code  Hi   0x2d2
    848  am_hal_card_pwrctrl_wakeup 0x000193a9   Gb    1  Code  Hi   0x1c2
    849  am_hal_card_register_evt_callback
                                    0x0001956b   Gb    1  Code  Hi   0x14
    850  am_hal_daxi_config         0x00019685   Gb    1  Code  Hi   0x90
    851  am_hal_daxi_control        0x0001971d   Gb    1  Code  Hi   0x76
    852  am_hal_dcu_get             0x0001979d   Gb    1  Code  Hi   0x84
    853  am_hal_dcu_update          0x0001982d   Gb    1  Code  Hi   0xd6
    854  am_hal_delay_us            0x00019911   Gb    1  Code  Hi   0x22
    855  am_hal_delay_us_status_change
                                    0x0001993d   Gb    1  Code  Hi   0x50
    856  am_hal_delay_us_status_check
                                    0x00019995   Gb    1  Code  Hi   0x5c
    857  am_hal_fault_status_get    0x000199f9   Gb    1  Code  Hi   0x3e
    858  am_hal_get_card_host       0x00019a39   Gb    1  Code  Hi   0x3a
    859  am_hal_gpio_pinconfig      0x00019a79   Gb    1  Code  Hi   0x4c
    860  am_hal_gpio_state_write    0x00019acd   Gb    1  Code  Hi   0x72
    861  am_hal_itm_enable          0x00019b41   Gb    1  Code  Hi   0x2c
    862  am_hal_itm_print           0x00019b89   Gb    1  Code  Hi   0x30
    863  am_hal_mram_info_read      0x00019bb9   Gb    1  Code  Hi   0x6c
    864  am_hal_pwrctrl_control     0x00019c29   Gb    1  Code  Hi   0x214
    865  am_hal_pwrctrl_low_power_init
                                    0x00019e51   Gb    1  Code  Hi   0x106
    866  am_hal_pwrctrl_mcu_memory_config
                                    0x00019f75   Gb    1  Code  Hi   0x114
    867  am_hal_pwrctrl_periph_disable
                                    0x0001a091   Gb    1  Code  Hi   0x112
    868  am_hal_pwrctrl_periph_enable
                                    0x0001a1bd   Gb    1  Code  Hi   0xa6
    869  am_hal_pwrctrl_sram_config 0x0001a271   Gb    1  Code  Hi   0x9e
    870  am_hal_rtc_osc_disable     0x0001a319   Gb    1  Code  Hi   0xe
    871  am_hal_sdhc_card_busy      0x0001a32d   Gb    1  Code  Hi   0x54
    872  am_hal_sdhc_deinitialize   0x0001a385   Gb    1  Code  Hi   0x28
    873  am_hal_sdhc_disable        0x0001a3b1   Gb    1  Code  Hi   0x7c
    874  am_hal_sdhc_enable         0x0001a435   Gb    1  Code  Hi   0xde
    875  am_hal_sdhc_execute_cmd    0x0001a525   Gb    1  Code  Hi   0x548
    876  am_hal_sdhc_get_cd         0x0001aa6d   Gb    1  Code  Hi   0x32
    877  am_hal_sdhc_initialize     0x0001ab3d   Gb    1  Code  Hi   0x36
    878  am_hal_sdhc_interrupt_service
                                    0x0001ab7d   Gb    1  Code  Hi   0x138
    879  am_hal_sdhc_intr_status_clear
                                    0x0001acb9   Gb    1  Code  Hi   0x36
    880  am_hal_sdhc_intr_status_get
                                    0x0001acf5   Gb    1  Code  Hi   0x48
    881  am_hal_sdhc_power_control  0x0001ae11   Gb    1  Code  Hi   0x118
    882  am_hal_sdhc_set_bus_clock  0x0001af2d   Gb    1  Code  Hi   0xaa
    883  am_hal_sdhc_set_bus_voltage
                                    0x0001afdd   Gb    1  Code  Hi   0x8e
    884  am_hal_sdhc_set_bus_width  0x0001b071   Gb    1  Code  Hi   0x7e
    885  am_hal_sdhc_set_txrx_delay 0x0001b0f5   Gb    1  Code  Hi   0x38
    886  am_hal_sdhc_set_uhs_mode   0x0001b131   Gb    1  Code  Hi   0x4a
    887  am_hal_sdhc_setup_host     0x0001b181   Gb    1  Code  Hi   0x84
    888  am_hal_tpiu_enable         0x0001b20d   Gb    1  Code  Hi   0x52
    889  am_sdio_isr                0x0001b2c9   Gb    1  Code  Hi   0x2a
    890  am_util_delay_ms           0x0001b2f9   Gb    1  Code  Hi   0x12
    891  am_util_delay_us           0x0001b30b   Gb    1  Code  Hi   0xc
    892  am_util_faultisr_collect_data
                                    0x0001b319   Gb    1  Code  Hi   0xb2
    893  am_util_stdio_printf       0x0001b3d1   Gb    1  Code  Hi   0x32
    894  am_util_stdio_printf_init  0x0001b40d   Gb    1  Code  Hi   0x6
    895  am_util_stdio_vsprintf     0x0001b419   Gb    1  Code  Hi   0x3a4
    896  crypto_boost_trims         0x0001bf4d   Gb    1  Code  Hi   0xa6
    897  disk_initialize            0x0001c4b9   Gb    1  Code  Hi   0x10
    898  disk_ioctl                 0x0001c4c9   Gb    1  Code  Hi   0x18
    899  disk_read                  0x0001c4e1   Gb    1  Code  Hi   0x20
    900  disk_status                0x0001c501   Gb    1  Code  Hi   0x10
    901  disk_write                 0x0001c511   Gb    1  Code  Hi   0x20
    902  f_close                    0x0001c5fd   Gb    1  Code  Hi   0x22
    903  f_mkfs                     0x0001c621   Gb    1  Code  Hi   0x670
    904  f_mount                    0x0001ccc9   Gb    1  Code  Hi   0x50
    905  f_open                     0x0001cd1d   Gb    1  Code  Hi   0x1ee
    906  f_read                     0x0001cf11   Gb    1  Code  Hi   0x1ac
    907  f_sync                     0x0001d0bd   Gb    1  Code  Hi   0x9c
    908  f_write                    0x0001d15d   Gb    1  Code  Hi   0x1ee
    909  ff_oem2uni                 0x0001d34d   Gb    1  Code  Hi   0x26
    910  ff_uni2oem                 0x0001d379   Gb    1  Code  Hi   0x3a
    911  ff_wtoupper                0x0001d3b9   Gb    1  Code  Hi   0xa6
    912  main                       0x0001d971   Gb    1  Code  Hi   0x144
    913  mmc_disk_initialize        0x0001dcc1   Gb    1  Code  Hi   0x15c
    914  mmc_disk_ioctl             0x0001df75   Gb    1  Code  Hi   0x3e
    915  mmc_disk_read              0x0001dfbd   Gb    1  Code  Hi   0xb4
    916  mmc_disk_status            0x0001e171   Gb    1  Code  Hi   0x6
    917  mmc_disk_write             0x0001e17d   Gb    1  Code  Hi   0xb6
    918  __aeabi_d2f                0x0001ebf9   Gb    1  Code  Hi 
    919  _d2f                       0x0001ebf9   Gb    1  Code  De   0x62
    920  __fpl_dnaninf              0x0001ec5b   Gb    1  Code  De   0x9c
    921  _fp_init                   0x0001ecf7   Gb    1  Code  De   0xa
    922  __fplib_config_fpu_vfp     0x0001ecff   Gb    1  Code  De 
    923  __fplib_config_pureend_doubles
                                    0x0001ecff   Gb    1  Code  De 
    924  __fpl_fretinf              0x0001ed01   Gb    1  Code  De   0xa
    925  __I$use$fp                 0x0001ed0a   Gb    1   --   De 
    926  ui32MCUAllowed             0x0001f190   Gb    1  Data  Hi   0x14
    927  ui32DSP0Allowed            0x0001f1a4   Gb    1  Data  Hi   0x14
    928  ui32DSP1Allowed            0x0001f1b8   Gb    1  Data  Hi   0x14
    929  ui32SharedAccess           0x0001f1cc   Gb    1  Data  Hi   0x14
    930  sGlobalAccess              0x0001f1e0   Gb    1  Data  Hi   0x1c
    931  g_am_hal_bootrom_helper    0x0001f1fc   Gb    1  Data  Hi   0x28
    932  am_hal_daxi_defaults       0x0001f224   Gb    1  Data  Hi   0x5
    933  g_DefaultMcuMemCfg         0x0001f23c   Gb    1  Data  Hi   0x6
    934  g_DefaultSRAMCfg           0x0001f242   Gb    1  Data  Hi   0x6
    935  am_hal_pwrctrl_peripheral_control
                                    0x0001f248   Gb    1  Data  Hi   0x220
    936  Region$$Table$$Base        0x0001f4d0   Gb    1   --   Hi 
    937  Region$$Table$$Limit       0x0001f500   Gb    1   --   Hi 
    938  res                        0x10000008   Gb    2  Data  Hi   0x1
    939  eMMCPath                   0x10000009   Gb    2  Data  Hi   0x4
    940  pSdhcCardHost              0x1000011c   Gb    2  Data  Hi   0x4
    941  sec_count                  0x10000120   Gb    2  Data  Hi   0x4
    942  g_pfnCharPrint             0x10000124   Gb    2  Data  Hi   0x4
    943  g_ui32HALflags             0x1000012c   Gb    2  Data  Hi   0x4
    944  gDaxiConfig                0x100001d0   Gb    2  Data  Hi   0x5
    945  gStartOff                  0x100001d8   Gb    2  Data  Hi   0x4
    946  gpDcuEnable                0x100001dc   Gb    2  Data  Hi   0x4
    947  gpDcuLock                  0x100001e0   Gb    2  Data  Hi   0x4
    948  gDcuEnable                 0x100001e8   Gb    2  Data  Hi   0x8
    949  gDcuDisable                0x100001f0   Gb    2  Data  Hi   0x8
    950  g_eCurrPwrMode             0x100001f8   Gb    2  Data  Hi   0x1
    951  g_ui32TrimVer              0x10000200   Gb    2  Data  Hi   0x4
    952  g_ui32origSimobuckVDDStrim 0x10000204   Gb    2  Data  Hi   0x4
    953  g_AM_BSP_GPIO_ITM_SWO      0x10000234   Gb    2  Data  Hi   0x4
    954  g_AM_BSP_GPIO_SDIO_DAT0    0x10000238   Gb    2  Data  Hi   0x4
    955  g_AM_BSP_GPIO_SDIO_DAT1    0x1000023c   Gb    2  Data  Hi   0x4
    956  g_AM_BSP_GPIO_SDIO_DAT2    0x10000240   Gb    2  Data  Hi   0x4
    957  g_AM_BSP_GPIO_SDIO_DAT3    0x10000244   Gb    2  Data  Hi   0x4
    958  g_AM_BSP_GPIO_SDIO_DAT4    0x10000248   Gb    2  Data  Hi   0x4
    959  g_AM_BSP_GPIO_SDIO_DAT5    0x1000024c   Gb    2  Data  Hi   0x4
    960  g_AM_BSP_GPIO_SDIO_DAT6    0x10000250   Gb    2  Data  Hi   0x4
    961  g_AM_BSP_GPIO_SDIO_DAT7    0x10000254   Gb    2  Data  Hi   0x4
    962  g_AM_BSP_GPIO_SDIO_CMD     0x10000258   Gb    2  Data  Hi   0x4
    963  g_AM_BSP_GPIO_SDIO_CLK     0x1000025c   Gb    2  Data  Hi   0x4
    964  eMMCFatFs                  0x10000260   Gb    3  Data  Hi   0x238
    965  TestFile                   0x10000498   Gb    3  Data  Hi   0x22c
    966  eMMCard                    0x100009c4   Gb    3  Data  Hi   0x274
    967  __libspace_start           0x1000110c   Gb    3  Data  De   0x60
    968  __temporary_stack_top$libspace
                                    0x1000116c   Gb    3  Data  De 
    969  psGlobalAccessPtr          0x10060000   Gb    4  Data  Hi   0x4
    970  ui32MCUClaimed             0x10060004   Gb    4  Data  Hi   0x14
    971  ui32DSP0Claimed            0x10060018   Gb    4  Data  Hi   0x14
    972  ui32DSP1Claimed            0x1006002c   Gb    4  Data  Hi   0x14


** Section #13 '.strtab' (SHT_STRTAB)
    Size   : 14892 bytes

            #  Offset String
        ====================================

            1      1: $d
            2      4: $t
            3      7: $d.realdata
            4     19: ../../../../../../third_party/FatFs/source/diskio.c
            5     71: i.disk_initialize
            6     89: i.disk_ioctl
            7    102: i.disk_read
            8    114: i.disk_status
            9    128: i.disk_write
           10    141: ../../../../../../third_party/FatFs/source/ff.c
           11    189: i.check_fs
           12    200: check_fs
           13    209: i.chk_chr
           14    219: chk_chr
           15    227: i.clmt_clust
           16    240: clmt_clust
           17    251: i.clst2sect
           18    263: clst2sect
           19    273: i.cmp_lfn
           20    283: cmp_lfn
           21    291: i.create_chain
           22    306: create_chain
           23    319: i.create_name
           24    333: create_name
           25    345: i.create_partition
           26    364: create_partition
           27    381: i.dbc_1st
           28    391: dbc_1st
           29    399: i.dbc_2nd
           30    409: dbc_2nd
           31    417: i.dir_alloc
           32    429: dir_alloc
           33    439: i.dir_clear
           34    451: dir_clear
           35    461: i.dir_find
           36    472: dir_find
           37    481: i.dir_next
           38    492: dir_next
           39    501: i.dir_register
           40    516: dir_register
           41    529: i.dir_sdi
           42    539: dir_sdi
           43    547: i.f_close
           44    557: i.f_mkfs
           45    566: i.f_mount
           46    576: i.f_open
           47    585: i.f_read
           48    594: i.f_sync
           49    603: i.f_write
           50    613: i.find_volume
           51    627: find_volume
           52    639: i.follow_path
           53    653: follow_path
           54    665: i.gen_numname
           55    679: gen_numname
           56    691: i.get_fat
           57    701: get_fat
           58    709: i.get_ldnumber
           59    724: get_ldnumber
           60    737: i.ld_clust
           61    748: ld_clust
           62    757: i.ld_dword
           63    768: ld_dword
           64    777: i.ld_word
           65    787: ld_word
           66    795: i.mem_cmp
           67    805: mem_cmp
           68    813: i.mem_cpy
           69    823: mem_cpy
           70    831: i.mem_set
           71    841: mem_set
           72    849: i.mount_volume
           73    864: mount_volume
           74    877: i.move_window
           75    891: move_window
           76    903: i.put_fat
           77    913: put_fat
           78    921: i.put_lfn
           79    931: put_lfn
           80    939: i.remove_chain
           81    954: remove_chain
           82    967: i.st_clust
           83    978: st_clust
           84    987: i.st_dword
           85    998: st_dword
           86   1007: i.st_word
           87   1017: st_word
           88   1025: i.sum_sfn
           89   1035: sum_sfn
           90   1043: i.sync_fs
           91   1053: sync_fs
           92   1061: i.sync_window
           93   1075: sync_window
           94   1087: i.tchar2uni
           95   1099: tchar2uni
           96   1109: i.validate
           97   1120: validate
           98   1129: .constdata
           99   1140: LfnOfs
          100   1147: ExCvt
          101   1153: cst
          102   1157: cst32
          103   1163: defopt
          104   1170: .data
          105   1176: FatFs
          106   1182: Fsid
          107   1187: CurrVol
          108   1195: ../../../../../../third_party/FatFs/source/ffsystem.c
          109   1249: ../../../../../../third_party/FatFs/source/ffunicode.c
          110   1304: i.ff_oem2uni
          111   1317: i.ff_uni2oem
          112   1330: i.ff_wtoupper
          113   1344: uc850
          114   1350: cvt1
          115   1355: cvt2
          116   1360: ..\src\am_resources.c
          117   1382: ../src/am_resources.c
          118   1404: ui32I2sWordLength
          119   1422: __tagsym$$used
          120   1437: RESOURCE_TABLE
          121   1452: SHARED_RW
          122   1462: ..\src\emmc_bm_fatfs.c
          123   1485: ../src/emmc_bm_fatfs.c
          124   1508: i.check_if_rwbuf_match
          125   1531: check_if_rwbuf_match
          126   1552: i.main
          127   1559: .bss
          128   1564: work_buf
          129   1573: read_buf
          130   1582: write_buf
          131   1592: write_cnt
          132   1602: read_cnt
          133   1611: ..\src\mmc_apollo4.c
          134   1632: ../src/mmc_apollo4.c
          135   1653: i.am_hal_card_event_test_cb
          136   1681: i.am_sdio_isr
          137   1695: i.mmc_disk_initialize
          138   1717: i.mmc_disk_ioctl
          139   1734: i.mmc_disk_read
          140   1750: i.mmc_disk_status
          141   1768: i.mmc_disk_write
          142   1785: Stat
          143   1790: bAsyncWriteIsDone
          144   1808: bAsyncReadIsDone
          145   1825: ../../../../../../utils/am_util_debug.c
          146   1865: ..\..\..\..\..\..\utils\am_util_delay.c
          147   1905: ../../../../../../utils/am_util_delay.c
          148   1945: i.am_util_delay_ms
          149   1964: i.am_util_delay_us
          150   1983: ..\..\..\..\..\..\utils\am_util_faultisr.c
          151   2026: .emb_text
          152   2036: $v0
          153   2040: ../../../../../../utils/am_util_faultisr.c
          154   2083: i.am_util_faultisr_collect_data
          155   2115: ..\..\..\..\..\..\utils\am_util_id.c
          156   2152: ../../../../../../utils/am_util_id.c
          157   2189: ../../../../../../utils/am_util_stdio.c
          158   2229: i.am_util_stdio_printf
          159   2252: i.am_util_stdio_printf_init
          160   2280: i.am_util_stdio_vsprintf
          161   2305: i.decstr_to_int
          162   2321: decstr_to_int
          163   2335: i.divu64_10
          164   2347: divu64_10
          165   2357: i.ftoa
          166   2364: ftoa
          167   2369: i.ndigits_in_hex
          168   2386: ndigits_in_hex
          169   2401: i.ndigits_in_i64
          170   2418: ndigits_in_i64
          171   2433: i.ndigits_in_u64
          172   2450: ndigits_in_u64
          173   2465: i.padbuffer
          174   2477: padbuffer
          175   2487: i.simple_strlen
          176   2503: simple_strlen
          177   2517: i.uint64_to_hexstr
          178   2536: uint64_to_hexstr
          179   2553: i.uint64_to_str
          180   2569: uint64_to_str
          181   2583: g_prfbuf
          182   2592: g_bTxtXlate
          183   2604: ../keil/startup_keil.s
          184   2627: STACK
          185   2633: StackMem
          186   2642: HEAP
          187   2647: HeapMem
          188   2655: RESET
          189   2661: am_cryptosec_isr
          190   2678: am_default_isr
          191   2693: .text
          192   2699: ..\..\..\..\..\mcu\apollo4p\hal\am_hal_global.c
          193   2747: ../../../../../mcu/apollo4p/hal/am_hal_global.c
          194   2795: ..\..\..\..\..\mcu\apollo4p\hal\mcu\am_hal_card.c
          195   2845: ../../../../../mcu/apollo4p/hal/mcu/am_hal_card.c
          196   2895: i.am_hal_card_block_read_async
          197   2926: i.am_hal_card_block_rw
          198   2949: am_hal_card_block_rw
          199   2970: i.am_hal_card_block_write_async
          200   3002: i.am_hal_card_cfg_set
          201   3024: i.am_hal_card_get_ext_csd_field
          202   3056: i.am_hal_card_host_find_card
          203   3085: i.am_hal_card_init
          204   3104: i.am_hal_card_mmc_init
          205   3127: am_hal_card_mmc_init
          206   3148: i.am_hal_card_mode_switch
          207   3174: i.am_hal_card_pwrctrl_sleep
          208   3202: i.am_hal_card_pwrctrl_wakeup
          209   3231: i.am_hal_card_register_evt_callback
          210   3267: i.am_hal_card_set_speed
          211   3291: am_hal_card_set_speed
          212   3313: i.am_hal_unstuff_bytes
          213   3336: am_hal_unstuff_bytes
          214   3357: ..\..\..\..\..\mcu\apollo4p\hal\mcu\am_hal_card_host.c
          215   3412: ../../../../../mcu/apollo4p/hal/mcu/am_hal_card_host.c
          216   3467: i.am_hal_card_host_power_control
          217   3500: am_hal_card_host_power_control
          218   3531: i.am_hal_card_host_set_xfer_mode
          219   3564: i.am_hal_get_card_host
          220   3587: i.am_hal_sdhc_host_deinit
          221   3613: am_hal_sdhc_host_deinit
          222   3637: i.am_hal_sdhc_host_execute_cmd
          223   3668: am_hal_sdhc_host_execute_cmd
          224   3697: i.am_hal_sdhc_host_init
          225   3721: am_hal_sdhc_host_init
          226   3743: g_sdhc_host_ops
          227   3759: g_sdhc_card_host
          228   3776: g_CardHosts
          229   3788: ..\..\..\..\..\mcu\apollo4p\hal\mcu\am_hal_fault.c
          230   3839: ../../../../../mcu/apollo4p/hal/mcu/am_hal_fault.c
          231   3890: i.am_hal_fault_status_get
          232   3916: ..\..\..\..\..\mcu\apollo4p\hal\mcu\am_hal_interrupt.c
          233   3971: ../../../../../mcu/apollo4p/hal/mcu/am_hal_interrupt.c
          234   4026: ..\..\..\..\..\mcu\apollo4p\hal\mcu\am_hal_mcuctrl.c
          235   4079: ../../../../../mcu/apollo4p/hal/mcu/am_hal_mcuctrl.c
          236   4132: ..\..\..\..\..\mcu\apollo4p\hal\mcu\am_hal_sdhc.c
          237   4182: ../../../../../mcu/apollo4p/hal/mcu/am_hal_sdhc.c
          238   4232: i.am_hal_sdhc_card_busy
          239   4256: i.am_hal_sdhc_deinitialize
          240   4283: i.am_hal_sdhc_disable
          241   4305: i.am_hal_sdhc_enable
          242   4326: i.am_hal_sdhc_execute_cmd
          243   4352: i.am_hal_sdhc_get_cd
          244   4373: i.am_hal_sdhc_initialize
          245   4398: i.am_hal_sdhc_interrupt_service
          246   4430: i.am_hal_sdhc_intr_status_clear
          247   4462: i.am_hal_sdhc_intr_status_get
          248   4492: i.am_hal_sdhc_pio_xfer_data
          249   4520: am_hal_sdhc_pio_xfer_data
          250   4546: i.am_hal_sdhc_power_control
          251   4574: i.am_hal_sdhc_set_bus_clock
          252   4602: i.am_hal_sdhc_set_bus_voltage
          253   4632: i.am_hal_sdhc_set_bus_width
          254   4660: i.am_hal_sdhc_set_txrx_delay
          255   4689: i.am_hal_sdhc_set_uhs_mode
          256   4716: i.am_hal_sdhc_setup_host
          257   4741: g_SDHCState
          258   4753: adma_desc_table
          259   4769: ..\..\..\..\..\mcu\apollo4p\hal\mcu\am_hal_utils.c
          260   4820: ../../../../../mcu/apollo4p/hal/mcu/am_hal_utils.c
          261   4871: i.am_hal_delay_us
          262   4889: i.am_hal_delay_us_status_change
          263   4921: i.am_hal_delay_us_status_check
          264   4952: ..\am_bsp.c
          265   4964: ../am_bsp.c
          266   4976: i.am_bsp_itm_printf_enable
          267   5003: i.am_bsp_low_power_init
          268   5027: i.am_bsp_sdio_pins_enable
          269   5053: g_ePrintInterface
          270   5071: g_sCOMUART
          271   5082: ..\..\..\..\..\mcu\apollo4p\hal\mcu\am_hal_bootrom_helper.c
          272   5142: ../../../../../mcu/apollo4p/hal/mcu/am_hal_bootrom_helper.c
          273   5202: ..\..\..\..\..\mcu\apollo4p\hal\mcu\am_hal_cachectrl.c
          274   5257: ../../../../../mcu/apollo4p/hal/mcu/am_hal_cachectrl.c
          275   5312: i.am_hal_daxi_config
          276   5333: i.am_hal_daxi_control
          277   5355: i.__ARM_common_memcpy4_5
          278   5380: ..\..\..\..\..\mcu\apollo4p\hal\mcu\am_hal_itm.c
          279   5429: ../../../../../mcu/apollo4p/hal/mcu/am_hal_itm.c
          280   5478: i.am_hal_itm_enable
          281   5498: i.am_hal_itm_print
          282   5517: ..\..\..\..\..\mcu\apollo4p\hal\mcu\am_hal_rtc.c
          283   5566: ../../../../../mcu/apollo4p/hal/mcu/am_hal_rtc.c
          284   5615: i.am_hal_rtc_osc_disable
          285   5640: ..\..\..\..\..\mcu\apollo4p\hal\mcu\am_hal_tpiu.c
          286   5690: ../../../../../mcu/apollo4p/hal/mcu/am_hal_tpiu.c
          287   5740: i.am_hal_tpiu_enable
          288   5761: ..\..\..\..\..\mcu\apollo4p\hal\mcu\am_hal_uart.c
          289   5811: ../../../../../mcu/apollo4p/hal/mcu/am_hal_uart.c
          290   5861: ..\..\..\..\..\mcu\apollo4p\hal\am_hal_dcu.c
          291   5906: ../../../../../mcu/apollo4p/hal/am_hal_dcu.c
          292   5951: i.am_hal_dcu_get
          293   5968: i.am_hal_dcu_update
          294   5988: i.copy_words
          295   6001: copy_words
          296   6012: ..\..\..\..\..\mcu\apollo4p\hal\am_hal_gpio.c
          297   6058: ../../../../../mcu/apollo4p/hal/am_hal_gpio.c
          298   6104: i.am_hal_gpio_pinconfig
          299   6128: i.am_hal_gpio_state_write
          300   6154: g_ui32DSpintbl
          301   6169: ..\..\..\..\..\mcu\apollo4p\hal\am_hal_pwrctrl.c
          302   6218: ../../../../../mcu/apollo4p/hal/am_hal_pwrctrl.c
          303   6267: i.am_hal_pwrctrl_control
          304   6292: i.am_hal_pwrctrl_low_power_init
          305   6324: i.am_hal_pwrctrl_mcu_memory_config
          306   6359: i.am_hal_pwrctrl_periph_disable
          307   6391: i.am_hal_pwrctrl_periph_enable
          308   6422: i.am_hal_pwrctrl_sram_config
          309   6451: i.crypto_boost_trims
          310   6472: g_VDDF_trimstbl
          311   6488: g_VDDFLP_trimstbl
          312   6506: g_memlpldo_trimstbl
          313   6526: g_bOrigTrimsStored
          314   6545: g_bBoostForCryptoApplied
          315   6570: g_bTempcoValid
          316   6585: g_ui16TempcoTEMP_code
          317   6607: g_orig_ACTTRIMVDDF
          318   6626: g_orig_MEMLDOACTIVETRIM
          319   6650: g_orig_LPTRIMVDDF
          320   6668: g_orig_MEMLPLDOTRIM
          321   6688: g_orig_TVRGVREFTRIM
          322   6708: g_ui32VDDFAdjustCodes
          323   6730: g_i32LatestVddfActTrim
          324   6753: g_i32LatestLDOActTrim
          325   6775: g_TempcoADCHandle
          326   6793: g_ui32TempcoADCslot
          327   6813: g_pfTempMeasured
          328   6830: ..\am_bsp_pins.c
          329   6847: ../am_bsp_pins.c
          330   6864: ..\..\..\..\..\mcu\apollo4p\hal\mcu\am_hal_mram.c
          331   6914: ../../../../../mcu/apollo4p/hal/mcu/am_hal_mram.c
          332   6964: i.am_hal_mram_info_read
          333   6988: ..\..\..\..\..\mcu\apollo4p\hal\am_hal_adc.c
          334   7033: ../../../../../mcu/apollo4p/hal/am_hal_adc.c
          335   7078: ..\..\..\..\..\mcu\apollo4p\hal\am_hal_pin.c
          336   7123: ../../../../../mcu/apollo4p/hal/am_hal_pin.c
          337   7168: ..\..\..\..\..\mcu\apollo4p\hal\am_hal_queue.c
          338   7215: ../../../../../mcu/apollo4p/hal/am_hal_queue.c
          339   7262: dc.s
          340   7267: ../clib/longlong.s
          341   7286: ../clib/memcpset.s
          342   7305: ../clib/heapaux.c
          343   7323: ../clib/angel/startup.s
          344   7347: !!!main
          345   7355: ../clib/angel/handlers.s
          346   7380: !!handler_copy
          347   7395: ../fplib/d2f.s
          348   7410: x$fpl$d2f
          349   7420: ../clib/angel/kernel.s
          350   7443: .ARM.Collect$$rtentry$$00000000
          351   7475: ../fplib/dnaninf.s
          352   7494: x$fpl$dnaninf
          353   7508: ../fplib/fretinf.s
          354   7527: x$fpl$fretinf
          355   7541: ../fplib/usenofp.s
          356   7560: x$fpl$usenofp
          357   7574: .ARM.Collect$$rtentry$$00000002
          358   7606: .ARM.Collect$$rtentry$$00000009
          359   7638: .ARM.Collect$$rtentry$$0000000A
          360   7670: .ARM.Collect$$rtentry$$0000000C
          361   7702: .ARM.Collect$$rtentry$$0000000D
          362   7734: .ARM.Collect$$rtentry$$00000004
          363   7766: ../clib/angel/sys.s
          364   7786: ../clib/stdlib.c
          365   7803: ../clib/angel/boardlib.s
          366   7828: ../clib/libinit.s
          367   7846: .ARM.Collect$$libinit$$00000000
          368   7878: .ARM.Collect$$rtexit$$00000000
          369   7909: .ARM.Collect$$libinit$$00000001
          370   7941: .ARM.Collect$$libinit$$00000004
          371   7973: .ARM.Collect$$libinit$$0000000A
          372   8005: .ARM.Collect$$libinit$$0000000C
          373   8037: .ARM.Collect$$libinit$$0000000E
          374   8069: .ARM.Collect$$libinit$$00000011
          375   8101: .ARM.Collect$$libinit$$00000013
          376   8133: .ARM.Collect$$libinit$$00000015
          377   8165: .ARM.Collect$$libinit$$00000017
          378   8197: .ARM.Collect$$libinit$$00000019
          379   8229: .ARM.Collect$$libinit$$0000001B
          380   8261: .ARM.Collect$$libinit$$0000001D
          381   8293: .ARM.Collect$$libinit$$0000001F
          382   8325: .ARM.Collect$$libinit$$00000021
          383   8357: .ARM.Collect$$libinit$$00000023
          384   8389: .ARM.Collect$$libinit$$00000025
          385   8421: .ARM.Collect$$libinit$$0000002C
          386   8453: .ARM.Collect$$libinit$$0000002E
          387   8485: .ARM.Collect$$libinit$$00000030
          388   8517: .ARM.Collect$$libinit$$00000032
          389   8549: .ARM.Collect$$libinit$$00000033
          390   8581: .ARM.Collect$$rtexit$$00000002
          391   8612: .ARM.Collect$$rtexit$$00000003
          392   8643: .ARM.Collect$$rtexit$$00000004
          393   8674: ../clib/armsys.c
          394   8691: ../fplib/fpinit.s
          395   8709: x$fpl$fpinit
          396   8722: ../clib/angel/sysapp.c
          397   8745: .ARM.Collect$$libshutdown$$00000000
          398   8781: ../clib/heapalloc.c
          399   8801: ../clib/signal.c
          400   8818: .ARM.Collect$$libshutdown$$00000002
          401   8854: .ARM.Collect$$libshutdown$$00000004
          402   8890: .ARM.Collect$$libshutdown$$00000007
          403   8926: .ARM.Collect$$libshutdown$$0000000A
          404   8962: .ARM.Collect$$libshutdown$$0000000C
          405   8998: .ARM.Collect$$libshutdown$$0000000F
          406   9034: .ARM.Collect$$libshutdown$$00000010
          407   9070: ../clib/angel/rt.s
          408   9089: ../clib/signal.s
          409   9106: ../clib/angel/dczerorl2.s
          410   9132: !!dczerorl2
          411   9144: ../clib/angel/scatter.s
          412   9168: !!!scatter
          413   9179: !!handler_zi
          414   9192: BuildAttributes$$THM_ISAv4$E$P$D$K$B$S$7EM$VFPi3$EXTD16$VFPS$VFMA$PE$A:L22UL41UL21$X:L11$S22US41US21$IEEE1$IW$USESV6$~STKCKD$USESV7$~SHL$OTIME$ROPI$EBA8$UX$STANDARDLIB$REQ8$PRES8$EABIv2
          415   9378: __ARM_use_no_argv
          416   9396: __Vectors
          417   9406: __Patchable
          418   9418: Reset_Handler
          419   9432: NMI_Handler
          420   9444: MemManage_Handler
          421   9462: BusFault_Handler
          422   9479: UsageFault_Handler
          423   9498: SVC_Handler
          424   9510: DebugMon_Handler
          425   9527: PendSV_Handler
          426   9542: SysTick_Handler
          427   9558: am_adc_isr
          428   9569: am_audadc0_isr
          429   9584: am_brownout_isr
          430   9600: am_cachecpu_isr
          431   9616: am_clkgen_isr
          432   9630: am_ctimer_isr
          433   9644: am_disp_isr
          434   9656: am_dsi_isr
          435   9667: am_dspi2s0_isr
          436   9682: am_dspi2s1_isr
          437   9697: am_dspi2s2_isr
          438   9712: am_dspi2s3_isr
          439   9727: am_gpio0_001f_isr
          440   9745: am_gpio0_203f_isr
          441   9763: am_gpio0_405f_isr
          442   9781: am_gpio0_607f_isr
          443   9799: am_gpio1_001f_isr
          444   9817: am_gpio1_203f_isr
          445   9835: am_gpio1_405f_isr
          446   9853: am_gpio1_607f_isr
          447   9871: am_gpu_isr
          448   9882: am_iomaster0_isr
          449   9899: am_iomaster1_isr
          450   9916: am_iomaster2_isr
          451   9933: am_iomaster3_isr
          452   9950: am_iomaster4_isr
          453   9967: am_iomaster5_isr
          454   9984: am_iomaster6_isr
          455  10001: am_iomaster7_isr
          456  10018: am_ioslave_acc_isr
          457  10037: am_ioslave_ios_isr
          458  10056: am_mspi0_isr
          459  10069: am_mspi1_isr
          460  10082: am_mspi2_isr
          461  10095: am_pdm0_isr
          462  10107: am_pdm1_isr
          463  10119: am_pdm2_isr
          464  10131: am_pdm3_isr
          465  10143: am_rtc_isr
          466  10154: am_stimer_cmpr0_isr
          467  10174: am_stimer_cmpr1_isr
          468  10194: am_stimer_cmpr2_isr
          469  10214: am_stimer_cmpr3_isr
          470  10234: am_stimer_cmpr4_isr
          471  10254: am_stimer_cmpr5_isr
          472  10274: am_stimer_cmpr6_isr
          473  10294: am_stimer_cmpr7_isr
          474  10314: am_stimerof_isr
          475  10330: am_timer00_isr
          476  10345: am_timer01_isr
          477  10360: am_timer02_isr
          478  10375: am_timer03_isr
          479  10390: am_timer04_isr
          480  10405: am_timer05_isr
          481  10420: am_timer06_isr
          482  10435: am_timer07_isr
          483  10450: am_timer08_isr
          484  10465: am_timer09_isr
          485  10480: am_timer10_isr
          486  10495: am_timer11_isr
          487  10510: am_timer12_isr
          488  10525: am_timer13_isr
          489  10540: am_timer14_isr
          490  10555: am_timer15_isr
          491  10570: am_uart1_isr
          492  10583: am_uart2_isr
          493  10596: am_uart3_isr
          494  10609: am_uart_isr
          495  10621: am_usb_isr
          496  10632: am_vcomp_isr
          497  10645: am_watchdog_isr
          498  10661: __main
          499  10668: __scatterload
          500  10682: __scatterload_rt2
          501  10700: __scatterload_rt2_thumb_only
          502  10729: __scatterload_null
          503  10748: __decompress
          504  10761: __decompress1
          505  10775: __scatterload_copy
          506  10794: __scatterload_zeroinit
          507  10817: __rt_lib_init
          508  10831: __rt_lib_init_fp_1
          509  10850: __rt_lib_init_alloca_1
          510  10873: __rt_lib_init_argv_1
          511  10894: __rt_lib_init_atexit_1
          512  10917: __rt_lib_init_clock_1
          513  10939: __rt_lib_init_cpp_1
          514  10959: __rt_lib_init_exceptions_1
          515  10986: __rt_lib_init_fp_trap_1
          516  11010: __rt_lib_init_getenv_1
          517  11033: __rt_lib_init_heap_1
          518  11054: __rt_lib_init_lc_collate_1
          519  11081: __rt_lib_init_lc_ctype_1
          520  11106: __rt_lib_init_lc_monetary_1
          521  11134: __rt_lib_init_lc_numeric_1
          522  11161: __rt_lib_init_lc_time_1
          523  11185: __rt_lib_init_preinit_1
          524  11209: __rt_lib_init_rand_1
          525  11230: __rt_lib_init_return
          526  11251: __rt_lib_init_signal_1
          527  11274: __rt_lib_init_stdio_1
          528  11296: __rt_lib_init_user_alloc_1
          529  11323: __rt_lib_shutdown
          530  11341: __rt_lib_shutdown_cpp_1
          531  11365: __rt_lib_shutdown_fp_trap_1
          532  11393: __rt_lib_shutdown_heap_1
          533  11418: __rt_lib_shutdown_return
          534  11443: __rt_lib_shutdown_signal_1
          535  11470: __rt_lib_shutdown_stdio_1
          536  11496: __rt_lib_shutdown_user_alloc_1
          537  11527: __rt_entry
          538  11538: __rt_entry_presh_1
          539  11557: __rt_entry_sh
          540  11571: __rt_entry_li
          541  11585: __rt_entry_postsh_1
          542  11605: __rt_entry_main
          543  11621: __rt_entry_postli_1
          544  11641: __rt_exit
          545  11651: __rt_exit_ls
          546  11664: __rt_exit_prels_1
          547  11682: __rt_exit_exit
          548  11697: HardFault_Handler
          549  11715: getStackedReg
          550  11729: am_hal_interrupt_master_enable
          551  11760: am_hal_interrupt_master_disable
          552  11792: am_hal_interrupt_master_set
          553  11820: __user_initial_stackheap
          554  11845: __aeabi_llsl
          555  11858: _ll_shift_l
          556  11870: __aeabi_llsr
          557  11883: _ll_ushift_r
          558  11896: __aeabi_memclr4
          559  11912: __aeabi_memclr8
          560  11928: __rt_memclr_w
          561  11942: _memset_w
          562  11952: __use_two_region_memory
          563  11976: __rt_heap_escrow$2region
          564  12001: __rt_heap_expand$2region
          565  12026: __user_setup_stackheap
          566  12049: exit
          567  12054: __user_libspace
          568  12070: __user_perproc_libspace
          569  12094: __user_perthread_libspace
          570  12120: _sys_exit
          571  12130: __I$use$semihosting
          572  12150: __use_no_semihosting_swi
          573  12175: __ARM_common_memcpy4_5
          574  12198: __semihosting_library_function
          575  12229: am_bsp_itm_printf_enable
          576  12254: am_bsp_low_power_init
          577  12276: am_bsp_sdio_pins_enable
          578  12300: am_hal_card_block_read_async
          579  12329: am_hal_card_block_write_async
          580  12359: am_hal_card_cfg_set
          581  12379: am_hal_card_event_test_cb
          582  12405: am_hal_card_get_ext_csd_field
          583  12435: am_hal_card_host_find_card
          584  12462: am_hal_card_host_set_xfer_mode
          585  12493: am_hal_card_init
          586  12510: am_hal_card_mode_switch
          587  12534: am_hal_card_pwrctrl_sleep
          588  12560: am_hal_card_pwrctrl_wakeup
          589  12587: am_hal_card_register_evt_callback
          590  12621: am_hal_daxi_config
          591  12640: am_hal_daxi_control
          592  12660: am_hal_dcu_get
          593  12675: am_hal_dcu_update
          594  12693: am_hal_delay_us
          595  12709: am_hal_delay_us_status_change
          596  12739: am_hal_delay_us_status_check
          597  12768: am_hal_fault_status_get
          598  12792: am_hal_get_card_host
          599  12813: am_hal_gpio_pinconfig
          600  12835: am_hal_gpio_state_write
          601  12859: am_hal_itm_enable
          602  12877: am_hal_itm_print
          603  12894: am_hal_mram_info_read
          604  12916: am_hal_pwrctrl_control
          605  12939: am_hal_pwrctrl_low_power_init
          606  12969: am_hal_pwrctrl_mcu_memory_config
          607  13002: am_hal_pwrctrl_periph_disable
          608  13032: am_hal_pwrctrl_periph_enable
          609  13061: am_hal_pwrctrl_sram_config
          610  13088: am_hal_rtc_osc_disable
          611  13111: am_hal_sdhc_card_busy
          612  13133: am_hal_sdhc_deinitialize
          613  13158: am_hal_sdhc_disable
          614  13178: am_hal_sdhc_enable
          615  13197: am_hal_sdhc_execute_cmd
          616  13221: am_hal_sdhc_get_cd
          617  13240: am_hal_sdhc_initialize
          618  13263: am_hal_sdhc_interrupt_service
          619  13293: am_hal_sdhc_intr_status_clear
          620  13323: am_hal_sdhc_intr_status_get
          621  13351: am_hal_sdhc_power_control
          622  13377: am_hal_sdhc_set_bus_clock
          623  13403: am_hal_sdhc_set_bus_voltage
          624  13431: am_hal_sdhc_set_bus_width
          625  13457: am_hal_sdhc_set_txrx_delay
          626  13484: am_hal_sdhc_set_uhs_mode
          627  13509: am_hal_sdhc_setup_host
          628  13532: am_hal_tpiu_enable
          629  13551: am_sdio_isr
          630  13563: am_util_delay_ms
          631  13580: am_util_delay_us
          632  13597: am_util_faultisr_collect_data
          633  13627: am_util_stdio_printf
          634  13648: am_util_stdio_printf_init
          635  13674: am_util_stdio_vsprintf
          636  13697: crypto_boost_trims
          637  13716: disk_initialize
          638  13732: disk_ioctl
          639  13743: disk_read
          640  13753: disk_status
          641  13765: disk_write
          642  13776: f_close
          643  13784: f_mkfs
          644  13791: f_mount
          645  13799: f_open
          646  13806: f_read
          647  13813: f_sync
          648  13820: f_write
          649  13828: ff_oem2uni
          650  13839: ff_uni2oem
          651  13850: ff_wtoupper
          652  13862: main
          653  13867: mmc_disk_initialize
          654  13887: mmc_disk_ioctl
          655  13902: mmc_disk_read
          656  13916: mmc_disk_status
          657  13932: mmc_disk_write
          658  13947: __aeabi_d2f
          659  13959: _d2f
          660  13964: __fpl_dnaninf
          661  13978: _fp_init
          662  13987: __fplib_config_fpu_vfp
          663  14010: __fplib_config_pureend_doubles
          664  14041: __fpl_fretinf
          665  14055: __I$use$fp
          666  14066: ui32MCUAllowed
          667  14081: ui32DSP0Allowed
          668  14097: ui32DSP1Allowed
          669  14113: ui32SharedAccess
          670  14130: sGlobalAccess
          671  14144: g_am_hal_bootrom_helper
          672  14168: am_hal_daxi_defaults
          673  14189: g_DefaultMcuMemCfg
          674  14208: g_DefaultSRAMCfg
          675  14225: am_hal_pwrctrl_peripheral_control
          676  14259: Region$$Table$$Base
          677  14279: Region$$Table$$Limit
          678  14300: res
          679  14304: eMMCPath
          680  14313: pSdhcCardHost
          681  14327: sec_count
          682  14337: g_pfnCharPrint
          683  14352: g_ui32HALflags
          684  14367: gDaxiConfig
          685  14379: gStartOff
          686  14389: gpDcuEnable
          687  14401: gpDcuLock
          688  14411: gDcuEnable
          689  14422: gDcuDisable
          690  14434: g_eCurrPwrMode
          691  14449: g_ui32TrimVer
          692  14463: g_ui32origSimobuckVDDStrim
          693  14490: g_AM_BSP_GPIO_ITM_SWO
          694  14512: g_AM_BSP_GPIO_SDIO_DAT0
          695  14536: g_AM_BSP_GPIO_SDIO_DAT1
          696  14560: g_AM_BSP_GPIO_SDIO_DAT2
          697  14584: g_AM_BSP_GPIO_SDIO_DAT3
          698  14608: g_AM_BSP_GPIO_SDIO_DAT4
          699  14632: g_AM_BSP_GPIO_SDIO_DAT5
          700  14656: g_AM_BSP_GPIO_SDIO_DAT6
          701  14680: g_AM_BSP_GPIO_SDIO_DAT7
          702  14704: g_AM_BSP_GPIO_SDIO_CMD
          703  14727: g_AM_BSP_GPIO_SDIO_CLK
          704  14750: eMMCFatFs
          705  14760: TestFile
          706  14769: eMMCard
          707  14777: __libspace_start
          708  14794: __temporary_stack_top$libspace
          709  14825: psGlobalAccessPtr
          710  14843: ui32MCUClaimed
          711  14858: ui32DSP0Claimed
          712  14874: ui32DSP1Claimed
          713  14890: 
          714  14891: 


** Section #14 '.note' (SHT_NOTE)
    Size   : 32 bytes (alignment 4)


** Section #15 '.comment' (SHT_PROGBITS)
    Size   : 42824 bytes


** Section #16 '.shstrtab' (SHT_STRTAB)
    Size   : 164 bytes

            #  Offset String
        ====================================

            1      1: MCU_MRAM
            2     10: MCU_TCM
            3     18: SHARED_SRAM
            4     30: .debug_abbrev
            5     44: .debug_frame
            6     57: .debug_info
            7     69: .debug_line
            8     81: .debug_loc
            9     92: .debug_macinfo
           10    107: .debug_pubnames
           11    123: .symtab
           12    131: .strtab
           13    139: .note
           14    145: .comment
           15    154: .shstrtab


