
========================================================================

** ELF Header Information

    File Name: bin\hp_mode_192mhz.axf

    Machine class: ELFCLASS32 (32-bit)
    Data encoding: ELFDATA2LSB (Little endian)
    Header version: EV_CURRENT (Current version)
    Operating System ABI: none
    ABI Version: 0
    File Type: ET_EXEC (Executable) (2)
    Machine: EM_ARM (ARM)

    Image Entry point: 0x00018235
    Flags: EF_ARM_HASENTRY + EF_ARM_ABI_FLOAT_HARD (0x05000402)

    ARM ELF revision: 5 (ABI version 2)

    Conforms to Hard float procedure-call standard

    Built with
    Component: ARM Compiler 5.06 update 6 (build 750) Tool: armasm [4d35ec]
    Component: ARM Compiler 5.06 update 6 (build 750) Tool: armlink [4d35ed]

    Header size: 52 bytes (0x34)
    Program header entry size: 32 bytes (0x20)
    Section header entry size: 40 bytes (0x28)

    Program header entries: 1
    Section header entries: 17

    Program header offset: 117812 (0x0001cc34)
    Section header offset: 117844 (0x0001cc54)

    Section header string table index: 16

========================================================================

** Program header #0 (PT_LOAD) [PF_X + PF_W + PF_R + PF_ARM_ENTRY]
    Size : 19380 bytes (13220 bytes in file)
    Virtual address: 0x00018000 (Alignment 16)


========================================================================

** Section #1 'MCU_MRAM' (SHT_PROGBITS) [SHF_ALLOC + SHF_EXECINSTR]
    Size   : 12804 bytes (alignment 4)
    Address: 0x00018000

    $d
    RESET
    __Vectors
        0x00018000:    10001970    p...    DCD    268441968
        0x00018004:    00018201    ....    DCD    98817
        0x00018008:    0001821f    ....    DCD    98847
        0x0001800c:    00018331    1...    DCD    99121
        0x00018010:    00018221    !...    DCD    98849
        0x00018014:    00018223    #...    DCD    98851
        0x00018018:    00018225    %...    DCD    98853
        0x0001801c:    00000000    ....    DCD    0
        0x00018020:    00000000    ....    DCD    0
        0x00018024:    00000000    ....    DCD    0
        0x00018028:    00000000    ....    DCD    0
        0x0001802c:    00018227    '...    DCD    98855
        0x00018030:    00018229    )...    DCD    98857
        0x00018034:    00000000    ....    DCD    0
        0x00018038:    0001822b    +...    DCD    98859
        0x0001803c:    0001822d    -...    DCD    98861
        0x00018040:    0001822f    /...    DCD    98863
        0x00018044:    0001822f    /...    DCD    98863
        0x00018048:    0001822f    /...    DCD    98863
        0x0001804c:    0001822f    /...    DCD    98863
        0x00018050:    0001822f    /...    DCD    98863
        0x00018054:    0001822f    /...    DCD    98863
        0x00018058:    0001822f    /...    DCD    98863
        0x0001805c:    0001822f    /...    DCD    98863
        0x00018060:    0001822f    /...    DCD    98863
        0x00018064:    0001822f    /...    DCD    98863
        0x00018068:    0001822f    /...    DCD    98863
        0x0001806c:    0001822f    /...    DCD    98863
        0x00018070:    0001822f    /...    DCD    98863
        0x00018074:    0001822f    /...    DCD    98863
        0x00018078:    0001822f    /...    DCD    98863
        0x0001807c:    0001822f    /...    DCD    98863
        0x00018080:    0001822f    /...    DCD    98863
        0x00018084:    0001822f    /...    DCD    98863
        0x00018088:    0001822f    /...    DCD    98863
        0x0001808c:    0001822f    /...    DCD    98863
        0x00018090:    0001822f    /...    DCD    98863
        0x00018094:    0001822f    /...    DCD    98863
        0x00018098:    0001822f    /...    DCD    98863
        0x0001809c:    0001822f    /...    DCD    98863
        0x000180a0:    0001822f    /...    DCD    98863
        0x000180a4:    0001822f    /...    DCD    98863
        0x000180a8:    0001822f    /...    DCD    98863
        0x000180ac:    0001822f    /...    DCD    98863
        0x000180b0:    0001822f    /...    DCD    98863
        0x000180b4:    0001822f    /...    DCD    98863
        0x000180b8:    0001822f    /...    DCD    98863
        0x000180bc:    0001822f    /...    DCD    98863
        0x000180c0:    0001822f    /...    DCD    98863
        0x000180c4:    0001822f    /...    DCD    98863
        0x000180c8:    0001822f    /...    DCD    98863
        0x000180cc:    0001822f    /...    DCD    98863
        0x000180d0:    0001822f    /...    DCD    98863
        0x000180d4:    0001822f    /...    DCD    98863
        0x000180d8:    0001822f    /...    DCD    98863
        0x000180dc:    0001822f    /...    DCD    98863
        0x000180e0:    0001822f    /...    DCD    98863
        0x000180e4:    0001822f    /...    DCD    98863
        0x000180e8:    0001822f    /...    DCD    98863
        0x000180ec:    0001822f    /...    DCD    98863
        0x000180f0:    0001822f    /...    DCD    98863
        0x000180f4:    0001822f    /...    DCD    98863
        0x000180f8:    0001822f    /...    DCD    98863
        0x000180fc:    0001822f    /...    DCD    98863
        0x00018100:    0001822f    /...    DCD    98863
        0x00018104:    0001822f    /...    DCD    98863
        0x00018108:    0001822f    /...    DCD    98863
        0x0001810c:    0001822f    /...    DCD    98863
        0x00018110:    0001822f    /...    DCD    98863
        0x00018114:    0001822f    /...    DCD    98863
        0x00018118:    0001822f    /...    DCD    98863
        0x0001811c:    0001822f    /...    DCD    98863
        0x00018120:    0001822f    /...    DCD    98863
        0x00018124:    0001822f    /...    DCD    98863
        0x00018128:    0001822f    /...    DCD    98863
        0x0001812c:    0001822f    /...    DCD    98863
        0x00018130:    0001822f    /...    DCD    98863
        0x00018134:    0001822f    /...    DCD    98863
        0x00018138:    0001822f    /...    DCD    98863
        0x0001813c:    0001822f    /...    DCD    98863
        0x00018140:    0001822f    /...    DCD    98863
        0x00018144:    0001822f    /...    DCD    98863
        0x00018148:    0001822f    /...    DCD    98863
        0x0001814c:    0001822f    /...    DCD    98863
        0x00018150:    0001822f    /...    DCD    98863
        0x00018154:    0001822f    /...    DCD    98863
        0x00018158:    0001822f    /...    DCD    98863
        0x0001815c:    0001822f    /...    DCD    98863
        0x00018160:    0001822f    /...    DCD    98863
        0x00018164:    0001822f    /...    DCD    98863
        0x00018168:    0001822f    /...    DCD    98863
        0x0001816c:    0001822f    /...    DCD    98863
        0x00018170:    0001822f    /...    DCD    98863
        0x00018174:    0001822f    /...    DCD    98863
        0x00018178:    0001822f    /...    DCD    98863
        0x0001817c:    0001822f    /...    DCD    98863
        0x00018180:    0001822f    /...    DCD    98863
        0x00018184:    0001822f    /...    DCD    98863
        0x00018188:    0001822f    /...    DCD    98863
        0x0001818c:    0001822f    /...    DCD    98863
    __Patchable
        0x00018190:    00000000    ....    DCD    0
        0x00018194:    00000000    ....    DCD    0
        0x00018198:    00000000    ....    DCD    0
        0x0001819c:    00000000    ....    DCD    0
        0x000181a0:    00000000    ....    DCD    0
        0x000181a4:    00000000    ....    DCD    0
        0x000181a8:    00000000    ....    DCD    0
        0x000181ac:    00000000    ....    DCD    0
        0x000181b0:    00000000    ....    DCD    0
        0x000181b4:    00000000    ....    DCD    0
        0x000181b8:    00000000    ....    DCD    0
        0x000181bc:    00000000    ....    DCD    0
        0x000181c0:    00000000    ....    DCD    0
        0x000181c4:    00000000    ....    DCD    0
        0x000181c8:    00000000    ....    DCD    0
        0x000181cc:    00000000    ....    DCD    0
        0x000181d0:    00000000    ....    DCD    0
        0x000181d4:    00000000    ....    DCD    0
        0x000181d8:    00000000    ....    DCD    0
        0x000181dc:    00000000    ....    DCD    0
        0x000181e0:    00000000    ....    DCD    0
        0x000181e4:    00000000    ....    DCD    0
        0x000181e8:    00000000    ....    DCD    0
        0x000181ec:    00000000    ....    DCD    0
        0x000181f0:    00000000    ....    DCD    0
        0x000181f4:    00000000    ....    DCD    0
        0x000181f8:    00000000    ....    DCD    0
        0x000181fc:    00000000    ....    DCD    0
    $t
    $v0
    Reset_Handler
        0x00018200:    f64e5088    N..P    MOV      r0,#0xed88
        0x00018204:    f2ce0000    ....    MOVT     r0,#0xe000
        0x00018208:    6801        .h      LDR      r1,[r0,#0]
        0x0001820a:    f4410170    A.p.    ORR      r1,r1,#0xf00000
        0x0001820e:    6001        .`      STR      r1,[r0,#0]
        0x00018210:    f3bf8f4f    ..O.    DSB      
        0x00018214:    f3bf8f6f    ..o.    ISB      
        0x00018218:    4805        .H      LDR      r0,[pc,#20] ; [0x18230] = 0x18235
        0x0001821a:    4700        .G      BX       r0
        0x0001821c:    e7fe        ..      B        0x1821c ; Reset_Handler + 28
    NMI_Handler
        0x0001821e:    e7fe        ..      B        NMI_Handler ; 0x1821e
    MemManage_Handler
        0x00018220:    e7fe        ..      B        MemManage_Handler ; 0x18220
    BusFault_Handler
        0x00018222:    e7fe        ..      B        BusFault_Handler ; 0x18222
    UsageFault_Handler
        0x00018224:    e7fe        ..      B        UsageFault_Handler ; 0x18224
    SVC_Handler
        0x00018226:    e7fe        ..      B        SVC_Handler ; 0x18226
    DebugMon_Handler
        0x00018228:    e7fe        ..      B        DebugMon_Handler ; 0x18228
    PendSV_Handler
        0x0001822a:    e7fe        ..      B        PendSV_Handler ; 0x1822a
    SysTick_Handler
        0x0001822c:    e7fe        ..      B        SysTick_Handler ; 0x1822c
    am_cryptosec_isr
    am_default_isr
    am_adc_isr
    am_audadc0_isr
    am_brownout_isr
    am_cachecpu_isr
    am_clkgen_isr
    am_ctimer_isr
    am_disp_isr
    am_dsi_isr
    am_dspi2s0_isr
    am_dspi2s1_isr
    am_dspi2s2_isr
    am_dspi2s3_isr
    am_gpio0_001f_isr
    am_gpio0_203f_isr
    am_gpio0_405f_isr
    am_gpio0_607f_isr
    am_gpio1_001f_isr
    am_gpio1_203f_isr
    am_gpio1_405f_isr
    am_gpio1_607f_isr
    am_gpu_isr
    am_iomaster0_isr
    am_iomaster1_isr
    am_iomaster2_isr
    am_iomaster3_isr
    am_iomaster4_isr
    am_iomaster5_isr
    am_iomaster6_isr
    am_iomaster7_isr
    am_ioslave_acc_isr
    am_ioslave_ios_isr
    am_mspi0_isr
    am_mspi1_isr
    am_mspi2_isr
    am_pdm0_isr
    am_pdm1_isr
    am_pdm2_isr
    am_pdm3_isr
    am_rtc_isr
    am_sdio_isr
    am_stimer_cmpr0_isr
    am_stimer_cmpr1_isr
    am_stimer_cmpr2_isr
    am_stimer_cmpr3_isr
    am_stimer_cmpr4_isr
    am_stimer_cmpr5_isr
    am_stimer_cmpr6_isr
    am_stimer_cmpr7_isr
    am_stimerof_isr
    am_timer00_isr
    am_timer01_isr
    am_timer02_isr
    am_timer03_isr
    am_timer04_isr
    am_timer05_isr
    am_timer06_isr
    am_timer07_isr
    am_timer08_isr
    am_timer09_isr
    am_timer10_isr
    am_timer11_isr
    am_timer12_isr
    am_timer13_isr
    am_timer14_isr
    am_timer15_isr
    am_uart1_isr
    am_uart2_isr
    am_uart3_isr
    am_uart_isr
    am_usb_isr
    am_vcomp_isr
    am_watchdog_isr
        0x0001822e:    e7fe        ..      B        am_cryptosec_isr ; 0x1822e
    $d
        0x00018230:    00018235    5...    DCD    98869
    $t
    !!!main
    __main
        0x00018234:    f000f802    ....    BL       __scatterload ; 0x1823c
        0x00018238:    f000f86a    ..j.    BL       __rt_entry ; 0x18310
    !!!scatter
    __scatterload
    __scatterload_rt2
    __scatterload_rt2_thumb_only
        0x0001823c:    a00a        ..      ADR      r0,{pc}+0x2c ; 0x18268
        0x0001823e:    e8900c00    ....    LDM      r0,{r10,r11}
        0x00018242:    4482        .D      ADD      r10,r10,r0
        0x00018244:    4483        .D      ADD      r11,r11,r0
        0x00018246:    f1aa0701    ....    SUB      r7,r10,#1
    __scatterload_null
        0x0001824a:    45da        .E      CMP      r10,r11
        0x0001824c:    d101        ..      BNE      0x18252 ; __scatterload_null + 8
        0x0001824e:    f000f85f    .._.    BL       __rt_entry ; 0x18310
        0x00018252:    f2af0e09    ....    ADR      lr,{pc}-7 ; 0x1824b
        0x00018256:    e8ba000f    ....    LDM      r10!,{r0-r3}
        0x0001825a:    f0130f01    ....    TST      r3,#1
        0x0001825e:    bf18        ..      IT       NE
        0x00018260:    1afb        ..      SUBNE    r3,r7,r3
        0x00018262:    f0430301    C...    ORR      r3,r3,#1
        0x00018266:    4718        .G      BX       r3
    $d
        0x00018268:    00002f6c    l/..    DCD    12140
        0x0001826c:    00002f9c    ./..    DCD    12188
    $t
    !!dczerorl2
    __decompress
    __decompress1
        0x00018270:    440a        .D      ADD      r2,r2,r1
        0x00018272:    f04f0c00    O...    MOV      r12,#0
        0x00018276:    f8103b01    ...;    LDRB     r3,[r0],#1
        0x0001827a:    f0130407    ....    ANDS     r4,r3,#7
        0x0001827e:    bf08        ..      IT       EQ
        0x00018280:    f8104b01    ...K    LDRBEQ   r4,[r0],#1
        0x00018284:    111d        ..      ASRS     r5,r3,#4
        0x00018286:    bf08        ..      IT       EQ
        0x00018288:    f8105b01    ...[    LDRBEQ   r5,[r0],#1
        0x0001828c:    1e64        d.      SUBS     r4,r4,#1
        0x0001828e:    d005        ..      BEQ      0x1829c ; __decompress + 44
        0x00018290:    f8106b01    ...k    LDRB     r6,[r0],#1
        0x00018294:    1e64        d.      SUBS     r4,r4,#1
        0x00018296:    f8016b01    ...k    STRB     r6,[r1],#1
        0x0001829a:    d1f9        ..      BNE      0x18290 ; __decompress + 32
        0x0001829c:    f0130f08    ....    TST      r3,#8
        0x000182a0:    bf1e        ..      ITTT     NE
        0x000182a2:    f8104b01    ...K    LDRBNE   r4,[r0],#1
        0x000182a6:    1cad        ..      ADDNE    r5,r5,#2
        0x000182a8:    1b0c        ..      SUBNE    r4,r1,r4
        0x000182aa:    d109        ..      BNE      0x182c0 ; __decompress + 80
        0x000182ac:    1e6d        m.      SUBS     r5,r5,#1
        0x000182ae:    bf58        X.      IT       PL
        0x000182b0:    f801cb01    ....    STRBPL   r12,[r1],#1
        0x000182b4:    d5fa        ..      BPL      0x182ac ; __decompress + 60
        0x000182b6:    e005        ..      B        0x182c4 ; __decompress + 84
        0x000182b8:    f8146b01    ...k    LDRB     r6,[r4],#1
        0x000182bc:    f8016b01    ...k    STRB     r6,[r1],#1
        0x000182c0:    1e6d        m.      SUBS     r5,r5,#1
        0x000182c2:    d5f9        ..      BPL      0x182b8 ; __decompress + 72
        0x000182c4:    4291        .B      CMP      r1,r2
        0x000182c6:    d3d6        ..      BCC      0x18276 ; __decompress + 6
        0x000182c8:    4770        pG      BX       lr
        0x000182ca:    0000        ..      MOVS     r0,r0
    !!handler_copy
    __scatterload_copy
        0x000182cc:    3a10        .:      SUBS     r2,r2,#0x10
        0x000182ce:    bf24        $.      ITT      CS
        0x000182d0:    c878        x.      LDMCS    r0!,{r3-r6}
        0x000182d2:    c178        x.      STMCS    r1!,{r3-r6}
        0x000182d4:    d8fa        ..      BHI      __scatterload_copy ; 0x182cc
        0x000182d6:    0752        R.      LSLS     r2,r2,#29
        0x000182d8:    bf24        $.      ITT      CS
        0x000182da:    c830        0.      LDMCS    r0!,{r4,r5}
        0x000182dc:    c130        0.      STMCS    r1!,{r4,r5}
        0x000182de:    bf44        D.      ITT      MI
        0x000182e0:    6804        .h      LDRMI    r4,[r0,#0]
        0x000182e2:    600c        .`      STRMI    r4,[r1,#0]
        0x000182e4:    4770        pG      BX       lr
        0x000182e6:    0000        ..      MOVS     r0,r0
    !!handler_zi
    __scatterload_zeroinit
        0x000182e8:    2300        .#      MOVS     r3,#0
        0x000182ea:    2400        .$      MOVS     r4,#0
        0x000182ec:    2500        .%      MOVS     r5,#0
        0x000182ee:    2600        .&      MOVS     r6,#0
        0x000182f0:    3a10        .:      SUBS     r2,r2,#0x10
        0x000182f2:    bf28        (.      IT       CS
        0x000182f4:    c178        x.      STMCS    r1!,{r3-r6}
        0x000182f6:    d8fb        ..      BHI      0x182f0 ; __scatterload_zeroinit + 8
        0x000182f8:    0752        R.      LSLS     r2,r2,#29
        0x000182fa:    bf28        (.      IT       CS
        0x000182fc:    c130        0.      STMCS    r1!,{r4,r5}
        0x000182fe:    bf48        H.      IT       MI
        0x00018300:    600b        .`      STRMI    r3,[r1,#0]
        0x00018302:    4770        pG      BX       lr
    .ARM.Collect$$libinit$$00000000
    __rt_lib_init
        0x00018304:    b51f        ..      PUSH     {r0-r4,lr}
    .ARM.Collect$$libinit$$00000001
    __rt_lib_init_fp_1
        0x00018306:    f002fdee    ....    BL       _fp_init ; 0x1aee6
    .ARM.Collect$$libinit$$00000004
    .ARM.Collect$$libinit$$0000000A
    .ARM.Collect$$libinit$$0000000C
    .ARM.Collect$$libinit$$0000000E
    .ARM.Collect$$libinit$$00000011
    .ARM.Collect$$libinit$$00000013
    .ARM.Collect$$libinit$$00000015
    .ARM.Collect$$libinit$$00000017
    .ARM.Collect$$libinit$$00000019
    .ARM.Collect$$libinit$$0000001B
    .ARM.Collect$$libinit$$0000001D
    .ARM.Collect$$libinit$$0000001F
    .ARM.Collect$$libinit$$00000021
    .ARM.Collect$$libinit$$00000023
    .ARM.Collect$$libinit$$00000025
    .ARM.Collect$$libinit$$0000002C
    .ARM.Collect$$libinit$$0000002E
    .ARM.Collect$$libinit$$00000030
    .ARM.Collect$$libinit$$00000032
    .ARM.Collect$$libinit$$00000033
    __rt_lib_init_alloca_1
    __rt_lib_init_argv_1
    __rt_lib_init_atexit_1
    __rt_lib_init_clock_1
    __rt_lib_init_cpp_1
    __rt_lib_init_exceptions_1
    __rt_lib_init_fp_trap_1
    __rt_lib_init_getenv_1
    __rt_lib_init_heap_1
    __rt_lib_init_lc_collate_1
    __rt_lib_init_lc_ctype_1
    __rt_lib_init_lc_monetary_1
    __rt_lib_init_lc_numeric_1
    __rt_lib_init_lc_time_1
    __rt_lib_init_preinit_1
    __rt_lib_init_rand_1
    __rt_lib_init_return
    __rt_lib_init_signal_1
    __rt_lib_init_stdio_1
    __rt_lib_init_user_alloc_1
        0x0001830a:    bd1f        ..      POP      {r0-r4,pc}
    .ARM.Collect$$libshutdown$$00000000
    __rt_lib_shutdown
        0x0001830c:    b510        ..      PUSH     {r4,lr}
    .ARM.Collect$$libshutdown$$00000002
    .ARM.Collect$$libshutdown$$00000004
    .ARM.Collect$$libshutdown$$00000007
    .ARM.Collect$$libshutdown$$0000000A
    .ARM.Collect$$libshutdown$$0000000C
    .ARM.Collect$$libshutdown$$0000000F
    .ARM.Collect$$libshutdown$$00000010
    __rt_lib_shutdown_cpp_1
    __rt_lib_shutdown_fp_trap_1
    __rt_lib_shutdown_heap_1
    __rt_lib_shutdown_return
    __rt_lib_shutdown_signal_1
    __rt_lib_shutdown_stdio_1
    __rt_lib_shutdown_user_alloc_1
        0x0001830e:    bd10        ..      POP      {r4,pc}
    .ARM.Collect$$rtentry$$00000000
    .ARM.Collect$$rtentry$$00000002
    .ARM.Collect$$rtentry$$00000004
    __rt_entry
    __rt_entry_presh_1
    __rt_entry_sh
        0x00018310:    f000f89a    ....    BL       __user_setup_stackheap ; 0x18448
        0x00018314:    4611        .F      MOV      r1,r2
    .ARM.Collect$$rtentry$$00000009
    .ARM.Collect$$rtentry$$0000000A
    __rt_entry_li
    __rt_entry_postsh_1
        0x00018316:    f7fffff5    ....    BL       __rt_lib_init ; 0x18304
    .ARM.Collect$$rtentry$$0000000C
    .ARM.Collect$$rtentry$$0000000D
    __rt_entry_main
    __rt_entry_postli_1
        0x0001831a:    f002f9c7    ....    BL       main ; 0x1a6ac
        0x0001831e:    f000f8b8    ....    BL       exit ; 0x18492
    .ARM.Collect$$rtexit$$00000000
    __rt_exit
        0x00018322:    b403        ..      PUSH     {r0,r1}
    .ARM.Collect$$rtexit$$00000002
    .ARM.Collect$$rtexit$$00000003
    __rt_exit_ls
    __rt_exit_prels_1
        0x00018324:    f7fffff2    ....    BL       __rt_lib_shutdown ; 0x1830c
    .ARM.Collect$$rtexit$$00000004
    __rt_exit_exit
        0x00018328:    bc03        ..      POP      {r0,r1}
        0x0001832a:    f000f8bf    ....    BL       _sys_exit ; 0x184ac
        0x0001832e:    0000        ..      MOVS     r0,r0
    .emb_text
    $v0
    HardFault_Handler
        0x00018330:    f01e0f04    ....    TST      lr,#4
        0x00018334:    bf0c        ..      ITE      EQ
        0x00018336:    f3ef8008    ....    MRSEQ    r0,MSP
        0x0001833a:    f3ef8009    ....    MRSNE    r0,PSP
        0x0001833e:    4904        .I      LDR      r1,[pc,#16] ; [0x18350] = 0x10000278
        0x00018340:    f5017100    ...q    ADD      r1,r1,#0x200
        0x00018344:    f0210103    !...    BIC      r1,r1,#3
        0x00018348:    468d        .F      MOV      sp,r1
        0x0001834a:    f001bcad    ....    B.W      am_util_faultisr_collect_data ; 0x19ca8
        0x0001834e:    bf00        ..      NOP      
    $d
        0x00018350:    10000278    x...    DCD    268436088
    $t
    getStackedReg
        0x00018354:    0080        ..      LSLS     r0,r0,#2
        0x00018356:    1840        @.      ADDS     r0,r0,r1
        0x00018358:    6800        .h      LDR      r0,[r0,#0]
        0x0001835a:    4770        pG      BX       lr
    .emb_text
    $v0
    am_hal_interrupt_master_enable
        0x0001835c:    f3ef8010    ....    MRS      r0,PRIMASK
        0x00018360:    b662        b.      CPSIE    i
        0x00018362:    4770        pG      BX       lr
    am_hal_interrupt_master_disable
        0x00018364:    f3ef8010    ....    MRS      r0,PRIMASK
        0x00018368:    b672        r.      CPSID    i
        0x0001836a:    4770        pG      BX       lr
    am_hal_interrupt_master_set
        0x0001836c:    f3808810    ....    MSR      PRIMASK,r0
        0x00018370:    4770        pG      BX       lr
        0x00018372:    0000        ..      MOVS     r0,r0
    .emb_text
    $v0
    am_hal_triple_read
        0x00018374:    b412        ..      PUSH     {r1,r4}
        0x00018376:    f3ef8410    ....    MRS      r4,PRIMASK
        0x0001837a:    b672        r.      CPSID    i
        0x0001837c:    6801        .h      LDR      r1,[r0,#0]
        0x0001837e:    6802        .h      LDR      r2,[r0,#0]
        0x00018380:    6803        .h      LDR      r3,[r0,#0]
        0x00018382:    f3848810    ....    MSR      PRIMASK,r4
        0x00018386:    bc11        ..      POP      {r0,r4}
        0x00018388:    6001        .`      STR      r1,[r0,#0]
        0x0001838a:    6042        B`      STR      r2,[r0,#4]
        0x0001838c:    6083        .`      STR      r3,[r0,#8]
        0x0001838e:    4770        pG      BX       lr
    .text
    $v0
    __user_initial_stackheap
        0x00018390:    4802        .H      LDR      r0,[pc,#8] ; [0x1839c] = 0x10000970
        0x00018392:    4903        .I      LDR      r1,[pc,#12] ; [0x183a0] = 0x10001970
        0x00018394:    4a01        .J      LDR      r2,[pc,#4] ; [0x1839c] = 0x10000970
        0x00018396:    4b03        .K      LDR      r3,[pc,#12] ; [0x183a4] = 0x10000970
        0x00018398:    4770        pG      BX       lr
    $d
        0x0001839a:    0000        ..      DCW    0
        0x0001839c:    10000970    p...    DCD    268437872
        0x000183a0:    10001970    p...    DCD    268441968
        0x000183a4:    10000970    p...    DCD    268437872
    $t
    .text
    __aeabi_llsl
    _ll_shift_l
        0x000183a8:    f1b20320    .. .    SUBS     r3,r2,#0x20
        0x000183ac:    d50a        ..      BPL      0x183c4 ; __aeabi_llsl + 28
        0x000183ae:    f1c20320    .. .    RSB      r3,r2,#0x20
        0x000183b2:    fa01f102    ....    LSL      r1,r1,r2
        0x000183b6:    fa20f303     ...    LSR      r3,r0,r3
        0x000183ba:    fa00f002    ....    LSL      r0,r0,r2
        0x000183be:    ea410103    A...    ORR      r1,r1,r3
        0x000183c2:    4770        pG      BX       lr
        0x000183c4:    fa00f103    ....    LSL      r1,r0,r3
        0x000183c8:    f04f0000    O...    MOV      r0,#0
        0x000183cc:    4770        pG      BX       lr
    .text
    __aeabi_llsr
    _ll_ushift_r
        0x000183ce:    f1b20320    .. .    SUBS     r3,r2,#0x20
        0x000183d2:    d50a        ..      BPL      0x183ea ; __aeabi_llsr + 28
        0x000183d4:    f1c20320    .. .    RSB      r3,r2,#0x20
        0x000183d8:    fa20f002     ...    LSR      r0,r0,r2
        0x000183dc:    fa01f303    ....    LSL      r3,r1,r3
        0x000183e0:    fa21f102    !...    LSR      r1,r1,r2
        0x000183e4:    ea400003    @...    ORR      r0,r0,r3
        0x000183e8:    4770        pG      BX       lr
        0x000183ea:    fa21f003    !...    LSR      r0,r1,r3
        0x000183ee:    f04f0100    O...    MOV      r1,#0
        0x000183f2:    4770        pG      BX       lr
    .text
    __aeabi_memclr4
    __aeabi_memclr8
    __rt_memclr_w
        0x000183f4:    f04f0200    O...    MOV      r2,#0
    _memset_w
        0x000183f8:    b500        ..      PUSH     {lr}
        0x000183fa:    4613        .F      MOV      r3,r2
        0x000183fc:    4694        .F      MOV      r12,r2
        0x000183fe:    4696        .F      MOV      lr,r2
        0x00018400:    3920         9      SUBS     r1,r1,#0x20
        0x00018402:    bf22        ".      ITTT     CS
        0x00018404:    e8a0500c    ...P    STMCS    r0!,{r2,r3,r12,lr}
        0x00018408:    e8a0500c    ...P    STMCS    r0!,{r2,r3,r12,lr}
        0x0001840c:    f1b10120    .. .    SUBSCS   r1,r1,#0x20
        0x00018410:    f4bfaff7    ....    BCS.W    0x18402 ; _memset_w + 10
        0x00018414:    0709        ..      LSLS     r1,r1,#28
        0x00018416:    bf28        (.      IT       CS
        0x00018418:    e8a0500c    ...P    STMCS    r0!,{r2,r3,r12,lr}
        0x0001841c:    bf48        H.      IT       MI
        0x0001841e:    c00c        ..      STMMI    r0!,{r2,r3}
        0x00018420:    f85deb04    ]...    POP      {lr}
        0x00018424:    0089        ..      LSLS     r1,r1,#2
        0x00018426:    bf28        (.      IT       CS
        0x00018428:    f8402b04    @..+    STRCS    r2,[r0],#4
        0x0001842c:    bf08        ..      IT       EQ
        0x0001842e:    4770        pG      BXEQ     lr
        0x00018430:    bf48        H.      IT       MI
        0x00018432:    f8202b02     ..+    STRHMI   r2,[r0],#2
        0x00018436:    f0114f80    ...O    TST      r1,#0x40000000
        0x0001843a:    bf18        ..      IT       NE
        0x0001843c:    f8002b01    ...+    STRBNE   r2,[r0],#1
        0x00018440:    4770        pG      BX       lr
    .text
    __use_two_region_memory
        0x00018442:    4770        pG      BX       lr
    __rt_heap_escrow$2region
        0x00018444:    4770        pG      BX       lr
    __rt_heap_expand$2region
        0x00018446:    4770        pG      BX       lr
    .text
    __user_setup_stackheap
        0x00018448:    4675        uF      MOV      r5,lr
        0x0001844a:    f000f82b    ..+.    BL       __user_libspace ; 0x184a4
        0x0001844e:    46ae        .F      MOV      lr,r5
        0x00018450:    0005        ..      MOVS     r5,r0
        0x00018452:    4669        iF      MOV      r1,sp
        0x00018454:    4653        SF      MOV      r3,r10
        0x00018456:    f0200007     ...    BIC      r0,r0,#7
        0x0001845a:    4685        .F      MOV      sp,r0
        0x0001845c:    b018        ..      ADD      sp,sp,#0x60
        0x0001845e:    b520         .      PUSH     {r5,lr}
        0x00018460:    f7ffff96    ....    BL       __user_initial_stackheap ; 0x18390
        0x00018464:    e8bd4020    .. @    POP      {r5,lr}
        0x00018468:    f04f0600    O...    MOV      r6,#0
        0x0001846c:    f04f0700    O...    MOV      r7,#0
        0x00018470:    f04f0800    O...    MOV      r8,#0
        0x00018474:    f04f0b00    O...    MOV      r11,#0
        0x00018478:    f0210107    !...    BIC      r1,r1,#7
        0x0001847c:    46ac        .F      MOV      r12,r5
        0x0001847e:    e8ac09c0    ....    STM      r12!,{r6-r8,r11}
        0x00018482:    e8ac09c0    ....    STM      r12!,{r6-r8,r11}
        0x00018486:    e8ac09c0    ....    STM      r12!,{r6-r8,r11}
        0x0001848a:    e8ac09c0    ....    STM      r12!,{r6-r8,r11}
        0x0001848e:    468d        .F      MOV      sp,r1
        0x00018490:    4770        pG      BX       lr
    .text
    exit
        0x00018492:    b510        ..      PUSH     {r4,lr}
        0x00018494:    4604        .F      MOV      r4,r0
        0x00018496:    f3af8000    ....    NOP.W    
        0x0001849a:    4620         F      MOV      r0,r4
        0x0001849c:    e8bd4010    ...@    POP      {r4,lr}
        0x000184a0:    f7ffbf3f    ..?.    B.W      __rt_exit ; 0x18322
    .text
    __user_libspace
    __user_perproc_libspace
    __user_perthread_libspace
        0x000184a4:    4800        .H      LDR      r0,[pc,#0] ; [0x184a8] = 0x1000090c
        0x000184a6:    4770        pG      BX       lr
    $d
        0x000184a8:    1000090c    ....    DCD    268437772
    $t
    .text
    _sys_exit
        0x000184ac:    4901        .I      LDR      r1,[pc,#4] ; [0x184b4] = 0x20026
        0x000184ae:    2018        .       MOVS     r0,#0x18
        0x000184b0:    beab        ..      BKPT     #0xab
        0x000184b2:    e7fe        ..      B        0x184b2 ; _sys_exit + 6
    $d
        0x000184b4:    00020026    &...    DCD    131110
    $t
    .text
    __I$use$semihosting
    __use_no_semihosting_swi
        0x000184b8:    4770        pG      BX       lr
    .text
    __semihosting_library_function
        0x000184ba:    0000        ..      MOVS     r0,r0
    i.VDDF_simobuck_boost
    VDDF_simobuck_boost
        0x000184bc:    e92d43f8    -..C    PUSH     {r3-r9,lr}
        0x000184c0:    4d2e        .M      LDR      r5,[pc,#184] ; [0x1857c] = 0x10000090
        0x000184c2:    4681        .F      MOV      r9,r0
        0x000184c4:    4c2e        .L      LDR      r4,[pc,#184] ; [0x18580] = 0x40020000
        0x000184c6:    68a8        .h      LDR      r0,[r5,#8]
        0x000184c8:    4616        .F      MOV      r6,r2
        0x000184ca:    4688        .F      MOV      r8,r1
        0x000184cc:    f1b03fff    ...?    CMP      r0,#0xffffffff
        0x000184d0:    d104        ..      BNE      0x184dc ; VDDF_simobuck_boost + 32
        0x000184d2:    f8d4036c    ..l.    LDR      r0,[r4,#0x36c]
        0x000184d6:    f3c05005    ...P    UBFX     r0,r0,#20,#6
        0x000184da:    60a8        .`      STR      r0,[r5,#8]
        0x000184dc:    e9d50701    ....    LDRD     r0,r7,[r5,#4]
        0x000184e0:    f1b03fff    ...?    CMP      r0,#0xffffffff
        0x000184e4:    d10d        ..      BNE      0x18502 ; VDDF_simobuck_boost + 70
        0x000184e6:    2201        ."      MOVS     r2,#1
        0x000184e8:    4b26        &K      LDR      r3,[pc,#152] ; [0x18584] = 0x10000094
        0x000184ea:    f24041c4    @..A    MOV      r1,#0x4c4
        0x000184ee:    4610        .F      MOV      r0,r2
        0x000184f0:    f000fb46    ..F.    BL       am_hal_mram_info_read ; 0x18b80
        0x000184f4:    b918        ..      CBNZ     r0,0x184fe ; VDDF_simobuck_boost + 66
        0x000184f6:    6868        hh      LDR      r0,[r5,#4]
        0x000184f8:    f1b03fff    ...?    CMP      r0,#0xffffffff
        0x000184fc:    d101        ..      BNE      0x18502 ; VDDF_simobuck_boost + 70
        0x000184fe:    2000        .       MOVS     r0,#0
        0x00018500:    6068        h`      STR      r0,[r5,#4]
        0x00018502:    6868        hh      LDR      r0,[r5,#4]
        0x00018504:    f1b90f00    ....    CMP      r9,#0
        0x00018508:    d02c        ,.      BEQ      0x18564 ; VDDF_simobuck_boost + 168
        0x0001850a:    68e1        .h      LDR      r1,[r4,#0xc]
        0x0001850c:    b2c9        ..      UXTB     r1,r1
        0x0001850e:    2922        ")      CMP      r1,#0x22
        0x00018510:    d325        %.      BCC      0x1855e ; VDDF_simobuck_boost + 162
        0x00018512:    f1080103    ....    ADD      r1,r8,#3
        0x00018516:    2806        .(      CMP      r0,#6
        0x00018518:    bf28        (.      IT       CS
        0x0001851a:    460e        .F      MOVCS    r6,r1
        0x0001851c:    f1c6003f    ..?.    RSB      r0,r6,#0x3f
        0x00018520:    42b8        .B      CMP      r0,r7
        0x00018522:    bf2c        ,.      ITE      CS
        0x00018524:    19bd        ..      ADDCS    r5,r7,r6
        0x00018526:    253f        ?%      MOVCC    r5,#0x3f
        0x00018528:    f8d4036c    ..l.    LDR      r0,[r4,#0x36c]
        0x0001852c:    f3c05005    ...P    UBFX     r0,r0,#20,#6
        0x00018530:    42a8        .B      CMP      r0,r5
        0x00018532:    d014        ..      BEQ      0x1855e ; VDDF_simobuck_boost + 162
        0x00018534:    f7ffff16    ....    BL       am_hal_interrupt_master_disable ; 0x18364
        0x00018538:    9000        ..      STR      r0,[sp,#0]
        0x0001853a:    f8d40378    ..x.    LDR      r0,[r4,#0x378]
        0x0001853e:    f0404000    @..@    ORR      r0,r0,#0x80000000
        0x00018542:    f8c40378    ..x.    STR      r0,[r4,#0x378]
        0x00018546:    f8d4036c    ..l.    LDR      r0,[r4,#0x36c]
        0x0001854a:    f3655019    e..P    BFI      r0,r5,#20,#6
        0x0001854e:    f8c4036c    ..l.    STR      r0,[r4,#0x36c]
        0x00018552:    2014        .       MOVS     r0,#0x14
        0x00018554:    f000fa0c    ....    BL       am_hal_delay_us ; 0x18970
        0x00018558:    9800        ..      LDR      r0,[sp,#0]
        0x0001855a:    f7ffff07    ....    BL       am_hal_interrupt_master_set ; 0x1836c
        0x0001855e:    2000        .       MOVS     r0,#0
        0x00018560:    e8bd83f8    ....    POP      {r3-r9,pc}
        0x00018564:    2806        .(      CMP      r0,#6
        0x00018566:    bf2c        ,.      ITE      CS
        0x00018568:    2003        .       MOVCS    r0,#3
        0x0001856a:    2000        .       MOVCC    r0,#0
        0x0001856c:    19c5        ..      ADDS     r5,r0,r7
        0x0001856e:    f8d4036c    ..l.    LDR      r0,[r4,#0x36c]
        0x00018572:    f3c05005    ...P    UBFX     r0,r0,#20,#6
        0x00018576:    42a8        .B      CMP      r0,r5
        0x00018578:    d0f1        ..      BEQ      0x1855e ; VDDF_simobuck_boost + 162
        0x0001857a:    e7db        ..      B        0x18534 ; VDDF_simobuck_boost + 120
    $d
        0x0001857c:    10000090    ....    DCD    268435600
        0x00018580:    40020000    ...@    DCD    1073872896
        0x00018584:    10000094    ....    DCD    268435604
    $t
    i.am_bsp_itm_printf_enable
    am_bsp_itm_printf_enable
        0x00018588:    4817        .H      LDR      r0,[pc,#92] ; [0x185e8] = 0x40021000
        0x0001858a:    b500        ..      PUSH     {lr}
        0x0001858c:    6880        .h      LDR      r0,[r0,#8]
        0x0001858e:    b083        ..      SUB      sp,sp,#0xc
        0x00018590:    f4101f80    ....    TST      r0,#0x100000
        0x00018594:    d010        ..      BEQ      0x185b8 ; am_bsp_itm_printf_enable + 48
        0x00018596:    4815        .H      LDR      r0,[pc,#84] ; [0x185ec] = 0x400c0a7c
        0x00018598:    6800        .h      LDR      r0,[r0,#0]
        0x0001859a:    f0100f01    ....    TST      r0,#1
        0x0001859e:    d00b        ..      BEQ      0x185b8 ; am_bsp_itm_printf_enable + 48
        0x000185a0:    4668        hF      MOV      r0,sp
        0x000185a2:    f000f92b    ..+.    BL       am_hal_dcu_get ; 0x187fc
        0x000185a6:    9800        ..      LDR      r0,[sp,#0]
        0x000185a8:    f0100f10    ....    TST      r0,#0x10
        0x000185ac:    d108        ..      BNE      0x185c0 ; am_bsp_itm_printf_enable + 56
        0x000185ae:    2110        .!      MOVS     r1,#0x10
        0x000185b0:    2001        .       MOVS     r0,#1
        0x000185b2:    f000f96b    ..k.    BL       am_hal_dcu_update ; 0x1888c
        0x000185b6:    b118        ..      CBZ      r0,0x185c0 ; am_bsp_itm_printf_enable + 56
        0x000185b8:    b003        ..      ADD      sp,sp,#0xc
        0x000185ba:    f04f30ff    O..0    MOV      r0,#0xffffffff
        0x000185be:    bd00        ..      POP      {pc}
        0x000185c0:    490b        .I      LDR      r1,[pc,#44] ; [0x185f0] = 0x10000008
        0x000185c2:    2001        .       MOVS     r0,#1
        0x000185c4:    7008        .p      STRB     r0,[r1,#0]
        0x000185c6:    f000fa91    ....    BL       am_hal_itm_enable ; 0x18aec
        0x000185ca:    480a        .H      LDR      r0,[pc,#40] ; [0x185f4] = 0xf4240
        0x000185cc:    f001fa96    ....    BL       am_hal_tpiu_enable ; 0x19afc
        0x000185d0:    4809        .H      LDR      r0,[pc,#36] ; [0x185f8] = 0x100000d0
        0x000185d2:    6801        .h      LDR      r1,[r0,#0]
        0x000185d4:    9101        ..      STR      r1,[sp,#4]
        0x000185d6:    201c        .       MOVS     r0,#0x1c
        0x000185d8:    f000fa5e    ..^.    BL       am_hal_gpio_pinconfig ; 0x18a98
        0x000185dc:    4807        .H      LDR      r0,[pc,#28] ; [0x185fc] = 0x18b35
        0x000185de:    f001fbe1    ....    BL       am_util_stdio_printf_init ; 0x19da4
        0x000185e2:    b003        ..      ADD      sp,sp,#0xc
        0x000185e4:    2000        .       MOVS     r0,#0
        0x000185e6:    bd00        ..      POP      {pc}
    $d
        0x000185e8:    40021000    ...@    DCD    1073876992
        0x000185ec:    400c0a7c    |..@    DCD    1074530940
        0x000185f0:    10000008    ....    DCD    268435464
        0x000185f4:    000f4240    @B..    DCD    1000000
        0x000185f8:    100000d0    ....    DCD    268435664
        0x000185fc:    00018b35    5...    DCD    101173
    $t
    i.am_bsp_low_power_init
    am_bsp_low_power_init
        0x00018600:    b510        ..      PUSH     {r4,lr}
        0x00018602:    f000fd1b    ....    BL       am_hal_pwrctrl_low_power_init ; 0x1903c
        0x00018606:    2100        .!      MOVS     r1,#0
        0x00018608:    4608        .F      MOV      r0,r1
        0x0001860a:    f000fb03    ....    BL       am_hal_pwrctrl_control ; 0x18c14
        0x0001860e:    e8bd4010    ...@    POP      {r4,lr}
        0x00018612:    f001b805    ....    B.W      am_hal_rtc_osc_disable ; 0x19620
    i.am_hal_cachectrl_config
    am_hal_cachectrl_config
        0x00018616:    b538        8.      PUSH     {r3-r5,lr}
        0x00018618:    4604        .F      MOV      r4,r0
        0x0001861a:    f7fffea3    ....    BL       am_hal_interrupt_master_disable ; 0x18364
        0x0001861e:    f04f4590    O..E    MOV      r5,#0x48000000
        0x00018622:    9000        ..      STR      r0,[sp,#0]
        0x00018624:    6828        (h      LDR      r0,[r5,#0]
        0x00018626:    f4207040     .@p    BIC      r0,r0,#0x300
        0x0001862a:    6028        (`      STR      r0,[r5,#0]
        0x0001862c:    9800        ..      LDR      r0,[sp,#0]
        0x0001862e:    f7fffe9d    ....    BL       am_hal_interrupt_master_set ; 0x1836c
        0x00018632:    78a0        .x      LDRB     r0,[r4,#2]
        0x00018634:    2102        .!      MOVS     r1,#2
        0x00018636:    ea010040    ..@.    AND      r0,r1,r0,LSL #1
        0x0001863a:    7821        !x      LDRB     r1,[r4,#0]
        0x0001863c:    22f0        ."      MOVS     r2,#0xf0
        0x0001863e:    ea021101    ....    AND      r1,r2,r1,LSL #4
        0x00018642:    4308        .C      ORRS     r0,r0,r1
        0x00018644:    7861        ax      LDRB     r1,[r4,#1]
        0x00018646:    f44f7240    O.@r    MOV      r2,#0x300
        0x0001864a:    ea022101    ...!    AND      r1,r2,r1,LSL #8
        0x0001864e:    4308        .C      ORRS     r0,r0,r1
        0x00018650:    f4406080    @..`    ORR      r0,r0,#0x400
        0x00018654:    f4401080    @...    ORR      r0,r0,#0x100000
        0x00018658:    6028        (`      STR      r0,[r5,#0]
        0x0001865a:    2000        .       MOVS     r0,#0
        0x0001865c:    bd38        8.      POP      {r3-r5,pc}
    i.am_hal_cachectrl_enable
    am_hal_cachectrl_enable
        0x0001865e:    f04f4090    O..@    MOV      r0,#0x48000000
        0x00018662:    6801        .h      LDR      r1,[r0,#0]
        0x00018664:    f0410101    A...    ORR      r1,r1,#1
        0x00018668:    6001        .`      STR      r1,[r0,#0]
        0x0001866a:    6881        .h      LDR      r1,[r0,#8]
        0x0001866c:    f0410101    A...    ORR      r1,r1,#1
        0x00018670:    6081        .`      STR      r1,[r0,#8]
        0x00018672:    2000        .       MOVS     r0,#0
        0x00018674:    4770        pG      BX       lr
        0x00018676:    0000        ..      MOVS     r0,r0
    i.am_hal_daxi_config
    am_hal_daxi_config
        0x00018678:    2800        .(      CMP      r0,#0
        0x0001867a:    bf04        ..      ITT      EQ
        0x0001867c:    2006        .       MOVEQ    r0,#6
        0x0001867e:    4770        pG      BXEQ     lr
        0x00018680:    b538        8.      PUSH     {r3-r5,lr}
        0x00018682:    4604        .F      MOV      r4,r0
        0x00018684:    7880        .x      LDRB     r0,[r0,#2]
        0x00018686:    b910        ..      CBNZ     r0,0x1868e ; am_hal_daxi_config + 22
        0x00018688:    7860        `x      LDRB     r0,[r4,#1]
        0x0001868a:    2801        .(      CMP      r0,#1
        0x0001868c:    d901        ..      BLS      0x18692 ; am_hal_daxi_config + 26
        0x0001868e:    2006        .       MOVS     r0,#6
        0x00018690:    bd38        8.      POP      {r3-r5,pc}
        0x00018692:    f7fffe67    ..g.    BL       am_hal_interrupt_master_disable ; 0x18364
        0x00018696:    9000        ..      STR      r0,[sp,#0]
        0x00018698:    2100        .!      MOVS     r1,#0
        0x0001869a:    2002        .       MOVS     r0,#2
        0x0001869c:    f000f818    ....    BL       am_hal_daxi_control ; 0x186d0
        0x000186a0:    78a0        .x      LDRB     r0,[r4,#2]
        0x000186a2:    7861        ax      LDRB     r1,[r4,#1]
        0x000186a4:    f44f7240    O.@r    MOV      r2,#0x300
        0x000186a8:    f0000001    ....    AND      r0,r0,#1
        0x000186ac:    ea022101    ...!    AND      r1,r2,r1,LSL #8
        0x000186b0:    4308        .C      ORRS     r0,r0,r1
        0x000186b2:    7821        !x      LDRB     r1,[r4,#0]
        0x000186b4:    ea404001    @..@    ORR      r0,r0,r1,LSL #16
        0x000186b8:    f04f4190    O..A    MOV      r1,#0x48000000
        0x000186bc:    6508        .e      STR      r0,[r1,#0x50]
        0x000186be:    4803        .H      LDR      r0,[pc,#12] ; [0x186cc] = 0x47ff0000
        0x000186c0:    6800        .h      LDR      r0,[r0,#0]
        0x000186c2:    9800        ..      LDR      r0,[sp,#0]
        0x000186c4:    f7fffe52    ..R.    BL       am_hal_interrupt_master_set ; 0x1836c
        0x000186c8:    2000        .       MOVS     r0,#0
        0x000186ca:    bd38        8.      POP      {r3-r5,pc}
    $d
        0x000186cc:    47ff0000    ...G    DCD    1207894016
    $t
    i.am_hal_daxi_control
    am_hal_daxi_control
        0x000186d0:    e92d43f8    -..C    PUSH     {r3-r9,lr}
        0x000186d4:    4d45        EM      LDR      r5,[pc,#276] ; [0x187ec] = 0x47ff0000
        0x000186d6:    f04f4690    O..F    MOV      r6,#0x48000000
        0x000186da:    2801        .(      CMP      r0,#1
        0x000186dc:    d050        P.      BEQ      0x18780 ; am_hal_daxi_control + 176
        0x000186de:    4c44        DL      LDR      r4,[pc,#272] ; [0x187f0] = 0x10000024
        0x000186e0:    2802        .(      CMP      r0,#2
        0x000186e2:    d002        ..      BEQ      0x186ea ; am_hal_daxi_control + 26
        0x000186e4:    2803        .(      CMP      r0,#3
        0x000186e6:    d053        S.      BEQ      0x18790 ; am_hal_daxi_control + 192
        0x000186e8:    e056        V.      B        0x18798 ; am_hal_daxi_control + 200
        0x000186ea:    f7fffe3b    ..;.    BL       am_hal_interrupt_master_disable ; 0x18364
        0x000186ee:    9000        ..      STR      r0,[sp,#0]
        0x000186f0:    f3bf8f4f    ..O.    DSB      
        0x000186f4:    6d70        pm      LDR      r0,[r6,#0x54]
        0x000186f6:    f0400001    @...    ORR      r0,r0,#1
        0x000186fa:    6570        pe      STR      r0,[r6,#0x54]
        0x000186fc:    6828        (h      LDR      r0,[r5,#0]
        0x000186fe:    6d70        pm      LDR      r0,[r6,#0x54]
        0x00018700:    f0400002    @...    ORR      r0,r0,#2
        0x00018704:    6570        pe      STR      r0,[r6,#0x54]
        0x00018706:    6828        (h      LDR      r0,[r5,#0]
        0x00018708:    6820         h      LDR      r0,[r4,#0]
        0x0001870a:    2800        .(      CMP      r0,#0
        0x0001870c:    d034        4.      BEQ      0x18778 ; am_hal_daxi_control + 168
        0x0001870e:    68a1        .h      LDR      r1,[r4,#8]
        0x00018710:    6809        .h      LDR      r1,[r1,#0]
        0x00018712:    6862        bh      LDR      r2,[r4,#4]
        0x00018714:    ea320101    2...    BICS     r1,r2,r1
        0x00018718:    d12e        ..      BNE      0x18778 ; am_hal_daxi_control + 168
        0x0001871a:    4936        6I      LDR      r1,[pc,#216] ; [0x187f4] = 0x10000254
        0x0001871c:    6809        .h      LDR      r1,[r1,#0]
        0x0001871e:    b1c9        ..      CBZ      r1,0x18754 ; am_hal_daxi_control + 132
        0x00018720:    2100        .!      MOVS     r1,#0
        0x00018722:    6001        .`      STR      r1,[r0,#0]
        0x00018724:    6101        .a      STR      r1,[r0,#0x10]
        0x00018726:    6201        .b      STR      r1,[r0,#0x20]
        0x00018728:    6301        .c      STR      r1,[r0,#0x30]
        0x0001872a:    f3bf8f4f    ..O.    DSB      
        0x0001872e:    6d70        pm      LDR      r0,[r6,#0x54]
        0x00018730:    f0400001    @...    ORR      r0,r0,#1
        0x00018734:    6570        pe      STR      r0,[r6,#0x54]
        0x00018736:    6828        (h      LDR      r0,[r5,#0]
        0x00018738:    6d70        pm      LDR      r0,[r6,#0x54]
        0x0001873a:    f0400002    @...    ORR      r0,r0,#2
        0x0001873e:    6570        pe      STR      r0,[r6,#0x54]
        0x00018740:    6828        (h      LDR      r0,[r5,#0]
        0x00018742:    f8d41000    ....    LDR.W    r1,[r4,#0]
        0x00018746:    2000        .       MOVS     r0,#0
        0x00018748:    eb011200    ....    ADD      r2,r1,r0,LSL #4
        0x0001874c:    6812        .h      LDR      r2,[r2,#0]
        0x0001874e:    1c40        @.      ADDS     r0,r0,#1
        0x00018750:    2804        .(      CMP      r0,#4
        0x00018752:    d3f9        ..      BCC      0x18748 ; am_hal_daxi_control + 120
        0x00018754:    6820         h      LDR      r0,[r4,#0]
        0x00018756:    2100        .!      MOVS     r1,#0
        0x00018758:    6802        .h      LDR      r2,[r0,#0]
        0x0001875a:    6802        .h      LDR      r2,[r0,#0]
        0x0001875c:    6802        .h      LDR      r2,[r0,#0]
        0x0001875e:    6802        .h      LDR      r2,[r0,#0]
        0x00018760:    6802        .h      LDR      r2,[r0,#0]
        0x00018762:    6802        .h      LDR      r2,[r0,#0]
        0x00018764:    1c49        I.      ADDS     r1,r1,#1
        0x00018766:    291e        .)      CMP      r1,#0x1e
        0x00018768:    d3f6        ..      BCC      0x18758 ; am_hal_daxi_control + 136
        0x0001876a:    f3bf8f4f    ..O.    DSB      
        0x0001876e:    6d70        pm      LDR      r0,[r6,#0x54]
        0x00018770:    f0400002    @...    ORR      r0,r0,#2
        0x00018774:    6570        pe      STR      r0,[r6,#0x54]
        0x00018776:    6828        (h      LDR      r0,[r5,#0]
        0x00018778:    9800        ..      LDR      r0,[sp,#0]
        0x0001877a:    f7fffdf7    ....    BL       am_hal_interrupt_master_set ; 0x1836c
        0x0001877e:    e032        2.      B        0x187e6 ; am_hal_daxi_control + 278
        0x00018780:    f3bf8f4f    ..O.    DSB      
        0x00018784:    6d70        pm      LDR      r0,[r6,#0x54]
        0x00018786:    f0400002    @...    ORR      r0,r0,#2
        0x0001878a:    6570        pe      STR      r0,[r6,#0x54]
        0x0001878c:    6828        (h      LDR      r0,[r5,#0]
        0x0001878e:    e02a        *.      B        0x187e6 ; am_hal_daxi_control + 278
        0x00018790:    b111        ..      CBZ      r1,0x18798 ; am_hal_daxi_control + 200
        0x00018792:    f0110f0f    ....    TST      r1,#0xf
        0x00018796:    d002        ..      BEQ      0x1879e ; am_hal_daxi_control + 206
        0x00018798:    2006        .       MOVS     r0,#6
        0x0001879a:    e8bd83f8    ....    POP      {r3-r9,pc}
        0x0001879e:    e9d47501    ...u    LDRD     r7,r5,[r4,#4]
        0x000187a2:    4e15        .N      LDR      r6,[pc,#84] ; [0x187f8] = 0x10000030
        0x000187a4:    f8d4c000    ....    LDR      r12,[r4,#0]
        0x000187a8:    2000        .       MOVS     r0,#0
        0x000187aa:    f1010840    ..@.    ADD      r8,r1,#0x40
        0x000187ae:    bf00        ..      NOP      
        0x000187b0:    eb061200    ....    ADD      r2,r6,r0,LSL #4
        0x000187b4:    6813        .h      LDR      r3,[r2,#0]
        0x000187b6:    428b        .B      CMP      r3,r1
        0x000187b8:    d80a        ..      BHI      0x187d0 ; am_hal_daxi_control + 256
        0x000187ba:    f8d29004    ....    LDR      r9,[r2,#4]
        0x000187be:    444b        KD      ADD      r3,r3,r9
        0x000187c0:    4598        .E      CMP      r8,r3
        0x000187c2:    d205        ..      BCS      0x187d0 ; am_hal_daxi_control + 256
        0x000187c4:    eb061300    ....    ADD      r3,r6,r0,LSL #4
        0x000187c8:    468c        .F      MOV      r12,r1
        0x000187ca:    689d        .h      LDR      r5,[r3,#8]
        0x000187cc:    68d7        .h      LDR      r7,[r2,#0xc]
        0x000187ce:    e002        ..      B        0x187d6 ; am_hal_daxi_control + 262
        0x000187d0:    1c40        @.      ADDS     r0,r0,#1
        0x000187d2:    2806        .(      CMP      r0,#6
        0x000187d4:    d3ec        ..      BCC      0x187b0 ; am_hal_daxi_control + 224
        0x000187d6:    f8c4c000    ....    STR      r12,[r4,#0]
        0x000187da:    e9c47501    ...u    STRD     r7,r5,[r4,#4]
        0x000187de:    2806        .(      CMP      r0,#6
        0x000187e0:    bf08        ..      IT       EQ
        0x000187e2:    e8bd83f8    ....    POPEQ    {r3-r9,pc}
        0x000187e6:    2000        .       MOVS     r0,#0
        0x000187e8:    e8bd83f8    ....    POP      {r3-r9,pc}
    $d
        0x000187ec:    47ff0000    ...G    DCD    1207894016
        0x000187f0:    10000024    $...    DCD    268435492
        0x000187f4:    10000254    T...    DCD    268436052
        0x000187f8:    10000030    0...    DCD    268435504
    $t
    i.am_hal_dcu_get
    am_hal_dcu_get
        0x000187fc:    e92d43f0    -..C    PUSH     {r4-r9,lr}
        0x00018800:    4680        .F      MOV      r8,r0
        0x00018802:    481f        .H      LDR      r0,[pc,#124] ; [0x18880] = 0x40021000
        0x00018804:    b083        ..      SUB      sp,sp,#0xc
        0x00018806:    6880        .h      LDR      r0,[r0,#8]
        0x00018808:    f4101f80    ....    TST      r0,#0x100000
        0x0001880c:    d023        #.      BEQ      0x18856 ; am_hal_dcu_get + 90
        0x0001880e:    481d        .H      LDR      r0,[pc,#116] ; [0x18884] = 0x400c0a7c
        0x00018810:    6800        .h      LDR      r0,[r0,#0]
        0x00018812:    f0100f01    ....    TST      r0,#1
        0x00018816:    d01e        ..      BEQ      0x18856 ; am_hal_dcu_get + 90
        0x00018818:    f8df906c    ..l.    LDR      r9,[pc,#108] ; [0x18888] = 0x10000258
        0x0001881c:    4668        hF      MOV      r0,sp
        0x0001881e:    2202        ."      MOVS     r2,#2
        0x00018820:    f8d91004    ....    LDR      r1,[r9,#4]
        0x00018824:    f001fd7a    ..z.    BL       copy_words ; 0x1a31c
        0x00018828:    e9dd0100    ....    LDRD     r0,r1,[sp,#0]
        0x0001882c:    2400        .$      MOVS     r4,#0
        0x0001882e:    4627        'F      MOV      r7,r4
        0x00018830:    2605        .&      MOVS     r6,#5
        0x00018832:    4625        %F      MOV      r5,r4
        0x00018834:    f8d92000    ...     LDR      r2,[r9,#0]
        0x00018838:    f7fffdc9    ....    BL       __aeabi_llsr ; 0x183ce
        0x0001883c:    2214        ."      MOVS     r2,#0x14
        0x0001883e:    f04f0c01    O...    MOV      r12,#1
        0x00018842:    bf00        ..      NOP      
        0x00018844:    f0000307    ....    AND      r3,r0,#7
        0x00018848:    4073        s@      EORS     r3,r3,r6
        0x0001884a:    ea840904    ....    EOR      r9,r4,r4
        0x0001884e:    ea530309    S...    ORRS     r3,r3,r9
        0x00018852:    d109        ..      BNE      0x18868 ; am_hal_dcu_get + 108
        0x00018854:    e003        ..      B        0x1885e ; am_hal_dcu_get + 98
        0x00018856:    b003        ..      ADD      sp,sp,#0xc
        0x00018858:    2007        .       MOVS     r0,#7
        0x0001885a:    e8bd83f0    ....    POP      {r4-r9,pc}
        0x0001885e:    f1c20314    ....    RSB      r3,r2,#0x14
        0x00018862:    fa0cf303    ....    LSL      r3,r12,r3
        0x00018866:    431d        .C      ORRS     r5,r5,r3
        0x00018868:    08c0        ..      LSRS     r0,r0,#3
        0x0001886a:    ea407041    @.Ap    ORR      r0,r0,r1,LSL #29
        0x0001886e:    08c9        ..      LSRS     r1,r1,#3
        0x00018870:    1e52        R.      SUBS     r2,r2,#1
        0x00018872:    d1e7        ..      BNE      0x18844 ; am_hal_dcu_get + 72
        0x00018874:    f8c85000    ...P    STR      r5,[r8,#0]
        0x00018878:    b003        ..      ADD      sp,sp,#0xc
        0x0001887a:    4638        8F      MOV      r0,r7
        0x0001887c:    e8bd83f0    ....    POP      {r4-r9,pc}
    $d
        0x00018880:    40021000    ...@    DCD    1073876992
        0x00018884:    400c0a7c    |..@    DCD    1074530940
        0x00018888:    10000258    X...    DCD    268436056
    $t
    i.am_hal_dcu_update
    am_hal_dcu_update
        0x0001888c:    e92d4ff0    -..O    PUSH     {r4-r11,lr}
        0x00018890:    4681        .F      MOV      r9,r0
        0x00018892:    4834        4H      LDR      r0,[pc,#208] ; [0x18964] = 0x40021000
        0x00018894:    b085        ..      SUB      sp,sp,#0x14
        0x00018896:    6880        .h      LDR      r0,[r0,#8]
        0x00018898:    f4101f80    ....    TST      r0,#0x100000
        0x0001889c:    d02a        *.      BEQ      0x188f4 ; am_hal_dcu_update + 104
        0x0001889e:    f8dfa0c8    ....    LDR      r10,[pc,#200] ; [0x18968] = 0x400c0a7c
        0x000188a2:    f8da0000    ....    LDR      r0,[r10,#0]
        0x000188a6:    f0100f01    ....    TST      r0,#1
        0x000188aa:    d023        #.      BEQ      0x188f4 ; am_hal_dcu_update + 104
        0x000188ac:    f8df80bc    ....    LDR      r8,[pc,#188] ; [0x1896c] = 0x10000258
        0x000188b0:    2700        .'      MOVS     r7,#0
        0x000188b2:    084d        M.      LSRS     r5,r1,#1
        0x000188b4:    f8d8b000    ....    LDR      r11,[r8,#0]
        0x000188b8:    463e        >F      MOV      r6,r7
        0x000188ba:    2414        .$      MOVS     r4,#0x14
        0x000188bc:    f0150f01    ....    TST      r5,#1
        0x000188c0:    d006        ..      BEQ      0x188d0 ; am_hal_dcu_update + 68
        0x000188c2:    465a        ZF      MOV      r2,r11
        0x000188c4:    2007        .       MOVS     r0,#7
        0x000188c6:    2100        .!      MOVS     r1,#0
        0x000188c8:    f7fffd6e    ..n.    BL       __aeabi_llsl ; 0x183a8
        0x000188cc:    4307        .C      ORRS     r7,r7,r0
        0x000188ce:    430e        .C      ORRS     r6,r6,r1
        0x000188d0:    086d        m.      LSRS     r5,r5,#1
        0x000188d2:    1e64        d.      SUBS     r4,r4,#1
        0x000188d4:    f10b0b03    ....    ADD      r11,r11,#3
        0x000188d8:    2c00        .,      CMP      r4,#0
        0x000188da:    dcef        ..      BGT      0x188bc ; am_hal_dcu_update + 48
        0x000188dc:    2202        ."      MOVS     r2,#2
        0x000188de:    a802        ..      ADD      r0,sp,#8
        0x000188e0:    f8d81008    ....    LDR      r1,[r8,#8]
        0x000188e4:    f001fd1a    ....    BL       copy_words ; 0x1a31c
        0x000188e8:    e9dd1002    ....    LDRD     r1,r0,[sp,#8]
        0x000188ec:    4039        9@      ANDS     r1,r1,r7
        0x000188ee:    4030        0@      ANDS     r0,r0,r6
        0x000188f0:    4308        .C      ORRS     r0,r0,r1
        0x000188f2:    d003        ..      BEQ      0x188fc ; am_hal_dcu_update + 112
        0x000188f4:    b005        ..      ADD      sp,sp,#0x14
        0x000188f6:    2007        .       MOVS     r0,#7
        0x000188f8:    e8bd8ff0    ....    POP      {r4-r11,pc}
        0x000188fc:    2202        ."      MOVS     r2,#2
        0x000188fe:    4668        hF      MOV      r0,sp
        0x00018900:    f8d81004    ....    LDR      r1,[r8,#4]
        0x00018904:    f001fd0a    ....    BL       copy_words ; 0x1a31c
        0x00018908:    f1b90f00    ....    CMP      r9,#0
        0x0001890c:    d00d        ..      BEQ      0x1892a ; am_hal_dcu_update + 158
        0x0001890e:    e9dd1000    ....    LDRD     r1,r0,[sp,#0]
        0x00018912:    ea210207    !...    BIC      r2,r1,r7
        0x00018916:    e9d83104    ...1    LDRD     r3,r1,[r8,#0x10]
        0x0001891a:    403b        ;@      ANDS     r3,r3,r7
        0x0001891c:    43b0        .C      BICS     r0,r0,r6
        0x0001891e:    4031        1@      ANDS     r1,r1,r6
        0x00018920:    431a        .C      ORRS     r2,r2,r3
        0x00018922:    4308        .C      ORRS     r0,r0,r1
        0x00018924:    e9cd2000    ...     STRD     r2,r0,[sp,#0]
        0x00018928:    e00c        ..      B        0x18944 ; am_hal_dcu_update + 184
        0x0001892a:    e9dd0100    ....    LDRD     r0,r1,[sp,#0]
        0x0001892e:    ea210206    !...    BIC      r2,r1,r6
        0x00018932:    e9d83106    ...1    LDRD     r3,r1,[r8,#0x18]
        0x00018936:    43b8        .C      BICS     r0,r0,r7
        0x00018938:    403b        ;@      ANDS     r3,r3,r7
        0x0001893a:    4031        1@      ANDS     r1,r1,r6
        0x0001893c:    4318        .C      ORRS     r0,r0,r3
        0x0001893e:    4311        .C      ORRS     r1,r1,r2
        0x00018940:    e9cd0100    ....    STRD     r0,r1,[sp,#0]
        0x00018944:    2202        ."      MOVS     r2,#2
        0x00018946:    4669        iF      MOV      r1,sp
        0x00018948:    f8d80004    ....    LDR      r0,[r8,#4]
        0x0001894c:    f001fce6    ....    BL       copy_words ; 0x1a31c
        0x00018950:    f8da0000    ....    LDR      r0,[r10,#0]
        0x00018954:    f0100f01    ....    TST      r0,#1
        0x00018958:    d0fa        ..      BEQ      0x18950 ; am_hal_dcu_update + 196
        0x0001895a:    b005        ..      ADD      sp,sp,#0x14
        0x0001895c:    2000        .       MOVS     r0,#0
        0x0001895e:    e8bd8ff0    ....    POP      {r4-r11,pc}
    $d
        0x00018962:    0000        ..      DCW    0
        0x00018964:    40021000    ...@    DCD    1073876992
        0x00018968:    400c0a7c    |..@    DCD    1074530940
        0x0001896c:    10000258    X...    DCD    268436056
    $t
    i.am_hal_delay_us
    am_hal_delay_us
        0x00018970:    4908        .I      LDR      r1,[pc,#32] ; [0x18994] = 0x40021000
        0x00018972:    0140        @.      LSLS     r0,r0,#5
        0x00018974:    6809        .h      LDR      r1,[r1,#0]
        0x00018976:    f3c101c1    ....    UBFX     r1,r1,#3,#2
        0x0001897a:    2902        .)      CMP      r1,#2
        0x0001897c:    bf06        ..      ITTE     EQ
        0x0001897e:    0040        @.      LSLEQ    r0,r0,#1
        0x00018980:    2115        .!      MOVEQ    r1,#0x15
        0x00018982:    210f        .!      MOVNE    r1,#0xf
        0x00018984:    4288        .B      CMP      r0,r1
        0x00018986:    bf98        ..      IT       LS
        0x00018988:    4770        pG      BXLS     lr
        0x0001898a:    1a40        @.      SUBS     r0,r0,r1
        0x0001898c:    4902        .I      LDR      r1,[pc,#8] ; [0x18998] = 0x1b19c
        0x0001898e:    6a49        Ij      LDR      r1,[r1,#0x24]
        0x00018990:    4708        .G      BX       r1
    $d
        0x00018992:    0000        ..      DCW    0
        0x00018994:    40021000    ...@    DCD    1073876992
        0x00018998:    0001b19c    ....    DCD    111004
    $t
    i.am_hal_delay_us_status_change
    am_hal_delay_us_status_change
        0x0001899c:    e92d47f0    -..G    PUSH     {r4-r10,lr}
        0x000189a0:    f8df8048    ..H.    LDR      r8,[pc,#72] ; [0x189ec] = 0x40021000
        0x000189a4:    f8df9048    ..H.    LDR      r9,[pc,#72] ; [0x189f0] = 0x1b19c
        0x000189a8:    461d        .F      MOV      r5,r3
        0x000189aa:    4616        .F      MOV      r6,r2
        0x000189ac:    460f        .F      MOV      r7,r1
        0x000189ae:    4604        .F      MOV      r4,r0
        0x000189b0:    6838        8h      LDR      r0,[r7,#0]
        0x000189b2:    4030        0@      ANDS     r0,r0,r6
        0x000189b4:    42a8        .B      CMP      r0,r5
        0x000189b6:    d102        ..      BNE      0x189be ; am_hal_delay_us_status_change + 34
        0x000189b8:    2000        .       MOVS     r0,#0
        0x000189ba:    e8bd87f0    ....    POP      {r4-r10,pc}
        0x000189be:    1e64        d.      SUBS     r4,r4,#1
        0x000189c0:    d311        ..      BCC      0x189e6 ; am_hal_delay_us_status_change + 74
        0x000189c2:    f8d81000    ....    LDR      r1,[r8,#0]
        0x000189c6:    2020                MOVS     r0,#0x20
        0x000189c8:    f3c101c1    ....    UBFX     r1,r1,#3,#2
        0x000189cc:    2902        .)      CMP      r1,#2
        0x000189ce:    bf06        ..      ITTE     EQ
        0x000189d0:    2040        @       MOVEQ    r0,#0x40
        0x000189d2:    f04f0c15    O...    MOVEQ    r12,#0x15
        0x000189d6:    f04f0c0f    O...    MOVNE    r12,#0xf
        0x000189da:    eba0000c    ....    SUB      r0,r0,r12
        0x000189de:    f8d91024    ..$.    LDR      r1,[r9,#0x24]
        0x000189e2:    4788        .G      BLX      r1
        0x000189e4:    e7e4        ..      B        0x189b0 ; am_hal_delay_us_status_change + 20
        0x000189e6:    2004        .       MOVS     r0,#4
        0x000189e8:    e8bd87f0    ....    POP      {r4-r10,pc}
    $d
        0x000189ec:    40021000    ...@    DCD    1073876992
        0x000189f0:    0001b19c    ....    DCD    111004
    $t
    i.am_hal_delay_us_status_check
    am_hal_delay_us_status_check
        0x000189f4:    e92d47f0    -..G    PUSH     {r4-r10,lr}
        0x000189f8:    f8df9054    ..T.    LDR      r9,[pc,#84] ; [0x18a50] = 0x40021000
        0x000189fc:    f8dfa054    ..T.    LDR      r10,[pc,#84] ; [0x18a54] = 0x1b19c
        0x00018a00:    f8dd8020    .. .    LDR      r8,[sp,#0x20]
        0x00018a04:    461c        .F      MOV      r4,r3
        0x00018a06:    4615        .F      MOV      r5,r2
        0x00018a08:    460e        .F      MOV      r6,r1
        0x00018a0a:    4607        .F      MOV      r7,r0
        0x00018a0c:    6830        0h      LDR      r0,[r6,#0]
        0x00018a0e:    f1b80f00    ....    CMP      r8,#0
        0x00018a12:    ea000005    ....    AND      r0,r0,r5
        0x00018a16:    d002        ..      BEQ      0x18a1e ; am_hal_delay_us_status_check + 42
        0x00018a18:    42a0        .B      CMP      r0,r4
        0x00018a1a:    d002        ..      BEQ      0x18a22 ; am_hal_delay_us_status_check + 46
        0x00018a1c:    e004        ..      B        0x18a28 ; am_hal_delay_us_status_check + 52
        0x00018a1e:    42a0        .B      CMP      r0,r4
        0x00018a20:    d002        ..      BEQ      0x18a28 ; am_hal_delay_us_status_check + 52
        0x00018a22:    2000        .       MOVS     r0,#0
        0x00018a24:    e8bd87f0    ....    POP      {r4-r10,pc}
        0x00018a28:    1e7f        ..      SUBS     r7,r7,#1
        0x00018a2a:    d30e        ..      BCC      0x18a4a ; am_hal_delay_us_status_check + 86
        0x00018a2c:    f8d91000    ....    LDR      r1,[r9,#0]
        0x00018a30:    2020                MOVS     r0,#0x20
        0x00018a32:    f3c101c1    ....    UBFX     r1,r1,#3,#2
        0x00018a36:    2902        .)      CMP      r1,#2
        0x00018a38:    bf06        ..      ITTE     EQ
        0x00018a3a:    2040        @       MOVEQ    r0,#0x40
        0x00018a3c:    2115        .!      MOVEQ    r1,#0x15
        0x00018a3e:    210f        .!      MOVNE    r1,#0xf
        0x00018a40:    1a40        @.      SUBS     r0,r0,r1
        0x00018a42:    f8da1024    ..$.    LDR      r1,[r10,#0x24]
        0x00018a46:    4788        .G      BLX      r1
        0x00018a48:    e7e0        ..      B        0x18a0c ; am_hal_delay_us_status_check + 24
        0x00018a4a:    2004        .       MOVS     r0,#4
        0x00018a4c:    e8bd87f0    ....    POP      {r4-r10,pc}
    $d
        0x00018a50:    40021000    ...@    DCD    1073876992
        0x00018a54:    0001b19c    ....    DCD    111004
    $t
    i.am_hal_fault_status_get
    am_hal_fault_status_get
        0x00018a58:    2800        .(      CMP      r0,#0
        0x00018a5a:    bf04        ..      ITT      EQ
        0x00018a5c:    2006        .       MOVEQ    r0,#6
        0x00018a5e:    4770        pG      BXEQ     lr
        0x00018a60:    f04f4190    O..A    MOV      r1,#0x48000000
        0x00018a64:    f8d1208c    ...     LDR      r2,[r1,#0x8c]
        0x00018a68:    f0020301    ....    AND      r3,r2,#1
        0x00018a6c:    7003        .p      STRB     r3,[r0,#0]
        0x00018a6e:    f3c20340    ..@.    UBFX     r3,r2,#1,#1
        0x00018a72:    7203        .r      STRB     r3,[r0,#8]
        0x00018a74:    f3c20280    ....    UBFX     r2,r2,#2,#1
        0x00018a78:    7402        .t      STRB     r2,[r0,#0x10]
        0x00018a7a:    f8d12084    ...     LDR      r2,[r1,#0x84]
        0x00018a7e:    60c2        .`      STR      r2,[r0,#0xc]
        0x00018a80:    6842        Bh      LDR      r2,[r0,#4]
        0x00018a82:    f8513f80    Q..?    LDR      r3,[r1,#0x80]!
        0x00018a86:    431a        .C      ORRS     r2,r2,r3
        0x00018a88:    6042        B`      STR      r2,[r0,#4]
        0x00018a8a:    6942        Bi      LDR      r2,[r0,#0x14]
        0x00018a8c:    6889        .h      LDR      r1,[r1,#8]
        0x00018a8e:    4311        .C      ORRS     r1,r1,r2
        0x00018a90:    6141        Aa      STR      r1,[r0,#0x14]
        0x00018a92:    2000        .       MOVS     r0,#0
        0x00018a94:    4770        pG      BX       lr
        0x00018a96:    0000        ..      MOVS     r0,r0
    i.am_hal_gpio_pinconfig
    am_hal_gpio_pinconfig
        0x00018a98:    b403        ..      PUSH     {r0,r1}
        0x00018a9a:    4912        .I      LDR      r1,[pc,#72] ; [0x18ae4] = 0x40010000
        0x00018a9c:    2880        .(      CMP      r0,#0x80
        0x00018a9e:    bf22        ".      ITTT     CS
        0x00018aa0:    2005        .       MOVCS    r0,#5
        0x00018aa2:    b002        ..      ADDCS    sp,sp,#8
        0x00018aa4:    4770        pG      BXCS     lr
        0x00018aa6:    9a01        ..      LDR      r2,[sp,#4]
        0x00018aa8:    f3c22281    ..."    UBFX     r2,r2,#10,#2
        0x00018aac:    2a01        .*      CMP      r2,#1
        0x00018aae:    d90e        ..      BLS      0x18ace ; am_hal_gpio_pinconfig + 54
        0x00018ab0:    4b0d        .K      LDR      r3,[pc,#52] ; [0x18ae8] = 0x1b1c4
        0x00018ab2:    0942        B.      LSRS     r2,r0,#5
        0x00018ab4:    f04f0c01    O...    MOV      r12,#1
        0x00018ab8:    f8532022    S."     LDR      r2,[r3,r2,LSL #2]
        0x00018abc:    f000031f    ....    AND      r3,r0,#0x1f
        0x00018ac0:    fa0cf303    ....    LSL      r3,r12,r3
        0x00018ac4:    421a        .B      TST      r2,r3
        0x00018ac6:    bf02        ..      ITTT     EQ
        0x00018ac8:    2007        .       MOVEQ    r0,#7
        0x00018aca:    b002        ..      ADDEQ    sp,sp,#8
        0x00018acc:    4770        pG      BXEQ     lr
        0x00018ace:    2273        s"      MOVS     r2,#0x73
        0x00018ad0:    f8c12200    ..."    STR      r2,[r1,#0x200]
        0x00018ad4:    9a01        ..      LDR      r2,[sp,#4]
        0x00018ad6:    f8412020    A.      STR      r2,[r1,r0,LSL #2]
        0x00018ada:    2000        .       MOVS     r0,#0
        0x00018adc:    f8c10200    ....    STR      r0,[r1,#0x200]
        0x00018ae0:    b002        ..      ADD      sp,sp,#8
        0x00018ae2:    4770        pG      BX       lr
    $d
        0x00018ae4:    40010000    ...@    DCD    1073807360
        0x00018ae8:    0001b1c4    ....    DCD    111044
    $t
    i.am_hal_itm_enable
    am_hal_itm_enable
        0x00018aec:    480a        .H      LDR      r0,[pc,#40] ; [0x18b18] = 0xe000edfc
        0x00018aee:    6801        .h      LDR      r1,[r0,#0]
        0x00018af0:    f0417180    A..q    ORR      r1,r1,#0x1000000
        0x00018af4:    6001        .`      STR      r1,[r0,#0]
        0x00018af6:    6801        .h      LDR      r1,[r0,#0]
        0x00018af8:    f0117f80    ....    TST      r1,#0x1000000
        0x00018afc:    d0fb        ..      BEQ      0x18af6 ; am_hal_itm_enable + 10
        0x00018afe:    4908        .I      LDR      r1,[pc,#32] ; [0x18b20] = 0xe0000fb0
        0x00018b00:    4806        .H      LDR      r0,[pc,#24] ; [0x18b1c] = 0xc5acce55
        0x00018b02:    6008        .`      STR      r0,[r1,#0]
        0x00018b04:    4907        .I      LDR      r1,[pc,#28] ; [0x18b24] = 0xe0000e40
        0x00018b06:    200f        .       MOVS     r0,#0xf
        0x00018b08:    6008        .`      STR      r0,[r1,#0]
        0x00018b0a:    1748        H.      ASRS     r0,r1,#29
        0x00018b0c:    4906        .I      LDR      r1,[pc,#24] ; [0x18b28] = 0xe0000e00
        0x00018b0e:    6008        .`      STR      r0,[r1,#0]
        0x00018b10:    4907        .I      LDR      r1,[pc,#28] ; [0x18b30] = 0xe0000e80
        0x00018b12:    4806        .H      LDR      r0,[pc,#24] ; [0x18b2c] = 0x150511
        0x00018b14:    6008        .`      STR      r0,[r1,#0]
        0x00018b16:    4770        pG      BX       lr
    $d
        0x00018b18:    e000edfc    ....    DCD    3758157308
        0x00018b1c:    c5acce55    U...    DCD    3316436565
        0x00018b20:    e0000fb0    ....    DCD    3758100400
        0x00018b24:    e0000e40    @...    DCD    3758100032
        0x00018b28:    e0000e00    ....    DCD    3758099968
        0x00018b2c:    00150511    ....    DCD    1377553
        0x00018b30:    e0000e80    ....    DCD    3758100096
    $t
    i.am_hal_itm_print
    am_hal_itm_print
        0x00018b34:    7802        .x      LDRB     r2,[r0,#0]
        0x00018b36:    2100        .!      MOVS     r1,#0
        0x00018b38:    2a00        .*      CMP      r2,#0
        0x00018b3a:    bf08        ..      IT       EQ
        0x00018b3c:    4770        pG      BXEQ     lr
        0x00018b3e:    1c49        I.      ADDS     r1,r1,#1
        0x00018b40:    5c42        B\      LDRB     r2,[r0,r1]
        0x00018b42:    2a00        .*      CMP      r2,#0
        0x00018b44:    d1fb        ..      BNE      0x18b3e ; am_hal_itm_print + 10
        0x00018b46:    2900        .)      CMP      r1,#0
        0x00018b48:    bf08        ..      IT       EQ
        0x00018b4a:    4770        pG      BXEQ     lr
        0x00018b4c:    f810cb01    ....    LDRB     r12,[r0],#1
        0x00018b50:    f04f4260    O.`B    MOV      r2,#0xe0000000
        0x00018b54:    6813        .h      LDR      r3,[r2,#0]
        0x00018b56:    2b00        .+      CMP      r3,#0
        0x00018b58:    d0fc        ..      BEQ      0x18b54 ; am_hal_itm_print + 32
        0x00018b5a:    f882c000    ....    STRB     r12,[r2,#0]
        0x00018b5e:    1e49        I.      SUBS     r1,r1,#1
        0x00018b60:    d1f4        ..      BNE      0x18b4c ; am_hal_itm_print + 24
        0x00018b62:    4770        pG      BX       lr
    i.am_hal_load_ui32
    am_hal_load_ui32
        0x00018b64:    4901        .I      LDR      r1,[pc,#4] ; [0x18b6c] = 0x1b19c
        0x00018b66:    6949        Ii      LDR      r1,[r1,#0x14]
        0x00018b68:    4708        .G      BX       r1
    $d
        0x00018b6a:    0000        ..      DCW    0
        0x00018b6c:    0001b19c    ....    DCD    111004
    $t
    i.am_hal_mram_ds_init
    am_hal_mram_ds_init
        0x00018b70:    4802        .H      LDR      r0,[pc,#8] ; [0x18b7c] = 0x1000024c
        0x00018b72:    b510        ..      PUSH     {r4,lr}
        0x00018b74:    6840        @h      LDR      r0,[r0,#4]
        0x00018b76:    4780        .G      BLX      r0
        0x00018b78:    2000        .       MOVS     r0,#0
        0x00018b7a:    bd10        ..      POP      {r4,pc}
    $d
        0x00018b7c:    1000024c    L...    DCD    268436044
    $t
    i.am_hal_mram_info_read
    am_hal_mram_info_read
        0x00018b80:    e92d43f8    -..C    PUSH     {r3-r9,lr}
        0x00018b84:    4617        .F      MOV      r7,r2
        0x00018b86:    0002        ..      MOVS     r2,r0
        0x00018b88:    461d        .F      MOV      r5,r3
        0x00018b8a:    f04f0800    O...    MOV      r8,#0
        0x00018b8e:    eb010007    ....    ADD      r0,r1,r7
        0x00018b92:    d011        ..      BEQ      0x18bb8 ; am_hal_mram_info_read + 56
        0x00018b94:    2a01        .*      CMP      r2,#1
        0x00018b96:    bf1c        ..      ITT      NE
        0x00018b98:    2001        .       MOVNE    r0,#1
        0x00018b9a:    e8bd83f8    ....    POPNE    {r3-r9,pc}
        0x00018b9e:    f5a16290    ...b    SUB      r2,r1,#0x480
        0x00018ba2:    f5b27fc0    ....    CMP      r2,#0x180
        0x00018ba6:    d204        ..      BCS      0x18bb2 ; am_hal_mram_info_read + 50
        0x00018ba8:    f5b06fc0    ...o    CMP      r0,#0x600
        0x00018bac:    bf98        ..      IT       LS
        0x00018bae:    4817        .H      LDRLS    r0,[pc,#92] ; [0x18c0c] = 0x42002000
        0x00018bb0:    d90b        ..      BLS      0x18bca ; am_hal_mram_info_read + 74
        0x00018bb2:    2002        .       MOVS     r0,#2
        0x00018bb4:    e8bd83f8    ....    POP      {r3-r9,pc}
        0x00018bb8:    f5b17f00    ....    CMP      r1,#0x200
        0x00018bbc:    d2f9        ..      BCS      0x18bb2 ; am_hal_mram_info_read + 50
        0x00018bbe:    f5b07f00    ....    CMP      r0,#0x200
        0x00018bc2:    bf98        ..      IT       LS
        0x00018bc4:    f04f4084    O..@    MOVLS    r0,#0x42000000
        0x00018bc8:    d8f3        ..      BHI      0x18bb2 ; am_hal_mram_info_read + 50
        0x00018bca:    f8df9044    ..D.    LDR      r9,[pc,#68] ; [0x18c10] = 0x1000024c
        0x00018bce:    eb000481    ....    ADD      r4,r0,r1,LSL #2
        0x00018bd2:    2001        .       MOVS     r0,#1
        0x00018bd4:    f8d91000    ....    LDR      r1,[r9,#0]
        0x00018bd8:    4788        .G      BLX      r1
        0x00018bda:    f7fffbc3    ....    BL       am_hal_interrupt_master_disable ; 0x18364
        0x00018bde:    2600        .&      MOVS     r6,#0
        0x00018be0:    9000        ..      STR      r0,[sp,#0]
        0x00018be2:    2f00        ./      CMP      r7,#0
        0x00018be4:    d908        ..      BLS      0x18bf8 ; am_hal_mram_info_read + 120
        0x00018be6:    4620         F      MOV      r0,r4
        0x00018be8:    1d24        $.      ADDS     r4,r4,#4
        0x00018bea:    f7ffffbb    ....    BL       am_hal_load_ui32 ; 0x18b64
        0x00018bee:    1c76        v.      ADDS     r6,r6,#1
        0x00018bf0:    f8450b04    E...    STR      r0,[r5],#4
        0x00018bf4:    42b7        .B      CMP      r7,r6
        0x00018bf6:    d8f6        ..      BHI      0x18be6 ; am_hal_mram_info_read + 102
        0x00018bf8:    9800        ..      LDR      r0,[sp,#0]
        0x00018bfa:    f7fffbb7    ....    BL       am_hal_interrupt_master_set ; 0x1836c
        0x00018bfe:    f8d91000    ....    LDR      r1,[r9,#0]
        0x00018c02:    2000        .       MOVS     r0,#0
        0x00018c04:    4788        .G      BLX      r1
        0x00018c06:    4640        @F      MOV      r0,r8
        0x00018c08:    e8bd83f8    ....    POP      {r3-r9,pc}
    $d
        0x00018c0c:    42002000    . .B    DCD    1107304448
        0x00018c10:    1000024c    L...    DCD    268436044
    $t
    i.am_hal_pwrctrl_control
    am_hal_pwrctrl_control
        0x00018c14:    e92d4ff0    -..O    PUSH     {r4-r11,lr}
        0x00018c18:    b08f        ..      SUB      sp,sp,#0x3c
        0x00018c1a:    f04f0800    O...    MOV      r8,#0
        0x00018c1e:    4dfe        .M      LDR      r5,[pc,#1016] ; [0x19018] = 0x40021000
        0x00018c20:    4cfe        .L      LDR      r4,[pc,#1016] ; [0x1901c] = 0x40020000
        0x00018c22:    46c1        .F      MOV      r9,r8
        0x00018c24:    f8cd8018    ....    STR      r8,[sp,#0x18]
        0x00018c28:    2701        .'      MOVS     r7,#1
        0x00018c2a:    f8cd8020    .. .    STR      r8,[sp,#0x20]
        0x00018c2e:    b178        x.      CBZ      r0,0x18c50 ; am_hal_pwrctrl_control + 60
        0x00018c30:    2801        .(      CMP      r0,#1
        0x00018c32:    f00081de    ....    BEQ.W    0x18ff2 ; am_hal_pwrctrl_control + 990
        0x00018c36:    2802        .(      CMP      r0,#2
        0x00018c38:    f00081f6    ....    BEQ.W    0x19028 ; am_hal_pwrctrl_control + 1044
        0x00018c3c:    2803        .(      CMP      r0,#3
        0x00018c3e:    bf0c        ..      ITE      EQ
        0x00018c40:    f8c59004    ....    STREQ    r9,[r5,#4]
        0x00018c44:    f04f0806    O...    MOVNE    r8,#6
        0x00018c48:    4640        @F      MOV      r0,r8
        0x00018c4a:    b00f        ..      ADD      sp,sp,#0x3c
        0x00018c4c:    e8bd8ff0    ....    POP      {r4-r11,pc}
        0x00018c50:    f8d40378    ..x.    LDR      r0,[r4,#0x378]
        0x00018c54:    f02050f8     ..P    BIC      r0,r0,#0x1f000000
        0x00018c58:    f8c40378    ..x.    STR      r0,[r4,#0x378]
        0x00018c5c:    f8d40358    ..X.    LDR      r0,[r4,#0x358]
        0x00018c60:    f42000f8     ...    BIC      r0,r0,#0x7c0000
        0x00018c64:    f8c40358    ..X.    STR      r0,[r4,#0x358]
        0x00018c68:    f8d40344    ..D.    LDR      r0,[r4,#0x344]
        0x00018c6c:    f0206070     .p`    BIC      r0,r0,#0xf000000
        0x00018c70:    f1006020    .. `    ADD      r0,r0,#0xa000000
        0x00018c74:    f8c40344    ..D.    STR      r0,[r4,#0x344]
        0x00018c78:    f8d40344    ..D.    LDR      r0,[r4,#0x344]
        0x00018c7c:    f42040f0     ..@    BIC      r0,r0,#0x7800
        0x00018c80:    f50040a0    ...@    ADD      r0,r0,#0x5000
        0x00018c84:    f8c40344    ..D.    STR      r0,[r4,#0x344]
        0x00018c88:    f8d40358    ..X.    LDR      r0,[r4,#0x358]
        0x00018c8c:    f44050f0    @..P    ORR      r0,r0,#0x1e00
        0x00018c90:    f8c40358    ..X.    STR      r0,[r4,#0x358]
        0x00018c94:    f8d40354    ..T.    LDR      r0,[r4,#0x354]
        0x00018c98:    f44010f0    @...    ORR      r0,r0,#0x1e0000
        0x00018c9c:    f8c40354    ..T.    STR      r0,[r4,#0x354]
        0x00018ca0:    f8d40360    ..`.    LDR      r0,[r4,#0x360]
        0x00018ca4:    f0407070    @.pp    ORR      r0,r0,#0x3c00000
        0x00018ca8:    f8c40360    ..`.    STR      r0,[r4,#0x360]
        0x00018cac:    f8d40360    ..`.    LDR      r0,[r4,#0x360]
        0x00018cb0:    f44010f0    @...    ORR      r0,r0,#0x1e0000
        0x00018cb4:    f8c40360    ..`.    STR      r0,[r4,#0x360]
        0x00018cb8:    f8d4036c    ..l.    LDR      r0,[r4,#0x36c]
        0x00018cbc:    0e81        ..      LSRS     r1,r0,#26
        0x00018cbe:    f8d40370    ..p.    LDR      r0,[r4,#0x370]
        0x00018cc2:    f361609f    a..`    BFI      r0,r1,#26,#6
        0x00018cc6:    f8c40370    ..p.    STR      r0,[r4,#0x370]
        0x00018cca:    f8d40380    ....    LDR      r0,[r4,#0x380]
        0x00018cce:    f0404000    @..@    ORR      r0,r0,#0x80000000
        0x00018cd2:    f8c40380    ....    STR      r0,[r4,#0x380]
        0x00018cd6:    f8d40380    ....    LDR      r0,[r4,#0x380]
        0x00018cda:    f0404080    @..@    ORR      r0,r0,#0x40000000
        0x00018cde:    f8c40380    ....    STR      r0,[r4,#0x380]
        0x00018ce2:    f8d40370    ..p.    LDR      r0,[r4,#0x370]
        0x00018ce6:    4ece        .N      LDR      r6,[pc,#824] ; [0x19020] = 0x10000090
        0x00018ce8:    f3c05005    ...P    UBFX     r0,r0,#20,#6
        0x00018cec:    61b0        .a      STR      r0,[r6,#0x18]
        0x00018cee:    f8d40370    ..p.    LDR      r0,[r4,#0x370]
        0x00018cf2:    f020707c     .|p    BIC      r0,r0,#0x3f00000
        0x00018cf6:    f8c40370    ..p.    STR      r0,[r4,#0x370]
        0x00018cfa:    2007        .       MOVS     r0,#7
        0x00018cfc:    f8c4033c    ..<.    STR      r0,[r4,#0x33c]
        0x00018d00:    f8d40340    ..@.    LDR      r0,[r4,#0x340]
        0x00018d04:    f0207070     .pp    BIC      r0,r0,#0x3c00000
        0x00018d08:    f8c40340    ..@.    STR      r0,[r4,#0x340]
        0x00018d0c:    f8d40340    ..@.    LDR      r0,[r4,#0x340]
        0x00018d10:    f42060f8     ..`    BIC      r0,r0,#0x7c0
        0x00018d14:    3040        @0      ADDS     r0,r0,#0x40
        0x00018d16:    f8c40340    ..@.    STR      r0,[r4,#0x340]
        0x00018d1a:    6870        ph      LDR      r0,[r6,#4]
        0x00018d1c:    f1b03fff    ...?    CMP      r0,#0xffffffff
        0x00018d20:    d10d        ..      BNE      0x18d3e ; am_hal_pwrctrl_control + 298
        0x00018d22:    2201        ."      MOVS     r2,#1
        0x00018d24:    1d33        3.      ADDS     r3,r6,#4
        0x00018d26:    f24041c4    @..A    MOV      r1,#0x4c4
        0x00018d2a:    4610        .F      MOV      r0,r2
        0x00018d2c:    f7ffff28    ..(.    BL       am_hal_mram_info_read ; 0x18b80
        0x00018d30:    b918        ..      CBNZ     r0,0x18d3a ; am_hal_pwrctrl_control + 294
        0x00018d32:    6870        ph      LDR      r0,[r6,#4]
        0x00018d34:    f1b03fff    ...?    CMP      r0,#0xffffffff
        0x00018d38:    d101        ..      BNE      0x18d3e ; am_hal_pwrctrl_control + 298
        0x00018d3a:    f8c69004    ....    STR      r9,[r6,#4]
        0x00018d3e:    6870        ph      LDR      r0,[r6,#4]
        0x00018d40:    2806        .(      CMP      r0,#6
        0x00018d42:    bf24        $.      ITT      CS
        0x00018d44:    68f0        .h      LDRCS    r0,[r6,#0xc]
        0x00018d46:    f1b03fff    ...?    CMPCS    r0,#0xffffffff
        0x00018d4a:    d124        $.      BNE      0x18d96 ; am_hal_pwrctrl_control + 386
        0x00018d4c:    7870        px      LDRB     r0,[r6,#1]
        0x00018d4e:    2800        .(      CMP      r0,#0
        0x00018d50:    bf08        ..      IT       EQ
        0x00018d52:    7077        wp      STRBEQ   r7,[r6,#1]
        0x00018d54:    6c60        `l      LDR      r0,[r4,#0x44]
        0x00018d56:    f3c010c6    ....    UBFX     r0,r0,#7,#7
        0x00018d5a:    60f0        .`      STR      r0,[r6,#0xc]
        0x00018d5c:    f8d41378    ..x.    LDR      r1,[r4,#0x378]
        0x00018d60:    f0414100    A..A    ORR      r1,r1,#0x80000000
        0x00018d64:    f8c41378    ..x.    STR      r1,[r4,#0x378]
        0x00018d68:    2869        i(      CMP      r0,#0x69
        0x00018d6a:    bf94        ..      ITE      LS
        0x00018d6c:    f1000716    ....    ADDLS    r7,r0,#0x16
        0x00018d70:    277f        .'      MOVHI    r7,#0x7f
        0x00018d72:    6c60        `l      LDR      r0,[r4,#0x44]
        0x00018d74:    f3c010c6    ....    UBFX     r0,r0,#7,#7
        0x00018d78:    42b8        .B      CMP      r0,r7
        0x00018d7a:    d00c        ..      BEQ      0x18d96 ; am_hal_pwrctrl_control + 386
        0x00018d7c:    f7fffaf2    ....    BL       am_hal_interrupt_master_disable ; 0x18364
        0x00018d80:    9001        ..      STR      r0,[sp,#4]
        0x00018d82:    6c60        `l      LDR      r0,[r4,#0x44]
        0x00018d84:    f36710cd    g...    BFI      r0,r7,#7,#7
        0x00018d88:    6460        `d      STR      r0,[r4,#0x44]
        0x00018d8a:    2014        .       MOVS     r0,#0x14
        0x00018d8c:    f7fffdf0    ....    BL       am_hal_delay_us ; 0x18970
        0x00018d90:    9801        ..      LDR      r0,[sp,#4]
        0x00018d92:    f7fffaeb    ....    BL       am_hal_interrupt_master_set ; 0x1836c
        0x00018d96:    2100        .!      MOVS     r1,#0
        0x00018d98:    460a        .F      MOV      r2,r1
        0x00018d9a:    2001        .       MOVS     r0,#1
        0x00018d9c:    f7fffb8e    ....    BL       VDDF_simobuck_boost ; 0x184bc
        0x00018da0:    f8d50100    ....    LDR      r0,[r5,#0x100]
        0x00018da4:    f0400001    @...    ORR      r0,r0,#1
        0x00018da8:    f8c50100    ....    STR      r0,[r5,#0x100]
        0x00018dac:    f8d40378    ..x.    LDR      r0,[r4,#0x378]
        0x00018db0:    f0404000    @..@    ORR      r0,r0,#0x80000000
        0x00018db4:    f8c40378    ..x.    STR      r0,[r4,#0x378]
        0x00018db8:    f2413088    A..0    MOV      r0,#0x1388
        0x00018dbc:    f7fffdd8    ....    BL       am_hal_delay_us ; 0x18970
        0x00018dc0:    2100        .!      MOVS     r1,#0
        0x00018dc2:    a806        ..      ADD      r0,sp,#0x18
        0x00018dc4:    f001f9ec    ....    BL       buck_interval_check ; 0x1a1a0
        0x00018dc8:    2800        .(      CMP      r0,#0
        0x00018dca:    f47faf3d    ..=.    BNE      0x18c48 ; am_hal_pwrctrl_control + 52
        0x00018dce:    2101        .!      MOVS     r1,#1
        0x00018dd0:    a808        ..      ADD      r0,sp,#0x20
        0x00018dd2:    f001f9e5    ....    BL       buck_interval_check ; 0x1a1a0
        0x00018dd6:    2800        .(      CMP      r0,#0
        0x00018dd8:    f47faf36    ..6.    BNE      0x18c48 ; am_hal_pwrctrl_control + 52
        0x00018ddc:    6e20         n      LDR      r0,[r4,#0x60]
        0x00018dde:    f4403000    @..0    ORR      r0,r0,#0x20000
        0x00018de2:    6620         f      STR      r0,[r4,#0x60]
        0x00018de4:    6e20         n      LDR      r0,[r4,#0x60]
        0x00018de6:    f4402080    @..     ORR      r0,r0,#0x40000
        0x00018dea:    6620         f      STR      r0,[r4,#0x60]
        0x00018dec:    6e20         n      LDR      r0,[r4,#0x60]
        0x00018dee:    f4402000    @..     ORR      r0,r0,#0x80000
        0x00018df2:    6620         f      STR      r0,[r4,#0x60]
        0x00018df4:    6e20         n      LDR      r0,[r4,#0x60]
        0x00018df6:    f4403080    @..0    ORR      r0,r0,#0x10000
        0x00018dfa:    6620         f      STR      r0,[r4,#0x60]
        0x00018dfc:    f8d40080    ....    LDR      r0,[r4,#0x80]
        0x00018e00:    f4205070     .pP    BIC      r0,r0,#0x3c00
        0x00018e04:    f5005080    ...P    ADD      r0,r0,#0x1000
        0x00018e08:    f8c40080    ....    STR      r0,[r4,#0x80]
        0x00018e0c:    6e20         n      LDR      r0,[r4,#0x60]
        0x00018e0e:    f0200010     ...    BIC      r0,r0,#0x10
        0x00018e12:    6620         f      STR      r0,[r4,#0x60]
        0x00018e14:    6e20         n      LDR      r0,[r4,#0x60]
        0x00018e16:    f040000e    @...    ORR      r0,r0,#0xe
        0x00018e1a:    6620         f      STR      r0,[r4,#0x60]
        0x00018e1c:    6e20         n      LDR      r0,[r4,#0x60]
        0x00018e1e:    f0400001    @...    ORR      r0,r0,#1
        0x00018e22:    6620         f      STR      r0,[r4,#0x60]
        0x00018e24:    6e20         n      LDR      r0,[r4,#0x60]
        0x00018e26:    f4207000     ..p    BIC      r0,r0,#0x200
        0x00018e2a:    6620         f      STR      r0,[r4,#0x60]
        0x00018e2c:    6e20         n      LDR      r0,[r4,#0x60]
        0x00018e2e:    f44070e0    @..p    ORR      r0,r0,#0x1c0
        0x00018e32:    6620         f      STR      r0,[r4,#0x60]
        0x00018e34:    6e20         n      LDR      r0,[r4,#0x60]
        0x00018e36:    f0400020    @. .    ORR      r0,r0,#0x20
        0x00018e3a:    6620         f      STR      r0,[r4,#0x60]
        0x00018e3c:    f64010c4    @...    MOV      r0,#0x9c4
        0x00018e40:    f7fffd96    ....    BL       am_hal_delay_us ; 0x18970
        0x00018e44:    a809        ..      ADD      r0,sp,#0x24
        0x00018e46:    f8dda018    ....    LDR      r10,[sp,#0x18]
        0x00018e4a:    f000fd37    ..7.    BL       am_hal_timer_default_config_set ; 0x198bc
        0x00018e4e:    201c        .       MOVS     r0,#0x1c
        0x00018e50:    f88d0024    ..$.    STRB     r0,[sp,#0x24]
        0x00018e54:    f04f0902    O...    MOV      r9,#2
        0x00018e58:    f88d9025    ..%.    STRB     r9,[sp,#0x25]
        0x00018e5c:    a909        ..      ADD      r1,sp,#0x24
        0x00018e5e:    200d        .       MOVS     r0,#0xd
        0x00018e60:    f001fe38    ..8.    BL       timer_config_b1 ; 0x1aad4
        0x00018e64:    200d        .       MOVS     r0,#0xd
        0x00018e66:    f000fd57    ..W.    BL       am_hal_timer_enable ; 0x19918
        0x00018e6a:    200d        .       MOVS     r0,#0xd
        0x00018e6c:    f000fdbe    ....    BL       am_hal_timer_read ; 0x199ec
        0x00018e70:    4607        .F      MOV      r7,r0
        0x00018e72:    4650        PF      MOV      r0,r10
        0x00018e74:    f7fffd7c    ..|.    BL       am_hal_delay_us ; 0x18970
        0x00018e78:    200d        .       MOVS     r0,#0xd
        0x00018e7a:    f000fdb7    ....    BL       am_hal_timer_read ; 0x199ec
        0x00018e7e:    4601        .F      MOV      r1,r0
        0x00018e80:    428f        .B      CMP      r7,r1
        0x00018e82:    bf14        ..      ITE      NE
        0x00018e84:    2501        .%      MOVNE    r5,#1
        0x00018e86:    f04f35ff    O..5    MOVEQ    r5,#0xffffffff
        0x00018e8a:    f8d40080    ....    LDR      r0,[r4,#0x80]
        0x00018e8e:    f3c00009    ....    UBFX     r0,r0,#0,#10
        0x00018e92:    d00d        ..      BEQ      0x18eb0 ; am_hal_pwrctrl_control + 668
        0x00018e94:    f24032ff    @..2    MOV      r2,#0x3ff
        0x00018e98:    4290        .B      CMP      r0,r2
        0x00018e9a:    d030        0.      BEQ      0x18efe ; am_hal_pwrctrl_control + 746
        0x00018e9c:    428f        .B      CMP      r7,r1
        0x00018e9e:    d02a        *.      BEQ      0x18ef6 ; am_hal_pwrctrl_control + 738
        0x00018ea0:    1b52        R.      SUBS     r2,r2,r5
        0x00018ea2:    4282        .B      CMP      r2,r0
        0x00018ea4:    bf2c        ,.      ITE      CS
        0x00018ea6:    4428        (D      ADDCS    r0,r5
        0x00018ea8:    f24030ff    @..0    MOVCC    r0,#0x3ff
        0x00018eac:    2d00        .-      CMP      r5,#0
        0x00018eae:    da09        ..      BGE      0x18ec4 ; am_hal_pwrctrl_control + 688
        0x00018eb0:    2801        .(      CMP      r0,#1
        0x00018eb2:    d920         .      BLS      0x18ef6 ; am_hal_pwrctrl_control + 738
        0x00018eb4:    428f        .B      CMP      r7,r1
        0x00018eb6:    d11e        ..      BNE      0x18ef6 ; am_hal_pwrctrl_control + 738
        0x00018eb8:    f1c50101    ....    RSB      r1,r5,#1
        0x00018ebc:    4281        .B      CMP      r1,r0
        0x00018ebe:    bf94        ..      ITE      LS
        0x00018ec0:    4428        (D      ADDLS    r0,r5
        0x00018ec2:    2001        .       MOVHI    r0,#1
        0x00018ec4:    b1bd        ..      CBZ      r5,0x18ef6 ; am_hal_pwrctrl_control + 738
        0x00018ec6:    f8d41080    ....    LDR      r1,[r4,#0x80]
        0x00018eca:    f3600109    `...    BFI      r1,r0,#0,#10
        0x00018ece:    f8c41080    ....    STR      r1,[r4,#0x80]
        0x00018ed2:    200d        .       MOVS     r0,#0xd
        0x00018ed4:    f000fd8a    ....    BL       am_hal_timer_read ; 0x199ec
        0x00018ed8:    4607        .F      MOV      r7,r0
        0x00018eda:    4650        PF      MOV      r0,r10
        0x00018edc:    f7fffd48    ..H.    BL       am_hal_delay_us ; 0x18970
        0x00018ee0:    200d        .       MOVS     r0,#0xd
        0x00018ee2:    f000fd83    ....    BL       am_hal_timer_read ; 0x199ec
        0x00018ee6:    4601        .F      MOV      r1,r0
        0x00018ee8:    f8d40080    ....    LDR      r0,[r4,#0x80]
        0x00018eec:    2d00        .-      CMP      r5,#0
        0x00018eee:    f3c00009    ....    UBFX     r0,r0,#0,#10
        0x00018ef2:    dddb        ..      BLE      0x18eac ; am_hal_pwrctrl_control + 664
        0x00018ef4:    e7ce        ..      B        0x18e94 ; am_hal_pwrctrl_control + 640
        0x00018ef6:    280d        .(      CMP      r0,#0xd
        0x00018ef8:    bf98        ..      IT       LS
        0x00018efa:    2001        .       MOVLS    r0,#1
        0x00018efc:    d900        ..      BLS      0x18f00 ; am_hal_pwrctrl_control + 748
        0x00018efe:    380c        .8      SUBS     r0,r0,#0xc
        0x00018f00:    f8d41080    ....    LDR      r1,[r4,#0x80]
        0x00018f04:    f3600109    `...    BFI      r1,r0,#0,#10
        0x00018f08:    f8c41080    ....    STR      r1,[r4,#0x80]
        0x00018f0c:    200d        .       MOVS     r0,#0xd
        0x00018f0e:    f000fca3    ....    BL       am_hal_timer_clear_stop ; 0x19858
        0x00018f12:    200d        .       MOVS     r0,#0xd
        0x00018f14:    f000fce0    ....    BL       am_hal_timer_disable ; 0x198d8
        0x00018f18:    200d        .       MOVS     r0,#0xd
        0x00018f1a:    f000fd79    ..y.    BL       am_hal_timer_reset_config ; 0x19a10
        0x00018f1e:    a809        ..      ADD      r0,sp,#0x24
        0x00018f20:    f8dda020    .. .    LDR      r10,[sp,#0x20]
        0x00018f24:    f000fcca    ....    BL       am_hal_timer_default_config_set ; 0x198bc
        0x00018f28:    201d        .       MOVS     r0,#0x1d
        0x00018f2a:    f88d0024    ..$.    STRB     r0,[sp,#0x24]
        0x00018f2e:    f88d9025    ..%.    STRB     r9,[sp,#0x25]
        0x00018f32:    a909        ..      ADD      r1,sp,#0x24
        0x00018f34:    200d        .       MOVS     r0,#0xd
        0x00018f36:    f001fdcd    ....    BL       timer_config_b1 ; 0x1aad4
        0x00018f3a:    200d        .       MOVS     r0,#0xd
        0x00018f3c:    f000fcec    ....    BL       am_hal_timer_enable ; 0x19918
        0x00018f40:    200d        .       MOVS     r0,#0xd
        0x00018f42:    f000fd53    ..S.    BL       am_hal_timer_read ; 0x199ec
        0x00018f46:    4607        .F      MOV      r7,r0
        0x00018f48:    4650        PF      MOV      r0,r10
        0x00018f4a:    f7fffd11    ....    BL       am_hal_delay_us ; 0x18970
        0x00018f4e:    200d        .       MOVS     r0,#0xd
        0x00018f50:    f000fd4c    ..L.    BL       am_hal_timer_read ; 0x199ec
        0x00018f54:    4601        .F      MOV      r1,r0
        0x00018f56:    428f        .B      CMP      r7,r1
        0x00018f58:    bf0c        ..      ITE      EQ
        0x00018f5a:    f04f35ff    O..5    MOVEQ    r5,#0xffffffff
        0x00018f5e:    2501        .%      MOVNE    r5,#1
        0x00018f60:    f1c5093f    ..?.    RSB      r9,r5,#0x3f
        0x00018f64:    f1c50b01    ....    RSB      r11,r5,#1
        0x00018f68:    f8d40088    ....    LDR      r0,[r4,#0x88]
        0x00018f6c:    6972        ri      LDR      r2,[r6,#0x14]
        0x00018f6e:    f000003f    ..?.    AND      r0,r0,#0x3f
        0x00018f72:    f1b23fff    ...?    CMP      r2,#0xffffffff
        0x00018f76:    bf08        ..      IT       EQ
        0x00018f78:    6170        pa      STREQ    r0,[r6,#0x14]
        0x00018f7a:    2d00        .-      CMP      r5,#0
        0x00018f7c:    dd08        ..      BLE      0x18f90 ; am_hal_pwrctrl_control + 892
        0x00018f7e:    283f        ?(      CMP      r0,#0x3f
        0x00018f80:    d026        &.      BEQ      0x18fd0 ; am_hal_pwrctrl_control + 956
        0x00018f82:    428f        .B      CMP      r7,r1
        0x00018f84:    d020         .      BEQ      0x18fc8 ; am_hal_pwrctrl_control + 948
        0x00018f86:    4581        .E      CMP      r9,r0
        0x00018f88:    bf38        8.      IT       CC
        0x00018f8a:    203f        ?       MOVCC    r0,#0x3f
        0x00018f8c:    d209        ..      BCS      0x18fa2 ; am_hal_pwrctrl_control + 910
        0x00018f8e:    e009        ..      B        0x18fa4 ; am_hal_pwrctrl_control + 912
        0x00018f90:    da08        ..      BGE      0x18fa4 ; am_hal_pwrctrl_control + 912
        0x00018f92:    2801        .(      CMP      r0,#1
        0x00018f94:    d918        ..      BLS      0x18fc8 ; am_hal_pwrctrl_control + 948
        0x00018f96:    428f        .B      CMP      r7,r1
        0x00018f98:    d116        ..      BNE      0x18fc8 ; am_hal_pwrctrl_control + 948
        0x00018f9a:    4583        .E      CMP      r11,r0
        0x00018f9c:    bf88        ..      IT       HI
        0x00018f9e:    2001        .       MOVHI    r0,#1
        0x00018fa0:    d800        ..      BHI      0x18fa4 ; am_hal_pwrctrl_control + 912
        0x00018fa2:    4428        (D      ADD      r0,r0,r5
        0x00018fa4:    f8d41088    ....    LDR      r1,[r4,#0x88]
        0x00018fa8:    f3600105    `...    BFI      r1,r0,#0,#6
        0x00018fac:    f8c41088    ....    STR      r1,[r4,#0x88]
        0x00018fb0:    200d        .       MOVS     r0,#0xd
        0x00018fb2:    f000fd1b    ....    BL       am_hal_timer_read ; 0x199ec
        0x00018fb6:    4607        .F      MOV      r7,r0
        0x00018fb8:    4650        PF      MOV      r0,r10
        0x00018fba:    f7fffcd9    ....    BL       am_hal_delay_us ; 0x18970
        0x00018fbe:    200d        .       MOVS     r0,#0xd
        0x00018fc0:    f000fd14    ....    BL       am_hal_timer_read ; 0x199ec
        0x00018fc4:    4601        .F      MOV      r1,r0
        0x00018fc6:    e7cf        ..      B        0x18f68 ; am_hal_pwrctrl_control + 852
        0x00018fc8:    2804        .(      CMP      r0,#4
        0x00018fca:    bf98        ..      IT       LS
        0x00018fcc:    2001        .       MOVLS    r0,#1
        0x00018fce:    d900        ..      BLS      0x18fd2 ; am_hal_pwrctrl_control + 958
        0x00018fd0:    1ec0        ..      SUBS     r0,r0,#3
        0x00018fd2:    f8d41088    ....    LDR      r1,[r4,#0x88]
        0x00018fd6:    f3600105    `...    BFI      r1,r0,#0,#6
        0x00018fda:    f8c41088    ....    STR      r1,[r4,#0x88]
        0x00018fde:    200d        .       MOVS     r0,#0xd
        0x00018fe0:    f000fc3a    ..:.    BL       am_hal_timer_clear_stop ; 0x19858
        0x00018fe4:    200d        .       MOVS     r0,#0xd
        0x00018fe6:    f000fc77    ..w.    BL       am_hal_timer_disable ; 0x198d8
        0x00018fea:    200d        .       MOVS     r0,#0xd
        0x00018fec:    f000fd10    ....    BL       am_hal_timer_reset_config ; 0x19a10
        0x00018ff0:    e62a        *.      B        0x18c48 ; am_hal_pwrctrl_control + 52
        0x00018ff2:    490c        .I      LDR      r1,[pc,#48] ; [0x19024] = 0x1af7c
        0x00018ff4:    e9d10152    ..R.    LDRD     r0,r1,[r1,#0x148]
        0x00018ff8:    6800        .h      LDR      r0,[r0,#0]
        0x00018ffa:    4008        .@      ANDS     r0,r0,r1
        0x00018ffc:    bf18        ..      IT       NE
        0x00018ffe:    2001        .       MOVNE    r0,#1
        0x00019000:    2800        .(      CMP      r0,#0
        0x00019002:    f43fae21    ?.!.    BEQ      0x18c48 ; am_hal_pwrctrl_control + 52
        0x00019006:    2014        .       MOVS     r0,#0x14
        0x00019008:    f000fa20    .. .    BL       am_hal_pwrctrl_periph_disable ; 0x1944c
        0x0001900c:    2800        .(      CMP      r0,#0
        0x0001900e:    f43fae1b    ?...    BEQ      0x18c48 ; am_hal_pwrctrl_control + 52
        0x00019012:    b00f        ..      ADD      sp,sp,#0x3c
        0x00019014:    e8bd8ff0    ....    POP      {r4-r11,pc}
    $d
        0x00019018:    40021000    ...@    DCD    1073876992
        0x0001901c:    40020000    ...@    DCD    1073872896
        0x00019020:    10000090    ....    DCD    268435600
        0x00019024:    0001af7c    |...    DCD    110460
    $t
        0x00019028:    f8d40124    ..$.    LDR      r0,[r4,#0x124]
        0x0001902c:    f02000fc     ...    BIC      r0,r0,#0xfc
        0x00019030:    3080        .0      ADDS     r0,r0,#0x80
        0x00019032:    f8c40124    ..$.    STR      r0,[r4,#0x124]
        0x00019036:    f8c47120    .. q    STR      r7,[r4,#0x120]
        0x0001903a:    e605        ..      B        0x18c48 ; am_hal_pwrctrl_control + 52
    i.am_hal_pwrctrl_low_power_init
    am_hal_pwrctrl_low_power_init
        0x0001903c:    b570        p.      PUSH     {r4-r6,lr}
        0x0001903e:    f7fffd97    ....    BL       am_hal_mram_ds_init ; 0x18b70
        0x00019042:    4845        EH      LDR      r0,[pc,#276] ; [0x19158] = 0x1af70
        0x00019044:    f000f898    ....    BL       am_hal_pwrctrl_mcu_memory_config ; 0x19178
        0x00019048:    4844        DH      LDR      r0,[pc,#272] ; [0x1915c] = 0x1af76
        0x0001904a:    f000fa95    ....    BL       am_hal_pwrctrl_sram_config ; 0x19578
        0x0001904e:    4844        DH      LDR      r0,[pc,#272] ; [0x19160] = 0x10000878
        0x00019050:    4944        DI      LDR      r1,[pc,#272] ; [0x19164] = 0xcd735a03
        0x00019052:    4c45        EL      LDR      r4,[pc,#276] ; [0x19168] = 0x40020000
        0x00019054:    6802        .h      LDR      r2,[r0,#0]
        0x00019056:    428a        .B      CMP      r2,r1
        0x00019058:    d039        9.      BEQ      0x190ce ; am_hal_pwrctrl_low_power_init + 146
        0x0001905a:    f8d4233c    ..<#    LDR      r2,[r4,#0x33c]
        0x0001905e:    6042        B`      STR      r2,[r0,#4]
        0x00019060:    f8d42340    ..@#    LDR      r2,[r4,#0x340]
        0x00019064:    6082        .`      STR      r2,[r0,#8]
        0x00019066:    f8d42344    ..D#    LDR      r2,[r4,#0x344]
        0x0001906a:    60c2        .`      STR      r2,[r0,#0xc]
        0x0001906c:    f8d4234c    ..L#    LDR      r2,[r4,#0x34c]
        0x00019070:    6102        .a      STR      r2,[r0,#0x10]
        0x00019072:    f8d42354    ..T#    LDR      r2,[r4,#0x354]
        0x00019076:    6142        Ba      STR      r2,[r0,#0x14]
        0x00019078:    f8d42358    ..X#    LDR      r2,[r4,#0x358]
        0x0001907c:    6182        .a      STR      r2,[r0,#0x18]
        0x0001907e:    f8d42360    ..`#    LDR      r2,[r4,#0x360]
        0x00019082:    61c2        .a      STR      r2,[r0,#0x1c]
        0x00019084:    f8d4236c    ..l#    LDR      r2,[r4,#0x36c]
        0x00019088:    6202        .b      STR      r2,[r0,#0x20]
        0x0001908a:    f8d42370    ..p#    LDR      r2,[r4,#0x370]
        0x0001908e:    6242        Bb      STR      r2,[r0,#0x24]
        0x00019090:    f8d42378    ..x#    LDR      r2,[r4,#0x378]
        0x00019094:    6282        .b      STR      r2,[r0,#0x28]
        0x00019096:    f8d42080    ...     LDR      r2,[r4,#0x80]
        0x0001909a:    62c2        .b      STR      r2,[r0,#0x2c]
        0x0001909c:    f8d42088    ...     LDR      r2,[r4,#0x88]
        0x000190a0:    6302        .c      STR      r2,[r0,#0x30]
        0x000190a2:    6c62        bl      LDR      r2,[r4,#0x44]
        0x000190a4:    6342        Bc      STR      r2,[r0,#0x34]
        0x000190a6:    f8d4237c    ..|#    LDR      r2,[r4,#0x37c]
        0x000190aa:    6382        .c      STR      r2,[r0,#0x38]
        0x000190ac:    f8d42380    ...#    LDR      r2,[r4,#0x380]
        0x000190b0:    63c2        .c      STR      r2,[r0,#0x3c]
        0x000190b2:    6e22        "n      LDR      r2,[r4,#0x60]
        0x000190b4:    6402        .d      STR      r2,[r0,#0x40]
        0x000190b6:    6aa2        .j      LDR      r2,[r4,#0x28]
        0x000190b8:    6442        Bd      STR      r2,[r0,#0x44]
        0x000190ba:    f8d42124    ..$!    LDR      r2,[r4,#0x124]
        0x000190be:    6482        .d      STR      r2,[r0,#0x48]
        0x000190c0:    f8d42108    ...!    LDR      r2,[r4,#0x108]
        0x000190c4:    64c2        .d      STR      r2,[r0,#0x4c]
        0x000190c6:    4a29        )J      LDR      r2,[pc,#164] ; [0x1916c] = 0x4002042c
        0x000190c8:    6812        .h      LDR      r2,[r2,#0]
        0x000190ca:    6502        .e      STR      r2,[r0,#0x50]
        0x000190cc:    6001        .`      STR      r1,[r0,#0]
        0x000190ce:    f04f2540    O.@%    MOV      r5,#0x40004000
        0x000190d2:    6c68        hl      LDR      r0,[r5,#0x44]
        0x000190d4:    f020707f     ..p    BIC      r0,r0,#0x3fc0000
        0x000190d8:    f5000078    ..x.    ADD      r0,r0,#0xf80000
        0x000190dc:    6468        hd      STR      r0,[r5,#0x44]
        0x000190de:    4924        $I      LDR      r1,[pc,#144] ; [0x19170] = 0x40021000
        0x000190e0:    2000        .       MOVS     r0,#0
        0x000190e2:    f8c10140    ..@.    STR      r0,[r1,#0x140]
        0x000190e6:    f8c10144    ..D.    STR      r0,[r1,#0x144]
        0x000190ea:    f8c10148    ..H.    STR      r0,[r1,#0x148]
        0x000190ee:    f8c1014c    ..L.    STR      r0,[r1,#0x14c]
        0x000190f2:    f8c10150    ..P.    STR      r0,[r1,#0x150]
        0x000190f6:    f8c10154    ..T.    STR      r0,[r1,#0x154]
        0x000190fa:    f8c10158    ..X.    STR      r0,[r1,#0x158]
        0x000190fe:    f8c1015c    ..\.    STR      r0,[r1,#0x15c]
        0x00019102:    f8c10160    ..`.    STR      r0,[r1,#0x160]
        0x00019106:    f8c10164    ..d.    STR      r0,[r1,#0x164]
        0x0001910a:    f8c10168    ..h.    STR      r0,[r1,#0x168]
        0x0001910e:    f8c1016c    ..l.    STR      r0,[r1,#0x16c]
        0x00019112:    f8c10170    ..p.    STR      r0,[r1,#0x170]
        0x00019116:    f8c10174    ..t.    STR      r0,[r1,#0x174]
        0x0001911a:    f8c10178    ..x.    STR      r0,[r1,#0x178]
        0x0001911e:    f8c1017c    ..|.    STR      r0,[r1,#0x17c]
        0x00019122:    f8c10180    ....    STR      r0,[r1,#0x180]
        0x00019126:    f8c10184    ....    STR      r0,[r1,#0x184]
        0x0001912a:    f8c10188    ....    STR      r0,[r1,#0x188]
        0x0001912e:    4811        .H      LDR      r0,[pc,#68] ; [0x19174] = 0x1af6b
        0x00019130:    f7fffaa2    ....    BL       am_hal_daxi_config ; 0x18678
        0x00019134:    2064        d       MOVS     r0,#0x64
        0x00019136:    f7fffc1b    ....    BL       am_hal_delay_us ; 0x18970
        0x0001913a:    6c68        hl      LDR      r0,[r5,#0x44]
        0x0001913c:    f0400040    @.@.    ORR      r0,r0,#0x40
        0x00019140:    6468        hd      STR      r0,[r5,#0x44]
        0x00019142:    f8d4037c    ..|.    LDR      r0,[r4,#0x37c]
        0x00019146:    f44000fd    @...    ORR      r0,r0,#0x7e8000
        0x0001914a:    f04060b0    @..`    ORR      r0,r0,#0x5800000
        0x0001914e:    f8c4037c    ..|.    STR      r0,[r4,#0x37c]
        0x00019152:    2000        .       MOVS     r0,#0
        0x00019154:    bd70        p.      POP      {r4-r6,pc}
    $d
        0x00019156:    0000        ..      DCW    0
        0x00019158:    0001af70    p...    DCD    110448
        0x0001915c:    0001af76    v...    DCD    110454
        0x00019160:    10000878    x...    DCD    268437624
        0x00019164:    cd735a03    .Zs.    DCD    3446888963
        0x00019168:    40020000    ...@    DCD    1073872896
        0x0001916c:    4002042c    ,..@    DCD    1073873964
        0x00019170:    40021000    ...@    DCD    1073876992
        0x00019174:    0001af6b    k...    DCD    110443
    $t
    i.am_hal_pwrctrl_mcu_memory_config
    am_hal_pwrctrl_mcu_memory_config
        0x00019178:    b538        8.      PUSH     {r3-r5,lr}
        0x0001917a:    4605        .F      MOV      r5,r0
        0x0001917c:    7800        .x      LDRB     r0,[r0,#0]
        0x0001917e:    4c43        CL      LDR      r4,[pc,#268] ; [0x1928c] = 0x40021000
        0x00019180:    b120         .      CBZ      r0,0x1918c ; am_hal_pwrctrl_mcu_memory_config + 20
        0x00019182:    2801        .(      CMP      r0,#1
        0x00019184:    d00a        ..      BEQ      0x1919c ; am_hal_pwrctrl_mcu_memory_config + 36
        0x00019186:    2802        .(      CMP      r0,#2
        0x00019188:    d011        ..      BEQ      0x191ae ; am_hal_pwrctrl_mcu_memory_config + 54
        0x0001918a:    e018        ..      B        0x191be ; am_hal_pwrctrl_mcu_memory_config + 70
        0x0001918c:    6960        `i      LDR      r0,[r4,#0x14]
        0x0001918e:    f0200010     ...    BIC      r0,r0,#0x10
        0x00019192:    6160        `a      STR      r0,[r4,#0x14]
        0x00019194:    6960        `i      LDR      r0,[r4,#0x14]
        0x00019196:    f0200020     . .    BIC      r0,r0,#0x20
        0x0001919a:    e00f        ..      B        0x191bc ; am_hal_pwrctrl_mcu_memory_config + 68
        0x0001919c:    6960        `i      LDR      r0,[r4,#0x14]
        0x0001919e:    f0400010    @...    ORR      r0,r0,#0x10
        0x000191a2:    6160        `a      STR      r0,[r4,#0x14]
        0x000191a4:    6960        `i      LDR      r0,[r4,#0x14]
        0x000191a6:    f0200020     . .    BIC      r0,r0,#0x20
        0x000191aa:    6160        `a      STR      r0,[r4,#0x14]
        0x000191ac:    e007        ..      B        0x191be ; am_hal_pwrctrl_mcu_memory_config + 70
        0x000191ae:    6960        `i      LDR      r0,[r4,#0x14]
        0x000191b0:    f0400010    @...    ORR      r0,r0,#0x10
        0x000191b4:    6160        `a      STR      r0,[r4,#0x14]
        0x000191b6:    6960        `i      LDR      r0,[r4,#0x14]
        0x000191b8:    f0400020    @. .    ORR      r0,r0,#0x20
        0x000191bc:    6160        `a      STR      r0,[r4,#0x14]
        0x000191be:    78a9        .x      LDRB     r1,[r5,#2]
        0x000191c0:    6960        `i      LDR      r0,[r4,#0x14]
        0x000191c2:    f3610002    a...    BFI      r0,r1,#0,#3
        0x000191c6:    6160        `a      STR      r0,[r4,#0x14]
        0x000191c8:    7929        )y      LDRB     r1,[r5,#4]
        0x000191ca:    6960        `i      LDR      r0,[r4,#0x14]
        0x000191cc:    f36100c3    a...    BFI      r0,r1,#3,#1
        0x000191d0:    6160        `a      STR      r0,[r4,#0x14]
        0x000191d2:    2001        .       MOVS     r0,#1
        0x000191d4:    9000        ..      STR      r0,[sp,#0]
        0x000191d6:    6963        ci      LDR      r3,[r4,#0x14]
        0x000191d8:    223f        ?"      MOVS     r2,#0x3f
        0x000191da:    492d        -I      LDR      r1,[pc,#180] ; [0x19290] = 0x40021018
        0x000191dc:    2005        .       MOVS     r0,#5
        0x000191de:    f7fffc09    ....    BL       am_hal_delay_us_status_check ; 0x189f4
        0x000191e2:    2800        .(      CMP      r0,#0
        0x000191e4:    bf18        ..      IT       NE
        0x000191e6:    bd38        8.      POPNE    {r3-r5,pc}
        0x000191e8:    69a0        .i      LDR      r0,[r4,#0x18]
        0x000191ea:    6961        ai      LDR      r1,[r4,#0x14]
        0x000191ec:    f3c01000    ....    UBFX     r0,r0,#4,#1
        0x000191f0:    f3c11100    ....    UBFX     r1,r1,#4,#1
        0x000191f4:    4288        .B      CMP      r0,r1
        0x000191f6:    d117        ..      BNE      0x19228 ; am_hal_pwrctrl_mcu_memory_config + 176
        0x000191f8:    69a0        .i      LDR      r0,[r4,#0x18]
        0x000191fa:    6961        ai      LDR      r1,[r4,#0x14]
        0x000191fc:    f3c01040    ..@.    UBFX     r0,r0,#5,#1
        0x00019200:    f3c11140    ..@.    UBFX     r1,r1,#5,#1
        0x00019204:    4288        .B      CMP      r0,r1
        0x00019206:    d10f        ..      BNE      0x19228 ; am_hal_pwrctrl_mcu_memory_config + 176
        0x00019208:    69a0        .i      LDR      r0,[r4,#0x18]
        0x0001920a:    6961        ai      LDR      r1,[r4,#0x14]
        0x0001920c:    f0000007    ....    AND      r0,r0,#7
        0x00019210:    f0010107    ....    AND      r1,r1,#7
        0x00019214:    4288        .B      CMP      r0,r1
        0x00019216:    d107        ..      BNE      0x19228 ; am_hal_pwrctrl_mcu_memory_config + 176
        0x00019218:    69a0        .i      LDR      r0,[r4,#0x18]
        0x0001921a:    6961        ai      LDR      r1,[r4,#0x14]
        0x0001921c:    f3c000c0    ....    UBFX     r0,r0,#3,#1
        0x00019220:    f3c101c0    ....    UBFX     r1,r1,#3,#1
        0x00019224:    4288        .B      CMP      r0,r1
        0x00019226:    d001        ..      BEQ      0x1922c ; am_hal_pwrctrl_mcu_memory_config + 180
        0x00019228:    2001        .       MOVS     r0,#1
        0x0001922a:    bd38        8.      POP      {r3-r5,pc}
        0x0001922c:    7868        hx      LDRB     r0,[r5,#1]
        0x0001922e:    2800        .(      CMP      r0,#0
        0x00019230:    69e0        .i      LDR      r0,[r4,#0x1c]
        0x00019232:    bf14        ..      ITE      NE
        0x00019234:    f0200010     ...    BICNE    r0,r0,#0x10
        0x00019238:    f0400010    @...    ORREQ    r0,r0,#0x10
        0x0001923c:    61e0        .a      STR      r0,[r4,#0x1c]
        0x0001923e:    7968        hy      LDRB     r0,[r5,#5]
        0x00019240:    2800        .(      CMP      r0,#0
        0x00019242:    69e0        .i      LDR      r0,[r4,#0x1c]
        0x00019244:    bf14        ..      ITE      NE
        0x00019246:    f0200008     ...    BICNE    r0,r0,#8
        0x0001924a:    f0400008    @...    ORREQ    r0,r0,#8
        0x0001924e:    61e0        .a      STR      r0,[r4,#0x1c]
        0x00019250:    78e8        .x      LDRB     r0,[r5,#3]
        0x00019252:    2800        .(      CMP      r0,#0
        0x00019254:    bf04        ..      ITT      EQ
        0x00019256:    69e0        .i      LDREQ    r0,[r4,#0x1c]
        0x00019258:    f0400007    @...    ORREQ    r0,r0,#7
        0x0001925c:    d013        ..      BEQ      0x19286 ; am_hal_pwrctrl_mcu_memory_config + 270
        0x0001925e:    2801        .(      CMP      r0,#1
        0x00019260:    d008        ..      BEQ      0x19274 ; am_hal_pwrctrl_mcu_memory_config + 252
        0x00019262:    2803        .(      CMP      r0,#3
        0x00019264:    d00b        ..      BEQ      0x1927e ; am_hal_pwrctrl_mcu_memory_config + 262
        0x00019266:    2807        .(      CMP      r0,#7
        0x00019268:    bf04        ..      ITT      EQ
        0x0001926a:    69e0        .i      LDREQ    r0,[r4,#0x1c]
        0x0001926c:    f0200007     ...    BICEQ    r0,r0,#7
        0x00019270:    d009        ..      BEQ      0x19286 ; am_hal_pwrctrl_mcu_memory_config + 270
        0x00019272:    e009        ..      B        0x19288 ; am_hal_pwrctrl_mcu_memory_config + 272
        0x00019274:    69e0        .i      LDR      r0,[r4,#0x1c]
        0x00019276:    f0200007     ...    BIC      r0,r0,#7
        0x0001927a:    1d80        ..      ADDS     r0,r0,#6
        0x0001927c:    e003        ..      B        0x19286 ; am_hal_pwrctrl_mcu_memory_config + 270
        0x0001927e:    69e0        .i      LDR      r0,[r4,#0x1c]
        0x00019280:    f0200007     ...    BIC      r0,r0,#7
        0x00019284:    1d00        ..      ADDS     r0,r0,#4
        0x00019286:    61e0        .a      STR      r0,[r4,#0x1c]
        0x00019288:    2000        .       MOVS     r0,#0
        0x0001928a:    bd38        8.      POP      {r3-r5,pc}
    $d
        0x0001928c:    40021000    ...@    DCD    1073876992
        0x00019290:    40021018    ...@    DCD    1073877016
    $t
    i.am_hal_pwrctrl_mcu_mode_select
    am_hal_pwrctrl_mcu_mode_select
        0x00019294:    e92d4ff8    -..O    PUSH     {r3-r11,lr}
        0x00019298:    f8df91a0    ....    LDR      r9,[pc,#416] ; [0x1943c] = 0x40021000
        0x0001929c:    4604        .F      MOV      r4,r0
        0x0001929e:    2801        .(      CMP      r0,#1
        0x000192a0:    d00d        ..      BEQ      0x192be ; am_hal_pwrctrl_mcu_mode_select + 42
        0x000192a2:    2c02        .,      CMP      r4,#2
        0x000192a4:    bf1c        ..      ITT      NE
        0x000192a6:    2006        .       MOVNE    r0,#6
        0x000192a8:    e8bd8ff8    ....    POPNE    {r3-r11,pc}
        0x000192ac:    f8d90108    ....    LDR      r0,[r9,#0x108]
        0x000192b0:    f3c01001    ....    UBFX     r0,r0,#4,#2
        0x000192b4:    2803        .(      CMP      r0,#3
        0x000192b6:    bf1c        ..      ITT      NE
        0x000192b8:    2007        .       MOVNE    r0,#7
        0x000192ba:    e8bd8ff8    ....    POPNE    {r3-r11,pc}
        0x000192be:    4f60        `O      LDR      r7,[pc,#384] ; [0x19440] = 0x10000090
        0x000192c0:    7838        8x      LDRB     r0,[r7,#0]
        0x000192c2:    4284        .B      CMP      r4,r0
        0x000192c4:    d07c        |.      BEQ      0x193c0 ; am_hal_pwrctrl_mcu_mode_select + 300
        0x000192c6:    4d5f        _M      LDR      r5,[pc,#380] ; [0x19444] = 0x40020000
        0x000192c8:    703c        <p      STRB     r4,[r7,#0]
        0x000192ca:    68e8        .h      LDR      r0,[r5,#0xc]
        0x000192cc:    f04f2640    O.@&    MOV      r6,#0x40004000
        0x000192d0:    b2c0        ..      UXTB     r0,r0
        0x000192d2:    2821        !(      CMP      r0,#0x21
        0x000192d4:    d004        ..      BEQ      0x192e0 ; am_hal_pwrctrl_mcu_mode_select + 76
        0x000192d6:    f04f0a00    O...    MOV      r10,#0
        0x000192da:    2c02        .,      CMP      r4,#2
        0x000192dc:    d018        ..      BEQ      0x19310 ; am_hal_pwrctrl_mcu_mode_select + 124
        0x000192de:    e057        W.      B        0x19390 ; am_hal_pwrctrl_mcu_mode_select + 252
        0x000192e0:    6c70        pl      LDR      r0,[r6,#0x44]
        0x000192e2:    f04f0a01    O...    MOV      r10,#1
        0x000192e6:    2c02        .,      CMP      r4,#2
        0x000192e8:    d006        ..      BEQ      0x192f8 ; am_hal_pwrctrl_mcu_mode_select + 100
        0x000192ea:    f0400008    @...    ORR      r0,r0,#8
        0x000192ee:    6470        pd      STR      r0,[r6,#0x44]
        0x000192f0:    200a        .       MOVS     r0,#0xa
        0x000192f2:    f7fffb3d    ..=.    BL       am_hal_delay_us ; 0x18970
        0x000192f6:    e04b        K.      B        0x19390 ; am_hal_pwrctrl_mcu_mode_select + 252
        0x000192f8:    f0400010    @...    ORR      r0,r0,#0x10
        0x000192fc:    6470        pd      STR      r0,[r6,#0x44]
        0x000192fe:    f8d50380    ....    LDR      r0,[r5,#0x380]
        0x00019302:    f0407000    @..p    ORR      r0,r0,#0x2000000
        0x00019306:    f8c50380    ....    STR      r0,[r5,#0x380]
        0x0001930a:    200a        .       MOVS     r0,#0xa
        0x0001930c:    f7fffb30    ..0.    BL       am_hal_delay_us ; 0x18970
        0x00019310:    2203        ."      MOVS     r2,#3
        0x00019312:    2107        .!      MOVS     r1,#7
        0x00019314:    2001        .       MOVS     r0,#1
        0x00019316:    f7fff8d1    ....    BL       VDDF_simobuck_boost ; 0x184bc
        0x0001931a:    f8d50088    ....    LDR      r0,[r5,#0x88]
        0x0001931e:    f000083f    ..?.    AND      r8,r0,#0x3f
        0x00019322:    6978        xi      LDR      r0,[r7,#0x14]
        0x00019324:    f1b03fff    ...?    CMP      r0,#0xffffffff
        0x00019328:    bf08        ..      IT       EQ
        0x0001932a:    f8c78014    ....    STREQ    r8,[r7,#0x14]
        0x0001932e:    6878        xh      LDR      r0,[r7,#4]
        0x00019330:    f1b03fff    ...?    CMP      r0,#0xffffffff
        0x00019334:    d10d        ..      BNE      0x19352 ; am_hal_pwrctrl_mcu_mode_select + 190
        0x00019336:    2201        ."      MOVS     r2,#1
        0x00019338:    4b43        CK      LDR      r3,[pc,#268] ; [0x19448] = 0x10000094
        0x0001933a:    f24041c4    @..A    MOV      r1,#0x4c4
        0x0001933e:    4610        .F      MOV      r0,r2
        0x00019340:    f7fffc1e    ....    BL       am_hal_mram_info_read ; 0x18b80
        0x00019344:    b918        ..      CBNZ     r0,0x1934e ; am_hal_pwrctrl_mcu_mode_select + 186
        0x00019346:    6878        xh      LDR      r0,[r7,#4]
        0x00019348:    f1b03fff    ...?    CMP      r0,#0xffffffff
        0x0001934c:    d101        ..      BNE      0x19352 ; am_hal_pwrctrl_mcu_mode_select + 190
        0x0001934e:    2000        .       MOVS     r0,#0
        0x00019350:    6078        x`      STR      r0,[r7,#4]
        0x00019352:    6878        xh      LDR      r0,[r7,#4]
        0x00019354:    2806        .(      CMP      r0,#6
        0x00019356:    bf2c        ,.      ITE      CS
        0x00019358:    2007        .       MOVCS    r0,#7
        0x0001935a:    2003        .       MOVCC    r0,#3
        0x0001935c:    f1c0023f    ..?.    RSB      r2,r0,#0x3f
        0x00019360:    4641        AF      MOV      r1,r8
        0x00019362:    4542        BE      CMP      r2,r8
        0x00019364:    bf2c        ,.      ITE      CS
        0x00019366:    eb080b00    ....    ADDCS    r11,r8,r0
        0x0001936a:    f04f0b3f    O.?.    MOVCC    r11,#0x3f
        0x0001936e:    4559        YE      CMP      r1,r11
        0x00019370:    d00e        ..      BEQ      0x19390 ; am_hal_pwrctrl_mcu_mode_select + 252
        0x00019372:    f7fefff7    ....    BL       am_hal_interrupt_master_disable ; 0x18364
        0x00019376:    9000        ..      STR      r0,[sp,#0]
        0x00019378:    f8d50088    ....    LDR      r0,[r5,#0x88]
        0x0001937c:    f36b0005    k...    BFI      r0,r11,#0,#6
        0x00019380:    f8c50088    ....    STR      r0,[r5,#0x88]
        0x00019384:    2014        .       MOVS     r0,#0x14
        0x00019386:    f7fffaf3    ....    BL       am_hal_delay_us ; 0x18970
        0x0001938a:    9800        ..      LDR      r0,[sp,#0]
        0x0001938c:    f7feffee    ....    BL       am_hal_interrupt_master_set ; 0x1836c
        0x00019390:    230a        .#      MOVS     r3,#0xa
        0x00019392:    4622        "F      MOV      r2,r4
        0x00019394:    f04f31ff    O..1    MOV      r1,#0xffffffff
        0x00019398:    4648        HF      MOV      r0,r9
        0x0001939a:    f000fbe5    ....    BL       am_hal_util_write_and_wait ; 0x19b68
        0x0001939e:    2800        .(      CMP      r0,#0
        0x000193a0:    bf06        ..      ITTE     EQ
        0x000193a2:    f04f0b04    O...    MOVEQ    r11,#4
        0x000193a6:    f04f0800    O...    MOVEQ    r8,#0
        0x000193aa:    e8bd8ff8    ....    POPNE    {r3-r11,pc}
        0x000193ae:    bf00        ..      NOP      
        0x000193b0:    f8d90000    ....    LDR      r0,[r9,#0]
        0x000193b4:    f0100f04    ....    TST      r0,#4
        0x000193b8:    d003        ..      BEQ      0x193c2 ; am_hal_pwrctrl_mcu_mode_select + 302
        0x000193ba:    2c01        .,      CMP      r4,#1
        0x000193bc:    d00c        ..      BEQ      0x193d8 ; am_hal_pwrctrl_mcu_mode_select + 324
        0x000193be:    e022        ".      B        0x19406 ; am_hal_pwrctrl_mcu_mode_select + 370
        0x000193c0:    e038        8.      B        0x19434 ; am_hal_pwrctrl_mcu_mode_select + 416
        0x000193c2:    2001        .       MOVS     r0,#1
        0x000193c4:    f7fffad4    ....    BL       am_hal_delay_us ; 0x18970
        0x000193c8:    f1080801    ....    ADD      r8,r8,#1
        0x000193cc:    f1b80f05    ....    CMP      r8,#5
        0x000193d0:    d3ee        ..      BCC      0x193b0 ; am_hal_pwrctrl_mcu_mode_select + 284
        0x000193d2:    4658        XF      MOV      r0,r11
        0x000193d4:    e8bd8ff8    ....    POP      {r3-r11,pc}
        0x000193d8:    f8d50088    ....    LDR      r0,[r5,#0x88]
        0x000193dc:    6979        yi      LDR      r1,[r7,#0x14]
        0x000193de:    f000003f    ..?.    AND      r0,r0,#0x3f
        0x000193e2:    f1b13fff    ...?    CMP      r1,#0xffffffff
        0x000193e6:    bf08        ..      IT       EQ
        0x000193e8:    6178        xa      STREQ    r0,[r7,#0x14]
        0x000193ea:    6979        yi      LDR      r1,[r7,#0x14]
        0x000193ec:    4288        .B      CMP      r0,r1
        0x000193ee:    d005        ..      BEQ      0x193fc ; am_hal_pwrctrl_mcu_mode_select + 360
        0x000193f0:    f8d50088    ....    LDR      r0,[r5,#0x88]
        0x000193f4:    f3610005    a...    BFI      r0,r1,#0,#6
        0x000193f8:    f8c50088    ....    STR      r0,[r5,#0x88]
        0x000193fc:    2200        ."      MOVS     r2,#0
        0x000193fe:    4611        .F      MOV      r1,r2
        0x00019400:    4610        .F      MOV      r0,r2
        0x00019402:    f7fff85b    ..[.    BL       VDDF_simobuck_boost ; 0x184bc
        0x00019406:    f1ba0f00    ....    CMP      r10,#0
        0x0001940a:    d00a        ..      BEQ      0x19422 ; am_hal_pwrctrl_mcu_mode_select + 398
        0x0001940c:    6c70        pl      LDR      r0,[r6,#0x44]
        0x0001940e:    2c02        .,      CMP      r4,#2
        0x00019410:    bf0c        ..      ITE      EQ
        0x00019412:    f0200010     ...    BICEQ    r0,r0,#0x10
        0x00019416:    f0200008     ...    BICNE    r0,r0,#8
        0x0001941a:    6470        pd      STR      r0,[r6,#0x44]
        0x0001941c:    200a        .       MOVS     r0,#0xa
        0x0001941e:    f7fffaa7    ....    BL       am_hal_delay_us ; 0x18970
        0x00019422:    f8d90000    ....    LDR      r0,[r9,#0]
        0x00019426:    f3c000c1    ....    UBFX     r0,r0,#3,#2
        0x0001942a:    42a0        .B      CMP      r0,r4
        0x0001942c:    bf1c        ..      ITT      NE
        0x0001942e:    2001        .       MOVNE    r0,#1
        0x00019430:    e8bd8ff8    ....    POPNE    {r3-r11,pc}
        0x00019434:    2000        .       MOVS     r0,#0
        0x00019436:    e8bd8ff8    ....    POP      {r3-r11,pc}
    $d
        0x0001943a:    0000        ..      DCW    0
        0x0001943c:    40021000    ...@    DCD    1073876992
        0x00019440:    10000090    ....    DCD    268435600
        0x00019444:    40020000    ...@    DCD    1073872896
        0x00019448:    10000094    ....    DCD    268435604
    $t
    i.am_hal_pwrctrl_periph_disable
    am_hal_pwrctrl_periph_disable
        0x0001944c:    2822        "(      CMP      r0,#0x22
        0x0001944e:    bf24        $.      ITT      CS
        0x00019450:    2006        .       MOVCS    r0,#6
        0x00019452:    4770        pG      BXCS     lr
        0x00019454:    e92d43f8    -..C    PUSH     {r3-r9,lr}
        0x00019458:    4941        AI      LDR      r1,[pc,#260] ; [0x19560] = 0x1af7c
        0x0001945a:    2600        .&      MOVS     r6,#0
        0x0001945c:    eb011700    ....    ADD      r7,r1,r0,LSL #4
        0x00019460:    2814        .(      CMP      r0,#0x14
        0x00019462:    e9d75402    ...T    LDRD     r5,r4,[r7,#8]
        0x00019466:    e9d78900    ....    LDRD     r8,r9,[r7,#0]
        0x0001946a:    d029        ).      BEQ      0x194c0 ; am_hal_pwrctrl_periph_disable + 116
        0x0001946c:    f7feff7a    ..z.    BL       am_hal_interrupt_master_disable ; 0x18364
        0x00019470:    9000        ..      STR      r0,[sp,#0]
        0x00019472:    f8d80000    ....    LDR      r0,[r8,#0]
        0x00019476:    ea200009     ...    BIC      r0,r0,r9
        0x0001947a:    f8c80000    ....    STR      r0,[r8,#0]
        0x0001947e:    9800        ..      LDR      r0,[sp,#0]
        0x00019480:    f7feff74    ..t.    BL       am_hal_interrupt_master_set ; 0x1836c
        0x00019484:    4622        "F      MOV      r2,r4
        0x00019486:    4629        )F      MOV      r1,r5
        0x00019488:    4613        .F      MOV      r3,r2
        0x0001948a:    2005        .       MOVS     r0,#5
        0x0001948c:    9600        ..      STR      r6,[sp,#0]
        0x0001948e:    f7fffab1    ....    BL       am_hal_delay_us_status_check ; 0x189f4
        0x00019492:    2800        .(      CMP      r0,#0
        0x00019494:    bf08        ..      IT       EQ
        0x00019496:    e8bd83f8    ....    POPEQ    {r3-r9,pc}
        0x0001949a:    4630        0F      MOV      r0,r6
        0x0001949c:    68fa        .h      LDR      r2,[r7,#0xc]
        0x0001949e:    6839        9h      LDR      r1,[r7,#0]
        0x000194a0:    f5b27ff0    ....    CMP      r2,#0x1e0
        0x000194a4:    d055        U.      BEQ      0x19552 ; am_hal_pwrctrl_periph_disable + 262
        0x000194a6:    dc37        7.      BGT      0x19518 ; am_hal_pwrctrl_periph_disable + 204
        0x000194a8:    2a1e        .*      CMP      r2,#0x1e
        0x000194aa:    d04c        L.      BEQ      0x19546 ; am_hal_pwrctrl_periph_disable + 250
        0x000194ac:    2aff        .*      CMP      r2,#0xff
        0x000194ae:    bf18        ..      IT       NE
        0x000194b0:    e8bd83f8    ....    POPNE    {r3-r9,pc}
        0x000194b4:    680a        .h      LDR      r2,[r1,#0]
        0x000194b6:    f0120fff    ....    TST      r2,#0xff
        0x000194ba:    d141        A.      BNE      0x19540 ; am_hal_pwrctrl_periph_disable + 244
        0x000194bc:    e8bd83f8    ....    POP      {r3-r9,pc}
        0x000194c0:    4828        (H      LDR      r0,[pc,#160] ; [0x19564] = 0x400c0fe0
        0x000194c2:    6800        .h      LDR      r0,[r0,#0]
        0x000194c4:    28c0        .(      CMP      r0,#0xc0
        0x000194c6:    d11b        ..      BNE      0x19500 ; am_hal_pwrctrl_periph_disable + 180
        0x000194c8:    2301        .#      MOVS     r3,#1
        0x000194ca:    461a        .F      MOV      r2,r3
        0x000194cc:    4926        &I      LDR      r1,[pc,#152] ; [0x19568] = 0x400c0a7c
        0x000194ce:    2064        d       MOVS     r0,#0x64
        0x000194d0:    f7fffa64    ..d.    BL       am_hal_delay_us_status_change ; 0x1899c
        0x000194d4:    2800        .(      CMP      r0,#0
        0x000194d6:    bf18        ..      IT       NE
        0x000194d8:    e8bd83f8    ....    POPNE    {r3-r9,pc}
        0x000194dc:    2301        .#      MOVS     r3,#1
        0x000194de:    461a        .F      MOV      r2,r3
        0x000194e0:    4922        "I      LDR      r1,[pc,#136] ; [0x1956c] = 0x400c1f10
        0x000194e2:    2064        d       MOVS     r0,#0x64
        0x000194e4:    f7fffa5a    ..Z.    BL       am_hal_delay_us_status_change ; 0x1899c
        0x000194e8:    2800        .(      CMP      r0,#0
        0x000194ea:    bf18        ..      IT       NE
        0x000194ec:    e8bd83f8    ....    POPNE    {r3-r9,pc}
        0x000194f0:    481f        .H      LDR      r0,[pc,#124] ; [0x19570] = 0x400c0a80
        0x000194f2:    6801        .h      LDR      r1,[r0,#0]
        0x000194f4:    f0410101    A...    ORR      r1,r1,#1
        0x000194f8:    6001        .`      STR      r1,[r0,#0]
        0x000194fa:    200f        .       MOVS     r0,#0xf
        0x000194fc:    f7fffa38    ..8.    BL       am_hal_delay_us ; 0x18970
        0x00019500:    2310        .#      MOVS     r3,#0x10
        0x00019502:    2200        ."      MOVS     r2,#0
        0x00019504:    0419        ..      LSLS     r1,r3,#16
        0x00019506:    481b        .H      LDR      r0,[pc,#108] ; [0x19574] = 0x40021004
        0x00019508:    f000fb2e    ....    BL       am_hal_util_write_and_wait ; 0x19b68
        0x0001950c:    6828        (h      LDR      r0,[r5,#0]
        0x0001950e:    4020         @      ANDS     r0,r0,r4
        0x00019510:    bf18        ..      IT       NE
        0x00019512:    2001        .       MOVNE    r0,#1
        0x00019514:    e8bd83f8    ....    POP      {r3-r9,pc}
        0x00019518:    f5b25ff0    ..._    CMP      r2,#0x1e00
        0x0001951c:    d00a        ..      BEQ      0x19534 ; am_hal_pwrctrl_periph_disable + 232
        0x0001951e:    f5b23fe0    ...?    CMP      r2,#0x1c000
        0x00019522:    bf18        ..      IT       NE
        0x00019524:    e8bd83f8    ....    POPNE    {r3-r9,pc}
        0x00019528:    680a        .h      LDR      r2,[r1,#0]
        0x0001952a:    f4123fe0    ...?    TST      r2,#0x1c000
        0x0001952e:    d107        ..      BNE      0x19540 ; am_hal_pwrctrl_periph_disable + 244
        0x00019530:    e8bd83f8    ....    POP      {r3-r9,pc}
        0x00019534:    680a        .h      LDR      r2,[r1,#0]
        0x00019536:    f4125ff0    ..._    TST      r2,#0x1e00
        0x0001953a:    bf08        ..      IT       EQ
        0x0001953c:    e8bd83f8    ....    POPEQ    {r3-r9,pc}
        0x00019540:    6809        .h      LDR      r1,[r1,#0]
        0x00019542:    e8bd83f8    ....    POP      {r3-r9,pc}
        0x00019546:    680a        .h      LDR      r2,[r1,#0]
        0x00019548:    f0120f1e    ....    TST      r2,#0x1e
        0x0001954c:    d1f8        ..      BNE      0x19540 ; am_hal_pwrctrl_periph_disable + 244
        0x0001954e:    e8bd83f8    ....    POP      {r3-r9,pc}
        0x00019552:    680a        .h      LDR      r2,[r1,#0]
        0x00019554:    f4127ff0    ....    TST      r2,#0x1e0
        0x00019558:    d1f2        ..      BNE      0x19540 ; am_hal_pwrctrl_periph_disable + 244
        0x0001955a:    e8bd83f8    ....    POP      {r3-r9,pc}
    $d
        0x0001955e:    0000        ..      DCW    0
        0x00019560:    0001af7c    |...    DCD    110460
        0x00019564:    400c0fe0    ...@    DCD    1074532320
        0x00019568:    400c0a7c    |..@    DCD    1074530940
        0x0001956c:    400c1f10    ...@    DCD    1074536208
        0x00019570:    400c0a80    ...@    DCD    1074530944
        0x00019574:    40021004    ...@    DCD    1073876996
    $t
    i.am_hal_pwrctrl_sram_config
    am_hal_pwrctrl_sram_config
        0x00019578:    b538        8.      PUSH     {r3-r5,lr}
        0x0001957a:    4c27        'L      LDR      r4,[pc,#156] ; [0x19618] = 0x40021000
        0x0001957c:    4605        .F      MOV      r5,r0
        0x0001957e:    7801        .x      LDRB     r1,[r0,#0]
        0x00019580:    6a60        `j      LDR      r0,[r4,#0x24]
        0x00019582:    f3610001    a...    BFI      r0,r1,#0,#2
        0x00019586:    6260        `b      STR      r0,[r4,#0x24]
        0x00019588:    2001        .       MOVS     r0,#1
        0x0001958a:    9000        ..      STR      r0,[sp,#0]
        0x0001958c:    6a63        cj      LDR      r3,[r4,#0x24]
        0x0001958e:    2203        ."      MOVS     r2,#3
        0x00019590:    4922        "I      LDR      r1,[pc,#136] ; [0x1961c] = 0x40021028
        0x00019592:    2005        .       MOVS     r0,#5
        0x00019594:    f7fffa2e    ....    BL       am_hal_delay_us_status_check ; 0x189f4
        0x00019598:    2800        .(      CMP      r0,#0
        0x0001959a:    bf18        ..      IT       NE
        0x0001959c:    bd38        8.      POPNE    {r3-r5,pc}
        0x0001959e:    6aa0        .j      LDR      r0,[r4,#0x28]
        0x000195a0:    6a61        aj      LDR      r1,[r4,#0x24]
        0x000195a2:    f0000003    ....    AND      r0,r0,#3
        0x000195a6:    f0010103    ....    AND      r1,r1,#3
        0x000195aa:    4288        .B      CMP      r0,r1
        0x000195ac:    bf1c        ..      ITT      NE
        0x000195ae:    2001        .       MOVNE    r0,#1
        0x000195b0:    bd38        8.      POPNE    {r3-r5,pc}
        0x000195b2:    7869        ix      LDRB     r1,[r5,#1]
        0x000195b4:    6ae0        .j      LDR      r0,[r4,#0x2c]
        0x000195b6:    f3610083    a...    BFI      r0,r1,#2,#2
        0x000195ba:    62e0        .b      STR      r0,[r4,#0x2c]
        0x000195bc:    78a9        .x      LDRB     r1,[r5,#2]
        0x000195be:    6ae0        .j      LDR      r0,[r4,#0x2c]
        0x000195c0:    f3611087    a...    BFI      r0,r1,#6,#2
        0x000195c4:    62e0        .b      STR      r0,[r4,#0x2c]
        0x000195c6:    78e9        .x      LDRB     r1,[r5,#3]
        0x000195c8:    6ae0        .j      LDR      r0,[r4,#0x2c]
        0x000195ca:    f3612009    a..     BFI      r0,r1,#8,#2
        0x000195ce:    62e0        .b      STR      r0,[r4,#0x2c]
        0x000195d0:    7929        )y      LDRB     r1,[r5,#4]
        0x000195d2:    6ae0        .j      LDR      r0,[r4,#0x2c]
        0x000195d4:    f3611005    a...    BFI      r0,r1,#4,#2
        0x000195d8:    62e0        .b      STR      r0,[r4,#0x2c]
        0x000195da:    7968        hy      LDRB     r0,[r5,#5]
        0x000195dc:    2800        .(      CMP      r0,#0
        0x000195de:    bf04        ..      ITT      EQ
        0x000195e0:    6ae0        .j      LDREQ    r0,[r4,#0x2c]
        0x000195e2:    f0400003    @...    ORREQ    r0,r0,#3
        0x000195e6:    d00e        ..      BEQ      0x19606 ; am_hal_pwrctrl_sram_config + 142
        0x000195e8:    2801        .(      CMP      r0,#1
        0x000195ea:    d008        ..      BEQ      0x195fe ; am_hal_pwrctrl_sram_config + 134
        0x000195ec:    2802        .(      CMP      r0,#2
        0x000195ee:    d00d        ..      BEQ      0x1960c ; am_hal_pwrctrl_sram_config + 148
        0x000195f0:    2803        .(      CMP      r0,#3
        0x000195f2:    bf04        ..      ITT      EQ
        0x000195f4:    6ae0        .j      LDREQ    r0,[r4,#0x2c]
        0x000195f6:    f0200003     ...    BICEQ    r0,r0,#3
        0x000195fa:    d004        ..      BEQ      0x19606 ; am_hal_pwrctrl_sram_config + 142
        0x000195fc:    e004        ..      B        0x19608 ; am_hal_pwrctrl_sram_config + 144
        0x000195fe:    6ae0        .j      LDR      r0,[r4,#0x2c]
        0x00019600:    f0200003     ...    BIC      r0,r0,#3
        0x00019604:    1c80        ..      ADDS     r0,r0,#2
        0x00019606:    62e0        .b      STR      r0,[r4,#0x2c]
        0x00019608:    2000        .       MOVS     r0,#0
        0x0001960a:    bd38        8.      POP      {r3-r5,pc}
        0x0001960c:    6ae0        .j      LDR      r0,[r4,#0x2c]
        0x0001960e:    f0200003     ...    BIC      r0,r0,#3
        0x00019612:    1c40        @.      ADDS     r0,r0,#1
        0x00019614:    e7f7        ..      B        0x19606 ; am_hal_pwrctrl_sram_config + 142
    $d
        0x00019616:    0000        ..      DCW    0
        0x00019618:    40021000    ...@    DCD    1073876992
        0x0001961c:    40021028    (..@    DCD    1073877032
    $t
    i.am_hal_rtc_osc_disable
    am_hal_rtc_osc_disable
        0x00019620:    4803        .H      LDR      r0,[pc,#12] ; [0x19630] = 0x40004800
        0x00019622:    6801        .h      LDR      r1,[r0,#0]
        0x00019624:    f0410110    A...    ORR      r1,r1,#0x10
        0x00019628:    6001        .`      STR      r1,[r0,#0]
        0x0001962a:    2000        .       MOVS     r0,#0
        0x0001962c:    4770        pG      BX       lr
    $d
        0x0001962e:    0000        ..      DCW    0
        0x00019630:    40004800    .H.@    DCD    1073760256
    $t
    i.am_hal_sysctrl_sleep
    am_hal_sysctrl_sleep
        0x00019634:    e92d4ff0    -..O    PUSH     {r4-r11,lr}
        0x00019638:    4605        .F      MOV      r5,r0
        0x0001963a:    4868        hH      LDR      r0,[pc,#416] ; [0x197dc] = 0xf0000004
        0x0001963c:    b083        ..      SUB      sp,sp,#0xc
        0x0001963e:    f04f0900    O...    MOV      r9,#0
        0x00019642:    4468        hD      ADD      r0,sp,r0
        0x00019644:    f04f36ff    O..6    MOV      r6,#0xffffffff
        0x00019648:    46c8        .F      MOV      r8,r9
        0x0001964a:    f5b02fc0    .../    CMP      r0,#0x60000
        0x0001964e:    d300        ..      BCC      0x19652 ; am_hal_sysctrl_sleep + 30
        0x00019650:    e7fe        ..      B        0x19650 ; am_hal_sysctrl_sleep + 28
        0x00019652:    f7fefe87    ....    BL       am_hal_interrupt_master_disable ; 0x18364
        0x00019656:    4c62        bL      LDR      r4,[pc,#392] ; [0x197e0] = 0x40021000
        0x00019658:    9000        ..      STR      r0,[sp,#0]
        0x0001965a:    6820         h      LDR      r0,[r4,#0]
        0x0001965c:    f0000703    ....    AND      r7,r0,#3
        0x00019660:    f8d40108    ....    LDR      r0,[r4,#0x108]
        0x00019664:    f3c01001    ....    UBFX     r0,r0,#4,#2
        0x00019668:    2803        .(      CMP      r0,#3
        0x0001966a:    bf0c        ..      ITE      EQ
        0x0001966c:    f04f0a01    O...    MOVEQ    r10,#1
        0x00019670:    f04f0a00    O...    MOVNE    r10,#0
        0x00019674:    0028        (.      MOVS     r0,r5
        0x00019676:    f8dfb16c    ..l.    LDR      r11,[pc,#364] ; [0x197e4] = 0xe000ed10
        0x0001967a:    4d5b        [M      LDR      r5,[pc,#364] ; [0x197e8] = 0x40020000
        0x0001967c:    d004        ..      BEQ      0x19688 ; am_hal_sysctrl_sleep + 84
        0x0001967e:    f8d50250    ..P.    LDR      r0,[r5,#0x250]
        0x00019682:    f0100f10    ....    TST      r0,#0x10
        0x00019686:    d004        ..      BEQ      0x19692 ; am_hal_sysctrl_sleep + 94
        0x00019688:    f8db0000    ....    LDR      r0,[r11,#0]
        0x0001968c:    f0200004     ...    BIC      r0,r0,#4
        0x00019690:    e04f        O.      B        0x19732 ; am_hal_sysctrl_sleep + 254
        0x00019692:    68a0        .h      LDR      r0,[r4,#8]
        0x00019694:    f4101f80    ....    TST      r0,#0x100000
        0x00019698:    bf1c        ..      ITT      NE
        0x0001969a:    69e0        .i      LDRNE    r0,[r4,#0x1c]
        0x0001969c:    f0100f08    ....    TSTNE    r0,#8
        0x000196a0:    d005        ..      BEQ      0x196ae ; am_hal_sysctrl_sleep + 122
        0x000196a2:    69e0        .i      LDR      r0,[r4,#0x1c]
        0x000196a4:    f0200008     ...    BIC      r0,r0,#8
        0x000196a8:    61e0        .a      STR      r0,[r4,#0x1c]
        0x000196aa:    f04f0901    O...    MOV      r9,#1
        0x000196ae:    2f02        ./      CMP      r7,#2
        0x000196b0:    bf04        ..      ITT      EQ
        0x000196b2:    2001        .       MOVEQ    r0,#1
        0x000196b4:    f7fffdee    ....    BLEQ     am_hal_pwrctrl_mcu_mode_select ; 0x19294
        0x000196b8:    f1ba0f00    ....    CMP      r10,#0
        0x000196bc:    d035        5.      BEQ      0x1972a ; am_hal_sysctrl_sleep + 246
        0x000196be:    6920         i      LDR      r0,[r4,#0x10]
        0x000196c0:    f4106f80    ...o    TST      r0,#0x400
        0x000196c4:    bf04        ..      ITT      EQ
        0x000196c6:    68a0        .h      LDREQ    r0,[r4,#8]
        0x000196c8:    f030407e    0.~@    BICSEQ   r0,r0,#0xfe000000
        0x000196cc:    d12d        -.      BNE      0x1972a ; am_hal_sysctrl_sleep + 246
        0x000196ce:    4847        GH      LDR      r0,[pc,#284] ; [0x197ec] = 0x10000091
        0x000196d0:    f04f0801    O...    MOV      r8,#1
        0x000196d4:    7800        .x      LDRB     r0,[r0,#0]
        0x000196d6:    b188        ..      CBZ      r0,0x196fc ; am_hal_sysctrl_sleep + 200
        0x000196d8:    f8d50378    ..x.    LDR      r0,[r5,#0x378]
        0x000196dc:    f0404000    @..@    ORR      r0,r0,#0x80000000
        0x000196e0:    f8c50378    ..x.    STR      r0,[r5,#0x378]
        0x000196e4:    6c68        hl      LDR      r0,[r5,#0x44]
        0x000196e6:    f3c016c6    ....    UBFX     r6,r0,#7,#7
        0x000196ea:    4841        AH      LDR      r0,[pc,#260] ; [0x197f0] = 0x1000009c
        0x000196ec:    7801        .x      LDRB     r1,[r0,#0]
        0x000196ee:    6c68        hl      LDR      r0,[r5,#0x44]
        0x000196f0:    f36110cd    a...    BFI      r0,r1,#7,#7
        0x000196f4:    6468        hd      STR      r0,[r5,#0x44]
        0x000196f6:    2001        .       MOVS     r0,#1
        0x000196f8:    f7fff93a    ..:.    BL       am_hal_delay_us ; 0x18970
        0x000196fc:    483d        =H      LDR      r0,[pc,#244] ; [0x197f4] = 0x100000a8
        0x000196fe:    7801        .x      LDRB     r1,[r0,#0]
        0x00019700:    f8d50370    ..p.    LDR      r0,[r5,#0x370]
        0x00019704:    f3615019    a..P    BFI      r0,r1,#20,#6
        0x00019708:    f8c50370    ..p.    STR      r0,[r5,#0x370]
        0x0001970c:    f8d50380    ....    LDR      r0,[r5,#0x380]
        0x00019710:    f0204000     ..@    BIC      r0,r0,#0x80000000
        0x00019714:    f8c50380    ....    STR      r0,[r5,#0x380]
        0x00019718:    f8d50380    ....    LDR      r0,[r5,#0x380]
        0x0001971c:    f0204080     ..@    BIC      r0,r0,#0x40000000
        0x00019720:    f8c50380    ....    STR      r0,[r5,#0x380]
        0x00019724:    2000        .       MOVS     r0,#0
        0x00019726:    f000fde9    ....    BL       buck_ldo_update_override ; 0x1a2fc
        0x0001972a:    f8db0000    ....    LDR      r0,[r11,#0]
        0x0001972e:    f0400004    @...    ORR      r0,r0,#4
        0x00019732:    f8cb0000    ....    STR      r0,[r11,#0]
        0x00019736:    2100        .!      MOVS     r1,#0
        0x00019738:    2002        .       MOVS     r0,#2
        0x0001973a:    f7feffc9    ....    BL       am_hal_daxi_control ; 0x186d0
        0x0001973e:    bf30        0.      WFI      
        0x00019740:    f3bf8f6f    ..o.    ISB      
        0x00019744:    f1b80f00    ....    CMP      r8,#0
        0x00019748:    d036        6.      BEQ      0x197b8 ; am_hal_sysctrl_sleep + 388
        0x0001974a:    2001        .       MOVS     r0,#1
        0x0001974c:    f000fdd6    ....    BL       buck_ldo_update_override ; 0x1a2fc
        0x00019750:    f8d40100    ....    LDR      r0,[r4,#0x100]
        0x00019754:    f0200001     ...    BIC      r0,r0,#1
        0x00019758:    f8c40100    ....    STR      r0,[r4,#0x100]
        0x0001975c:    2000        .       MOVS     r0,#0
        0x0001975e:    f000fdcd    ....    BL       buck_ldo_update_override ; 0x1a2fc
        0x00019762:    2014        .       MOVS     r0,#0x14
        0x00019764:    f7fff904    ....    BL       am_hal_delay_us ; 0x18970
        0x00019768:    f1b63fff    ...?    CMP      r6,#0xffffffff
        0x0001976c:    d003        ..      BEQ      0x19776 ; am_hal_sysctrl_sleep + 322
        0x0001976e:    6c68        hl      LDR      r0,[r5,#0x44]
        0x00019770:    f36610cd    f...    BFI      r0,r6,#7,#7
        0x00019774:    6468        hd      STR      r0,[r5,#0x44]
        0x00019776:    f8d40100    ....    LDR      r0,[r4,#0x100]
        0x0001977a:    f0400001    @...    ORR      r0,r0,#1
        0x0001977e:    f8c40100    ....    STR      r0,[r4,#0x100]
        0x00019782:    2001        .       MOVS     r0,#1
        0x00019784:    f000fdba    ....    BL       buck_ldo_update_override ; 0x1a2fc
        0x00019788:    f8d50380    ....    LDR      r0,[r5,#0x380]
        0x0001978c:    f0404000    @..@    ORR      r0,r0,#0x80000000
        0x00019790:    f8c50380    ....    STR      r0,[r5,#0x380]
        0x00019794:    f8d50380    ....    LDR      r0,[r5,#0x380]
        0x00019798:    f0404080    @..@    ORR      r0,r0,#0x40000000
        0x0001979c:    f8c50380    ....    STR      r0,[r5,#0x380]
        0x000197a0:    f8d50370    ..p.    LDR      r0,[r5,#0x370]
        0x000197a4:    f3c05105    ...Q    UBFX     r1,r0,#20,#6
        0x000197a8:    4812        .H      LDR      r0,[pc,#72] ; [0x197f4] = 0x100000a8
        0x000197aa:    6001        .`      STR      r1,[r0,#0]
        0x000197ac:    f8d50370    ..p.    LDR      r0,[r5,#0x370]
        0x000197b0:    f020707c     .|p    BIC      r0,r0,#0x3f00000
        0x000197b4:    f8c50370    ..p.    STR      r0,[r5,#0x370]
        0x000197b8:    f1b90f00    ....    CMP      r9,#0
        0x000197bc:    d003        ..      BEQ      0x197c6 ; am_hal_sysctrl_sleep + 402
        0x000197be:    69e0        .i      LDR      r0,[r4,#0x1c]
        0x000197c0:    f0400008    @...    ORR      r0,r0,#8
        0x000197c4:    61e0        .a      STR      r0,[r4,#0x1c]
        0x000197c6:    2f02        ./      CMP      r7,#2
        0x000197c8:    bf04        ..      ITT      EQ
        0x000197ca:    2002        .       MOVEQ    r0,#2
        0x000197cc:    f7fffd62    ..b.    BLEQ     am_hal_pwrctrl_mcu_mode_select ; 0x19294
        0x000197d0:    9800        ..      LDR      r0,[sp,#0]
        0x000197d2:    f7fefdcb    ....    BL       am_hal_interrupt_master_set ; 0x1836c
        0x000197d6:    b003        ..      ADD      sp,sp,#0xc
        0x000197d8:    e8bd8ff0    ....    POP      {r4-r11,pc}
    $d
        0x000197dc:    f0000004    ....    DCD    4026531844
        0x000197e0:    40021000    ...@    DCD    1073876992
        0x000197e4:    e000ed10    ....    DCD    3758157072
        0x000197e8:    40020000    ...@    DCD    1073872896
        0x000197ec:    10000091    ....    DCD    268435601
        0x000197f0:    1000009c    ....    DCD    268435612
        0x000197f4:    100000a8    ....    DCD    268435624
    $t
    i.am_hal_timer_clear
    am_hal_timer_clear
        0x000197f8:    b538        8.      PUSH     {r3-r5,lr}
        0x000197fa:    4604        .F      MOV      r4,r0
        0x000197fc:    f7fefdb2    ....    BL       am_hal_interrupt_master_disable ; 0x18364
        0x00019800:    4914        .I      LDR      r1,[pc,#80] ; [0x19854] = 0x40008000
        0x00019802:    9000        ..      STR      r0,[sp,#0]
        0x00019804:    f8d13104    ...1    LDR      r3,[r1,#0x104]
        0x00019808:    2001        .       MOVS     r0,#1
        0x0001980a:    fa00f204    ....    LSL      r2,r0,r4
        0x0001980e:    ea230002    #...    BIC      r0,r3,r2
        0x00019812:    f8c10104    ....    STR      r0,[r1,#0x104]
        0x00019816:    0160        `.      LSLS     r0,r4,#5
        0x00019818:    4408        .D      ADD      r0,r0,r1
        0x0001981a:    f8d03200    ...2    LDR      r3,[r0,#0x200]
        0x0001981e:    f0230301    #...    BIC      r3,r3,#1
        0x00019822:    f8c03200    ...2    STR      r3,[r0,#0x200]
        0x00019826:    f8d03200    ...2    LDR      r3,[r0,#0x200]
        0x0001982a:    f0430302    C...    ORR      r3,r3,#2
        0x0001982e:    f8c03200    ...2    STR      r3,[r0,#0x200]
        0x00019832:    f8d03200    ...2    LDR      r3,[r0,#0x200]
        0x00019836:    f0430301    C...    ORR      r3,r3,#1
        0x0001983a:    f8c03200    ...2    STR      r3,[r0,#0x200]
        0x0001983e:    f8d10104    ....    LDR      r0,[r1,#0x104]
        0x00019842:    4310        .C      ORRS     r0,r0,r2
        0x00019844:    f8c10104    ....    STR      r0,[r1,#0x104]
        0x00019848:    9800        ..      LDR      r0,[sp,#0]
        0x0001984a:    f7fefd8f    ....    BL       am_hal_interrupt_master_set ; 0x1836c
        0x0001984e:    2000        .       MOVS     r0,#0
        0x00019850:    bd38        8.      POP      {r3-r5,pc}
    $d
        0x00019852:    0000        ..      DCW    0
        0x00019854:    40008000    ...@    DCD    1073774592
    $t
    i.am_hal_timer_clear_stop
    am_hal_timer_clear_stop
        0x00019858:    b538        8.      PUSH     {r3-r5,lr}
        0x0001985a:    4604        .F      MOV      r4,r0
        0x0001985c:    f7fefd82    ....    BL       am_hal_interrupt_master_disable ; 0x18364
        0x00019860:    9000        ..      STR      r0,[sp,#0]
        0x00019862:    4812        .H      LDR      r0,[pc,#72] ; [0x198ac] = 0x40008000
        0x00019864:    f8d01104    ....    LDR      r1,[r0,#0x104]
        0x00019868:    2201        ."      MOVS     r2,#1
        0x0001986a:    40a2        .@      LSLS     r2,r2,r4
        0x0001986c:    4391        .C      BICS     r1,r1,r2
        0x0001986e:    f8c01104    ....    STR      r1,[r0,#0x104]
        0x00019872:    0160        `.      LSLS     r0,r4,#5
        0x00019874:    f1004080    ...@    ADD      r0,r0,#0x40000000
        0x00019878:    f5004000    ...@    ADD      r0,r0,#0x8000
        0x0001987c:    f8d01200    ....    LDR      r1,[r0,#0x200]
        0x00019880:    f0210101    !...    BIC      r1,r1,#1
        0x00019884:    f8c01200    ....    STR      r1,[r0,#0x200]
        0x00019888:    f8d01200    ....    LDR      r1,[r0,#0x200]
        0x0001988c:    f0410102    A...    ORR      r1,r1,#2
        0x00019890:    f8c01200    ....    STR      r1,[r0,#0x200]
        0x00019894:    f8d01200    ....    LDR      r1,[r0,#0x200]
        0x00019898:    f0410101    A...    ORR      r1,r1,#1
        0x0001989c:    f8c01200    ....    STR      r1,[r0,#0x200]
        0x000198a0:    9800        ..      LDR      r0,[sp,#0]
        0x000198a2:    f7fefd63    ..c.    BL       am_hal_interrupt_master_set ; 0x1836c
        0x000198a6:    2000        .       MOVS     r0,#0
        0x000198a8:    bd38        8.      POP      {r3-r5,pc}
    $d
        0x000198aa:    0000        ..      DCW    0
        0x000198ac:    40008000    ...@    DCD    1073774592
    $t
    i.am_hal_timer_config
    am_hal_timer_config
        0x000198b0:    280d        .(      CMP      r0,#0xd
        0x000198b2:    bf04        ..      ITT      EQ
        0x000198b4:    2006        .       MOVEQ    r0,#6
        0x000198b6:    4770        pG      BXEQ     lr
        0x000198b8:    f000be88    ....    B.W      internal_timer_config ; 0x1a5cc
    i.am_hal_timer_default_config_set
    am_hal_timer_default_config_set
        0x000198bc:    2201        ."      MOVS     r2,#1
        0x000198be:    7002        .p      STRB     r2,[r0,#0]
        0x000198c0:    7042        Bp      STRB     r2,[r0,#1]
        0x000198c2:    1e91        ..      SUBS     r1,r2,#2
        0x000198c4:    60c1        .`      STR      r1,[r0,#0xc]
        0x000198c6:    6101        .a      STR      r1,[r0,#0x10]
        0x000198c8:    2100        .!      MOVS     r1,#0
        0x000198ca:    7081        .p      STRB     r1,[r0,#2]
        0x000198cc:    70c1        .p      STRB     r1,[r0,#3]
        0x000198ce:    7101        .q      STRB     r1,[r0,#4]
        0x000198d0:    7142        Bq      STRB     r2,[r0,#5]
        0x000198d2:    6081        .`      STR      r1,[r0,#8]
        0x000198d4:    4608        .F      MOV      r0,r1
        0x000198d6:    4770        pG      BX       lr
    i.am_hal_timer_disable
    am_hal_timer_disable
        0x000198d8:    b538        8.      PUSH     {r3-r5,lr}
        0x000198da:    4604        .F      MOV      r4,r0
        0x000198dc:    f7fefd42    ..B.    BL       am_hal_interrupt_master_disable ; 0x18364
        0x000198e0:    9000        ..      STR      r0,[sp,#0]
        0x000198e2:    480c        .H      LDR      r0,[pc,#48] ; [0x19914] = 0x40008000
        0x000198e4:    f8d01104    ....    LDR      r1,[r0,#0x104]
        0x000198e8:    2201        ."      MOVS     r2,#1
        0x000198ea:    40a2        .@      LSLS     r2,r2,r4
        0x000198ec:    4391        .C      BICS     r1,r1,r2
        0x000198ee:    f8c01104    ....    STR      r1,[r0,#0x104]
        0x000198f2:    0160        `.      LSLS     r0,r4,#5
        0x000198f4:    f1004080    ...@    ADD      r0,r0,#0x40000000
        0x000198f8:    f5004000    ...@    ADD      r0,r0,#0x8000
        0x000198fc:    f8d01200    ....    LDR      r1,[r0,#0x200]
        0x00019900:    f0210101    !...    BIC      r1,r1,#1
        0x00019904:    f8c01200    ....    STR      r1,[r0,#0x200]
        0x00019908:    9800        ..      LDR      r0,[sp,#0]
        0x0001990a:    f7fefd2f    ../.    BL       am_hal_interrupt_master_set ; 0x1836c
        0x0001990e:    2000        .       MOVS     r0,#0
        0x00019910:    bd38        8.      POP      {r3-r5,pc}
    $d
        0x00019912:    0000        ..      DCW    0
        0x00019914:    40008000    ...@    DCD    1073774592
    $t
    i.am_hal_timer_enable
    am_hal_timer_enable
        0x00019918:    b538        8.      PUSH     {r3-r5,lr}
        0x0001991a:    4604        .F      MOV      r4,r0
        0x0001991c:    f7fefd22    ..".    BL       am_hal_interrupt_master_disable ; 0x18364
        0x00019920:    4910        .I      LDR      r1,[pc,#64] ; [0x19964] = 0x40008000
        0x00019922:    9000        ..      STR      r0,[sp,#0]
        0x00019924:    f8d12104    ...!    LDR      r2,[r1,#0x104]
        0x00019928:    2001        .       MOVS     r0,#1
        0x0001992a:    40a0        .@      LSLS     r0,r0,r4
        0x0001992c:    4382        .C      BICS     r2,r2,r0
        0x0001992e:    f8c12104    ...!    STR      r2,[r1,#0x104]
        0x00019932:    f8512f10    Q../    LDR      r2,[r1,#0x10]!
        0x00019936:    4302        .C      ORRS     r2,r2,r0
        0x00019938:    f8412bf4    A..+    STR      r2,[r1],#0xf4
        0x0001993c:    0162        b.      LSLS     r2,r4,#5
        0x0001993e:    f1024280    ...B    ADD      r2,r2,#0x40000000
        0x00019942:    f5024200    ...B    ADD      r2,r2,#0x8000
        0x00019946:    f8d23200    ...2    LDR      r3,[r2,#0x200]
        0x0001994a:    f0430301    C...    ORR      r3,r3,#1
        0x0001994e:    f8c23200    ...2    STR      r3,[r2,#0x200]
        0x00019952:    680a        .h      LDR      r2,[r1,#0]
        0x00019954:    4310        .C      ORRS     r0,r0,r2
        0x00019956:    6008        .`      STR      r0,[r1,#0]
        0x00019958:    9800        ..      LDR      r0,[sp,#0]
        0x0001995a:    f7fefd07    ....    BL       am_hal_interrupt_master_set ; 0x1836c
        0x0001995e:    2000        .       MOVS     r0,#0
        0x00019960:    bd38        8.      POP      {r3-r5,pc}
    $d
        0x00019962:    0000        ..      DCW    0
        0x00019964:    40008000    ...@    DCD    1073774592
    $t
    i.am_hal_timer_interrupt_clear
    am_hal_timer_interrupt_clear
        0x00019968:    4901        .I      LDR      r1,[pc,#4] ; [0x19970] = 0x40008000
        0x0001996a:    6688        .f      STR      r0,[r1,#0x68]
        0x0001996c:    2000        .       MOVS     r0,#0
        0x0001996e:    4770        pG      BX       lr
    $d
        0x00019970:    40008000    ...@    DCD    1073774592
    $t
    i.am_hal_timer_interrupt_enable
    am_hal_timer_interrupt_enable
        0x00019974:    4a14        .J      LDR      r2,[pc,#80] ; [0x199c8] = 0x40020000
        0x00019976:    4601        .F      MOV      r1,r0
        0x00019978:    68d2        .h      LDR      r2,[r2,#0xc]
        0x0001997a:    b2d2        ..      UXTB     r2,r2
        0x0001997c:    2a22        "*      CMP      r2,#0x22
        0x0001997e:    bf24        $.      ITT      CS
        0x00019980:    2200        ."      MOVCS    r2,#0
        0x00019982:    4b12        .K      LDRCS    r3,[pc,#72] ; [0x199cc] = 0x100008cc
        0x00019984:    d318        ..      BCC      0x199b8 ; am_hal_timer_interrupt_enable + 68
        0x00019986:    bf00        ..      NOP      
        0x00019988:    f0110f01    ....    TST      r1,#1
        0x0001998c:    d006        ..      BEQ      0x1999c ; am_hal_timer_interrupt_enable + 40
        0x0001998e:    eb030c82    ....    ADD      r12,r3,r2,LSL #2
        0x00019992:    f89cc001    ....    LDRB     r12,[r12,#1]
        0x00019996:    f1bc0f00    ....    CMP      r12,#0
        0x0001999a:    d013        ..      BEQ      0x199c4 ; am_hal_timer_interrupt_enable + 80
        0x0001999c:    f0110f02    ....    TST      r1,#2
        0x000199a0:    d006        ..      BEQ      0x199b0 ; am_hal_timer_interrupt_enable + 60
        0x000199a2:    eb030c82    ....    ADD      r12,r3,r2,LSL #2
        0x000199a6:    f89cc003    ....    LDRB     r12,[r12,#3]
        0x000199aa:    f1bc0f00    ....    CMP      r12,#0
        0x000199ae:    d009        ..      BEQ      0x199c4 ; am_hal_timer_interrupt_enable + 80
        0x000199b0:    0889        ..      LSRS     r1,r1,#2
        0x000199b2:    1c52        R.      ADDS     r2,r2,#1
        0x000199b4:    2a10        .*      CMP      r2,#0x10
        0x000199b6:    d3e7        ..      BCC      0x19988 ; am_hal_timer_interrupt_enable + 20
        0x000199b8:    4905        .I      LDR      r1,[pc,#20] ; [0x199d0] = 0x40008000
        0x000199ba:    6e0a        .n      LDR      r2,[r1,#0x60]
        0x000199bc:    4310        .C      ORRS     r0,r0,r2
        0x000199be:    6608        .f      STR      r0,[r1,#0x60]
        0x000199c0:    2000        .       MOVS     r0,#0
        0x000199c2:    4770        pG      BX       lr
        0x000199c4:    2006        .       MOVS     r0,#6
        0x000199c6:    4770        pG      BX       lr
    $d
        0x000199c8:    40020000    ...@    DCD    1073872896
        0x000199cc:    100008cc    ....    DCD    268437708
        0x000199d0:    40008000    ...@    DCD    1073774592
    $t
    i.am_hal_timer_interrupt_status_get
    am_hal_timer_interrupt_status_get
        0x000199d4:    4a04        .J      LDR      r2,[pc,#16] ; [0x199e8] = 0x40008000
        0x000199d6:    2800        .(      CMP      r0,#0
        0x000199d8:    6e50        Pn      LDR      r0,[r2,#0x64]
        0x000199da:    bf1c        ..      ITT      NE
        0x000199dc:    6e12        .n      LDRNE    r2,[r2,#0x60]
        0x000199de:    4010        .@      ANDNE    r0,r0,r2
        0x000199e0:    6008        .`      STR      r0,[r1,#0]
        0x000199e2:    2000        .       MOVS     r0,#0
        0x000199e4:    4770        pG      BX       lr
    $d
        0x000199e6:    0000        ..      DCW    0
        0x000199e8:    40008000    ...@    DCD    1073774592
    $t
    i.am_hal_timer_read
    am_hal_timer_read
        0x000199ec:    b500        ..      PUSH     {lr}
        0x000199ee:    4907        .I      LDR      r1,[pc,#28] ; [0x19a0c] = 0x40008204
        0x000199f0:    b083        ..      SUB      sp,sp,#0xc
        0x000199f2:    eb011040    ..@.    ADD      r0,r1,r0,LSL #5
        0x000199f6:    4669        iF      MOV      r1,sp
        0x000199f8:    f7fefcbc    ....    BL       am_hal_triple_read ; 0x18374
        0x000199fc:    e9dd0100    ....    LDRD     r0,r1,[sp,#0]
        0x00019a00:    4288        .B      CMP      r0,r1
        0x00019a02:    bf0c        ..      ITE      EQ
        0x00019a04:    4608        .F      MOVEQ    r0,r1
        0x00019a06:    9802        ..      LDRNE    r0,[sp,#8]
        0x00019a08:    b003        ..      ADD      sp,sp,#0xc
        0x00019a0a:    bd00        ..      POP      {pc}
    $d
        0x00019a0c:    40008204    ...@    DCD    1073775108
    $t
    i.am_hal_timer_reset_config
    am_hal_timer_reset_config
        0x00019a10:    e92d43f8    -..C    PUSH     {r3-r9,lr}
        0x00019a14:    4605        .F      MOV      r5,r0
        0x00019a16:    0041        A.      LSLS     r1,r0,#1
        0x00019a18:    4c36        6L      LDR      r4,[pc,#216] ; [0x19af4] = 0x40008000
        0x00019a1a:    2003        .       MOVS     r0,#3
        0x00019a1c:    fa00f801    ....    LSL      r8,r0,r1
        0x00019a20:    6e20         n      LDR      r0,[r4,#0x60]
        0x00019a22:    ea200008     ...    BIC      r0,r0,r8
        0x00019a26:    6620         f      STR      r0,[r4,#0x60]
        0x00019a28:    2701        .'      MOVS     r7,#1
        0x00019a2a:    fa07f605    ....    LSL      r6,r7,r5
        0x00019a2e:    f7fefc99    ....    BL       am_hal_interrupt_master_disable ; 0x18364
        0x00019a32:    9000        ..      STR      r0,[sp,#0]
        0x00019a34:    6920         i      LDR      r0,[r4,#0x10]
        0x00019a36:    43b0        .C      BICS     r0,r0,r6
        0x00019a38:    6120         a      STR      r0,[r4,#0x10]
        0x00019a3a:    2100        .!      MOVS     r1,#0
        0x00019a3c:    fa07f001    ....    LSL      r0,r7,r1
        0x00019a40:    4230        0B      TST      r0,r6
        0x00019a42:    d014        ..      BEQ      0x19a6e ; am_hal_timer_reset_config + 94
        0x00019a44:    f8d42104    ...!    LDR      r2,[r4,#0x104]
        0x00019a48:    4382        .C      BICS     r2,r2,r0
        0x00019a4a:    f8c42104    ...!    STR      r2,[r4,#0x104]
        0x00019a4e:    014a        J.      LSLS     r2,r1,#5
        0x00019a50:    f1024280    ...B    ADD      r2,r2,#0x40000000
        0x00019a54:    f5024200    ...B    ADD      r2,r2,#0x8000
        0x00019a58:    f8d23200    ...2    LDR      r3,[r2,#0x200]
        0x00019a5c:    f0430301    C...    ORR      r3,r3,#1
        0x00019a60:    f8c23200    ...2    STR      r3,[r2,#0x200]
        0x00019a64:    f8d42104    ...!    LDR      r2,[r4,#0x104]
        0x00019a68:    4310        .C      ORRS     r0,r0,r2
        0x00019a6a:    f8c40104    ....    STR      r0,[r4,#0x104]
        0x00019a6e:    1c49        I.      ADDS     r1,r1,#1
        0x00019a70:    2910        .)      CMP      r1,#0x10
        0x00019a72:    d3e3        ..      BCC      0x19a3c ; am_hal_timer_reset_config + 44
        0x00019a74:    6921        !i      LDR      r1,[r4,#0x10]
        0x00019a76:    ea410006    A...    ORR      r0,r1,r6
        0x00019a7a:    6120         a      STR      r0,[r4,#0x10]
        0x00019a7c:    9800        ..      LDR      r0,[sp,#0]
        0x00019a7e:    f7fefc75    ..u.    BL       am_hal_interrupt_master_set ; 0x1836c
        0x00019a82:    f7fefc6f    ..o.    BL       am_hal_interrupt_master_disable ; 0x18364
        0x00019a86:    9000        ..      STR      r0,[sp,#0]
        0x00019a88:    f8d40104    ....    LDR      r0,[r4,#0x104]
        0x00019a8c:    43b0        .C      BICS     r0,r0,r6
        0x00019a8e:    f8c40104    ....    STR      r0,[r4,#0x104]
        0x00019a92:    0168        h.      LSLS     r0,r5,#5
        0x00019a94:    f1004780    ...G    ADD      r7,r0,#0x40000000
        0x00019a98:    f5074700    ...G    ADD      r7,r7,#0x8000
        0x00019a9c:    f8d70200    ....    LDR      r0,[r7,#0x200]
        0x00019aa0:    f0200001     ...    BIC      r0,r0,#1
        0x00019aa4:    f8c70200    ....    STR      r0,[r7,#0x200]
        0x00019aa8:    9800        ..      LDR      r0,[sp,#0]
        0x00019aaa:    f7fefc5f    .._.    BL       am_hal_interrupt_master_set ; 0x1836c
        0x00019aae:    f8d40104    ....    LDR      r0,[r4,#0x104]
        0x00019ab2:    43b0        .C      BICS     r0,r0,r6
        0x00019ab4:    f8c40104    ....    STR      r0,[r4,#0x104]
        0x00019ab8:    2100        .!      MOVS     r1,#0
        0x00019aba:    f8c71200    ....    STR      r1,[r7,#0x200]
        0x00019abe:    f8c71204    ....    STR      r1,[r7,#0x204]
        0x00019ac2:    f8c71208    ....    STR      r1,[r7,#0x208]
        0x00019ac6:    f8c7120c    ....    STR      r1,[r7,#0x20c]
        0x00019aca:    f8c71210    ....    STR      r1,[r7,#0x210]
        0x00019ace:    f8d40104    ....    LDR      r0,[r4,#0x104]
        0x00019ad2:    4330        0C      ORRS     r0,r0,r6
        0x00019ad4:    f8c40104    ....    STR      r0,[r4,#0x104]
        0x00019ad8:    f8c48068    ..h.    STR      r8,[r4,#0x68]
        0x00019adc:    4806        .H      LDR      r0,[pc,#24] ; [0x19af8] = 0x100008cc
        0x00019ade:    f8001025    ..%.    STRB     r1,[r0,r5,LSL #2]
        0x00019ae2:    eb000085    ....    ADD      r0,r0,r5,LSL #2
        0x00019ae6:    7041        Ap      STRB     r1,[r0,#1]
        0x00019ae8:    7081        .p      STRB     r1,[r0,#2]
        0x00019aea:    70c1        .p      STRB     r1,[r0,#3]
        0x00019aec:    4608        .F      MOV      r0,r1
        0x00019aee:    e8bd83f8    ....    POP      {r3-r9,pc}
    $d
        0x00019af2:    0000        ..      DCW    0
        0x00019af4:    40008000    ...@    DCD    1073774592
        0x00019af8:    100008cc    ....    DCD    268437708
    $t
    i.am_hal_tpiu_enable
    am_hal_tpiu_enable
        0x00019afc:    4914        .I      LDR      r1,[pc,#80] ; [0x19b50] = 0xe0040000
        0x00019afe:    2200        ."      MOVS     r2,#0
        0x00019b00:    f8c12304    ...#    STR      r2,[r1,#0x304]
        0x00019b04:    2301        .#      MOVS     r3,#1
        0x00019b06:    604b        K`      STR      r3,[r1,#4]
        0x00019b08:    f8dfc048    ..H.    LDR      r12,[pc,#72] ; [0x19b54] = 0x1da381
        0x00019b0c:    f5a04361    ..aC    SUB      r3,r0,#0xe100
        0x00019b10:    4563        cE      CMP      r3,r12
        0x00019b12:    bf28        (.      IT       CS
        0x00019b14:    4810        .H      LDRCS    r0,[pc,#64] ; [0x19b58] = 0xf4240
        0x00019b16:    4b11        .K      LDR      r3,[pc,#68] ; [0x19b5c] = 0x16e3600
        0x00019b18:    fbb3f0f0    ....    UDIV     r0,r3,r0
        0x00019b1c:    1e40        @.      SUBS     r0,r0,#1
        0x00019b1e:    b280        ..      UXTH     r0,r0
        0x00019b20:    6108        .a      STR      r0,[r1,#0x10]
        0x00019b22:    2002        .       MOVS     r0,#2
        0x00019b24:    f8c100f0    ....    STR      r0,[r1,#0xf0]
        0x00019b28:    480d        .H      LDR      r0,[pc,#52] ; [0x19b60] = 0xe0040f00
        0x00019b2a:    6002        .`      STR      r2,[r0,#0]
        0x00019b2c:    480d        .H      LDR      r0,[pc,#52] ; [0x19b64] = 0x40020000
        0x00019b2e:    f8d01250    ..P.    LDR      r1,[r0,#0x250]
        0x00019b32:    f021010e    !...    BIC      r1,r1,#0xe
        0x00019b36:    1c89        ..      ADDS     r1,r1,#2
        0x00019b38:    f8c01250    ..P.    STR      r1,[r0,#0x250]
        0x00019b3c:    f8d01250    ..P.    LDR      r1,[r0,#0x250]
        0x00019b40:    f0410101    A...    ORR      r1,r1,#1
        0x00019b44:    f8c01250    ..P.    STR      r1,[r0,#0x250]
        0x00019b48:    2064        d       MOVS     r0,#0x64
        0x00019b4a:    f7febf11    ....    B        am_hal_delay_us ; 0x18970
    $d
        0x00019b4e:    0000        ..      DCW    0
        0x00019b50:    e0040000    ....    DCD    3758358528
        0x00019b54:    001da381    ....    DCD    1942401
        0x00019b58:    000f4240    @B..    DCD    1000000
        0x00019b5c:    016e3600    .6n.    DCD    24000000
        0x00019b60:    e0040f00    ....    DCD    3758362368
        0x00019b64:    40020000    ...@    DCD    1073872896
    $t
    i.am_hal_util_write_and_wait
    am_hal_util_write_and_wait
        0x00019b68:    e92d4fff    -..O    PUSH     {r0-r11,lr}
        0x00019b6c:    b087        ..      SUB      sp,sp,#0x1c
        0x00019b6e:    461e        .F      MOV      r6,r3
        0x00019b70:    4617        .F      MOV      r7,r2
        0x00019b72:    4688        .F      MOV      r8,r1
        0x00019b74:    2400        .$      MOVS     r4,#0
        0x00019b76:    f7fefbf5    ....    BL       am_hal_interrupt_master_disable ; 0x18364
        0x00019b7a:    9005        ..      STR      r0,[sp,#0x14]
        0x00019b7c:    4668        hF      MOV      r0,sp
        0x00019b7e:    f7fffe9d    ....    BL       am_hal_timer_default_config_set ; 0x198bc
        0x00019b82:    1e60        `.      SUBS     r0,r4,#1
        0x00019b84:    2500        .%      MOVS     r5,#0
        0x00019b86:    e9cd5002    ...P    STRD     r5,r0,[sp,#8]
        0x00019b8a:    4840        @H      LDR      r0,[pc,#256] ; [0x19c8c] = 0x5b8d80
        0x00019b8c:    4940        @I      LDR      r1,[pc,#256] ; [0x19c90] = 0xf4240
        0x00019b8e:    4370        pC      MULS     r0,r6,r0
        0x00019b90:    fbb0f0f1    ....    UDIV     r0,r0,r1
        0x00019b94:    f04f0901    O...    MOV      r9,#1
        0x00019b98:    9004        ..      STR      r0,[sp,#0x10]
        0x00019b9a:    f88d9001    ....    STRB     r9,[sp,#1]
        0x00019b9e:    4669        iF      MOV      r1,sp
        0x00019ba0:    200d        .       MOVS     r0,#0xd
        0x00019ba2:    f000fd13    ....    BL       internal_timer_config ; 0x1a5cc
        0x00019ba6:    b978        x.      CBNZ     r0,0x19bc8 ; am_hal_util_write_and_wait + 96
        0x00019ba8:    200d        .       MOVS     r0,#0xd
        0x00019baa:    f7fffe25    ..%.    BL       am_hal_timer_clear ; 0x197f8
        0x00019bae:    200d        .       MOVS     r0,#0xd
        0x00019bb0:    f7fffe92    ....    BL       am_hal_timer_disable ; 0x198d8
        0x00019bb4:    f04f6000    O..`    MOV      r0,#0x8000000
        0x00019bb8:    f7fffed6    ....    BL       am_hal_timer_interrupt_clear ; 0x19968
        0x00019bbc:    b920         .      CBNZ     r0,0x19bc8 ; am_hal_util_write_and_wait + 96
        0x00019bbe:    f04f6000    O..`    MOV      r0,#0x8000000
        0x00019bc2:    f7fffed7    ....    BL       am_hal_timer_interrupt_enable ; 0x19974
        0x00019bc6:    b108        ..      CBZ      r0,0x19bcc ; am_hal_util_write_and_wait + 100
        0x00019bc8:    4604        .F      MOV      r4,r0
        0x00019bca:    e058        X.      B        0x19c7e ; am_hal_util_write_and_wait + 278
        0x00019bcc:    4831        1H      LDR      r0,[pc,#196] ; [0x19c94] = 0xe000e050
        0x00019bce:    f8805400    ...T    STRB     r5,[r0,#0x400]
        0x00019bd2:    f8dfb0c4    ....    LDR      r11,[pc,#196] ; [0x19c98] = 0xe000e008
        0x00019bd6:    f44f3a80    O..:    MOV      r10,#0x10000
        0x00019bda:    f8cba100    ....    STR      r10,[r11,#0x100]
        0x00019bde:    482f        /H      LDR      r0,[pc,#188] ; [0x19c9c] = 0xe000ed0c
        0x00019be0:    6800        .h      LDR      r0,[r0,#0]
        0x00019be2:    f3c02602    ...&    UBFX     r6,r0,#8,#3
        0x00019be6:    2e07        ..      CMP      r6,#7
        0x00019be8:    bf08        ..      IT       EQ
        0x00019bea:    2401        .$      MOVEQ    r4,#1
        0x00019bec:    d047        G.      BEQ      0x19c7e ; am_hal_util_write_and_wait + 278
        0x00019bee:    2100        .!      MOVS     r1,#0
        0x00019bf0:    2002        .       MOVS     r0,#2
        0x00019bf2:    f7fefd6d    ..m.    BL       am_hal_daxi_control ; 0x186d0
        0x00019bf6:    f3ef8511    ....    MRS      r5,BASEPRI
        0x00019bfa:    2e05        ..      CMP      r6,#5
        0x00019bfc:    bf23        #.      ITTTE    CS
        0x00019bfe:    1c70        p.      ADDCS    r0,r6,#1
        0x00019c00:    fa09f000    ....    LSLCS    r0,r9,r0
        0x00019c04:    b2c0        ..      UXTBCS   r0,r0
        0x00019c06:    2020                MOVCC    r0,#0x20
        0x00019c08:    f3808811    ....    MSR      BASEPRI,r0
        0x00019c0c:    f1b83fff    ...?    CMP      r8,#0xffffffff
        0x00019c10:    d004        ..      BEQ      0x19c1c ; am_hal_util_write_and_wait + 180
        0x00019c12:    9807        ..      LDR      r0,[sp,#0x1c]
        0x00019c14:    6800        .h      LDR      r0,[r0,#0]
        0x00019c16:    ea200008     ...    BIC      r0,r0,r8
        0x00019c1a:    4307        .C      ORRS     r7,r7,r0
        0x00019c1c:    200d        .       MOVS     r0,#0xd
        0x00019c1e:    f7fffdeb    ....    BL       am_hal_timer_clear ; 0x197f8
        0x00019c22:    481f        .H      LDR      r0,[pc,#124] ; [0x19ca0] = 0xe000ed10
        0x00019c24:    6801        .h      LDR      r1,[r0,#0]
        0x00019c26:    f0210104    !...    BIC      r1,r1,#4
        0x00019c2a:    6001        .`      STR      r1,[r0,#0]
        0x00019c2c:    4a1d        .J      LDR      r2,[pc,#116] ; [0x19ca4] = 0x10000090
        0x00019c2e:    4638        8F      MOV      r0,r7
        0x00019c30:    9907        ..      LDR      r1,[sp,#0x1c]
        0x00019c32:    69d2        .i      LDR      r2,[r2,#0x1c]
        0x00019c34:    4790        .G      BLX      r2
        0x00019c36:    200d        .       MOVS     r0,#0xd
        0x00019c38:    f7fffe4e    ..N.    BL       am_hal_timer_disable ; 0x198d8
        0x00019c3c:    f04f6040    O.@`    MOV      r0,#0xc000000
        0x00019c40:    f7fffe92    ....    BL       am_hal_timer_interrupt_clear ; 0x19968
        0x00019c44:    4669        iF      MOV      r1,sp
        0x00019c46:    2001        .       MOVS     r0,#1
        0x00019c48:    f7fffec4    ....    BL       am_hal_timer_interrupt_status_get ; 0x199d4
        0x00019c4c:    f8cba280    ....    STR      r10,[r11,#0x280]
        0x00019c50:    9800        ..      LDR      r0,[sp,#0]
        0x00019c52:    f0306040    0.@`    BICS     r0,r0,#0xc000000
        0x00019c56:    d10f        ..      BNE      0x19c78 ; am_hal_util_write_and_wait + 272
        0x00019c58:    f04f27e0    O..'    MOV      r7,#0xe000e000
        0x00019c5c:    f44f4680    O..F    MOV      r6,#0x4000
        0x00019c60:    f8c76280    ...b    STR      r6,[r7,#0x280]
        0x00019c64:    4669        iF      MOV      r1,sp
        0x00019c66:    2001        .       MOVS     r0,#1
        0x00019c68:    f7fffeb4    ....    BL       am_hal_timer_interrupt_status_get ; 0x199d4
        0x00019c6c:    9800        ..      LDR      r0,[sp,#0]
        0x00019c6e:    f0306040    0.@`    BICS     r0,r0,#0xc000000
        0x00019c72:    bf18        ..      IT       NE
        0x00019c74:    f8c76200    ...b    STRNE    r6,[r7,#0x200]
        0x00019c78:    b2e8        ..      UXTB     r0,r5
        0x00019c7a:    f3808811    ....    MSR      BASEPRI,r0
        0x00019c7e:    9805        ..      LDR      r0,[sp,#0x14]
        0x00019c80:    f7fefb74    ..t.    BL       am_hal_interrupt_master_set ; 0x1836c
        0x00019c84:    b00b        ..      ADD      sp,sp,#0x2c
        0x00019c86:    4620         F      MOV      r0,r4
        0x00019c88:    e8bd8ff0    ....    POP      {r4-r11,pc}
    $d
        0x00019c8c:    005b8d80    ..[.    DCD    6000000
        0x00019c90:    000f4240    @B..    DCD    1000000
        0x00019c94:    e000e050    P...    DCD    3758153808
        0x00019c98:    e000e008    ....    DCD    3758153736
        0x00019c9c:    e000ed0c    ....    DCD    3758157068
        0x00019ca0:    e000ed10    ....    DCD    3758157072
        0x00019ca4:    10000090    ....    DCD    268435600
    $t
    i.am_util_faultisr_collect_data
    am_util_faultisr_collect_data
        0x00019ca8:    b092        ..      SUB      sp,sp,#0x48
        0x00019caa:    4604        .F      MOV      r4,r0
        0x00019cac:    2118        .!      MOVS     r1,#0x18
        0x00019cae:    4668        hF      MOV      r0,sp
        0x00019cb0:    f7fefba0    ....    BL       __aeabi_memclr4 ; 0x183f4
        0x00019cb4:    2500        .%      MOVS     r5,#0
        0x00019cb6:    9510        ..      STR      r5,[sp,#0x40]
        0x00019cb8:    482a        *H      LDR      r0,[pc,#168] ; [0x19d64] = 0xe000ed28
        0x00019cba:    6800        .h      LDR      r0,[r0,#0]
        0x00019cbc:    9010        ..      STR      r0,[sp,#0x40]
        0x00019cbe:    9810        ..      LDR      r0,[sp,#0x40]
        0x00019cc0:    b2c0        ..      UXTB     r0,r0
        0x00019cc2:    f88d0044    ..D.    STRB     r0,[sp,#0x44]
        0x00019cc6:    9810        ..      LDR      r0,[sp,#0x40]
        0x00019cc8:    0a00        ..      LSRS     r0,r0,#8
        0x00019cca:    f88d0045    ..E.    STRB     r0,[sp,#0x45]
        0x00019cce:    9810        ..      LDR      r0,[sp,#0x40]
        0x00019cd0:    f64f71ff    O..q    MOV      r1,#0xffff
        0x00019cd4:    ea014010    ...@    AND      r0,r1,r0,LSR #16
        0x00019cd8:    f8ad0046    ..F.    STRH     r0,[sp,#0x46]
        0x00019cdc:    4821        !H      LDR      r0,[pc,#132] ; [0x19d64] = 0xe000ed28
        0x00019cde:    3010        .0      ADDS     r0,r0,#0x10
        0x00019ce0:    6800        .h      LDR      r0,[r0,#0]
        0x00019ce2:    900f        ..      STR      r0,[sp,#0x3c]
        0x00019ce4:    4620         F      MOV      r0,r4
        0x00019ce6:    f000fa4d    ..M.    BL       am_valid_sp ; 0x1a184
        0x00019cea:    b3a0        ..      CBZ      r0,0x19d56 ; am_util_faultisr_collect_data + 174
        0x00019cec:    f89d0045    ..E.    LDRB     r0,[sp,#0x45]
        0x00019cf0:    f0000002    ....    AND      r0,r0,#2
        0x00019cf4:    b120         .      CBZ      r0,0x19d00 ; am_util_faultisr_collect_data + 88
        0x00019cf6:    4621        !F      MOV      r1,r4
        0x00019cf8:    2006        .       MOVS     r0,#6
        0x00019cfa:    f7fefb2b    ..+.    BL       getStackedReg ; 0x18354
        0x00019cfe:    e001        ..      B        0x19d04 ; am_util_faultisr_collect_data + 92
        0x00019d00:    f04f30ff    O..0    MOV      r0,#0xffffffff
        0x00019d04:    900e        ..      STR      r0,[sp,#0x38]
        0x00019d06:    4621        !F      MOV      r1,r4
        0x00019d08:    2000        .       MOVS     r0,#0
        0x00019d0a:    f7fefb23    ..#.    BL       getStackedReg ; 0x18354
        0x00019d0e:    9006        ..      STR      r0,[sp,#0x18]
        0x00019d10:    4621        !F      MOV      r1,r4
        0x00019d12:    2001        .       MOVS     r0,#1
        0x00019d14:    f7fefb1e    ....    BL       getStackedReg ; 0x18354
        0x00019d18:    9007        ..      STR      r0,[sp,#0x1c]
        0x00019d1a:    4621        !F      MOV      r1,r4
        0x00019d1c:    2002        .       MOVS     r0,#2
        0x00019d1e:    f7fefb19    ....    BL       getStackedReg ; 0x18354
        0x00019d22:    9008        ..      STR      r0,[sp,#0x20]
        0x00019d24:    4621        !F      MOV      r1,r4
        0x00019d26:    2003        .       MOVS     r0,#3
        0x00019d28:    f7fefb14    ....    BL       getStackedReg ; 0x18354
        0x00019d2c:    9009        ..      STR      r0,[sp,#0x24]
        0x00019d2e:    4621        !F      MOV      r1,r4
        0x00019d30:    2004        .       MOVS     r0,#4
        0x00019d32:    f7fefb0f    ....    BL       getStackedReg ; 0x18354
        0x00019d36:    900a        ..      STR      r0,[sp,#0x28]
        0x00019d38:    4621        !F      MOV      r1,r4
        0x00019d3a:    2005        .       MOVS     r0,#5
        0x00019d3c:    f7fefb0a    ....    BL       getStackedReg ; 0x18354
        0x00019d40:    900b        ..      STR      r0,[sp,#0x2c]
        0x00019d42:    4621        !F      MOV      r1,r4
        0x00019d44:    2006        .       MOVS     r0,#6
        0x00019d46:    f7fefb05    ....    BL       getStackedReg ; 0x18354
        0x00019d4a:    900c        ..      STR      r0,[sp,#0x30]
        0x00019d4c:    4621        !F      MOV      r1,r4
        0x00019d4e:    2007        .       MOVS     r0,#7
        0x00019d50:    f7fefb00    ....    BL       getStackedReg ; 0x18354
        0x00019d54:    900d        ..      STR      r0,[sp,#0x34]
        0x00019d56:    4668        hF      MOV      r0,sp
        0x00019d58:    f7fefe7e    ..~.    BL       am_hal_fault_status_get ; 0x18a58
        0x00019d5c:    bf00        ..      NOP      
        0x00019d5e:    bf00        ..      NOP      
        0x00019d60:    e7fe        ..      B        0x19d60 ; am_util_faultisr_collect_data + 184
    $d
        0x00019d62:    0000        ..      DCW    0
        0x00019d64:    e000ed28    (...    DCD    3758157096
    $t
    i.am_util_stdio_printf
    am_util_stdio_printf
        0x00019d68:    b40f        ..      PUSH     {r0-r3}
        0x00019d6a:    b538        8.      PUSH     {r3-r5,lr}
        0x00019d6c:    480b        .H      LDR      r0,[pc,#44] ; [0x19d9c] = 0x10000000
        0x00019d6e:    6800        .h      LDR      r0,[r0,#0]
        0x00019d70:    b918        ..      CBNZ     r0,0x19d7a ; am_util_stdio_printf + 18
        0x00019d72:    2000        .       MOVS     r0,#0
        0x00019d74:    bc38        8.      POP      {r3-r5}
        0x00019d76:    f85dfb14    ]...    LDR      pc,[sp],#0x14
        0x00019d7a:    a805        ..      ADD      r0,sp,#0x14
        0x00019d7c:    9000        ..      STR      r0,[sp,#0]
        0x00019d7e:    4808        .H      LDR      r0,[pc,#32] ; [0x19da0] = 0x10000478
        0x00019d80:    9a00        ..      LDR      r2,[sp,#0]
        0x00019d82:    9904        ..      LDR      r1,[sp,#0x10]
        0x00019d84:    f000f824    ..$.    BL       am_util_stdio_vsprintf ; 0x19dd0
        0x00019d88:    4604        .F      MOV      r4,r0
        0x00019d8a:    2000        .       MOVS     r0,#0
        0x00019d8c:    9000        ..      STR      r0,[sp,#0]
        0x00019d8e:    4804        .H      LDR      r0,[pc,#16] ; [0x19da0] = 0x10000478
        0x00019d90:    4902        .I      LDR      r1,[pc,#8] ; [0x19d9c] = 0x10000000
        0x00019d92:    6809        .h      LDR      r1,[r1,#0]
        0x00019d94:    4788        .G      BLX      r1
        0x00019d96:    4620         F      MOV      r0,r4
        0x00019d98:    e7ec        ..      B        0x19d74 ; am_util_stdio_printf + 12
    $d
        0x00019d9a:    0000        ..      DCW    0
        0x00019d9c:    10000000    ....    DCD    268435456
        0x00019da0:    10000478    x...    DCD    268436600
    $t
    i.am_util_stdio_printf_init
    am_util_stdio_printf_init
        0x00019da4:    4901        .I      LDR      r1,[pc,#4] ; [0x19dac] = 0x10000000
        0x00019da6:    6008        .`      STR      r0,[r1,#0]
        0x00019da8:    4770        pG      BX       lr
    $d
        0x00019daa:    0000        ..      DCW    0
        0x00019dac:    10000000    ....    DCD    268435456
    $t
    i.am_util_stdio_terminal_clear
    am_util_stdio_terminal_clear
        0x00019db0:    b510        ..      PUSH     {r4,lr}
        0x00019db2:    a002        ..      ADR      r0,{pc}+0xa ; 0x19dbc
        0x00019db4:    f7ffffd8    ....    BL       am_util_stdio_printf ; 0x19d68
        0x00019db8:    bd10        ..      POP      {r4,pc}
    $d
        0x00019dba:    0000        ..      DCW    0
        0x00019dbc:    0a0a0a0a    ....    DCD    168430090
        0x00019dc0:    0a0a0a0a    ....    DCD    168430090
        0x00019dc4:    0a0a0a0a    ....    DCD    168430090
        0x00019dc8:    0a0a0a0a    ....    DCD    168430090
        0x00019dcc:    00000a0a    ....    DCD    2570
    $t
    i.am_util_stdio_vsprintf
    am_util_stdio_vsprintf
        0x00019dd0:    e92d4ff7    -..O    PUSH     {r0-r2,r4-r11,lr}
        0x00019dd4:    ed2d8b02    -...    VPUSH    {d8}
        0x00019dd8:    b08a        ..      SUB      sp,sp,#0x28
        0x00019dda:    4604        .F      MOV      r4,r0
        0x00019ddc:    460d        .F      MOV      r5,r1
        0x00019dde:    f04f0900    O...    MOV      r9,#0
        0x00019de2:    2000        .       MOVS     r0,#0
        0x00019de4:    9000        ..      STR      r0,[sp,#0]
        0x00019de6:    e1b9        ..      B        0x1a15c ; am_util_stdio_vsprintf + 908
        0x00019de8:    2006        .       MOVS     r0,#6
        0x00019dea:    9006        ..      STR      r0,[sp,#0x18]
        0x00019dec:    7828        (x      LDRB     r0,[r5,#0]
        0x00019dee:    2825        %(      CMP      r0,#0x25
        0x00019df0:    d012        ..      BEQ      0x19e18 ; am_util_stdio_vsprintf + 72
        0x00019df2:    b16c        l.      CBZ      r4,0x19e10 ; am_util_stdio_vsprintf + 64
        0x00019df4:    7828        (x      LDRB     r0,[r5,#0]
        0x00019df6:    280a        .(      CMP      r0,#0xa
        0x00019df8:    d107        ..      BNE      0x19e0a ; am_util_stdio_vsprintf + 58
        0x00019dfa:    48de        .H      LDR      r0,[pc,#888] ; [0x1a174] = 0x10000004
        0x00019dfc:    7800        .x      LDRB     r0,[r0,#0]
        0x00019dfe:    b120         .      CBZ      r0,0x19e0a ; am_util_stdio_vsprintf + 58
        0x00019e00:    200d        .       MOVS     r0,#0xd
        0x00019e02:    f8040b01    ....    STRB     r0,[r4],#1
        0x00019e06:    f1090901    ....    ADD      r9,r9,#1
        0x00019e0a:    7828        (x      LDRB     r0,[r5,#0]
        0x00019e0c:    f8040b01    ....    STRB     r0,[r4],#1
        0x00019e10:    1c6d        m.      ADDS     r5,r5,#1
        0x00019e12:    f1090901    ....    ADD      r9,r9,#1
        0x00019e16:    e1a1        ..      B        0x1a15c ; am_util_stdio_vsprintf + 908
        0x00019e18:    1c6d        m.      ADDS     r5,r5,#1
        0x00019e1a:    2000        .       MOVS     r0,#0
        0x00019e1c:    9002        ..      STR      r0,[sp,#8]
        0x00019e1e:    9003        ..      STR      r0,[sp,#0xc]
        0x00019e20:    2020                MOVS     r0,#0x20
        0x00019e22:    9004        ..      STR      r0,[sp,#0x10]
        0x00019e24:    7828        (x      LDRB     r0,[r5,#0]
        0x00019e26:    2830        0(      CMP      r0,#0x30
        0x00019e28:    d101        ..      BNE      0x19e2e ; am_util_stdio_vsprintf + 94
        0x00019e2a:    9004        ..      STR      r0,[sp,#0x10]
        0x00019e2c:    1c6d        m.      ADDS     r5,r5,#1
        0x00019e2e:    a907        ..      ADD      r1,sp,#0x1c
        0x00019e30:    4628        (F      MOV      r0,r5
        0x00019e32:    f000fa87    ....    BL       decstr_to_int ; 0x1a344
        0x00019e36:    4606        .F      MOV      r6,r0
        0x00019e38:    9807        ..      LDR      r0,[sp,#0x1c]
        0x00019e3a:    4405        .D      ADD      r5,r5,r0
        0x00019e3c:    7828        (x      LDRB     r0,[r5,#0]
        0x00019e3e:    2873        s(      CMP      r0,#0x73
        0x00019e40:    d002        ..      BEQ      0x19e48 ; am_util_stdio_vsprintf + 120
        0x00019e42:    2e00        ..      CMP      r6,#0
        0x00019e44:    da00        ..      BGE      0x19e48 ; am_util_stdio_vsprintf + 120
        0x00019e46:    4276        vB      RSBS     r6,r6,#0
        0x00019e48:    7828        (x      LDRB     r0,[r5,#0]
        0x00019e4a:    282e        .(      CMP      r0,#0x2e
        0x00019e4c:    d107        ..      BNE      0x19e5e ; am_util_stdio_vsprintf + 142
        0x00019e4e:    1c6d        m.      ADDS     r5,r5,#1
        0x00019e50:    a907        ..      ADD      r1,sp,#0x1c
        0x00019e52:    4628        (F      MOV      r0,r5
        0x00019e54:    f000fa76    ..v.    BL       decstr_to_int ; 0x1a344
        0x00019e58:    9006        ..      STR      r0,[sp,#0x18]
        0x00019e5a:    9807        ..      LDR      r0,[sp,#0x1c]
        0x00019e5c:    4405        .D      ADD      r5,r5,r0
        0x00019e5e:    7828        (x      LDRB     r0,[r5,#0]
        0x00019e60:    286c        l(      CMP      r0,#0x6c
        0x00019e62:    d106        ..      BNE      0x19e72 ; am_util_stdio_vsprintf + 162
        0x00019e64:    1c6d        m.      ADDS     r5,r5,#1
        0x00019e66:    7828        (x      LDRB     r0,[r5,#0]
        0x00019e68:    286c        l(      CMP      r0,#0x6c
        0x00019e6a:    d102        ..      BNE      0x19e72 ; am_util_stdio_vsprintf + 162
        0x00019e6c:    1c6d        m.      ADDS     r5,r5,#1
        0x00019e6e:    2001        .       MOVS     r0,#1
        0x00019e70:    9002        ..      STR      r0,[sp,#8]
        0x00019e72:    7828        (x      LDRB     r0,[r5,#0]
        0x00019e74:    2866        f(      CMP      r0,#0x66
        0x00019e76:    d06f        o.      BEQ      0x19f58 ; am_util_stdio_vsprintf + 392
        0x00019e78:    dc08        ..      BGT      0x19e8c ; am_util_stdio_vsprintf + 188
        0x00019e7a:    2846        F(      CMP      r0,#0x46
        0x00019e7c:    d06d        m.      BEQ      0x19f5a ; am_util_stdio_vsprintf + 394
        0x00019e7e:    2858        X(      CMP      r0,#0x58
        0x00019e80:    d05c        \.      BEQ      0x19f3c ; am_util_stdio_vsprintf + 364
        0x00019e82:    2863        c(      CMP      r0,#0x63
        0x00019e84:    d00b        ..      BEQ      0x19e9e ; am_util_stdio_vsprintf + 206
        0x00019e86:    2864        d(      CMP      r0,#0x64
        0x00019e88:    d168        h.      BNE      0x19f5c ; am_util_stdio_vsprintf + 396
        0x00019e8a:    e0c3        ..      B        0x1a014 ; am_util_stdio_vsprintf + 580
        0x00019e8c:    2869        i(      CMP      r0,#0x69
        0x00019e8e:    d07d        }.      BEQ      0x19f8c ; am_util_stdio_vsprintf + 444
        0x00019e90:    2873        s(      CMP      r0,#0x73
        0x00019e92:    d011        ..      BEQ      0x19eb8 ; am_util_stdio_vsprintf + 232
        0x00019e94:    2875        u(      CMP      r0,#0x75
        0x00019e96:    d07a        z.      BEQ      0x19f8e ; am_util_stdio_vsprintf + 446
        0x00019e98:    2878        x(      CMP      r0,#0x78
        0x00019e9a:    d1f5        ..      BNE      0x19e88 ; am_util_stdio_vsprintf + 184
        0x00019e9c:    e04b        K.      B        0x19f36 ; am_util_stdio_vsprintf + 358
        0x00019e9e:    980e        ..      LDR      r0,[sp,#0x38]
        0x00019ea0:    f8101b04    ....    LDRB     r1,[r0],#4
        0x00019ea4:    900e        ..      STR      r0,[sp,#0x38]
        0x00019ea6:    b2c8        ..      UXTB     r0,r1
        0x00019ea8:    9005        ..      STR      r0,[sp,#0x14]
        0x00019eaa:    b114        ..      CBZ      r4,0x19eb2 ; am_util_stdio_vsprintf + 226
        0x00019eac:    9805        ..      LDR      r0,[sp,#0x14]
        0x00019eae:    f8040b01    ....    STRB     r0,[r4],#1
        0x00019eb2:    f1090901    ....    ADD      r9,r9,#1
        0x00019eb6:    e14e        N.      B        0x1a156 ; am_util_stdio_vsprintf + 902
        0x00019eb8:    980e        ..      LDR      r0,[sp,#0x38]
        0x00019eba:    f850bb04    P...    LDR      r11,[r0],#4
        0x00019ebe:    900e        ..      STR      r0,[sp,#0x38]
        0x00019ec0:    4658        XF      MOV      r0,r11
        0x00019ec2:    f000fdfb    ....    BL       simple_strlen ; 0x1aabc
        0x00019ec6:    9000        ..      STR      r0,[sp,#0]
        0x00019ec8:    2e00        ..      CMP      r6,#0
        0x00019eca:    dd11        ..      BLE      0x19ef0 ; am_util_stdio_vsprintf + 288
        0x00019ecc:    9800        ..      LDR      r0,[sp,#0]
        0x00019ece:    42b0        .B      CMP      r0,r6
        0x00019ed0:    d20e        ..      BCS      0x19ef0 ; am_util_stdio_vsprintf + 288
        0x00019ed2:    9800        ..      LDR      r0,[sp,#0]
        0x00019ed4:    1a36        6.      SUBS     r6,r6,r0
        0x00019ed6:    4632        2F      MOV      r2,r6
        0x00019ed8:    4620         F      MOV      r0,r4
        0x00019eda:    9904        ..      LDR      r1,[sp,#0x10]
        0x00019edc:    f000fdc5    ....    BL       padbuffer ; 0x1aa6a
        0x00019ee0:    4606        .F      MOV      r6,r0
        0x00019ee2:    b10c        ..      CBZ      r4,0x19ee8 ; am_util_stdio_vsprintf + 280
        0x00019ee4:    4630        0F      MOV      r0,r6
        0x00019ee6:    e000        ..      B        0x19eea ; am_util_stdio_vsprintf + 282
        0x00019ee8:    2000        .       MOVS     r0,#0
        0x00019eea:    4404        .D      ADD      r4,r4,r0
        0x00019eec:    44b1        .D      ADD      r9,r9,r6
        0x00019eee:    2600        .&      MOVS     r6,#0
        0x00019ef0:    e008        ..      B        0x19f04 ; am_util_stdio_vsprintf + 308
        0x00019ef2:    b11c        ..      CBZ      r4,0x19efc ; am_util_stdio_vsprintf + 300
        0x00019ef4:    f89b0000    ....    LDRB     r0,[r11,#0]
        0x00019ef8:    f8040b01    ....    STRB     r0,[r4],#1
        0x00019efc:    f10b0b01    ....    ADD      r11,r11,#1
        0x00019f00:    f1090901    ....    ADD      r9,r9,#1
        0x00019f04:    f89b0000    ....    LDRB     r0,[r11,#0]
        0x00019f08:    2800        .(      CMP      r0,#0
        0x00019f0a:    d1f2        ..      BNE      0x19ef2 ; am_util_stdio_vsprintf + 290
        0x00019f0c:    b196        ..      CBZ      r6,0x19f34 ; am_util_stdio_vsprintf + 356
        0x00019f0e:    4276        vB      RSBS     r6,r6,#0
        0x00019f10:    9800        ..      LDR      r0,[sp,#0]
        0x00019f12:    42b0        .B      CMP      r0,r6
        0x00019f14:    d20e        ..      BCS      0x19f34 ; am_util_stdio_vsprintf + 356
        0x00019f16:    9800        ..      LDR      r0,[sp,#0]
        0x00019f18:    1a36        6.      SUBS     r6,r6,r0
        0x00019f1a:    4632        2F      MOV      r2,r6
        0x00019f1c:    4620         F      MOV      r0,r4
        0x00019f1e:    9904        ..      LDR      r1,[sp,#0x10]
        0x00019f20:    f000fda3    ....    BL       padbuffer ; 0x1aa6a
        0x00019f24:    4606        .F      MOV      r6,r0
        0x00019f26:    b10c        ..      CBZ      r4,0x19f2c ; am_util_stdio_vsprintf + 348
        0x00019f28:    4630        0F      MOV      r0,r6
        0x00019f2a:    e000        ..      B        0x19f2e ; am_util_stdio_vsprintf + 350
        0x00019f2c:    2000        .       MOVS     r0,#0
        0x00019f2e:    4404        .D      ADD      r4,r4,r0
        0x00019f30:    44b1        .D      ADD      r9,r9,r6
        0x00019f32:    2600        .&      MOVS     r6,#0
        0x00019f34:    e10f        ..      B        0x1a156 ; am_util_stdio_vsprintf + 902
        0x00019f36:    2001        .       MOVS     r0,#1
        0x00019f38:    9003        ..      STR      r0,[sp,#0xc]
        0x00019f3a:    bf00        ..      NOP      
        0x00019f3c:    9802        ..      LDR      r0,[sp,#8]
        0x00019f3e:    b170        p.      CBZ      r0,0x19f5e ; am_util_stdio_vsprintf + 398
        0x00019f40:    980e        ..      LDR      r0,[sp,#0x38]
        0x00019f42:    1dc0        ..      ADDS     r0,r0,#7
        0x00019f44:    f0200007     ...    BIC      r0,r0,#7
        0x00019f48:    4601        .F      MOV      r1,r0
        0x00019f4a:    900e        ..      STR      r0,[sp,#0x38]
        0x00019f4c:    6800        .h      LDR      r0,[r0,#0]
        0x00019f4e:    6849        Ih      LDR      r1,[r1,#4]
        0x00019f50:    9a0e        ..      LDR      r2,[sp,#0x38]
        0x00019f52:    3208        .2      ADDS     r2,r2,#8
        0x00019f54:    920e        ..      STR      r2,[sp,#0x38]
        0x00019f56:    e008        ..      B        0x19f6a ; am_util_stdio_vsprintf + 410
        0x00019f58:    e0c3        ..      B        0x1a0e2 ; am_util_stdio_vsprintf + 786
        0x00019f5a:    e0c3        ..      B        0x1a0e4 ; am_util_stdio_vsprintf + 788
        0x00019f5c:    e0f4        ..      B        0x1a148 ; am_util_stdio_vsprintf + 888
        0x00019f5e:    980e        ..      LDR      r0,[sp,#0x38]
        0x00019f60:    6800        .h      LDR      r0,[r0,#0]
        0x00019f62:    990e        ..      LDR      r1,[sp,#0x38]
        0x00019f64:    1d09        ..      ADDS     r1,r1,#4
        0x00019f66:    910e        ..      STR      r1,[sp,#0x38]
        0x00019f68:    2100        .!      MOVS     r1,#0
        0x00019f6a:    4607        .F      MOV      r7,r0
        0x00019f6c:    4688        .F      MOV      r8,r1
        0x00019f6e:    b19e        ..      CBZ      r6,0x19f98 ; am_util_stdio_vsprintf + 456
        0x00019f70:    4638        8F      MOV      r0,r7
        0x00019f72:    4641        AF      MOV      r1,r8
        0x00019f74:    f000fd30    ..0.    BL       ndigits_in_hex ; 0x1a9d8
        0x00019f78:    1a36        6.      SUBS     r6,r6,r0
        0x00019f7a:    4632        2F      MOV      r2,r6
        0x00019f7c:    4620         F      MOV      r0,r4
        0x00019f7e:    9904        ..      LDR      r1,[sp,#0x10]
        0x00019f80:    f000fd73    ..s.    BL       padbuffer ; 0x1aa6a
        0x00019f84:    4606        .F      MOV      r6,r0
        0x00019f86:    b11c        ..      CBZ      r4,0x19f90 ; am_util_stdio_vsprintf + 448
        0x00019f88:    4630        0F      MOV      r0,r6
        0x00019f8a:    e002        ..      B        0x19f92 ; am_util_stdio_vsprintf + 450
        0x00019f8c:    e043        C.      B        0x1a016 ; am_util_stdio_vsprintf + 582
        0x00019f8e:    e00e        ..      B        0x19fae ; am_util_stdio_vsprintf + 478
        0x00019f90:    2000        .       MOVS     r0,#0
        0x00019f92:    4404        .D      ADD      r4,r4,r0
        0x00019f94:    44b1        .D      ADD      r9,r9,r6
        0x00019f96:    2600        .&      MOVS     r6,#0
        0x00019f98:    4622        "F      MOV      r2,r4
        0x00019f9a:    4638        8F      MOV      r0,r7
        0x00019f9c:    4641        AF      MOV      r1,r8
        0x00019f9e:    9b03        ..      LDR      r3,[sp,#0xc]
        0x00019fa0:    f000fea4    ....    BL       uint64_to_hexstr ; 0x1acec
        0x00019fa4:    4682        .F      MOV      r10,r0
        0x00019fa6:    b104        ..      CBZ      r4,0x19faa ; am_util_stdio_vsprintf + 474
        0x00019fa8:    4454        TD      ADD      r4,r4,r10
        0x00019faa:    44d1        .D      ADD      r9,r9,r10
        0x00019fac:    e0d3        ..      B        0x1a156 ; am_util_stdio_vsprintf + 902
        0x00019fae:    9802        ..      LDR      r0,[sp,#8]
        0x00019fb0:    b158        X.      CBZ      r0,0x19fca ; am_util_stdio_vsprintf + 506
        0x00019fb2:    980e        ..      LDR      r0,[sp,#0x38]
        0x00019fb4:    1dc0        ..      ADDS     r0,r0,#7
        0x00019fb6:    f0200007     ...    BIC      r0,r0,#7
        0x00019fba:    4601        .F      MOV      r1,r0
        0x00019fbc:    900e        ..      STR      r0,[sp,#0x38]
        0x00019fbe:    6800        .h      LDR      r0,[r0,#0]
        0x00019fc0:    6849        Ih      LDR      r1,[r1,#4]
        0x00019fc2:    9a0e        ..      LDR      r2,[sp,#0x38]
        0x00019fc4:    3208        .2      ADDS     r2,r2,#8
        0x00019fc6:    920e        ..      STR      r2,[sp,#0x38]
        0x00019fc8:    e005        ..      B        0x19fd6 ; am_util_stdio_vsprintf + 518
        0x00019fca:    980e        ..      LDR      r0,[sp,#0x38]
        0x00019fcc:    6800        .h      LDR      r0,[r0,#0]
        0x00019fce:    990e        ..      LDR      r1,[sp,#0x38]
        0x00019fd0:    1d09        ..      ADDS     r1,r1,#4
        0x00019fd2:    910e        ..      STR      r1,[sp,#0x38]
        0x00019fd4:    2100        .!      MOVS     r1,#0
        0x00019fd6:    4607        .F      MOV      r7,r0
        0x00019fd8:    4688        .F      MOV      r8,r1
        0x00019fda:    b18e        ..      CBZ      r6,0x1a000 ; am_util_stdio_vsprintf + 560
        0x00019fdc:    4638        8F      MOV      r0,r7
        0x00019fde:    4641        AF      MOV      r1,r8
        0x00019fe0:    f000fd26    ..&.    BL       ndigits_in_u64 ; 0x1aa30
        0x00019fe4:    1a36        6.      SUBS     r6,r6,r0
        0x00019fe6:    4632        2F      MOV      r2,r6
        0x00019fe8:    4620         F      MOV      r0,r4
        0x00019fea:    9904        ..      LDR      r1,[sp,#0x10]
        0x00019fec:    f000fd3d    ..=.    BL       padbuffer ; 0x1aa6a
        0x00019ff0:    4606        .F      MOV      r6,r0
        0x00019ff2:    b10c        ..      CBZ      r4,0x19ff8 ; am_util_stdio_vsprintf + 552
        0x00019ff4:    4630        0F      MOV      r0,r6
        0x00019ff6:    e000        ..      B        0x19ffa ; am_util_stdio_vsprintf + 554
        0x00019ff8:    2000        .       MOVS     r0,#0
        0x00019ffa:    4404        .D      ADD      r4,r4,r0
        0x00019ffc:    44b1        .D      ADD      r9,r9,r6
        0x00019ffe:    2600        .&      MOVS     r6,#0
        0x0001a000:    4622        "F      MOV      r2,r4
        0x0001a002:    4638        8F      MOV      r0,r7
        0x0001a004:    4641        AF      MOV      r1,r8
        0x0001a006:    f000feb6    ....    BL       uint64_to_str ; 0x1ad76
        0x0001a00a:    4682        .F      MOV      r10,r0
        0x0001a00c:    b104        ..      CBZ      r4,0x1a010 ; am_util_stdio_vsprintf + 576
        0x0001a00e:    4454        TD      ADD      r4,r4,r10
        0x0001a010:    44d1        .D      ADD      r9,r9,r10
        0x0001a012:    e0a0        ..      B        0x1a156 ; am_util_stdio_vsprintf + 902
        0x0001a014:    bf00        ..      NOP      
        0x0001a016:    9802        ..      LDR      r0,[sp,#8]
        0x0001a018:    b158        X.      CBZ      r0,0x1a032 ; am_util_stdio_vsprintf + 610
        0x0001a01a:    980e        ..      LDR      r0,[sp,#0x38]
        0x0001a01c:    1dc0        ..      ADDS     r0,r0,#7
        0x0001a01e:    f0200007     ...    BIC      r0,r0,#7
        0x0001a022:    4601        .F      MOV      r1,r0
        0x0001a024:    900e        ..      STR      r0,[sp,#0x38]
        0x0001a026:    6800        .h      LDR      r0,[r0,#0]
        0x0001a028:    6849        Ih      LDR      r1,[r1,#4]
        0x0001a02a:    9a0e        ..      LDR      r2,[sp,#0x38]
        0x0001a02c:    3208        .2      ADDS     r2,r2,#8
        0x0001a02e:    920e        ..      STR      r2,[sp,#0x38]
        0x0001a030:    e005        ..      B        0x1a03e ; am_util_stdio_vsprintf + 622
        0x0001a032:    980e        ..      LDR      r0,[sp,#0x38]
        0x0001a034:    6800        .h      LDR      r0,[r0,#0]
        0x0001a036:    990e        ..      LDR      r1,[sp,#0x38]
        0x0001a038:    1d09        ..      ADDS     r1,r1,#4
        0x0001a03a:    910e        ..      STR      r1,[sp,#0x38]
        0x0001a03c:    17c1        ..      ASRS     r1,r0,#31
        0x0001a03e:    e9cd0108    ....    STRD     r0,r1,[sp,#0x20]
        0x0001a042:    2300        .#      MOVS     r3,#0
        0x0001a044:    e9dd0108    ....    LDRD     r0,r1,[sp,#0x20]
        0x0001a048:    1ac0        ..      SUBS     r0,r0,r3
        0x0001a04a:    4199        .A      SBCS     r1,r1,r3
        0x0001a04c:    da08        ..      BGE      0x1a060 ; am_util_stdio_vsprintf + 656
        0x0001a04e:    2200        ."      MOVS     r2,#0
        0x0001a050:    e9dd1008    ....    LDRD     r1,r0,[sp,#0x20]
        0x0001a054:    424f        OB      RSBS     r7,r1,#0
        0x0001a056:    eb620800    b...    SBC      r8,r2,r0
        0x0001a05a:    2001        .       MOVS     r0,#1
        0x0001a05c:    9001        ..      STR      r0,[sp,#4]
        0x0001a05e:    e003        ..      B        0x1a068 ; am_util_stdio_vsprintf + 664
        0x0001a060:    e9dd7808    ...x    LDRD     r7,r8,[sp,#0x20]
        0x0001a064:    2000        .       MOVS     r0,#0
        0x0001a066:    9001        ..      STR      r0,[sp,#4]
        0x0001a068:    b34e        N.      CBZ      r6,0x1a0be ; am_util_stdio_vsprintf + 750
        0x0001a06a:    4638        8F      MOV      r0,r7
        0x0001a06c:    4641        AF      MOV      r1,r8
        0x0001a06e:    f000fccd    ....    BL       ndigits_in_i64 ; 0x1aa0c
        0x0001a072:    1a36        6.      SUBS     r6,r6,r0
        0x0001a074:    9801        ..      LDR      r0,[sp,#4]
        0x0001a076:    b148        H.      CBZ      r0,0x1a08c ; am_util_stdio_vsprintf + 700
        0x0001a078:    1e76        v.      SUBS     r6,r6,#1
        0x0001a07a:    9804        ..      LDR      r0,[sp,#0x10]
        0x0001a07c:    2830        0(      CMP      r0,#0x30
        0x0001a07e:    d105        ..      BNE      0x1a08c ; am_util_stdio_vsprintf + 700
        0x0001a080:    b114        ..      CBZ      r4,0x1a088 ; am_util_stdio_vsprintf + 696
        0x0001a082:    202d        -       MOVS     r0,#0x2d
        0x0001a084:    f8040b01    ....    STRB     r0,[r4],#1
        0x0001a088:    f1090901    ....    ADD      r9,r9,#1
        0x0001a08c:    4632        2F      MOV      r2,r6
        0x0001a08e:    4620         F      MOV      r0,r4
        0x0001a090:    9904        ..      LDR      r1,[sp,#0x10]
        0x0001a092:    f000fcea    ....    BL       padbuffer ; 0x1aa6a
        0x0001a096:    4606        .F      MOV      r6,r0
        0x0001a098:    b10c        ..      CBZ      r4,0x1a09e ; am_util_stdio_vsprintf + 718
        0x0001a09a:    4630        0F      MOV      r0,r6
        0x0001a09c:    e000        ..      B        0x1a0a0 ; am_util_stdio_vsprintf + 720
        0x0001a09e:    2000        .       MOVS     r0,#0
        0x0001a0a0:    4404        .D      ADD      r4,r4,r0
        0x0001a0a2:    44b1        .D      ADD      r9,r9,r6
        0x0001a0a4:    2600        .&      MOVS     r6,#0
        0x0001a0a6:    9801        ..      LDR      r0,[sp,#4]
        0x0001a0a8:    b188        ..      CBZ      r0,0x1a0ce ; am_util_stdio_vsprintf + 766
        0x0001a0aa:    9804        ..      LDR      r0,[sp,#0x10]
        0x0001a0ac:    2820         (      CMP      r0,#0x20
        0x0001a0ae:    d10e        ..      BNE      0x1a0ce ; am_util_stdio_vsprintf + 766
        0x0001a0b0:    b114        ..      CBZ      r4,0x1a0b8 ; am_util_stdio_vsprintf + 744
        0x0001a0b2:    202d        -       MOVS     r0,#0x2d
        0x0001a0b4:    f8040b01    ....    STRB     r0,[r4],#1
        0x0001a0b8:    f1090901    ....    ADD      r9,r9,#1
        0x0001a0bc:    e007        ..      B        0x1a0ce ; am_util_stdio_vsprintf + 766
        0x0001a0be:    9801        ..      LDR      r0,[sp,#4]
        0x0001a0c0:    b128        (.      CBZ      r0,0x1a0ce ; am_util_stdio_vsprintf + 766
        0x0001a0c2:    b114        ..      CBZ      r4,0x1a0ca ; am_util_stdio_vsprintf + 762
        0x0001a0c4:    202d        -       MOVS     r0,#0x2d
        0x0001a0c6:    f8040b01    ....    STRB     r0,[r4],#1
        0x0001a0ca:    f1090901    ....    ADD      r9,r9,#1
        0x0001a0ce:    4622        "F      MOV      r2,r4
        0x0001a0d0:    4638        8F      MOV      r0,r7
        0x0001a0d2:    4641        AF      MOV      r1,r8
        0x0001a0d4:    f000fe4f    ..O.    BL       uint64_to_str ; 0x1ad76
        0x0001a0d8:    4682        .F      MOV      r10,r0
        0x0001a0da:    b104        ..      CBZ      r4,0x1a0de ; am_util_stdio_vsprintf + 782
        0x0001a0dc:    4454        TD      ADD      r4,r4,r10
        0x0001a0de:    44d1        .D      ADD      r9,r9,r10
        0x0001a0e0:    e039        9.      B        0x1a156 ; am_util_stdio_vsprintf + 902
        0x0001a0e2:    bf00        ..      NOP      
        0x0001a0e4:    b37c        |.      CBZ      r4,0x1a146 ; am_util_stdio_vsprintf + 886
        0x0001a0e6:    980e        ..      LDR      r0,[sp,#0x38]
        0x0001a0e8:    1dc0        ..      ADDS     r0,r0,#7
        0x0001a0ea:    f0200007     ...    BIC      r0,r0,#7
        0x0001a0ee:    900e        ..      STR      r0,[sp,#0x38]
        0x0001a0f0:    ecb01b02    ....    VLDM     r0!,{d1}
        0x0001a0f4:    eeb00a41    ..A.    VMOV.F32 s0,s2
        0x0001a0f8:    eef00a61    ..a.    VMOV.F32 s1,s3
        0x0001a0fc:    900e        ..      STR      r0,[sp,#0x38]
        0x0001a0fe:    ec510b10    Q...    VMOV     r0,r1,d0
        0x0001a102:    f000fe71    ..q.    BL       __aeabi_d2f ; 0x1ade8
        0x0001a106:    ee080a10    ....    VMOV     s16,r0
        0x0001a10a:    2014        .       MOVS     r0,#0x14
        0x0001a10c:    6020         `      STR      r0,[r4,#0]
        0x0001a10e:    4620         F      MOV      r0,r4
        0x0001a110:    eeb00a48    ..H.    VMOV.F32 s0,s16
        0x0001a114:    9906        ..      LDR      r1,[sp,#0x18]
        0x0001a116:    f000f99d    ....    BL       ftoa ; 0x1a454
        0x0001a11a:    4682        .F      MOV      r10,r0
        0x0001a11c:    f1ba0f00    ....    CMP      r10,#0
        0x0001a120:    da0e        ..      BGE      0x1a140 ; am_util_stdio_vsprintf + 880
        0x0001a122:    f10a0101    ....    ADD      r1,r10,#1
        0x0001a126:    b909        ..      CBNZ     r1,0x1a12c ; am_util_stdio_vsprintf + 860
        0x0001a128:    4813        .H      LDR      r0,[pc,#76] ; [0x1a178] = 0x302e30
        0x0001a12a:    e005        ..      B        0x1a138 ; am_util_stdio_vsprintf + 872
        0x0001a12c:    f10a0102    ....    ADD      r1,r10,#2
        0x0001a130:    b909        ..      CBNZ     r1,0x1a136 ; am_util_stdio_vsprintf + 870
        0x0001a132:    4812        .H      LDR      r0,[pc,#72] ; [0x1a17c] = 0x232e23
        0x0001a134:    e000        ..      B        0x1a138 ; am_util_stdio_vsprintf + 872
        0x0001a136:    4812        .H      LDR      r0,[pc,#72] ; [0x1a180] = 0x3f2e3f
        0x0001a138:    6020         `      STR      r0,[r4,#0]
        0x0001a13a:    f04f0a03    O...    MOV      r10,#3
        0x0001a13e:    bf00        ..      NOP      
        0x0001a140:    44d1        .D      ADD      r9,r9,r10
        0x0001a142:    4454        TD      ADD      r4,r4,r10
        0x0001a144:    bf00        ..      NOP      
        0x0001a146:    e006        ..      B        0x1a156 ; am_util_stdio_vsprintf + 902
        0x0001a148:    b114        ..      CBZ      r4,0x1a150 ; am_util_stdio_vsprintf + 896
        0x0001a14a:    7828        (x      LDRB     r0,[r5,#0]
        0x0001a14c:    f8040b01    ....    STRB     r0,[r4],#1
        0x0001a150:    f1090901    ....    ADD      r9,r9,#1
        0x0001a154:    bf00        ..      NOP      
        0x0001a156:    bf00        ..      NOP      
        0x0001a158:    1c6d        m.      ADDS     r5,r5,#1
        0x0001a15a:    bf00        ..      NOP      
        0x0001a15c:    7828        (x      LDRB     r0,[r5,#0]
        0x0001a15e:    2800        .(      CMP      r0,#0
        0x0001a160:    f47fae42    ..B.    BNE      0x19de8 ; am_util_stdio_vsprintf + 24
        0x0001a164:    b104        ..      CBZ      r4,0x1a168 ; am_util_stdio_vsprintf + 920
        0x0001a166:    7020         p      STRB     r0,[r4,#0]
        0x0001a168:    4648        HF      MOV      r0,r9
        0x0001a16a:    b00a        ..      ADD      sp,sp,#0x28
        0x0001a16c:    ecbd8b02    ....    VPOP     {d8}
        0x0001a170:    e8bd8ffe    ....    POP      {r1-r11,pc}
    $d
        0x0001a174:    10000004    ....    DCD    268435460
        0x0001a178:    00302e30    0.0.    DCD    3157552
        0x0001a17c:    00232e23    #.#.    DCD    2305571
        0x0001a180:    003f2e3f    ?.?.    DCD    4140607
    $t
    i.am_valid_sp
    am_valid_sp
        0x0001a184:    4601        .F      MOV      r1,r0
        0x0001a186:    f1b15f80    ..._    CMP      r1,#0x10000000
        0x0001a18a:    d304        ..      BCC      0x1a196 ; am_valid_sp + 18
        0x0001a18c:    4803        .H      LDR      r0,[pc,#12] ; [0x1a19c] = 0x101d8000
        0x0001a18e:    4281        .B      CMP      r1,r0
        0x0001a190:    d201        ..      BCS      0x1a196 ; am_valid_sp + 18
        0x0001a192:    2001        .       MOVS     r0,#1
        0x0001a194:    4770        pG      BX       lr
        0x0001a196:    2000        .       MOVS     r0,#0
        0x0001a198:    e7fc        ..      B        0x1a194 ; am_valid_sp + 16
    $d
        0x0001a19a:    0000        ..      DCW    0
        0x0001a19c:    101d8000    ....    DCD    270368768
    $t
    i.buck_interval_check
    buck_interval_check
        0x0001a1a0:    e92d43f0    -..C    PUSH     {r4-r9,lr}
        0x0001a1a4:    4607        .F      MOV      r7,r0
        0x0001a1a6:    4852        RH      LDR      r0,[pc,#328] ; [0x1a2f0] = 0x40021000
        0x0001a1a8:    b08b        ..      SUB      sp,sp,#0x2c
        0x0001a1aa:    f04f0800    O...    MOV      r8,#0
        0x0001a1ae:    6802        .h      LDR      r2,[r0,#0]
        0x0001a1b0:    f2427910    B..y    MOV      r9,#0x2710
        0x0001a1b4:    f3c202c1    ....    UBFX     r2,r2,#3,#2
        0x0001a1b8:    2a02        .*      CMP      r2,#2
        0x0001a1ba:    bf08        ..      IT       EQ
        0x0001a1bc:    f6446920    D. i    MOVEQ    r9,#0x4e20
        0x0001a1c0:    b117        ..      CBZ      r7,0x1a1c8 ; buck_interval_check + 40
        0x0001a1c2:    b129        ).      CBZ      r1,0x1a1d0 ; buck_interval_check + 48
        0x0001a1c4:    2901        .)      CMP      r1,#1
        0x0001a1c6:    d007        ..      BEQ      0x1a1d8 ; buck_interval_check + 56
        0x0001a1c8:    b00b        ..      ADD      sp,sp,#0x2c
        0x0001a1ca:    2006        .       MOVS     r0,#6
        0x0001a1cc:    e8bd83f0    ....    POP      {r4-r9,pc}
        0x0001a1d0:    241c        .$      MOVS     r4,#0x1c
        0x0001a1d2:    2632        2&      MOVS     r6,#0x32
        0x0001a1d4:    2596        .%      MOVS     r5,#0x96
        0x0001a1d6:    e002        ..      B        0x1a1de ; buck_interval_check + 62
        0x0001a1d8:    241d        .$      MOVS     r4,#0x1d
        0x0001a1da:    2632        2&      MOVS     r6,#0x32
        0x0001a1dc:    2596        .%      MOVS     r5,#0x96
        0x0001a1de:    f8d00100    ....    LDR      r0,[r0,#0x100]
        0x0001a1e2:    f0100f01    ....    TST      r0,#1
        0x0001a1e6:    d005        ..      BEQ      0x1a1f4 ; buck_interval_check + 84
        0x0001a1e8:    4842        BH      LDR      r0,[pc,#264] ; [0x1a2f4] = 0x40020000
        0x0001a1ea:    6e00        .n      LDR      r0,[r0,#0x60]
        0x0001a1ec:    f24011ef    @...    MOV      r1,#0x1ef
        0x0001a1f0:    4208        .B      TST      r0,r1
        0x0001a1f2:    d003        ..      BEQ      0x1a1fc ; buck_interval_check + 92
        0x0001a1f4:    b00b        ..      ADD      sp,sp,#0x2c
        0x0001a1f6:    2007        .       MOVS     r0,#7
        0x0001a1f8:    e8bd83f0    ....    POP      {r4-r9,pc}
        0x0001a1fc:    200d        .       MOVS     r0,#0xd
        0x0001a1fe:    f7fffb2b    ..+.    BL       am_hal_timer_clear_stop ; 0x19858
        0x0001a202:    200d        .       MOVS     r0,#0xd
        0x0001a204:    f7fffb68    ..h.    BL       am_hal_timer_disable ; 0x198d8
        0x0001a208:    200d        .       MOVS     r0,#0xd
        0x0001a20a:    f7fffc01    ....    BL       am_hal_timer_reset_config ; 0x19a10
        0x0001a20e:    4668        hF      MOV      r0,sp
        0x0001a210:    f7fffb54    ..T.    BL       am_hal_timer_default_config_set ; 0x198bc
        0x0001a214:    f88d4000    ...@    STRB     r4,[sp,#0]
        0x0001a218:    2402        .$      MOVS     r4,#2
        0x0001a21a:    f88d4001    ...@    STRB     r4,[sp,#1]
        0x0001a21e:    4669        iF      MOV      r1,sp
        0x0001a220:    200d        .       MOVS     r0,#0xd
        0x0001a222:    f000fc57    ..W.    BL       timer_config_b1 ; 0x1aad4
        0x0001a226:    2008        .       MOVS     r0,#8
        0x0001a228:    f7fffb16    ....    BL       am_hal_timer_clear_stop ; 0x19858
        0x0001a22c:    2008        .       MOVS     r0,#8
        0x0001a22e:    f7fffb53    ..S.    BL       am_hal_timer_disable ; 0x198d8
        0x0001a232:    2008        .       MOVS     r0,#8
        0x0001a234:    f7fffbec    ....    BL       am_hal_timer_reset_config ; 0x19a10
        0x0001a238:    a805        ..      ADD      r0,sp,#0x14
        0x0001a23a:    f7fffb3f    ..?.    BL       am_hal_timer_default_config_set ; 0x198bc
        0x0001a23e:    2001        .       MOVS     r0,#1
        0x0001a240:    f88d0014    ....    STRB     r0,[sp,#0x14]
        0x0001a244:    f88d4015    ...@    STRB     r4,[sp,#0x15]
        0x0001a248:    a905        ..      ADD      r1,sp,#0x14
        0x0001a24a:    2008        .       MOVS     r0,#8
        0x0001a24c:    f000fc42    ..B.    BL       timer_config_b1 ; 0x1aad4
        0x0001a250:    f7fef888    ....    BL       am_hal_interrupt_master_disable ; 0x18364
        0x0001a254:    900a        ..      STR      r0,[sp,#0x28]
        0x0001a256:    2008        .       MOVS     r0,#8
        0x0001a258:    f7fffb5e    ..^.    BL       am_hal_timer_enable ; 0x19918
        0x0001a25c:    200d        .       MOVS     r0,#0xd
        0x0001a25e:    f7fffb5b    ..[.    BL       am_hal_timer_enable ; 0x19918
        0x0001a262:    980a        ..      LDR      r0,[sp,#0x28]
        0x0001a264:    f7fef882    ....    BL       am_hal_interrupt_master_set ; 0x1836c
        0x0001a268:    f1b90401    ....    SUBS     r4,r9,#1
        0x0001a26c:    d315        ..      BCC      0x1a29a ; buck_interval_check + 250
        0x0001a26e:    bf00        ..      NOP      
        0x0001a270:    f7fef878    ..x.    BL       am_hal_interrupt_master_disable ; 0x18364
        0x0001a274:    900a        ..      STR      r0,[sp,#0x28]
        0x0001a276:    200d        .       MOVS     r0,#0xd
        0x0001a278:    f7fffbb8    ....    BL       am_hal_timer_read ; 0x199ec
        0x0001a27c:    280a        .(      CMP      r0,#0xa
        0x0001a27e:    d307        ..      BCC      0x1a290 ; buck_interval_check + 240
        0x0001a280:    2008        .       MOVS     r0,#8
        0x0001a282:    f7fffbb3    ....    BL       am_hal_timer_read ; 0x199ec
        0x0001a286:    4680        .F      MOV      r8,r0
        0x0001a288:    980a        ..      LDR      r0,[sp,#0x28]
        0x0001a28a:    f7fef86f    ..o.    BL       am_hal_interrupt_master_set ; 0x1836c
        0x0001a28e:    e004        ..      B        0x1a29a ; buck_interval_check + 250
        0x0001a290:    980a        ..      LDR      r0,[sp,#0x28]
        0x0001a292:    f7fef86b    ..k.    BL       am_hal_interrupt_master_set ; 0x1836c
        0x0001a296:    1e64        d.      SUBS     r4,r4,#1
        0x0001a298:    d2ea        ..      BCS      0x1a270 ; buck_interval_check + 208
        0x0001a29a:    200d        .       MOVS     r0,#0xd
        0x0001a29c:    f7fffadc    ....    BL       am_hal_timer_clear_stop ; 0x19858
        0x0001a2a0:    200d        .       MOVS     r0,#0xd
        0x0001a2a2:    f7fffb19    ....    BL       am_hal_timer_disable ; 0x198d8
        0x0001a2a6:    200d        .       MOVS     r0,#0xd
        0x0001a2a8:    f7fffbb2    ....    BL       am_hal_timer_reset_config ; 0x19a10
        0x0001a2ac:    2008        .       MOVS     r0,#8
        0x0001a2ae:    f7fffad3    ....    BL       am_hal_timer_clear_stop ; 0x19858
        0x0001a2b2:    2008        .       MOVS     r0,#8
        0x0001a2b4:    f7fffb10    ....    BL       am_hal_timer_disable ; 0x198d8
        0x0001a2b8:    2008        .       MOVS     r0,#8
        0x0001a2ba:    f7fffba9    ....    BL       am_hal_timer_reset_config ; 0x19a10
        0x0001a2be:    f1b80f00    ....    CMP      r8,#0
        0x0001a2c2:    bf02        ..      ITTT     EQ
        0x0001a2c4:    2001        .       MOVEQ    r0,#1
        0x0001a2c6:    b00b        ..      ADDEQ    sp,sp,#0x2c
        0x0001a2c8:    e8bd83f0    ....    POPEQ    {r4-r9,pc}
        0x0001a2cc:    480a        .H      LDR      r0,[pc,#40] ; [0x1a2f8] = 0xaaaaaaab
        0x0001a2ce:    fba01008    ....    UMULL    r1,r0,r0,r8
        0x0001a2d2:    0884        ..      LSRS     r4,r0,#2
        0x0001a2d4:    42b4        .B      CMP      r4,r6
        0x0001a2d6:    d306        ..      BCC      0x1a2e6 ; buck_interval_check + 326
        0x0001a2d8:    42ac        .B      CMP      r4,r5
        0x0001a2da:    d806        ..      BHI      0x1a2ea ; buck_interval_check + 330
        0x0001a2dc:    603c        <`      STR      r4,[r7,#0]
        0x0001a2de:    b00b        ..      ADD      sp,sp,#0x2c
        0x0001a2e0:    2000        .       MOVS     r0,#0
        0x0001a2e2:    e8bd83f0    ....    POP      {r4-r9,pc}
        0x0001a2e6:    4634        4F      MOV      r4,r6
        0x0001a2e8:    e7f8        ..      B        0x1a2dc ; buck_interval_check + 316
        0x0001a2ea:    462c        ,F      MOV      r4,r5
        0x0001a2ec:    e7f6        ..      B        0x1a2dc ; buck_interval_check + 316
    $d
        0x0001a2ee:    0000        ..      DCW    0
        0x0001a2f0:    40021000    ...@    DCD    1073876992
        0x0001a2f4:    40020000    ...@    DCD    1073872896
        0x0001a2f8:    aaaaaaab    ....    DCD    2863311531
    $t
    i.buck_ldo_update_override
    buck_ldo_update_override
        0x0001a2fc:    4906        .I      LDR      r1,[pc,#24] ; [0x1a318] = 0x40020000
        0x0001a2fe:    6e0a        .n      LDR      r2,[r1,#0x60]
        0x0001a300:    f3604210    `..B    BFI      r2,r0,#16,#1
        0x0001a304:    660a        .f      STR      r2,[r1,#0x60]
        0x0001a306:    6e0a        .n      LDR      r2,[r1,#0x60]
        0x0001a308:    f3600200    `...    BFI      r2,r0,#0,#1
        0x0001a30c:    660a        .f      STR      r2,[r1,#0x60]
        0x0001a30e:    6e0a        .n      LDR      r2,[r1,#0x60]
        0x0001a310:    f3601245    `.E.    BFI      r2,r0,#5,#1
        0x0001a314:    660a        .f      STR      r2,[r1,#0x60]
        0x0001a316:    4770        pG      BX       lr
    $d
        0x0001a318:    40020000    ...@    DCD    1073872896
    $t
    i.copy_words
    copy_words
        0x0001a31c:    b430        0.      PUSH     {r4,r5}
        0x0001a31e:    2301        .#      MOVS     r3,#1
        0x0001a320:    f05f0403    _...    MOVS.W   r4,#3
        0x0001a324:    f1a20c01    ....    SUB      r12,r2,#1
        0x0001a328:    f851502c    Q.,P    LDR      r5,[r1,r12,LSL #2]
        0x0001a32c:    f840502c    @.,P    STR      r5,[r0,r12,LSL #2]
        0x0001a330:    1e92        ..      SUBS     r2,r2,#2
        0x0001a332:    f851c022    Q.".    LDR      r12,[r1,r2,LSL #2]
        0x0001a336:    f840c022    @.".    STR      r12,[r0,r2,LSL #2]
        0x0001a33a:    1c9b        ..      ADDS     r3,r3,#2
        0x0001a33c:    42a3        .B      CMP      r3,r4
        0x0001a33e:    dbf1        ..      BLT      0x1a324 ; copy_words + 8
        0x0001a340:    bc30        0.      POP      {r4,r5}
        0x0001a342:    4770        pG      BX       lr
    i.decstr_to_int
    decstr_to_int
        0x0001a344:    b530        0.      PUSH     {r4,r5,lr}
        0x0001a346:    4602        .F      MOV      r2,r0
        0x0001a348:    2500        .%      MOVS     r5,#0
        0x0001a34a:    2300        .#      MOVS     r3,#0
        0x0001a34c:    2400        .$      MOVS     r4,#0
        0x0001a34e:    7810        .x      LDRB     r0,[r2,#0]
        0x0001a350:    282d        -(      CMP      r0,#0x2d
        0x0001a352:    d102        ..      BNE      0x1a35a ; decstr_to_int + 22
        0x0001a354:    2501        .%      MOVS     r5,#1
        0x0001a356:    1c52        R.      ADDS     r2,r2,#1
        0x0001a358:    1c64        d.      ADDS     r4,r4,#1
        0x0001a35a:    e007        ..      B        0x1a36c ; decstr_to_int + 40
        0x0001a35c:    1c64        d.      ADDS     r4,r4,#1
        0x0001a35e:    eb030083    ....    ADD      r0,r3,r3,LSL #2
        0x0001a362:    0043        C.      LSLS     r3,r0,#1
        0x0001a364:    7810        .x      LDRB     r0,[r2,#0]
        0x0001a366:    3830        08      SUBS     r0,r0,#0x30
        0x0001a368:    4403        .D      ADD      r3,r3,r0
        0x0001a36a:    1c52        R.      ADDS     r2,r2,#1
        0x0001a36c:    7810        .x      LDRB     r0,[r2,#0]
        0x0001a36e:    2830        0(      CMP      r0,#0x30
        0x0001a370:    db02        ..      BLT      0x1a378 ; decstr_to_int + 52
        0x0001a372:    7810        .x      LDRB     r0,[r2,#0]
        0x0001a374:    2839        9(      CMP      r0,#0x39
        0x0001a376:    ddf1        ..      BLE      0x1a35c ; decstr_to_int + 24
        0x0001a378:    b101        ..      CBZ      r1,0x1a37c ; decstr_to_int + 56
        0x0001a37a:    600c        .`      STR      r4,[r1,#0]
        0x0001a37c:    b10d        ..      CBZ      r5,0x1a382 ; decstr_to_int + 62
        0x0001a37e:    4258        XB      RSBS     r0,r3,#0
        0x0001a380:    bd30        0.      POP      {r4,r5,pc}
        0x0001a382:    4618        .F      MOV      r0,r3
        0x0001a384:    e7fc        ..      B        0x1a380 ; decstr_to_int + 60
    i.divu64_10
    divu64_10
        0x0001a386:    e92d4ff0    -..O    PUSH     {r4-r11,lr}
        0x0001a38a:    4604        .F      MOV      r4,r0
        0x0001a38c:    460d        .F      MOV      r5,r1
        0x0001a38e:    2000        .       MOVS     r0,#0
        0x0001a390:    ea850100    ....    EOR      r1,r5,r0
        0x0001a394:    4040        @@      EORS     r0,r0,r0
        0x0001a396:    4301        .C      ORRS     r1,r1,r0
        0x0001a398:    d044        D.      BEQ      0x1a424 ; divu64_10 + 158
        0x0001a39a:    ea5f0a55    _.U.    LSRS     r10,r5,#1
        0x0001a39e:    ea4f0134    O.4.    RRX      r1,r4
        0x0001a3a2:    ea4f0b94    O...    LSR      r11,r4,#2
        0x0001a3a6:    ea4b7085    K..p    ORR      r0,r11,r5,LSL #30
        0x0001a3aa:    180a        ..      ADDS     r2,r1,r0
        0x0001a3ac:    eb4a0395    J...    ADC      r3,r10,r5,LSR #2
        0x0001a3b0:    ea4f1012    O...    LSR      r0,r2,#4
        0x0001a3b4:    ea407a03    @..z    ORR      r10,r0,r3,LSL #28
        0x0001a3b8:    eb1a0202    ....    ADDS     r2,r10,r2
        0x0001a3bc:    eb431313    C...    ADC      r3,r3,r3,LSR #4
        0x0001a3c0:    ea4f2012    O..     LSR      r0,r2,#8
        0x0001a3c4:    ea406a03    @..j    ORR      r10,r0,r3,LSL #24
        0x0001a3c8:    eb1a0202    ....    ADDS     r2,r10,r2
        0x0001a3cc:    eb432313    C..#    ADC      r3,r3,r3,LSR #8
        0x0001a3d0:    ea4f4012    O..@    LSR      r0,r2,#16
        0x0001a3d4:    ea404a03    @..J    ORR      r10,r0,r3,LSL #16
        0x0001a3d8:    eb1a0202    ....    ADDS     r2,r10,r2
        0x0001a3dc:    eb434313    C..C    ADC      r3,r3,r3,LSR #16
        0x0001a3e0:    189a        ..      ADDS     r2,r3,r2
        0x0001a3e2:    f1430300    C...    ADC      r3,r3,#0
        0x0001a3e6:    08d0        ..      LSRS     r0,r2,#3
        0x0001a3e8:    ea407243    @.Cr    ORR      r2,r0,r3,LSL #29
        0x0001a3ec:    08db        ..      LSRS     r3,r3,#3
        0x0001a3ee:    210a        .!      MOVS     r1,#0xa
        0x0001a3f0:    f04f0a00    O...    MOV      r10,#0
        0x0001a3f4:    fba20b01    ....    UMULL    r0,r11,r2,r1
        0x0001a3f8:    fb03b101    ....    MLA      r1,r3,r1,r11
        0x0001a3fc:    fb02110a    ....    MLA      r1,r2,r10,r1
        0x0001a400:    1a26        &.      SUBS     r6,r4,r0
        0x0001a402:    eb650701    e...    SBC      r7,r5,r1
        0x0001a406:    2106        .!      MOVS     r1,#6
        0x0001a408:    eb160a01    ....    ADDS     r10,r6,r1
        0x0001a40c:    f1470100    G...    ADC      r1,r7,#0
        0x0001a410:    ea4f101a    O...    LSR      r0,r10,#4
        0x0001a414:    ea407a01    @..z    ORR      r10,r0,r1,LSL #28
        0x0001a418:    eb1a0002    ....    ADDS     r0,r10,r2
        0x0001a41c:    eb431111    C...    ADC      r1,r3,r1,LSR #4
        0x0001a420:    e8bd8ff0    ....    POP      {r4-r11,pc}
        0x0001a424:    46a0        .F      MOV      r8,r4
        0x0001a426:    ea4f0058    O.X.    LSR      r0,r8,#1
        0x0001a42a:    eb000c98    ....    ADD      r12,r0,r8,LSR #2
        0x0001a42e:    eb0c1c1c    ....    ADD      r12,r12,r12,LSR #4
        0x0001a432:    eb0c2c1c    ...,    ADD      r12,r12,r12,LSR #8
        0x0001a436:    eb0c4c1c    ...L    ADD      r12,r12,r12,LSR #16
        0x0001a43a:    ea4f0cdc    O...    LSR      r12,r12,#3
        0x0001a43e:    eb0c008c    ....    ADD      r0,r12,r12,LSL #2
        0x0001a442:    eba80940    ..@.    SUB      r9,r8,r0,LSL #1
        0x0001a446:    f1090006    ....    ADD      r0,r9,#6
        0x0001a44a:    eb0c1010    ....    ADD      r0,r12,r0,LSR #4
        0x0001a44e:    2100        .!      MOVS     r1,#0
        0x0001a450:    e7e6        ..      B        0x1a420 ; divu64_10 + 154
        0x0001a452:    0000        ..      MOVS     r0,r0
    i.ftoa
    ftoa
        0x0001a454:    e92d4ff3    -..O    PUSH     {r0,r1,r4-r11,lr}
        0x0001a458:    ed2d0b02    -...    VPUSH    {d0}
        0x0001a45c:    ed2d8b02    -...    VPUSH    {d8}
        0x0001a460:    b081        ..      SUB      sp,sp,#4
        0x0001a462:    eeb08a40    ..@.    VMOV.F32 s16,s0
        0x0001a466:    4604        .F      MOV      r4,r0
        0x0001a468:    f8d4b000    ....    LDR      r11,[r4,#0]
        0x0001a46c:    f1bb0f04    ....    CMP      r11,#4
        0x0001a470:    da07        ..      BGE      0x1a482 ; ftoa + 46
        0x0001a472:    f06f0002    o...    MVN      r0,#2
        0x0001a476:    b001        ..      ADD      sp,sp,#4
        0x0001a478:    ecbd8b02    ....    VPOP     {d8}
        0x0001a47c:    b004        ..      ADD      sp,sp,#0x10
        0x0001a47e:    e8bd8ff0    ....    POP      {r4-r11,pc}
        0x0001a482:    eeb58ac0    ....    VCMPE.F32 s16,#0.0
        0x0001a486:    eef1fa10    ....    VMRS     APSR_nzcv,FPSCR
        0x0001a48a:    d103        ..      BNE      0x1a494 ; ftoa + 64
        0x0001a48c:    484e        NH      LDR      r0,[pc,#312] ; [0x1a5c8] = 0x302e30
        0x0001a48e:    6020         `      STR      r0,[r4,#0]
        0x0001a490:    2003        .       MOVS     r0,#3
        0x0001a492:    e7f0        ..      B        0x1a476 ; ftoa + 34
        0x0001a494:    46a2        .F      MOV      r10,r4
        0x0001a496:    ed8d8a00    ....    VSTR     s16,[sp,#0]
        0x0001a49a:    9800        ..      LDR      r0,[sp,#0]
        0x0001a49c:    f3c050c7    ...P    UBFX     r0,r0,#23,#8
        0x0001a4a0:    f1a0057f    ....    SUB      r5,r0,#0x7f
        0x0001a4a4:    9800        ..      LDR      r0,[sp,#0]
        0x0001a4a6:    f020407f     ..@    BIC      r0,r0,#0xff000000
        0x0001a4aa:    f4400900    @...    ORR      r9,r0,#0x800000
        0x0001a4ae:    f04f0800    O...    MOV      r8,#0
        0x0001a4b2:    2700        .'      MOVS     r7,#0
        0x0001a4b4:    2d1f        .-      CMP      r5,#0x1f
        0x0001a4b6:    db01        ..      BLT      0x1a4bc ; ftoa + 104
        0x0001a4b8:    1eb8        ..      SUBS     r0,r7,#2
        0x0001a4ba:    e7dc        ..      B        0x1a476 ; ftoa + 34
        0x0001a4bc:    f1150f17    ....    CMN      r5,#0x17
        0x0001a4c0:    da02        ..      BGE      0x1a4c8 ; ftoa + 116
        0x0001a4c2:    f04f30ff    O..0    MOV      r0,#0xffffffff
        0x0001a4c6:    e7d6        ..      B        0x1a476 ; ftoa + 34
        0x0001a4c8:    2d17        .-      CMP      r5,#0x17
        0x0001a4ca:    db04        ..      BLT      0x1a4d6 ; ftoa + 130
        0x0001a4cc:    f1a50017    ....    SUB      r0,r5,#0x17
        0x0001a4d0:    fa09f700    ....    LSL      r7,r9,r0
        0x0001a4d4:    e011        ..      B        0x1a4fa ; ftoa + 166
        0x0001a4d6:    2d00        .-      CMP      r5,#0
        0x0001a4d8:    db09        ..      BLT      0x1a4ee ; ftoa + 154
        0x0001a4da:    f1c50017    ....    RSB      r0,r5,#0x17
        0x0001a4de:    fa49f700    I...    ASR      r7,r9,r0
        0x0001a4e2:    1c68        h.      ADDS     r0,r5,#1
        0x0001a4e4:    fa09f000    ....    LSL      r0,r9,r0
        0x0001a4e8:    f020487f     ..H    BIC      r8,r0,#0xff000000
        0x0001a4ec:    e005        ..      B        0x1a4fa ; ftoa + 166
        0x0001a4ee:    f029407f    )..@    BIC      r0,r9,#0xff000000
        0x0001a4f2:    1c69        i.      ADDS     r1,r5,#1
        0x0001a4f4:    4249        IB      RSBS     r1,r1,#0
        0x0001a4f6:    fa40f801    @...    ASR      r8,r0,r1
        0x0001a4fa:    9800        ..      LDR      r0,[sp,#0]
        0x0001a4fc:    2800        .(      CMP      r0,#0
        0x0001a4fe:    da02        ..      BGE      0x1a506 ; ftoa + 178
        0x0001a500:    202d        -       MOVS     r0,#0x2d
        0x0001a502:    f8040b01    ....    STRB     r0,[r4],#1
        0x0001a506:    b91f        ..      CBNZ     r7,0x1a510 ; ftoa + 188
        0x0001a508:    2030        0       MOVS     r0,#0x30
        0x0001a50a:    f8040b01    ....    STRB     r0,[r4],#1
        0x0001a50e:    e014        ..      B        0x1a53a ; ftoa + 230
        0x0001a510:    2f00        ./      CMP      r7,#0
        0x0001a512:    dd05        ..      BLE      0x1a520 ; ftoa + 204
        0x0001a514:    4622        "F      MOV      r2,r4
        0x0001a516:    4638        8F      MOV      r0,r7
        0x0001a518:    17f9        ..      ASRS     r1,r7,#31
        0x0001a51a:    f000fc2c    ..,.    BL       uint64_to_str ; 0x1ad76
        0x0001a51e:    e007        ..      B        0x1a530 ; ftoa + 220
        0x0001a520:    202d        -       MOVS     r0,#0x2d
        0x0001a522:    f8040b01    ....    STRB     r0,[r4],#1
        0x0001a526:    4622        "F      MOV      r2,r4
        0x0001a528:    4278        xB      RSBS     r0,r7,#0
        0x0001a52a:    17c1        ..      ASRS     r1,r0,#31
        0x0001a52c:    f000fc23    ..#.    BL       uint64_to_str ; 0x1ad76
        0x0001a530:    e000        ..      B        0x1a534 ; ftoa + 224
        0x0001a532:    1c64        d.      ADDS     r4,r4,#1
        0x0001a534:    7820         x      LDRB     r0,[r4,#0]
        0x0001a536:    2800        .(      CMP      r0,#0
        0x0001a538:    d1fb        ..      BNE      0x1a532 ; ftoa + 222
        0x0001a53a:    202e        .       MOVS     r0,#0x2e
        0x0001a53c:    f8040b01    ....    STRB     r0,[r4],#1
        0x0001a540:    f1b80f00    ....    CMP      r8,#0
        0x0001a544:    d103        ..      BNE      0x1a54e ; ftoa + 250
        0x0001a546:    2030        0       MOVS     r0,#0x30
        0x0001a548:    f8040b01    ....    STRB     r0,[r4],#1
        0x0001a54c:    e036        6.      B        0x1a5bc ; ftoa + 360
        0x0001a54e:    eba4020a    ....    SUB      r2,r4,r10
        0x0001a552:    ebab0202    ....    SUB      r2,r11,r2
        0x0001a556:    1e51        Q.      SUBS     r1,r2,#1
        0x0001a558:    9a06        ..      LDR      r2,[sp,#0x18]
        0x0001a55a:    4291        .B      CMP      r1,r2
        0x0001a55c:    dd01        ..      BLE      0x1a562 ; ftoa + 270
        0x0001a55e:    9a06        ..      LDR      r2,[sp,#0x18]
        0x0001a560:    e000        ..      B        0x1a564 ; ftoa + 272
        0x0001a562:    460a        .F      MOV      r2,r1
        0x0001a564:    4611        .F      MOV      r1,r2
        0x0001a566:    2000        .       MOVS     r0,#0
        0x0001a568:    e00b        ..      B        0x1a582 ; ftoa + 302
        0x0001a56a:    eb080288    ....    ADD      r2,r8,r8,LSL #2
        0x0001a56e:    ea4f0842    O.B.    LSL      r8,r2,#1
        0x0001a572:    2230        0"      MOVS     r2,#0x30
        0x0001a574:    eb026228    ..(b    ADD      r2,r2,r8,ASR #24
        0x0001a578:    f8042b01    ...+    STRB     r2,[r4],#1
        0x0001a57c:    f028487f    (..H    BIC      r8,r8,#0xff000000
        0x0001a580:    1c40        @.      ADDS     r0,r0,#1
        0x0001a582:    4288        .B      CMP      r0,r1
        0x0001a584:    dbf1        ..      BLT      0x1a56a ; ftoa + 278
        0x0001a586:    eb080288    ....    ADD      r2,r8,r8,LSL #2
        0x0001a58a:    0052        R.      LSLS     r2,r2,#1
        0x0001a58c:    2305        .#      MOVS     r3,#5
        0x0001a58e:    ebb36f22    .."o    CMP      r3,r2,ASR #24
        0x0001a592:    dc12        ..      BGT      0x1a5ba ; ftoa + 358
        0x0001a594:    1e66        f.      SUBS     r6,r4,#1
        0x0001a596:    e00d        ..      B        0x1a5b4 ; ftoa + 352
        0x0001a598:    7832        2x      LDRB     r2,[r6,#0]
        0x0001a59a:    2a2e        .*      CMP      r2,#0x2e
        0x0001a59c:    d009        ..      BEQ      0x1a5b2 ; ftoa + 350
        0x0001a59e:    7832        2x      LDRB     r2,[r6,#0]
        0x0001a5a0:    2a39        9*      CMP      r2,#0x39
        0x0001a5a2:    d102        ..      BNE      0x1a5aa ; ftoa + 342
        0x0001a5a4:    2230        0"      MOVS     r2,#0x30
        0x0001a5a6:    7032        2p      STRB     r2,[r6,#0]
        0x0001a5a8:    e003        ..      B        0x1a5b2 ; ftoa + 350
        0x0001a5aa:    7832        2x      LDRB     r2,[r6,#0]
        0x0001a5ac:    1c52        R.      ADDS     r2,r2,#1
        0x0001a5ae:    7032        2p      STRB     r2,[r6,#0]
        0x0001a5b0:    e002        ..      B        0x1a5b8 ; ftoa + 356
        0x0001a5b2:    1e76        v.      SUBS     r6,r6,#1
        0x0001a5b4:    4556        VE      CMP      r6,r10
        0x0001a5b6:    d2ef        ..      BCS      0x1a598 ; ftoa + 324
        0x0001a5b8:    bf00        ..      NOP      
        0x0001a5ba:    bf00        ..      NOP      
        0x0001a5bc:    2000        .       MOVS     r0,#0
        0x0001a5be:    7020         p      STRB     r0,[r4,#0]
        0x0001a5c0:    eba4000a    ....    SUB      r0,r4,r10
        0x0001a5c4:    e757        W.      B        0x1a476 ; ftoa + 34
    $d
        0x0001a5c6:    0000        ..      DCW    0
        0x0001a5c8:    00302e30    0.0.    DCD    3157552
    $t
    i.internal_timer_config
    internal_timer_config
        0x0001a5cc:    4a36        6J      LDR      r2,[pc,#216] ; [0x1a6a8] = 0x40020000
        0x0001a5ce:    68d3        .h      LDR      r3,[r2,#0xc]
        0x0001a5d0:    b2db        ..      UXTB     r3,r3
        0x0001a5d2:    2b21        !+      CMP      r3,#0x21
        0x0001a5d4:    d01c        ..      BEQ      0x1a610 ; internal_timer_config + 68
        0x0001a5d6:    68d2        .h      LDR      r2,[r2,#0xc]
        0x0001a5d8:    b2d2        ..      UXTB     r2,r2
        0x0001a5da:    2a22        "*      CMP      r2,#0x22
        0x0001a5dc:    bf3c        <.      ITT      CC
        0x0001a5de:    2001        .       MOVCC    r0,#1
        0x0001a5e0:    4770        pG      BXCC     lr
        0x0001a5e2:    2801        .(      CMP      r0,#1
        0x0001a5e4:    bf18        ..      IT       NE
        0x0001a5e6:    2803        .(      CMPNE    r0,#3
        0x0001a5e8:    d054        T.      BEQ      0x1a694 ; internal_timer_config + 200
        0x0001a5ea:    280a        .(      CMP      r0,#0xa
        0x0001a5ec:    bf18        ..      IT       NE
        0x0001a5ee:    280b        .(      CMPNE    r0,#0xb
        0x0001a5f0:    d050        P.      BEQ      0x1a694 ; internal_timer_config + 200
        0x0001a5f2:    280c        .(      CMP      r0,#0xc
        0x0001a5f4:    bf1c        ..      ITT      NE
        0x0001a5f6:    280e        .(      CMPNE    r0,#0xe
        0x0001a5f8:    280f        .(      CMPNE    r0,#0xf
        0x0001a5fa:    d04b        K.      BEQ      0x1a694 ; internal_timer_config + 200
        0x0001a5fc:    2805        .(      CMP      r0,#5
        0x0001a5fe:    bf18        ..      IT       NE
        0x0001a600:    2807        .(      CMPNE    r0,#7
        0x0001a602:    d04a        J.      BEQ      0x1a69a ; internal_timer_config + 206
        0x0001a604:    2808        .(      CMP      r0,#8
        0x0001a606:    bf1c        ..      ITT      NE
        0x0001a608:    2809        .(      CMPNE    r0,#9
        0x0001a60a:    280d        .(      CMPNE    r0,#0xd
        0x0001a60c:    d045        E.      BEQ      0x1a69a ; internal_timer_config + 206
        0x0001a60e:    e049        I.      B        0x1a6a4 ; internal_timer_config + 216
        0x0001a610:    784b        Kx      LDRB     r3,[r1,#1]
        0x0001a612:    780a        .x      LDRB     r2,[r1,#0]
        0x0001a614:    f04f0cf0    O...    MOV      r12,#0xf0
        0x0001a618:    ea0c1303    ....    AND      r3,r12,r3,LSL #4
        0x0001a61c:    ea432202    C.."    ORR      r2,r3,r2,LSL #8
        0x0001a620:    78cb        .x      LDRB     r3,[r1,#3]
        0x0001a622:    f04f0c08    O...    MOV      r12,#8
        0x0001a626:    ea0c03c3    ....    AND      r3,r12,r3,LSL #3
        0x0001a62a:    ea430202    C...    ORR      r2,r3,r2
        0x0001a62e:    788b        .x      LDRB     r3,[r1,#2]
        0x0001a630:    f04f0c04    O...    MOV      r12,#4
        0x0001a634:    ea0c0383    ....    AND      r3,r12,r3,LSL #2
        0x0001a638:    ea430202    C...    ORR      r2,r3,r2
        0x0001a63c:    790b        .y      LDRB     r3,[r1,#4]
        0x0001a63e:    f44f3c40    O.@<    MOV      r12,#0x30000
        0x0001a642:    ea0c4303    ...C    AND      r3,r12,r3,LSL #16
        0x0001a646:    ea430202    C...    ORR      r2,r3,r2
        0x0001a64a:    7a0b        .z      LDRB     r3,[r1,#8]
        0x0001a64c:    ea4f1040    O.@.    LSL      r0,r0,#5
        0x0001a650:    f1004080    ...@    ADD      r0,r0,#0x40000000
        0x0001a654:    ea426303    B..c    ORR      r3,r2,r3,LSL #24
        0x0001a658:    f5004000    ...@    ADD      r0,r0,#0x8000
        0x0001a65c:    794a        Jy      LDRB     r2,[r1,#5]
        0x0001a65e:    f8d0c200    ....    LDR      r12,[r0,#0x200]
        0x0001a662:    ea4f2202    O.."    LSL      r2,r2,#8
        0x0001a666:    f02c0c01    ,...    BIC      r12,r12,#1
        0x0001a66a:    f8c0c200    ....    STR      r12,[r0,#0x200]
        0x0001a66e:    f8c03200    ...2    STR      r3,[r0,#0x200]
        0x0001a672:    f8c02210    ..."    STR      r2,[r0,#0x210]
        0x0001a676:    68ca        .h      LDR      r2,[r1,#0xc]
        0x0001a678:    f8c02208    ..."    STR      r2,[r0,#0x208]
        0x0001a67c:    6909        .i      LDR      r1,[r1,#0x10]
        0x0001a67e:    f8c0120c    ....    STR      r1,[r0,#0x20c]
        0x0001a682:    f8d01200    ....    LDR      r1,[r0,#0x200]
        0x0001a686:    f0410102    A...    ORR      r1,r1,#2
        0x0001a68a:    f8c01200    ....    STR      r1,[r0,#0x200]
        0x0001a68e:    f04f0000    O...    MOV      r0,#0
        0x0001a692:    4770        pG      BX       lr
        0x0001a694:    f04f0006    O...    MOV      r0,#6
        0x0001a698:    4770        pG      BX       lr
        0x0001a69a:    790a        .y      LDRB     r2,[r1,#4]
        0x0001a69c:    2a00        .*      CMP      r2,#0
        0x0001a69e:    bf1c        ..      ITT      NE
        0x0001a6a0:    2007        .       MOVNE    r0,#7
        0x0001a6a2:    4770        pG      BXNE     lr
        0x0001a6a4:    f000ba16    ....    B.W      timer_config_b1 ; 0x1aad4
    $d
        0x0001a6a8:    40020000    ...@    DCD    1073872896
    $t
    i.main
    main
        0x0001a6ac:    4858        XH      LDR      r0,[pc,#352] ; [0x1a810] = 0x1af68
        0x0001a6ae:    f7fdffb2    ....    BL       am_hal_cachectrl_config ; 0x18616
        0x0001a6b2:    f7fdffd4    ....    BL       am_hal_cachectrl_enable ; 0x1865e
        0x0001a6b6:    f7fdffa3    ....    BL       am_bsp_low_power_init ; 0x18600
        0x0001a6ba:    f7fdff65    ..e.    BL       am_bsp_itm_printf_enable ; 0x18588
        0x0001a6be:    f7fffb77    ..w.    BL       am_util_stdio_terminal_clear ; 0x19db0
        0x0001a6c2:    a054        T.      ADR      r0,{pc}+0x152 ; 0x1a814
        0x0001a6c4:    f7fffb50    ..P.    BL       am_util_stdio_printf ; 0x19d68
        0x0001a6c8:    f04f0805    O...    MOV      r8,#5
        0x0001a6cc:    2700        .'      MOVS     r7,#0
        0x0001a6ce:    a05d        ].      ADR      r0,{pc}+0x176 ; 0x1a844
        0x0001a6d0:    f7fffb4a    ..J.    BL       am_util_stdio_printf ; 0x19d68
        0x0001a6d4:    2002        .       MOVS     r0,#2
        0x0001a6d6:    f7fefddd    ....    BL       am_hal_pwrctrl_mcu_mode_select ; 0x19294
        0x0001a6da:    4606        .F      MOV      r6,r0
        0x0001a6dc:    b12e        ..      CBZ      r6,0x1a6ea ; main + 62
        0x0001a6de:    4631        1F      MOV      r1,r6
        0x0001a6e0:    a060        `.      ADR      r0,{pc}+0x184 ; 0x1a864
        0x0001a6e2:    f7fffb41    ..A.    BL       am_util_stdio_printf ; 0x19d68
        0x0001a6e6:    bf00        ..      NOP      
        0x0001a6e8:    e7fe        ..      B        0x1a6e8 ; main + 60
        0x0001a6ea:    a06d        m.      ADR      r0,{pc}+0x1b6 ; 0x1a8a0
        0x0001a6ec:    f7fffb3c    ..<.    BL       am_util_stdio_printf ; 0x19d68
        0x0001a6f0:    4640        @F      MOV      r0,r8
        0x0001a6f2:    f000fac5    ....    BL       timer_init ; 0x1ac80
        0x0001a6f6:    4640        @F      MOV      r0,r8
        0x0001a6f8:    f7fff87e    ..~.    BL       am_hal_timer_clear ; 0x197f8
        0x0001a6fc:    f24c3050    L.P0    MOV      r0,#0xc350
        0x0001a700:    f000f9c4    ....    BL       prime_number ; 0x1aa8c
        0x0001a704:    4605        .F      MOV      r5,r0
        0x0001a706:    4640        @F      MOV      r0,r8
        0x0001a708:    f7fff8e6    ....    BL       am_hal_timer_disable ; 0x198d8
        0x0001a70c:    4640        @F      MOV      r0,r8
        0x0001a70e:    f7fff96d    ..m.    BL       am_hal_timer_read ; 0x199ec
        0x0001a712:    4604        .F      MOV      r4,r0
        0x0001a714:    486a        jH      LDR      r0,[pc,#424] ; [0x1a8c0] = 0x5b8d80
        0x0001a716:    fbb4f1f0    ....    UDIV     r1,r4,r0
        0x0001a71a:    fb004011    ...@    MLS      r0,r0,r1,r4
        0x0001a71e:    f2427110    B..q    MOV      r1,#0x2710
        0x0001a722:    fbb0f9f1    ....    UDIV     r9,r0,r1
        0x0001a726:    4866        fH      LDR      r0,[pc,#408] ; [0x1a8c0] = 0x5b8d80
        0x0001a728:    fbb4faf0    ....    UDIV     r10,r4,r0
        0x0001a72c:    4623        #F      MOV      r3,r4
        0x0001a72e:    464a        JF      MOV      r2,r9
        0x0001a730:    4651        QF      MOV      r1,r10
        0x0001a732:    a064        d.      ADR      r0,{pc}+0x192 ; 0x1a8c4
        0x0001a734:    f7fffb18    ....    BL       am_util_stdio_printf ; 0x19d68
        0x0001a738:    f241400d    A..@    MOV      r0,#0x140d
        0x0001a73c:    4285        .B      CMP      r5,r0
        0x0001a73e:    d106        ..      BNE      0x1a74e ; main + 162
        0x0001a740:    462a        *F      MOV      r2,r5
        0x0001a742:    f24c3150    L.P1    MOV      r1,#0xc350
        0x0001a746:    a06a        j.      ADR      r0,{pc}+0x1aa ; 0x1a8f0
        0x0001a748:    f7fffb0e    ....    BL       am_util_stdio_printf ; 0x19d68
        0x0001a74c:    e006        ..      B        0x1a75c ; main + 176
        0x0001a74e:    462a        *F      MOV      r2,r5
        0x0001a750:    f241410d    A..A    MOV      r1,#0x140d
        0x0001a754:    a071        q.      ADR      r0,{pc}+0x1c8 ; 0x1a91c
        0x0001a756:    f7fffb07    ....    BL       am_util_stdio_printf ; 0x19d68
        0x0001a75a:    1c7f        ..      ADDS     r7,r7,#1
        0x0001a75c:    a057        W.      ADR      r0,{pc}+0x160 ; 0x1a8bc
        0x0001a75e:    f7fffb03    ....    BL       am_util_stdio_printf ; 0x19d68
        0x0001a762:    a07a        z.      ADR      r0,{pc}+0x1ea ; 0x1a94c
        0x0001a764:    f7fffb00    ....    BL       am_util_stdio_printf ; 0x19d68
        0x0001a768:    2001        .       MOVS     r0,#1
        0x0001a76a:    f7fefd93    ....    BL       am_hal_pwrctrl_mcu_mode_select ; 0x19294
        0x0001a76e:    4606        .F      MOV      r6,r0
        0x0001a770:    b12e        ..      CBZ      r6,0x1a77e ; main + 210
        0x0001a772:    4631        1F      MOV      r1,r6
        0x0001a774:    a03b        ;.      ADR      r0,{pc}+0xf0 ; 0x1a864
        0x0001a776:    f7fffaf7    ....    BL       am_util_stdio_printf ; 0x19d68
        0x0001a77a:    bf00        ..      NOP      
        0x0001a77c:    e7fe        ..      B        0x1a77c ; main + 208
        0x0001a77e:    a048        H.      ADR      r0,{pc}+0x122 ; 0x1a8a0
        0x0001a780:    f7fffaf2    ....    BL       am_util_stdio_printf ; 0x19d68
        0x0001a784:    4640        @F      MOV      r0,r8
        0x0001a786:    f7fff837    ..7.    BL       am_hal_timer_clear ; 0x197f8
        0x0001a78a:    f24c3050    L.P0    MOV      r0,#0xc350
        0x0001a78e:    f000f97d    ..}.    BL       prime_number ; 0x1aa8c
        0x0001a792:    4605        .F      MOV      r5,r0
        0x0001a794:    4640        @F      MOV      r0,r8
        0x0001a796:    f7fff89f    ....    BL       am_hal_timer_disable ; 0x198d8
        0x0001a79a:    4640        @F      MOV      r0,r8
        0x0001a79c:    f7fff926    ..&.    BL       am_hal_timer_read ; 0x199ec
        0x0001a7a0:    4604        .F      MOV      r4,r0
        0x0001a7a2:    4847        GH      LDR      r0,[pc,#284] ; [0x1a8c0] = 0x5b8d80
        0x0001a7a4:    fbb4f1f0    ....    UDIV     r1,r4,r0
        0x0001a7a8:    fb004011    ...@    MLS      r0,r0,r1,r4
        0x0001a7ac:    f2427110    B..q    MOV      r1,#0x2710
        0x0001a7b0:    fbb0f9f1    ....    UDIV     r9,r0,r1
        0x0001a7b4:    4842        BH      LDR      r0,[pc,#264] ; [0x1a8c0] = 0x5b8d80
        0x0001a7b6:    fbb4faf0    ....    UDIV     r10,r4,r0
        0x0001a7ba:    4623        #F      MOV      r3,r4
        0x0001a7bc:    464a        JF      MOV      r2,r9
        0x0001a7be:    4651        QF      MOV      r1,r10
        0x0001a7c0:    a040        @.      ADR      r0,{pc}+0x104 ; 0x1a8c4
        0x0001a7c2:    f7fffad1    ....    BL       am_util_stdio_printf ; 0x19d68
        0x0001a7c6:    f241400d    A..@    MOV      r0,#0x140d
        0x0001a7ca:    4285        .B      CMP      r5,r0
        0x0001a7cc:    d106        ..      BNE      0x1a7dc ; main + 304
        0x0001a7ce:    462a        *F      MOV      r2,r5
        0x0001a7d0:    f24c3150    L.P1    MOV      r1,#0xc350
        0x0001a7d4:    a046        F.      ADR      r0,{pc}+0x11c ; 0x1a8f0
        0x0001a7d6:    f7fffac7    ....    BL       am_util_stdio_printf ; 0x19d68
        0x0001a7da:    e006        ..      B        0x1a7ea ; main + 318
        0x0001a7dc:    462a        *F      MOV      r2,r5
        0x0001a7de:    f241410d    A..A    MOV      r1,#0x140d
        0x0001a7e2:    a04e        N.      ADR      r0,{pc}+0x13a ; 0x1a91c
        0x0001a7e4:    f7fffac0    ....    BL       am_util_stdio_printf ; 0x19d68
        0x0001a7e8:    1c7f        ..      ADDS     r7,r7,#1
        0x0001a7ea:    a034        4.      ADR      r0,{pc}+0xd2 ; 0x1a8bc
        0x0001a7ec:    f7fffabc    ....    BL       am_util_stdio_printf ; 0x19d68
        0x0001a7f0:    b91f        ..      CBNZ     r7,0x1a7fa ; main + 334
        0x0001a7f2:    a05d        ].      ADR      r0,{pc}+0x176 ; 0x1a968
        0x0001a7f4:    f7fffab8    ....    BL       am_util_stdio_printf ; 0x19d68
        0x0001a7f8:    e002        ..      B        0x1a800 ; main + 340
        0x0001a7fa:    a062        b.      ADR      r0,{pc}+0x18a ; 0x1a984
        0x0001a7fc:    f7fffab4    ....    BL       am_util_stdio_printf ; 0x19d68
        0x0001a800:    a069        i.      ADR      r0,{pc}+0x1a8 ; 0x1a9a8
        0x0001a802:    f7fffab1    ....    BL       am_util_stdio_printf ; 0x19d68
        0x0001a806:    e002        ..      B        0x1a80e ; main + 354
        0x0001a808:    2001        .       MOVS     r0,#1
        0x0001a80a:    f7feff13    ....    BL       am_hal_sysctrl_sleep ; 0x19634
        0x0001a80e:    e7fb        ..      B        0x1a808 ; main + 348
    $d
        0x0001a810:    0001af68    h...    DCD    110440
        0x0001a814:    6c6f7041    Apol    DCD    1819242561
        0x0001a818:    20346f6c    lo4     DCD    540307308
        0x0001a81c:    4d323931    192M    DCD    1295137073
        0x0001a820:    48207a48    Hz H    DCD    1210088008
        0x0001a824:    20686769    igh     DCD    543713129
        0x0001a828:    66726550    Perf    DCD    1718773072
        0x0001a82c:    616d726f    orma    DCD    1634562671
        0x0001a830:    2065636e    nce     DCD    543515502
        0x0001a834:    65646f4d    Mode    DCD    1701080909
        0x0001a838:    61784520     Exa    DCD    1635271968
        0x0001a83c:    656c706d    mple    DCD    1701605485
        0x0001a840:    00000a0a    ....    DCD    2570
        0x0001a844:    20746553    Set     DCD    544499027
        0x0001a848:    68676948    High    DCD    1751607624
        0x0001a84c:    72655020     Per    DCD    1919242272
        0x0001a850:    6d726f66    form    DCD    1836216166
        0x0001a854:    65636e61    ance    DCD    1701015137
        0x0001a858:    50482820     (HP    DCD    1346906144
        0x0001a85c:    6f4d2029    ) Mo    DCD    1867325481
        0x0001a860:    002e6564    de..    DCD    3040612
        0x0001a864:    6f727245    Erro    DCD    1869771333
        0x0001a868:    69772072    r wi    DCD    1769414770
        0x0001a86c:    61206874    th a    DCD    1629513844
        0x0001a870:    61685f6d    m_ha    DCD    1634230125
        0x0001a874:    77705f6c    l_pw    DCD    2003853164
        0x0001a878:    72746372    rctr    DCD    1920230258
        0x0001a87c:    636d5f6c    l_mc    DCD    1668112236
        0x0001a880:    6f6d5f75    u_mo    DCD    1869438837
        0x0001a884:    735f6564    de_s    DCD    1935631716
        0x0001a888:    63656c65    elec    DCD    1667591269
        0x0001a88c:    2c292874    t(),    DCD    740894836
        0x0001a890:    74657220     ret    DCD    1952805408
        0x0001a894:    656e7275    urne    DCD    1701737077
        0x0001a898:    64252064    d %d    DCD    1680154724
        0x0001a89c:    00000a2e    ....    DCD    2606
        0x0001a8a0:    61745320     Sta    DCD    1635013408
        0x0001a8a4:    70207472    rt p    DCD    1881175154
        0x0001a8a8:    656d6972    rime    DCD    1701669234
        0x0001a8ac:    6c616320     cal    DCD    1818321696
        0x0001a8b0:    616c7563    cula    DCD    1634497891
        0x0001a8b4:    6e6f6974    tion    DCD    1852795252
        0x0001a8b8:    2e2e2e73    s...    DCD    774778483
        0x0001a8bc:    0000000a    ....    DCD    10
        0x0001a8c0:    005b8d80    ..[.    DCD    6000000
        0x0001a8c4:    6f432020      Co    DCD    1866670112
        0x0001a8c8:    7475706d    mput    DCD    1953853549
        0x0001a8cc:    6f697461    atio    DCD    1869182049
        0x0001a8d0:    7420736e    ns t    DCD    1948283758
        0x0001a8d4:    206b6f6f    ook     DCD    543911791
        0x0001a8d8:    252e6425    %d.%    DCD    623797285
        0x0001a8dc:    73643330    03ds    DCD    1935946544
        0x0001a8e0:    69742820     (ti    DCD    1769220128
        0x0001a8e4:    3d736b63    cks=    DCD    1030974307
        0x0001a8e8:    2e296425    %d).    DCD    774464549
        0x0001a8ec:    0000000a    ....    DCD    10
        0x0001a8f0:    61502020      Pa    DCD    1632641056
        0x0001a8f4:    2d207373    ss -    DCD    757101427
        0x0001a8f8:    6d754e20     Num    DCD    1836404256
        0x0001a8fc:    20726562    ber     DCD    544367970
        0x0001a900:    7020666f    of p    DCD    1881171567
        0x0001a904:    656d6972    rime    DCD    1701669234
        0x0001a908:    6f662073    s fo    DCD    1868963955
        0x0001a90c:    64252072    r %d    DCD    1680154738
        0x0001a910:    20736920     is     DCD    544434464
        0x0001a914:    0a2e6425    %d..    DCD    170812453
        0x0001a918:    00000000    ....    DCD    0
        0x0001a91c:    52452020      ER    DCD    1380261920
        0x0001a920:    20524f52    ROR     DCD    542265170
        0x0001a924:    6e49202d    - In    DCD    1850286125
        0x0001a928:    696c6176    vali    DCD    1768710518
        0x0001a92c:    65722064    d re    DCD    1701978212
        0x0001a930:    746c7573    sult    DCD    1953265011
        0x0001a934:    7845202e    . Ex    DCD    2017796142
        0x0001a938:    74636570    pect    DCD    1952671088
        0x0001a93c:    25206465    ed %    DCD    622879845
        0x0001a940:    67202c64    d, g    DCD    1730161764
        0x0001a944:    2520746f    ot %    DCD    622883951
        0x0001a948:    000a2e64    d...    DCD    667236
        0x0001a94c:    20746553    Set     DCD    544499027
        0x0001a950:    20776f4c    Low     DCD    544698188
        0x0001a954:    65776f50    Powe    DCD    1702326096
        0x0001a958:    4c282072    r (L    DCD    1277698162
        0x0001a95c:    4d202950    P) M    DCD    1293953360
        0x0001a960:    2e65646f    ode.    DCD    778396783
        0x0001a964:    00000000    ....    DCD    0
        0x0001a968:    61205048    HP a    DCD    1629507656
        0x0001a96c:    4c20646e    nd L    DCD    1277191278
        0x0001a970:    65742050    P te    DCD    1702109264
        0x0001a974:    20737473    sts     DCD    544437363
        0x0001a978:    53534150    PASS    DCD    1397965136
        0x0001a97c:    0a2e4445    ED..    DCD    170804293
        0x0001a980:    00000000    ....    DCD    0
        0x0001a984:    6c696146    Fail    DCD    1818845510
        0x0001a988:    20657275    ure     DCD    543519349
        0x0001a98c:    65746564    dete    DCD    1702126948
        0x0001a990:    64657463    cted    DCD    1684370531
        0x0001a994:    72756420     dur    DCD    1920295968
        0x0001a998:    20676e69    ing     DCD    543649385
        0x0001a99c:    74736574    test    DCD    1953719668
        0x0001a9a0:    2e676e69    ing.    DCD    778530409
        0x0001a9a4:    0000000a    ....    DCD    10
        0x0001a9a8:    4d323931    192M    DCD    1295137073
        0x0001a9ac:    48207a48    Hz H    DCD    1210088008
        0x0001a9b0:    20686769    igh     DCD    543713129
        0x0001a9b4:    66726550    Perf    DCD    1718773072
        0x0001a9b8:    616d726f    orma    DCD    1634562671
        0x0001a9bc:    2065636e    nce     DCD    543515502
        0x0001a9c0:    65646f4d    Mode    DCD    1701080909
        0x0001a9c4:    61784520     Exa    DCD    1635271968
        0x0001a9c8:    656c706d    mple    DCD    1701605485
        0x0001a9cc:    6d6f4320     Com    DCD    1836008224
        0x0001a9d0:    74656c70    plet    DCD    1952803952
        0x0001a9d4:    000a2e65    e...    DCD    667237
    $t
    i.ndigits_in_hex
    ndigits_in_hex
        0x0001a9d8:    b530        0.      PUSH     {r4,r5,lr}
        0x0001a9da:    4602        .F      MOV      r2,r0
        0x0001a9dc:    460b        .F      MOV      r3,r1
        0x0001a9de:    2400        .$      MOVS     r4,#0
        0x0001a9e0:    ea820104    ....    EOR      r1,r2,r4
        0x0001a9e4:    405c        \@      EORS     r4,r4,r3
        0x0001a9e6:    4321        !C      ORRS     r1,r1,r4
        0x0001a9e8:    d101        ..      BNE      0x1a9ee ; ndigits_in_hex + 22
        0x0001a9ea:    2101        .!      MOVS     r1,#1
        0x0001a9ec:    e000        ..      B        0x1a9f0 ; ndigits_in_hex + 24
        0x0001a9ee:    2100        .!      MOVS     r1,#0
        0x0001a9f0:    4608        .F      MOV      r0,r1
        0x0001a9f2:    e004        ..      B        0x1a9fe ; ndigits_in_hex + 38
        0x0001a9f4:    0911        ..      LSRS     r1,r2,#4
        0x0001a9f6:    ea417203    A..r    ORR      r2,r1,r3,LSL #28
        0x0001a9fa:    091b        ..      LSRS     r3,r3,#4
        0x0001a9fc:    1c40        @.      ADDS     r0,r0,#1
        0x0001a9fe:    2400        .$      MOVS     r4,#0
        0x0001aa00:    ea820104    ....    EOR      r1,r2,r4
        0x0001aa04:    405c        \@      EORS     r4,r4,r3
        0x0001aa06:    4321        !C      ORRS     r1,r1,r4
        0x0001aa08:    d1f4        ..      BNE      0x1a9f4 ; ndigits_in_hex + 28
        0x0001aa0a:    bd30        0.      POP      {r4,r5,pc}
    i.ndigits_in_i64
    ndigits_in_i64
        0x0001aa0c:    b570        p.      PUSH     {r4-r6,lr}
        0x0001aa0e:    4604        .F      MOV      r4,r0
        0x0001aa10:    460d        .F      MOV      r5,r1
        0x0001aa12:    2100        .!      MOVS     r1,#0
        0x0001aa14:    4608        .F      MOV      r0,r1
        0x0001aa16:    1a61        a.      SUBS     r1,r4,r1
        0x0001aa18:    eb750000    u...    SBCS     r0,r5,r0
        0x0001aa1c:    da03        ..      BGE      0x1aa26 ; ndigits_in_i64 + 26
        0x0001aa1e:    2200        ."      MOVS     r2,#0
        0x0001aa20:    4264        dB      RSBS     r4,r4,#0
        0x0001aa22:    eb620505    b...    SBC      r5,r2,r5
        0x0001aa26:    4620         F      MOV      r0,r4
        0x0001aa28:    4629        )F      MOV      r1,r5
        0x0001aa2a:    f000f801    ....    BL       ndigits_in_u64 ; 0x1aa30
        0x0001aa2e:    bd70        p.      POP      {r4-r6,pc}
    i.ndigits_in_u64
    ndigits_in_u64
        0x0001aa30:    b570        p.      PUSH     {r4-r6,lr}
        0x0001aa32:    4604        .F      MOV      r4,r0
        0x0001aa34:    460d        .F      MOV      r5,r1
        0x0001aa36:    2100        .!      MOVS     r1,#0
        0x0001aa38:    ea840001    ....    EOR      r0,r4,r1
        0x0001aa3c:    4069        i@      EORS     r1,r1,r5
        0x0001aa3e:    4308        .C      ORRS     r0,r0,r1
        0x0001aa40:    d101        ..      BNE      0x1aa46 ; ndigits_in_u64 + 22
        0x0001aa42:    2001        .       MOVS     r0,#1
        0x0001aa44:    e000        ..      B        0x1aa48 ; ndigits_in_u64 + 24
        0x0001aa46:    2000        .       MOVS     r0,#0
        0x0001aa48:    4606        .F      MOV      r6,r0
        0x0001aa4a:    e006        ..      B        0x1aa5a ; ndigits_in_u64 + 42
        0x0001aa4c:    4620         F      MOV      r0,r4
        0x0001aa4e:    4629        )F      MOV      r1,r5
        0x0001aa50:    f7fffc99    ....    BL       divu64_10 ; 0x1a386
        0x0001aa54:    4604        .F      MOV      r4,r0
        0x0001aa56:    460d        .F      MOV      r5,r1
        0x0001aa58:    1c76        v.      ADDS     r6,r6,#1
        0x0001aa5a:    2100        .!      MOVS     r1,#0
        0x0001aa5c:    ea840001    ....    EOR      r0,r4,r1
        0x0001aa60:    4069        i@      EORS     r1,r1,r5
        0x0001aa62:    4308        .C      ORRS     r0,r0,r1
        0x0001aa64:    d1f2        ..      BNE      0x1aa4c ; ndigits_in_u64 + 28
        0x0001aa66:    4630        0F      MOV      r0,r6
        0x0001aa68:    bd70        p.      POP      {r4-r6,pc}
    i.padbuffer
    padbuffer
        0x0001aa6a:    b530        0.      PUSH     {r4,r5,lr}
        0x0001aa6c:    4603        .F      MOV      r3,r0
        0x0001aa6e:    2000        .       MOVS     r0,#0
        0x0001aa70:    2a00        .*      CMP      r2,#0
        0x0001aa72:    dc00        ..      BGT      0x1aa76 ; padbuffer + 12
        0x0001aa74:    bd30        0.      POP      {r4,r5,pc}
        0x0001aa76:    e003        ..      B        0x1aa80 ; padbuffer + 22
        0x0001aa78:    b10b        ..      CBZ      r3,0x1aa7e ; padbuffer + 20
        0x0001aa7a:    f8031b01    ....    STRB     r1,[r3],#1
        0x0001aa7e:    1c40        @.      ADDS     r0,r0,#1
        0x0001aa80:    1e14        ..      SUBS     r4,r2,#0
        0x0001aa82:    f1a20201    ....    SUB      r2,r2,#1
        0x0001aa86:    d1f7        ..      BNE      0x1aa78 ; padbuffer + 14
        0x0001aa88:    bf00        ..      NOP      
        0x0001aa8a:    e7f3        ..      B        0x1aa74 ; padbuffer + 10
    i.prime_number
    prime_number
        0x0001aa8c:    b530        0.      PUSH     {r4,r5,lr}
        0x0001aa8e:    4603        .F      MOV      r3,r0
        0x0001aa90:    2000        .       MOVS     r0,#0
        0x0001aa92:    2102        .!      MOVS     r1,#2
        0x0001aa94:    e00f        ..      B        0x1aab6 ; prime_number + 42
        0x0001aa96:    2401        .$      MOVS     r4,#1
        0x0001aa98:    2202        ."      MOVS     r2,#2
        0x0001aa9a:    e007        ..      B        0x1aaac ; prime_number + 32
        0x0001aa9c:    fb91f5f2    ....    SDIV     r5,r1,r2
        0x0001aaa0:    fb021515    ....    MLS      r5,r2,r5,r1
        0x0001aaa4:    b90d        ..      CBNZ     r5,0x1aaaa ; prime_number + 30
        0x0001aaa6:    2400        .$      MOVS     r4,#0
        0x0001aaa8:    e002        ..      B        0x1aab0 ; prime_number + 36
        0x0001aaaa:    1c52        R.      ADDS     r2,r2,#1
        0x0001aaac:    428a        .B      CMP      r2,r1
        0x0001aaae:    dbf5        ..      BLT      0x1aa9c ; prime_number + 16
        0x0001aab0:    bf00        ..      NOP      
        0x0001aab2:    4420         D      ADD      r0,r0,r4
        0x0001aab4:    1c49        I.      ADDS     r1,r1,#1
        0x0001aab6:    4299        .B      CMP      r1,r3
        0x0001aab8:    dded        ..      BLE      0x1aa96 ; prime_number + 10
        0x0001aaba:    bd30        0.      POP      {r4,r5,pc}
    i.simple_strlen
    simple_strlen
        0x0001aabc:    4601        .F      MOV      r1,r0
        0x0001aabe:    2000        .       MOVS     r0,#0
        0x0001aac0:    b901        ..      CBNZ     r1,0x1aac4 ; simple_strlen + 8
        0x0001aac2:    4770        pG      BX       lr
        0x0001aac4:    e000        ..      B        0x1aac8 ; simple_strlen + 12
        0x0001aac6:    1c40        @.      ADDS     r0,r0,#1
        0x0001aac8:    f8113b01    ...;    LDRB     r3,[r1],#1
        0x0001aacc:    2b00        .+      CMP      r3,#0
        0x0001aace:    d1fa        ..      BNE      0x1aac6 ; simple_strlen + 10
        0x0001aad0:    bf00        ..      NOP      
        0x0001aad2:    e7f6        ..      B        0x1aac2 ; simple_strlen + 6
    i.timer_config_b1
    timer_config_b1
        0x0001aad4:    e92d01f0    -...    PUSH     {r4-r8}
        0x0001aad8:    4d67        gM      LDR      r5,[pc,#412] ; [0x1ac78] = 0x100008cc
        0x0001aada:    e9d12c02    ...,    LDRD     r2,r12,[r1,#8]
        0x0001aade:    2400        .$      MOVS     r4,#0
        0x0001aae0:    690b        .i      LDR      r3,[r1,#0x10]
        0x0001aae2:    f8054020    .. @    STRB     r4,[r5,r0,LSL #2]
        0x0001aae6:    eb050580    ....    ADD      r5,r5,r0,LSL #2
        0x0001aaea:    706c        lp      STRB     r4,[r5,#1]
        0x0001aaec:    70ac        .p      STRB     r4,[r5,#2]
        0x0001aaee:    70ec        .p      STRB     r4,[r5,#3]
        0x0001aaf0:    784c        Lx      LDRB     r4,[r1,#1]
        0x0001aaf2:    2c0f        .,      CMP      r4,#0xf
        0x0001aaf4:    d246        F.      BCS      0x1ab84 ; timer_config_b1 + 176
        0x0001aaf6:    e8dff004    ....    TBB      [pc,r4]
    $d
        0x0001aafa:    0866        f.      DCW    2150
        0x0001aafc:    45154521    !E.E    DCD    1159021857
        0x0001ab00:    45454566    fEEE    DCD    1162167654
        0x0001ab04:    3c2d4545    EE-<    DCD    1009599813
        0x0001ab08:    0066        f.      DCW    102
    $t
        0x0001ab0a:    4d5b        [M      LDR      r5,[pc,#364] ; [0x1ac78] = 0x100008cc
        0x0001ab0c:    2401        .$      MOVS     r4,#1
        0x0001ab0e:    eb050580    ....    ADD      r5,r5,r0,LSL #2
        0x0001ab12:    f1bc3fff    ...?    CMP      r12,#0xffffffff
        0x0001ab16:    70ec        .p      STRB     r4,[r5,#3]
        0x0001ab18:    70ac        .p      STRB     r4,[r5,#2]
        0x0001ab1a:    d154        T.      BNE      0x1abc6 ; timer_config_b1 + 242
        0x0001ab1c:    1c5c        \.      ADDS     r4,r3,#1
        0x0001ab1e:    bf18        ..      IT       NE
        0x0001ab20:    46a4        .F      MOVNE    r12,r4
        0x0001ab22:    e02f        /.      B        0x1ab84 ; timer_config_b1 + 176
        0x0001ab24:    4e54        TN      LDR      r6,[pc,#336] ; [0x1ac78] = 0x100008cc
        0x0001ab26:    2401        .$      MOVS     r4,#1
        0x0001ab28:    eb060580    ....    ADD      r5,r6,r0,LSL #2
        0x0001ab2c:    2a00        .*      CMP      r2,#0
        0x0001ab2e:    706c        lp      STRB     r4,[r5,#1]
        0x0001ab30:    f8064020    .. @    STRB     r4,[r6,r0,LSL #2]
        0x0001ab34:    70ec        .p      STRB     r4,[r5,#3]
        0x0001ab36:    70ac        .p      STRB     r4,[r5,#2]
        0x0001ab38:    d14e        N.      BNE      0x1abd8 ; timer_config_b1 + 260
        0x0001ab3a:    e023        #.      B        0x1ab84 ; timer_config_b1 + 176
        0x0001ab3c:    4e4e        NN      LDR      r6,[pc,#312] ; [0x1ac78] = 0x100008cc
        0x0001ab3e:    2401        .$      MOVS     r4,#1
        0x0001ab40:    eb060580    ....    ADD      r5,r6,r0,LSL #2
        0x0001ab44:    2a00        .*      CMP      r2,#0
        0x0001ab46:    706c        lp      STRB     r4,[r5,#1]
        0x0001ab48:    f8064020    .. @    STRB     r4,[r6,r0,LSL #2]
        0x0001ab4c:    70ec        .p      STRB     r4,[r5,#3]
        0x0001ab4e:    70ac        .p      STRB     r4,[r5,#2]
        0x0001ab50:    d142        B.      BNE      0x1abd8 ; timer_config_b1 + 260
        0x0001ab52:    e017        ..      B        0x1ab84 ; timer_config_b1 + 176
        0x0001ab54:    688b        .h      LDR      r3,[r1,#8]
        0x0001ab56:    2b20         +      CMP      r3,#0x20
        0x0001ab58:    d835        5.      BHI      0x1abc6 ; timer_config_b1 + 242
        0x0001ab5a:    1e13        ..      SUBS     r3,r2,#0
        0x0001ab5c:    bf18        ..      IT       NE
        0x0001ab5e:    1c5a        Z.      ADDNE    r2,r3,#1
        0x0001ab60:    2401        .$      MOVS     r4,#1
        0x0001ab62:    4d45        EM      LDR      r5,[pc,#276] ; [0x1ac78] = 0x100008cc
        0x0001ab64:    f8054020    .. @    STRB     r4,[r5,r0,LSL #2]
        0x0001ab68:    eb050580    ....    ADD      r5,r5,r0,LSL #2
        0x0001ab6c:    70ec        .p      STRB     r4,[r5,#3]
        0x0001ab6e:    70ac        .p      STRB     r4,[r5,#2]
        0x0001ab70:    e008        ..      B        0x1ab84 ; timer_config_b1 + 176
        0x0001ab72:    4d41        AM      LDR      r5,[pc,#260] ; [0x1ac78] = 0x100008cc
        0x0001ab74:    2401        .$      MOVS     r4,#1
        0x0001ab76:    f8054020    .. @    STRB     r4,[r5,r0,LSL #2]
        0x0001ab7a:    eb050580    ....    ADD      r5,r5,r0,LSL #2
        0x0001ab7e:    706c        lp      STRB     r4,[r5,#1]
        0x0001ab80:    70ac        .p      STRB     r4,[r5,#2]
        0x0001ab82:    70ec        .p      STRB     r4,[r5,#3]
        0x0001ab84:    780c        .x      LDRB     r4,[r1,#0]
        0x0001ab86:    f1a40520    .. .    SUB      r5,r4,#0x20
        0x0001ab8a:    2d1f        .-      CMP      r5,#0x1f
        0x0001ab8c:    d80a        ..      BHI      0x1aba4 ; timer_config_b1 + 208
        0x0001ab8e:    106d        m.      ASRS     r5,r5,#1
        0x0001ab90:    f0140401    ....    ANDS     r4,r4,#1
        0x0001ab94:    d01b        ..      BEQ      0x1abce ; timer_config_b1 + 250
        0x0001ab96:    b12c        ,.      CBZ      r4,0x1aba4 ; timer_config_b1 + 208
        0x0001ab98:    4c37        7L      LDR      r4,[pc,#220] ; [0x1ac78] = 0x100008cc
        0x0001ab9a:    eb040485    ....    ADD      r4,r4,r5,LSL #2
        0x0001ab9e:    78a4        .x      LDRB     r4,[r4,#2]
        0x0001aba0:    2c00        .,      CMP      r4,#0
        0x0001aba2:    d065        e.      BEQ      0x1ac70 ; timer_config_b1 + 412
        0x0001aba4:    790c        .y      LDRB     r4,[r1,#4]
        0x0001aba6:    b1e4        ..      CBZ      r4,0x1abe2 ; timer_config_b1 + 270
        0x0001aba8:    794d        My      LDRB     r5,[r1,#5]
        0x0001abaa:    2d1f        .-      CMP      r5,#0x1f
        0x0001abac:    d819        ..      BHI      0x1abe2 ; timer_config_b1 + 270
        0x0001abae:    086c        l.      LSRS     r4,r5,#1
        0x0001abb0:    f0150501    ....    ANDS     r5,r5,#1
        0x0001abb4:    d011        ..      BEQ      0x1abda ; timer_config_b1 + 262
        0x0001abb6:    b1a5        ..      CBZ      r5,0x1abe2 ; timer_config_b1 + 270
        0x0001abb8:    4d2f        /M      LDR      r5,[pc,#188] ; [0x1ac78] = 0x100008cc
        0x0001abba:    eb050484    ....    ADD      r4,r5,r4,LSL #2
        0x0001abbe:    78a4        .x      LDRB     r4,[r4,#2]
        0x0001abc0:    2c00        .,      CMP      r4,#0
        0x0001abc2:    d055        U.      BEQ      0x1ac70 ; timer_config_b1 + 412
        0x0001abc4:    e00d        ..      B        0x1abe2 ; timer_config_b1 + 270
        0x0001abc6:    e8bd01f0    ....    POP      {r4-r8}
        0x0001abca:    2007        .       MOVS     r0,#7
        0x0001abcc:    4770        pG      BX       lr
        0x0001abce:    4c2a        *L      LDR      r4,[pc,#168] ; [0x1ac78] = 0x100008cc
        0x0001abd0:    f8144025    ..%@    LDRB     r4,[r4,r5,LSL #2]
        0x0001abd4:    2c00        .,      CMP      r4,#0
        0x0001abd6:    d1e5        ..      BNE      0x1aba4 ; timer_config_b1 + 208
        0x0001abd8:    e04a        J.      B        0x1ac70 ; timer_config_b1 + 412
        0x0001abda:    4d27        'M      LDR      r5,[pc,#156] ; [0x1ac78] = 0x100008cc
        0x0001abdc:    f8154024    ..$@    LDRB     r4,[r5,r4,LSL #2]
        0x0001abe0:    b3f4        ..      CBZ      r4,0x1ac60 ; timer_config_b1 + 396
        0x0001abe2:    4c26        &L      LDR      r4,[pc,#152] ; [0x1ac7c] = 0x40008000
        0x0001abe4:    f8d46104    ...a    LDR      r6,[r4,#0x104]
        0x0001abe8:    2501        .%      MOVS     r5,#1
        0x0001abea:    4085        .@      LSLS     r5,r5,r0
        0x0001abec:    43ae        .C      BICS     r6,r6,r5
        0x0001abee:    f8c46104    ...a    STR      r6,[r4,#0x104]
        0x0001abf2:    784f        Ox      LDRB     r7,[r1,#1]
        0x0001abf4:    780e        .x      LDRB     r6,[r1,#0]
        0x0001abf6:    f04f08f0    O...    MOV      r8,#0xf0
        0x0001abfa:    ea081707    ....    AND      r7,r8,r7,LSL #4
        0x0001abfe:    ea472606    G..&    ORR      r6,r7,r6,LSL #8
        0x0001ac02:    78cf        .x      LDRB     r7,[r1,#3]
        0x0001ac04:    f04f0808    O...    MOV      r8,#8
        0x0001ac08:    ea0807c7    ....    AND      r7,r8,r7,LSL #3
        0x0001ac0c:    433e        >C      ORRS     r6,r6,r7
        0x0001ac0e:    788f        .x      LDRB     r7,[r1,#2]
        0x0001ac10:    f04f0804    O...    MOV      r8,#4
        0x0001ac14:    ea080787    ....    AND      r7,r8,r7,LSL #2
        0x0001ac18:    433e        >C      ORRS     r6,r6,r7
        0x0001ac1a:    790f        .y      LDRB     r7,[r1,#4]
        0x0001ac1c:    f44f3840    O.@8    MOV      r8,#0x30000
        0x0001ac20:    7949        Iy      LDRB     r1,[r1,#5]
        0x0001ac22:    ea084707    ...G    AND      r7,r8,r7,LSL #16
        0x0001ac26:    433e        >C      ORRS     r6,r6,r7
        0x0001ac28:    0209        ..      LSLS     r1,r1,#8
        0x0001ac2a:    0140        @.      LSLS     r0,r0,#5
        0x0001ac2c:    4420         D      ADD      r0,r0,r4
        0x0001ac2e:    ea466202    F..b    ORR      r2,r6,r2,LSL #24
        0x0001ac32:    f8d06200    ...b    LDR      r6,[r0,#0x200]
        0x0001ac36:    f0260601    &...    BIC      r6,r6,#1
        0x0001ac3a:    f8c06200    ...b    STR      r6,[r0,#0x200]
        0x0001ac3e:    f8c02200    ..."    STR      r2,[r0,#0x200]
        0x0001ac42:    f8c01210    ....    STR      r1,[r0,#0x210]
        0x0001ac46:    f8c0c208    ....    STR      r12,[r0,#0x208]
        0x0001ac4a:    f8c0320c    ...2    STR      r3,[r0,#0x20c]
        0x0001ac4e:    f8d01200    ....    LDR      r1,[r0,#0x200]
        0x0001ac52:    f0410102    A...    ORR      r1,r1,#2
        0x0001ac56:    f8c01200    ....    STR      r1,[r0,#0x200]
        0x0001ac5a:    f8d40104    ....    LDR      r0,[r4,#0x104]
        0x0001ac5e:    e000        ..      B        0x1ac62 ; timer_config_b1 + 398
        0x0001ac60:    e006        ..      B        0x1ac70 ; timer_config_b1 + 412
        0x0001ac62:    4328        (C      ORRS     r0,r0,r5
        0x0001ac64:    f8c40104    ....    STR      r0,[r4,#0x104]
        0x0001ac68:    e8bd01f0    ....    POP      {r4-r8}
        0x0001ac6c:    2000        .       MOVS     r0,#0
        0x0001ac6e:    4770        pG      BX       lr
        0x0001ac70:    e8bd01f0    ....    POP      {r4-r8}
        0x0001ac74:    2006        .       MOVS     r0,#6
        0x0001ac76:    4770        pG      BX       lr
    $d
        0x0001ac78:    100008cc    ....    DCD    268437708
        0x0001ac7c:    40008000    ...@    DCD    1073774592
    $t
    i.timer_init
    timer_init
        0x0001ac80:    b530        0.      PUSH     {r4,r5,lr}
        0x0001ac82:    b085        ..      SUB      sp,sp,#0x14
        0x0001ac84:    4605        .F      MOV      r5,r0
        0x0001ac86:    2400        .$      MOVS     r4,#0
        0x0001ac88:    4668        hF      MOV      r0,sp
        0x0001ac8a:    f7fefe17    ....    BL       am_hal_timer_default_config_set ; 0x198bc
        0x0001ac8e:    4669        iF      MOV      r1,sp
        0x0001ac90:    4628        (F      MOV      r0,r5
        0x0001ac92:    f7fefe0d    ....    BL       am_hal_timer_config ; 0x198b0
        0x0001ac96:    4604        .F      MOV      r4,r0
        0x0001ac98:    b13c        <.      CBZ      r4,0x1acaa ; timer_init + 42
        0x0001ac9a:    4622        "F      MOV      r2,r4
        0x0001ac9c:    4629        )F      MOV      r1,r5
        0x0001ac9e:    a007        ..      ADR      r0,{pc}+0x1e ; 0x1acbc
        0x0001aca0:    f7fff862    ..b.    BL       am_util_stdio_printf ; 0x19d68
        0x0001aca4:    4620         F      MOV      r0,r4
        0x0001aca6:    b005        ..      ADD      sp,sp,#0x14
        0x0001aca8:    bd30        0.      POP      {r4,r5,pc}
        0x0001acaa:    4628        (F      MOV      r0,r5
        0x0001acac:    f7fefda4    ....    BL       am_hal_timer_clear ; 0x197f8
        0x0001acb0:    4628        (F      MOV      r0,r5
        0x0001acb2:    f7fefe11    ....    BL       am_hal_timer_disable ; 0x198d8
        0x0001acb6:    4620         F      MOV      r0,r4
        0x0001acb8:    e7f5        ..      B        0x1aca6 ; timer_init + 38
    $d
        0x0001acba:    0000        ..      DCW    0
        0x0001acbc:    6c696146    Fail    DCD    1818845510
        0x0001acc0:    74206465    ed t    DCD    1948279909
        0x0001acc4:    6f63206f    o co    DCD    1868767343
        0x0001acc8:    6769666e    nfig    DCD    1734960750
        0x0001accc:    20657275    ure     DCD    543519349
        0x0001acd0:    454d4954    TIME    DCD    1162692948
        0x0001acd4:    2c642552    R%d,    DCD    744760658
        0x0001acd8:    74657220     ret    DCD    1952805408
        0x0001acdc:    206e7275    urn     DCD    544109173
        0x0001ace0:    756c6176    valu    DCD    1970037110
        0x0001ace4:    64253d65    e=%d    DCD    1680162149
        0x0001ace8:    0000000a    ....    DCD    10
    $t
    i.uint64_to_hexstr
    uint64_to_hexstr
        0x0001acec:    e92d41f0    -..A    PUSH     {r4-r8,lr}
        0x0001acf0:    b085        ..      SUB      sp,sp,#0x14
        0x0001acf2:    4604        .F      MOV      r4,r0
        0x0001acf4:    460d        .F      MOV      r5,r1
        0x0001acf6:    461e        .F      MOV      r6,r3
        0x0001acf8:    2100        .!      MOVS     r1,#0
        0x0001acfa:    468c        .F      MOV      r12,r1
        0x0001acfc:    ea84070c    ....    EOR      r7,r4,r12
        0x0001ad00:    ea850c0c    ....    EOR      r12,r5,r12
        0x0001ad04:    ea57070c    W...    ORRS     r7,r7,r12
        0x0001ad08:    d105        ..      BNE      0x1ad16 ; uint64_to_hexstr + 42
        0x0001ad0a:    f04f0830    O.0.    MOV      r8,#0x30
        0x0001ad0e:    460f        .F      MOV      r7,r1
        0x0001ad10:    1c49        I.      ADDS     r1,r1,#1
        0x0001ad12:    f80d8007    ....    STRB     r8,[sp,r7]
        0x0001ad16:    e016        ..      B        0x1ad46 ; uint64_to_hexstr + 90
        0x0001ad18:    270f        .'      MOVS     r7,#0xf
        0x0001ad1a:    4027        '@      ANDS     r7,r7,r4
        0x0001ad1c:    b2fb        ..      UXTB     r3,r7
        0x0001ad1e:    2b09        .+      CMP      r3,#9
        0x0001ad20:    dd05        ..      BLE      0x1ad2e ; uint64_to_hexstr + 66
        0x0001ad22:    b10e        ..      CBZ      r6,0x1ad28 ; uint64_to_hexstr + 60
        0x0001ad24:    2727        ''      MOVS     r7,#0x27
        0x0001ad26:    e000        ..      B        0x1ad2a ; uint64_to_hexstr + 62
        0x0001ad28:    2707        .'      MOVS     r7,#7
        0x0001ad2a:    441f        .D      ADD      r7,r7,r3
        0x0001ad2c:    b2fb        ..      UXTB     r3,r7
        0x0001ad2e:    f1030730    ..0.    ADD      r7,r3,#0x30
        0x0001ad32:    f00708ff    ....    AND      r8,r7,#0xff
        0x0001ad36:    460f        .F      MOV      r7,r1
        0x0001ad38:    1c49        I.      ADDS     r1,r1,#1
        0x0001ad3a:    f80d8007    ....    STRB     r8,[sp,r7]
        0x0001ad3e:    0927        '.      LSRS     r7,r4,#4
        0x0001ad40:    ea477405    G..t    ORR      r4,r7,r5,LSL #28
        0x0001ad44:    092d        -.      LSRS     r5,r5,#4
        0x0001ad46:    f04f0c00    O...    MOV      r12,#0
        0x0001ad4a:    ea84070c    ....    EOR      r7,r4,r12
        0x0001ad4e:    ea850c0c    ....    EOR      r12,r5,r12
        0x0001ad52:    ea57070c    W...    ORRS     r7,r7,r12
        0x0001ad56:    d1df        ..      BNE      0x1ad18 ; uint64_to_hexstr + 44
        0x0001ad58:    4608        .F      MOV      r0,r1
        0x0001ad5a:    b14a        J.      CBZ      r2,0x1ad70 ; uint64_to_hexstr + 132
        0x0001ad5c:    e003        ..      B        0x1ad66 ; uint64_to_hexstr + 122
        0x0001ad5e:    f81d7001    ...p    LDRB     r7,[sp,r1]
        0x0001ad62:    f8027b01    ...{    STRB     r7,[r2],#1
        0x0001ad66:    1e0f        ..      SUBS     r7,r1,#0
        0x0001ad68:    f1a10101    ....    SUB      r1,r1,#1
        0x0001ad6c:    d1f7        ..      BNE      0x1ad5e ; uint64_to_hexstr + 114
        0x0001ad6e:    7017        .p      STRB     r7,[r2,#0]
        0x0001ad70:    b005        ..      ADD      sp,sp,#0x14
        0x0001ad72:    e8bd81f0    ....    POP      {r4-r8,pc}
    i.uint64_to_str
    uint64_to_str
        0x0001ad76:    e92d4ff0    -..O    PUSH     {r4-r11,lr}
        0x0001ad7a:    b087        ..      SUB      sp,sp,#0x1c
        0x0001ad7c:    4607        .F      MOV      r7,r0
        0x0001ad7e:    4688        .F      MOV      r8,r1
        0x0001ad80:    4616        .F      MOV      r6,r2
        0x0001ad82:    f04f0900    O...    MOV      r9,#0
        0x0001ad86:    46cb        .F      MOV      r11,r9
        0x0001ad88:    bf00        ..      NOP      
        0x0001ad8a:    4638        8F      MOV      r0,r7
        0x0001ad8c:    4641        AF      MOV      r1,r8
        0x0001ad8e:    f7fffafa    ....    BL       divu64_10 ; 0x1a386
        0x0001ad92:    4604        .F      MOV      r4,r0
        0x0001ad94:    460d        .F      MOV      r5,r1
        0x0001ad96:    210a        .!      MOVS     r1,#0xa
        0x0001ad98:    fba40101    ....    UMULL    r0,r1,r4,r1
        0x0001ad9c:    ebb70a00    ....    SUBS     r10,r7,r0
        0x0001ada0:    f10a0030    ..0.    ADD      r0,r10,#0x30
        0x0001ada4:    b2c2        ..      UXTB     r2,r0
        0x0001ada6:    4648        HF      MOV      r0,r9
        0x0001ada8:    f1090901    ....    ADD      r9,r9,#1
        0x0001adac:    f80d2000    ...     STRB     r2,[sp,r0]
        0x0001adb0:    4627        'F      MOV      r7,r4
        0x0001adb2:    46a8        .F      MOV      r8,r5
        0x0001adb4:    f04f0200    O...    MOV      r2,#0
        0x0001adb8:    ea870002    ....    EOR      r0,r7,r2
        0x0001adbc:    ea880102    ....    EOR      r1,r8,r2
        0x0001adc0:    4308        .C      ORRS     r0,r0,r1
        0x0001adc2:    d1e2        ..      BNE      0x1ad8a ; uint64_to_str + 20
        0x0001adc4:    46cb        .F      MOV      r11,r9
        0x0001adc6:    b156        V.      CBZ      r6,0x1adde ; uint64_to_str + 104
        0x0001adc8:    e003        ..      B        0x1add2 ; uint64_to_str + 92
        0x0001adca:    f81d0009    ....    LDRB     r0,[sp,r9]
        0x0001adce:    f8060b01    ....    STRB     r0,[r6],#1
        0x0001add2:    f1b90000    ....    SUBS     r0,r9,#0
        0x0001add6:    f1a90901    ....    SUB      r9,r9,#1
        0x0001adda:    d1f6        ..      BNE      0x1adca ; uint64_to_str + 84
        0x0001addc:    7030        0p      STRB     r0,[r6,#0]
        0x0001adde:    4658        XF      MOV      r0,r11
        0x0001ade0:    b007        ..      ADD      sp,sp,#0x1c
        0x0001ade2:    e8bd8ff0    ....    POP      {r4-r11,pc}
        0x0001ade6:    0000        ..      MOVS     r0,r0
    x$fpl$d2f
    $v0
    __aeabi_d2f
    _d2f
        0x0001ade8:    f0214200    !..B    BIC      r2,r1,#0x80000000
        0x0001adec:    f1a25260    ..`R    SUB      r2,r2,#0x38000000
        0x0001adf0:    f5b21f80    ....    CMP      r2,#0x100000
        0x0001adf4:    f0014300    ...C    AND      r3,r1,#0x80000000
        0x0001adf8:    bf28        (.      IT       CS
        0x0001adfa:    f1d26c7f    ...l    RSBSCS   r12,r2,#0xff00000
        0x0001adfe:    d90b        ..      BLS      0x1ae18 ; __aeabi_d2f + 48
        0x0001ae00:    ea5f1c00    _...    LSLS     r12,r0,#4
        0x0001ae04:    ea4302c2    C...    ORR      r2,r3,r2,LSL #3
        0x0001ae08:    eb427050    B.Pp    ADC      r0,r2,r0,LSR #29
        0x0001ae0c:    bf18        ..      IT       NE
        0x0001ae0e:    4770        pG      BXNE     lr
        0x0001ae10:    bf28        (.      IT       CS
        0x0001ae12:    f0200001     ...    BICCS    r0,r0,#1
        0x0001ae16:    4770        pG      BX       lr
        0x0001ae18:    f5b21f80    ....    CMP      r2,#0x100000
        0x0001ae1c:    bfbc        ..      ITT      LT
        0x0001ae1e:    4618        .F      MOVLT    r0,r3
        0x0001ae20:    4770        pG      BXLT     lr
        0x0001ae22:    ea4f0c41    O.A.    LSL      r12,r1,#1
        0x0001ae26:    f51c1f00    ....    CMN      r12,#0x200000
        0x0001ae2a:    d202        ..      BCS      0x1ae32 ; __aeabi_d2f + 74
        0x0001ae2c:    4608        .F      MOV      r0,r1
        0x0001ae2e:    f000b85f    .._.    B.W      __fpl_fretinf ; 0x1aef0
        0x0001ae32:    b570        p.      PUSH     {r4-r6,lr}
        0x0001ae34:    f000f809    ....    BL       __fpl_dnaninf ; 0x1ae4a
    $d
        0x0001ae38:    89000000    ....    DCD    2298478592
    $t
        0x0001ae3c:    f7ffbff6    ....    B.W      0x1ae2c ; __aeabi_d2f + 68
        0x0001ae40:    f04f4000    O..@    MOV      r0,#0x80000000
        0x0001ae44:    f5a00080    ....    SUB      r0,r0,#0x400000
        0x0001ae48:    4770        pG      BX       lr
    x$fpl$dnaninf
    $v0
    __fpl_dnaninf
        0x0001ae4a:    f10e0e02    ....    ADD      lr,lr,#2
        0x0001ae4e:    f02e0e03    ....    BIC      lr,lr,#3
        0x0001ae52:    f85e6b04    ^..k    LDR      r6,[lr],#4
        0x0001ae56:    4236        6B      TST      r6,r6
        0x0001ae58:    d405        ..      BMI      0x1ae66 ; __fpl_dnaninf + 28
        0x0001ae5a:    2a01        .*      CMP      r2,#1
        0x0001ae5c:    eb430503    C...    ADC      r5,r3,r3
        0x0001ae60:    f5151f00    ....    CMN      r5,#0x200000
        0x0001ae64:    d812        ..      BHI      0x1ae8c ; __fpl_dnaninf + 66
        0x0001ae66:    2801        .(      CMP      r0,#1
        0x0001ae68:    eb410c01    A...    ADC      r12,r1,r1
        0x0001ae6c:    f51c1f00    ....    CMN      r12,#0x200000
        0x0001ae70:    d80c        ..      BHI      0x1ae8c ; __fpl_dnaninf + 66
        0x0001ae72:    d10e        ..      BNE      0x1ae92 ; __fpl_dnaninf + 72
        0x0001ae74:    ea4f7cd1    O..|    LSR      r12,r1,#31
        0x0001ae78:    f5151f00    ....    CMN      r5,#0x200000
        0x0001ae7c:    eb0c0c4c    ..L.    ADD      r12,r12,r12,LSL #1
        0x0001ae80:    f10c0c02    ....    ADD      r12,r12,#2
        0x0001ae84:    bf08        ..      IT       EQ
        0x0001ae86:    eb4c7cd3    L..|    ADCEQ    r12,r12,r3,LSR #31
        0x0001ae8a:    e004        ..      B        0x1ae96 ; __fpl_dnaninf + 76
        0x0001ae8c:    f04f0c08    O...    MOV      r12,#8
        0x0001ae90:    e001        ..      B        0x1ae96 ; __fpl_dnaninf + 76
        0x0001ae92:    ea4f7cd3    O..|    LSR      r12,r3,#31
        0x0001ae96:    eb0c054c    ..L.    ADD      r5,r12,r12,LSL #1
        0x0001ae9a:    fa26f605    &...    LSR      r6,r6,r5
        0x0001ae9e:    f0060607    ....    AND      r6,r6,#7
        0x0001aea2:    f1b60c04    ....    SUBS     r12,r6,#4
        0x0001aea6:    d206        ..      BCS      0x1aeb6 ; __fpl_dnaninf + 108
        0x0001aea8:    eb0e0c86    ....    ADD      r12,lr,r6,LSL #2
        0x0001aeac:    e8bd4070    ..p@    POP      {r4-r6,lr}
        0x0001aeb0:    f04c0c01    L...    ORR      r12,r12,#1
        0x0001aeb4:    4760        `G      BX       r12
        0x0001aeb6:    e8dff00c    ....    TBB      [pc,r12]
    $d
        0x0001aeba:    0b09        ..      DCW    2825
        0x0001aebc:    0202        ..      DCW    514
    $t
        0x0001aebe:    f04f4100    O..A    MOV      r1,#0x80000000
        0x0001aec2:    f04f0000    O...    MOV      r0,#0
        0x0001aec6:    f5a12100    ...!    SUB      r1,r1,#0x80000
        0x0001aeca:    bd70        p.      POP      {r4-r6,pc}
        0x0001aecc:    4619        .F      MOV      r1,r3
        0x0001aece:    4610        .F      MOV      r0,r2
        0x0001aed0:    2801        .(      CMP      r0,#1
        0x0001aed2:    eb510401    Q...    ADCS     r4,r1,r1
        0x0001aed6:    bf18        ..      IT       NE
        0x0001aed8:    f5d41400    ....    RSBSNE   r4,r4,#0x200000
        0x0001aedc:    bf84        ..      ITT      HI
        0x0001aede:    2000        .       MOVHI    r0,#0
        0x0001aee0:    f0014100    ...A    ANDHI    r1,r1,#0x80000000
        0x0001aee4:    bd70        p.      POP      {r4-r6,pc}
    x$fpl$fpinit
    $v0
    _fp_init
        0x0001aee6:    f04f7040    O.@p    MOV      r0,#0x3000000
        0x0001aeea:    eee10a10    ....    VMSR     FPSCR,r0
    __fplib_config_fpu_vfp
    __fplib_config_pureend_doubles
        0x0001aeee:    4770        pG      BX       lr
    x$fpl$fretinf
    $v0
    __fpl_fretinf
        0x0001aef0:    21ff        .!      MOVS     r1,#0xff
        0x0001aef2:    ea4150d0    A..P    ORR      r0,r1,r0,LSR #23
        0x0001aef6:    05c0        ..      LSLS     r0,r0,#23
        0x0001aef8:    4770        pG      BX       lr
    x$fpl$usenofp
    __I$use$fp
        0x0001aefa:    0000        ..      MOVS     r0,r0
    $d.realdata
    .constdata
    __tagsym$$used
    ui32MCUAllowed
        0x0001aefc:    00000000    ....    DCD    0
        0x0001af00:    00000000    ....    DCD    0
        0x0001af04:    00000000    ....    DCD    0
        0x0001af08:    00000000    ....    DCD    0
        0x0001af0c:    00000000    ....    DCD    0
    __tagsym$$used
    ui32DSP0Allowed
        0x0001af10:    00000000    ....    DCD    0
        0x0001af14:    00000000    ....    DCD    0
        0x0001af18:    00000000    ....    DCD    0
        0x0001af1c:    00000000    ....    DCD    0
        0x0001af20:    00000000    ....    DCD    0
    __tagsym$$used
    ui32DSP1Allowed
        0x0001af24:    00000000    ....    DCD    0
        0x0001af28:    00000000    ....    DCD    0
        0x0001af2c:    00000000    ....    DCD    0
        0x0001af30:    00000000    ....    DCD    0
        0x0001af34:    00000000    ....    DCD    0
    __tagsym$$used
    ui32SharedAccess
        0x0001af38:    00000000    ....    DCD    0
        0x0001af3c:    00000000    ....    DCD    0
        0x0001af40:    00000000    ....    DCD    0
        0x0001af44:    00000000    ....    DCD    0
        0x0001af48:    00000000    ....    DCD    0
    __tagsym$$used
    sGlobalAccess
        0x0001af4c:    0001af38    8...    DCD    110392
        0x0001af50:    0001aefc    ....    DCD    110332
        0x0001af54:    0001af10    ....    DCD    110352
        0x0001af58:    0001af24    $...    DCD    110372
        0x0001af5c:    10060004    ....    DCD    268828676
        0x0001af60:    10060018    ....    DCD    268828696
        0x0001af64:    1006002c    ,...    DCD    268828716
    .constdata
    am_hal_cachectrl_defaults
        0x0001af68:    030e        ..      DCW    782
        0x0001af6a:    00          .       DCB    0
    .constdata
    am_hal_daxi_defaults
        0x0001af6b:    02          .       DCB    2
        0x0001af6c:    00000000    ....    DCD    0
    .constdata
    g_DefaultMcuMemCfg
        0x0001af70:    07070102    ....    DCD    117899522
        0x0001af74:    0001        ..      DCW    1
    g_DefaultSRAMCfg
        0x0001af76:    0003        ..      DCW    3
        0x0001af78:    03000000    ....    DCD    50331648
    am_hal_pwrctrl_peripheral_control
        0x0001af7c:    40021004    ...@    DCD    1073876996
        0x0001af80:    00000001    ....    DCD    1
        0x0001af84:    40021008    ...@    DCD    1073877000
        0x0001af88:    00000001    ....    DCD    1
        0x0001af8c:    40021004    ...@    DCD    1073876996
        0x0001af90:    00000002    ....    DCD    2
        0x0001af94:    40021008    ...@    DCD    1073877000
        0x0001af98:    0000001e    ....    DCD    30
        0x0001af9c:    40021004    ...@    DCD    1073876996
        0x0001afa0:    00000004    ....    DCD    4
        0x0001afa4:    40021008    ...@    DCD    1073877000
        0x0001afa8:    0000001e    ....    DCD    30
        0x0001afac:    40021004    ...@    DCD    1073876996
        0x0001afb0:    00000008    ....    DCD    8
        0x0001afb4:    40021008    ...@    DCD    1073877000
        0x0001afb8:    0000001e    ....    DCD    30
        0x0001afbc:    40021004    ...@    DCD    1073876996
        0x0001afc0:    00000010    ....    DCD    16
        0x0001afc4:    40021008    ...@    DCD    1073877000
        0x0001afc8:    0000001e    ....    DCD    30
        0x0001afcc:    40021004    ...@    DCD    1073876996
        0x0001afd0:    00000020     ...    DCD    32
        0x0001afd4:    40021008    ...@    DCD    1073877000
        0x0001afd8:    000001e0    ....    DCD    480
        0x0001afdc:    40021004    ...@    DCD    1073876996
        0x0001afe0:    00000040    @...    DCD    64
        0x0001afe4:    40021008    ...@    DCD    1073877000
        0x0001afe8:    000001e0    ....    DCD    480
        0x0001afec:    40021004    ...@    DCD    1073876996
        0x0001aff0:    00000080    ....    DCD    128
        0x0001aff4:    40021008    ...@    DCD    1073877000
        0x0001aff8:    000001e0    ....    DCD    480
        0x0001affc:    40021004    ...@    DCD    1073876996
        0x0001b000:    00000100    ....    DCD    256
        0x0001b004:    40021008    ...@    DCD    1073877000
        0x0001b008:    000001e0    ....    DCD    480
        0x0001b00c:    40021004    ...@    DCD    1073876996
        0x0001b010:    00000200    ....    DCD    512
        0x0001b014:    40021008    ...@    DCD    1073877000
        0x0001b018:    00001e00    ....    DCD    7680
        0x0001b01c:    40021004    ...@    DCD    1073876996
        0x0001b020:    00000400    ....    DCD    1024
        0x0001b024:    40021008    ...@    DCD    1073877000
        0x0001b028:    00001e00    ....    DCD    7680
        0x0001b02c:    40021004    ...@    DCD    1073876996
        0x0001b030:    00000800    ....    DCD    2048
        0x0001b034:    40021008    ...@    DCD    1073877000
        0x0001b038:    00001e00    ....    DCD    7680
        0x0001b03c:    40021004    ...@    DCD    1073876996
        0x0001b040:    00001000    ....    DCD    4096
        0x0001b044:    40021008    ...@    DCD    1073877000
        0x0001b048:    00001e00    ....    DCD    7680
        0x0001b04c:    40021004    ...@    DCD    1073876996
        0x0001b050:    00002000    . ..    DCD    8192
        0x0001b054:    40021008    ...@    DCD    1073877000
        0x0001b058:    00002000    . ..    DCD    8192
        0x0001b05c:    40021004    ...@    DCD    1073876996
        0x0001b060:    00004000    .@..    DCD    16384
        0x0001b064:    40021008    ...@    DCD    1073877000
        0x0001b068:    0001c000    ....    DCD    114688
        0x0001b06c:    40021004    ...@    DCD    1073876996
        0x0001b070:    00008000    ....    DCD    32768
        0x0001b074:    40021008    ...@    DCD    1073877000
        0x0001b078:    0001c000    ....    DCD    114688
        0x0001b07c:    40021004    ...@    DCD    1073876996
        0x0001b080:    00010000    ....    DCD    65536
        0x0001b084:    40021008    ...@    DCD    1073877000
        0x0001b088:    0001c000    ....    DCD    114688
        0x0001b08c:    40021004    ...@    DCD    1073876996
        0x0001b090:    00020000    ....    DCD    131072
        0x0001b094:    40021008    ...@    DCD    1073877000
        0x0001b098:    00020000    ....    DCD    131072
        0x0001b09c:    40021004    ...@    DCD    1073876996
        0x0001b0a0:    00040000    ....    DCD    262144
        0x0001b0a4:    40021008    ...@    DCD    1073877000
        0x0001b0a8:    00040000    ....    DCD    262144
        0x0001b0ac:    40021004    ...@    DCD    1073876996
        0x0001b0b0:    00080000    ....    DCD    524288
        0x0001b0b4:    40021008    ...@    DCD    1073877000
        0x0001b0b8:    00080000    ....    DCD    524288
        0x0001b0bc:    40021004    ...@    DCD    1073876996
        0x0001b0c0:    00100000    ....    DCD    1048576
        0x0001b0c4:    40021008    ...@    DCD    1073877000
        0x0001b0c8:    00100000    ....    DCD    1048576
        0x0001b0cc:    40021004    ...@    DCD    1073876996
        0x0001b0d0:    00200000    .. .    DCD    2097152
        0x0001b0d4:    40021008    ...@    DCD    1073877000
        0x0001b0d8:    00200000    .. .    DCD    2097152
        0x0001b0dc:    40021004    ...@    DCD    1073876996
        0x0001b0e0:    00400000    ..@.    DCD    4194304
        0x0001b0e4:    40021008    ...@    DCD    1073877000
        0x0001b0e8:    00400000    ..@.    DCD    4194304
        0x0001b0ec:    40021004    ...@    DCD    1073876996
        0x0001b0f0:    00800000    ....    DCD    8388608
        0x0001b0f4:    40021008    ...@    DCD    1073877000
        0x0001b0f8:    00800000    ....    DCD    8388608
        0x0001b0fc:    40021004    ...@    DCD    1073876996
        0x0001b100:    01000000    ....    DCD    16777216
        0x0001b104:    40021008    ...@    DCD    1073877000
        0x0001b108:    01000000    ....    DCD    16777216
        0x0001b10c:    4002100c    ...@    DCD    1073877004
        0x0001b110:    00000001    ....    DCD    1
        0x0001b114:    40021010    ...@    DCD    1073877008
        0x0001b118:    000000ff    ....    DCD    255
        0x0001b11c:    4002100c    ...@    DCD    1073877004
        0x0001b120:    00000002    ....    DCD    2
        0x0001b124:    40021010    ...@    DCD    1073877008
        0x0001b128:    000000ff    ....    DCD    255
        0x0001b12c:    4002100c    ...@    DCD    1073877004
        0x0001b130:    00000004    ....    DCD    4
        0x0001b134:    40021010    ...@    DCD    1073877008
        0x0001b138:    000000ff    ....    DCD    255
        0x0001b13c:    4002100c    ...@    DCD    1073877004
        0x0001b140:    00000008    ....    DCD    8
        0x0001b144:    40021010    ...@    DCD    1073877008
        0x0001b148:    000000ff    ....    DCD    255
        0x0001b14c:    4002100c    ...@    DCD    1073877004
        0x0001b150:    00000010    ....    DCD    16
        0x0001b154:    40021010    ...@    DCD    1073877008
        0x0001b158:    000000ff    ....    DCD    255
        0x0001b15c:    4002100c    ...@    DCD    1073877004
        0x0001b160:    00000020     ...    DCD    32
        0x0001b164:    40021010    ...@    DCD    1073877008
        0x0001b168:    000000ff    ....    DCD    255
        0x0001b16c:    4002100c    ...@    DCD    1073877004
        0x0001b170:    00000040    @...    DCD    64
        0x0001b174:    40021010    ...@    DCD    1073877008
        0x0001b178:    000000ff    ....    DCD    255
        0x0001b17c:    4002100c    ...@    DCD    1073877004
        0x0001b180:    00000080    ....    DCD    128
        0x0001b184:    40021010    ...@    DCD    1073877008
        0x0001b188:    000000ff    ....    DCD    255
        0x0001b18c:    4002100c    ...@    DCD    1073877004
        0x0001b190:    00000400    ....    DCD    1024
        0x0001b194:    40021010    ...@    DCD    1073877008
        0x0001b198:    00000400    ....    DCD    1024
    .constdata
    g_am_hal_bootrom_helper
        0x0001b19c:    0800004d    M...    DCD    134217805
        0x0001b1a0:    08000051    Q...    DCD    134217809
        0x0001b1a4:    08000055    U...    DCD    134217813
        0x0001b1a8:    08000059    Y...    DCD    134217817
        0x0001b1ac:    0800006d    m...    DCD    134217837
        0x0001b1b0:    08000075    u...    DCD    134217845
        0x0001b1b4:    08000079    y...    DCD    134217849
        0x0001b1b8:    08000081    ....    DCD    134217857
        0x0001b1bc:    08000099    ....    DCD    134217881
        0x0001b1c0:    0800009d    ....    DCD    134217885
    .constdata
    g_ui32DSpintbl
        0x0001b1c4:    8fc007e0    ....    DCD    2411726816
        0x0001b1c8:    e3fbffff    ....    DCD    3824943103
        0x0001b1cc:    01ffffff    ....    DCD    33554431
        0x0001b1d0:    00000000    ....    DCD    0
    Region$$Table$$Base
        0x0001b1d4:    0001b204    ....    DCD    111108
        0x0001b1d8:    10000000    ....    DCD    268435456
        0x0001b1dc:    00000278    x...    DCD    632
        0x0001b1e0:    00018270    p...    DCD    98928
        0x0001b1e4:    0001b364    d...    DCD    111460
        0x0001b1e8:    10060000    ....    DCD    268828672
        0x0001b1ec:    00000040    @...    DCD    64
        0x0001b1f0:    000182cc    ....    DCD    99020
        0x0001b1f4:    0001b364    d...    DCD    111460
        0x0001b1f8:    10000278    x...    DCD    268436088
        0x0001b1fc:    000016f8    ....    DCD    5880
        0x0001b200:    000182e8    ....    DCD    99048
    Region$$Table$$Limit

** Section #2 'MCU_TCM' (SHT_PROGBITS) [SHF_ALLOC + SHF_WRITE]
    Size   : 352 bytes (alignment 16)
    Address: 0x10000000

    Data section was compressed (Original size: 632 bytes)

    0x10000000:   00 00 00 00 00 00 00 00 00 00 00 00 00 00 00 00    ................
    0x10000010:   02 00 0e 00 00 00 86 01 86 01 0a 10 01 00 02 00    ................
    0x10000020:   57 00 00 00 00 00 00 00 00 00 00 00 00 00 00 00    W...............
    0x10000030:   00 00 06 10 00 00 08 00 28 10 02 40 01 00 00 00    ........(..@....
    0x10000040:   00 00 0e 10 00 00 08 00 28 10 02 40 02 00 00 00    ........(..@....
    0x10000050:   00 00 16 10 00 00 02 00 5c 10 02 40 02 00 00 00    ........\..@....
    0x10000060:   00 00 18 10 00 00 04 00 5c 10 02 40 01 00 00 00    ........\..@....
    0x10000070:   00 00 1d 10 00 80 00 00 7c 10 02 40 02 00 00 00    ........|..@....
    0x10000080:   00 00 1c 10 00 00 01 00 7c 10 02 40 01 00 00 00    ........|..@....
    0x10000090:   01 00 00 00 ff ff ff ff ff ff ff ff ff ff ff ff    ................
    0x100000a0:   ff ff ff ff ff ff ff ff ff ff ff ff b1 00 00 10    ................
    0x100000b0:   08 60 bf f3 4f 8f 30 bf bf f3 6f 8f 70 47 00 bf    .`..O.0...o.pG..
    0x100000c0:   00 00 00 00 00 00 00 00 00 00 00 00 00 00 00 00    ................
    0x100000d0:   00 04 00 00 44 f2 04 01 c4 f2 01 01 c3 22 4a 60    ....D........"J`
    0x100000e0:   05 22 cb 6c 43 f0 10 03 cb 64 0a 65 01 23 cb 60    .".lC....d.e.#.`
    0x100000f0:   00 22 0a 61 4a 61 8a 61 00 f0 0f 00 0b 68 43 f0    .".aJa.a.....hC.
    0x10000100:   08 03 0b 60 0a 68 22 f0 08 02 0a 60 09 22 0b 6d    ...`.h"....`.".m
    0x10000110:   62 f3 95 23 0b 65 06 22 0b 6d 62 f3 04 03 0b 65    b..#.e.".mb....e
    0x10000120:   0a 68 42 f0 08 02 0a 60 0b 68 23 f0 08 03 0b 60    .hB....`.h#....`
    0x10000130:   ca 6e 0b 68 23 f0 08 03 12 09 0b 60 40 ea 02 10    .n.h#......`@...
    0x10000140:   c8 60 05 20 0a 6d 60 f3 04 02 0a 65 08 68 40 f0    .`. .m`....e.h@.
    0x10000150:   08 00 08 60 0a 68 22 f0 08 02 0a 60 00 22 08 6d    ...`.h"....`.".m
    0x10000160:   6f f3 95 20 08 65 ca 60 05 20 0a 6d 60 f3 04 02    o.. .e.`. .m`...
    0x10000170:   0a 65 08 68 40 f0 08 00 08 60 0a 68 22 f0 08 02    .e.h@....`.h"...
    0x10000180:   0a 60 00 22 c8 6c 20 f0 10 00 c8 64 4a 60 70 47    .`.".l ....dJ`pG
    0x10000190:   44 f2 04 01 c4 f2 01 01 c3 20 48 60 05 20 ca 6c    D........ H`. .l
    0x100001a0:   42 f0 10 02 ca 64 08 65 01 22 ca 60 00 20 08 61    B....d.e.".`. .a
    0x100001b0:   48 61 88 61 0a 68 42 f0 08 02 0a 60 08 68 20 f0    Ha.a.hB....`.h .
    0x100001c0:   08 00 08 60 09 20 0a 6d 60 f3 95 22 0a 65 06 20    ...`. .m`..".e. 
    0x100001d0:   0a 6d 60 f3 04 02 0a 65 08 68 40 f0 08 00 08 60    .m`....e.h@....`
    0x100001e0:   45 f6 a0 00 0a 68 22 f0 08 02 0a 60 c0 f2 10 00    E....h"....`....
    0x100001f0:   ca 6e 02 f0 0f 02 02 43 ca 60 05 20 0a 6d 60 f3    .n.....C.`. .m`.
    0x10000200:   04 02 0a 65 08 68 40 f0 08 00 08 60 0a 68 22 f0    ...e.h@....`.h".
    0x10000210:   08 02 0a 60 00 22 08 6d 6f f3 95 20 08 65 ca 60    ...`.".mo.. .e.`
    0x10000220:   05 20 0a 6d 60 f3 04 02 0a 65 08 68 40 f0 08 00    . .m`....e.h@...
    0x10000230:   08 60 0a 68 22 f0 08 02 0a 60 00 22 c8 6c 20 f0    .`.h"....`.".l .
    0x10000240:   10 00 c8 64 4a 60 00 20 70 47 00 00 d5 00 00 10    ...dJ`. pG......
    0x10000250:   91 01 00 10 00 00 00 00 00 00 00 00 08 1e 0c 40    ...............@
    0x10000260:   18 1e 0c 40 00 00 00 00 6d db 02 40 d1 02 00 00    ...@....m..@....
    0x10000270:   92 24 01 80 20 01 00 00                            .$.. ...


** Section #3 'MCU_TCM' (SHT_NOBITS) [SHF_ALLOC + SHF_WRITE]
    Size   : 5880 bytes (alignment 8)
    Address: 0x10000278


** Section #4 'SHARED_SRAM' (SHT_PROGBITS) [SHF_ALLOC + SHF_WRITE]
    Size   : 64 bytes (alignment 4)
    Address: 0x10060000

    0x10060000:   4c af 01 00 00 00 00 00 00 00 00 00 00 00 00 00    L...............
    0x10060010:   00 00 00 00 00 00 00 00 00 00 00 00 00 00 00 00    ................
    0x10060020:   00 00 00 00 00 00 00 00 00 00 00 00 00 00 00 00    ................
    0x10060030:   00 00 00 00 00 00 00 00 00 00 00 00 00 00 00 00    ................


** Section #5 '.debug_abbrev' (SHT_PROGBITS)
    Size   : 1476 bytes


** Section #6 '.debug_frame' (SHT_PROGBITS)
    Size   : 3664 bytes


** Section #7 '.debug_info' (SHT_PROGBITS)
    Size   : 28436 bytes


** Section #8 '.debug_line' (SHT_PROGBITS)
    Size   : 5160 bytes


** Section #9 '.debug_loc' (SHT_PROGBITS)
    Size   : 2312 bytes


** Section #10 '.debug_macinfo' (SHT_PROGBITS)
    Size   : 5324 bytes


** Section #11 '.debug_pubnames' (SHT_PROGBITS)
    Size   : 636 bytes


** Section #12 '.symtab' (SHT_SYMTAB)
    Size   : 11088 bytes (alignment 4)
    String table #13 '.strtab'
    Last local symbol no. 430

    Symbol table .symtab (692 symbols, 430 local)

      #  Symbol Name                Value      Bind  Sec  Type  Vis  Size
    ========================================================================

      1  $d                         0x00018000   Lc    1   --   De 
      2  $t                         0x00018200   Lc    1   --   De 
      3  $d                         0x00018230   Lc    1   --   De 
      4  $t                         0x00018234   Lc    1   --   De 
      5  $d                         0x00018268   Lc    1   --   De 
      6  $t                         0x00018270   Lc    1   --   De 
      7  $d                         0x00018350   Lc    1   --   De 
      8  $t                         0x00018354   Lc    1   --   De 
      9  $d                         0x0001839a   Lc    1   --   De 
     10  $t                         0x000183a8   Lc    1   --   De 
     11  $d                         0x000184a8   Lc    1   --   De 
     12  $t                         0x000184ac   Lc    1   --   De 
     13  $d                         0x000184b4   Lc    1   --   De 
     14  $t                         0x000184b8   Lc    1   --   De 
     15  $d                         0x0001857c   Lc    1   --   De 
     16  $t                         0x00018588   Lc    1   --   De 
     17  $d                         0x000185e8   Lc    1   --   De 
     18  $t                         0x00018600   Lc    1   --   De 
     19  $d                         0x000186cc   Lc    1   --   De 
     20  $t                         0x000186d0   Lc    1   --   De 
     21  $d                         0x000187ec   Lc    1   --   De 
     22  $t                         0x000187fc   Lc    1   --   De 
     23  $d                         0x00018880   Lc    1   --   De 
     24  $t                         0x0001888c   Lc    1   --   De 
     25  $d                         0x00018962   Lc    1   --   De 
     26  $t                         0x00018970   Lc    1   --   De 
     27  $d                         0x00018992   Lc    1   --   De 
     28  $t                         0x0001899c   Lc    1   --   De 
     29  $d                         0x000189ec   Lc    1   --   De 
     30  $t                         0x000189f4   Lc    1   --   De 
     31  $d                         0x00018a50   Lc    1   --   De 
     32  $t                         0x00018a58   Lc    1   --   De 
     33  $d                         0x00018ae4   Lc    1   --   De 
     34  $t                         0x00018aec   Lc    1   --   De 
     35  $d                         0x00018b18   Lc    1   --   De 
     36  $t                         0x00018b34   Lc    1   --   De 
     37  $d                         0x00018b6a   Lc    1   --   De 
     38  $t                         0x00018b70   Lc    1   --   De 
     39  $d                         0x00018b7c   Lc    1   --   De 
     40  $t                         0x00018b80   Lc    1   --   De 
     41  $d                         0x00018c0c   Lc    1   --   De 
     42  $t                         0x00018c14   Lc    1   --   De 
     43  $d                         0x00019018   Lc    1   --   De 
     44  $t                         0x00019028   Lc    1   --   De 
     45  $d                         0x00019156   Lc    1   --   De 
     46  $t                         0x00019178   Lc    1   --   De 
     47  $d                         0x0001928c   Lc    1   --   De 
     48  $t                         0x00019294   Lc    1   --   De 
     49  $d                         0x0001943a   Lc    1   --   De 
     50  $t                         0x0001944c   Lc    1   --   De 
     51  $d                         0x0001955e   Lc    1   --   De 
     52  $t                         0x00019578   Lc    1   --   De 
     53  $d                         0x00019616   Lc    1   --   De 
     54  $t                         0x00019620   Lc    1   --   De 
     55  $d                         0x0001962e   Lc    1   --   De 
     56  $t                         0x00019634   Lc    1   --   De 
     57  $d                         0x000197dc   Lc    1   --   De 
     58  $t                         0x000197f8   Lc    1   --   De 
     59  $d                         0x00019852   Lc    1   --   De 
     60  $t                         0x00019858   Lc    1   --   De 
     61  $d                         0x000198aa   Lc    1   --   De 
     62  $t                         0x000198b0   Lc    1   --   De 
     63  $d                         0x00019912   Lc    1   --   De 
     64  $t                         0x00019918   Lc    1   --   De 
     65  $d                         0x00019962   Lc    1   --   De 
     66  $t                         0x00019968   Lc    1   --   De 
     67  $d                         0x00019970   Lc    1   --   De 
     68  $t                         0x00019974   Lc    1   --   De 
     69  $d                         0x000199c8   Lc    1   --   De 
     70  $t                         0x000199d4   Lc    1   --   De 
     71  $d                         0x000199e6   Lc    1   --   De 
     72  $t                         0x000199ec   Lc    1   --   De 
     73  $d                         0x00019a0c   Lc    1   --   De 
     74  $t                         0x00019a10   Lc    1   --   De 
     75  $d                         0x00019af2   Lc    1   --   De 
     76  $t                         0x00019afc   Lc    1   --   De 
     77  $d                         0x00019b4e   Lc    1   --   De 
     78  $t                         0x00019b68   Lc    1   --   De 
     79  $d                         0x00019c8c   Lc    1   --   De 
     80  $t                         0x00019ca8   Lc    1   --   De 
     81  $d                         0x00019d62   Lc    1   --   De 
     82  $t                         0x00019d68   Lc    1   --   De 
     83  $d                         0x00019d9a   Lc    1   --   De 
     84  $t                         0x00019da4   Lc    1   --   De 
     85  $d                         0x00019daa   Lc    1   --   De 
     86  $t                         0x00019db0   Lc    1   --   De 
     87  $d                         0x00019dba   Lc    1   --   De 
     88  $t                         0x00019dd0   Lc    1   --   De 
     89  $d                         0x0001a174   Lc    1   --   De 
     90  $t                         0x0001a184   Lc    1   --   De 
     91  $d                         0x0001a19a   Lc    1   --   De 
     92  $t                         0x0001a1a0   Lc    1   --   De 
     93  $d                         0x0001a2ee   Lc    1   --   De 
     94  $t                         0x0001a2fc   Lc    1   --   De 
     95  $d                         0x0001a318   Lc    1   --   De 
     96  $t                         0x0001a31c   Lc    1   --   De 
     97  $d                         0x0001a5c6   Lc    1   --   De 
     98  $t                         0x0001a5cc   Lc    1   --   De 
     99  $d                         0x0001a6a8   Lc    1   --   De 
    100  $t                         0x0001a6ac   Lc    1   --   De 
    101  $d                         0x0001a810   Lc    1   --   De 
    102  $t                         0x0001a9d8   Lc    1   --   De 
    103  $d                         0x0001aafa   Lc    1   --   De 
    104  $t                         0x0001ab0a   Lc    1   --   De 
    105  $d                         0x0001ac78   Lc    1   --   De 
    106  $t                         0x0001ac80   Lc    1   --   De 
    107  $d                         0x0001acba   Lc    1   --   De 
    108  $t                         0x0001acec   Lc    1   --   De 
    109  $d                         0x0001ae38   Lc    1   --   De 
    110  $t                         0x0001ae3c   Lc    1   --   De 
    111  $d                         0x0001aeba   Lc    1   --   De 
    112  $t                         0x0001aebe   Lc    1   --   De 
    113  $d.realdata                0x0001aefc   Lc    1   --   De 
    114  $d.realdata                0x10000000   Lc    2   --   De 
    115  $d.realdata                0x10060000   Lc    4   --   De 
    116  ..\src\am_resources.c      0x00000000   Lc  Abs  File  De 
    117  ../src/am_resources.c      0x00000000   Lc  Abs  File  De 
    118  .constdata                 0x0001aefc   Lc    1  Sect  De   0x6c
    119  __tagsym$$used             0x0001aefc   Lc    1   --   De 
    120  __tagsym$$used             0x0001af10   Lc    1   --   De 
    121  __tagsym$$used             0x0001af24   Lc    1   --   De 
    122  __tagsym$$used             0x0001af38   Lc    1   --   De 
    123  __tagsym$$used             0x0001af4c   Lc    1   --   De 
    124  RESOURCE_TABLE             0x10060000   Lc    4  Sect  De   0x4
    125  __tagsym$$used             0x10060000   Lc    4   --   De 
    126  SHARED_RW                  0x10060004   Lc    4  Sect  De   0x3c
    127  __tagsym$$used             0x10060004   Lc    4   --   De 
    128  __tagsym$$used             0x10060018   Lc    4   --   De 
    129  __tagsym$$used             0x1006002c   Lc    4   --   De 
    130  ..\src\hp_mode_192mhz.c    0x00000000   Lc  Abs  File  De 
    131  ../src/hp_mode_192mhz.c    0x00000000   Lc  Abs  File  De 
    132  i.main                     0x0001a6ac   Lc    1  Sect  De 
    133  i.prime_number             0x0001aa8c   Lc    1  Sect  De 
    134  i.timer_init               0x0001ac80   Lc    1  Sect  De 
    135  ..\..\..\..\..\..\utils\am_util_delay.c
                                    0x00000000   Lc  Abs  File  De 
    136  ../../../../../../utils/am_util_delay.c
                                    0x00000000   Lc  Abs  File  De 
    137  ..\..\..\..\..\..\utils\am_util_faultisr.c
                                    0x00000000   Lc  Abs  File  De 
    138  .emb_text                  0x00018330   Lc    1  Sect  De   0x2c
    139  $v0                        0x00018330   Lc    1   --   De 
    140  ../../../../../../utils/am_util_faultisr.c
                                    0x00000000   Lc  Abs  File  De 
    141  i.am_util_faultisr_collect_data
                                    0x00019ca8   Lc    1  Sect  De 
    142  i.am_valid_sp              0x0001a184   Lc    1  Sect  De 
    143  .bss                       0x10000278   Lc    3  Sect  De   0x200
    144  ../../../../../../utils/am_util_stdio.c
                                    0x00000000   Lc  Abs  File  De 
    145  i.am_util_stdio_printf     0x00019d68   Lc    1  Sect  De 
    146  i.am_util_stdio_printf_init
                                    0x00019da4   Lc    1  Sect  De 
    147  i.am_util_stdio_terminal_clear
                                    0x00019db0   Lc    1  Sect  De 
    148  i.am_util_stdio_vsprintf   0x00019dd0   Lc    1  Sect  De 
    149  i.decstr_to_int            0x0001a344   Lc    1  Sect  De 
    150  decstr_to_int              0x0001a345   Lc    1  Code  De   0x42
    151  i.divu64_10                0x0001a386   Lc    1  Sect  De 
    152  divu64_10                  0x0001a387   Lc    1  Code  De   0xcc
    153  i.ftoa                     0x0001a454   Lc    1  Sect  De 
    154  ftoa                       0x0001a455   Lc    1  Code  De   0x172
    155  i.ndigits_in_hex           0x0001a9d8   Lc    1  Sect  De 
    156  ndigits_in_hex             0x0001a9d9   Lc    1  Code  De   0x34
    157  i.ndigits_in_i64           0x0001aa0c   Lc    1  Sect  De 
    158  ndigits_in_i64             0x0001aa0d   Lc    1  Code  De   0x24
    159  i.ndigits_in_u64           0x0001aa30   Lc    1  Sect  De 
    160  ndigits_in_u64             0x0001aa31   Lc    1  Code  De   0x3a
    161  i.padbuffer                0x0001aa6a   Lc    1  Sect  De 
    162  padbuffer                  0x0001aa6b   Lc    1  Code  De   0x22
    163  i.simple_strlen            0x0001aabc   Lc    1  Sect  De 
    164  simple_strlen              0x0001aabd   Lc    1  Code  De   0x18
    165  i.uint64_to_hexstr         0x0001acec   Lc    1  Sect  De 
    166  uint64_to_hexstr           0x0001aced   Lc    1  Code  De   0x8a
    167  i.uint64_to_str            0x0001ad76   Lc    1  Sect  De 
    168  uint64_to_str              0x0001ad77   Lc    1  Code  De   0x70
    169  .bss                       0x10000478   Lc    3  Sect  De   0x400
    170  g_prfbuf                   0x10000478   Lc    3  Data  De   0x400
    171  .data                      0x10000000   Lc    2  Sect  De   0x5
    172  g_bTxtXlate                0x10000004   Lc    2  Data  De   0x1
    173  ../keil/startup_keil.s     0x00000000   Lc  Abs  File  De 
    174  STACK                      0x10000970   Lc    3  Sect  De   0x1000
    175  StackMem                   0x10000970   Lc    3  Data  De 
    176  HEAP                       0x10000970   Lc    3  Sect  De 
    177  HeapMem                    0x10000970   Lc    3  Data  De 
    178  RESET                      0x00018000   Lc    1  Sect  De   0x234
    179  $v0                        0x00018200   Lc    1   --   De 
    180  am_cryptosec_isr           0x0001822f   Lc    1  Code  De 
    181  am_default_isr             0x0001822f   Lc    1  Code  De   0x2
    182  .text                      0x00018390   Lc    1  Sect  De   0x18
    183  $v0                        0x00018390   Lc    1   --   De 
    184  ..\am_bsp.c                0x00000000   Lc  Abs  File  De 
    185  ../am_bsp.c                0x00000000   Lc  Abs  File  De 
    186  i.am_bsp_itm_printf_enable 0x00018588   Lc    1  Sect  De 
    187  i.am_bsp_low_power_init    0x00018600   Lc    1  Sect  De 
    188  .data                      0x10000008   Lc    2  Sect  De   0x1a
    189  g_ePrintInterface          0x10000008   Lc    2  Data  De   0x1
    190  g_sCOMUART                 0x1000000c   Lc    2  Data  De   0x4
    191  ..\..\..\..\..\mcu\apollo4b\hal\mcu\am_hal_cachectrl.c
                                    0x00000000   Lc  Abs  File  De 
    192  ../../../../../mcu/apollo4b/hal/mcu/am_hal_cachectrl.c
                                    0x00000000   Lc  Abs  File  De 
    193  i.am_hal_cachectrl_config  0x00018616   Lc    1  Sect  De 
    194  i.am_hal_cachectrl_enable  0x0001865e   Lc    1  Sect  De 
    195  i.am_hal_daxi_config       0x00018678   Lc    1  Sect  De 
    196  i.am_hal_daxi_control      0x000186d0   Lc    1  Sect  De 
    197  .constdata                 0x0001af68   Lc    1  Sect  De   0x3
    198  .constdata                 0x0001af6b   Lc    1  Sect  De   0x3
    199  .data                      0x10000024   Lc    2  Sect  De   0x6c
    200  p64BAxiMem                 0x10000024   Lc    2  Data  De   0x4
    201  ui32AxiBufPwrStatMask      0x10000028   Lc    2  Data  De   0x4
    202  ui32AxiBufPwrStatReg       0x1000002c   Lc    2  Data  De   0x4
    203  gAxiMemRange               0x10000030   Lc    2  Data  De   0x60
    204  ..\..\..\..\..\mcu\apollo4b\hal\mcu\am_hal_fault.c
                                    0x00000000   Lc  Abs  File  De 
    205  ../../../../../mcu/apollo4b/hal/mcu/am_hal_fault.c
                                    0x00000000   Lc  Abs  File  De 
    206  i.am_hal_fault_status_get  0x00018a58   Lc    1  Sect  De 
    207  ..\..\..\..\..\mcu\apollo4b\hal\mcu\am_hal_sysctrl.c
                                    0x00000000   Lc  Abs  File  De 
    208  ../../../../../mcu/apollo4b/hal/mcu/am_hal_sysctrl.c
                                    0x00000000   Lc  Abs  File  De 
    209  i.am_hal_sysctrl_sleep     0x00019634   Lc    1  Sect  De 
    210  ..\..\..\..\..\mcu\apollo4b\hal\mcu\am_hal_utils.c
                                    0x00000000   Lc  Abs  File  De 
    211  ../../../../../mcu/apollo4b/hal/mcu/am_hal_utils.c
                                    0x00000000   Lc  Abs  File  De 
    212  i.am_hal_delay_us          0x00018970   Lc    1  Sect  De 
    213  i.am_hal_delay_us_status_change
                                    0x0001899c   Lc    1  Sect  De 
    214  i.am_hal_delay_us_status_check
                                    0x000189f4   Lc    1  Sect  De 
    215  i.am_hal_load_ui32         0x00018b64   Lc    1  Sect  De 
    216  ..\..\..\..\..\mcu\apollo4b\hal\am_hal_pwrctrl.c
                                    0x00000000   Lc  Abs  File  De 
    217  ../../../../../mcu/apollo4b/hal/am_hal_pwrctrl.c
                                    0x00000000   Lc  Abs  File  De 
    218  i.VDDF_simobuck_boost      0x000184bc   Lc    1  Sect  De 
    219  VDDF_simobuck_boost        0x000184bd   Lc    1  Code  De   0xc0
    220  i.am_hal_pwrctrl_control   0x00018c14   Lc    1  Sect  De 
    221  i.am_hal_pwrctrl_low_power_init
                                    0x0001903c   Lc    1  Sect  De 
    222  i.am_hal_pwrctrl_mcu_memory_config
                                    0x00019178   Lc    1  Sect  De 
    223  i.am_hal_pwrctrl_mcu_mode_select
                                    0x00019294   Lc    1  Sect  De 
    224  i.am_hal_pwrctrl_periph_disable
                                    0x0001944c   Lc    1  Sect  De 
    225  i.am_hal_pwrctrl_sram_config
                                    0x00019578   Lc    1  Sect  De 
    226  i.am_hal_util_write_and_wait
                                    0x00019b68   Lc    1  Sect  De 
    227  i.buck_interval_check      0x0001a1a0   Lc    1  Sect  De 
    228  buck_interval_check        0x0001a1a1   Lc    1  Code  De   0x14e
    229  i.buck_ldo_update_override 0x0001a2fc   Lc    1  Sect  De 
    230  .bss                       0x10000878   Lc    3  Sect  De   0x54
    231  .constdata                 0x0001af70   Lc    1  Sect  De   0x22c
    232  .data                      0x10000090   Lc    2  Sect  De   0x20
    233  .data                      0x100000b0   Lc    2  Sect  De   0x20
    234  storeAndWFIRAM             0x100000b0   Lc    2  Data  De   0x20
    235  ..\..\..\..\..\mcu\apollo4b\hal\am_hal_timer.c
                                    0x00000000   Lc  Abs  File  De 
    236  ../../../../../mcu/apollo4b/hal/am_hal_timer.c
                                    0x00000000   Lc  Abs  File  De 
    237  i.am_hal_timer_clear       0x000197f8   Lc    1  Sect  De 
    238  i.am_hal_timer_clear_stop  0x00019858   Lc    1  Sect  De 
    239  i.am_hal_timer_config      0x000198b0   Lc    1  Sect  De 
    240  i.am_hal_timer_default_config_set
                                    0x000198bc   Lc    1  Sect  De 
    241  i.am_hal_timer_disable     0x000198d8   Lc    1  Sect  De 
    242  i.am_hal_timer_enable      0x00019918   Lc    1  Sect  De 
    243  i.am_hal_timer_interrupt_clear
                                    0x00019968   Lc    1  Sect  De 
    244  i.am_hal_timer_interrupt_enable
                                    0x00019974   Lc    1  Sect  De 
    245  i.am_hal_timer_interrupt_status_get
                                    0x000199d4   Lc    1  Sect  De 
    246  i.am_hal_timer_read        0x000199ec   Lc    1  Sect  De 
    247  i.am_hal_timer_reset_config
                                    0x00019a10   Lc    1  Sect  De 
    248  i.internal_timer_config    0x0001a5cc   Lc    1  Sect  De 
    249  i.timer_config_b1          0x0001aad4   Lc    1  Sect  De 
    250  .bss                       0x100008cc   Lc    3  Sect  De   0x40
    251  TimerFlags                 0x100008cc   Lc    3  Data  De   0x40
    252  ..\am_bsp_pins.c           0x00000000   Lc  Abs  File  De 
    253  ../am_bsp_pins.c           0x00000000   Lc  Abs  File  De 
    254  .data                      0x100000d0   Lc    2  Sect  De   0x4
    255  ..\..\..\..\..\mcu\apollo4b\hal\mcu\am_hal_bootrom_helper.c
                                    0x00000000   Lc  Abs  File  De 
    256  ../../../../../mcu/apollo4b/hal/mcu/am_hal_bootrom_helper.c
                                    0x00000000   Lc  Abs  File  De 
    257  .constdata                 0x0001b19c   Lc    1  Sect  De   0x28
    258  ..\..\..\..\..\mcu\apollo4b\hal\mcu\am_hal_interrupt.c
                                    0x00000000   Lc  Abs  File  De 
    259  .emb_text                  0x0001835c   Lc    1  Sect  De   0x16
    260  $v0                        0x0001835c   Lc    1   --   De 
    261  ../../../../../mcu/apollo4b/hal/mcu/am_hal_interrupt.c
                                    0x00000000   Lc  Abs  File  De 
    262  ..\..\..\..\..\mcu\apollo4b\hal\mcu\am_hal_itm.c
                                    0x00000000   Lc  Abs  File  De 
    263  ../../../../../mcu/apollo4b/hal/mcu/am_hal_itm.c
                                    0x00000000   Lc  Abs  File  De 
    264  i.am_hal_itm_enable        0x00018aec   Lc    1  Sect  De 
    265  i.am_hal_itm_print         0x00018b34   Lc    1  Sect  De 
    266  ..\..\..\..\..\mcu\apollo4b\hal\mcu\am_hal_mram.c
                                    0x00000000   Lc  Abs  File  De 
    267  ../../../../../mcu/apollo4b/hal/mcu/am_hal_mram.c
                                    0x00000000   Lc  Abs  File  De 
    268  i.am_hal_mram_ds_init      0x00018b70   Lc    1  Sect  De 
    269  i.am_hal_mram_info_read    0x00018b80   Lc    1  Sect  De 
    270  .data                      0x100000d4   Lc    2  Sect  De   0xbc
    271  g_program_mram_tmc_tcycrd  0x100000d4   Lc    2  Data  De   0xbc
    272  .data                      0x10000190   Lc    2  Sect  De   0xbc
    273  g_recover_broken_mram_tmc_r_timer1
                                    0x10000190   Lc    2  Data  De   0xbc
    274  .data                      0x1000024c   Lc    2  Sect  De   0x8
    275  ..\..\..\..\..\mcu\apollo4b\hal\mcu\am_hal_mspi.c
                                    0x00000000   Lc  Abs  File  De 
    276  ../../../../../mcu/apollo4b/hal/mcu/am_hal_mspi.c
                                    0x00000000   Lc  Abs  File  De 
    277  .data                      0x10000254   Lc    2  Sect  De   0x4
    278  ..\..\..\..\..\mcu\apollo4b\hal\mcu\am_hal_rtc.c
                                    0x00000000   Lc  Abs  File  De 
    279  ../../../../../mcu/apollo4b/hal/mcu/am_hal_rtc.c
                                    0x00000000   Lc  Abs  File  De 
    280  i.am_hal_rtc_osc_disable   0x00019620   Lc    1  Sect  De 
    281  ..\..\..\..\..\mcu\apollo4b\hal\mcu\am_hal_tpiu.c
                                    0x00000000   Lc  Abs  File  De 
    282  ../../../../../mcu/apollo4b/hal/mcu/am_hal_tpiu.c
                                    0x00000000   Lc  Abs  File  De 
    283  i.am_hal_tpiu_enable       0x00019afc   Lc    1  Sect  De 
    284  ..\..\..\..\..\mcu\apollo4b\hal\mcu\am_hal_uart.c
                                    0x00000000   Lc  Abs  File  De 
    285  ../../../../../mcu/apollo4b/hal/mcu/am_hal_uart.c
                                    0x00000000   Lc  Abs  File  De 
    286  ..\..\..\..\..\mcu\apollo4b\hal\am_hal_dcu.c
                                    0x00000000   Lc  Abs  File  De 
    287  ../../../../../mcu/apollo4b/hal/am_hal_dcu.c
                                    0x00000000   Lc  Abs  File  De 
    288  i.am_hal_dcu_get           0x000187fc   Lc    1  Sect  De 
    289  i.am_hal_dcu_update        0x0001888c   Lc    1  Sect  De 
    290  i.copy_words               0x0001a31c   Lc    1  Sect  De 
    291  copy_words                 0x0001a31d   Lc    1  Code  De   0x28
    292  .data                      0x10000258   Lc    2  Sect  De   0x20
    293  ..\..\..\..\..\mcu\apollo4b\hal\am_hal_global.c
                                    0x00000000   Lc  Abs  File  De 
    294  .emb_text                  0x00018374   Lc    1  Sect  De   0x1c
    295  $v0                        0x00018374   Lc    1   --   De 
    296  ../../../../../mcu/apollo4b/hal/am_hal_global.c
                                    0x00000000   Lc  Abs  File  De 
    297  ..\..\..\..\..\mcu\apollo4b\hal\am_hal_gpio.c
                                    0x00000000   Lc  Abs  File  De 
    298  ../../../../../mcu/apollo4b/hal/am_hal_gpio.c
                                    0x00000000   Lc  Abs  File  De 
    299  i.am_hal_gpio_pinconfig    0x00018a98   Lc    1  Sect  De 
    300  .constdata                 0x0001b1c4   Lc    1  Sect  De   0x10
    301  g_ui32DSpintbl             0x0001b1c4   Lc    1  Data  De   0x10
    302  ..\..\..\..\..\mcu\apollo4b\hal\mcu\am_hal_cmdq.c
                                    0x00000000   Lc  Abs  File  De 
    303  ../../../../../mcu/apollo4b/hal/mcu/am_hal_cmdq.c
                                    0x00000000   Lc  Abs  File  De 
    304  ..\..\..\..\..\mcu\apollo4b\hal\am_hal_pin.c
                                    0x00000000   Lc  Abs  File  De 
    305  ../../../../../mcu/apollo4b/hal/am_hal_pin.c
                                    0x00000000   Lc  Abs  File  De 
    306  ..\..\..\..\..\mcu\apollo4b\hal\am_hal_queue.c
                                    0x00000000   Lc  Abs  File  De 
    307  ../../../../../mcu/apollo4b/hal/am_hal_queue.c
                                    0x00000000   Lc  Abs  File  De 
    308  dc.s                       0x00000000   Lc  Abs  File  De 
    309  ../clib/longlong.s         0x00000000   Lc  Abs  File  De 
    310  .text                      0x000183a8   Lc    1  Sect  De   0x26
    311  ../clib/longlong.s         0x00000000   Lc  Abs  File  De 
    312  .text                      0x000183ce   Lc    1  Sect  De   0x26
    313  ../clib/memcpset.s         0x00000000   Lc  Abs  File  De 
    314  .text                      0x000183f4   Lc    1  Sect  De   0x4e
    315  ../clib/heapaux.c          0x00000000   Lc  Abs  File  De 
    316  .text                      0x00018442   Lc    1  Sect  De 
    317  ../clib/angel/startup.s    0x00000000   Lc  Abs  File  De 
    318  !!!main                    0x00018234   Lc    1  Sect  De   0x8
    319  ../clib/angel/handlers.s   0x00000000   Lc  Abs  File  De 
    320  !!handler_copy             0x000182cc   Lc    1  Sect  De   0x1a
    321  ../fplib/d2f.s             0x00000000   Lc  Abs  File  De 
    322  x$fpl$d2f                  0x0001ade8   Lc    1  Sect  De   0x62
    323  $v0                        0x0001ade8   Lc    1   --   De 
    324  ../clib/angel/kernel.s     0x00000000   Lc  Abs  File  De 
    325  .ARM.Collect$$rtentry$$00000000
                                    0x00018310   Lc    1  Sect  De 
    326  ../fplib/dnaninf.s         0x00000000   Lc  Abs  File  De 
    327  x$fpl$dnaninf              0x0001ae4a   Lc    1  Sect  De   0x9c
    328  $v0                        0x0001ae4a   Lc    1   --   De 
    329  ../fplib/fretinf.s         0x00000000   Lc  Abs  File  De 
    330  x$fpl$fretinf              0x0001aef0   Lc    1  Sect  De   0xa
    331  $v0                        0x0001aef0   Lc    1   --   De 
    332  ../fplib/usenofp.s         0x00000000   Lc  Abs  File  De 
    333  x$fpl$usenofp              0x0001aefa   Lc    1  Sect  De 
    334  ../clib/angel/kernel.s     0x00000000   Lc  Abs  File  De 
    335  .ARM.Collect$$rtentry$$00000002
                                    0x00018310   Lc    1  Sect  De 
    336  .ARM.Collect$$rtentry$$00000009
                                    0x00018316   Lc    1  Sect  De 
    337  .ARM.Collect$$rtentry$$0000000A
                                    0x00018316   Lc    1  Sect  De   0x4
    338  .ARM.Collect$$rtentry$$0000000C
                                    0x0001831a   Lc    1  Sect  De 
    339  .ARM.Collect$$rtentry$$0000000D
                                    0x0001831a   Lc    1  Sect  De   0x8
    340  ../clib/angel/kernel.s     0x00000000   Lc  Abs  File  De 
    341  .ARM.Collect$$rtentry$$00000004
                                    0x00018310   Lc    1  Sect  De   0x6
    342  ../clib/angel/sys.s        0x00000000   Lc  Abs  File  De 
    343  .text                      0x00018448   Lc    1  Sect  De   0x4a
    344  ../clib/stdlib.c           0x00000000   Lc  Abs  File  De 
    345  .text                      0x00018492   Lc    1  Sect  De 
    346  ../clib/angel/boardlib.s   0x00000000   Lc  Abs  File  De 
    347  ../clib/angel/boardlib.s   0x00000000   Lc  Abs  File  De 
    348  ../clib/angel/boardlib.s   0x00000000   Lc  Abs  File  De 
    349  ../clib/libinit.s          0x00000000   Lc  Abs  File  De 
    350  .ARM.Collect$$libinit$$00000000
                                    0x00018304   Lc    1  Sect  De   0x2
    351  ../clib/angel/sys.s        0x00000000   Lc  Abs  File  De 
    352  .text                      0x000184a4   Lc    1  Sect  De   0x8
    353  .bss                       0x1000090c   Lc    3  Sect  De   0x60
    354  ../clib/angel/kernel.s     0x00000000   Lc  Abs  File  De 
    355  .ARM.Collect$$rtexit$$00000000
                                    0x00018322   Lc    1  Sect  De   0x2
    356  ../clib/libinit.s          0x00000000   Lc  Abs  File  De 
    357  .ARM.Collect$$libinit$$00000001
                                    0x00018306   Lc    1  Sect  De   0x4
    358  .ARM.Collect$$libinit$$00000004
                                    0x0001830a   Lc    1  Sect  De 
    359  .ARM.Collect$$libinit$$0000000A
                                    0x0001830a   Lc    1  Sect  De 
    360  .ARM.Collect$$libinit$$0000000C
                                    0x0001830a   Lc    1  Sect  De 
    361  .ARM.Collect$$libinit$$0000000E
                                    0x0001830a   Lc    1  Sect  De 
    362  .ARM.Collect$$libinit$$00000011
                                    0x0001830a   Lc    1  Sect  De 
    363  .ARM.Collect$$libinit$$00000013
                                    0x0001830a   Lc    1  Sect  De 
    364  .ARM.Collect$$libinit$$00000015
                                    0x0001830a   Lc    1  Sect  De 
    365  .ARM.Collect$$libinit$$00000017
                                    0x0001830a   Lc    1  Sect  De 
    366  .ARM.Collect$$libinit$$00000019
                                    0x0001830a   Lc    1  Sect  De 
    367  .ARM.Collect$$libinit$$0000001B
                                    0x0001830a   Lc    1  Sect  De 
    368  .ARM.Collect$$libinit$$0000001D
                                    0x0001830a   Lc    1  Sect  De 
    369  .ARM.Collect$$libinit$$0000001F
                                    0x0001830a   Lc    1  Sect  De 
    370  .ARM.Collect$$libinit$$00000021
                                    0x0001830a   Lc    1  Sect  De 
    371  .ARM.Collect$$libinit$$00000023
                                    0x0001830a   Lc    1  Sect  De 
    372  .ARM.Collect$$libinit$$00000025
                                    0x0001830a   Lc    1  Sect  De 
    373  .ARM.Collect$$libinit$$0000002C
                                    0x0001830a   Lc    1  Sect  De 
    374  .ARM.Collect$$libinit$$0000002E
                                    0x0001830a   Lc    1  Sect  De 
    375  .ARM.Collect$$libinit$$00000030
                                    0x0001830a   Lc    1  Sect  De 
    376  .ARM.Collect$$libinit$$00000032
                                    0x0001830a   Lc    1  Sect  De 
    377  .ARM.Collect$$libinit$$00000033
                                    0x0001830a   Lc    1  Sect  De   0x2
    378  ../clib/angel/kernel.s     0x00000000   Lc  Abs  File  De 
    379  .ARM.Collect$$rtexit$$00000002
                                    0x00018324   Lc    1  Sect  De 
    380  .ARM.Collect$$rtexit$$00000003
                                    0x00018324   Lc    1  Sect  De   0x4
    381  .ARM.Collect$$rtexit$$00000004
                                    0x00018328   Lc    1  Sect  De   0x6
    382  ../clib/armsys.c           0x00000000   Lc  Abs  File  De 
    383  ../clib/armsys.c           0x00000000   Lc  Abs  File  De 
    384  ../fplib/fpinit.s          0x00000000   Lc  Abs  File  De 
    385  x$fpl$fpinit               0x0001aee6   Lc    1  Sect  De   0xa
    386  $v0                        0x0001aee6   Lc    1   --   De 
    387  ../clib/angel/sysapp.c     0x00000000   Lc  Abs  File  De 
    388  .text                      0x000184ac   Lc    1  Sect  De 
    389  ../clib/angel/boardlib.s   0x00000000   Lc  Abs  File  De 
    390  ../clib/armsys.c           0x00000000   Lc  Abs  File  De 
    391  ../clib/armsys.c           0x00000000   Lc  Abs  File  De 
    392  ../clib/libinit.s          0x00000000   Lc  Abs  File  De 
    393  .ARM.Collect$$libshutdown$$00000000
                                    0x0001830c   Lc    1  Sect  De   0x2
    394  ../clib/angel/sysapp.c     0x00000000   Lc  Abs  File  De 
    395  ../clib/angel/sys.s        0x00000000   Lc  Abs  File  De 
    396  .text                      0x000184b8   Lc    1  Sect  De   0x2
    397  ../clib/angel/sys.s        0x00000000   Lc  Abs  File  De 
    398  .text                      0x000184ba   Lc    1  Sect  De 
    399  ../clib/heapalloc.c        0x00000000   Lc  Abs  File  De 
    400  ../clib/signal.c           0x00000000   Lc  Abs  File  De 
    401  ../clib/signal.c           0x00000000   Lc  Abs  File  De 
    402  ../clib/libinit.s          0x00000000   Lc  Abs  File  De 
    403  .ARM.Collect$$libshutdown$$00000002
                                    0x0001830e   Lc    1  Sect  De 
    404  .ARM.Collect$$libshutdown$$00000004
                                    0x0001830e   Lc    1  Sect  De 
    405  .ARM.Collect$$libshutdown$$00000007
                                    0x0001830e   Lc    1  Sect  De 
    406  .ARM.Collect$$libshutdown$$0000000A
                                    0x0001830e   Lc    1  Sect  De 
    407  .ARM.Collect$$libshutdown$$0000000C
                                    0x0001830e   Lc    1  Sect  De 
    408  .ARM.Collect$$libshutdown$$0000000F
                                    0x0001830e   Lc    1  Sect  De 
    409  .ARM.Collect$$libshutdown$$00000010
                                    0x0001830e   Lc    1  Sect  De   0x2
    410  ../clib/angel/rt.s         0x00000000   Lc  Abs  File  De 
    411  ../clib/signal.c           0x00000000   Lc  Abs  File  De 
    412  ../clib/signal.c           0x00000000   Lc  Abs  File  De 
    413  ../clib/signal.c           0x00000000   Lc  Abs  File  De 
    414  ../clib/signal.c           0x00000000   Lc  Abs  File  De 
    415  ../clib/angel/sysapp.c     0x00000000   Lc  Abs  File  De 
    416  ../clib/signal.s           0x00000000   Lc  Abs  File  De 
    417  ../clib/signal.c           0x00000000   Lc  Abs  File  De 
    418  ../clib/signal.c           0x00000000   Lc  Abs  File  De 
    419  ../clib/signal.c           0x00000000   Lc  Abs  File  De 
    420  ../clib/signal.c           0x00000000   Lc  Abs  File  De 
    421  ../clib/signal.c           0x00000000   Lc  Abs  File  De 
    422  ../clib/signal.c           0x00000000   Lc  Abs  File  De 
    423  ../clib/signal.c           0x00000000   Lc  Abs  File  De 
    424  ../clib/signal.c           0x00000000   Lc  Abs  File  De 
    425  ../clib/angel/dczerorl2.s  0x00000000   Lc  Abs  File  De 
    426  !!dczerorl2                0x00018270   Lc    1  Sect  De   0x5a
    427  ../clib/angel/scatter.s    0x00000000   Lc  Abs  File  De 
    428  !!!scatter                 0x0001823c   Lc    1  Sect  De   0x34
    429  ../clib/angel/handlers.s   0x00000000   Lc  Abs  File  De 
    430  !!handler_zi               0x000182e8   Lc    1  Sect  De   0x1c
    431  BuildAttributes$$THM_ISAv4$E$P$D$K$B$S$7EM$VFPi3$EXTD16$VFPS$VFMA$PE$A:L22UL41UL21$X:L11$S22US41US21$IEEE1$IW$USESV6$~STKCKD$USESV7$~SHL$OTIME$ROPI$EBA8$UX$STANDARDLIB$REQ8$PRES8$EABIv2
                                    0x00000000   Gb  Abs   --   Hi 
    432  __ARM_use_no_argv          0x00000000   Gb  Abs   --   Hi 
    433  __Vectors                  0x00018000   Gb    1  Data  Hi 
    434  __Patchable                0x00018190   Gb    1  Data  Hi 
    435  Reset_Handler              0x00018201   Wk    1  Code  Hi   0x1c
    436  NMI_Handler                0x0001821f   Wk    1  Code  Hi   0x2
    437  MemManage_Handler          0x00018221   Wk    1  Code  Hi   0x2
    438  BusFault_Handler           0x00018223   Wk    1  Code  Hi   0x2
    439  UsageFault_Handler         0x00018225   Wk    1  Code  Hi   0x2
    440  SVC_Handler                0x00018227   Wk    1  Code  Hi   0x2
    441  DebugMon_Handler           0x00018229   Wk    1  Code  Hi   0x2
    442  PendSV_Handler             0x0001822b   Wk    1  Code  Hi   0x2
    443  SysTick_Handler            0x0001822d   Wk    1  Code  Hi   0x2
    444  am_adc_isr                 0x0001822f   Wk    1  Code  Hi 
    445  am_audadc0_isr             0x0001822f   Wk    1  Code  Hi 
    446  am_brownout_isr            0x0001822f   Wk    1  Code  Hi 
    447  am_cachecpu_isr            0x0001822f   Wk    1  Code  Hi 
    448  am_clkgen_isr              0x0001822f   Wk    1  Code  Hi 
    449  am_ctimer_isr              0x0001822f   Wk    1  Code  Hi 
    450  am_disp_isr                0x0001822f   Wk    1  Code  Hi 
    451  am_dsi_isr                 0x0001822f   Wk    1  Code  Hi 
    452  am_dspi2s0_isr             0x0001822f   Wk    1  Code  Hi 
    453  am_dspi2s1_isr             0x0001822f   Wk    1  Code  Hi 
    454  am_dspi2s2_isr             0x0001822f   Wk    1  Code  Hi 
    455  am_dspi2s3_isr             0x0001822f   Wk    1  Code  Hi 
    456  am_gpio0_001f_isr          0x0001822f   Wk    1  Code  Hi 
    457  am_gpio0_203f_isr          0x0001822f   Wk    1  Code  Hi 
    458  am_gpio0_405f_isr          0x0001822f   Wk    1  Code  Hi 
    459  am_gpio0_607f_isr          0x0001822f   Wk    1  Code  Hi 
    460  am_gpio1_001f_isr          0x0001822f   Wk    1  Code  Hi 
    461  am_gpio1_203f_isr          0x0001822f   Wk    1  Code  Hi 
    462  am_gpio1_405f_isr          0x0001822f   Wk    1  Code  Hi 
    463  am_gpio1_607f_isr          0x0001822f   Wk    1  Code  Hi 
    464  am_gpu_isr                 0x0001822f   Wk    1  Code  Hi 
    465  am_iomaster0_isr           0x0001822f   Wk    1  Code  Hi 
    466  am_iomaster1_isr           0x0001822f   Wk    1  Code  Hi 
    467  am_iomaster2_isr           0x0001822f   Wk    1  Code  Hi 
    468  am_iomaster3_isr           0x0001822f   Wk    1  Code  Hi 
    469  am_iomaster4_isr           0x0001822f   Wk    1  Code  Hi 
    470  am_iomaster5_isr           0x0001822f   Wk    1  Code  Hi 
    471  am_iomaster6_isr           0x0001822f   Wk    1  Code  Hi 
    472  am_iomaster7_isr           0x0001822f   Wk    1  Code  Hi 
    473  am_ioslave_acc_isr         0x0001822f   Wk    1  Code  Hi 
    474  am_ioslave_ios_isr         0x0001822f   Wk    1  Code  Hi 
    475  am_mspi0_isr               0x0001822f   Wk    1  Code  Hi 
    476  am_mspi1_isr               0x0001822f   Wk    1  Code  Hi 
    477  am_mspi2_isr               0x0001822f   Wk    1  Code  Hi 
    478  am_pdm0_isr                0x0001822f   Wk    1  Code  Hi 
    479  am_pdm1_isr                0x0001822f   Wk    1  Code  Hi 
    480  am_pdm2_isr                0x0001822f   Wk    1  Code  Hi 
    481  am_pdm3_isr                0x0001822f   Wk    1  Code  Hi 
    482  am_rtc_isr                 0x0001822f   Wk    1  Code  Hi 
    483  am_sdio_isr                0x0001822f   Wk    1  Code  Hi 
    484  am_stimer_cmpr0_isr        0x0001822f   Wk    1  Code  Hi 
    485  am_stimer_cmpr1_isr        0x0001822f   Wk    1  Code  Hi 
    486  am_stimer_cmpr2_isr        0x0001822f   Wk    1  Code  Hi 
    487  am_stimer_cmpr3_isr        0x0001822f   Wk    1  Code  Hi 
    488  am_stimer_cmpr4_isr        0x0001822f   Wk    1  Code  Hi 
    489  am_stimer_cmpr5_isr        0x0001822f   Wk    1  Code  Hi 
    490  am_stimer_cmpr6_isr        0x0001822f   Wk    1  Code  Hi 
    491  am_stimer_cmpr7_isr        0x0001822f   Wk    1  Code  Hi 
    492  am_stimerof_isr            0x0001822f   Wk    1  Code  Hi 
    493  am_timer00_isr             0x0001822f   Wk    1  Code  Hi 
    494  am_timer01_isr             0x0001822f   Wk    1  Code  Hi 
    495  am_timer02_isr             0x0001822f   Wk    1  Code  Hi 
    496  am_timer03_isr             0x0001822f   Wk    1  Code  Hi 
    497  am_timer04_isr             0x0001822f   Wk    1  Code  Hi 
    498  am_timer05_isr             0x0001822f   Wk    1  Code  Hi 
    499  am_timer06_isr             0x0001822f   Wk    1  Code  Hi 
    500  am_timer07_isr             0x0001822f   Wk    1  Code  Hi 
    501  am_timer08_isr             0x0001822f   Wk    1  Code  Hi 
    502  am_timer09_isr             0x0001822f   Wk    1  Code  Hi 
    503  am_timer10_isr             0x0001822f   Wk    1  Code  Hi 
    504  am_timer11_isr             0x0001822f   Wk    1  Code  Hi 
    505  am_timer12_isr             0x0001822f   Wk    1  Code  Hi 
    506  am_timer13_isr             0x0001822f   Wk    1  Code  Hi 
    507  am_timer14_isr             0x0001822f   Wk    1  Code  Hi 
    508  am_timer15_isr             0x0001822f   Wk    1  Code  Hi 
    509  am_uart1_isr               0x0001822f   Wk    1  Code  Hi 
    510  am_uart2_isr               0x0001822f   Wk    1  Code  Hi 
    511  am_uart3_isr               0x0001822f   Wk    1  Code  Hi 
    512  am_uart_isr                0x0001822f   Wk    1  Code  Hi 
    513  am_usb_isr                 0x0001822f   Wk    1  Code  Hi 
    514  am_vcomp_isr               0x0001822f   Wk    1  Code  Hi 
    515  am_watchdog_isr            0x0001822f   Wk    1  Code  Hi 
    516  __main                     0x00018235   Gb    1  Code  Hi   0x8
    517  __scatterload              0x0001823d   Gb    1  Code  Hi 
    518  __scatterload_rt2          0x0001823d   Gb    1  Code  Hi   0x2c
    519  __scatterload_rt2_thumb_only
                                    0x0001823d   Gb    1  Code  Hi 
    520  __scatterload_null         0x0001824b   Gb    1  Code  Hi 
    521  __decompress               0x00018271   Gb    1  Code  Hi   0x5a
    522  __decompress1              0x00018271   Gb    1  Code  Hi 
    523  __scatterload_copy         0x000182cd   Gb    1  Code  Hi   0x1a
    524  __scatterload_zeroinit     0x000182e9   Gb    1  Code  Hi   0x1c
    525  __rt_lib_init              0x00018305   Gb    1  Code  De 
    526  __rt_lib_init_fp_1         0x00018307   Gb    1  Code  Hi 
    527  __rt_lib_init_alloca_1     0x0001830b   Gb    1  Code  Hi 
    528  __rt_lib_init_argv_1       0x0001830b   Gb    1  Code  Hi 
    529  __rt_lib_init_atexit_1     0x0001830b   Gb    1  Code  Hi 
    530  __rt_lib_init_clock_1      0x0001830b   Gb    1  Code  Hi 
    531  __rt_lib_init_cpp_1        0x0001830b   Gb    1  Code  Hi 
    532  __rt_lib_init_exceptions_1 0x0001830b   Gb    1  Code  Hi 
    533  __rt_lib_init_fp_trap_1    0x0001830b   Gb    1  Code  Hi 
    534  __rt_lib_init_getenv_1     0x0001830b   Gb    1  Code  Hi 
    535  __rt_lib_init_heap_1       0x0001830b   Gb    1  Code  Hi 
    536  __rt_lib_init_lc_collate_1 0x0001830b   Gb    1  Code  Hi 
    537  __rt_lib_init_lc_ctype_1   0x0001830b   Gb    1  Code  Hi 
    538  __rt_lib_init_lc_monetary_1
                                    0x0001830b   Gb    1  Code  Hi 
    539  __rt_lib_init_lc_numeric_1 0x0001830b   Gb    1  Code  Hi 
    540  __rt_lib_init_lc_time_1    0x0001830b   Gb    1  Code  Hi 
    541  __rt_lib_init_preinit_1    0x0001830b   Gb    1  Code  Hi 
    542  __rt_lib_init_rand_1       0x0001830b   Gb    1  Code  Hi 
    543  __rt_lib_init_return       0x0001830b   Gb    1  Code  Hi 
    544  __rt_lib_init_signal_1     0x0001830b   Gb    1  Code  Hi 
    545  __rt_lib_init_stdio_1      0x0001830b   Gb    1  Code  Hi 
    546  __rt_lib_init_user_alloc_1 0x0001830b   Gb    1  Code  Hi 
    547  __rt_lib_shutdown          0x0001830d   Gb    1  Code  De 
    548  __rt_lib_shutdown_cpp_1    0x0001830f   Gb    1  Code  Hi 
    549  __rt_lib_shutdown_fp_trap_1
                                    0x0001830f   Gb    1  Code  Hi 
    550  __rt_lib_shutdown_heap_1   0x0001830f   Gb    1  Code  Hi 
    551  __rt_lib_shutdown_return   0x0001830f   Gb    1  Code  Hi 
    552  __rt_lib_shutdown_signal_1 0x0001830f   Gb    1  Code  Hi 
    553  __rt_lib_shutdown_stdio_1  0x0001830f   Gb    1  Code  Hi 
    554  __rt_lib_shutdown_user_alloc_1
                                    0x0001830f   Gb    1  Code  Hi 
    555  __rt_entry                 0x00018311   Gb    1  Code  Hi 
    556  __rt_entry_presh_1         0x00018311   Gb    1  Code  Hi 
    557  __rt_entry_sh              0x00018311   Gb    1  Code  Hi 
    558  __rt_entry_li              0x00018317   Gb    1  Code  Hi 
    559  __rt_entry_postsh_1        0x00018317   Gb    1  Code  Hi 
    560  __rt_entry_main            0x0001831b   Gb    1  Code  Hi 
    561  __rt_entry_postli_1        0x0001831b   Gb    1  Code  Hi 
    562  __rt_exit                  0x00018323   Gb    1  Code  De 
    563  __rt_exit_ls               0x00018325   Gb    1  Code  Hi 
    564  __rt_exit_prels_1          0x00018325   Gb    1  Code  Hi 
    565  __rt_exit_exit             0x00018329   Gb    1  Code  Hi 
    566  HardFault_Handler          0x00018331   Gb    1  Code  Hi   0x20
    567  getStackedReg              0x00018355   Gb    1  Code  Hi   0x8
    568  am_hal_interrupt_master_enable
                                    0x0001835d   Gb    1  Code  Hi   0x8
    569  am_hal_interrupt_master_disable
                                    0x00018365   Gb    1  Code  Hi   0x8
    570  am_hal_interrupt_master_set
                                    0x0001836d   Gb    1  Code  Hi   0x6
    571  am_hal_triple_read         0x00018375   Gb    1  Code  Hi   0x1c
    572  __user_initial_stackheap   0x00018391   Gb    1  Code  Hi   0xa
    573  __aeabi_llsl               0x000183a9   Gb    1  Code  Hi 
    574  _ll_shift_l                0x000183a9   Gb    1  Code  De   0x26
    575  __aeabi_llsr               0x000183cf   Gb    1  Code  Hi 
    576  _ll_ushift_r               0x000183cf   Gb    1  Code  De   0x26
    577  __aeabi_memclr4            0x000183f5   Gb    1  Code  Hi 
    578  __aeabi_memclr8            0x000183f5   Gb    1  Code  De 
    579  __rt_memclr_w              0x000183f5   Gb    1  Code  De   0x4e
    580  _memset_w                  0x000183f9   Gb    1  Code  De 
    581  __use_two_region_memory    0x00018443   Gb    1  Code  Hi   0x2
    582  __rt_heap_escrow$2region   0x00018445   Gb    1  Code  De   0x2
    583  __rt_heap_expand$2region   0x00018447   Gb    1  Code  De   0x2
    584  __user_setup_stackheap     0x00018449   Gb    1  Code  De   0x4a
    585  exit                       0x00018493   Gb    1  Code  De   0x12
    586  __user_libspace            0x000184a5   Wk    1  Code  De   0x8
    587  __user_perproc_libspace    0x000184a5   Wk    1  Code  De 
    588  __user_perthread_libspace  0x000184a5   Wk    1  Code  De 
    589  _sys_exit                  0x000184ad   Gb    1  Code  De   0x8
    590  __I$use$semihosting        0x000184b9   Gb    1  Code  Hi 
    591  __use_no_semihosting_swi   0x000184b9   Gb    1  Code  Hi   0x2
    592  __semihosting_library_function
                                    0x000184bb   Gb    1  Code  Hi 
    593  am_bsp_itm_printf_enable   0x00018589   Gb    1  Code  Hi   0x60
    594  am_bsp_low_power_init      0x00018601   Gb    1  Code  Hi   0x16
    595  am_hal_cachectrl_config    0x00018617   Gb    1  Code  Hi   0x48
    596  am_hal_cachectrl_enable    0x0001865f   Gb    1  Code  Hi   0x18
    597  am_hal_daxi_config         0x00018679   Gb    1  Code  Hi   0x54
    598  am_hal_daxi_control        0x000186d1   Gb    1  Code  Hi   0x11c
    599  am_hal_dcu_get             0x000187fd   Gb    1  Code  Hi   0x84
    600  am_hal_dcu_update          0x0001888d   Gb    1  Code  Hi   0xd6
    601  am_hal_delay_us            0x00018971   Gb    1  Code  Hi   0x22
    602  am_hal_delay_us_status_change
                                    0x0001899d   Gb    1  Code  Hi   0x50
    603  am_hal_delay_us_status_check
                                    0x000189f5   Gb    1  Code  Hi   0x5c
    604  am_hal_fault_status_get    0x00018a59   Gb    1  Code  Hi   0x3e
    605  am_hal_gpio_pinconfig      0x00018a99   Gb    1  Code  Hi   0x4c
    606  am_hal_itm_enable          0x00018aed   Gb    1  Code  Hi   0x2c
    607  am_hal_itm_print           0x00018b35   Gb    1  Code  Hi   0x30
    608  am_hal_load_ui32           0x00018b65   Gb    1  Code  Hi   0x6
    609  am_hal_mram_ds_init        0x00018b71   Gb    1  Code  Hi   0xc
    610  am_hal_mram_info_read      0x00018b81   Gb    1  Code  Hi   0x8c
    611  am_hal_pwrctrl_control     0x00018c15   Gb    1  Code  Hi   0x428
    612  am_hal_pwrctrl_low_power_init
                                    0x0001903d   Gb    1  Code  Hi   0x11a
    613  am_hal_pwrctrl_mcu_memory_config
                                    0x00019179   Gb    1  Code  Hi   0x114
    614  am_hal_pwrctrl_mcu_mode_select
                                    0x00019295   Gb    1  Code  Hi   0x1a6
    615  am_hal_pwrctrl_periph_disable
                                    0x0001944d   Gb    1  Code  Hi   0x112
    616  am_hal_pwrctrl_sram_config 0x00019579   Gb    1  Code  Hi   0x9e
    617  am_hal_rtc_osc_disable     0x00019621   Gb    1  Code  Hi   0xe
    618  am_hal_sysctrl_sleep       0x00019635   Gb    1  Code  Hi   0x1a8
    619  am_hal_timer_clear         0x000197f9   Gb    1  Code  Hi   0x5a
    620  am_hal_timer_clear_stop    0x00019859   Gb    1  Code  Hi   0x52
    621  am_hal_timer_config        0x000198b1   Gb    1  Code  Hi   0xc
    622  am_hal_timer_default_config_set
                                    0x000198bd   Gb    1  Code  Hi   0x1c
    623  am_hal_timer_disable       0x000198d9   Gb    1  Code  Hi   0x3a
    624  am_hal_timer_enable        0x00019919   Gb    1  Code  Hi   0x4a
    625  am_hal_timer_interrupt_clear
                                    0x00019969   Gb    1  Code  Hi   0x8
    626  am_hal_timer_interrupt_enable
                                    0x00019975   Gb    1  Code  Hi   0x54
    627  am_hal_timer_interrupt_status_get
                                    0x000199d5   Gb    1  Code  Hi   0x12
    628  am_hal_timer_read          0x000199ed   Gb    1  Code  Hi   0x20
    629  am_hal_timer_reset_config  0x00019a11   Gb    1  Code  Hi   0xe2
    630  am_hal_tpiu_enable         0x00019afd   Gb    1  Code  Hi   0x52
    631  am_hal_util_write_and_wait 0x00019b69   Gb    1  Code  Hi   0x124
    632  am_util_faultisr_collect_data
                                    0x00019ca9   Gb    1  Code  Hi   0xba
    633  am_util_stdio_printf       0x00019d69   Gb    1  Code  Hi   0x32
    634  am_util_stdio_printf_init  0x00019da5   Gb    1  Code  Hi   0x6
    635  am_util_stdio_terminal_clear
                                    0x00019db1   Gb    1  Code  Hi   0xa
    636  am_util_stdio_vsprintf     0x00019dd1   Gb    1  Code  Hi   0x3a4
    637  am_valid_sp                0x0001a185   Gb    1  Code  Hi   0x16
    638  buck_ldo_update_override   0x0001a2fd   Gb    1  Code  Hi   0x1c
    639  internal_timer_config      0x0001a5cd   Gb    1  Code  Hi   0xdc
    640  main                       0x0001a6ad   Gb    1  Code  Hi   0x164
    641  prime_number               0x0001aa8d   Gb    1  Code  Hi   0x30
    642  timer_config_b1            0x0001aad5   Gb    1  Code  Hi   0x1a4
    643  timer_init                 0x0001ac81   Gb    1  Code  Hi   0x3a
    644  __aeabi_d2f                0x0001ade9   Gb    1  Code  Hi 
    645  _d2f                       0x0001ade9   Gb    1  Code  De   0x62
    646  __fpl_dnaninf              0x0001ae4b   Gb    1  Code  De   0x9c
    647  _fp_init                   0x0001aee7   Gb    1  Code  De   0xa
    648  __fplib_config_fpu_vfp     0x0001aeef   Gb    1  Code  De 
    649  __fplib_config_pureend_doubles
                                    0x0001aeef   Gb    1  Code  De 
    650  __fpl_fretinf              0x0001aef1   Gb    1  Code  De   0xa
    651  __I$use$fp                 0x0001aefa   Gb    1   --   De 
    652  ui32MCUAllowed             0x0001aefc   Gb    1  Data  Hi   0x14
    653  ui32DSP0Allowed            0x0001af10   Gb    1  Data  Hi   0x14
    654  ui32DSP1Allowed            0x0001af24   Gb    1  Data  Hi   0x14
    655  ui32SharedAccess           0x0001af38   Gb    1  Data  Hi   0x14
    656  sGlobalAccess              0x0001af4c   Gb    1  Data  Hi   0x1c
    657  am_hal_cachectrl_defaults  0x0001af68   Gb    1  Data  Hi   0x3
    658  am_hal_daxi_defaults       0x0001af6b   Gb    1  Data  Hi   0x3
    659  g_DefaultMcuMemCfg         0x0001af70   Gb    1  Data  Hi   0x6
    660  g_DefaultSRAMCfg           0x0001af76   Gb    1  Data  Hi   0x6
    661  am_hal_pwrctrl_peripheral_control
                                    0x0001af7c   Gb    1  Data  Hi   0x220
    662  g_am_hal_bootrom_helper    0x0001b19c   Gb    1  Data  Hi   0x28
    663  Region$$Table$$Base        0x0001b1d4   Gb    1   --   Hi 
    664  Region$$Table$$Limit       0x0001b204   Gb    1   --   Hi 
    665  g_pfnCharPrint             0x10000000   Gb    2  Data  Hi   0x4
    666  g_sDispCfg                 0x10000010   Gb    2  Data  Hi   0x12
    667  g_eCurrPwrMode             0x10000090   Gb    2  Data  Hi   0x1
    668  g_bVDDCbuckboosted         0x10000091   Gb    2  Data  Hi   0x1
    669  g_ui32TrimVer              0x10000094   Gb    2  Data  Hi   0x4
    670  g_ui32origSimobuckVDDFtrim 0x10000098   Gb    2  Data  Hi   0x4
    671  g_ui32origSimobuckVDDCtrim 0x1000009c   Gb    2  Data  Hi   0x4
    672  g_ui32origLDOVDDCtrim      0x100000a0   Gb    2  Data  Hi   0x4
    673  g_ui32origMEMLDOActiveTrim 0x100000a4   Gb    2  Data  Hi   0x4
    674  g_ui32origSimobuckVDDStrim 0x100000a8   Gb    2  Data  Hi   0x4
    675  storeAndWFIfuncRAM         0x100000ac   Gb    2  Data  Hi   0x4
    676  g_AM_BSP_GPIO_ITM_SWO      0x100000d0   Gb    2  Data  Hi   0x4
    677  program_mram_tmc_tcycrd    0x1000024c   Gb    2  Data  Hi   0x4
    678  recover_broken_mram_tmc_r_timer1
                                    0x10000250   Gb    2  Data  Hi   0x4
    679  gMspiXipState              0x10000254   Gb    2  Data  Hi   0x4
    680  gStartOff                  0x10000258   Gb    2  Data  Hi   0x4
    681  gpDcuEnable                0x1000025c   Gb    2  Data  Hi   0x4
    682  gpDcuLock                  0x10000260   Gb    2  Data  Hi   0x4
    683  gDcuEnable                 0x10000268   Gb    2  Data  Hi   0x8
    684  gDcuDisable                0x10000270   Gb    2  Data  Hi   0x8
    685  gFaultStack                0x10000278   Gb    3  Data  Hi   0x200
    686  g_trim_reg_origvals        0x10000878   Gb    3  Data  Hi   0x54
    687  __libspace_start           0x1000090c   Gb    3  Data  De   0x60
    688  __temporary_stack_top$libspace
                                    0x1000096c   Gb    3  Data  De 
    689  psGlobalAccessPtr          0x10060000   Gb    4  Data  Hi   0x4
    690  ui32MCUClaimed             0x10060004   Gb    4  Data  Hi   0x14
    691  ui32DSP0Claimed            0x10060018   Gb    4  Data  Hi   0x14
    692  ui32DSP1Claimed            0x1006002c   Gb    4  Data  Hi   0x14


** Section #13 '.strtab' (SHT_STRTAB)
    Size   : 11428 bytes

            #  Offset String
        ====================================

            1      1: $d
            2      4: $t
            3      7: $d.realdata
            4     19: ..\src\am_resources.c
            5     41: ../src/am_resources.c
            6     63: .constdata
            7     74: __tagsym$$used
            8     89: RESOURCE_TABLE
            9    104: SHARED_RW
           10    114: ..\src\hp_mode_192mhz.c
           11    138: ../src/hp_mode_192mhz.c
           12    162: i.main
           13    169: i.prime_number
           14    184: i.timer_init
           15    197: ..\..\..\..\..\..\utils\am_util_delay.c
           16    237: ../../../../../../utils/am_util_delay.c
           17    277: ..\..\..\..\..\..\utils\am_util_faultisr.c
           18    320: .emb_text
           19    330: $v0
           20    334: ../../../../../../utils/am_util_faultisr.c
           21    377: i.am_util_faultisr_collect_data
           22    409: i.am_valid_sp
           23    423: .bss
           24    428: ../../../../../../utils/am_util_stdio.c
           25    468: i.am_util_stdio_printf
           26    491: i.am_util_stdio_printf_init
           27    519: i.am_util_stdio_terminal_clear
           28    550: i.am_util_stdio_vsprintf
           29    575: i.decstr_to_int
           30    591: decstr_to_int
           31    605: i.divu64_10
           32    617: divu64_10
           33    627: i.ftoa
           34    634: ftoa
           35    639: i.ndigits_in_hex
           36    656: ndigits_in_hex
           37    671: i.ndigits_in_i64
           38    688: ndigits_in_i64
           39    703: i.ndigits_in_u64
           40    720: ndigits_in_u64
           41    735: i.padbuffer
           42    747: padbuffer
           43    757: i.simple_strlen
           44    773: simple_strlen
           45    787: i.uint64_to_hexstr
           46    806: uint64_to_hexstr
           47    823: i.uint64_to_str
           48    839: uint64_to_str
           49    853: g_prfbuf
           50    862: .data
           51    868: g_bTxtXlate
           52    880: ../keil/startup_keil.s
           53    903: STACK
           54    909: StackMem
           55    918: HEAP
           56    923: HeapMem
           57    931: RESET
           58    937: am_cryptosec_isr
           59    954: am_default_isr
           60    969: .text
           61    975: ..\am_bsp.c
           62    987: ../am_bsp.c
           63    999: i.am_bsp_itm_printf_enable
           64   1026: i.am_bsp_low_power_init
           65   1050: g_ePrintInterface
           66   1068: g_sCOMUART
           67   1079: ..\..\..\..\..\mcu\apollo4b\hal\mcu\am_hal_cachectrl.c
           68   1134: ../../../../../mcu/apollo4b/hal/mcu/am_hal_cachectrl.c
           69   1189: i.am_hal_cachectrl_config
           70   1215: i.am_hal_cachectrl_enable
           71   1241: i.am_hal_daxi_config
           72   1262: i.am_hal_daxi_control
           73   1284: p64BAxiMem
           74   1295: ui32AxiBufPwrStatMask
           75   1317: ui32AxiBufPwrStatReg
           76   1338: gAxiMemRange
           77   1351: ..\..\..\..\..\mcu\apollo4b\hal\mcu\am_hal_fault.c
           78   1402: ../../../../../mcu/apollo4b/hal/mcu/am_hal_fault.c
           79   1453: i.am_hal_fault_status_get
           80   1479: ..\..\..\..\..\mcu\apollo4b\hal\mcu\am_hal_sysctrl.c
           81   1532: ../../../../../mcu/apollo4b/hal/mcu/am_hal_sysctrl.c
           82   1585: i.am_hal_sysctrl_sleep
           83   1608: ..\..\..\..\..\mcu\apollo4b\hal\mcu\am_hal_utils.c
           84   1659: ../../../../../mcu/apollo4b/hal/mcu/am_hal_utils.c
           85   1710: i.am_hal_delay_us
           86   1728: i.am_hal_delay_us_status_change
           87   1760: i.am_hal_delay_us_status_check
           88   1791: i.am_hal_load_ui32
           89   1810: ..\..\..\..\..\mcu\apollo4b\hal\am_hal_pwrctrl.c
           90   1859: ../../../../../mcu/apollo4b/hal/am_hal_pwrctrl.c
           91   1908: i.VDDF_simobuck_boost
           92   1930: VDDF_simobuck_boost
           93   1950: i.am_hal_pwrctrl_control
           94   1975: i.am_hal_pwrctrl_low_power_init
           95   2007: i.am_hal_pwrctrl_mcu_memory_config
           96   2042: i.am_hal_pwrctrl_mcu_mode_select
           97   2075: i.am_hal_pwrctrl_periph_disable
           98   2107: i.am_hal_pwrctrl_sram_config
           99   2136: i.am_hal_util_write_and_wait
          100   2165: i.buck_interval_check
          101   2187: buck_interval_check
          102   2207: i.buck_ldo_update_override
          103   2234: storeAndWFIRAM
          104   2249: ..\..\..\..\..\mcu\apollo4b\hal\am_hal_timer.c
          105   2296: ../../../../../mcu/apollo4b/hal/am_hal_timer.c
          106   2343: i.am_hal_timer_clear
          107   2364: i.am_hal_timer_clear_stop
          108   2390: i.am_hal_timer_config
          109   2412: i.am_hal_timer_default_config_set
          110   2446: i.am_hal_timer_disable
          111   2469: i.am_hal_timer_enable
          112   2491: i.am_hal_timer_interrupt_clear
          113   2522: i.am_hal_timer_interrupt_enable
          114   2554: i.am_hal_timer_interrupt_status_get
          115   2590: i.am_hal_timer_read
          116   2610: i.am_hal_timer_reset_config
          117   2638: i.internal_timer_config
          118   2662: i.timer_config_b1
          119   2680: TimerFlags
          120   2691: ..\am_bsp_pins.c
          121   2708: ../am_bsp_pins.c
          122   2725: ..\..\..\..\..\mcu\apollo4b\hal\mcu\am_hal_bootrom_helper.c
          123   2785: ../../../../../mcu/apollo4b/hal/mcu/am_hal_bootrom_helper.c
          124   2845: ..\..\..\..\..\mcu\apollo4b\hal\mcu\am_hal_interrupt.c
          125   2900: ../../../../../mcu/apollo4b/hal/mcu/am_hal_interrupt.c
          126   2955: ..\..\..\..\..\mcu\apollo4b\hal\mcu\am_hal_itm.c
          127   3004: ../../../../../mcu/apollo4b/hal/mcu/am_hal_itm.c
          128   3053: i.am_hal_itm_enable
          129   3073: i.am_hal_itm_print
          130   3092: ..\..\..\..\..\mcu\apollo4b\hal\mcu\am_hal_mram.c
          131   3142: ../../../../../mcu/apollo4b/hal/mcu/am_hal_mram.c
          132   3192: i.am_hal_mram_ds_init
          133   3214: i.am_hal_mram_info_read
          134   3238: g_program_mram_tmc_tcycrd
          135   3264: g_recover_broken_mram_tmc_r_timer1
          136   3299: ..\..\..\..\..\mcu\apollo4b\hal\mcu\am_hal_mspi.c
          137   3349: ../../../../../mcu/apollo4b/hal/mcu/am_hal_mspi.c
          138   3399: ..\..\..\..\..\mcu\apollo4b\hal\mcu\am_hal_rtc.c
          139   3448: ../../../../../mcu/apollo4b/hal/mcu/am_hal_rtc.c
          140   3497: i.am_hal_rtc_osc_disable
          141   3522: ..\..\..\..\..\mcu\apollo4b\hal\mcu\am_hal_tpiu.c
          142   3572: ../../../../../mcu/apollo4b/hal/mcu/am_hal_tpiu.c
          143   3622: i.am_hal_tpiu_enable
          144   3643: ..\..\..\..\..\mcu\apollo4b\hal\mcu\am_hal_uart.c
          145   3693: ../../../../../mcu/apollo4b/hal/mcu/am_hal_uart.c
          146   3743: ..\..\..\..\..\mcu\apollo4b\hal\am_hal_dcu.c
          147   3788: ../../../../../mcu/apollo4b/hal/am_hal_dcu.c
          148   3833: i.am_hal_dcu_get
          149   3850: i.am_hal_dcu_update
          150   3870: i.copy_words
          151   3883: copy_words
          152   3894: ..\..\..\..\..\mcu\apollo4b\hal\am_hal_global.c
          153   3942: ../../../../../mcu/apollo4b/hal/am_hal_global.c
          154   3990: ..\..\..\..\..\mcu\apollo4b\hal\am_hal_gpio.c
          155   4036: ../../../../../mcu/apollo4b/hal/am_hal_gpio.c
          156   4082: i.am_hal_gpio_pinconfig
          157   4106: g_ui32DSpintbl
          158   4121: ..\..\..\..\..\mcu\apollo4b\hal\mcu\am_hal_cmdq.c
          159   4171: ../../../../../mcu/apollo4b/hal/mcu/am_hal_cmdq.c
          160   4221: ..\..\..\..\..\mcu\apollo4b\hal\am_hal_pin.c
          161   4266: ../../../../../mcu/apollo4b/hal/am_hal_pin.c
          162   4311: ..\..\..\..\..\mcu\apollo4b\hal\am_hal_queue.c
          163   4358: ../../../../../mcu/apollo4b/hal/am_hal_queue.c
          164   4405: dc.s
          165   4410: ../clib/longlong.s
          166   4429: ../clib/memcpset.s
          167   4448: ../clib/heapaux.c
          168   4466: ../clib/angel/startup.s
          169   4490: !!!main
          170   4498: ../clib/angel/handlers.s
          171   4523: !!handler_copy
          172   4538: ../fplib/d2f.s
          173   4553: x$fpl$d2f
          174   4563: ../clib/angel/kernel.s
          175   4586: .ARM.Collect$$rtentry$$00000000
          176   4618: ../fplib/dnaninf.s
          177   4637: x$fpl$dnaninf
          178   4651: ../fplib/fretinf.s
          179   4670: x$fpl$fretinf
          180   4684: ../fplib/usenofp.s
          181   4703: x$fpl$usenofp
          182   4717: .ARM.Collect$$rtentry$$00000002
          183   4749: .ARM.Collect$$rtentry$$00000009
          184   4781: .ARM.Collect$$rtentry$$0000000A
          185   4813: .ARM.Collect$$rtentry$$0000000C
          186   4845: .ARM.Collect$$rtentry$$0000000D
          187   4877: .ARM.Collect$$rtentry$$00000004
          188   4909: ../clib/angel/sys.s
          189   4929: ../clib/stdlib.c
          190   4946: ../clib/angel/boardlib.s
          191   4971: ../clib/libinit.s
          192   4989: .ARM.Collect$$libinit$$00000000
          193   5021: .ARM.Collect$$rtexit$$00000000
          194   5052: .ARM.Collect$$libinit$$00000001
          195   5084: .ARM.Collect$$libinit$$00000004
          196   5116: .ARM.Collect$$libinit$$0000000A
          197   5148: .ARM.Collect$$libinit$$0000000C
          198   5180: .ARM.Collect$$libinit$$0000000E
          199   5212: .ARM.Collect$$libinit$$00000011
          200   5244: .ARM.Collect$$libinit$$00000013
          201   5276: .ARM.Collect$$libinit$$00000015
          202   5308: .ARM.Collect$$libinit$$00000017
          203   5340: .ARM.Collect$$libinit$$00000019
          204   5372: .ARM.Collect$$libinit$$0000001B
          205   5404: .ARM.Collect$$libinit$$0000001D
          206   5436: .ARM.Collect$$libinit$$0000001F
          207   5468: .ARM.Collect$$libinit$$00000021
          208   5500: .ARM.Collect$$libinit$$00000023
          209   5532: .ARM.Collect$$libinit$$00000025
          210   5564: .ARM.Collect$$libinit$$0000002C
          211   5596: .ARM.Collect$$libinit$$0000002E
          212   5628: .ARM.Collect$$libinit$$00000030
          213   5660: .ARM.Collect$$libinit$$00000032
          214   5692: .ARM.Collect$$libinit$$00000033
          215   5724: .ARM.Collect$$rtexit$$00000002
          216   5755: .ARM.Collect$$rtexit$$00000003
          217   5786: .ARM.Collect$$rtexit$$00000004
          218   5817: ../clib/armsys.c
          219   5834: ../fplib/fpinit.s
          220   5852: x$fpl$fpinit
          221   5865: ../clib/angel/sysapp.c
          222   5888: .ARM.Collect$$libshutdown$$00000000
          223   5924: ../clib/heapalloc.c
          224   5944: ../clib/signal.c
          225   5961: .ARM.Collect$$libshutdown$$00000002
          226   5997: .ARM.Collect$$libshutdown$$00000004
          227   6033: .ARM.Collect$$libshutdown$$00000007
          228   6069: .ARM.Collect$$libshutdown$$0000000A
          229   6105: .ARM.Collect$$libshutdown$$0000000C
          230   6141: .ARM.Collect$$libshutdown$$0000000F
          231   6177: .ARM.Collect$$libshutdown$$00000010
          232   6213: ../clib/angel/rt.s
          233   6232: ../clib/signal.s
          234   6249: ../clib/angel/dczerorl2.s
          235   6275: !!dczerorl2
          236   6287: ../clib/angel/scatter.s
          237   6311: !!!scatter
          238   6322: !!handler_zi
          239   6335: BuildAttributes$$THM_ISAv4$E$P$D$K$B$S$7EM$VFPi3$EXTD16$VFPS$VFMA$PE$A:L22UL41UL21$X:L11$S22US41US21$IEEE1$IW$USESV6$~STKCKD$USESV7$~SHL$OTIME$ROPI$EBA8$UX$STANDARDLIB$REQ8$PRES8$EABIv2
          240   6521: __ARM_use_no_argv
          241   6539: __Vectors
          242   6549: __Patchable
          243   6561: Reset_Handler
          244   6575: NMI_Handler
          245   6587: MemManage_Handler
          246   6605: BusFault_Handler
          247   6622: UsageFault_Handler
          248   6641: SVC_Handler
          249   6653: DebugMon_Handler
          250   6670: PendSV_Handler
          251   6685: SysTick_Handler
          252   6701: am_adc_isr
          253   6712: am_audadc0_isr
          254   6727: am_brownout_isr
          255   6743: am_cachecpu_isr
          256   6759: am_clkgen_isr
          257   6773: am_ctimer_isr
          258   6787: am_disp_isr
          259   6799: am_dsi_isr
          260   6810: am_dspi2s0_isr
          261   6825: am_dspi2s1_isr
          262   6840: am_dspi2s2_isr
          263   6855: am_dspi2s3_isr
          264   6870: am_gpio0_001f_isr
          265   6888: am_gpio0_203f_isr
          266   6906: am_gpio0_405f_isr
          267   6924: am_gpio0_607f_isr
          268   6942: am_gpio1_001f_isr
          269   6960: am_gpio1_203f_isr
          270   6978: am_gpio1_405f_isr
          271   6996: am_gpio1_607f_isr
          272   7014: am_gpu_isr
          273   7025: am_iomaster0_isr
          274   7042: am_iomaster1_isr
          275   7059: am_iomaster2_isr
          276   7076: am_iomaster3_isr
          277   7093: am_iomaster4_isr
          278   7110: am_iomaster5_isr
          279   7127: am_iomaster6_isr
          280   7144: am_iomaster7_isr
          281   7161: am_ioslave_acc_isr
          282   7180: am_ioslave_ios_isr
          283   7199: am_mspi0_isr
          284   7212: am_mspi1_isr
          285   7225: am_mspi2_isr
          286   7238: am_pdm0_isr
          287   7250: am_pdm1_isr
          288   7262: am_pdm2_isr
          289   7274: am_pdm3_isr
          290   7286: am_rtc_isr
          291   7297: am_sdio_isr
          292   7309: am_stimer_cmpr0_isr
          293   7329: am_stimer_cmpr1_isr
          294   7349: am_stimer_cmpr2_isr
          295   7369: am_stimer_cmpr3_isr
          296   7389: am_stimer_cmpr4_isr
          297   7409: am_stimer_cmpr5_isr
          298   7429: am_stimer_cmpr6_isr
          299   7449: am_stimer_cmpr7_isr
          300   7469: am_stimerof_isr
          301   7485: am_timer00_isr
          302   7500: am_timer01_isr
          303   7515: am_timer02_isr
          304   7530: am_timer03_isr
          305   7545: am_timer04_isr
          306   7560: am_timer05_isr
          307   7575: am_timer06_isr
          308   7590: am_timer07_isr
          309   7605: am_timer08_isr
          310   7620: am_timer09_isr
          311   7635: am_timer10_isr
          312   7650: am_timer11_isr
          313   7665: am_timer12_isr
          314   7680: am_timer13_isr
          315   7695: am_timer14_isr
          316   7710: am_timer15_isr
          317   7725: am_uart1_isr
          318   7738: am_uart2_isr
          319   7751: am_uart3_isr
          320   7764: am_uart_isr
          321   7776: am_usb_isr
          322   7787: am_vcomp_isr
          323   7800: am_watchdog_isr
          324   7816: __main
          325   7823: __scatterload
          326   7837: __scatterload_rt2
          327   7855: __scatterload_rt2_thumb_only
          328   7884: __scatterload_null
          329   7903: __decompress
          330   7916: __decompress1
          331   7930: __scatterload_copy
          332   7949: __scatterload_zeroinit
          333   7972: __rt_lib_init
          334   7986: __rt_lib_init_fp_1
          335   8005: __rt_lib_init_alloca_1
          336   8028: __rt_lib_init_argv_1
          337   8049: __rt_lib_init_atexit_1
          338   8072: __rt_lib_init_clock_1
          339   8094: __rt_lib_init_cpp_1
          340   8114: __rt_lib_init_exceptions_1
          341   8141: __rt_lib_init_fp_trap_1
          342   8165: __rt_lib_init_getenv_1
          343   8188: __rt_lib_init_heap_1
          344   8209: __rt_lib_init_lc_collate_1
          345   8236: __rt_lib_init_lc_ctype_1
          346   8261: __rt_lib_init_lc_monetary_1
          347   8289: __rt_lib_init_lc_numeric_1
          348   8316: __rt_lib_init_lc_time_1
          349   8340: __rt_lib_init_preinit_1
          350   8364: __rt_lib_init_rand_1
          351   8385: __rt_lib_init_return
          352   8406: __rt_lib_init_signal_1
          353   8429: __rt_lib_init_stdio_1
          354   8451: __rt_lib_init_user_alloc_1
          355   8478: __rt_lib_shutdown
          356   8496: __rt_lib_shutdown_cpp_1
          357   8520: __rt_lib_shutdown_fp_trap_1
          358   8548: __rt_lib_shutdown_heap_1
          359   8573: __rt_lib_shutdown_return
          360   8598: __rt_lib_shutdown_signal_1
          361   8625: __rt_lib_shutdown_stdio_1
          362   8651: __rt_lib_shutdown_user_alloc_1
          363   8682: __rt_entry
          364   8693: __rt_entry_presh_1
          365   8712: __rt_entry_sh
          366   8726: __rt_entry_li
          367   8740: __rt_entry_postsh_1
          368   8760: __rt_entry_main
          369   8776: __rt_entry_postli_1
          370   8796: __rt_exit
          371   8806: __rt_exit_ls
          372   8819: __rt_exit_prels_1
          373   8837: __rt_exit_exit
          374   8852: HardFault_Handler
          375   8870: getStackedReg
          376   8884: am_hal_interrupt_master_enable
          377   8915: am_hal_interrupt_master_disable
          378   8947: am_hal_interrupt_master_set
          379   8975: am_hal_triple_read
          380   8994: __user_initial_stackheap
          381   9019: __aeabi_llsl
          382   9032: _ll_shift_l
          383   9044: __aeabi_llsr
          384   9057: _ll_ushift_r
          385   9070: __aeabi_memclr4
          386   9086: __aeabi_memclr8
          387   9102: __rt_memclr_w
          388   9116: _memset_w
          389   9126: __use_two_region_memory
          390   9150: __rt_heap_escrow$2region
          391   9175: __rt_heap_expand$2region
          392   9200: __user_setup_stackheap
          393   9223: exit
          394   9228: __user_libspace
          395   9244: __user_perproc_libspace
          396   9268: __user_perthread_libspace
          397   9294: _sys_exit
          398   9304: __I$use$semihosting
          399   9324: __use_no_semihosting_swi
          400   9349: __semihosting_library_function
          401   9380: am_bsp_itm_printf_enable
          402   9405: am_bsp_low_power_init
          403   9427: am_hal_cachectrl_config
          404   9451: am_hal_cachectrl_enable
          405   9475: am_hal_daxi_config
          406   9494: am_hal_daxi_control
          407   9514: am_hal_dcu_get
          408   9529: am_hal_dcu_update
          409   9547: am_hal_delay_us
          410   9563: am_hal_delay_us_status_change
          411   9593: am_hal_delay_us_status_check
          412   9622: am_hal_fault_status_get
          413   9646: am_hal_gpio_pinconfig
          414   9668: am_hal_itm_enable
          415   9686: am_hal_itm_print
          416   9703: am_hal_load_ui32
          417   9720: am_hal_mram_ds_init
          418   9740: am_hal_mram_info_read
          419   9762: am_hal_pwrctrl_control
          420   9785: am_hal_pwrctrl_low_power_init
          421   9815: am_hal_pwrctrl_mcu_memory_config
          422   9848: am_hal_pwrctrl_mcu_mode_select
          423   9879: am_hal_pwrctrl_periph_disable
          424   9909: am_hal_pwrctrl_sram_config
          425   9936: am_hal_rtc_osc_disable
          426   9959: am_hal_sysctrl_sleep
          427   9980: am_hal_timer_clear
          428   9999: am_hal_timer_clear_stop
          429  10023: am_hal_timer_config
          430  10043: am_hal_timer_default_config_set
          431  10075: am_hal_timer_disable
          432  10096: am_hal_timer_enable
          433  10116: am_hal_timer_interrupt_clear
          434  10145: am_hal_timer_interrupt_enable
          435  10175: am_hal_timer_interrupt_status_get
          436  10209: am_hal_timer_read
          437  10227: am_hal_timer_reset_config
          438  10253: am_hal_tpiu_enable
          439  10272: am_hal_util_write_and_wait
          440  10299: am_util_faultisr_collect_data
          441  10329: am_util_stdio_printf
          442  10350: am_util_stdio_printf_init
          443  10376: am_util_stdio_terminal_clear
          444  10405: am_util_stdio_vsprintf
          445  10428: am_valid_sp
          446  10440: buck_ldo_update_override
          447  10465: internal_timer_config
          448  10487: main
          449  10492: prime_number
          450  10505: timer_config_b1
          451  10521: timer_init
          452  10532: __aeabi_d2f
          453  10544: _d2f
          454  10549: __fpl_dnaninf
          455  10563: _fp_init
          456  10572: __fplib_config_fpu_vfp
          457  10595: __fplib_config_pureend_doubles
          458  10626: __fpl_fretinf
          459  10640: __I$use$fp
          460  10651: ui32MCUAllowed
          461  10666: ui32DSP0Allowed
          462  10682: ui32DSP1Allowed
          463  10698: ui32SharedAccess
          464  10715: sGlobalAccess
          465  10729: am_hal_cachectrl_defaults
          466  10755: am_hal_daxi_defaults
          467  10776: g_DefaultMcuMemCfg
          468  10795: g_DefaultSRAMCfg
          469  10812: am_hal_pwrctrl_peripheral_control
          470  10846: g_am_hal_bootrom_helper
          471  10870: Region$$Table$$Base
          472  10890: Region$$Table$$Limit
          473  10911: g_pfnCharPrint
          474  10926: g_sDispCfg
          475  10937: g_eCurrPwrMode
          476  10952: g_bVDDCbuckboosted
          477  10971: g_ui32TrimVer
          478  10985: g_ui32origSimobuckVDDFtrim
          479  11012: g_ui32origSimobuckVDDCtrim
          480  11039: g_ui32origLDOVDDCtrim
          481  11061: g_ui32origMEMLDOActiveTrim
          482  11088: g_ui32origSimobuckVDDStrim
          483  11115: storeAndWFIfuncRAM
          484  11134: g_AM_BSP_GPIO_ITM_SWO
          485  11156: program_mram_tmc_tcycrd
          486  11180: recover_broken_mram_tmc_r_timer1
          487  11213: gMspiXipState
          488  11227: gStartOff
          489  11237: gpDcuEnable
          490  11249: gpDcuLock
          491  11259: gDcuEnable
          492  11270: gDcuDisable
          493  11282: gFaultStack
          494  11294: g_trim_reg_origvals
          495  11314: __libspace_start
          496  11331: __temporary_stack_top$libspace
          497  11362: psGlobalAccessPtr
          498  11380: ui32MCUClaimed
          499  11395: ui32DSP0Claimed
          500  11411: ui32DSP1Claimed
          501  11427: 


** Section #14 '.note' (SHT_NOTE)
    Size   : 32 bytes (alignment 4)


** Section #15 '.comment' (SHT_PROGBITS)
    Size   : 34820 bytes


** Section #16 '.shstrtab' (SHT_STRTAB)
    Size   : 164 bytes

            #  Offset String
        ====================================

            1      1: MCU_MRAM
            2     10: MCU_TCM
            3     18: SHARED_SRAM
            4     30: .debug_abbrev
            5     44: .debug_frame
            6     57: .debug_info
            7     69: .debug_line
            8     81: .debug_loc
            9     92: .debug_macinfo
           10    107: .debug_pubnames
           11    123: .symtab
           12    131: .strtab
           13    139: .note
           14    145: .comment
           15    154: .shstrtab


