
========================================================================

** ELF Header Information

    File Name: bin\prime.axf

    Machine class: ELFCLASS32 (32-bit)
    Data encoding: ELFDATA2LSB (Little endian)
    Header version: EV_CURRENT (Current version)
    Operating System ABI: none
    ABI Version: 0
    File Type: ET_EXEC (Executable) (2)
    Machine: EM_ARM (ARM)

    Image Entry point: 0x00018235
    Flags: EF_ARM_HASENTRY + EF_ARM_ABI_FLOAT_HARD (0x05000402)

    ARM ELF revision: 5 (ABI version 2)

    Conforms to Hard float procedure-call standard

    Built with
    Component: ARM Compiler 5.06 update 6 (build 750) Tool: armasm [4d35ec]
    Component: ARM Compiler 5.06 update 6 (build 750) Tool: armlink [4d35ed]

    Header size: 52 bytes (0x34)
    Program header entry size: 32 bytes (0x20)
    Section header entry size: 40 bytes (0x28)

    Program header entries: 1
    Section header entries: 17

    Program header offset: 98068 (0x00017f14)
    Section header offset: 98100 (0x00017f34)

    Section header string table index: 16

========================================================================

** Program header #0 (PT_LOAD) [PF_X + PF_W + PF_R + PF_ARM_ENTRY]
    Size : 13796 bytes (11684 bytes in file)
    Virtual address: 0x00018000 (Alignment 8)


========================================================================

** Section #1 'MCU_MRAM' (SHT_PROGBITS) [SHF_ALLOC + SHF_EXECINSTR]
    Size   : 11524 bytes (alignment 4)
    Address: 0x00018000

    $d
    RESET
    __Vectors
        0x00018000:    100008a0    ....    DCD    268437664
        0x00018004:    00018201    ....    DCD    98817
        0x00018008:    0001821f    ....    DCD    98847
        0x0001800c:    000182d5    ....    DCD    99029
        0x00018010:    00018221    !...    DCD    98849
        0x00018014:    00018223    #...    DCD    98851
        0x00018018:    00018225    %...    DCD    98853
        0x0001801c:    00000000    ....    DCD    0
        0x00018020:    00000000    ....    DCD    0
        0x00018024:    00000000    ....    DCD    0
        0x00018028:    00000000    ....    DCD    0
        0x0001802c:    00018227    '...    DCD    98855
        0x00018030:    00018229    )...    DCD    98857
        0x00018034:    00000000    ....    DCD    0
        0x00018038:    0001822b    +...    DCD    98859
        0x0001803c:    0001822d    -...    DCD    98861
        0x00018040:    0001822f    /...    DCD    98863
        0x00018044:    0001822f    /...    DCD    98863
        0x00018048:    0001822f    /...    DCD    98863
        0x0001804c:    0001822f    /...    DCD    98863
        0x00018050:    0001822f    /...    DCD    98863
        0x00018054:    0001822f    /...    DCD    98863
        0x00018058:    0001822f    /...    DCD    98863
        0x0001805c:    0001822f    /...    DCD    98863
        0x00018060:    0001822f    /...    DCD    98863
        0x00018064:    0001822f    /...    DCD    98863
        0x00018068:    0001822f    /...    DCD    98863
        0x0001806c:    0001822f    /...    DCD    98863
        0x00018070:    0001822f    /...    DCD    98863
        0x00018074:    0001822f    /...    DCD    98863
        0x00018078:    0001822f    /...    DCD    98863
        0x0001807c:    0001822f    /...    DCD    98863
        0x00018080:    0001822f    /...    DCD    98863
        0x00018084:    0001822f    /...    DCD    98863
        0x00018088:    0001822f    /...    DCD    98863
        0x0001808c:    0001822f    /...    DCD    98863
        0x00018090:    0001822f    /...    DCD    98863
        0x00018094:    0001822f    /...    DCD    98863
        0x00018098:    0001822f    /...    DCD    98863
        0x0001809c:    0001822f    /...    DCD    98863
        0x000180a0:    0001822f    /...    DCD    98863
        0x000180a4:    0001822f    /...    DCD    98863
        0x000180a8:    0001822f    /...    DCD    98863
        0x000180ac:    0001822f    /...    DCD    98863
        0x000180b0:    0001822f    /...    DCD    98863
        0x000180b4:    0001822f    /...    DCD    98863
        0x000180b8:    0001822f    /...    DCD    98863
        0x000180bc:    0001822f    /...    DCD    98863
        0x000180c0:    0001822f    /...    DCD    98863
        0x000180c4:    0001822f    /...    DCD    98863
        0x000180c8:    0001822f    /...    DCD    98863
        0x000180cc:    0001822f    /...    DCD    98863
        0x000180d0:    0001822f    /...    DCD    98863
        0x000180d4:    0001822f    /...    DCD    98863
        0x000180d8:    0001822f    /...    DCD    98863
        0x000180dc:    0001822f    /...    DCD    98863
        0x000180e0:    0001822f    /...    DCD    98863
        0x000180e4:    0001822f    /...    DCD    98863
        0x000180e8:    0001822f    /...    DCD    98863
        0x000180ec:    0001822f    /...    DCD    98863
        0x000180f0:    0001822f    /...    DCD    98863
        0x000180f4:    0001822f    /...    DCD    98863
        0x000180f8:    0001822f    /...    DCD    98863
        0x000180fc:    0001822f    /...    DCD    98863
        0x00018100:    0001822f    /...    DCD    98863
        0x00018104:    0001822f    /...    DCD    98863
        0x00018108:    0001822f    /...    DCD    98863
        0x0001810c:    0001822f    /...    DCD    98863
        0x00018110:    0001822f    /...    DCD    98863
        0x00018114:    0001822f    /...    DCD    98863
        0x00018118:    0001822f    /...    DCD    98863
        0x0001811c:    0001822f    /...    DCD    98863
        0x00018120:    0001822f    /...    DCD    98863
        0x00018124:    0001822f    /...    DCD    98863
        0x00018128:    0001822f    /...    DCD    98863
        0x0001812c:    0001822f    /...    DCD    98863
        0x00018130:    0001822f    /...    DCD    98863
        0x00018134:    0001822f    /...    DCD    98863
        0x00018138:    0001822f    /...    DCD    98863
        0x0001813c:    0001822f    /...    DCD    98863
        0x00018140:    0001822f    /...    DCD    98863
        0x00018144:    0001822f    /...    DCD    98863
        0x00018148:    0001822f    /...    DCD    98863
        0x0001814c:    0001822f    /...    DCD    98863
        0x00018150:    0001822f    /...    DCD    98863
        0x00018154:    0001822f    /...    DCD    98863
        0x00018158:    0001822f    /...    DCD    98863
        0x0001815c:    0001822f    /...    DCD    98863
        0x00018160:    0001822f    /...    DCD    98863
        0x00018164:    0001822f    /...    DCD    98863
        0x00018168:    0001822f    /...    DCD    98863
        0x0001816c:    0001822f    /...    DCD    98863
        0x00018170:    0001822f    /...    DCD    98863
        0x00018174:    0001822f    /...    DCD    98863
        0x00018178:    0001822f    /...    DCD    98863
        0x0001817c:    0001822f    /...    DCD    98863
        0x00018180:    0001822f    /...    DCD    98863
        0x00018184:    0001822f    /...    DCD    98863
        0x00018188:    0001822f    /...    DCD    98863
        0x0001818c:    0001822f    /...    DCD    98863
    __Patchable
        0x00018190:    00000000    ....    DCD    0
        0x00018194:    00000000    ....    DCD    0
        0x00018198:    00000000    ....    DCD    0
        0x0001819c:    00000000    ....    DCD    0
        0x000181a0:    00000000    ....    DCD    0
        0x000181a4:    00000000    ....    DCD    0
        0x000181a8:    00000000    ....    DCD    0
        0x000181ac:    00000000    ....    DCD    0
        0x000181b0:    00000000    ....    DCD    0
        0x000181b4:    00000000    ....    DCD    0
        0x000181b8:    00000000    ....    DCD    0
        0x000181bc:    00000000    ....    DCD    0
        0x000181c0:    00000000    ....    DCD    0
        0x000181c4:    00000000    ....    DCD    0
        0x000181c8:    00000000    ....    DCD    0
        0x000181cc:    00000000    ....    DCD    0
        0x000181d0:    00000000    ....    DCD    0
        0x000181d4:    00000000    ....    DCD    0
        0x000181d8:    00000000    ....    DCD    0
        0x000181dc:    00000000    ....    DCD    0
        0x000181e0:    00000000    ....    DCD    0
        0x000181e4:    00000000    ....    DCD    0
        0x000181e8:    00000000    ....    DCD    0
        0x000181ec:    00000000    ....    DCD    0
        0x000181f0:    00000000    ....    DCD    0
        0x000181f4:    00000000    ....    DCD    0
        0x000181f8:    00000000    ....    DCD    0
        0x000181fc:    00000000    ....    DCD    0
    $t
    $v0
    Reset_Handler
        0x00018200:    f64e5088    N..P    MOV      r0,#0xed88
        0x00018204:    f2ce0000    ....    MOVT     r0,#0xe000
        0x00018208:    6801        .h      LDR      r1,[r0,#0]
        0x0001820a:    f4410170    A.p.    ORR      r1,r1,#0xf00000
        0x0001820e:    6001        .`      STR      r1,[r0,#0]
        0x00018210:    f3bf8f4f    ..O.    DSB      
        0x00018214:    f3bf8f6f    ..o.    ISB      
        0x00018218:    4805        .H      LDR      r0,[pc,#20] ; [0x18230] = 0x18235
        0x0001821a:    4700        .G      BX       r0
        0x0001821c:    e7fe        ..      B        0x1821c ; Reset_Handler + 28
    NMI_Handler
        0x0001821e:    e7fe        ..      B        NMI_Handler ; 0x1821e
    MemManage_Handler
        0x00018220:    e7fe        ..      B        MemManage_Handler ; 0x18220
    BusFault_Handler
        0x00018222:    e7fe        ..      B        BusFault_Handler ; 0x18222
    UsageFault_Handler
        0x00018224:    e7fe        ..      B        UsageFault_Handler ; 0x18224
    SVC_Handler
        0x00018226:    e7fe        ..      B        SVC_Handler ; 0x18226
    DebugMon_Handler
        0x00018228:    e7fe        ..      B        DebugMon_Handler ; 0x18228
    PendSV_Handler
        0x0001822a:    e7fe        ..      B        PendSV_Handler ; 0x1822a
    SysTick_Handler
        0x0001822c:    e7fe        ..      B        SysTick_Handler ; 0x1822c
    am_cryptosec_isr
    am_default_isr
    am_adc_isr
    am_audadc0_isr
    am_brownout_isr
    am_cachecpu_isr
    am_clkgen_isr
    am_ctimer_isr
    am_disp_isr
    am_dsi_isr
    am_dspi2s0_isr
    am_dspi2s1_isr
    am_dspi2s2_isr
    am_dspi2s3_isr
    am_gpio0_001f_isr
    am_gpio0_203f_isr
    am_gpio0_405f_isr
    am_gpio0_607f_isr
    am_gpio1_001f_isr
    am_gpio1_203f_isr
    am_gpio1_405f_isr
    am_gpio1_607f_isr
    am_gpu_isr
    am_iomaster0_isr
    am_iomaster1_isr
    am_iomaster2_isr
    am_iomaster3_isr
    am_iomaster4_isr
    am_iomaster5_isr
    am_iomaster6_isr
    am_iomaster7_isr
    am_ioslave_acc_isr
    am_ioslave_ios_isr
    am_mspi0_isr
    am_mspi1_isr
    am_mspi2_isr
    am_pdm0_isr
    am_pdm1_isr
    am_pdm2_isr
    am_pdm3_isr
    am_rtc_isr
    am_sdio_isr
    am_stimer_cmpr0_isr
    am_stimer_cmpr1_isr
    am_stimer_cmpr2_isr
    am_stimer_cmpr3_isr
    am_stimer_cmpr4_isr
    am_stimer_cmpr5_isr
    am_stimer_cmpr6_isr
    am_stimer_cmpr7_isr
    am_stimerof_isr
    am_timer00_isr
    am_timer01_isr
    am_timer02_isr
    am_timer03_isr
    am_timer04_isr
    am_timer05_isr
    am_timer06_isr
    am_timer07_isr
    am_timer08_isr
    am_timer09_isr
    am_timer10_isr
    am_timer11_isr
    am_timer12_isr
    am_timer13_isr
    am_timer14_isr
    am_timer15_isr
    am_uart1_isr
    am_uart2_isr
    am_uart3_isr
    am_uart_isr
    am_usb_isr
    am_vcomp_isr
    am_watchdog_isr
        0x0001822e:    e7fe        ..      B        am_cryptosec_isr ; 0x1822e
    $d
        0x00018230:    00018235    5...    DCD    98869
    $t
    !!!main
    __main
        0x00018234:    f000f802    ....    BL       __scatterload ; 0x1823c
        0x00018238:    f000f83c    ..<.    BL       __rt_entry ; 0x182b4
    !!!scatter
    __scatterload
    __scatterload_rt2
    __scatterload_rt2_thumb_only
        0x0001823c:    a00a        ..      ADR      r0,{pc}+0x2c ; 0x18268
        0x0001823e:    e8900c00    ....    LDM      r0,{r10,r11}
        0x00018242:    4482        .D      ADD      r10,r10,r0
        0x00018244:    4483        .D      ADD      r11,r11,r0
        0x00018246:    f1aa0701    ....    SUB      r7,r10,#1
    __scatterload_null
        0x0001824a:    45da        .E      CMP      r10,r11
        0x0001824c:    d101        ..      BNE      0x18252 ; __scatterload_null + 8
        0x0001824e:    f000f831    ..1.    BL       __rt_entry ; 0x182b4
        0x00018252:    f2af0e09    ....    ADR      lr,{pc}-7 ; 0x1824b
        0x00018256:    e8ba000f    ....    LDM      r10!,{r0-r3}
        0x0001825a:    f0130f01    ....    TST      r3,#1
        0x0001825e:    bf18        ..      IT       NE
        0x00018260:    1afb        ..      SUBNE    r3,r7,r3
        0x00018262:    f0430301    C...    ORR      r3,r3,#1
        0x00018266:    4718        .G      BX       r3
    $d
        0x00018268:    00002a6c    l*..    DCD    10860
        0x0001826c:    00002a9c    .*..    DCD    10908
    $t
    !!handler_copy
    __scatterload_copy
        0x00018270:    3a10        .:      SUBS     r2,r2,#0x10
        0x00018272:    bf24        $.      ITT      CS
        0x00018274:    c878        x.      LDMCS    r0!,{r3-r6}
        0x00018276:    c178        x.      STMCS    r1!,{r3-r6}
        0x00018278:    d8fa        ..      BHI      __scatterload_copy ; 0x18270
        0x0001827a:    0752        R.      LSLS     r2,r2,#29
        0x0001827c:    bf24        $.      ITT      CS
        0x0001827e:    c830        0.      LDMCS    r0!,{r4,r5}
        0x00018280:    c130        0.      STMCS    r1!,{r4,r5}
        0x00018282:    bf44        D.      ITT      MI
        0x00018284:    6804        .h      LDRMI    r4,[r0,#0]
        0x00018286:    600c        .`      STRMI    r4,[r1,#0]
        0x00018288:    4770        pG      BX       lr
        0x0001828a:    0000        ..      MOVS     r0,r0
    !!handler_zi
    __scatterload_zeroinit
        0x0001828c:    2300        .#      MOVS     r3,#0
        0x0001828e:    2400        .$      MOVS     r4,#0
        0x00018290:    2500        .%      MOVS     r5,#0
        0x00018292:    2600        .&      MOVS     r6,#0
        0x00018294:    3a10        .:      SUBS     r2,r2,#0x10
        0x00018296:    bf28        (.      IT       CS
        0x00018298:    c178        x.      STMCS    r1!,{r3-r6}
        0x0001829a:    d8fb        ..      BHI      0x18294 ; __scatterload_zeroinit + 8
        0x0001829c:    0752        R.      LSLS     r2,r2,#29
        0x0001829e:    bf28        (.      IT       CS
        0x000182a0:    c130        0.      STMCS    r1!,{r4,r5}
        0x000182a2:    bf48        H.      IT       MI
        0x000182a4:    600b        .`      STRMI    r3,[r1,#0]
        0x000182a6:    4770        pG      BX       lr
    .ARM.Collect$$libinit$$00000000
    __rt_lib_init
        0x000182a8:    b51f        ..      PUSH     {r0-r4,lr}
    .ARM.Collect$$libinit$$00000001
    __rt_lib_init_fp_1
        0x000182aa:    f002fb1e    ....    BL       _fp_init ; 0x1a8ea
    .ARM.Collect$$libinit$$00000004
    .ARM.Collect$$libinit$$0000000A
    .ARM.Collect$$libinit$$0000000C
    .ARM.Collect$$libinit$$0000000E
    .ARM.Collect$$libinit$$00000011
    .ARM.Collect$$libinit$$00000013
    .ARM.Collect$$libinit$$00000015
    .ARM.Collect$$libinit$$00000017
    .ARM.Collect$$libinit$$00000019
    .ARM.Collect$$libinit$$0000001B
    .ARM.Collect$$libinit$$0000001D
    .ARM.Collect$$libinit$$0000001F
    .ARM.Collect$$libinit$$00000021
    .ARM.Collect$$libinit$$00000023
    .ARM.Collect$$libinit$$00000025
    .ARM.Collect$$libinit$$0000002C
    .ARM.Collect$$libinit$$0000002E
    .ARM.Collect$$libinit$$00000030
    .ARM.Collect$$libinit$$00000032
    .ARM.Collect$$libinit$$00000033
    __rt_lib_init_alloca_1
    __rt_lib_init_argv_1
    __rt_lib_init_atexit_1
    __rt_lib_init_clock_1
    __rt_lib_init_cpp_1
    __rt_lib_init_exceptions_1
    __rt_lib_init_fp_trap_1
    __rt_lib_init_getenv_1
    __rt_lib_init_heap_1
    __rt_lib_init_lc_collate_1
    __rt_lib_init_lc_ctype_1
    __rt_lib_init_lc_monetary_1
    __rt_lib_init_lc_numeric_1
    __rt_lib_init_lc_time_1
    __rt_lib_init_preinit_1
    __rt_lib_init_rand_1
    __rt_lib_init_return
    __rt_lib_init_signal_1
    __rt_lib_init_stdio_1
    __rt_lib_init_user_alloc_1
        0x000182ae:    bd1f        ..      POP      {r0-r4,pc}
    .ARM.Collect$$libshutdown$$00000000
    __rt_lib_shutdown
        0x000182b0:    b510        ..      PUSH     {r4,lr}
    .ARM.Collect$$libshutdown$$00000002
    .ARM.Collect$$libshutdown$$00000004
    .ARM.Collect$$libshutdown$$00000007
    .ARM.Collect$$libshutdown$$0000000A
    .ARM.Collect$$libshutdown$$0000000C
    .ARM.Collect$$libshutdown$$0000000F
    .ARM.Collect$$libshutdown$$00000010
    __rt_lib_shutdown_cpp_1
    __rt_lib_shutdown_fp_trap_1
    __rt_lib_shutdown_heap_1
    __rt_lib_shutdown_return
    __rt_lib_shutdown_signal_1
    __rt_lib_shutdown_stdio_1
    __rt_lib_shutdown_user_alloc_1
        0x000182b2:    bd10        ..      POP      {r4,pc}
    .ARM.Collect$$rtentry$$00000000
    .ARM.Collect$$rtentry$$00000002
    .ARM.Collect$$rtentry$$00000004
    __rt_entry
    __rt_entry_presh_1
    __rt_entry_sh
        0x000182b4:    f000f83b    ..;.    BL       __user_setup_stackheap ; 0x1832e
        0x000182b8:    4611        .F      MOV      r1,r2
    .ARM.Collect$$rtentry$$00000009
    .ARM.Collect$$rtentry$$0000000A
    __rt_entry_li
    __rt_entry_postsh_1
        0x000182ba:    f7fffff5    ....    BL       __rt_lib_init ; 0x182a8
    .ARM.Collect$$rtentry$$0000000C
    .ARM.Collect$$rtentry$$0000000D
    __rt_entry_main
    __rt_entry_postli_1
        0x000182be:    f001ff11    ....    BL       main ; 0x1a0e4
        0x000182c2:    f000f859    ..Y.    BL       exit ; 0x18378
    .ARM.Collect$$rtexit$$00000000
    __rt_exit
        0x000182c6:    b403        ..      PUSH     {r0,r1}
    .ARM.Collect$$rtexit$$00000002
    .ARM.Collect$$rtexit$$00000003
    __rt_exit_ls
    __rt_exit_prels_1
        0x000182c8:    f7fffff2    ....    BL       __rt_lib_shutdown ; 0x182b0
    .ARM.Collect$$rtexit$$00000004
    __rt_exit_exit
        0x000182cc:    bc03        ..      POP      {r0,r1}
        0x000182ce:    f000f861    ..a.    BL       _sys_exit ; 0x18394
        0x000182d2:    0000        ..      MOVS     r0,r0
    .emb_text
    $v0
    HardFault_Handler
        0x000182d4:    b501        ..      PUSH     {r0,lr}
        0x000182d6:    f01e0f04    ....    TST      lr,#4
        0x000182da:    bf0a        ..      ITET     EQ
        0x000182dc:    f3ef8008    ....    MRSEQ    r0,MSP
        0x000182e0:    f3ef8009    ....    MRSNE    r0,PSP
        0x000182e4:    f1100008    ....    ADDSEQ   r0,r0,#8
        0x000182e8:    f001fa6e    ..n.    BL       am_util_faultisr_collect_data ; 0x197c8
        0x000182ec:    bd01        ..      POP      {r0,pc}
    getStackedReg
        0x000182ee:    0080        ..      LSLS     r0,r0,#2
        0x000182f0:    1840        @.      ADDS     r0,r0,r1
        0x000182f2:    6800        .h      LDR      r0,[r0,#0]
        0x000182f4:    4770        pG      BX       lr
        0x000182f6:    0000        ..      MOVS     r0,r0
    .emb_text
    $v0
    am_hal_interrupt_master_enable
        0x000182f8:    f3ef8010    ....    MRS      r0,PRIMASK
        0x000182fc:    b662        b.      CPSIE    i
        0x000182fe:    4770        pG      BX       lr
    am_hal_interrupt_master_disable
        0x00018300:    f3ef8010    ....    MRS      r0,PRIMASK
        0x00018304:    b672        r.      CPSID    i
        0x00018306:    4770        pG      BX       lr
    am_hal_interrupt_master_set
        0x00018308:    f3808810    ....    MSR      PRIMASK,r0
        0x0001830c:    4770        pG      BX       lr
        0x0001830e:    0000        ..      MOVS     r0,r0
    .text
    $v0
    __user_initial_stackheap
        0x00018310:    4802        .H      LDR      r0,[pc,#8] ; [0x1831c] = 0x100004a0
        0x00018312:    4903        .I      LDR      r1,[pc,#12] ; [0x18320] = 0x100008a0
        0x00018314:    4a01        .J      LDR      r2,[pc,#4] ; [0x1831c] = 0x100004a0
        0x00018316:    4b03        .K      LDR      r3,[pc,#12] ; [0x18324] = 0x100004a0
        0x00018318:    4770        pG      BX       lr
    $d
        0x0001831a:    0000        ..      DCW    0
        0x0001831c:    100004a0    ....    DCD    268436640
        0x00018320:    100008a0    ....    DCD    268437664
        0x00018324:    100004a0    ....    DCD    268436640
    $t
    .text
    __use_two_region_memory
        0x00018328:    4770        pG      BX       lr
    __rt_heap_escrow$2region
        0x0001832a:    4770        pG      BX       lr
    __rt_heap_expand$2region
        0x0001832c:    4770        pG      BX       lr
    .text
    __user_setup_stackheap
        0x0001832e:    4675        uF      MOV      r5,lr
        0x00018330:    f000f82c    ..,.    BL       __user_libspace ; 0x1838c
        0x00018334:    46ae        .F      MOV      lr,r5
        0x00018336:    0005        ..      MOVS     r5,r0
        0x00018338:    4669        iF      MOV      r1,sp
        0x0001833a:    4653        SF      MOV      r3,r10
        0x0001833c:    f0200007     ...    BIC      r0,r0,#7
        0x00018340:    4685        .F      MOV      sp,r0
        0x00018342:    b018        ..      ADD      sp,sp,#0x60
        0x00018344:    b520         .      PUSH     {r5,lr}
        0x00018346:    f7ffffe3    ....    BL       __user_initial_stackheap ; 0x18310
        0x0001834a:    e8bd4020    .. @    POP      {r5,lr}
        0x0001834e:    f04f0600    O...    MOV      r6,#0
        0x00018352:    f04f0700    O...    MOV      r7,#0
        0x00018356:    f04f0800    O...    MOV      r8,#0
        0x0001835a:    f04f0b00    O...    MOV      r11,#0
        0x0001835e:    f0210107    !...    BIC      r1,r1,#7
        0x00018362:    46ac        .F      MOV      r12,r5
        0x00018364:    e8ac09c0    ....    STM      r12!,{r6-r8,r11}
        0x00018368:    e8ac09c0    ....    STM      r12!,{r6-r8,r11}
        0x0001836c:    e8ac09c0    ....    STM      r12!,{r6-r8,r11}
        0x00018370:    e8ac09c0    ....    STM      r12!,{r6-r8,r11}
        0x00018374:    468d        .F      MOV      sp,r1
        0x00018376:    4770        pG      BX       lr
    .text
    exit
        0x00018378:    b510        ..      PUSH     {r4,lr}
        0x0001837a:    4604        .F      MOV      r4,r0
        0x0001837c:    f3af8000    ....    NOP.W    
        0x00018380:    4620         F      MOV      r0,r4
        0x00018382:    e8bd4010    ...@    POP      {r4,lr}
        0x00018386:    f7ffbf9e    ....    B.W      __rt_exit ; 0x182c6
        0x0001838a:    0000        ..      MOVS     r0,r0
    .text
    __user_libspace
    __user_perproc_libspace
    __user_perthread_libspace
        0x0001838c:    4800        .H      LDR      r0,[pc,#0] ; [0x18390] = 0x10000440
        0x0001838e:    4770        pG      BX       lr
    $d
        0x00018390:    10000440    @...    DCD    268436544
    $t
    .text
    _sys_exit
        0x00018394:    4901        .I      LDR      r1,[pc,#4] ; [0x1839c] = 0x20026
        0x00018396:    2018        .       MOVS     r0,#0x18
        0x00018398:    beab        ..      BKPT     #0xab
        0x0001839a:    e7fe        ..      B        0x1839a ; _sys_exit + 6
    $d
        0x0001839c:    00020026    &...    DCD    131110
    $t
    .text
    __I$use$semihosting
    __use_no_semihosting_swi
        0x000183a0:    4770        pG      BX       lr
    i.__ARM_common_memcpy4_5
    .text
    __ARM_common_memcpy4_5
    __semihosting_library_function
        0x000183a2:    680a        .h      LDR      r2,[r1,#0]
        0x000183a4:    6002        .`      STR      r2,[r0,#0]
        0x000183a6:    790b        .y      LDRB     r3,[r1,#4]
        0x000183a8:    7103        .q      STRB     r3,[r0,#4]
        0x000183aa:    4770        pG      BX       lr
    i.am_bsp_low_power_init
    am_bsp_low_power_init
        0x000183ac:    b510        ..      PUSH     {r4,lr}
        0x000183ae:    f000fc21    ..!.    BL       am_hal_pwrctrl_low_power_init ; 0x18bf4
        0x000183b2:    2100        .!      MOVS     r1,#0
        0x000183b4:    4608        .F      MOV      r0,r1
        0x000183b6:    f000fb09    ....    BL       am_hal_pwrctrl_control ; 0x189cc
        0x000183ba:    e8bd4010    ...@    POP      {r4,lr}
        0x000183be:    f000bed1    ....    B.W      am_hal_rtc_osc_disable ; 0x19164
        0x000183c2:    0000        ..      MOVS     r0,r0
    i.am_bsp_uart_printf_disable
    am_bsp_uart_printf_disable
        0x000183c4:    b538        8.      PUSH     {r3-r5,lr}
        0x000183c6:    4c10        .L      LDR      r4,[pc,#64] ; [0x18408] = 0x1000000c
        0x000183c8:    7820         x      LDRB     r0,[r4,#0]
        0x000183ca:    2802        .(      CMP      r0,#2
        0x000183cc:    bf18        ..      IT       NE
        0x000183ce:    bd38        8.      POPNE    {r3-r5,pc}
        0x000183d0:    6860        `h      LDR      r0,[r4,#4]
        0x000183d2:    f001f9a7    ....    BL       am_hal_uart_tx_flush ; 0x19724
        0x000183d6:    2000        .       MOVS     r0,#0
        0x000183d8:    f001fa68    ..h.    BL       am_util_stdio_printf_init ; 0x198ac
        0x000183dc:    2200        ."      MOVS     r2,#0
        0x000183de:    2102        .!      MOVS     r1,#2
        0x000183e0:    6860        `h      LDR      r0,[r4,#4]
        0x000183e2:    f000ffed    ....    BL       am_hal_uart_power_control ; 0x193c0
        0x000183e6:    6860        `h      LDR      r0,[r4,#4]
        0x000183e8:    f000ff92    ....    BL       am_hal_uart_deinitialize ; 0x19310
        0x000183ec:    4d07        .M      LDR      r5,[pc,#28] ; [0x1840c] = 0x1a9bc
        0x000183ee:    6829        )h      LDR      r1,[r5,#0]
        0x000183f0:    9100        ..      STR      r1,[sp,#0]
        0x000183f2:    200c        .       MOVS     r0,#0xc
        0x000183f4:    f000fa4e    ..N.    BL       am_hal_gpio_pinconfig ; 0x18894
        0x000183f8:    6829        )h      LDR      r1,[r5,#0]
        0x000183fa:    9100        ..      STR      r1,[sp,#0]
        0x000183fc:    202f        /       MOVS     r0,#0x2f
        0x000183fe:    f000fa49    ..I.    BL       am_hal_gpio_pinconfig ; 0x18894
        0x00018402:    2000        .       MOVS     r0,#0
        0x00018404:    7020         p      STRB     r0,[r4,#0]
        0x00018406:    bd38        8.      POP      {r3-r5,pc}
    $d
        0x00018408:    1000000c    ....    DCD    268435468
        0x0001840c:    0001a9bc    ....    DCD    108988
    $t
    i.am_bsp_uart_printf_enable
    am_bsp_uart_printf_enable
        0x00018410:    b538        8.      PUSH     {r3-r5,lr}
        0x00018412:    4914        .I      LDR      r1,[pc,#80] ; [0x18464] = 0x10000010
        0x00018414:    2000        .       MOVS     r0,#0
        0x00018416:    f000ff93    ....    BL       am_hal_uart_initialize ; 0x19340
        0x0001841a:    b9c8        ..      CBNZ     r0,0x18450 ; am_bsp_uart_printf_enable + 64
        0x0001841c:    4c12        .L      LDR      r4,[pc,#72] ; [0x18468] = 0x1000000c
        0x0001841e:    2200        ."      MOVS     r2,#0
        0x00018420:    4611        .F      MOV      r1,r2
        0x00018422:    6860        `h      LDR      r0,[r4,#4]
        0x00018424:    f000ffcc    ....    BL       am_hal_uart_power_control ; 0x193c0
        0x00018428:    b990        ..      CBNZ     r0,0x18450 ; am_bsp_uart_printf_enable + 64
        0x0001842a:    4910        .I      LDR      r1,[pc,#64] ; [0x1846c] = 0x1a984
        0x0001842c:    6860        `h      LDR      r0,[r4,#4]
        0x0001842e:    f000fea3    ....    BL       am_hal_uart_configure ; 0x19178
        0x00018432:    b968        h.      CBNZ     r0,0x18450 ; am_bsp_uart_printf_enable + 64
        0x00018434:    480e        .H      LDR      r0,[pc,#56] ; [0x18470] = 0x10000058
        0x00018436:    6801        .h      LDR      r1,[r0,#0]
        0x00018438:    9100        ..      STR      r1,[sp,#0]
        0x0001843a:    200c        .       MOVS     r0,#0xc
        0x0001843c:    f000fa2a    ..*.    BL       am_hal_gpio_pinconfig ; 0x18894
        0x00018440:    b930        0.      CBNZ     r0,0x18450 ; am_bsp_uart_printf_enable + 64
        0x00018442:    480c        .H      LDR      r0,[pc,#48] ; [0x18474] = 0x1000005c
        0x00018444:    6801        .h      LDR      r1,[r0,#0]
        0x00018446:    9100        ..      STR      r1,[sp,#0]
        0x00018448:    202f        /       MOVS     r0,#0x2f
        0x0001844a:    f000fa23    ..#.    BL       am_hal_gpio_pinconfig ; 0x18894
        0x0001844e:    b110        ..      CBZ      r0,0x18456 ; am_bsp_uart_printf_enable + 70
        0x00018450:    f04f30ff    O..0    MOV      r0,#0xffffffff
        0x00018454:    bd38        8.      POP      {r3-r5,pc}
        0x00018456:    2002        .       MOVS     r0,#2
        0x00018458:    7020         p      STRB     r0,[r4,#0]
        0x0001845a:    4807        .H      LDR      r0,[pc,#28] ; [0x18478] = 0x1847d
        0x0001845c:    f001fa26    ..&.    BL       am_util_stdio_printf_init ; 0x198ac
        0x00018460:    2000        .       MOVS     r0,#0
        0x00018462:    bd38        8.      POP      {r3-r5,pc}
    $d
        0x00018464:    10000010    ....    DCD    268435472
        0x00018468:    1000000c    ....    DCD    268435468
        0x0001846c:    0001a984    ....    DCD    108932
        0x00018470:    10000058    X...    DCD    268435544
        0x00018474:    1000005c    \...    DCD    268435548
        0x00018478:    0001847d    }...    DCD    99453
    $t
    i.am_bsp_uart_string_print
    am_bsp_uart_string_print
        0x0001847c:    b530        0.      PUSH     {r4,r5,lr}
        0x0001847e:    b08b        ..      SUB      sp,sp,#0x2c
        0x00018480:    2400        .$      MOVS     r4,#0
        0x00018482:    9401        ..      STR      r4,[sp,#4]
        0x00018484:    7801        .x      LDRB     r1,[r0,#0]
        0x00018486:    b119        ..      CBZ      r1,0x18490 ; am_bsp_uart_string_print + 20
        0x00018488:    1c64        d.      ADDS     r4,r4,#1
        0x0001848a:    5d01        .]      LDRB     r1,[r0,r4]
        0x0001848c:    2900        .)      CMP      r1,#0
        0x0001848e:    d1fb        ..      BNE      0x18488 ; am_bsp_uart_string_print + 12
        0x00018490:    490b        .I      LDR      r1,[pc,#44] ; [0x184c0] = 0x1a984
        0x00018492:    68ca        .h      LDR      r2,[r1,#0xc]
        0x00018494:    311c        .1      ADDS     r1,r1,#0x1c
        0x00018496:    e891102a    ..*.    LDM      r1,{r1,r3,r5,r12}
        0x0001849a:    e9cd2002    ...     STRD     r2,r0,[sp,#8]
        0x0001849e:    aa05        ..      ADD      r2,sp,#0x14
        0x000184a0:    9404        ..      STR      r4,[sp,#0x10]
        0x000184a2:    a801        ..      ADD      r0,sp,#4
        0x000184a4:    e882102b    ..+.    STM      r2,{r0,r1,r3,r5,r12}
        0x000184a8:    4806        .H      LDR      r0,[pc,#24] ; [0x184c4] = 0x1000000c
        0x000184aa:    a902        ..      ADD      r1,sp,#8
        0x000184ac:    6840        @h      LDR      r0,[r0,#4]
        0x000184ae:    f000fffb    ....    BL       am_hal_uart_transfer ; 0x194a8
        0x000184b2:    9801        ..      LDR      r0,[sp,#4]
        0x000184b4:    42a0        .B      CMP      r0,r4
        0x000184b6:    bf04        ..      ITT      EQ
        0x000184b8:    b00b        ..      ADDEQ    sp,sp,#0x2c
        0x000184ba:    bd30        0.      POPEQ    {r4,r5,pc}
        0x000184bc:    e7fe        ..      B        0x184bc ; am_bsp_uart_string_print + 64
    $d
        0x000184be:    0000        ..      DCW    0
        0x000184c0:    0001a984    ....    DCD    108932
        0x000184c4:    1000000c    ....    DCD    268435468
    $t
    i.am_hal_cachectrl_config
    am_hal_cachectrl_config
        0x000184c8:    b538        8.      PUSH     {r3-r5,lr}
        0x000184ca:    4604        .F      MOV      r4,r0
        0x000184cc:    f7ffff18    ....    BL       am_hal_interrupt_master_disable ; 0x18300
        0x000184d0:    f04f4590    O..E    MOV      r5,#0x48000000
        0x000184d4:    9000        ..      STR      r0,[sp,#0]
        0x000184d6:    6828        (h      LDR      r0,[r5,#0]
        0x000184d8:    f4207040     .@p    BIC      r0,r0,#0x300
        0x000184dc:    6028        (`      STR      r0,[r5,#0]
        0x000184de:    9800        ..      LDR      r0,[sp,#0]
        0x000184e0:    f7ffff12    ....    BL       am_hal_interrupt_master_set ; 0x18308
        0x000184e4:    78a0        .x      LDRB     r0,[r4,#2]
        0x000184e6:    2102        .!      MOVS     r1,#2
        0x000184e8:    ea010040    ..@.    AND      r0,r1,r0,LSL #1
        0x000184ec:    7821        !x      LDRB     r1,[r4,#0]
        0x000184ee:    22f0        ."      MOVS     r2,#0xf0
        0x000184f0:    ea021101    ....    AND      r1,r2,r1,LSL #4
        0x000184f4:    4308        .C      ORRS     r0,r0,r1
        0x000184f6:    7861        ax      LDRB     r1,[r4,#1]
        0x000184f8:    f44f7240    O.@r    MOV      r2,#0x300
        0x000184fc:    ea022101    ...!    AND      r1,r2,r1,LSL #8
        0x00018500:    4308        .C      ORRS     r0,r0,r1
        0x00018502:    f4406080    @..`    ORR      r0,r0,#0x400
        0x00018506:    f4401080    @...    ORR      r0,r0,#0x100000
        0x0001850a:    6028        (`      STR      r0,[r5,#0]
        0x0001850c:    2000        .       MOVS     r0,#0
        0x0001850e:    bd38        8.      POP      {r3-r5,pc}
    i.am_hal_cachectrl_enable
    am_hal_cachectrl_enable
        0x00018510:    f04f4090    O..@    MOV      r0,#0x48000000
        0x00018514:    6801        .h      LDR      r1,[r0,#0]
        0x00018516:    f0410101    A...    ORR      r1,r1,#1
        0x0001851a:    6001        .`      STR      r1,[r0,#0]
        0x0001851c:    6881        .h      LDR      r1,[r0,#8]
        0x0001851e:    f0410101    A...    ORR      r1,r1,#1
        0x00018522:    6081        .`      STR      r1,[r0,#8]
        0x00018524:    2000        .       MOVS     r0,#0
        0x00018526:    4770        pG      BX       lr
    i.am_hal_clkgen_control
    am_hal_clkgen_control
        0x00018528:    b510        ..      PUSH     {r4,lr}
        0x0001852a:    1f00        ..      SUBS     r0,r0,#4
        0x0001852c:    281e        .(      CMP      r0,#0x1e
        0x0001852e:    d270        p.      BCS      0x18612 ; am_hal_clkgen_control + 234
        0x00018530:    e8dff000    ....    TBB      [pc,r0]
    $d
        0x00018534:    261c0f15    ...&    DCD    639373077
        0x00018538:    5d4e482d    -HN]    DCD    1565411373
        0x0001853c:    c8c8c8c8    ....    DCD    3368601800
        0x00018540:    c8c8c8c8    ....    DCD    3368601800
        0x00018544:    7068c8c8    ..hp    DCD    1885915336
        0x00018548:    90877e77    w~..    DCD    2424798839
        0x0001854c:    aca59e97    ....    DCD    2896535191
        0x00018550:    beb5        ..      DCW    48821
    $t
        0x00018552:    f04f2040    O.@     MOV      r0,#0x40004000
        0x00018556:    68c1        .h      LDR      r1,[r0,#0xc]
        0x00018558:    f0410180    A...    ORR      r1,r1,#0x80
        0x0001855c:    e004        ..      B        0x18568 ; am_hal_clkgen_control + 64
        0x0001855e:    f04f2040    O.@     MOV      r0,#0x40004000
        0x00018562:    68c1        .h      LDR      r1,[r0,#0xc]
        0x00018564:    f0210180    !...    BIC      r1,r1,#0x80
        0x00018568:    60c1        .`      STR      r1,[r0,#0xc]
        0x0001856a:    e0a8        ..      B        0x186be ; am_hal_clkgen_control + 406
        0x0001856c:    2900        .)      CMP      r1,#0
        0x0001856e:    bf0c        ..      ITE      EQ
        0x00018570:    4856        VH      LDREQ    r0,[pc,#344] ; [0x186cc] = 0xa5b801
        0x00018572:    6808        .h      LDRNE    r0,[r1,#0]
        0x00018574:    f0400001    @...    ORR      r0,r0,#1
        0x00018578:    f04f2140    O.@!    MOV      r1,#0x40004000
        0x0001857c:    6208        .b      STR      r0,[r1,#0x20]
        0x0001857e:    e09e        ..      B        0x186be ; am_hal_clkgen_control + 406
        0x00018580:    f04f2040    O.@     MOV      r0,#0x40004000
        0x00018584:    6a01        .j      LDR      r1,[r0,#0x20]
        0x00018586:    f0210101    !...    BIC      r1,r1,#1
        0x0001858a:    6201        .b      STR      r1,[r0,#0x20]
        0x0001858c:    e097        ..      B        0x186be ; am_hal_clkgen_control + 406
        0x0001858e:    f04f2040    O.@     MOV      r0,#0x40004000
        0x00018592:    6cc2        .l      LDR      r2,[r0,#0x4c]
        0x00018594:    f0420207    B...    ORR      r2,r2,#7
        0x00018598:    64c2        .d      STR      r2,[r0,#0x4c]
        0x0001859a:    6d02        .m      LDR      r2,[r0,#0x50]
        0x0001859c:    f0220203    "...    BIC      r2,r2,#3
        0x000185a0:    1c92        ..      ADDS     r2,r2,#2
        0x000185a2:    6502        .e      STR      r2,[r0,#0x50]
        0x000185a4:    2900        .)      CMP      r1,#0
        0x000185a6:    bf1b        ..      ITTET    NE
        0x000185a8:    6809        .h      LDRNE    r1,[r1,#0]
        0x000185aa:    2900        .)      CMPNE    r1,#0
        0x000185ac:    4a48        HJ      LDREQ    r2,[pc,#288] ; [0x186d0] = 0x189374
        0x000185ae:    f44f1200    O...    MOVNE    r2,#0x200000
        0x000185b2:    6d01        .m      LDR      r1,[r0,#0x50]
        0x000185b4:    f362019e    b...    BFI      r1,r2,#2,#29
        0x000185b8:    6501        .e      STR      r1,[r0,#0x50]
        0x000185ba:    6c81        .l      LDR      r1,[r0,#0x48]
        0x000185bc:    f0410101    A...    ORR      r1,r1,#1
        0x000185c0:    6481        .d      STR      r1,[r0,#0x48]
        0x000185c2:    e07c        |.      B        0x186be ; am_hal_clkgen_control + 406
        0x000185c4:    f04f2040    O.@     MOV      r0,#0x40004000
        0x000185c8:    6c81        .l      LDR      r1,[r0,#0x48]
        0x000185ca:    f0210101    !...    BIC      r1,r1,#1
        0x000185ce:    e7f7        ..      B        0x185c0 ; am_hal_clkgen_control + 152
        0x000185d0:    f04f2040    O.@     MOV      r0,#0x40004000
        0x000185d4:    6c41        Al      LDR      r1,[r0,#0x44]
        0x000185d6:    f0110f20    .. .    TST      r1,#0x20
        0x000185da:    d170        p.      BNE      0x186be ; am_hal_clkgen_control + 406
        0x000185dc:    6c41        Al      LDR      r1,[r0,#0x44]
        0x000185de:    f0410120    A. .    ORR      r1,r1,#0x20
        0x000185e2:    6441        Ad      STR      r1,[r0,#0x44]
        0x000185e4:    f04f000a    O...    MOV      r0,#0xa
        0x000185e8:    f000f8c0    ....    BL       am_hal_delay_us ; 0x1876c
        0x000185ec:    e067        g.      B        0x186be ; am_hal_clkgen_control + 406
        0x000185ee:    f04f2040    O.@     MOV      r0,#0x40004000
        0x000185f2:    6c41        Al      LDR      r1,[r0,#0x44]
        0x000185f4:    f0110f20    .. .    TST      r1,#0x20
        0x000185f8:    d061        a.      BEQ      0x186be ; am_hal_clkgen_control + 406
        0x000185fa:    6c41        Al      LDR      r1,[r0,#0x44]
        0x000185fc:    f0210120    !. .    BIC      r1,r1,#0x20
        0x00018600:    6441        Ad      STR      r1,[r0,#0x44]
        0x00018602:    e05c        \.      B        0x186be ; am_hal_clkgen_control + 406
        0x00018604:    f04f2040    O.@     MOV      r0,#0x40004000
        0x00018608:    f8501f84    P...    LDR      r1,[r0,#0x84]!
        0x0001860c:    f0410180    A...    ORR      r1,r1,#0x80
        0x00018610:    e054        T.      B        0x186bc ; am_hal_clkgen_control + 404
        0x00018612:    e057        W.      B        0x186c4 ; am_hal_clkgen_control + 412
        0x00018614:    f04f2040    O.@     MOV      r0,#0x40004000
        0x00018618:    f8501f84    P...    LDR      r1,[r0,#0x84]!
        0x0001861c:    f0210180    !...    BIC      r1,r1,#0x80
        0x00018620:    e04c        L.      B        0x186bc ; am_hal_clkgen_control + 404
        0x00018622:    f04f2040    O.@     MOV      r0,#0x40004000
        0x00018626:    f8501f84    P...    LDR      r1,[r0,#0x84]!
        0x0001862a:    f0210130    !.0.    BIC      r1,r1,#0x30
        0x0001862e:    e045        E.      B        0x186bc ; am_hal_clkgen_control + 404
        0x00018630:    f04f2040    O.@     MOV      r0,#0x40004000
        0x00018634:    f8501f84    P...    LDR      r1,[r0,#0x84]!
        0x00018638:    f0210130    !.0.    BIC      r1,r1,#0x30
        0x0001863c:    f1010110    ....    ADD      r1,r1,#0x10
        0x00018640:    e03c        <.      B        0x186bc ; am_hal_clkgen_control + 404
        0x00018642:    f04f2040    O.@     MOV      r0,#0x40004000
        0x00018646:    f8501f84    P...    LDR      r1,[r0,#0x84]!
        0x0001864a:    f0210130    !.0.    BIC      r1,r1,#0x30
        0x0001864e:    f1010120    .. .    ADD      r1,r1,#0x20
        0x00018652:    e033        3.      B        0x186bc ; am_hal_clkgen_control + 404
        0x00018654:    f04f2040    O.@     MOV      r0,#0x40004000
        0x00018658:    f8501f84    P...    LDR      r1,[r0,#0x84]!
        0x0001865c:    f0410130    A.0.    ORR      r1,r1,#0x30
        0x00018660:    e02c        ,.      B        0x186bc ; am_hal_clkgen_control + 404
        0x00018662:    f04f2040    O.@     MOV      r0,#0x40004000
        0x00018666:    f8501f84    P...    LDR      r1,[r0,#0x84]!
        0x0001866a:    f0410108    A...    ORR      r1,r1,#8
        0x0001866e:    e025        %.      B        0x186bc ; am_hal_clkgen_control + 404
        0x00018670:    f04f2040    O.@     MOV      r0,#0x40004000
        0x00018674:    f8501f84    P...    LDR      r1,[r0,#0x84]!
        0x00018678:    f0210108    !...    BIC      r1,r1,#8
        0x0001867c:    e01e        ..      B        0x186bc ; am_hal_clkgen_control + 404
        0x0001867e:    f04f2040    O.@     MOV      r0,#0x40004000
        0x00018682:    f8501f84    P...    LDR      r1,[r0,#0x84]!
        0x00018686:    f0210103    !...    BIC      r1,r1,#3
        0x0001868a:    e017        ..      B        0x186bc ; am_hal_clkgen_control + 404
        0x0001868c:    f04f2040    O.@     MOV      r0,#0x40004000
        0x00018690:    f8501f84    P...    LDR      r1,[r0,#0x84]!
        0x00018694:    f0210103    !...    BIC      r1,r1,#3
        0x00018698:    f1010101    ....    ADD      r1,r1,#1
        0x0001869c:    e00e        ..      B        0x186bc ; am_hal_clkgen_control + 404
        0x0001869e:    f04f2040    O.@     MOV      r0,#0x40004000
        0x000186a2:    f8501f84    P...    LDR      r1,[r0,#0x84]!
        0x000186a6:    f0210103    !...    BIC      r1,r1,#3
        0x000186aa:    f1010102    ....    ADD      r1,r1,#2
        0x000186ae:    e005        ..      B        0x186bc ; am_hal_clkgen_control + 404
        0x000186b0:    f04f2040    O.@     MOV      r0,#0x40004000
        0x000186b4:    f8501f84    P...    LDR      r1,[r0,#0x84]!
        0x000186b8:    f0410103    A...    ORR      r1,r1,#3
        0x000186bc:    6001        .`      STR      r1,[r0,#0]
        0x000186be:    f04f0000    O...    MOV      r0,#0
        0x000186c2:    bd10        ..      POP      {r4,pc}
        0x000186c4:    f04f0006    O...    MOV      r0,#6
        0x000186c8:    bd10        ..      POP      {r4,pc}
    $d
        0x000186ca:    0000        ..      DCW    0
        0x000186cc:    00a5b801    ....    DCD    10860545
        0x000186d0:    00189374    t...    DCD    1610612
    $t
    i.am_hal_daxi_config
    am_hal_daxi_config
        0x000186d4:    b570        p.      PUSH     {r4-r6,lr}
        0x000186d6:    b082        ..      SUB      sp,sp,#8
        0x000186d8:    4605        .F      MOV      r5,r0
        0x000186da:    f7fffe11    ....    BL       am_hal_interrupt_master_disable ; 0x18300
        0x000186de:    9000        ..      STR      r0,[sp,#0]
        0x000186e0:    f7fffe0e    ....    BL       am_hal_interrupt_master_disable ; 0x18300
        0x000186e4:    f04f4490    O..D    MOV      r4,#0x48000000
        0x000186e8:    9001        ..      STR      r0,[sp,#4]
        0x000186ea:    6d20         m      LDR      r0,[r4,#0x50]
        0x000186ec:    4e1d        .N      LDR      r6,[pc,#116] ; [0x18764] = 0x47ff0000
        0x000186ee:    f0100f04    ....    TST      r0,#4
        0x000186f2:    d10b        ..      BNE      0x1870c ; am_hal_daxi_config + 56
        0x000186f4:    f3bf8f4f    ..O.    DSB      
        0x000186f8:    6d60        `m      LDR      r0,[r4,#0x54]
        0x000186fa:    f0400001    @...    ORR      r0,r0,#1
        0x000186fe:    6560        `e      STR      r0,[r4,#0x54]
        0x00018700:    6830        0h      LDR      r0,[r6,#0]
        0x00018702:    6d60        `m      LDR      r0,[r4,#0x54]
        0x00018704:    f0400002    @...    ORR      r0,r0,#2
        0x00018708:    6560        `e      STR      r0,[r4,#0x54]
        0x0001870a:    6830        0h      LDR      r0,[r6,#0]
        0x0001870c:    6d60        `m      LDR      r0,[r4,#0x54]
        0x0001870e:    f0100f04    ....    TST      r0,#4
        0x00018712:    d0fb        ..      BEQ      0x1870c ; am_hal_daxi_config + 56
        0x00018714:    9801        ..      LDR      r0,[sp,#4]
        0x00018716:    f7fffdf7    ....    BL       am_hal_interrupt_master_set ; 0x18308
        0x0001871a:    2d00        .-      CMP      r5,#0
        0x0001871c:    bf04        ..      ITT      EQ
        0x0001871e:    2006        .       MOVEQ    r0,#6
        0x00018720:    6520         e      STREQ    r0,[r4,#0x50]
        0x00018722:    d018        ..      BEQ      0x18756 ; am_hal_daxi_config + 130
        0x00018724:    7928        (y      LDRB     r0,[r5,#4]
        0x00018726:    7869        ix      LDRB     r1,[r5,#1]
        0x00018728:    2202        ."      MOVS     r2,#2
        0x0001872a:    f0000001    ....    AND      r0,r0,#1
        0x0001872e:    ea020141    ..A.    AND      r1,r2,r1,LSL #1
        0x00018732:    4308        .C      ORRS     r0,r0,r1
        0x00018734:    78e9        .x      LDRB     r1,[r5,#3]
        0x00018736:    f44f6270    O.pb    MOV      r2,#0xf00
        0x0001873a:    ea022101    ...!    AND      r1,r2,r1,LSL #8
        0x0001873e:    4308        .C      ORRS     r0,r0,r1
        0x00018740:    78a9        .x      LDRB     r1,[r5,#2]
        0x00018742:    f44f12f8    O...    MOV      r2,#0x1f0000
        0x00018746:    ea024101    ...A    AND      r1,r2,r1,LSL #16
        0x0001874a:    4308        .C      ORRS     r0,r0,r1
        0x0001874c:    6520         e      STR      r0,[r4,#0x50]
        0x0001874e:    4629        )F      MOV      r1,r5
        0x00018750:    4805        .H      LDR      r0,[pc,#20] ; [0x18768] = 0x10000014
        0x00018752:    f7fffe26    ..&.    BL       __ARM_common_memcpy4_5 ; 0x183a2
        0x00018756:    6830        0h      LDR      r0,[r6,#0]
        0x00018758:    9800        ..      LDR      r0,[sp,#0]
        0x0001875a:    f7fffdd5    ....    BL       am_hal_interrupt_master_set ; 0x18308
        0x0001875e:    b002        ..      ADD      sp,sp,#8
        0x00018760:    2000        .       MOVS     r0,#0
        0x00018762:    bd70        p.      POP      {r4-r6,pc}
    $d
        0x00018764:    47ff0000    ...G    DCD    1207894016
        0x00018768:    10000014    ....    DCD    268435476
    $t
    i.am_hal_delay_us
    am_hal_delay_us
        0x0001876c:    4908        .I      LDR      r1,[pc,#32] ; [0x18790] = 0x40021000
        0x0001876e:    0140        @.      LSLS     r0,r0,#5
        0x00018770:    6809        .h      LDR      r1,[r1,#0]
        0x00018772:    f3c101c1    ....    UBFX     r1,r1,#3,#2
        0x00018776:    2902        .)      CMP      r1,#2
        0x00018778:    bf06        ..      ITTE     EQ
        0x0001877a:    0040        @.      LSLEQ    r0,r0,#1
        0x0001877c:    2115        .!      MOVEQ    r1,#0x15
        0x0001877e:    210f        .!      MOVNE    r1,#0xf
        0x00018780:    4288        .B      CMP      r0,r1
        0x00018782:    bf98        ..      IT       LS
        0x00018784:    4770        pG      BXLS     lr
        0x00018786:    1a40        @.      SUBS     r0,r0,r1
        0x00018788:    4902        .I      LDR      r1,[pc,#8] ; [0x18794] = 0x1ac64
        0x0001878a:    6a49        Ij      LDR      r1,[r1,#0x24]
        0x0001878c:    4708        .G      BX       r1
    $d
        0x0001878e:    0000        ..      DCW    0
        0x00018790:    40021000    ...@    DCD    1073876992
        0x00018794:    0001ac64    d...    DCD    109668
    $t
    i.am_hal_delay_us_status_change
    am_hal_delay_us_status_change
        0x00018798:    e92d47f0    -..G    PUSH     {r4-r10,lr}
        0x0001879c:    f8df8048    ..H.    LDR      r8,[pc,#72] ; [0x187e8] = 0x40021000
        0x000187a0:    f8df9048    ..H.    LDR      r9,[pc,#72] ; [0x187ec] = 0x1ac64
        0x000187a4:    461d        .F      MOV      r5,r3
        0x000187a6:    4616        .F      MOV      r6,r2
        0x000187a8:    460f        .F      MOV      r7,r1
        0x000187aa:    4604        .F      MOV      r4,r0
        0x000187ac:    6838        8h      LDR      r0,[r7,#0]
        0x000187ae:    4030        0@      ANDS     r0,r0,r6
        0x000187b0:    42a8        .B      CMP      r0,r5
        0x000187b2:    d102        ..      BNE      0x187ba ; am_hal_delay_us_status_change + 34
        0x000187b4:    2000        .       MOVS     r0,#0
        0x000187b6:    e8bd87f0    ....    POP      {r4-r10,pc}
        0x000187ba:    1e64        d.      SUBS     r4,r4,#1
        0x000187bc:    d311        ..      BCC      0x187e2 ; am_hal_delay_us_status_change + 74
        0x000187be:    f8d81000    ....    LDR      r1,[r8,#0]
        0x000187c2:    2020                MOVS     r0,#0x20
        0x000187c4:    f3c101c1    ....    UBFX     r1,r1,#3,#2
        0x000187c8:    2902        .)      CMP      r1,#2
        0x000187ca:    bf06        ..      ITTE     EQ
        0x000187cc:    2040        @       MOVEQ    r0,#0x40
        0x000187ce:    f04f0c15    O...    MOVEQ    r12,#0x15
        0x000187d2:    f04f0c0f    O...    MOVNE    r12,#0xf
        0x000187d6:    eba0000c    ....    SUB      r0,r0,r12
        0x000187da:    f8d91024    ..$.    LDR      r1,[r9,#0x24]
        0x000187de:    4788        .G      BLX      r1
        0x000187e0:    e7e4        ..      B        0x187ac ; am_hal_delay_us_status_change + 20
        0x000187e2:    2004        .       MOVS     r0,#4
        0x000187e4:    e8bd87f0    ....    POP      {r4-r10,pc}
    $d
        0x000187e8:    40021000    ...@    DCD    1073876992
        0x000187ec:    0001ac64    d...    DCD    109668
    $t
    i.am_hal_delay_us_status_check
    am_hal_delay_us_status_check
        0x000187f0:    e92d47f0    -..G    PUSH     {r4-r10,lr}
        0x000187f4:    f8df9054    ..T.    LDR      r9,[pc,#84] ; [0x1884c] = 0x40021000
        0x000187f8:    f8dfa054    ..T.    LDR      r10,[pc,#84] ; [0x18850] = 0x1ac64
        0x000187fc:    f8dd8020    .. .    LDR      r8,[sp,#0x20]
        0x00018800:    461c        .F      MOV      r4,r3
        0x00018802:    4615        .F      MOV      r5,r2
        0x00018804:    460e        .F      MOV      r6,r1
        0x00018806:    4607        .F      MOV      r7,r0
        0x00018808:    6830        0h      LDR      r0,[r6,#0]
        0x0001880a:    f1b80f00    ....    CMP      r8,#0
        0x0001880e:    ea000005    ....    AND      r0,r0,r5
        0x00018812:    d002        ..      BEQ      0x1881a ; am_hal_delay_us_status_check + 42
        0x00018814:    42a0        .B      CMP      r0,r4
        0x00018816:    d002        ..      BEQ      0x1881e ; am_hal_delay_us_status_check + 46
        0x00018818:    e004        ..      B        0x18824 ; am_hal_delay_us_status_check + 52
        0x0001881a:    42a0        .B      CMP      r0,r4
        0x0001881c:    d002        ..      BEQ      0x18824 ; am_hal_delay_us_status_check + 52
        0x0001881e:    2000        .       MOVS     r0,#0
        0x00018820:    e8bd87f0    ....    POP      {r4-r10,pc}
        0x00018824:    1e7f        ..      SUBS     r7,r7,#1
        0x00018826:    d30e        ..      BCC      0x18846 ; am_hal_delay_us_status_check + 86
        0x00018828:    f8d91000    ....    LDR      r1,[r9,#0]
        0x0001882c:    2020                MOVS     r0,#0x20
        0x0001882e:    f3c101c1    ....    UBFX     r1,r1,#3,#2
        0x00018832:    2902        .)      CMP      r1,#2
        0x00018834:    bf06        ..      ITTE     EQ
        0x00018836:    2040        @       MOVEQ    r0,#0x40
        0x00018838:    2115        .!      MOVEQ    r1,#0x15
        0x0001883a:    210f        .!      MOVNE    r1,#0xf
        0x0001883c:    1a40        @.      SUBS     r0,r0,r1
        0x0001883e:    f8da1024    ..$.    LDR      r1,[r10,#0x24]
        0x00018842:    4788        .G      BLX      r1
        0x00018844:    e7e0        ..      B        0x18808 ; am_hal_delay_us_status_check + 24
        0x00018846:    2004        .       MOVS     r0,#4
        0x00018848:    e8bd87f0    ....    POP      {r4-r10,pc}
    $d
        0x0001884c:    40021000    ...@    DCD    1073876992
        0x00018850:    0001ac64    d...    DCD    109668
    $t
    i.am_hal_fault_status_get
    am_hal_fault_status_get
        0x00018854:    2800        .(      CMP      r0,#0
        0x00018856:    bf04        ..      ITT      EQ
        0x00018858:    2006        .       MOVEQ    r0,#6
        0x0001885a:    4770        pG      BXEQ     lr
        0x0001885c:    f04f4190    O..A    MOV      r1,#0x48000000
        0x00018860:    f8d1208c    ...     LDR      r2,[r1,#0x8c]
        0x00018864:    f0020301    ....    AND      r3,r2,#1
        0x00018868:    7003        .p      STRB     r3,[r0,#0]
        0x0001886a:    f3c20340    ..@.    UBFX     r3,r2,#1,#1
        0x0001886e:    7203        .r      STRB     r3,[r0,#8]
        0x00018870:    f3c20280    ....    UBFX     r2,r2,#2,#1
        0x00018874:    7402        .t      STRB     r2,[r0,#0x10]
        0x00018876:    f8d12084    ...     LDR      r2,[r1,#0x84]
        0x0001887a:    60c2        .`      STR      r2,[r0,#0xc]
        0x0001887c:    6842        Bh      LDR      r2,[r0,#4]
        0x0001887e:    f8513f80    Q..?    LDR      r3,[r1,#0x80]!
        0x00018882:    431a        .C      ORRS     r2,r2,r3
        0x00018884:    6042        B`      STR      r2,[r0,#4]
        0x00018886:    6942        Bi      LDR      r2,[r0,#0x14]
        0x00018888:    6889        .h      LDR      r1,[r1,#8]
        0x0001888a:    4311        .C      ORRS     r1,r1,r2
        0x0001888c:    6141        Aa      STR      r1,[r0,#0x14]
        0x0001888e:    2000        .       MOVS     r0,#0
        0x00018890:    4770        pG      BX       lr
        0x00018892:    0000        ..      MOVS     r0,r0
    i.am_hal_gpio_pinconfig
    am_hal_gpio_pinconfig
        0x00018894:    b403        ..      PUSH     {r0,r1}
        0x00018896:    4912        .I      LDR      r1,[pc,#72] ; [0x188e0] = 0x40010000
        0x00018898:    2880        .(      CMP      r0,#0x80
        0x0001889a:    bf22        ".      ITTT     CS
        0x0001889c:    2005        .       MOVCS    r0,#5
        0x0001889e:    b002        ..      ADDCS    sp,sp,#8
        0x000188a0:    4770        pG      BXCS     lr
        0x000188a2:    9a01        ..      LDR      r2,[sp,#4]
        0x000188a4:    f3c22281    ..."    UBFX     r2,r2,#10,#2
        0x000188a8:    2a01        .*      CMP      r2,#1
        0x000188aa:    d90e        ..      BLS      0x188ca ; am_hal_gpio_pinconfig + 54
        0x000188ac:    4b0d        .K      LDR      r3,[pc,#52] ; [0x188e4] = 0x1a9c0
        0x000188ae:    0942        B.      LSRS     r2,r0,#5
        0x000188b0:    f04f0c01    O...    MOV      r12,#1
        0x000188b4:    f8532022    S."     LDR      r2,[r3,r2,LSL #2]
        0x000188b8:    f000031f    ....    AND      r3,r0,#0x1f
        0x000188bc:    fa0cf303    ....    LSL      r3,r12,r3
        0x000188c0:    421a        .B      TST      r2,r3
        0x000188c2:    bf02        ..      ITTT     EQ
        0x000188c4:    2007        .       MOVEQ    r0,#7
        0x000188c6:    b002        ..      ADDEQ    sp,sp,#8
        0x000188c8:    4770        pG      BXEQ     lr
        0x000188ca:    2273        s"      MOVS     r2,#0x73
        0x000188cc:    f8c12200    ..."    STR      r2,[r1,#0x200]
        0x000188d0:    9a01        ..      LDR      r2,[sp,#4]
        0x000188d2:    f8412020    A.      STR      r2,[r1,r0,LSL #2]
        0x000188d6:    2000        .       MOVS     r0,#0
        0x000188d8:    f8c10200    ....    STR      r0,[r1,#0x200]
        0x000188dc:    b002        ..      ADD      sp,sp,#8
        0x000188de:    4770        pG      BX       lr
    $d
        0x000188e0:    40010000    ...@    DCD    1073807360
        0x000188e4:    0001a9c0    ....    DCD    108992
    $t
    i.am_hal_gpio_state_write
    am_hal_gpio_state_write
        0x000188e8:    b538        8.      PUSH     {r3-r5,lr}
        0x000188ea:    f000021f    ....    AND      r2,r0,#0x1f
        0x000188ee:    2301        .#      MOVS     r3,#1
        0x000188f0:    fa03f502    ....    LSL      r5,r3,r2
        0x000188f4:    f3c01041    ..A.    UBFX     r0,r0,#5,#2
        0x000188f8:    0080        ..      LSLS     r0,r0,#2
        0x000188fa:    f1004480    ...D    ADD      r4,r0,#0x40000000
        0x000188fe:    f5043480    ...4    ADD      r4,r4,#0x10000
        0x00018902:    2906        .)      CMP      r1,#6
        0x00018904:    d227        '.      BCS      0x18956 ; am_hal_gpio_state_write + 110
        0x00018906:    e8dff001    ....    TBB      [pc,r1]
    $d
        0x0001890a:    0603        ..      DCW    1539
        0x0001890c:    1b181509    ....    DCD    454563081
    $t
        0x00018910:    f8c45234    ..4R    STR      r5,[r4,#0x234]
        0x00018914:    e01f        ..      B        0x18956 ; am_hal_gpio_state_write + 110
        0x00018916:    f8c45224    ..$R    STR      r5,[r4,#0x224]
        0x0001891a:    e01c        ..      B        0x18956 ; am_hal_gpio_state_write + 110
        0x0001891c:    f7fffcf0    ....    BL       am_hal_interrupt_master_disable ; 0x18300
        0x00018920:    9000        ..      STR      r0,[sp,#0]
        0x00018922:    f8d40214    ....    LDR      r0,[r4,#0x214]
        0x00018926:    4068        h@      EORS     r0,r0,r5
        0x00018928:    f8c40214    ....    STR      r0,[r4,#0x214]
        0x0001892c:    9800        ..      LDR      r0,[sp,#0]
        0x0001892e:    f7fffceb    ....    BL       am_hal_interrupt_master_set ; 0x18308
        0x00018932:    e010        ..      B        0x18956 ; am_hal_gpio_state_write + 110
        0x00018934:    f8c45264    ..dR    STR      r5,[r4,#0x264]
        0x00018938:    e00d        ..      B        0x18956 ; am_hal_gpio_state_write + 110
        0x0001893a:    f8c45254    ..TR    STR      r5,[r4,#0x254]
        0x0001893e:    e00a        ..      B        0x18956 ; am_hal_gpio_state_write + 110
        0x00018940:    f7fffcde    ....    BL       am_hal_interrupt_master_disable ; 0x18300
        0x00018944:    9000        ..      STR      r0,[sp,#0]
        0x00018946:    f8d40244    ..D.    LDR      r0,[r4,#0x244]
        0x0001894a:    4068        h@      EORS     r0,r0,r5
        0x0001894c:    f8c40244    ..D.    STR      r0,[r4,#0x244]
        0x00018950:    9800        ..      LDR      r0,[sp,#0]
        0x00018952:    f7fffcd9    ....    BL       am_hal_interrupt_master_set ; 0x18308
        0x00018956:    2000        .       MOVS     r0,#0
        0x00018958:    bd38        8.      POP      {r3-r5,pc}
        0x0001895a:    0000        ..      MOVS     r0,r0
    i.am_hal_mram_info_read
    am_hal_mram_info_read
        0x0001895c:    b410        ..      PUSH     {r4}
        0x0001895e:    0004        ..      MOVS     r4,r0
        0x00018960:    f04f0000    O...    MOV      r0,#0
        0x00018964:    eb010c02    ....    ADD      r12,r1,r2
        0x00018968:    d012        ..      BEQ      0x18990 ; am_hal_mram_info_read + 52
        0x0001896a:    2c01        .,      CMP      r4,#1
        0x0001896c:    bf1e        ..      ITTT     NE
        0x0001896e:    2001        .       MOVNE    r0,#1
        0x00018970:    bc10        ..      POPNE    {r4}
        0x00018972:    4770        pG      BXNE     lr
        0x00018974:    f5a16490    ...d    SUB      r4,r1,#0x480
        0x00018978:    f5b47fc0    ....    CMP      r4,#0x180
        0x0001897c:    d205        ..      BCS      0x1898a ; am_hal_mram_info_read + 46
        0x0001897e:    f5bc6fc0    ...o    CMP      r12,#0x600
        0x00018982:    bf98        ..      IT       LS
        0x00018984:    f8dfc040    ..@.    LDRLS    r12,[pc,#64] ; [0x189c8] = 0x42002000
        0x00018988:    d90b        ..      BLS      0x189a2 ; am_hal_mram_info_read + 70
        0x0001898a:    bc10        ..      POP      {r4}
        0x0001898c:    2002        .       MOVS     r0,#2
        0x0001898e:    4770        pG      BX       lr
        0x00018990:    f5b17f00    ....    CMP      r1,#0x200
        0x00018994:    d2f9        ..      BCS      0x1898a ; am_hal_mram_info_read + 46
        0x00018996:    f5bc7f00    ....    CMP      r12,#0x200
        0x0001899a:    bf98        ..      IT       LS
        0x0001899c:    f04f4c84    O..L    MOVLS    r12,#0x42000000
        0x000189a0:    d8f3        ..      BHI      0x1898a ; am_hal_mram_info_read + 46
        0x000189a2:    eb0c0181    ....    ADD      r1,r12,r1,LSL #2
        0x000189a6:    f04f0c00    O...    MOV      r12,#0
        0x000189aa:    2a00        .*      CMP      r2,#0
        0x000189ac:    bf9c        ..      ITT      LS
        0x000189ae:    bc10        ..      POPLS    {r4}
        0x000189b0:    4770        pG      BXLS     lr
        0x000189b2:    bf00        ..      NOP      
        0x000189b4:    f8514b04    Q..K    LDR      r4,[r1],#4
        0x000189b8:    f10c0c01    ....    ADD      r12,r12,#1
        0x000189bc:    f8434b04    C..K    STR      r4,[r3],#4
        0x000189c0:    4562        bE      CMP      r2,r12
        0x000189c2:    d8f7        ..      BHI      0x189b4 ; am_hal_mram_info_read + 88
        0x000189c4:    bc10        ..      POP      {r4}
        0x000189c6:    4770        pG      BX       lr
    $d
        0x000189c8:    42002000    . .B    DCD    1107304448
    $t
    i.am_hal_pwrctrl_control
    am_hal_pwrctrl_control
        0x000189cc:    e92d41f0    -..A    PUSH     {r4-r8,lr}
        0x000189d0:    2600        .&      MOVS     r6,#0
        0x000189d2:    4f83        .O      LDR      r7,[pc,#524] ; [0x18be0] = 0x40021000
        0x000189d4:    4d83        .M      LDR      r5,[pc,#524] ; [0x18be4] = 0x1000001c
        0x000189d6:    4c84        .L      LDR      r4,[pc,#528] ; [0x18be8] = 0x40020000
        0x000189d8:    46b0        .F      MOV      r8,r6
        0x000189da:    2805        .(      CMP      r0,#5
        0x000189dc:    f08080fc    ....    BCS.W    0x18bd8 ; am_hal_pwrctrl_control + 524
        0x000189e0:    e8dff000    ....    TBB      [pc,r0]
    $d
        0x000189e4:    f1e4d603    ....    DCD    4058306051
        0x000189e8:    00f4        ..      DCW    244
    $t
        0x000189ea:    68a8        .h      LDR      r0,[r5,#8]
        0x000189ec:    f1b03fff    ...?    CMP      r0,#0xffffffff
        0x000189f0:    d10d        ..      BNE      0x18a0e ; am_hal_pwrctrl_control + 66
        0x000189f2:    2201        ."      MOVS     r2,#1
        0x000189f4:    4b7d        }K      LDR      r3,[pc,#500] ; [0x18bec] = 0x10000024
        0x000189f6:    f24041c4    @..A    MOV      r1,#0x4c4
        0x000189fa:    4610        .F      MOV      r0,r2
        0x000189fc:    f7ffffae    ....    BL       am_hal_mram_info_read ; 0x1895c
        0x00018a00:    b918        ..      CBNZ     r0,0x18a0a ; am_hal_pwrctrl_control + 62
        0x00018a02:    68a8        .h      LDR      r0,[r5,#8]
        0x00018a04:    f1b03fff    ...?    CMP      r0,#0xffffffff
        0x00018a08:    d101        ..      BNE      0x18a0e ; am_hal_pwrctrl_control + 66
        0x00018a0a:    f8c58008    ....    STR      r8,[r5,#8]
        0x00018a0e:    68a8        .h      LDR      r0,[r5,#8]
        0x00018a10:    2803        .(      CMP      r0,#3
        0x00018a12:    d237        7.      BCS      0x18a84 ; am_hal_pwrctrl_control + 184
        0x00018a14:    f8d41378    ..x.    LDR      r1,[r4,#0x378]
        0x00018a18:    f02151f8    !..Q    BIC      r1,r1,#0x1f000000
        0x00018a1c:    f8c41378    ..x.    STR      r1,[r4,#0x378]
        0x00018a20:    f8d41358    ..X.    LDR      r1,[r4,#0x358]
        0x00018a24:    f42101f8    !...    BIC      r1,r1,#0x7c0000
        0x00018a28:    f8c41358    ..X.    STR      r1,[r4,#0x358]
        0x00018a2c:    f8d41344    ..D.    LDR      r1,[r4,#0x344]
        0x00018a30:    f02151f8    !..Q    BIC      r1,r1,#0x1f000000
        0x00018a34:    f1016120    .. a    ADD      r1,r1,#0xa000000
        0x00018a38:    f8c41344    ..D.    STR      r1,[r4,#0x344]
        0x00018a3c:    f8d41344    ..D.    LDR      r1,[r4,#0x344]
        0x00018a40:    f42141f0    !..A    BIC      r1,r1,#0x7800
        0x00018a44:    f50141a0    ...A    ADD      r1,r1,#0x5000
        0x00018a48:    f8c41344    ..D.    STR      r1,[r4,#0x344]
        0x00018a4c:    f8d41358    ..X.    LDR      r1,[r4,#0x358]
        0x00018a50:    f42151f8    !..Q    BIC      r1,r1,#0x1f00
        0x00018a54:    f5016170    ..pa    ADD      r1,r1,#0xf00
        0x00018a58:    f8c41358    ..X.    STR      r1,[r4,#0x358]
        0x00018a5c:    f8d41354    ..T.    LDR      r1,[r4,#0x354]
        0x00018a60:    f44111f0    A...    ORR      r1,r1,#0x1e0000
        0x00018a64:    f8c41354    ..T.    STR      r1,[r4,#0x354]
        0x00018a68:    f8d41360    ..`.    LDR      r1,[r4,#0x360]
        0x00018a6c:    f02161f8    !..a    BIC      r1,r1,#0x7c00000
        0x00018a70:    f1017170    ..pq    ADD      r1,r1,#0x3c00000
        0x00018a74:    f8c41360    ..`.    STR      r1,[r4,#0x360]
        0x00018a78:    f8d41360    ..`.    LDR      r1,[r4,#0x360]
        0x00018a7c:    f44111f0    A...    ORR      r1,r1,#0x1e0000
        0x00018a80:    f8c41360    ..`.    STR      r1,[r4,#0x360]
        0x00018a84:    f8d41348    ..H.    LDR      r1,[r4,#0x348]
        0x00018a88:    f0215170    !.pQ    BIC      r1,r1,#0x3c000000
        0x00018a8c:    f1015120    .. Q    ADD      r1,r1,#0x28000000
        0x00018a90:    f8c41348    ..H.    STR      r1,[r4,#0x348]
        0x00018a94:    f8d41348    ..H.    LDR      r1,[r4,#0x348]
        0x00018a98:    f42131f0    !..1    BIC      r1,r1,#0x1e000
        0x00018a9c:    f50131a0    ...1    ADD      r1,r1,#0x14000
        0x00018aa0:    f8c41348    ..H.    STR      r1,[r4,#0x348]
        0x00018aa4:    f8d4135c    ..\.    LDR      r1,[r4,#0x35c]
        0x00018aa8:    f0417170    A.pq    ORR      r1,r1,#0x3c00000
        0x00018aac:    f8c4135c    ..\.    STR      r1,[r4,#0x35c]
        0x00018ab0:    f8d4135c    ..\.    LDR      r1,[r4,#0x35c]
        0x00018ab4:    f44151f0    A..Q    ORR      r1,r1,#0x1e00
        0x00018ab8:    f8c4135c    ..\.    STR      r1,[r4,#0x35c]
        0x00018abc:    f8d41380    ....    LDR      r1,[r4,#0x380]
        0x00018ac0:    f0414100    A..A    ORR      r1,r1,#0x80000000
        0x00018ac4:    f8c41380    ....    STR      r1,[r4,#0x380]
        0x00018ac8:    f8d41380    ....    LDR      r1,[r4,#0x380]
        0x00018acc:    f0414180    A..A    ORR      r1,r1,#0x40000000
        0x00018ad0:    f8c41380    ....    STR      r1,[r4,#0x380]
        0x00018ad4:    f8d41370    ..p.    LDR      r1,[r4,#0x370]
        0x00018ad8:    f3c15105    ...Q    UBFX     r1,r1,#20,#6
        0x00018adc:    60e9        .`      STR      r1,[r5,#0xc]
        0x00018ade:    f8d41370    ..p.    LDR      r1,[r4,#0x370]
        0x00018ae2:    f021717c    !.|q    BIC      r1,r1,#0x3f00000
        0x00018ae6:    f8c41370    ..p.    STR      r1,[r4,#0x370]
        0x00018aea:    f04f0107    O...    MOV      r1,#7
        0x00018aee:    f8c4133c    ..<.    STR      r1,[r4,#0x33c]
        0x00018af2:    d20d        ..      BCS      0x18b10 ; am_hal_pwrctrl_control + 324
        0x00018af4:    f8d41340    ..@.    LDR      r1,[r4,#0x340]
        0x00018af8:    f0217170    !.pq    BIC      r1,r1,#0x3c00000
        0x00018afc:    f8c41340    ..@.    STR      r1,[r4,#0x340]
        0x00018b00:    f8d41340    ..@.    LDR      r1,[r4,#0x340]
        0x00018b04:    f42161f8    !..a    BIC      r1,r1,#0x7c0
        0x00018b08:    f1010140    ..@.    ADD      r1,r1,#0x40
        0x00018b0c:    f8c41340    ..@.    STR      r1,[r4,#0x340]
        0x00018b10:    2806        .(      CMP      r0,#6
        0x00018b12:    d308        ..      BCC      0x18b26 ; am_hal_pwrctrl_control + 346
        0x00018b14:    200f        .       MOVS     r0,#0xf
        0x00018b16:    f8c4033c    ..<.    STR      r0,[r4,#0x33c]
        0x00018b1a:    f8d401b0    ....    LDR      r0,[r4,#0x1b0]
        0x00018b1e:    f0200018     ...    BIC      r0,r0,#0x18
        0x00018b22:    f8c401b0    ....    STR      r0,[r4,#0x1b0]
        0x00018b26:    f8d70100    ....    LDR      r0,[r7,#0x100]
        0x00018b2a:    f0400001    @...    ORR      r0,r0,#1
        0x00018b2e:    f8c70100    ....    STR      r0,[r7,#0x100]
        0x00018b32:    f8d40378    ..x.    LDR      r0,[r4,#0x378]
        0x00018b36:    f0404000    @..@    ORR      r0,r0,#0x80000000
        0x00018b3a:    f8c40378    ..x.    STR      r0,[r4,#0x378]
        0x00018b3e:    6e20         n      LDR      r0,[r4,#0x60]
        0x00018b40:    f4403000    @..0    ORR      r0,r0,#0x20000
        0x00018b44:    6620         f      STR      r0,[r4,#0x60]
        0x00018b46:    6e20         n      LDR      r0,[r4,#0x60]
        0x00018b48:    f4402080    @..     ORR      r0,r0,#0x40000
        0x00018b4c:    6620         f      STR      r0,[r4,#0x60]
        0x00018b4e:    6e20         n      LDR      r0,[r4,#0x60]
        0x00018b50:    f4402000    @..     ORR      r0,r0,#0x80000
        0x00018b54:    6620         f      STR      r0,[r4,#0x60]
        0x00018b56:    6e20         n      LDR      r0,[r4,#0x60]
        0x00018b58:    f4403080    @..0    ORR      r0,r0,#0x10000
        0x00018b5c:    6620         f      STR      r0,[r4,#0x60]
        0x00018b5e:    6e20         n      LDR      r0,[r4,#0x60]
        0x00018b60:    f0200010     ...    BIC      r0,r0,#0x10
        0x00018b64:    6620         f      STR      r0,[r4,#0x60]
        0x00018b66:    6e20         n      LDR      r0,[r4,#0x60]
        0x00018b68:    f040000e    @...    ORR      r0,r0,#0xe
        0x00018b6c:    6620         f      STR      r0,[r4,#0x60]
        0x00018b6e:    6e20         n      LDR      r0,[r4,#0x60]
        0x00018b70:    f0400001    @...    ORR      r0,r0,#1
        0x00018b74:    6620         f      STR      r0,[r4,#0x60]
        0x00018b76:    6e20         n      LDR      r0,[r4,#0x60]
        0x00018b78:    f4207000     ..p    BIC      r0,r0,#0x200
        0x00018b7c:    6620         f      STR      r0,[r4,#0x60]
        0x00018b7e:    6e20         n      LDR      r0,[r4,#0x60]
        0x00018b80:    f44070e0    @..p    ORR      r0,r0,#0x1c0
        0x00018b84:    6620         f      STR      r0,[r4,#0x60]
        0x00018b86:    6e20         n      LDR      r0,[r4,#0x60]
        0x00018b88:    f0400020    @. .    ORR      r0,r0,#0x20
        0x00018b8c:    6620         f      STR      r0,[r4,#0x60]
        0x00018b8e:    e024        $.      B        0x18bda ; am_hal_pwrctrl_control + 526
        0x00018b90:    4917        .I      LDR      r1,[pc,#92] ; [0x18bf0] = 0x1a9dc
        0x00018b92:    e9d10152    ..R.    LDRD     r0,r1,[r1,#0x148]
        0x00018b96:    6800        .h      LDR      r0,[r0,#0]
        0x00018b98:    4008        .@      ANDS     r0,r0,r1
        0x00018b9a:    bf18        ..      IT       NE
        0x00018b9c:    2001        .       MOVNE    r0,#1
        0x00018b9e:    b1e0        ..      CBZ      r0,0x18bda ; am_hal_pwrctrl_control + 526
        0x00018ba0:    2014        .       MOVS     r0,#0x14
        0x00018ba2:    f000f947    ..G.    BL       am_hal_pwrctrl_periph_disable ; 0x18e34
        0x00018ba6:    b1c0        ..      CBZ      r0,0x18bda ; am_hal_pwrctrl_control + 526
        0x00018ba8:    e8bd81f0    ....    POP      {r4-r8,pc}
        0x00018bac:    f8d40124    ..$.    LDR      r0,[r4,#0x124]
        0x00018bb0:    f02000fc     ...    BIC      r0,r0,#0xfc
        0x00018bb4:    3080        .0      ADDS     r0,r0,#0x80
        0x00018bb6:    f8c40124    ..$.    STR      r0,[r4,#0x124]
        0x00018bba:    2001        .       MOVS     r0,#1
        0x00018bbc:    f8c40120    .. .    STR      r0,[r4,#0x120]
        0x00018bc0:    e00b        ..      B        0x18bda ; am_hal_pwrctrl_control + 526
        0x00018bc2:    e003        ..      B        0x18bcc ; am_hal_pwrctrl_control + 512
        0x00018bc4:    e7ff        ..      B        0x18bc6 ; am_hal_pwrctrl_control + 506
        0x00018bc6:    f8c78004    ....    STR      r8,[r7,#4]
        0x00018bca:    e006        ..      B        0x18bda ; am_hal_pwrctrl_control + 526
        0x00018bcc:    2900        .)      CMP      r1,#0
        0x00018bce:    bf1c        ..      ITT      NE
        0x00018bd0:    ed950a0e    ....    VLDRNE   s0,[r5,#0x38]
        0x00018bd4:    ed810a00    ....    VSTRNE   s0,[r1,#0]
        0x00018bd8:    2606        .&      MOVS     r6,#6
        0x00018bda:    4630        0F      MOV      r0,r6
        0x00018bdc:    e8bd81f0    ....    POP      {r4-r8,pc}
    $d
        0x00018be0:    40021000    ...@    DCD    1073876992
        0x00018be4:    1000001c    ....    DCD    268435484
        0x00018be8:    40020000    ...@    DCD    1073872896
        0x00018bec:    10000024    $...    DCD    268435492
        0x00018bf0:    0001a9dc    ....    DCD    109020
    $t
    i.am_hal_pwrctrl_low_power_init
    am_hal_pwrctrl_low_power_init
        0x00018bf4:    b5f8        ..      PUSH     {r3-r7,lr}
        0x00018bf6:    4e41        AN      LDR      r6,[pc,#260] ; [0x18cfc] = 0x40021000
        0x00018bf8:    68b0        .h      LDR      r0,[r6,#8]
        0x00018bfa:    4d41        AM      LDR      r5,[pc,#260] ; [0x18d00] = 0x1000001c
        0x00018bfc:    f3c05000    ...P    UBFX     r0,r0,#20,#1
        0x00018c00:    f5067682    ...v    ADD      r6,r6,#0x104
        0x00018c04:    70a8        .p      STRB     r0,[r5,#2]
        0x00018c06:    483f        ?H      LDR      r0,[pc,#252] ; [0x18d04] = 0x1a9d0
        0x00018c08:    f000f886    ....    BL       am_hal_pwrctrl_mcu_memory_config ; 0x18d18
        0x00018c0c:    483e        >H      LDR      r0,[pc,#248] ; [0x18d08] = 0x1a9d6
        0x00018c0e:    f000fa01    ....    BL       am_hal_pwrctrl_sram_config ; 0x19014
        0x00018c12:    f04f2740    O.@'    MOV      r7,#0x40004000
        0x00018c16:    6c78        xl      LDR      r0,[r7,#0x44]
        0x00018c18:    f440007c    @.|.    ORR      r0,r0,#0xfc0000
        0x00018c1c:    6478        xd      STR      r0,[r7,#0x44]
        0x00018c1e:    2400        .$      MOVS     r4,#0
        0x00018c20:    63f4        .c      STR      r4,[r6,#0x3c]
        0x00018c22:    6434        4d      STR      r4,[r6,#0x40]
        0x00018c24:    6474        td      STR      r4,[r6,#0x44]
        0x00018c26:    64b4        .d      STR      r4,[r6,#0x48]
        0x00018c28:    64f4        .d      STR      r4,[r6,#0x4c]
        0x00018c2a:    6534        4e      STR      r4,[r6,#0x50]
        0x00018c2c:    6574        te      STR      r4,[r6,#0x54]
        0x00018c2e:    65b4        .e      STR      r4,[r6,#0x58]
        0x00018c30:    65f4        .e      STR      r4,[r6,#0x5c]
        0x00018c32:    6634        4f      STR      r4,[r6,#0x60]
        0x00018c34:    6674        tf      STR      r4,[r6,#0x64]
        0x00018c36:    66b4        .f      STR      r4,[r6,#0x68]
        0x00018c38:    66f4        .f      STR      r4,[r6,#0x6c]
        0x00018c3a:    6734        4g      STR      r4,[r6,#0x70]
        0x00018c3c:    6774        tg      STR      r4,[r6,#0x74]
        0x00018c3e:    67b4        .g      STR      r4,[r6,#0x78]
        0x00018c40:    67f4        .g      STR      r4,[r6,#0x7c]
        0x00018c42:    f8c64080    ...@    STR      r4,[r6,#0x80]
        0x00018c46:    f8c64084    ...@    STR      r4,[r6,#0x84]
        0x00018c4a:    4830        0H      LDR      r0,[pc,#192] ; [0x18d0c] = 0x1a9b3
        0x00018c4c:    f7fffd42    ..B.    BL       am_hal_daxi_config ; 0x186d4
        0x00018c50:    2064        d       MOVS     r0,#0x64
        0x00018c52:    f7fffd8b    ....    BL       am_hal_delay_us ; 0x1876c
        0x00018c56:    6c78        xl      LDR      r0,[r7,#0x44]
        0x00018c58:    f0400040    @.@.    ORR      r0,r0,#0x40
        0x00018c5c:    6478        xd      STR      r0,[r7,#0x44]
        0x00018c5e:    482c        ,H      LDR      r0,[pc,#176] ; [0x18d10] = 0x40020000
        0x00018c60:    f8d0137c    ..|.    LDR      r1,[r0,#0x37c]
        0x00018c64:    f44101fd    A...    ORR      r1,r1,#0x7e8000
        0x00018c68:    f04161b0    A..a    ORR      r1,r1,#0x5800000
        0x00018c6c:    f8c0137c    ..|.    STR      r1,[r0,#0x37c]
        0x00018c70:    4928        (I      LDR      r1,[pc,#160] ; [0x18d14] = 0x40020444
        0x00018c72:    680a        .h      LDR      r2,[r1,#0]
        0x00018c74:    f422427f    "..B    BIC      r2,r2,#0xff00
        0x00018c78:    f5026280    ...b    ADD      r2,r2,#0x400
        0x00018c7c:    600a        .`      STR      r2,[r1,#0]
        0x00018c7e:    7869        ix      LDRB     r1,[r5,#1]
        0x00018c80:    b9c1        ..      CBNZ     r1,0x18cb4 ; am_hal_pwrctrl_low_power_init + 192
        0x00018c82:    f8d0136c    ..l.    LDR      r1,[r0,#0x36c]
        0x00018c86:    f3c15105    ...Q    UBFX     r1,r1,#20,#6
        0x00018c8a:    6129        )a      STR      r1,[r5,#0x10]
        0x00018c8c:    f8d01088    ....    LDR      r1,[r0,#0x88]
        0x00018c90:    f001013f    ..?.    AND      r1,r1,#0x3f
        0x00018c94:    6169        ia      STR      r1,[r5,#0x14]
        0x00018c96:    f8d0136c    ..l.    LDR      r1,[r0,#0x36c]
        0x00018c9a:    0e89        ..      LSRS     r1,r1,#26
        0x00018c9c:    61a9        .a      STR      r1,[r5,#0x18]
        0x00018c9e:    f8d01088    ....    LDR      r1,[r0,#0x88]
        0x00018ca2:    f3c14185    ...A    UBFX     r1,r1,#18,#6
        0x00018ca6:    61e9        .a      STR      r1,[r5,#0x1c]
        0x00018ca8:    6c40        @l      LDR      r0,[r0,#0x44]
        0x00018caa:    f3c010c6    ....    UBFX     r0,r0,#7,#7
        0x00018cae:    6228        (b      STR      r0,[r5,#0x20]
        0x00018cb0:    2001        .       MOVS     r0,#1
        0x00018cb2:    7068        hp      STRB     r0,[r5,#1]
        0x00018cb4:    6928        (i      LDR      r0,[r5,#0x10]
        0x00018cb6:    62a8        .b      STR      r0,[r5,#0x28]
        0x00018cb8:    6968        hi      LDR      r0,[r5,#0x14]
        0x00018cba:    626c        lb      STR      r4,[r5,#0x24]
        0x00018cbc:    2201        ."      MOVS     r2,#1
        0x00018cbe:    62e8        .b      STR      r0,[r5,#0x2c]
        0x00018cc0:    466b        kF      MOV      r3,sp
        0x00018cc2:    f44f6192    O..a    MOV      r1,#0x490
        0x00018cc6:    4610        .F      MOV      r0,r2
        0x00018cc8:    f7fffe48    ..H.    BL       am_hal_mram_info_read ; 0x1895c
        0x00018ccc:    b988        ..      CBNZ     r0,0x18cf2 ; am_hal_pwrctrl_low_power_init + 254
        0x00018cce:    9800        ..      LDR      r0,[sp,#0]
        0x00018cd0:    f0100f06    ....    TST      r0,#6
        0x00018cd4:    bf04        ..      ITT      EQ
        0x00018cd6:    2003        .       MOVEQ    r0,#3
        0x00018cd8:    6268        hb      STREQ    r0,[r5,#0x24]
        0x00018cda:    d00a        ..      BEQ      0x18cf2 ; am_hal_pwrctrl_low_power_init + 254
        0x00018cdc:    f0100f02    ....    TST      r0,#2
        0x00018ce0:    bf08        ..      IT       EQ
        0x00018ce2:    2006        .       MOVEQ    r0,#6
        0x00018ce4:    d007        ..      BEQ      0x18cf6 ; am_hal_pwrctrl_low_power_init + 258
        0x00018ce6:    f0100f04    ....    TST      r0,#4
        0x00018cea:    bf0c        ..      ITE      EQ
        0x00018cec:    2009        .       MOVEQ    r0,#9
        0x00018cee:    626c        lb      STRNE    r4,[r5,#0x24]
        0x00018cf0:    d001        ..      BEQ      0x18cf6 ; am_hal_pwrctrl_low_power_init + 258
        0x00018cf2:    2000        .       MOVS     r0,#0
        0x00018cf4:    bdf8        ..      POP      {r3-r7,pc}
        0x00018cf6:    6268        hb      STR      r0,[r5,#0x24]
        0x00018cf8:    e7fb        ..      B        0x18cf2 ; am_hal_pwrctrl_low_power_init + 254
    $d
        0x00018cfa:    0000        ..      DCW    0
        0x00018cfc:    40021000    ...@    DCD    1073876992
        0x00018d00:    1000001c    ....    DCD    268435484
        0x00018d04:    0001a9d0    ....    DCD    109008
        0x00018d08:    0001a9d6    ....    DCD    109014
        0x00018d0c:    0001a9b3    ....    DCD    108979
        0x00018d10:    40020000    ...@    DCD    1073872896
        0x00018d14:    40020444    D..@    DCD    1073873988
    $t
    i.am_hal_pwrctrl_mcu_memory_config
    am_hal_pwrctrl_mcu_memory_config
        0x00018d18:    b538        8.      PUSH     {r3-r5,lr}
        0x00018d1a:    4605        .F      MOV      r5,r0
        0x00018d1c:    7800        .x      LDRB     r0,[r0,#0]
        0x00018d1e:    4c43        CL      LDR      r4,[pc,#268] ; [0x18e2c] = 0x40021000
        0x00018d20:    b120         .      CBZ      r0,0x18d2c ; am_hal_pwrctrl_mcu_memory_config + 20
        0x00018d22:    2801        .(      CMP      r0,#1
        0x00018d24:    d00a        ..      BEQ      0x18d3c ; am_hal_pwrctrl_mcu_memory_config + 36
        0x00018d26:    2802        .(      CMP      r0,#2
        0x00018d28:    d011        ..      BEQ      0x18d4e ; am_hal_pwrctrl_mcu_memory_config + 54
        0x00018d2a:    e018        ..      B        0x18d5e ; am_hal_pwrctrl_mcu_memory_config + 70
        0x00018d2c:    6960        `i      LDR      r0,[r4,#0x14]
        0x00018d2e:    f0200010     ...    BIC      r0,r0,#0x10
        0x00018d32:    6160        `a      STR      r0,[r4,#0x14]
        0x00018d34:    6960        `i      LDR      r0,[r4,#0x14]
        0x00018d36:    f0200020     . .    BIC      r0,r0,#0x20
        0x00018d3a:    e00f        ..      B        0x18d5c ; am_hal_pwrctrl_mcu_memory_config + 68
        0x00018d3c:    6960        `i      LDR      r0,[r4,#0x14]
        0x00018d3e:    f0400010    @...    ORR      r0,r0,#0x10
        0x00018d42:    6160        `a      STR      r0,[r4,#0x14]
        0x00018d44:    6960        `i      LDR      r0,[r4,#0x14]
        0x00018d46:    f0200020     . .    BIC      r0,r0,#0x20
        0x00018d4a:    6160        `a      STR      r0,[r4,#0x14]
        0x00018d4c:    e007        ..      B        0x18d5e ; am_hal_pwrctrl_mcu_memory_config + 70
        0x00018d4e:    6960        `i      LDR      r0,[r4,#0x14]
        0x00018d50:    f0400010    @...    ORR      r0,r0,#0x10
        0x00018d54:    6160        `a      STR      r0,[r4,#0x14]
        0x00018d56:    6960        `i      LDR      r0,[r4,#0x14]
        0x00018d58:    f0400020    @. .    ORR      r0,r0,#0x20
        0x00018d5c:    6160        `a      STR      r0,[r4,#0x14]
        0x00018d5e:    78a9        .x      LDRB     r1,[r5,#2]
        0x00018d60:    6960        `i      LDR      r0,[r4,#0x14]
        0x00018d62:    f3610002    a...    BFI      r0,r1,#0,#3
        0x00018d66:    6160        `a      STR      r0,[r4,#0x14]
        0x00018d68:    7929        )y      LDRB     r1,[r5,#4]
        0x00018d6a:    6960        `i      LDR      r0,[r4,#0x14]
        0x00018d6c:    f36100c3    a...    BFI      r0,r1,#3,#1
        0x00018d70:    6160        `a      STR      r0,[r4,#0x14]
        0x00018d72:    2001        .       MOVS     r0,#1
        0x00018d74:    9000        ..      STR      r0,[sp,#0]
        0x00018d76:    6963        ci      LDR      r3,[r4,#0x14]
        0x00018d78:    223f        ?"      MOVS     r2,#0x3f
        0x00018d7a:    492d        -I      LDR      r1,[pc,#180] ; [0x18e30] = 0x40021018
        0x00018d7c:    2005        .       MOVS     r0,#5
        0x00018d7e:    f7fffd37    ..7.    BL       am_hal_delay_us_status_check ; 0x187f0
        0x00018d82:    2800        .(      CMP      r0,#0
        0x00018d84:    bf18        ..      IT       NE
        0x00018d86:    bd38        8.      POPNE    {r3-r5,pc}
        0x00018d88:    69a0        .i      LDR      r0,[r4,#0x18]
        0x00018d8a:    6961        ai      LDR      r1,[r4,#0x14]
        0x00018d8c:    f3c01000    ....    UBFX     r0,r0,#4,#1
        0x00018d90:    f3c11100    ....    UBFX     r1,r1,#4,#1
        0x00018d94:    4288        .B      CMP      r0,r1
        0x00018d96:    d117        ..      BNE      0x18dc8 ; am_hal_pwrctrl_mcu_memory_config + 176
        0x00018d98:    69a0        .i      LDR      r0,[r4,#0x18]
        0x00018d9a:    6961        ai      LDR      r1,[r4,#0x14]
        0x00018d9c:    f3c01040    ..@.    UBFX     r0,r0,#5,#1
        0x00018da0:    f3c11140    ..@.    UBFX     r1,r1,#5,#1
        0x00018da4:    4288        .B      CMP      r0,r1
        0x00018da6:    d10f        ..      BNE      0x18dc8 ; am_hal_pwrctrl_mcu_memory_config + 176
        0x00018da8:    69a0        .i      LDR      r0,[r4,#0x18]
        0x00018daa:    6961        ai      LDR      r1,[r4,#0x14]
        0x00018dac:    f0000007    ....    AND      r0,r0,#7
        0x00018db0:    f0010107    ....    AND      r1,r1,#7
        0x00018db4:    4288        .B      CMP      r0,r1
        0x00018db6:    d107        ..      BNE      0x18dc8 ; am_hal_pwrctrl_mcu_memory_config + 176
        0x00018db8:    69a0        .i      LDR      r0,[r4,#0x18]
        0x00018dba:    6961        ai      LDR      r1,[r4,#0x14]
        0x00018dbc:    f3c000c0    ....    UBFX     r0,r0,#3,#1
        0x00018dc0:    f3c101c0    ....    UBFX     r1,r1,#3,#1
        0x00018dc4:    4288        .B      CMP      r0,r1
        0x00018dc6:    d001        ..      BEQ      0x18dcc ; am_hal_pwrctrl_mcu_memory_config + 180
        0x00018dc8:    2001        .       MOVS     r0,#1
        0x00018dca:    bd38        8.      POP      {r3-r5,pc}
        0x00018dcc:    7868        hx      LDRB     r0,[r5,#1]
        0x00018dce:    2800        .(      CMP      r0,#0
        0x00018dd0:    69e0        .i      LDR      r0,[r4,#0x1c]
        0x00018dd2:    bf14        ..      ITE      NE
        0x00018dd4:    f0200010     ...    BICNE    r0,r0,#0x10
        0x00018dd8:    f0400010    @...    ORREQ    r0,r0,#0x10
        0x00018ddc:    61e0        .a      STR      r0,[r4,#0x1c]
        0x00018dde:    7968        hy      LDRB     r0,[r5,#5]
        0x00018de0:    2800        .(      CMP      r0,#0
        0x00018de2:    69e0        .i      LDR      r0,[r4,#0x1c]
        0x00018de4:    bf14        ..      ITE      NE
        0x00018de6:    f0200008     ...    BICNE    r0,r0,#8
        0x00018dea:    f0400008    @...    ORREQ    r0,r0,#8
        0x00018dee:    61e0        .a      STR      r0,[r4,#0x1c]
        0x00018df0:    78e8        .x      LDRB     r0,[r5,#3]
        0x00018df2:    2800        .(      CMP      r0,#0
        0x00018df4:    bf04        ..      ITT      EQ
        0x00018df6:    69e0        .i      LDREQ    r0,[r4,#0x1c]
        0x00018df8:    f0400007    @...    ORREQ    r0,r0,#7
        0x00018dfc:    d013        ..      BEQ      0x18e26 ; am_hal_pwrctrl_mcu_memory_config + 270
        0x00018dfe:    2801        .(      CMP      r0,#1
        0x00018e00:    d008        ..      BEQ      0x18e14 ; am_hal_pwrctrl_mcu_memory_config + 252
        0x00018e02:    2803        .(      CMP      r0,#3
        0x00018e04:    d00b        ..      BEQ      0x18e1e ; am_hal_pwrctrl_mcu_memory_config + 262
        0x00018e06:    2807        .(      CMP      r0,#7
        0x00018e08:    bf04        ..      ITT      EQ
        0x00018e0a:    69e0        .i      LDREQ    r0,[r4,#0x1c]
        0x00018e0c:    f0200007     ...    BICEQ    r0,r0,#7
        0x00018e10:    d009        ..      BEQ      0x18e26 ; am_hal_pwrctrl_mcu_memory_config + 270
        0x00018e12:    e009        ..      B        0x18e28 ; am_hal_pwrctrl_mcu_memory_config + 272
        0x00018e14:    69e0        .i      LDR      r0,[r4,#0x1c]
        0x00018e16:    f0200007     ...    BIC      r0,r0,#7
        0x00018e1a:    1d80        ..      ADDS     r0,r0,#6
        0x00018e1c:    e003        ..      B        0x18e26 ; am_hal_pwrctrl_mcu_memory_config + 270
        0x00018e1e:    69e0        .i      LDR      r0,[r4,#0x1c]
        0x00018e20:    f0200007     ...    BIC      r0,r0,#7
        0x00018e24:    1d00        ..      ADDS     r0,r0,#4
        0x00018e26:    61e0        .a      STR      r0,[r4,#0x1c]
        0x00018e28:    2000        .       MOVS     r0,#0
        0x00018e2a:    bd38        8.      POP      {r3-r5,pc}
    $d
        0x00018e2c:    40021000    ...@    DCD    1073876992
        0x00018e30:    40021018    ...@    DCD    1073877016
    $t
    i.am_hal_pwrctrl_periph_disable
    am_hal_pwrctrl_periph_disable
        0x00018e34:    2822        "(      CMP      r0,#0x22
        0x00018e36:    bf24        $.      ITT      CS
        0x00018e38:    2006        .       MOVCS    r0,#6
        0x00018e3a:    4770        pG      BXCS     lr
        0x00018e3c:    e92d43f8    -..C    PUSH     {r3-r9,lr}
        0x00018e40:    4941        AI      LDR      r1,[pc,#260] ; [0x18f48] = 0x1a9dc
        0x00018e42:    4602        .F      MOV      r2,r0
        0x00018e44:    eb011800    ....    ADD      r8,r1,r0,LSL #4
        0x00018e48:    2500        .%      MOVS     r5,#0
        0x00018e4a:    e9d86900    ...i    LDRD     r6,r9,[r8,#0]
        0x00018e4e:    e9d87402    ...t    LDRD     r7,r4,[r8,#8]
        0x00018e52:    6831        1h      LDR      r1,[r6,#0]
        0x00018e54:    ea110f09    ....    TST      r1,r9
        0x00018e58:    bf04        ..      ITT      EQ
        0x00018e5a:    2000        .       MOVEQ    r0,#0
        0x00018e5c:    e8bd83f8    ....    POPEQ    {r3-r9,pc}
        0x00018e60:    2a14        .*      CMP      r2,#0x14
        0x00018e62:    d123        #.      BNE      0x18eac ; am_hal_pwrctrl_periph_disable + 120
        0x00018e64:    4839        9H      LDR      r0,[pc,#228] ; [0x18f4c] = 0x400c0fe0
        0x00018e66:    6800        .h      LDR      r0,[r0,#0]
        0x00018e68:    28c0        .(      CMP      r0,#0xc0
        0x00018e6a:    d11f        ..      BNE      0x18eac ; am_hal_pwrctrl_periph_disable + 120
        0x00018e6c:    2301        .#      MOVS     r3,#1
        0x00018e6e:    461a        .F      MOV      r2,r3
        0x00018e70:    4937        7I      LDR      r1,[pc,#220] ; [0x18f50] = 0x400c0a7c
        0x00018e72:    2064        d       MOVS     r0,#0x64
        0x00018e74:    f7fffc90    ....    BL       am_hal_delay_us_status_change ; 0x18798
        0x00018e78:    2800        .(      CMP      r0,#0
        0x00018e7a:    bf18        ..      IT       NE
        0x00018e7c:    e8bd83f8    ....    POPNE    {r3-r9,pc}
        0x00018e80:    2301        .#      MOVS     r3,#1
        0x00018e82:    461a        .F      MOV      r2,r3
        0x00018e84:    4933        3I      LDR      r1,[pc,#204] ; [0x18f54] = 0x400c1f10
        0x00018e86:    2064        d       MOVS     r0,#0x64
        0x00018e88:    f7fffc86    ....    BL       am_hal_delay_us_status_change ; 0x18798
        0x00018e8c:    2800        .(      CMP      r0,#0
        0x00018e8e:    bf18        ..      IT       NE
        0x00018e90:    e8bd83f8    ....    POPNE    {r3-r9,pc}
        0x00018e94:    4830        0H      LDR      r0,[pc,#192] ; [0x18f58] = 0x400c0a80
        0x00018e96:    6801        .h      LDR      r1,[r0,#0]
        0x00018e98:    f0410101    A...    ORR      r1,r1,#1
        0x00018e9c:    6001        .`      STR      r1,[r0,#0]
        0x00018e9e:    482f        /H      LDR      r0,[pc,#188] ; [0x18f5c] = 0x1000001c
        0x00018ea0:    6a41        Aj      LDR      r1,[r0,#0x24]
        0x00018ea2:    2900        .)      CMP      r1,#0
        0x00018ea4:    bf1c        ..      ITT      NE
        0x00018ea6:    2000        .       MOVNE    r0,#0
        0x00018ea8:    f001f8c4    ....    BLNE     crypto_boost_trims ; 0x1a034
        0x00018eac:    f7fffa28    ..(.    BL       am_hal_interrupt_master_disable ; 0x18300
        0x00018eb0:    9000        ..      STR      r0,[sp,#0]
        0x00018eb2:    6830        0h      LDR      r0,[r6,#0]
        0x00018eb4:    ea200009     ...    BIC      r0,r0,r9
        0x00018eb8:    6030        0`      STR      r0,[r6,#0]
        0x00018eba:    9800        ..      LDR      r0,[sp,#0]
        0x00018ebc:    f7fffa24    ..$.    BL       am_hal_interrupt_master_set ; 0x18308
        0x00018ec0:    4623        #F      MOV      r3,r4
        0x00018ec2:    461a        .F      MOV      r2,r3
        0x00018ec4:    4639        9F      MOV      r1,r7
        0x00018ec6:    2005        .       MOVS     r0,#5
        0x00018ec8:    9500        ..      STR      r5,[sp,#0]
        0x00018eca:    f7fffc91    ....    BL       am_hal_delay_us_status_check ; 0x187f0
        0x00018ece:    2800        .(      CMP      r0,#0
        0x00018ed0:    bf08        ..      IT       EQ
        0x00018ed2:    e8bd83f8    ....    POPEQ    {r3-r9,pc}
        0x00018ed6:    4628        (F      MOV      r0,r5
        0x00018ed8:    f8d8200c    ...     LDR      r2,[r8,#0xc]
        0x00018edc:    f8d81000    ....    LDR      r1,[r8,#0]
        0x00018ee0:    f5b27ff0    ....    CMP      r2,#0x1e0
        0x00018ee4:    d029        ).      BEQ      0x18f3a ; am_hal_pwrctrl_periph_disable + 262
        0x00018ee6:    dc0b        ..      BGT      0x18f00 ; am_hal_pwrctrl_periph_disable + 204
        0x00018ee8:    2a1e        .*      CMP      r2,#0x1e
        0x00018eea:    d020         .      BEQ      0x18f2e ; am_hal_pwrctrl_periph_disable + 250
        0x00018eec:    2aff        .*      CMP      r2,#0xff
        0x00018eee:    bf18        ..      IT       NE
        0x00018ef0:    e8bd83f8    ....    POPNE    {r3-r9,pc}
        0x00018ef4:    680a        .h      LDR      r2,[r1,#0]
        0x00018ef6:    f0120fff    ....    TST      r2,#0xff
        0x00018efa:    d115        ..      BNE      0x18f28 ; am_hal_pwrctrl_periph_disable + 244
        0x00018efc:    e8bd83f8    ....    POP      {r3-r9,pc}
        0x00018f00:    f5b25ff0    ..._    CMP      r2,#0x1e00
        0x00018f04:    d00a        ..      BEQ      0x18f1c ; am_hal_pwrctrl_periph_disable + 232
        0x00018f06:    f5b23fe0    ...?    CMP      r2,#0x1c000
        0x00018f0a:    bf18        ..      IT       NE
        0x00018f0c:    e8bd83f8    ....    POPNE    {r3-r9,pc}
        0x00018f10:    680a        .h      LDR      r2,[r1,#0]
        0x00018f12:    f4123fe0    ...?    TST      r2,#0x1c000
        0x00018f16:    d107        ..      BNE      0x18f28 ; am_hal_pwrctrl_periph_disable + 244
        0x00018f18:    e8bd83f8    ....    POP      {r3-r9,pc}
        0x00018f1c:    680a        .h      LDR      r2,[r1,#0]
        0x00018f1e:    f4125ff0    ..._    TST      r2,#0x1e00
        0x00018f22:    bf08        ..      IT       EQ
        0x00018f24:    e8bd83f8    ....    POPEQ    {r3-r9,pc}
        0x00018f28:    6809        .h      LDR      r1,[r1,#0]
        0x00018f2a:    e8bd83f8    ....    POP      {r3-r9,pc}
        0x00018f2e:    680a        .h      LDR      r2,[r1,#0]
        0x00018f30:    f0120f1e    ....    TST      r2,#0x1e
        0x00018f34:    d1f8        ..      BNE      0x18f28 ; am_hal_pwrctrl_periph_disable + 244
        0x00018f36:    e8bd83f8    ....    POP      {r3-r9,pc}
        0x00018f3a:    680a        .h      LDR      r2,[r1,#0]
        0x00018f3c:    f4127ff0    ....    TST      r2,#0x1e0
        0x00018f40:    d1f2        ..      BNE      0x18f28 ; am_hal_pwrctrl_periph_disable + 244
        0x00018f42:    e8bd83f8    ....    POP      {r3-r9,pc}
    $d
        0x00018f46:    0000        ..      DCW    0
        0x00018f48:    0001a9dc    ....    DCD    109020
        0x00018f4c:    400c0fe0    ...@    DCD    1074532320
        0x00018f50:    400c0a7c    |..@    DCD    1074530940
        0x00018f54:    400c1f10    ...@    DCD    1074536208
        0x00018f58:    400c0a80    ...@    DCD    1074530944
        0x00018f5c:    1000001c    ....    DCD    268435484
    $t
    i.am_hal_pwrctrl_periph_enable
    am_hal_pwrctrl_periph_enable
        0x00018f60:    2822        "(      CMP      r0,#0x22
        0x00018f62:    bf24        $.      ITT      CS
        0x00018f64:    2006        .       MOVCS    r0,#6
        0x00018f66:    4770        pG      BXCS     lr
        0x00018f68:    e92d43f8    -..C    PUSH     {r3-r9,lr}
        0x00018f6c:    4926        &I      LDR      r1,[pc,#152] ; [0x19008] = 0x1a9dc
        0x00018f6e:    4604        .F      MOV      r4,r0
        0x00018f70:    eb011004    ....    ADD      r0,r1,r4,LSL #4
        0x00018f74:    e9d06502    ...e    LDRD     r6,r5,[r0,#8]
        0x00018f78:    e9d08900    ....    LDRD     r8,r9,[r0,#0]
        0x00018f7c:    f8d80000    ....    LDR      r0,[r8,#0]
        0x00018f80:    ea100f09    ....    TST      r0,r9
        0x00018f84:    d13c        <.      BNE      0x19000 ; am_hal_pwrctrl_periph_enable + 160
        0x00018f86:    4f21        !O      LDR      r7,[pc,#132] ; [0x1900c] = 0x1000001c
        0x00018f88:    2c14        .,      CMP      r4,#0x14
        0x00018f8a:    d105        ..      BNE      0x18f98 ; am_hal_pwrctrl_periph_enable + 56
        0x00018f8c:    6a79        yj      LDR      r1,[r7,#0x24]
        0x00018f8e:    2900        .)      CMP      r1,#0
        0x00018f90:    bf1c        ..      ITT      NE
        0x00018f92:    2001        .       MOVNE    r0,#1
        0x00018f94:    f001f84e    ..N.    BLNE     crypto_boost_trims ; 0x1a034
        0x00018f98:    f7fff9b2    ....    BL       am_hal_interrupt_master_disable ; 0x18300
        0x00018f9c:    9000        ..      STR      r0,[sp,#0]
        0x00018f9e:    f8d80000    ....    LDR      r0,[r8,#0]
        0x00018fa2:    ea400009    @...    ORR      r0,r0,r9
        0x00018fa6:    f8c80000    ....    STR      r0,[r8,#0]
        0x00018faa:    9800        ..      LDR      r0,[sp,#0]
        0x00018fac:    f7fff9ac    ....    BL       am_hal_interrupt_master_set ; 0x18308
        0x00018fb0:    2001        .       MOVS     r0,#1
        0x00018fb2:    462b        +F      MOV      r3,r5
        0x00018fb4:    9000        ..      STR      r0,[sp,#0]
        0x00018fb6:    461a        .F      MOV      r2,r3
        0x00018fb8:    4631        1F      MOV      r1,r6
        0x00018fba:    2005        .       MOVS     r0,#5
        0x00018fbc:    f7fffc18    ....    BL       am_hal_delay_us_status_check ; 0x187f0
        0x00018fc0:    ea5f0800    _...    MOVS     r8,r0
        0x00018fc4:    d00a        ..      BEQ      0x18fdc ; am_hal_pwrctrl_periph_enable + 124
        0x00018fc6:    2c14        .,      CMP      r4,#0x14
        0x00018fc8:    d105        ..      BNE      0x18fd6 ; am_hal_pwrctrl_periph_enable + 118
        0x00018fca:    6a79        yj      LDR      r1,[r7,#0x24]
        0x00018fcc:    2900        .)      CMP      r1,#0
        0x00018fce:    bf1c        ..      ITT      NE
        0x00018fd0:    2000        .       MOVNE    r0,#0
        0x00018fd2:    f001f82f    ../.    BLNE     crypto_boost_trims ; 0x1a034
        0x00018fd6:    4640        @F      MOV      r0,r8
        0x00018fd8:    e8bd83f8    ....    POP      {r3-r9,pc}
        0x00018fdc:    2c14        .,      CMP      r4,#0x14
        0x00018fde:    d109        ..      BNE      0x18ff4 ; am_hal_pwrctrl_periph_enable + 148
        0x00018fe0:    2301        .#      MOVS     r3,#1
        0x00018fe2:    461a        .F      MOV      r2,r3
        0x00018fe4:    490a        .I      LDR      r1,[pc,#40] ; [0x19010] = 0x400c1f10
        0x00018fe6:    2064        d       MOVS     r0,#0x64
        0x00018fe8:    f7fffbd6    ....    BL       am_hal_delay_us_status_change ; 0x18798
        0x00018fec:    2800        .(      CMP      r0,#0
        0x00018fee:    bf18        ..      IT       NE
        0x00018ff0:    e8bd83f8    ....    POPNE    {r3-r9,pc}
        0x00018ff4:    6830        0h      LDR      r0,[r6,#0]
        0x00018ff6:    4228        (B      TST      r0,r5
        0x00018ff8:    bf04        ..      ITT      EQ
        0x00018ffa:    2001        .       MOVEQ    r0,#1
        0x00018ffc:    e8bd83f8    ....    POPEQ    {r3-r9,pc}
        0x00019000:    2000        .       MOVS     r0,#0
        0x00019002:    e8bd83f8    ....    POP      {r3-r9,pc}
    $d
        0x00019006:    0000        ..      DCW    0
        0x00019008:    0001a9dc    ....    DCD    109020
        0x0001900c:    1000001c    ....    DCD    268435484
        0x00019010:    400c1f10    ...@    DCD    1074536208
    $t
    i.am_hal_pwrctrl_sram_config
    am_hal_pwrctrl_sram_config
        0x00019014:    b538        8.      PUSH     {r3-r5,lr}
        0x00019016:    4c27        'L      LDR      r4,[pc,#156] ; [0x190b4] = 0x40021000
        0x00019018:    4605        .F      MOV      r5,r0
        0x0001901a:    7801        .x      LDRB     r1,[r0,#0]
        0x0001901c:    6a60        `j      LDR      r0,[r4,#0x24]
        0x0001901e:    f3610001    a...    BFI      r0,r1,#0,#2
        0x00019022:    6260        `b      STR      r0,[r4,#0x24]
        0x00019024:    2001        .       MOVS     r0,#1
        0x00019026:    9000        ..      STR      r0,[sp,#0]
        0x00019028:    6a63        cj      LDR      r3,[r4,#0x24]
        0x0001902a:    2203        ."      MOVS     r2,#3
        0x0001902c:    4922        "I      LDR      r1,[pc,#136] ; [0x190b8] = 0x40021028
        0x0001902e:    2005        .       MOVS     r0,#5
        0x00019030:    f7fffbde    ....    BL       am_hal_delay_us_status_check ; 0x187f0
        0x00019034:    2800        .(      CMP      r0,#0
        0x00019036:    bf18        ..      IT       NE
        0x00019038:    bd38        8.      POPNE    {r3-r5,pc}
        0x0001903a:    6aa0        .j      LDR      r0,[r4,#0x28]
        0x0001903c:    6a61        aj      LDR      r1,[r4,#0x24]
        0x0001903e:    f0000003    ....    AND      r0,r0,#3
        0x00019042:    f0010103    ....    AND      r1,r1,#3
        0x00019046:    4288        .B      CMP      r0,r1
        0x00019048:    bf1c        ..      ITT      NE
        0x0001904a:    2001        .       MOVNE    r0,#1
        0x0001904c:    bd38        8.      POPNE    {r3-r5,pc}
        0x0001904e:    7869        ix      LDRB     r1,[r5,#1]
        0x00019050:    6ae0        .j      LDR      r0,[r4,#0x2c]
        0x00019052:    f3610083    a...    BFI      r0,r1,#2,#2
        0x00019056:    62e0        .b      STR      r0,[r4,#0x2c]
        0x00019058:    78a9        .x      LDRB     r1,[r5,#2]
        0x0001905a:    6ae0        .j      LDR      r0,[r4,#0x2c]
        0x0001905c:    f3611087    a...    BFI      r0,r1,#6,#2
        0x00019060:    62e0        .b      STR      r0,[r4,#0x2c]
        0x00019062:    78e9        .x      LDRB     r1,[r5,#3]
        0x00019064:    6ae0        .j      LDR      r0,[r4,#0x2c]
        0x00019066:    f3612009    a..     BFI      r0,r1,#8,#2
        0x0001906a:    62e0        .b      STR      r0,[r4,#0x2c]
        0x0001906c:    7929        )y      LDRB     r1,[r5,#4]
        0x0001906e:    6ae0        .j      LDR      r0,[r4,#0x2c]
        0x00019070:    f3611005    a...    BFI      r0,r1,#4,#2
        0x00019074:    62e0        .b      STR      r0,[r4,#0x2c]
        0x00019076:    7968        hy      LDRB     r0,[r5,#5]
        0x00019078:    2800        .(      CMP      r0,#0
        0x0001907a:    bf04        ..      ITT      EQ
        0x0001907c:    6ae0        .j      LDREQ    r0,[r4,#0x2c]
        0x0001907e:    f0400003    @...    ORREQ    r0,r0,#3
        0x00019082:    d00e        ..      BEQ      0x190a2 ; am_hal_pwrctrl_sram_config + 142
        0x00019084:    2801        .(      CMP      r0,#1
        0x00019086:    d008        ..      BEQ      0x1909a ; am_hal_pwrctrl_sram_config + 134
        0x00019088:    2802        .(      CMP      r0,#2
        0x0001908a:    d00d        ..      BEQ      0x190a8 ; am_hal_pwrctrl_sram_config + 148
        0x0001908c:    2803        .(      CMP      r0,#3
        0x0001908e:    bf04        ..      ITT      EQ
        0x00019090:    6ae0        .j      LDREQ    r0,[r4,#0x2c]
        0x00019092:    f0200003     ...    BICEQ    r0,r0,#3
        0x00019096:    d004        ..      BEQ      0x190a2 ; am_hal_pwrctrl_sram_config + 142
        0x00019098:    e004        ..      B        0x190a4 ; am_hal_pwrctrl_sram_config + 144
        0x0001909a:    6ae0        .j      LDR      r0,[r4,#0x2c]
        0x0001909c:    f0200003     ...    BIC      r0,r0,#3
        0x000190a0:    1c80        ..      ADDS     r0,r0,#2
        0x000190a2:    62e0        .b      STR      r0,[r4,#0x2c]
        0x000190a4:    2000        .       MOVS     r0,#0
        0x000190a6:    bd38        8.      POP      {r3-r5,pc}
        0x000190a8:    6ae0        .j      LDR      r0,[r4,#0x2c]
        0x000190aa:    f0200003     ...    BIC      r0,r0,#3
        0x000190ae:    1c40        @.      ADDS     r0,r0,#1
        0x000190b0:    e7f7        ..      B        0x190a2 ; am_hal_pwrctrl_sram_config + 142
    $d
        0x000190b2:    0000        ..      DCW    0
        0x000190b4:    40021000    ...@    DCD    1073876992
        0x000190b8:    40021028    (..@    DCD    1073877032
    $t
    i.am_hal_queue_item_add
    am_hal_queue_item_add
        0x000190bc:    b5f8        ..      PUSH     {r3-r7,lr}
        0x000190be:    4604        .F      MOV      r4,r0
        0x000190c0:    6900        .i      LDR      r0,[r0,#0x10]
        0x000190c2:    460e        .F      MOV      r6,r1
        0x000190c4:    fb00f502    ....    MUL      r5,r0,r2
        0x000190c8:    2700        .'      MOVS     r7,#0
        0x000190ca:    f7fff919    ....    BL       am_hal_interrupt_master_disable ; 0x18300
        0x000190ce:    9000        ..      STR      r0,[sp,#0]
        0x000190d0:    68a1        .h      LDR      r1,[r4,#8]
        0x000190d2:    68e0        .h      LDR      r0,[r4,#0xc]
        0x000190d4:    1a40        @.      SUBS     r0,r0,r1
        0x000190d6:    4285        .B      CMP      r5,r0
        0x000190d8:    d816        ..      BHI      0x19108 ; am_hal_queue_item_add + 76
        0x000190da:    2000        .       MOVS     r0,#0
        0x000190dc:    2d00        .-      CMP      r5,#0
        0x000190de:    d90f        ..      BLS      0x19100 ; am_hal_queue_item_add + 68
        0x000190e0:    b11e        ..      CBZ      r6,0x190ea ; am_hal_queue_item_add + 46
        0x000190e2:    5c31        1\      LDRB     r1,[r6,r0]
        0x000190e4:    6823        #h      LDR      r3,[r4,#0]
        0x000190e6:    6962        bi      LDR      r2,[r4,#0x14]
        0x000190e8:    54d1        .T      STRB     r1,[r2,r3]
        0x000190ea:    6821        !h      LDR      r1,[r4,#0]
        0x000190ec:    68e2        .h      LDR      r2,[r4,#0xc]
        0x000190ee:    1c49        I.      ADDS     r1,r1,#1
        0x000190f0:    fbb1f3f2    ....    UDIV     r3,r1,r2
        0x000190f4:    fb021113    ....    MLS      r1,r2,r3,r1
        0x000190f8:    6021        !`      STR      r1,[r4,#0]
        0x000190fa:    1c40        @.      ADDS     r0,r0,#1
        0x000190fc:    42a8        .B      CMP      r0,r5
        0x000190fe:    d3ef        ..      BCC      0x190e0 ; am_hal_queue_item_add + 36
        0x00019100:    68a0        .h      LDR      r0,[r4,#8]
        0x00019102:    4428        (D      ADD      r0,r0,r5
        0x00019104:    60a0        .`      STR      r0,[r4,#8]
        0x00019106:    2701        .'      MOVS     r7,#1
        0x00019108:    9800        ..      LDR      r0,[sp,#0]
        0x0001910a:    f7fff8fd    ....    BL       am_hal_interrupt_master_set ; 0x18308
        0x0001910e:    4638        8F      MOV      r0,r7
        0x00019110:    bdf8        ..      POP      {r3-r7,pc}
    i.am_hal_queue_item_get
    am_hal_queue_item_get
        0x00019112:    b5f8        ..      PUSH     {r3-r7,lr}
        0x00019114:    4604        .F      MOV      r4,r0
        0x00019116:    6900        .i      LDR      r0,[r0,#0x10]
        0x00019118:    460e        .F      MOV      r6,r1
        0x0001911a:    fb00f502    ....    MUL      r5,r0,r2
        0x0001911e:    2700        .'      MOVS     r7,#0
        0x00019120:    f7fff8ee    ....    BL       am_hal_interrupt_master_disable ; 0x18300
        0x00019124:    9000        ..      STR      r0,[sp,#0]
        0x00019126:    68a0        .h      LDR      r0,[r4,#8]
        0x00019128:    4285        .B      CMP      r5,r0
        0x0001912a:    d816        ..      BHI      0x1915a ; am_hal_queue_item_get + 72
        0x0001912c:    2000        .       MOVS     r0,#0
        0x0001912e:    2d00        .-      CMP      r5,#0
        0x00019130:    d90f        ..      BLS      0x19152 ; am_hal_queue_item_get + 64
        0x00019132:    b11e        ..      CBZ      r6,0x1913c ; am_hal_queue_item_get + 42
        0x00019134:    6962        bi      LDR      r2,[r4,#0x14]
        0x00019136:    6861        ah      LDR      r1,[r4,#4]
        0x00019138:    5c52        R\      LDRB     r2,[r2,r1]
        0x0001913a:    5432        2T      STRB     r2,[r6,r0]
        0x0001913c:    6861        ah      LDR      r1,[r4,#4]
        0x0001913e:    68e2        .h      LDR      r2,[r4,#0xc]
        0x00019140:    1c49        I.      ADDS     r1,r1,#1
        0x00019142:    fbb1f3f2    ....    UDIV     r3,r1,r2
        0x00019146:    fb021113    ....    MLS      r1,r2,r3,r1
        0x0001914a:    6061        a`      STR      r1,[r4,#4]
        0x0001914c:    1c40        @.      ADDS     r0,r0,#1
        0x0001914e:    42a8        .B      CMP      r0,r5
        0x00019150:    d3ef        ..      BCC      0x19132 ; am_hal_queue_item_get + 32
        0x00019152:    68a0        .h      LDR      r0,[r4,#8]
        0x00019154:    1b40        @.      SUBS     r0,r0,r5
        0x00019156:    60a0        .`      STR      r0,[r4,#8]
        0x00019158:    2701        .'      MOVS     r7,#1
        0x0001915a:    9800        ..      LDR      r0,[sp,#0]
        0x0001915c:    f7fff8d4    ....    BL       am_hal_interrupt_master_set ; 0x18308
        0x00019160:    4638        8F      MOV      r0,r7
        0x00019162:    bdf8        ..      POP      {r3-r7,pc}
    i.am_hal_rtc_osc_disable
    am_hal_rtc_osc_disable
        0x00019164:    4803        .H      LDR      r0,[pc,#12] ; [0x19174] = 0x40004800
        0x00019166:    6801        .h      LDR      r1,[r0,#0]
        0x00019168:    f0410110    A...    ORR      r1,r1,#0x10
        0x0001916c:    6001        .`      STR      r1,[r0,#0]
        0x0001916e:    2000        .       MOVS     r0,#0
        0x00019170:    4770        pG      BX       lr
    $d
        0x00019172:    0000        ..      DCW    0
        0x00019174:    40004800    .H.@    DCD    1073760256
    $t
    i.am_hal_uart_configure
    am_hal_uart_configure
        0x00019178:    6a42        Bj      LDR      r2,[r0,#0x24]
        0x0001917a:    2800        .(      CMP      r0,#0
        0x0001917c:    bf1c        ..      ITT      NE
        0x0001917e:    6803        .h      LDRNE    r3,[r0,#0]
        0x00019180:    f0137f80    ....    TSTNE    r3,#0x1000000
        0x00019184:    d005        ..      BEQ      0x19192 ; am_hal_uart_configure + 26
        0x00019186:    f8dfc164    ..d.    LDR      r12,[pc,#356] ; [0x192ec] = 0xea9e06
        0x0001918a:    f023437f    #..C    BIC      r3,r3,#0xff000000
        0x0001918e:    4563        cE      CMP      r3,r12
        0x00019190:    d001        ..      BEQ      0x19196 ; am_hal_uart_configure + 30
        0x00019192:    2002        .       MOVS     r0,#2
        0x00019194:    4770        pG      BX       lr
        0x00019196:    b470        p.      PUSH     {r4-r6}
        0x00019198:    2500        .%      MOVS     r5,#0
        0x0001919a:    0312        ..      LSLS     r2,r2,#12
        0x0001919c:    f1024280    ...B    ADD      r2,r2,#0x40000000
        0x000191a0:    f50232e0    ...2    ADD      r2,r2,#0x1c000
        0x000191a4:    6315        .c      STR      r5,[r2,#0x30]
        0x000191a6:    6b13        .k      LDR      r3,[r2,#0x30]
        0x000191a8:    f0430308    C...    ORR      r3,r3,#8
        0x000191ac:    6313        .c      STR      r3,[r2,#0x30]
        0x000191ae:    f8dfc140    ..@.    LDR      r12,[pc,#320] ; [0x192f0] = 0x16e360
        0x000191b2:    680b        .h      LDR      r3,[r1,#0]
        0x000191b4:    4563        cE      CMP      r3,r12
        0x000191b6:    6b13        .k      LDR      r3,[r2,#0x30]
        0x000191b8:    f0230370    #.p.    BIC      r3,r3,#0x70
        0x000191bc:    bf8c        ..      ITE      HI
        0x000191be:    3350        P3      ADDHI    r3,r3,#0x50
        0x000191c0:    3310        .3      ADDLS    r3,r3,#0x10
        0x000191c2:    6313        .c      STR      r3,[r2,#0x30]
        0x000191c4:    6b13        .k      LDR      r3,[r2,#0x30]
        0x000191c6:    f0230301    #...    BIC      r3,r3,#1
        0x000191ca:    6313        .c      STR      r3,[r2,#0x30]
        0x000191cc:    6b13        .k      LDR      r3,[r2,#0x30]
        0x000191ce:    f4237300    #..s    BIC      r3,r3,#0x200
        0x000191d2:    6313        .c      STR      r3,[r2,#0x30]
        0x000191d4:    6b13        .k      LDR      r3,[r2,#0x30]
        0x000191d6:    f4237380    #..s    BIC      r3,r3,#0x100
        0x000191da:    6313        .c      STR      r3,[r2,#0x30]
        0x000191dc:    f8d1c000    ....    LDR      r12,[r1,#0]
        0x000191e0:    6b13        .k      LDR      r3,[r2,#0x30]
        0x000191e2:    f3c31302    ....    UBFX     r3,r3,#4,#3
        0x000191e6:    2b06        .+      CMP      r3,#6
        0x000191e8:    d27c        |.      BCS      0x192e4 ; am_hal_uart_configure + 364
        0x000191ea:    e8dff003    ....    TBB      [pc,r3]
    $d
        0x000191ee:    057b        {.      DCW    1403
        0x000191f0:    030b0907    ....    DCD    51054855
    $t
        0x000191f4:    4b3f        ?K      LDR      r3,[pc,#252] ; [0x192f4] = 0x2dc6c00
        0x000191f6:    e006        ..      B        0x19206 ; am_hal_uart_configure + 142
        0x000191f8:    4b3f        ?K      LDR      r3,[pc,#252] ; [0x192f8] = 0x16e3600
        0x000191fa:    e004        ..      B        0x19206 ; am_hal_uart_configure + 142
        0x000191fc:    4b3f        ?K      LDR      r3,[pc,#252] ; [0x192fc] = 0xb71b00
        0x000191fe:    e002        ..      B        0x19206 ; am_hal_uart_configure + 142
        0x00019200:    4b3f        ?K      LDR      r3,[pc,#252] ; [0x19300] = 0x5b8d80
        0x00019202:    e000        ..      B        0x19206 ; am_hal_uart_configure + 142
        0x00019204:    4b3f        ?K      LDR      r3,[pc,#252] ; [0x19304] = 0x2dc6c0
        0x00019206:    ea4f1c0c    O...    LSL      r12,r12,#4
        0x0001920a:    fbb3f4fc    ....    UDIV     r4,r3,r12
        0x0001920e:    019e        ..      LSLS     r6,r3,#6
        0x00019210:    fbb6fcfc    ....    UDIV     r12,r6,r12
        0x00019214:    01a6        ..      LSLS     r6,r4,#6
        0x00019216:    ebbc0c06    ....    SUBS     r12,r12,r6
        0x0001921a:    2c00        .,      CMP      r4,#0
        0x0001921c:    bf01        ..      ITTTT    EQ
        0x0001921e:    6285        .b      STREQ    r5,[r0,#0x28]
        0x00019220:    4839        9H      LDREQ    r0,[pc,#228] ; [0x19308] = 0x8000003
        0x00019222:    bc70        p.      POPEQ    {r4-r6}
        0x00019224:    4770        pG      BXEQ     lr
        0x00019226:    6254        Tb      STR      r4,[r2,#0x24]
        0x00019228:    f8c2c028    ..(.    STR      r12,[r2,#0x28]
        0x0001922c:    0124        $.      LSLS     r4,r4,#4
        0x0001922e:    eb040c9c    ....    ADD      r12,r4,r12,LSR #2
        0x00019232:    fbb3f3fc    ....    UDIV     r3,r3,r12
        0x00019236:    6283        .b      STR      r3,[r0,#0x28]
        0x00019238:    6b10        .k      LDR      r0,[r2,#0x30]
        0x0001923a:    f4204080     ..@    BIC      r0,r0,#0x4000
        0x0001923e:    6310        .c      STR      r0,[r2,#0x30]
        0x00019240:    6b10        .k      LDR      r0,[r2,#0x30]
        0x00019242:    f4204000     ..@    BIC      r0,r0,#0x8000
        0x00019246:    6310        .c      STR      r0,[r2,#0x30]
        0x00019248:    6b10        .k      LDR      r0,[r2,#0x30]
        0x0001924a:    890b        ..      LDRH     r3,[r1,#8]
        0x0001924c:    4318        .C      ORRS     r0,r0,r3
        0x0001924e:    6310        .c      STR      r0,[r2,#0x30]
        0x00019250:    2000        .       MOVS     r0,#0
        0x00019252:    f891c005    ....    LDRB     r12,[r1,#5]
        0x00019256:    4603        .F      MOV      r3,r0
        0x00019258:    f1bc0f00    ....    CMP      r12,#0
        0x0001925c:    bf08        ..      IT       EQ
        0x0001925e:    2001        .       MOVEQ    r0,#1
        0x00019260:    d004        ..      BEQ      0x1926c ; am_hal_uart_configure + 244
        0x00019262:    f1bc0f01    ....    CMP      r12,#1
        0x00019266:    bf04        ..      ITT      EQ
        0x00019268:    2001        .       MOVEQ    r0,#1
        0x0001926a:    4603        .F      MOVEQ    r3,r0
        0x0001926c:    f8d2c02c    ..,.    LDR      r12,[r2,#0x2c]
        0x00019270:    f02c0c01    ,...    BIC      r12,r12,#1
        0x00019274:    f8c2c02c    ..,.    STR      r12,[r2,#0x2c]
        0x00019278:    f8d2c02c    ..,.    LDR      r12,[r2,#0x2c]
        0x0001927c:    f3600c41    `.A.    BFI      r12,r0,#1,#1
        0x00019280:    f8c2c02c    ..,.    STR      r12,[r2,#0x2c]
        0x00019284:    6ad0        .j      LDR      r0,[r2,#0x2c]
        0x00019286:    f3630082    c...    BFI      r0,r3,#2,#1
        0x0001928a:    62d0        .b      STR      r0,[r2,#0x2c]
        0x0001928c:    798b        .y      LDRB     r3,[r1,#6]
        0x0001928e:    6ad0        .j      LDR      r0,[r2,#0x2c]
        0x00019290:    f36300c3    c...    BFI      r0,r3,#3,#1
        0x00019294:    62d0        .b      STR      r0,[r2,#0x2c]
        0x00019296:    6ad0        .j      LDR      r0,[r2,#0x2c]
        0x00019298:    f0400010    @...    ORR      r0,r0,#0x10
        0x0001929c:    62d0        .b      STR      r0,[r2,#0x2c]
        0x0001929e:    790b        .y      LDRB     r3,[r1,#4]
        0x000192a0:    6ad0        .j      LDR      r0,[r2,#0x2c]
        0x000192a2:    f3631046    c.F.    BFI      r0,r3,#5,#2
        0x000192a6:    62d0        .b      STR      r0,[r2,#0x2c]
        0x000192a8:    6ad0        .j      LDR      r0,[r2,#0x2c]
        0x000192aa:    f0200080     ...    BIC      r0,r0,#0x80
        0x000192ae:    62d0        .b      STR      r0,[r2,#0x2c]
        0x000192b0:    7a8b        .z      LDRB     r3,[r1,#0xa]
        0x000192b2:    6b50        Pk      LDR      r0,[r2,#0x34]
        0x000192b4:    f3630002    c...    BFI      r0,r3,#0,#3
        0x000192b8:    6350        Pc      STR      r0,[r2,#0x34]
        0x000192ba:    7ac9        .z      LDRB     r1,[r1,#0xb]
        0x000192bc:    6b50        Pk      LDR      r0,[r2,#0x34]
        0x000192be:    f36100c5    a...    BFI      r0,r1,#3,#3
        0x000192c2:    6350        Pc      STR      r0,[r2,#0x34]
        0x000192c4:    6b10        .k      LDR      r0,[r2,#0x30]
        0x000192c6:    f0400001    @...    ORR      r0,r0,#1
        0x000192ca:    6310        .c      STR      r0,[r2,#0x30]
        0x000192cc:    6b10        .k      LDR      r0,[r2,#0x30]
        0x000192ce:    f4407000    @..p    ORR      r0,r0,#0x200
        0x000192d2:    6310        .c      STR      r0,[r2,#0x30]
        0x000192d4:    6b10        .k      LDR      r0,[r2,#0x30]
        0x000192d6:    f4407080    @..p    ORR      r0,r0,#0x100
        0x000192da:    6310        .c      STR      r0,[r2,#0x30]
        0x000192dc:    bc70        p.      POP      {r4-r6}
        0x000192de:    2000        .       MOVS     r0,#0
        0x000192e0:    4770        pG      BX       lr
        0x000192e2:    e7ff        ..      B        0x192e4 ; am_hal_uart_configure + 364
        0x000192e4:    6285        .b      STR      r5,[r0,#0x28]
        0x000192e6:    bc70        p.      POP      {r4-r6}
        0x000192e8:    4808        .H      LDR      r0,[pc,#32] ; [0x1930c] = 0x8000002
        0x000192ea:    4770        pG      BX       lr
    $d
        0x000192ec:    00ea9e06    ....    DCD    15375878
        0x000192f0:    0016e360    `...    DCD    1500000
        0x000192f4:    02dc6c00    .l..    DCD    48000000
        0x000192f8:    016e3600    .6n.    DCD    24000000
        0x000192fc:    00b71b00    ....    DCD    12000000
        0x00019300:    005b8d80    ..[.    DCD    6000000
        0x00019304:    002dc6c0    ..-.    DCD    3000000
        0x00019308:    08000003    ....    DCD    134217731
        0x0001930c:    08000002    ....    DCD    134217730
    $t
    i.am_hal_uart_deinitialize
    am_hal_uart_deinitialize
        0x00019310:    2800        .(      CMP      r0,#0
        0x00019312:    bf1c        ..      ITT      NE
        0x00019314:    6801        .h      LDRNE    r1,[r0,#0]
        0x00019316:    f0117f80    ....    TSTNE    r1,#0x1000000
        0x0001931a:    d004        ..      BEQ      0x19326 ; am_hal_uart_deinitialize + 22
        0x0001931c:    4b07        .K      LDR      r3,[pc,#28] ; [0x1933c] = 0xea9e06
        0x0001931e:    f021427f    !..B    BIC      r2,r1,#0xff000000
        0x00019322:    429a        .B      CMP      r2,r3
        0x00019324:    d001        ..      BEQ      0x1932a ; am_hal_uart_deinitialize + 26
        0x00019326:    2002        .       MOVS     r0,#2
        0x00019328:    4770        pG      BX       lr
        0x0001932a:    f001417e    ..~A    AND      r1,r1,#0xfe000000
        0x0001932e:    6001        .`      STR      r1,[r0,#0]
        0x00019330:    2100        .!      MOVS     r1,#0
        0x00019332:    6241        Ab      STR      r1,[r0,#0x24]
        0x00019334:    7101        .q      STRB     r1,[r0,#4]
        0x00019336:    4608        .F      MOV      r0,r1
        0x00019338:    4770        pG      BX       lr
    $d
        0x0001933a:    0000        ..      DCW    0
        0x0001933c:    00ea9e06    ....    DCD    15375878
    $t
    i.am_hal_uart_initialize
    am_hal_uart_initialize
        0x00019340:    2804        .(      CMP      r0,#4
        0x00019342:    bf24        $.      ITT      CS
        0x00019344:    2005        .       MOVCS    r0,#5
        0x00019346:    4770        pG      BXCS     lr
        0x00019348:    2900        .)      CMP      r1,#0
        0x0001934a:    bf04        ..      ITT      EQ
        0x0001934c:    2006        .       MOVEQ    r0,#6
        0x0001934e:    4770        pG      BXEQ     lr
        0x00019350:    b410        ..      PUSH     {r4}
        0x00019352:    680a        .h      LDR      r2,[r1,#0]
        0x00019354:    4c18        .L      LDR      r4,[pc,#96] ; [0x193b8] = 0xea9e06
        0x00019356:    2a00        .*      CMP      r2,#0
        0x00019358:    bf1c        ..      ITT      NE
        0x0001935a:    6812        .h      LDRNE    r2,[r2,#0]
        0x0001935c:    f0127f80    ....    TSTNE    r2,#0x1000000
        0x00019360:    d006        ..      BEQ      0x19370 ; am_hal_uart_initialize + 48
        0x00019362:    f022427f    "..B    BIC      r2,r2,#0xff000000
        0x00019366:    42a2        .B      CMP      r2,r4
        0x00019368:    bf02        ..      ITTT     EQ
        0x0001936a:    2007        .       MOVEQ    r0,#7
        0x0001936c:    bc10        ..      POPEQ    {r4}
        0x0001936e:    4770        pG      BXEQ     lr
        0x00019370:    ebc002c0    ....    RSB      r2,r0,r0,LSL #3
        0x00019374:    eb021c00    ....    ADD      r12,r2,r0,LSL #4
        0x00019378:    4b10        .K      LDR      r3,[pc,#64] ; [0x193bc] = 0x10000160
        0x0001937a:    f853203c    S.<     LDR      r2,[r3,r12,LSL #3]
        0x0001937e:    f0427280    B..r    ORR      r2,r2,#0x1000000
        0x00019382:    f3640217    d...    BFI      r2,r4,#0,#24
        0x00019386:    f843203c    C.<     STR      r2,[r3,r12,LSL #3]
        0x0001938a:    eb0302cc    ....    ADD      r2,r3,r12,LSL #3
        0x0001938e:    6250        Pb      STR      r0,[r2,#0x24]
        0x00019390:    2000        .       MOVS     r0,#0
        0x00019392:    7110        .q      STRB     r0,[r2,#4]
        0x00019394:    6290        .b      STR      r0,[r2,#0x28]
        0x00019396:    f882002c    ..,.    STRB     r0,[r2,#0x2c]
        0x0001939a:    f8820054    ..T.    STRB     r0,[r2,#0x54]
        0x0001939e:    f882007c    ..|.    STRB     r0,[r2,#0x7c]
        0x000193a2:    f8820098    ....    STRB     r0,[r2,#0x98]
        0x000193a6:    6790        .g      STR      r0,[r2,#0x78]
        0x000193a8:    6510        .e      STR      r0,[r2,#0x50]
        0x000193aa:    2001        .       MOVS     r0,#1
        0x000193ac:    f88200b4    ....    STRB     r0,[r2,#0xb4]
        0x000193b0:    600a        .`      STR      r2,[r1,#0]
        0x000193b2:    bc10        ..      POP      {r4}
        0x000193b4:    2000        .       MOVS     r0,#0
        0x000193b6:    4770        pG      BX       lr
    $d
        0x000193b8:    00ea9e06    ....    DCD    15375878
        0x000193bc:    10000160    `...    DCD    268435808
    $t
    i.am_hal_uart_power_control
    am_hal_uart_power_control
        0x000193c0:    b570        p.      PUSH     {r4-r6,lr}
        0x000193c2:    6a46        Fj      LDR      r6,[r0,#0x24]
        0x000193c4:    1e04        ..      SUBS     r4,r0,#0
        0x000193c6:    f1060309    ....    ADD      r3,r6,#9
        0x000193ca:    b2db        ..      UXTB     r3,r3
        0x000193cc:    bf1c        ..      ITT      NE
        0x000193ce:    6820         h      LDRNE    r0,[r4,#0]
        0x000193d0:    f0107f80    ....    TSTNE    r0,#0x1000000
        0x000193d4:    d005        ..      BEQ      0x193e2 ; am_hal_uart_power_control + 34
        0x000193d6:    f8dfc0cc    ....    LDR      r12,[pc,#204] ; [0x194a4] = 0xea9e06
        0x000193da:    f020407f     ..@    BIC      r0,r0,#0xff000000
        0x000193de:    4560        `E      CMP      r0,r12
        0x000193e0:    d001        ..      BEQ      0x193e6 ; am_hal_uart_power_control + 38
        0x000193e2:    2002        .       MOVS     r0,#2
        0x000193e4:    bd70        p.      POP      {r4-r6,pc}
        0x000193e6:    2500        .%      MOVS     r5,#0
        0x000193e8:    2900        .)      CMP      r1,#0
        0x000193ea:    d038        8.      BEQ      0x1945e ; am_hal_uart_power_control + 158
        0x000193ec:    2901        .)      CMP      r1,#1
        0x000193ee:    bf1e        ..      ITTT     NE
        0x000193f0:    2902        .)      CMPNE    r1,#2
        0x000193f2:    2006        .       MOVNE    r0,#6
        0x000193f4:    bd70        p.      POPNE    {r4-r6,pc}
        0x000193f6:    b1b2        ..      CBZ      r2,0x19426 ; am_hal_uart_power_control + 102
        0x000193f8:    ea4f3006    O..0    LSL      r0,r6,#12
        0x000193fc:    f1004080    ...@    ADD      r0,r0,#0x40000000
        0x00019400:    f50030e0    ...0    ADD      r0,r0,#0x1c000
        0x00019404:    6a01        .j      LDR      r1,[r0,#0x20]
        0x00019406:    60a1        .`      STR      r1,[r4,#8]
        0x00019408:    6a41        Aj      LDR      r1,[r0,#0x24]
        0x0001940a:    60e1        .`      STR      r1,[r4,#0xc]
        0x0001940c:    6a81        .j      LDR      r1,[r0,#0x28]
        0x0001940e:    6121        !a      STR      r1,[r4,#0x10]
        0x00019410:    6ac1        .j      LDR      r1,[r0,#0x2c]
        0x00019412:    6161        aa      STR      r1,[r4,#0x14]
        0x00019414:    6b01        .k      LDR      r1,[r0,#0x30]
        0x00019416:    61a1        .a      STR      r1,[r4,#0x18]
        0x00019418:    6b41        Ak      LDR      r1,[r0,#0x34]
        0x0001941a:    61e1        .a      STR      r1,[r4,#0x1c]
        0x0001941c:    6b80        .k      LDR      r0,[r0,#0x38]
        0x0001941e:    6220         b      STR      r0,[r4,#0x20]
        0x00019420:    f04f0001    O...    MOV      r0,#1
        0x00019424:    7120         q      STRB     r0,[r4,#4]
        0x00019426:    6822        "h      LDR      r2,[r4,#0]
        0x00019428:    6a61        aj      LDR      r1,[r4,#0x24]
        0x0001942a:    f04f30ff    O..0    MOV      r0,#0xffffffff
        0x0001942e:    f0127f80    ....    TST      r2,#0x1000000
        0x00019432:    d009        ..      BEQ      0x19448 ; am_hal_uart_power_control + 136
        0x00019434:    f022427f    "..B    BIC      r2,r2,#0xff000000
        0x00019438:    4562        bE      CMP      r2,r12
        0x0001943a:    d105        ..      BNE      0x19448 ; am_hal_uart_power_control + 136
        0x0001943c:    0309        ..      LSLS     r1,r1,#12
        0x0001943e:    f1014180    ...A    ADD      r1,r1,#0x40000000
        0x00019442:    f50131e0    ...1    ADD      r1,r1,#0x1c000
        0x00019446:    6448        Hd      STR      r0,[r1,#0x44]
        0x00019448:    0330        0.      LSLS     r0,r6,#12
        0x0001944a:    f1004080    ...@    ADD      r0,r0,#0x40000000
        0x0001944e:    f50030e0    ...0    ADD      r0,r0,#0x1c000
        0x00019452:    6305        .c      STR      r5,[r0,#0x30]
        0x00019454:    4618        .F      MOV      r0,r3
        0x00019456:    f7fffced    ....    BL       am_hal_pwrctrl_periph_disable ; 0x18e34
        0x0001945a:    2000        .       MOVS     r0,#0
        0x0001945c:    bd70        p.      POP      {r4-r6,pc}
        0x0001945e:    b1e2        ..      CBZ      r2,0x1949a ; am_hal_uart_power_control + 218
        0x00019460:    7920         y      LDRB     r0,[r4,#4]
        0x00019462:    2800        .(      CMP      r0,#0
        0x00019464:    bf04        ..      ITT      EQ
        0x00019466:    2007        .       MOVEQ    r0,#7
        0x00019468:    bd70        p.      POPEQ    {r4-r6,pc}
        0x0001946a:    4618        .F      MOV      r0,r3
        0x0001946c:    f7fffd78    ..x.    BL       am_hal_pwrctrl_periph_enable ; 0x18f60
        0x00019470:    0330        0.      LSLS     r0,r6,#12
        0x00019472:    f1004080    ...@    ADD      r0,r0,#0x40000000
        0x00019476:    f50030e0    ...0    ADD      r0,r0,#0x1c000
        0x0001947a:    68a1        .h      LDR      r1,[r4,#8]
        0x0001947c:    6201        .b      STR      r1,[r0,#0x20]
        0x0001947e:    68e1        .h      LDR      r1,[r4,#0xc]
        0x00019480:    6241        Ab      STR      r1,[r0,#0x24]
        0x00019482:    6921        !i      LDR      r1,[r4,#0x10]
        0x00019484:    6281        .b      STR      r1,[r0,#0x28]
        0x00019486:    6961        ai      LDR      r1,[r4,#0x14]
        0x00019488:    62c1        .b      STR      r1,[r0,#0x2c]
        0x0001948a:    69a1        .i      LDR      r1,[r4,#0x18]
        0x0001948c:    6301        .c      STR      r1,[r0,#0x30]
        0x0001948e:    69e1        .i      LDR      r1,[r4,#0x1c]
        0x00019490:    6341        Ac      STR      r1,[r0,#0x34]
        0x00019492:    6a21        !j      LDR      r1,[r4,#0x20]
        0x00019494:    6381        .c      STR      r1,[r0,#0x38]
        0x00019496:    7125        %q      STRB     r5,[r4,#4]
        0x00019498:    e7df        ..      B        0x1945a ; am_hal_uart_power_control + 154
        0x0001949a:    4618        .F      MOV      r0,r3
        0x0001949c:    f7fffd60    ..`.    BL       am_hal_pwrctrl_periph_enable ; 0x18f60
        0x000194a0:    e7db        ..      B        0x1945a ; am_hal_uart_power_control + 154
    $d
        0x000194a2:    0000        ..      DCW    0
        0x000194a4:    00ea9e06    ....    DCD    15375878
    $t
    i.am_hal_uart_transfer
    am_hal_uart_transfer
        0x000194a8:    e92d4ff8    -..O    PUSH     {r3-r11,lr}
        0x000194ac:    460d        .F      MOV      r5,r1
        0x000194ae:    4604        .F      MOV      r4,r0
        0x000194b0:    780a        .x      LDRB     r2,[r1,#0]
        0x000194b2:    2002        .       MOVS     r0,#2
        0x000194b4:    4999        .I      LDR      r1,[pc,#612] ; [0x1971c] = 0xea9e06
        0x000194b6:    4f9a        .O      LDR      r7,[pc,#616] ; [0x19720] = 0x8000004
        0x000194b8:    f04f0901    O...    MOV      r9,#1
        0x000194bc:    f04f0a04    O...    MOV      r10,#4
        0x000194c0:    2600        .&      MOVS     r6,#0
        0x000194c2:    b352        R.      CBZ      r2,0x1951a ; am_hal_uart_transfer + 114
        0x000194c4:    f1070801    ....    ADD      r8,r7,#1
        0x000194c8:    2a01        .*      CMP      r2,#1
        0x000194ca:    d07b        {.      BEQ      0x195c4 ; am_hal_uart_transfer + 284
        0x000194cc:    2a02        .*      CMP      r2,#2
        0x000194ce:    f00080cd    ....    BEQ.W    0x1966c ; am_hal_uart_transfer + 452
        0x000194d2:    2a03        .*      CMP      r2,#3
        0x000194d4:    bf1c        ..      ITT      NE
        0x000194d6:    2001        .       MOVNE    r0,#1
        0x000194d8:    e8bd8ff8    ....    POPNE    {r3-r11,pc}
        0x000194dc:    68ea        .h      LDR      r2,[r5,#0xc]
        0x000194de:    2c00        .,      CMP      r4,#0
        0x000194e0:    bf1a        ..      ITTE     NE
        0x000194e2:    6823        #h      LDRNE    r3,[r4,#0]
        0x000194e4:    f0137f80    ....    TSTNE    r3,#0x1000000
        0x000194e8:    e8bd8ff8    ....    POPEQ    {r3-r11,pc}
        0x000194ec:    f023437f    #..C    BIC      r3,r3,#0xff000000
        0x000194f0:    428b        .B      CMP      r3,r1
        0x000194f2:    bf18        ..      IT       NE
        0x000194f4:    e8bd8ff8    ....    POPNE    {r3-r11,pc}
        0x000194f8:    2a00        .*      CMP      r2,#0
        0x000194fa:    bf18        ..      IT       NE
        0x000194fc:    6016        .`      STRNE    r6,[r2,#0]
        0x000194fe:    f7fefeff    ....    BL       am_hal_interrupt_master_disable ; 0x18300
        0x00019502:    9000        ..      STR      r0,[sp,#0]
        0x00019504:    f894002c    ..,.    LDRB     r0,[r4,#0x2c]
        0x00019508:    2800        .(      CMP      r0,#0
        0x0001950a:    f00080e9    ....    BEQ.W    0x196e0 ; am_hal_uart_transfer + 568
        0x0001950e:    9800        ..      LDR      r0,[sp,#0]
        0x00019510:    f7fefefa    ....    BL       am_hal_interrupt_master_set ; 0x18308
        0x00019514:    4640        @F      MOV      r0,r8
        0x00019516:    e8bd8ff8    ....    POP      {r3-r11,pc}
        0x0001951a:    68ea        .h      LDR      r2,[r5,#0xc]
        0x0001951c:    f04f0800    O...    MOV      r8,#0
        0x00019520:    2c00        .,      CMP      r4,#0
        0x00019522:    bf1a        ..      ITTE     NE
        0x00019524:    6823        #h      LDRNE    r3,[r4,#0]
        0x00019526:    f0137f80    ....    TSTNE    r3,#0x1000000
        0x0001952a:    e8bd8ff8    ....    POPEQ    {r3-r11,pc}
        0x0001952e:    f023437f    #..C    BIC      r3,r3,#0xff000000
        0x00019532:    428b        .B      CMP      r3,r1
        0x00019534:    bf18        ..      IT       NE
        0x00019536:    e8bd8ff8    ....    POPNE    {r3-r11,pc}
        0x0001953a:    2a00        .*      CMP      r2,#0
        0x0001953c:    bf18        ..      IT       NE
        0x0001953e:    6016        .`      STRNE    r6,[r2,#0]
        0x00019540:    f7fefede    ....    BL       am_hal_interrupt_master_disable ; 0x18300
        0x00019544:    9000        ..      STR      r0,[sp,#0]
        0x00019546:    f8940054    ..T.    LDRB     r0,[r4,#0x54]
        0x0001954a:    2800        .(      CMP      r0,#0
        0x0001954c:    d17e        ~.      BNE      0x1964c ; am_hal_uart_transfer + 420
        0x0001954e:    f8849054    ..T.    STRB     r9,[r4,#0x54]
        0x00019552:    7829        )x      LDRB     r1,[r5,#0]
        0x00019554:    f8841058    ..X.    STRB     r1,[r4,#0x58]
        0x00019558:    6869        ih      LDR      r1,[r5,#4]
        0x0001955a:    65e1        .e      STR      r1,[r4,#0x5c]
        0x0001955c:    68a9        .h      LDR      r1,[r5,#8]
        0x0001955e:    6621        !f      STR      r1,[r4,#0x60]
        0x00019560:    68e9        .h      LDR      r1,[r5,#0xc]
        0x00019562:    6661        af      STR      r1,[r4,#0x64]
        0x00019564:    6929        )i      LDR      r1,[r5,#0x10]
        0x00019566:    66a1        .f      STR      r1,[r4,#0x68]
        0x00019568:    6969        ii      LDR      r1,[r5,#0x14]
        0x0001956a:    66e1        .f      STR      r1,[r4,#0x6c]
        0x0001956c:    69a9        .i      LDR      r1,[r5,#0x18]
        0x0001956e:    6721        !g      STR      r1,[r4,#0x70]
        0x00019570:    4620         F      MOV      r0,r4
        0x00019572:    69e9        .i      LDR      r1,[r5,#0x1c]
        0x00019574:    6761        ag      STR      r1,[r4,#0x74]
        0x00019576:    6786        .g      STR      r6,[r0,#0x78]
        0x00019578:    f88060b4    ...`    STRB     r6,[r0,#0xb4]
        0x0001957c:    9800        ..      LDR      r0,[sp,#0]
        0x0001957e:    f7fefec3    ....    BL       am_hal_interrupt_master_set ; 0x18308
        0x00019582:    4620         F      MOV      r0,r4
        0x00019584:    f000fff1    ....    BL       nonblocking_write_sm ; 0x1a56a
        0x00019588:    f8940054    ..T.    LDRB     r0,[r4,#0x54]
        0x0001958c:    2800        .(      CMP      r0,#0
        0x0001958e:    d067        g.      BEQ      0x19660 ; am_hal_uart_transfer + 440
        0x00019590:    4620         F      MOV      r0,r4
        0x00019592:    f000ffea    ....    BL       nonblocking_write_sm ; 0x1a56a
        0x00019596:    f44f707a    O.zp    MOV      r0,#0x3e8
        0x0001959a:    f7fff8e7    ....    BL       am_hal_delay_us ; 0x1876c
        0x0001959e:    6928        (i      LDR      r0,[r5,#0x10]
        0x000195a0:    f1b03fff    ...?    CMP      r0,#0xffffffff
        0x000195a4:    d009        ..      BEQ      0x195ba ; am_hal_uart_transfer + 274
        0x000195a6:    f1080801    ....    ADD      r8,r8,#1
        0x000195aa:    4540        @E      CMP      r0,r8
        0x000195ac:    d105        ..      BNE      0x195ba ; am_hal_uart_transfer + 274
        0x000195ae:    f8846054    ..T`    STRB     r6,[r4,#0x54]
        0x000195b2:    4650        PF      MOV      r0,r10
        0x000195b4:    e8bd8ff8    ....    POP      {r3-r11,pc}
        0x000195b8:    e004        ..      B        0x195c4 ; am_hal_uart_transfer + 284
        0x000195ba:    f8940054    ..T.    LDRB     r0,[r4,#0x54]
        0x000195be:    2800        .(      CMP      r0,#0
        0x000195c0:    d1e6        ..      BNE      0x19590 ; am_hal_uart_transfer + 232
        0x000195c2:    e0a7        ..      B        0x19714 ; am_hal_uart_transfer + 620
        0x000195c4:    2700        .'      MOVS     r7,#0
        0x000195c6:    68ea        .h      LDR      r2,[r5,#0xc]
        0x000195c8:    2c00        .,      CMP      r4,#0
        0x000195ca:    bf1c        ..      ITT      NE
        0x000195cc:    6823        #h      LDRNE    r3,[r4,#0]
        0x000195ce:    f0137f80    ....    TSTNE    r3,#0x1000000
        0x000195d2:    d003        ..      BEQ      0x195dc ; am_hal_uart_transfer + 308
        0x000195d4:    f023437f    #..C    BIC      r3,r3,#0xff000000
        0x000195d8:    428b        .B      CMP      r3,r1
        0x000195da:    d001        ..      BEQ      0x195e0 ; am_hal_uart_transfer + 312
        0x000195dc:    4606        .F      MOV      r6,r0
        0x000195de:    e099        ..      B        0x19714 ; am_hal_uart_transfer + 620
        0x000195e0:    2a00        .*      CMP      r2,#0
        0x000195e2:    bf18        ..      IT       NE
        0x000195e4:    6016        .`      STRNE    r6,[r2,#0]
        0x000195e6:    f7fefe8b    ....    BL       am_hal_interrupt_master_disable ; 0x18300
        0x000195ea:    9000        ..      STR      r0,[sp,#0]
        0x000195ec:    f894002c    ..,.    LDRB     r0,[r4,#0x2c]
        0x000195f0:    b120         .      CBZ      r0,0x195fc ; am_hal_uart_transfer + 340
        0x000195f2:    4646        FF      MOV      r6,r8
        0x000195f4:    9800        ..      LDR      r0,[sp,#0]
        0x000195f6:    f7fefe87    ....    BL       am_hal_interrupt_master_set ; 0x18308
        0x000195fa:    e08b        ..      B        0x19714 ; am_hal_uart_transfer + 620
        0x000195fc:    f884902c    ..,.    STRB     r9,[r4,#0x2c]
        0x00019600:    7829        )x      LDRB     r1,[r5,#0]
        0x00019602:    f8841030    ..0.    STRB     r1,[r4,#0x30]
        0x00019606:    6869        ih      LDR      r1,[r5,#4]
        0x00019608:    6361        ac      STR      r1,[r4,#0x34]
        0x0001960a:    68a9        .h      LDR      r1,[r5,#8]
        0x0001960c:    63a1        .c      STR      r1,[r4,#0x38]
        0x0001960e:    68e9        .h      LDR      r1,[r5,#0xc]
        0x00019610:    63e1        .c      STR      r1,[r4,#0x3c]
        0x00019612:    6929        )i      LDR      r1,[r5,#0x10]
        0x00019614:    6421        !d      STR      r1,[r4,#0x40]
        0x00019616:    6969        ii      LDR      r1,[r5,#0x14]
        0x00019618:    6461        ad      STR      r1,[r4,#0x44]
        0x0001961a:    69a9        .i      LDR      r1,[r5,#0x18]
        0x0001961c:    64a1        .d      STR      r1,[r4,#0x48]
        0x0001961e:    4620         F      MOV      r0,r4
        0x00019620:    69e9        .i      LDR      r1,[r5,#0x1c]
        0x00019622:    64e1        .d      STR      r1,[r4,#0x4c]
        0x00019624:    6506        .e      STR      r6,[r0,#0x50]
        0x00019626:    9800        ..      LDR      r0,[sp,#0]
        0x00019628:    f7fefe6e    ..n.    BL       am_hal_interrupt_master_set ; 0x18308
        0x0001962c:    4620         F      MOV      r0,r4
        0x0001962e:    f000ff02    ....    BL       nonblocking_read_sm ; 0x1a436
        0x00019632:    f894002c    ..,.    LDRB     r0,[r4,#0x2c]
        0x00019636:    2800        .(      CMP      r0,#0
        0x00019638:    d06c        l.      BEQ      0x19714 ; am_hal_uart_transfer + 620
        0x0001963a:    4620         F      MOV      r0,r4
        0x0001963c:    f000fefb    ....    BL       nonblocking_read_sm ; 0x1a436
        0x00019640:    f44f707a    O.zp    MOV      r0,#0x3e8
        0x00019644:    f7fff892    ....    BL       am_hal_delay_us ; 0x1876c
        0x00019648:    6928        (i      LDR      r0,[r5,#0x10]
        0x0001964a:    e000        ..      B        0x1964e ; am_hal_uart_transfer + 422
        0x0001964c:    e025        %.      B        0x1969a ; am_hal_uart_transfer + 498
        0x0001964e:    f1b03fff    ...?    CMP      r0,#0xffffffff
        0x00019652:    d006        ..      BEQ      0x19662 ; am_hal_uart_transfer + 442
        0x00019654:    1c7f        ..      ADDS     r7,r7,#1
        0x00019656:    42b8        .B      CMP      r0,r7
        0x00019658:    d103        ..      BNE      0x19662 ; am_hal_uart_transfer + 442
        0x0001965a:    f884602c    ..,`    STRB     r6,[r4,#0x2c]
        0x0001965e:    4656        VF      MOV      r6,r10
        0x00019660:    e058        X.      B        0x19714 ; am_hal_uart_transfer + 620
        0x00019662:    f894002c    ..,.    LDRB     r0,[r4,#0x2c]
        0x00019666:    2800        .(      CMP      r0,#0
        0x00019668:    d1e7        ..      BNE      0x1963a ; am_hal_uart_transfer + 402
        0x0001966a:    e053        S.      B        0x19714 ; am_hal_uart_transfer + 620
        0x0001966c:    68ea        .h      LDR      r2,[r5,#0xc]
        0x0001966e:    2c00        .,      CMP      r4,#0
        0x00019670:    bf1a        ..      ITTE     NE
        0x00019672:    6823        #h      LDRNE    r3,[r4,#0]
        0x00019674:    f0137f80    ....    TSTNE    r3,#0x1000000
        0x00019678:    e8bd8ff8    ....    POPEQ    {r3-r11,pc}
        0x0001967c:    f023437f    #..C    BIC      r3,r3,#0xff000000
        0x00019680:    428b        .B      CMP      r3,r1
        0x00019682:    bf18        ..      IT       NE
        0x00019684:    e8bd8ff8    ....    POPNE    {r3-r11,pc}
        0x00019688:    2a00        .*      CMP      r2,#0
        0x0001968a:    bf18        ..      IT       NE
        0x0001968c:    6016        .`      STRNE    r6,[r2,#0]
        0x0001968e:    f7fefe37    ..7.    BL       am_hal_interrupt_master_disable ; 0x18300
        0x00019692:    9000        ..      STR      r0,[sp,#0]
        0x00019694:    f8940054    ..T.    LDRB     r0,[r4,#0x54]
        0x00019698:    b128        (.      CBZ      r0,0x196a6 ; am_hal_uart_transfer + 510
        0x0001969a:    9800        ..      LDR      r0,[sp,#0]
        0x0001969c:    f7fefe34    ..4.    BL       am_hal_interrupt_master_set ; 0x18308
        0x000196a0:    4638        8F      MOV      r0,r7
        0x000196a2:    e8bd8ff8    ....    POP      {r3-r11,pc}
        0x000196a6:    f8849054    ..T.    STRB     r9,[r4,#0x54]
        0x000196aa:    7828        (x      LDRB     r0,[r5,#0]
        0x000196ac:    f8840058    ..X.    STRB     r0,[r4,#0x58]
        0x000196b0:    6868        hh      LDR      r0,[r5,#4]
        0x000196b2:    65e0        .e      STR      r0,[r4,#0x5c]
        0x000196b4:    68a8        .h      LDR      r0,[r5,#8]
        0x000196b6:    6620         f      STR      r0,[r4,#0x60]
        0x000196b8:    68e8        .h      LDR      r0,[r5,#0xc]
        0x000196ba:    6660        `f      STR      r0,[r4,#0x64]
        0x000196bc:    6928        (i      LDR      r0,[r5,#0x10]
        0x000196be:    66a0        .f      STR      r0,[r4,#0x68]
        0x000196c0:    6968        hi      LDR      r0,[r5,#0x14]
        0x000196c2:    66e0        .f      STR      r0,[r4,#0x6c]
        0x000196c4:    69a8        .i      LDR      r0,[r5,#0x18]
        0x000196c6:    6720         g      STR      r0,[r4,#0x70]
        0x000196c8:    69e8        .i      LDR      r0,[r5,#0x1c]
        0x000196ca:    67a6        .g      STR      r6,[r4,#0x78]
        0x000196cc:    6760        `g      STR      r0,[r4,#0x74]
        0x000196ce:    f88460b4    ...`    STRB     r6,[r4,#0xb4]
        0x000196d2:    9800        ..      LDR      r0,[sp,#0]
        0x000196d4:    f7fefe18    ....    BL       am_hal_interrupt_master_set ; 0x18308
        0x000196d8:    4620         F      MOV      r0,r4
        0x000196da:    f000ff46    ..F.    BL       nonblocking_write_sm ; 0x1a56a
        0x000196de:    e019        ..      B        0x19714 ; am_hal_uart_transfer + 620
        0x000196e0:    f884902c    ..,.    STRB     r9,[r4,#0x2c]
        0x000196e4:    7828        (x      LDRB     r0,[r5,#0]
        0x000196e6:    f8840030    ..0.    STRB     r0,[r4,#0x30]
        0x000196ea:    6868        hh      LDR      r0,[r5,#4]
        0x000196ec:    6360        `c      STR      r0,[r4,#0x34]
        0x000196ee:    68a8        .h      LDR      r0,[r5,#8]
        0x000196f0:    63a0        .c      STR      r0,[r4,#0x38]
        0x000196f2:    68e8        .h      LDR      r0,[r5,#0xc]
        0x000196f4:    63e0        .c      STR      r0,[r4,#0x3c]
        0x000196f6:    6928        (i      LDR      r0,[r5,#0x10]
        0x000196f8:    6420         d      STR      r0,[r4,#0x40]
        0x000196fa:    6968        hi      LDR      r0,[r5,#0x14]
        0x000196fc:    6460        `d      STR      r0,[r4,#0x44]
        0x000196fe:    69a8        .i      LDR      r0,[r5,#0x18]
        0x00019700:    64a0        .d      STR      r0,[r4,#0x48]
        0x00019702:    69e8        .i      LDR      r0,[r5,#0x1c]
        0x00019704:    6526        &e      STR      r6,[r4,#0x50]
        0x00019706:    64e0        .d      STR      r0,[r4,#0x4c]
        0x00019708:    9800        ..      LDR      r0,[sp,#0]
        0x0001970a:    f7fefdfd    ....    BL       am_hal_interrupt_master_set ; 0x18308
        0x0001970e:    4620         F      MOV      r0,r4
        0x00019710:    f000fe91    ....    BL       nonblocking_read_sm ; 0x1a436
        0x00019714:    4630        0F      MOV      r0,r6
        0x00019716:    e8bd8ff8    ....    POP      {r3-r11,pc}
    $d
        0x0001971a:    0000        ..      DCW    0
        0x0001971c:    00ea9e06    ....    DCD    15375878
        0x00019720:    08000004    ....    DCD    134217732
    $t
    i.am_hal_uart_tx_flush
    am_hal_uart_tx_flush
        0x00019724:    b570        p.      PUSH     {r4-r6,lr}
        0x00019726:    4604        .F      MOV      r4,r0
        0x00019728:    6a41        Aj      LDR      r1,[r0,#0x24]
        0x0001972a:    f89000b4    ....    LDRB     r0,[r0,#0xb4]
        0x0001972e:    2801        .(      CMP      r0,#1
        0x00019730:    d044        D.      BEQ      0x197bc ; am_hal_uart_tx_flush + 152
        0x00019732:    0308        ..      LSLS     r0,r1,#12
        0x00019734:    f1004580    ...E    ADD      r5,r0,#0x40000000
        0x00019738:    f50535e0    ...5    ADD      r5,r5,#0x1c000
        0x0001973c:    6ba8        .k      LDR      r0,[r5,#0x38]
        0x0001973e:    4e21        !N      LDR      r6,[pc,#132] ; [0x197c4] = 0xf4240
        0x00019740:    f0100f01    ....    TST      r0,#1
        0x00019744:    d010        ..      BEQ      0x19768 ; am_hal_uart_tx_flush + 68
        0x00019746:    f89400b4    ....    LDRB     r0,[r4,#0xb4]
        0x0001974a:    bbb8        ..      CBNZ     r0,0x197bc ; am_hal_uart_tx_flush + 152
        0x0001974c:    6aa0        .j      LDR      r0,[r4,#0x28]
        0x0001974e:    fbb6f0f0    ....    UDIV     r0,r6,r0
        0x00019752:    1c40        @.      ADDS     r0,r0,#1
        0x00019754:    eb000080    ....    ADD      r0,r0,r0,LSL #2
        0x00019758:    0040        @.      LSLS     r0,r0,#1
        0x0001975a:    f7fff807    ....    BL       am_hal_delay_us ; 0x1876c
        0x0001975e:    f89400b4    ....    LDRB     r0,[r4,#0xb4]
        0x00019762:    2800        .(      CMP      r0,#0
        0x00019764:    d0f2        ..      BEQ      0x1974c ; am_hal_uart_tx_flush + 40
        0x00019766:    e029        ).      B        0x197bc ; am_hal_uart_tx_flush + 152
        0x00019768:    f894007c    ..|.    LDRB     r0,[r4,#0x7c]
        0x0001976c:    2800        .(      CMP      r0,#0
        0x0001976e:    bf1c        ..      ITT      NE
        0x00019770:    f8d40088    ....    LDRNE    r0,[r4,#0x88]
        0x00019774:    2800        .(      CMPNE    r0,#0
        0x00019776:    d00e        ..      BEQ      0x19796 ; am_hal_uart_tx_flush + 114
        0x00019778:    6aa0        .j      LDR      r0,[r4,#0x28]
        0x0001977a:    fbb6f0f0    ....    UDIV     r0,r6,r0
        0x0001977e:    f1000001    ....    ADD      r0,r0,#1
        0x00019782:    eb000080    ....    ADD      r0,r0,r0,LSL #2
        0x00019786:    ea4f0040    O.@.    LSL      r0,r0,#1
        0x0001978a:    f7feffef    ....    BL       am_hal_delay_us ; 0x1876c
        0x0001978e:    f8d40088    ....    LDR      r0,[r4,#0x88]
        0x00019792:    2800        .(      CMP      r0,#0
        0x00019794:    d1f0        ..      BNE      0x19778 ; am_hal_uart_tx_flush + 84
        0x00019796:    69a8        .i      LDR      r0,[r5,#0x18]
        0x00019798:    f0100f08    ....    TST      r0,#8
        0x0001979c:    d00e        ..      BEQ      0x197bc ; am_hal_uart_tx_flush + 152
        0x0001979e:    6aa0        .j      LDR      r0,[r4,#0x28]
        0x000197a0:    fbb6f0f0    ....    UDIV     r0,r6,r0
        0x000197a4:    f1000001    ....    ADD      r0,r0,#1
        0x000197a8:    eb000080    ....    ADD      r0,r0,r0,LSL #2
        0x000197ac:    ea4f0040    O.@.    LSL      r0,r0,#1
        0x000197b0:    f7feffdc    ....    BL       am_hal_delay_us ; 0x1876c
        0x000197b4:    69a8        .i      LDR      r0,[r5,#0x18]
        0x000197b6:    f0100f08    ....    TST      r0,#8
        0x000197ba:    d1f0        ..      BNE      0x1979e ; am_hal_uart_tx_flush + 122
        0x000197bc:    f04f0000    O...    MOV      r0,#0
        0x000197c0:    bd70        p.      POP      {r4-r6,pc}
    $d
        0x000197c2:    0000        ..      DCW    0
        0x000197c4:    000f4240    @B..    DCD    1000000
    $t
    i.am_util_faultisr_collect_data
    am_util_faultisr_collect_data
        0x000197c8:    b092        ..      SUB      sp,sp,#0x48
        0x000197ca:    4604        .F      MOV      r4,r0
        0x000197cc:    2000        .       MOVS     r0,#0
        0x000197ce:    900c        ..      STR      r0,[sp,#0x30]
        0x000197d0:    900f        ..      STR      r0,[sp,#0x3c]
        0x000197d2:    900d        ..      STR      r0,[sp,#0x34]
        0x000197d4:    900e        ..      STR      r0,[sp,#0x38]
        0x000197d6:    9010        ..      STR      r0,[sp,#0x40]
        0x000197d8:    9011        ..      STR      r0,[sp,#0x44]
        0x000197da:    900a        ..      STR      r0,[sp,#0x28]
        0x000197dc:    4824        $H      LDR      r0,[pc,#144] ; [0x19870] = 0xe000ed28
        0x000197de:    6800        .h      LDR      r0,[r0,#0]
        0x000197e0:    900a        ..      STR      r0,[sp,#0x28]
        0x000197e2:    980a        ..      LDR      r0,[sp,#0x28]
        0x000197e4:    f88d002c    ..,.    STRB     r0,[sp,#0x2c]
        0x000197e8:    980a        ..      LDR      r0,[sp,#0x28]
        0x000197ea:    0a00        ..      LSRS     r0,r0,#8
        0x000197ec:    f88d002d    ..-.    STRB     r0,[sp,#0x2d]
        0x000197f0:    980a        ..      LDR      r0,[sp,#0x28]
        0x000197f2:    0c00        ..      LSRS     r0,r0,#16
        0x000197f4:    f8ad002e    ....    STRH     r0,[sp,#0x2e]
        0x000197f8:    481e        .H      LDR      r0,[pc,#120] ; [0x19874] = 0xe000ed38
        0x000197fa:    6800        .h      LDR      r0,[r0,#0]
        0x000197fc:    9009        ..      STR      r0,[sp,#0x24]
        0x000197fe:    f89d002d    ..-.    LDRB     r0,[sp,#0x2d]
        0x00019802:    f0100f02    ....    TST      r0,#2
        0x00019806:    bf08        ..      IT       EQ
        0x00019808:    f04f30ff    O..0    MOVEQ    r0,#0xffffffff
        0x0001980c:    d003        ..      BEQ      0x19816 ; am_util_faultisr_collect_data + 78
        0x0001980e:    4621        !F      MOV      r1,r4
        0x00019810:    2006        .       MOVS     r0,#6
        0x00019812:    f7fefd6c    ..l.    BL       getStackedReg ; 0x182ee
        0x00019816:    9008        ..      STR      r0,[sp,#0x20]
        0x00019818:    4621        !F      MOV      r1,r4
        0x0001981a:    2000        .       MOVS     r0,#0
        0x0001981c:    f7fefd67    ..g.    BL       getStackedReg ; 0x182ee
        0x00019820:    9000        ..      STR      r0,[sp,#0]
        0x00019822:    4621        !F      MOV      r1,r4
        0x00019824:    2001        .       MOVS     r0,#1
        0x00019826:    f7fefd62    ..b.    BL       getStackedReg ; 0x182ee
        0x0001982a:    9001        ..      STR      r0,[sp,#4]
        0x0001982c:    4621        !F      MOV      r1,r4
        0x0001982e:    2002        .       MOVS     r0,#2
        0x00019830:    f7fefd5d    ..].    BL       getStackedReg ; 0x182ee
        0x00019834:    9002        ..      STR      r0,[sp,#8]
        0x00019836:    4621        !F      MOV      r1,r4
        0x00019838:    2003        .       MOVS     r0,#3
        0x0001983a:    f7fefd58    ..X.    BL       getStackedReg ; 0x182ee
        0x0001983e:    9003        ..      STR      r0,[sp,#0xc]
        0x00019840:    4621        !F      MOV      r1,r4
        0x00019842:    2004        .       MOVS     r0,#4
        0x00019844:    f7fefd53    ..S.    BL       getStackedReg ; 0x182ee
        0x00019848:    9004        ..      STR      r0,[sp,#0x10]
        0x0001984a:    4621        !F      MOV      r1,r4
        0x0001984c:    2005        .       MOVS     r0,#5
        0x0001984e:    f7fefd4e    ..N.    BL       getStackedReg ; 0x182ee
        0x00019852:    9005        ..      STR      r0,[sp,#0x14]
        0x00019854:    4621        !F      MOV      r1,r4
        0x00019856:    2006        .       MOVS     r0,#6
        0x00019858:    f7fefd49    ..I.    BL       getStackedReg ; 0x182ee
        0x0001985c:    9006        ..      STR      r0,[sp,#0x18]
        0x0001985e:    4621        !F      MOV      r1,r4
        0x00019860:    2007        .       MOVS     r0,#7
        0x00019862:    f7fefd44    ..D.    BL       getStackedReg ; 0x182ee
        0x00019866:    9007        ..      STR      r0,[sp,#0x1c]
        0x00019868:    a80c        ..      ADD      r0,sp,#0x30
        0x0001986a:    f7fefff3    ....    BL       am_hal_fault_status_get ; 0x18854
        0x0001986e:    e7fe        ..      B        0x1986e ; am_util_faultisr_collect_data + 166
    $d
        0x00019870:    e000ed28    (...    DCD    3758157096
        0x00019874:    e000ed38    8...    DCD    3758157112
    $t
    i.am_util_stdio_printf
    am_util_stdio_printf
        0x00019878:    b40f        ..      PUSH     {r0-r3}
        0x0001987a:    b570        p.      PUSH     {r4-r6,lr}
        0x0001987c:    4c09        .L      LDR      r4,[pc,#36] ; [0x198a4] = 0x10000000
        0x0001987e:    6860        `h      LDR      r0,[r4,#4]
        0x00019880:    2800        .(      CMP      r0,#0
        0x00019882:    bf04        ..      ITT      EQ
        0x00019884:    bc70        p.      POPEQ    {r4-r6}
        0x00019886:    f85dfb14    ]...    LDREQ    pc,[sp],#0x14
        0x0001988a:    aa05        ..      ADD      r2,sp,#0x14
        0x0001988c:    4806        .H      LDR      r0,[pc,#24] ; [0x198a8] = 0x10000060
        0x0001988e:    9904        ..      LDR      r1,[sp,#0x10]
        0x00019890:    f000f830    ..0.    BL       am_util_stdio_vsprintf ; 0x198f4
        0x00019894:    4605        .F      MOV      r5,r0
        0x00019896:    6861        ah      LDR      r1,[r4,#4]
        0x00019898:    4803        .H      LDR      r0,[pc,#12] ; [0x198a8] = 0x10000060
        0x0001989a:    4788        .G      BLX      r1
        0x0001989c:    4628        (F      MOV      r0,r5
        0x0001989e:    bc70        p.      POP      {r4-r6}
        0x000198a0:    f85dfb14    ]...    LDR      pc,[sp],#0x14
    $d
        0x000198a4:    10000000    ....    DCD    268435456
        0x000198a8:    10000060    `...    DCD    268435552
    $t
    i.am_util_stdio_printf_init
    am_util_stdio_printf_init
        0x000198ac:    4901        .I      LDR      r1,[pc,#4] ; [0x198b4] = 0x10000000
        0x000198ae:    6048        H`      STR      r0,[r1,#4]
        0x000198b0:    4770        pG      BX       lr
    $d
        0x000198b2:    0000        ..      DCW    0
        0x000198b4:    10000000    ....    DCD    268435456
    $t
    i.am_util_stdio_terminal_clear
    am_util_stdio_terminal_clear
        0x000198b8:    b538        8.      PUSH     {r3-r5,lr}
        0x000198ba:    4c0c        .L      LDR      r4,[pc,#48] ; [0x198ec] = 0x10000000
        0x000198bc:    a106        ..      ADR      r1,{pc}+0x1c ; 0x198d8
        0x000198be:    9100        ..      STR      r1,[sp,#0]
        0x000198c0:    6860        `h      LDR      r0,[r4,#4]
        0x000198c2:    2800        .(      CMP      r0,#0
        0x000198c4:    bf08        ..      IT       EQ
        0x000198c6:    bd38        8.      POPEQ    {r3-r5,pc}
        0x000198c8:    aa01        ..      ADD      r2,sp,#4
        0x000198ca:    4809        .H      LDR      r0,[pc,#36] ; [0x198f0] = 0x10000060
        0x000198cc:    f000f812    ....    BL       am_util_stdio_vsprintf ; 0x198f4
        0x000198d0:    6861        ah      LDR      r1,[r4,#4]
        0x000198d2:    4807        .H      LDR      r0,[pc,#28] ; [0x198f0] = 0x10000060
        0x000198d4:    4788        .G      BLX      r1
        0x000198d6:    bd38        8.      POP      {r3-r5,pc}
    $d
        0x000198d8:    0a0a0a0a    ....    DCD    168430090
        0x000198dc:    0a0a0a0a    ....    DCD    168430090
        0x000198e0:    0a0a0a0a    ....    DCD    168430090
        0x000198e4:    0a0a0a0a    ....    DCD    168430090
        0x000198e8:    00000a0a    ....    DCD    2570
        0x000198ec:    10000000    ....    DCD    268435456
        0x000198f0:    10000060    `...    DCD    268435552
    $t
    i.am_util_stdio_vsprintf
    am_util_stdio_vsprintf
        0x000198f4:    e92d4ff7    -..O    PUSH     {r0-r2,r4-r11,lr}
        0x000198f8:    4604        .F      MOV      r4,r0
        0x000198fa:    7808        .x      LDRB     r0,[r1,#0]
        0x000198fc:    2500        .%      MOVS     r5,#0
        0x000198fe:    b088        ..      SUB      sp,sp,#0x20
        0x00019900:    2800        .(      CMP      r0,#0
        0x00019902:    f0008385    ....    BEQ.W    0x1a010 ; am_util_stdio_vsprintf + 1820
        0x00019906:    bf00        ..      NOP      
        0x00019908:    b2c0        ..      UXTB     r0,r0
        0x0001990a:    f04f0906    O...    MOV      r9,#6
        0x0001990e:    2825        %(      CMP      r0,#0x25
        0x00019910:    d010        ..      BEQ      0x19934 ; am_util_stdio_vsprintf + 64
        0x00019912:    b15c        \.      CBZ      r4,0x1992c ; am_util_stdio_vsprintf + 56
        0x00019914:    280a        .(      CMP      r0,#0xa
        0x00019916:    d106        ..      BNE      0x19926 ; am_util_stdio_vsprintf + 50
        0x00019918:    48fe        .H      LDR      r0,[pc,#1016] ; [0x19d14] = 0x10000000
        0x0001991a:    7800        .x      LDRB     r0,[r0,#0]
        0x0001991c:    b118        ..      CBZ      r0,0x19926 ; am_util_stdio_vsprintf + 50
        0x0001991e:    200d        .       MOVS     r0,#0xd
        0x00019920:    f8040b01    ....    STRB     r0,[r4],#1
        0x00019924:    1c6d        m.      ADDS     r5,r5,#1
        0x00019926:    7808        .x      LDRB     r0,[r1,#0]
        0x00019928:    f8040b01    ....    STRB     r0,[r4],#1
        0x0001992c:    1c49        I.      ADDS     r1,r1,#1
        0x0001992e:    1c6d        m.      ADDS     r5,r5,#1
        0x00019930:    f000bb6a    ..j.    B.W      0x1a008 ; am_util_stdio_vsprintf + 1812
        0x00019934:    2020                MOVS     r0,#0x20
        0x00019936:    9001        ..      STR      r0,[sp,#4]
        0x00019938:    2700        .'      MOVS     r7,#0
        0x0001993a:    f8110f01    ....    LDRB     r0,[r1,#1]!
        0x0001993e:    46bc        .F      MOV      r12,r7
        0x00019940:    2830        0(      CMP      r0,#0x30
        0x00019942:    d101        ..      BNE      0x19948 ; am_util_stdio_vsprintf + 84
        0x00019944:    1c49        I.      ADDS     r1,r1,#1
        0x00019946:    9001        ..      STR      r0,[sp,#4]
        0x00019948:    2600        .&      MOVS     r6,#0
        0x0001994a:    f891a000    ....    LDRB     r10,[r1,#0]
        0x0001994e:    460a        .F      MOV      r2,r1
        0x00019950:    f10d0808    ....    ADD      r8,sp,#8
        0x00019954:    4630        0F      MOV      r0,r6
        0x00019956:    4633        3F      MOV      r3,r6
        0x00019958:    f1ba0f2d    ..-.    CMP      r10,#0x2d
        0x0001995c:    d102        ..      BNE      0x19964 ; am_util_stdio_vsprintf + 112
        0x0001995e:    2601        .&      MOVS     r6,#1
        0x00019960:    1c4a        J.      ADDS     r2,r1,#1
        0x00019962:    4633        3F      MOV      r3,r6
        0x00019964:    f892a000    ....    LDRB     r10,[r2,#0]
        0x00019968:    f1aa0a30    ..0.    SUB      r10,r10,#0x30
        0x0001996c:    f1ba0f09    ....    CMP      r10,#9
        0x00019970:    d80f        ..      BHI      0x19992 ; am_util_stdio_vsprintf + 158
        0x00019972:    bf00        ..      NOP      
        0x00019974:    eb000080    ....    ADD      r0,r0,r0,LSL #2
        0x00019978:    0040        @.      LSLS     r0,r0,#1
        0x0001997a:    f812ab01    ....    LDRB     r10,[r2],#1
        0x0001997e:    3830        08      SUBS     r0,r0,#0x30
        0x00019980:    4450        PD      ADD      r0,r0,r10
        0x00019982:    f892a000    ....    LDRB     r10,[r2,#0]
        0x00019986:    1c5b        [.      ADDS     r3,r3,#1
        0x00019988:    f1aa0a30    ..0.    SUB      r10,r10,#0x30
        0x0001998c:    f1ba0f09    ....    CMP      r10,#9
        0x00019990:    d9f0        ..      BLS      0x19974 ; am_util_stdio_vsprintf + 128
        0x00019992:    f1b80f00    ....    CMP      r8,#0
        0x00019996:    bf18        ..      IT       NE
        0x00019998:    9302        ..      STRNE    r3,[sp,#8]
        0x0001999a:    2e00        ..      CMP      r6,#0
        0x0001999c:    bf18        ..      IT       NE
        0x0001999e:    4240        @B      RSBNE    r0,r0,#0
        0x000199a0:    9000        ..      STR      r0,[sp,#0]
        0x000199a2:    9802        ..      LDR      r0,[sp,#8]
        0x000199a4:    180e        ..      ADDS     r6,r1,r0
        0x000199a6:    7830        0x      LDRB     r0,[r6,#0]
        0x000199a8:    2873        s(      CMP      r0,#0x73
        0x000199aa:    d037        7.      BEQ      0x19a1c ; am_util_stdio_vsprintf + 296
        0x000199ac:    9900        ..      LDR      r1,[sp,#0]
        0x000199ae:    2900        .)      CMP      r1,#0
        0x000199b0:    bfbc        ..      ITT      LT
        0x000199b2:    4249        IB      RSBLT    r1,r1,#0
        0x000199b4:    9100        ..      STRLT    r1,[sp,#0]
        0x000199b6:    282e        .(      CMP      r0,#0x2e
        0x000199b8:    d003        ..      BEQ      0x199c2 ; am_util_stdio_vsprintf + 206
        0x000199ba:    7830        0x      LDRB     r0,[r6,#0]
        0x000199bc:    286c        l(      CMP      r0,#0x6c
        0x000199be:    d12d        -.      BNE      0x19a1c ; am_util_stdio_vsprintf + 296
        0x000199c0:    e025        %.      B        0x19a0e ; am_util_stdio_vsprintf + 282
        0x000199c2:    1c72        r.      ADDS     r2,r6,#1
        0x000199c4:    2300        .#      MOVS     r3,#0
        0x000199c6:    7811        .x      LDRB     r1,[r2,#0]
        0x000199c8:    4616        .F      MOV      r6,r2
        0x000199ca:    4699        .F      MOV      r9,r3
        0x000199cc:    4618        .F      MOV      r0,r3
        0x000199ce:    292d        -)      CMP      r1,#0x2d
        0x000199d0:    d102        ..      BNE      0x199d8 ; am_util_stdio_vsprintf + 228
        0x000199d2:    2301        .#      MOVS     r3,#1
        0x000199d4:    1c56        V.      ADDS     r6,r2,#1
        0x000199d6:    4618        .F      MOV      r0,r3
        0x000199d8:    7831        1x      LDRB     r1,[r6,#0]
        0x000199da:    3930        09      SUBS     r1,r1,#0x30
        0x000199dc:    2909        .)      CMP      r1,#9
        0x000199de:    d80b        ..      BHI      0x199f8 ; am_util_stdio_vsprintf + 260
        0x000199e0:    eb090189    ....    ADD      r1,r9,r9,LSL #2
        0x000199e4:    0049        I.      LSLS     r1,r1,#1
        0x000199e6:    f8169b01    ....    LDRB     r9,[r6],#1
        0x000199ea:    3930        09      SUBS     r1,r1,#0x30
        0x000199ec:    4489        .D      ADD      r9,r9,r1
        0x000199ee:    7831        1x      LDRB     r1,[r6,#0]
        0x000199f0:    1c40        @.      ADDS     r0,r0,#1
        0x000199f2:    3930        09      SUBS     r1,r1,#0x30
        0x000199f4:    2909        .)      CMP      r1,#9
        0x000199f6:    d9f3        ..      BLS      0x199e0 ; am_util_stdio_vsprintf + 236
        0x000199f8:    f1b80f00    ....    CMP      r8,#0
        0x000199fc:    bf18        ..      IT       NE
        0x000199fe:    9002        ..      STRNE    r0,[sp,#8]
        0x00019a00:    2b00        .+      CMP      r3,#0
        0x00019a02:    bf18        ..      IT       NE
        0x00019a04:    f1c90900    ....    RSBNE    r9,r9,#0
        0x00019a08:    9802        ..      LDR      r0,[sp,#8]
        0x00019a0a:    1816        ..      ADDS     r6,r2,r0
        0x00019a0c:    e7d5        ..      B        0x199ba ; am_util_stdio_vsprintf + 198
        0x00019a0e:    f8160f01    ....    LDRB     r0,[r6,#1]!
        0x00019a12:    286c        l(      CMP      r0,#0x6c
        0x00019a14:    bf04        ..      ITT      EQ
        0x00019a16:    f04f0c01    O...    MOVEQ    r12,#1
        0x00019a1a:    1c76        v.      ADDEQ    r6,r6,#1
        0x00019a1c:    7830        0x      LDRB     r0,[r6,#0]
        0x00019a1e:    2866        f(      CMP      r0,#0x66
        0x00019a20:    f000822a    ..*.    BEQ.W    0x19e78 ; am_util_stdio_vsprintf + 1412
        0x00019a24:    dc0a        ..      BGT      0x19a3c ; am_util_stdio_vsprintf + 328
        0x00019a26:    2846        F(      CMP      r0,#0x46
        0x00019a28:    f0008226    ..&.    BEQ.W    0x19e78 ; am_util_stdio_vsprintf + 1412
        0x00019a2c:    2858        X(      CMP      r0,#0x58
        0x00019a2e:    d07d        }.      BEQ      0x19b2c ; am_util_stdio_vsprintf + 568
        0x00019a30:    2863        c(      CMP      r0,#0x63
        0x00019a32:    d014        ..      BEQ      0x19a5e ; am_util_stdio_vsprintf + 362
        0x00019a34:    2864        d(      CMP      r0,#0x64
        0x00019a36:    f00081b5    ....    BEQ.W    0x19da4 ; am_util_stdio_vsprintf + 1200
        0x00019a3a:    e00b        ..      B        0x19a54 ; am_util_stdio_vsprintf + 352
        0x00019a3c:    2869        i(      CMP      r0,#0x69
        0x00019a3e:    f00081b1    ....    BEQ.W    0x19da4 ; am_util_stdio_vsprintf + 1200
        0x00019a42:    2873        s(      CMP      r0,#0x73
        0x00019a44:    d016        ..      BEQ      0x19a74 ; am_util_stdio_vsprintf + 384
        0x00019a46:    2875        u(      CMP      r0,#0x75
        0x00019a48:    f000810c    ....    BEQ.W    0x19c64 ; am_util_stdio_vsprintf + 880
        0x00019a4c:    2878        x(      CMP      r0,#0x78
        0x00019a4e:    bf08        ..      IT       EQ
        0x00019a50:    2701        .'      MOVEQ    r7,#1
        0x00019a52:    d06e        n.      BEQ      0x19b32 ; am_util_stdio_vsprintf + 574
        0x00019a54:    2c00        .,      CMP      r4,#0
        0x00019a56:    bf18        ..      IT       NE
        0x00019a58:    f8040b01    ....    STRBNE   r0,[r4],#1
        0x00019a5c:    e007        ..      B        0x19a6e ; am_util_stdio_vsprintf + 378
        0x00019a5e:    980a        ..      LDR      r0,[sp,#0x28]
        0x00019a60:    2c00        .,      CMP      r4,#0
        0x00019a62:    f8101b04    ....    LDRB     r1,[r0],#4
        0x00019a66:    900a        ..      STR      r0,[sp,#0x28]
        0x00019a68:    bf18        ..      IT       NE
        0x00019a6a:    f8041b01    ....    STRBNE   r1,[r4],#1
        0x00019a6e:    1c6d        m.      ADDS     r5,r5,#1
        0x00019a70:    f000bac9    ....    B.W      0x1a006 ; am_util_stdio_vsprintf + 1810
        0x00019a74:    990a        ..      LDR      r1,[sp,#0x28]
        0x00019a76:    2200        ."      MOVS     r2,#0
        0x00019a78:    f8510b04    Q...    LDR      r0,[r1],#4
        0x00019a7c:    910a        ..      STR      r1,[sp,#0x28]
        0x00019a7e:    b140        @.      CBZ      r0,0x19a92 ; am_util_stdio_vsprintf + 414
        0x00019a80:    7803        .x      LDRB     r3,[r0,#0]
        0x00019a82:    1c41        A.      ADDS     r1,r0,#1
        0x00019a84:    b12b        +.      CBZ      r3,0x19a92 ; am_util_stdio_vsprintf + 414
        0x00019a86:    bf00        ..      NOP      
        0x00019a88:    f8113b01    ...;    LDRB     r3,[r1],#1
        0x00019a8c:    1c52        R.      ADDS     r2,r2,#1
        0x00019a8e:    2b00        .+      CMP      r3,#0
        0x00019a90:    d1fa        ..      BNE      0x19a88 ; am_util_stdio_vsprintf + 404
        0x00019a92:    9900        ..      LDR      r1,[sp,#0]
        0x00019a94:    2900        .)      CMP      r1,#0
        0x00019a96:    dd1e        ..      BLE      0x19ad6 ; am_util_stdio_vsprintf + 482
        0x00019a98:    428a        .B      CMP      r2,r1
        0x00019a9a:    d21c        ..      BCS      0x19ad6 ; am_util_stdio_vsprintf + 482
        0x00019a9c:    1a8b        ..      SUBS     r3,r1,r2
        0x00019a9e:    9f01        ..      LDR      r7,[sp,#4]
        0x00019aa0:    4621        !F      MOV      r1,r4
        0x00019aa2:    f04f0c00    O...    MOV      r12,#0
        0x00019aa6:    2b00        .+      CMP      r3,#0
        0x00019aa8:    bfc4        ..      ITT      GT
        0x00019aaa:    1e5b        [.      SUBGT    r3,r3,#1
        0x00019aac:    f1b33fff    ...?    CMPGT    r3,#0xffffffff
        0x00019ab0:    dd09        ..      BLE      0x19ac6 ; am_util_stdio_vsprintf + 466
        0x00019ab2:    2900        .)      CMP      r1,#0
        0x00019ab4:    bf18        ..      IT       NE
        0x00019ab6:    f8017b01    ...{    STRBNE   r7,[r1],#1
        0x00019aba:    1e5b        [.      SUBS     r3,r3,#1
        0x00019abc:    f10c0c01    ....    ADD      r12,r12,#1
        0x00019ac0:    f1b33fff    ...?    CMP      r3,#0xffffffff
        0x00019ac4:    dcf5        ..      BGT      0x19ab2 ; am_util_stdio_vsprintf + 446
        0x00019ac6:    2c00        .,      CMP      r4,#0
        0x00019ac8:    bf14        ..      ITE      NE
        0x00019aca:    4661        aF      MOVNE    r1,r12
        0x00019acc:    2100        .!      MOVEQ    r1,#0
        0x00019ace:    440c        .D      ADD      r4,r4,r1
        0x00019ad0:    2100        .!      MOVS     r1,#0
        0x00019ad2:    4465        eD      ADD      r5,r5,r12
        0x00019ad4:    9100        ..      STR      r1,[sp,#0]
        0x00019ad6:    7801        .x      LDRB     r1,[r0,#0]
        0x00019ad8:    b139        9.      CBZ      r1,0x19aea ; am_util_stdio_vsprintf + 502
        0x00019ada:    b10c        ..      CBZ      r4,0x19ae0 ; am_util_stdio_vsprintf + 492
        0x00019adc:    f8041b01    ....    STRB     r1,[r4],#1
        0x00019ae0:    f8101f01    ....    LDRB     r1,[r0,#1]!
        0x00019ae4:    1c6d        m.      ADDS     r5,r5,#1
        0x00019ae6:    2900        .)      CMP      r1,#0
        0x00019ae8:    d1f7        ..      BNE      0x19ada ; am_util_stdio_vsprintf + 486
        0x00019aea:    9800        ..      LDR      r0,[sp,#0]
        0x00019aec:    2800        .(      CMP      r0,#0
        0x00019aee:    bf1c        ..      ITT      NE
        0x00019af0:    4240        @B      RSBNE    r0,r0,#0
        0x00019af2:    4282        .B      CMPNE    r2,r0
        0x00019af4:    f0808287    ....    BCS.W    0x1a006 ; am_util_stdio_vsprintf + 1810
        0x00019af8:    1a82        ..      SUBS     r2,r0,r2
        0x00019afa:    2000        .       MOVS     r0,#0
        0x00019afc:    9b01        ..      LDR      r3,[sp,#4]
        0x00019afe:    4621        !F      MOV      r1,r4
        0x00019b00:    2a00        .*      CMP      r2,#0
        0x00019b02:    bfc4        ..      ITT      GT
        0x00019b04:    1e52        R.      SUBGT    r2,r2,#1
        0x00019b06:    f1b23fff    ...?    CMPGT    r2,#0xffffffff
        0x00019b0a:    dd08        ..      BLE      0x19b1e ; am_util_stdio_vsprintf + 554
        0x00019b0c:    2900        .)      CMP      r1,#0
        0x00019b0e:    bf18        ..      IT       NE
        0x00019b10:    f8013b01    ...;    STRBNE   r3,[r1],#1
        0x00019b14:    1c40        @.      ADDS     r0,r0,#1
        0x00019b16:    1e52        R.      SUBS     r2,r2,#1
        0x00019b18:    f1b23fff    ...?    CMP      r2,#0xffffffff
        0x00019b1c:    dcf6        ..      BGT      0x19b0c ; am_util_stdio_vsprintf + 536
        0x00019b1e:    2c00        .,      CMP      r4,#0
        0x00019b20:    bf14        ..      ITE      NE
        0x00019b22:    4601        .F      MOVNE    r1,r0
        0x00019b24:    2100        .!      MOVEQ    r1,#0
        0x00019b26:    440c        .D      ADD      r4,r4,r1
        0x00019b28:    4405        .D      ADD      r5,r5,r0
        0x00019b2a:    e000        ..      B        0x19b2e ; am_util_stdio_vsprintf + 570
        0x00019b2c:    e001        ..      B        0x19b32 ; am_util_stdio_vsprintf + 574
        0x00019b2e:    f000ba6a    ..j.    B.W      0x1a006 ; am_util_stdio_vsprintf + 1810
        0x00019b32:    f1bc0f00    ....    CMP      r12,#0
        0x00019b36:    d007        ..      BEQ      0x19b48 ; am_util_stdio_vsprintf + 596
        0x00019b38:    980a        ..      LDR      r0,[sp,#0x28]
        0x00019b3a:    1dc0        ..      ADDS     r0,r0,#7
        0x00019b3c:    f0200207     ...    BIC      r2,r0,#7
        0x00019b40:    e8f20102    ....    LDRD     r0,r1,[r2],#8
        0x00019b44:    920a        ..      STR      r2,[sp,#0x28]
        0x00019b46:    e004        ..      B        0x19b52 ; am_util_stdio_vsprintf + 606
        0x00019b48:    990a        ..      LDR      r1,[sp,#0x28]
        0x00019b4a:    f8510b04    Q...    LDR      r0,[r1],#4
        0x00019b4e:    910a        ..      STR      r1,[sp,#0x28]
        0x00019b50:    2100        .!      MOVS     r1,#0
        0x00019b52:    9a00        ..      LDR      r2,[sp,#0]
        0x00019b54:    b38a        ..      CBZ      r2,0x19bba ; am_util_stdio_vsprintf + 710
        0x00019b56:    460b        .F      MOV      r3,r1
        0x00019b58:    4602        .F      MOV      r2,r0
        0x00019b5a:    ea500c03    P...    ORRS     r12,r0,r3
        0x00019b5e:    bf0c        ..      ITE      EQ
        0x00019b60:    f04f0c01    O...    MOVEQ    r12,#1
        0x00019b64:    f04f0c00    O...    MOVNE    r12,#0
        0x00019b68:    d008        ..      BEQ      0x19b7c ; am_util_stdio_vsprintf + 648
        0x00019b6a:    0912        ..      LSRS     r2,r2,#4
        0x00019b6c:    ea427203    B..r    ORR      r2,r2,r3,LSL #28
        0x00019b70:    091b        ..      LSRS     r3,r3,#4
        0x00019b72:    f10c0c01    ....    ADD      r12,r12,#1
        0x00019b76:    ea520803    R...    ORRS     r8,r2,r3
        0x00019b7a:    d1f6        ..      BNE      0x19b6a ; am_util_stdio_vsprintf + 630
        0x00019b7c:    9a00        ..      LDR      r2,[sp,#0]
        0x00019b7e:    9b01        ..      LDR      r3,[sp,#4]
        0x00019b80:    eba2020c    ....    SUB      r2,r2,r12
        0x00019b84:    46a4        .F      MOV      r12,r4
        0x00019b86:    f04f0800    O...    MOV      r8,#0
        0x00019b8a:    2a00        .*      CMP      r2,#0
        0x00019b8c:    bfc4        ..      ITT      GT
        0x00019b8e:    1e52        R.      SUBGT    r2,r2,#1
        0x00019b90:    f1b23fff    ...?    CMPGT    r2,#0xffffffff
        0x00019b94:    dd0b        ..      BLE      0x19bae ; am_util_stdio_vsprintf + 698
        0x00019b96:    bf00        ..      NOP      
        0x00019b98:    f1bc0f00    ....    CMP      r12,#0
        0x00019b9c:    bf18        ..      IT       NE
        0x00019b9e:    f80c3b01    ...;    STRBNE   r3,[r12],#1
        0x00019ba2:    1e52        R.      SUBS     r2,r2,#1
        0x00019ba4:    f1080801    ....    ADD      r8,r8,#1
        0x00019ba8:    f1b23fff    ...?    CMP      r2,#0xffffffff
        0x00019bac:    dcf4        ..      BGT      0x19b98 ; am_util_stdio_vsprintf + 676
        0x00019bae:    2c00        .,      CMP      r4,#0
        0x00019bb0:    bf14        ..      ITE      NE
        0x00019bb2:    4642        BF      MOVNE    r2,r8
        0x00019bb4:    2200        ."      MOVEQ    r2,#0
        0x00019bb6:    4414        .D      ADD      r4,r4,r2
        0x00019bb8:    4445        ED      ADD      r5,r5,r8
        0x00019bba:    46a0        .F      MOV      r8,r4
        0x00019bbc:    f04f0c00    O...    MOV      r12,#0
        0x00019bc0:    ea500201    P...    ORRS     r2,r0,r1
        0x00019bc4:    d106        ..      BNE      0x19bd4 ; am_util_stdio_vsprintf + 736
        0x00019bc6:    bf00        ..      NOP      
        0x00019bc8:    f04f0230    O.0.    MOV      r2,#0x30
        0x00019bcc:    f88d200c    ...     STRB     r2,[sp,#0xc]
        0x00019bd0:    f04f0c01    O...    MOV      r12,#1
        0x00019bd4:    bf18        ..      IT       NE
        0x00019bd6:    ab03        ..      ADDNE    r3,sp,#0xc
        0x00019bd8:    d017        ..      BEQ      0x19c0a ; am_util_stdio_vsprintf + 790
        0x00019bda:    bf00        ..      NOP      
        0x00019bdc:    f000020f    ....    AND      r2,r0,#0xf
        0x00019be0:    2a09        .*      CMP      r2,#9
        0x00019be2:    d906        ..      BLS      0x19bf2 ; am_util_stdio_vsprintf + 766
        0x00019be4:    2f00        ./      CMP      r7,#0
        0x00019be6:    bf14        ..      ITE      NE
        0x00019be8:    f04f0927    O.'.    MOVNE    r9,#0x27
        0x00019bec:    f04f0907    O...    MOVEQ    r9,#7
        0x00019bf0:    444a        JD      ADD      r2,r2,r9
        0x00019bf2:    3230        02      ADDS     r2,r2,#0x30
        0x00019bf4:    0900        ..      LSRS     r0,r0,#4
        0x00019bf6:    f803200c    ...     STRB     r2,[r3,r12]
        0x00019bfa:    ea407001    @..p    ORR      r0,r0,r1,LSL #28
        0x00019bfe:    0909        ..      LSRS     r1,r1,#4
        0x00019c00:    f10c0c01    ....    ADD      r12,r12,#1
        0x00019c04:    ea500201    P...    ORRS     r2,r0,r1
        0x00019c08:    d1e8        ..      BNE      0x19bdc ; am_util_stdio_vsprintf + 744
        0x00019c0a:    f1b80f00    ....    CMP      r8,#0
        0x00019c0e:    d022        ".      BEQ      0x19c56 ; am_util_stdio_vsprintf + 866
        0x00019c10:    f1ac0301    ....    SUB      r3,r12,#1
        0x00019c14:    f1bc0200    ....    SUBS     r2,r12,#0
        0x00019c18:    dd1a        ..      BLE      0x19c50 ; am_util_stdio_vsprintf + 860
        0x00019c1a:    a803        ..      ADD      r0,sp,#0xc
        0x00019c1c:    4418        .D      ADD      r0,r0,r3
        0x00019c1e:    1c41        A.      ADDS     r1,r0,#1
        0x00019c20:    f1a80001    ....    SUB      r0,r8,#1
        0x00019c24:    f0130f01    ....    TST      r3,#1
        0x00019c28:    d103        ..      BNE      0x19c32 ; am_util_stdio_vsprintf + 830
        0x00019c2a:    f8117d01    ...}    LDRB     r7,[r1,#-1]!
        0x00019c2e:    f8007f01    ....    STRB     r7,[r0,#1]!
        0x00019c32:    1052        R.      ASRS     r2,r2,#1
        0x00019c34:    d009        ..      BEQ      0x19c4a ; am_util_stdio_vsprintf + 854
        0x00019c36:    bf00        ..      NOP      
        0x00019c38:    f8117c01    ...|    LDRB     r7,[r1,#-1]
        0x00019c3c:    7047        Gp      STRB     r7,[r0,#1]
        0x00019c3e:    f8117d02    ...}    LDRB     r7,[r1,#-2]!
        0x00019c42:    f8007f02    ....    STRB     r7,[r0,#2]!
        0x00019c46:    1e52        R.      SUBS     r2,r2,#1
        0x00019c48:    d1f6        ..      BNE      0x19c38 ; am_util_stdio_vsprintf + 836
        0x00019c4a:    18e0        ..      ADDS     r0,r4,r3
        0x00019c4c:    f1000801    ....    ADD      r8,r0,#1
        0x00019c50:    2000        .       MOVS     r0,#0
        0x00019c52:    f8880000    ....    STRB     r0,[r8,#0]
        0x00019c56:    2c00        .,      CMP      r4,#0
        0x00019c58:    bf18        ..      IT       NE
        0x00019c5a:    4464        dD      ADDNE    r4,r4,r12
        0x00019c5c:    4465        eD      ADD      r5,r5,r12
        0x00019c5e:    f000b9d2    ....    B.W      0x1a006 ; am_util_stdio_vsprintf + 1810
        0x00019c62:    bf00        ..      NOP      
        0x00019c64:    980a        ..      LDR      r0,[sp,#0x28]
        0x00019c66:    f1bc0f00    ....    CMP      r12,#0
        0x00019c6a:    d006        ..      BEQ      0x19c7a ; am_util_stdio_vsprintf + 902
        0x00019c6c:    1dc0        ..      ADDS     r0,r0,#7
        0x00019c6e:    f0200107     ...    BIC      r1,r0,#7
        0x00019c72:    e8f1e002    ....    LDRD     lr,r0,[r1],#8
        0x00019c76:    910a        ..      STR      r1,[sp,#0x28]
        0x00019c78:    e003        ..      B        0x19c82 ; am_util_stdio_vsprintf + 910
        0x00019c7a:    f850eb04    P...    LDR      lr,[r0],#4
        0x00019c7e:    900a        ..      STR      r0,[sp,#0x28]
        0x00019c80:    2000        .       MOVS     r0,#0
        0x00019c82:    9003        ..      STR      r0,[sp,#0xc]
        0x00019c84:    9800        ..      LDR      r0,[sp,#0]
        0x00019c86:    2800        .(      CMP      r0,#0
        0x00019c88:    d07e        ~.      BEQ      0x19d88 ; am_util_stdio_vsprintf + 1172
        0x00019c8a:    9903        ..      LDR      r1,[sp,#0xc]
        0x00019c8c:    4670        pF      MOV      r0,lr
        0x00019c8e:    ea5e0201    ^...    ORRS     r2,lr,r1
        0x00019c92:    bf0e        ..      ITEE     EQ
        0x00019c94:    2301        .#      MOVEQ    r3,#1
        0x00019c96:    2300        .#      MOVNE    r3,#0
        0x00019c98:    f04f0c00    O...    MOVNE    r12,#0
        0x00019c9c:    d05e        ^.      BEQ      0x19d5c ; am_util_stdio_vsprintf + 1128
        0x00019c9e:    b3c1        ..      CBZ      r1,0x19d12 ; am_util_stdio_vsprintf + 1054
        0x00019ca0:    084a        J.      LSRS     r2,r1,#1
        0x00019ca2:    ea4f0990    O...    LSR      r9,r0,#2
        0x00019ca6:    ea4f0730    O.0.    RRX      r7,r0
        0x00019caa:    ea497881    I..x    ORR      r8,r9,r1,LSL #30
        0x00019cae:    eb170708    ....    ADDS     r7,r7,r8
        0x00019cb2:    eb420291    B...    ADC      r2,r2,r1,LSR #2
        0x00019cb6:    ea4f1917    O...    LSR      r9,r7,#4
        0x00019cba:    ea497802    I..x    ORR      r8,r9,r2,LSL #28
        0x00019cbe:    eb180707    ....    ADDS     r7,r8,r7
        0x00019cc2:    eb421812    B...    ADC      r8,r2,r2,LSR #4
        0x00019cc6:    ea4f2917    O..)    LSR      r9,r7,#8
        0x00019cca:    ea496208    I..b    ORR      r2,r9,r8,LSL #24
        0x00019cce:    19d2        ..      ADDS     r2,r2,r7
        0x00019cd0:    eb482718    H..'    ADC      r7,r8,r8,LSR #8
        0x00019cd4:    ea4f4912    O..I    LSR      r9,r2,#16
        0x00019cd8:    ea494807    I..H    ORR      r8,r9,r7,LSL #16
        0x00019cdc:    eb180802    ....    ADDS     r8,r8,r2
        0x00019ce0:    eb474217    G..B    ADC      r2,r7,r7,LSR #16
        0x00019ce4:    eb180702    ....    ADDS     r7,r8,r2
        0x00019ce8:    eb42020c    B...    ADC      r2,r2,r12
        0x00019cec:    08ff        ..      LSRS     r7,r7,#3
        0x00019cee:    ea477742    G.Bw    ORR      r7,r7,r2,LSL #29
        0x00019cf2:    f04f080a    O...    MOV      r8,#0xa
        0x00019cf6:    fba7ab08    ....    UMULL    r10,r11,r7,r8
        0x00019cfa:    08d2        ..      LSRS     r2,r2,#3
        0x00019cfc:    fb02b808    ....    MLA      r8,r2,r8,r11
        0x00019d00:    f04f0900    O...    MOV      r9,#0
        0x00019d04:    fb078909    ....    MLA      r9,r7,r9,r8
        0x00019d08:    ebb0080a    ....    SUBS     r8,r0,r10
        0x00019d0c:    eb610009    a...    SBC      r0,r1,r9
        0x00019d10:    e002        ..      B        0x19d18 ; am_util_stdio_vsprintf + 1060
        0x00019d12:    e00c        ..      B        0x19d2e ; am_util_stdio_vsprintf + 1082
    $d
        0x00019d14:    10000000    ....    DCD    268435456
    $t
        0x00019d18:    f1180106    ....    ADDS     r1,r8,#6
        0x00019d1c:    f1400800    @...    ADC      r8,r0,#0
        0x00019d20:    0909        ..      LSRS     r1,r1,#4
        0x00019d22:    ea417008    A..p    ORR      r0,r1,r8,LSL #28
        0x00019d26:    19c0        ..      ADDS     r0,r0,r7
        0x00019d28:    eb421118    B...    ADC      r1,r2,r8,LSR #4
        0x00019d2c:    e012        ..      B        0x19d54 ; am_util_stdio_vsprintf + 1120
        0x00019d2e:    0841        A.      LSRS     r1,r0,#1
        0x00019d30:    eb010190    ....    ADD      r1,r1,r0,LSR #2
        0x00019d34:    eb011111    ....    ADD      r1,r1,r1,LSR #4
        0x00019d38:    eb012111    ...!    ADD      r1,r1,r1,LSR #8
        0x00019d3c:    eb014111    ...A    ADD      r1,r1,r1,LSR #16
        0x00019d40:    08c9        ..      LSRS     r1,r1,#3
        0x00019d42:    424a        JB      RSBS     r2,r1,#0
        0x00019d44:    eb020282    ....    ADD      r2,r2,r2,LSL #2
        0x00019d48:    eb000042    ..B.    ADD      r0,r0,r2,LSL #1
        0x00019d4c:    1d80        ..      ADDS     r0,r0,#6
        0x00019d4e:    eb011010    ....    ADD      r0,r1,r0,LSR #4
        0x00019d52:    4661        aF      MOV      r1,r12
        0x00019d54:    1c5b        [.      ADDS     r3,r3,#1
        0x00019d56:    ea500201    P...    ORRS     r2,r0,r1
        0x00019d5a:    d1a0        ..      BNE      0x19c9e ; am_util_stdio_vsprintf + 938
        0x00019d5c:    9800        ..      LDR      r0,[sp,#0]
        0x00019d5e:    2100        .!      MOVS     r1,#0
        0x00019d60:    1ac2        ..      SUBS     r2,r0,r3
        0x00019d62:    9b01        ..      LDR      r3,[sp,#4]
        0x00019d64:    4620         F      MOV      r0,r4
        0x00019d66:    2a00        .*      CMP      r2,#0
        0x00019d68:    bfc4        ..      ITT      GT
        0x00019d6a:    1e52        R.      SUBGT    r2,r2,#1
        0x00019d6c:    f1b23fff    ...?    CMPGT    r2,#0xffffffff
        0x00019d70:    dd08        ..      BLE      0x19d84 ; am_util_stdio_vsprintf + 1168
        0x00019d72:    2800        .(      CMP      r0,#0
        0x00019d74:    bf18        ..      IT       NE
        0x00019d76:    f8003b01    ...;    STRBNE   r3,[r0],#1
        0x00019d7a:    1c49        I.      ADDS     r1,r1,#1
        0x00019d7c:    1e52        R.      SUBS     r2,r2,#1
        0x00019d7e:    f1b23fff    ...?    CMP      r2,#0xffffffff
        0x00019d82:    dcf6        ..      BGT      0x19d72 ; am_util_stdio_vsprintf + 1150
        0x00019d84:    2c00        .,      CMP      r4,#0
        0x00019d86:    e000        ..      B        0x19d8a ; am_util_stdio_vsprintf + 1174
        0x00019d88:    e004        ..      B        0x19d94 ; am_util_stdio_vsprintf + 1184
        0x00019d8a:    bf14        ..      ITE      NE
        0x00019d8c:    4608        .F      MOVNE    r0,r1
        0x00019d8e:    2000        .       MOVEQ    r0,#0
        0x00019d90:    4404        .D      ADD      r4,r4,r0
        0x00019d92:    440d        .D      ADD      r5,r5,r1
        0x00019d94:    4622        "F      MOV      r2,r4
        0x00019d96:    4670        pF      MOV      r0,lr
        0x00019d98:    9903        ..      LDR      r1,[sp,#0xc]
        0x00019d9a:    f000fc93    ....    BL       uint64_to_str ; 0x1a6c4
        0x00019d9e:    bbdc        ..      CBNZ     r4,0x19e18 ; am_util_stdio_vsprintf + 1316
        0x00019da0:    4405        .D      ADD      r5,r5,r0
        0x00019da2:    e130        0.      B        0x1a006 ; am_util_stdio_vsprintf + 1810
        0x00019da4:    980a        ..      LDR      r0,[sp,#0x28]
        0x00019da6:    f1bc0f00    ....    CMP      r12,#0
        0x00019daa:    d006        ..      BEQ      0x19dba ; am_util_stdio_vsprintf + 1222
        0x00019dac:    1dc0        ..      ADDS     r0,r0,#7
        0x00019dae:    f0200007     ...    BIC      r0,r0,#7
        0x00019db2:    e8f08702    ....    LDRD     r8,r7,[r0],#8
        0x00019db6:    900a        ..      STR      r0,[sp,#0x28]
        0x00019db8:    e004        ..      B        0x19dc4 ; am_util_stdio_vsprintf + 1232
        0x00019dba:    f8508b04    P...    LDR      r8,[r0],#4
        0x00019dbe:    900a        ..      STR      r0,[sp,#0x28]
        0x00019dc0:    ea4f77e8    O..w    ASR      r7,r8,#31
        0x00019dc4:    2f00        ./      CMP      r7,#0
        0x00019dc6:    bfa8        ..      IT       GE
        0x00019dc8:    f04f0900    O...    MOVGE    r9,#0
        0x00019dcc:    da06        ..      BGE      0x19ddc ; am_util_stdio_vsprintf + 1256
        0x00019dce:    2000        .       MOVS     r0,#0
        0x00019dd0:    f1d80800    ....    RSBS     r8,r8,#0
        0x00019dd4:    eb600707    `...    SBC      r7,r0,r7
        0x00019dd8:    f04f0901    O...    MOV      r9,#1
        0x00019ddc:    9800        ..      LDR      r0,[sp,#0]
        0x00019dde:    b3d8        ..      CBZ      r0,0x19e58 ; am_util_stdio_vsprintf + 1380
        0x00019de0:    4640        @F      MOV      r0,r8
        0x00019de2:    0039        9.      MOVS     r1,r7
        0x00019de4:    d503        ..      BPL      0x19dee ; am_util_stdio_vsprintf + 1274
        0x00019de6:    2200        ."      MOVS     r2,#0
        0x00019de8:    4240        @B      RSBS     r0,r0,#0
        0x00019dea:    eb620107    b...    SBC      r1,r2,r7
        0x00019dee:    f000fabf    ....    BL       ndigits_in_u64 ; 0x1a370
        0x00019df2:    9900        ..      LDR      r1,[sp,#0]
        0x00019df4:    1a0a        ..      SUBS     r2,r1,r0
        0x00019df6:    f1b90f00    ....    CMP      r9,#0
        0x00019dfa:    d008        ..      BEQ      0x19e0e ; am_util_stdio_vsprintf + 1306
        0x00019dfc:    9801        ..      LDR      r0,[sp,#4]
        0x00019dfe:    1e52        R.      SUBS     r2,r2,#1
        0x00019e00:    2830        0(      CMP      r0,#0x30
        0x00019e02:    d104        ..      BNE      0x19e0e ; am_util_stdio_vsprintf + 1306
        0x00019e04:    b114        ..      CBZ      r4,0x19e0c ; am_util_stdio_vsprintf + 1304
        0x00019e06:    202d        -       MOVS     r0,#0x2d
        0x00019e08:    f8040b01    ....    STRB     r0,[r4],#1
        0x00019e0c:    1c6d        m.      ADDS     r5,r5,#1
        0x00019e0e:    2100        .!      MOVS     r1,#0
        0x00019e10:    4620         F      MOV      r0,r4
        0x00019e12:    9b01        ..      LDR      r3,[sp,#4]
        0x00019e14:    2a00        .*      CMP      r2,#0
        0x00019e16:    e000        ..      B        0x19e1a ; am_util_stdio_vsprintf + 1318
        0x00019e18:    e02c        ,.      B        0x19e74 ; am_util_stdio_vsprintf + 1408
        0x00019e1a:    bfc4        ..      ITT      GT
        0x00019e1c:    1e52        R.      SUBGT    r2,r2,#1
        0x00019e1e:    f1b23fff    ...?    CMPGT    r2,#0xffffffff
        0x00019e22:    dd08        ..      BLE      0x19e36 ; am_util_stdio_vsprintf + 1346
        0x00019e24:    2800        .(      CMP      r0,#0
        0x00019e26:    bf18        ..      IT       NE
        0x00019e28:    f8003b01    ...;    STRBNE   r3,[r0],#1
        0x00019e2c:    1c49        I.      ADDS     r1,r1,#1
        0x00019e2e:    1e52        R.      SUBS     r2,r2,#1
        0x00019e30:    f1b23fff    ...?    CMP      r2,#0xffffffff
        0x00019e34:    dcf6        ..      BGT      0x19e24 ; am_util_stdio_vsprintf + 1328
        0x00019e36:    2c00        .,      CMP      r4,#0
        0x00019e38:    bf14        ..      ITE      NE
        0x00019e3a:    4608        .F      MOVNE    r0,r1
        0x00019e3c:    2000        .       MOVEQ    r0,#0
        0x00019e3e:    4404        .D      ADD      r4,r4,r0
        0x00019e40:    440d        .D      ADD      r5,r5,r1
        0x00019e42:    f1b90f00    ....    CMP      r9,#0
        0x00019e46:    d00e        ..      BEQ      0x19e66 ; am_util_stdio_vsprintf + 1394
        0x00019e48:    9801        ..      LDR      r0,[sp,#4]
        0x00019e4a:    2820         (      CMP      r0,#0x20
        0x00019e4c:    d10b        ..      BNE      0x19e66 ; am_util_stdio_vsprintf + 1394
        0x00019e4e:    b14c        L.      CBZ      r4,0x19e64 ; am_util_stdio_vsprintf + 1392
        0x00019e50:    202d        -       MOVS     r0,#0x2d
        0x00019e52:    f8040b01    ....    STRB     r0,[r4],#1
        0x00019e56:    e005        ..      B        0x19e64 ; am_util_stdio_vsprintf + 1392
        0x00019e58:    e7ff        ..      B        0x19e5a ; am_util_stdio_vsprintf + 1382
        0x00019e5a:    f1b90f00    ....    CMP      r9,#0
        0x00019e5e:    d002        ..      BEQ      0x19e66 ; am_util_stdio_vsprintf + 1394
        0x00019e60:    2c00        .,      CMP      r4,#0
        0x00019e62:    d1f5        ..      BNE      0x19e50 ; am_util_stdio_vsprintf + 1372
        0x00019e64:    1c6d        m.      ADDS     r5,r5,#1
        0x00019e66:    4622        "F      MOV      r2,r4
        0x00019e68:    4640        @F      MOV      r0,r8
        0x00019e6a:    4639        9F      MOV      r1,r7
        0x00019e6c:    f000fc2a    ..*.    BL       uint64_to_str ; 0x1a6c4
        0x00019e70:    2c00        .,      CMP      r4,#0
        0x00019e72:    d095        ..      BEQ      0x19da0 ; am_util_stdio_vsprintf + 1196
        0x00019e74:    4404        .D      ADD      r4,r4,r0
        0x00019e76:    e793        ..      B        0x19da0 ; am_util_stdio_vsprintf + 1196
        0x00019e78:    2c00        .,      CMP      r4,#0
        0x00019e7a:    d07d        }.      BEQ      0x19f78 ; am_util_stdio_vsprintf + 1668
        0x00019e7c:    980a        ..      LDR      r0,[sp,#0x28]
        0x00019e7e:    1dc0        ..      ADDS     r0,r0,#7
        0x00019e80:    f0200007     ...    BIC      r0,r0,#7
        0x00019e84:    ecb00b02    ....    VLDM     r0!,{d0}
        0x00019e88:    900a        ..      STR      r0,[sp,#0x28]
        0x00019e8a:    ec510b10    Q...    VMOV     r0,r1,d0
        0x00019e8e:    f000fcad    ....    BL       __aeabi_d2f ; 0x1a7ec
        0x00019e92:    ee000a10    ....    VMOV     s0,r0
        0x00019e96:    f04f0a14    O...    MOV      r10,#0x14
        0x00019e9a:    4627        'F      MOV      r7,r4
        0x00019e9c:    eeb50ac0    ....    VCMPE.F32 s0,#0.0
        0x00019ea0:    f8c4a000    ....    STR      r10,[r4,#0]
        0x00019ea4:    eef1fa10    ....    VMRS     APSR_nzcv,FPSCR
        0x00019ea8:    d103        ..      BNE      0x19eb2 ; am_util_stdio_vsprintf + 1470
        0x00019eaa:    485f        _H      LDR      r0,[pc,#380] ; [0x1a028] = 0x302e30
        0x00019eac:    6020         `      STR      r0,[r4,#0]
        0x00019eae:    2003        .       MOVS     r0,#3
        0x00019eb0:    e0a7        ..      B        0x1a002 ; am_util_stdio_vsprintf + 1806
        0x00019eb2:    ee100a10    ....    VMOV     r0,s0
        0x00019eb6:    f04f0800    O...    MOV      r8,#0
        0x00019eba:    46a3        .F      MOV      r11,r4
        0x00019ebc:    f3c051c7    ...Q    UBFX     r1,r0,#23,#8
        0x00019ec0:    f020427f     ..B    BIC      r2,r0,#0xff000000
        0x00019ec4:    397f        .9      SUBS     r1,r1,#0x7f
        0x00019ec6:    f4420200    B...    ORR      r2,r2,#0x800000
        0x00019eca:    4643        CF      MOV      r3,r8
        0x00019ecc:    291f        .)      CMP      r1,#0x1f
        0x00019ece:    da7d        }.      BGE      0x19fcc ; am_util_stdio_vsprintf + 1752
        0x00019ed0:    f1110f17    ....    CMN      r1,#0x17
        0x00019ed4:    db7b        {.      BLT      0x19fce ; am_util_stdio_vsprintf + 1754
        0x00019ed6:    2917        .)      CMP      r1,#0x17
        0x00019ed8:    bfa4        ..      ITT      GE
        0x00019eda:    3917        .9      SUBGE    r1,r1,#0x17
        0x00019edc:    fa02f301    ....    LSLGE    r3,r2,r1
        0x00019ee0:    da0e        ..      BGE      0x19f00 ; am_util_stdio_vsprintf + 1548
        0x00019ee2:    2900        .)      CMP      r1,#0
        0x00019ee4:    bfbc        ..      ITT      LT
        0x00019ee6:    43c9        .C      MVNLT    r1,r1
        0x00019ee8:    fa22f801    "...    LSRLT    r8,r2,r1
        0x00019eec:    db08        ..      BLT      0x19f00 ; am_util_stdio_vsprintf + 1548
        0x00019eee:    f1c10317    ....    RSB      r3,r1,#0x17
        0x00019ef2:    fa42f303    B...    ASR      r3,r2,r3
        0x00019ef6:    1c49        I.      ADDS     r1,r1,#1
        0x00019ef8:    fa02f101    ....    LSL      r1,r2,r1
        0x00019efc:    f021487f    !..H    BIC      r8,r1,#0xff000000
        0x00019f00:    2800        .(      CMP      r0,#0
        0x00019f02:    da03        ..      BGE      0x19f0c ; am_util_stdio_vsprintf + 1560
        0x00019f04:    202d        -       MOVS     r0,#0x2d
        0x00019f06:    7038        8p      STRB     r0,[r7,#0]
        0x00019f08:    f10b0701    ....    ADD      r7,r11,#1
        0x00019f0c:    2b00        .+      CMP      r3,#0
        0x00019f0e:    bf04        ..      ITT      EQ
        0x00019f10:    2030        0       MOVEQ    r0,#0x30
        0x00019f12:    f8070b01    ....    STRBEQ   r0,[r7],#1
        0x00019f16:    d015        ..      BEQ      0x19f44 ; am_util_stdio_vsprintf + 1616
        0x00019f18:    dd06        ..      BLE      0x19f28 ; am_util_stdio_vsprintf + 1588
        0x00019f1a:    463a        :F      MOV      r2,r7
        0x00019f1c:    4618        .F      MOV      r0,r3
        0x00019f1e:    ea4f71e3    O..q    ASR      r1,r3,#31
        0x00019f22:    f000fbcf    ....    BL       uint64_to_str ; 0x1a6c4
        0x00019f26:    e007        ..      B        0x19f38 ; am_util_stdio_vsprintf + 1604
        0x00019f28:    202d        -       MOVS     r0,#0x2d
        0x00019f2a:    f8070b01    ....    STRB     r0,[r7],#1
        0x00019f2e:    4258        XB      RSBS     r0,r3,#0
        0x00019f30:    463a        :F      MOV      r2,r7
        0x00019f32:    17c1        ..      ASRS     r1,r0,#31
        0x00019f34:    f000fbc6    ....    BL       uint64_to_str ; 0x1a6c4
        0x00019f38:    7838        8x      LDRB     r0,[r7,#0]
        0x00019f3a:    b118        ..      CBZ      r0,0x19f44 ; am_util_stdio_vsprintf + 1616
        0x00019f3c:    f8170f01    ....    LDRB     r0,[r7,#1]!
        0x00019f40:    2800        .(      CMP      r0,#0
        0x00019f42:    d1fb        ..      BNE      0x19f3c ; am_util_stdio_vsprintf + 1608
        0x00019f44:    202e        .       MOVS     r0,#0x2e
        0x00019f46:    1c7a        z.      ADDS     r2,r7,#1
        0x00019f48:    7038        8p      STRB     r0,[r7,#0]
        0x00019f4a:    f1b80f00    ....    CMP      r8,#0
        0x00019f4e:    d041        A.      BEQ      0x19fd4 ; am_util_stdio_vsprintf + 1760
        0x00019f50:    eba2000b    ....    SUB      r0,r2,r11
        0x00019f54:    ebaa0000    ....    SUB      r0,r10,r0
        0x00019f58:    f1a00c01    ....    SUB      r12,r0,#1
        0x00019f5c:    45cc        .E      CMP      r12,r9
        0x00019f5e:    bfc8        ..      IT       GT
        0x00019f60:    46cc        .F      MOVGT    r12,r9
        0x00019f62:    f1bc0f00    ....    CMP      r12,#0
        0x00019f66:    dd11        ..      BLE      0x19f8c ; am_util_stdio_vsprintf + 1688
        0x00019f68:    4617        .F      MOV      r7,r2
        0x00019f6a:    4660        `F      MOV      r0,r12
        0x00019f6c:    f05f0330    _.0.    MOVS.W   r3,#0x30
        0x00019f70:    eb080188    ....    ADD      r1,r8,r8,LSL #2
        0x00019f74:    0049        I.      LSLS     r1,r1,#1
        0x00019f76:    e000        ..      B        0x19f7a ; am_util_stdio_vsprintf + 1670
        0x00019f78:    e045        E.      B        0x1a006 ; am_util_stdio_vsprintf + 1810
        0x00019f7a:    eb036821    ..!h    ADD      r8,r3,r1,ASR #24
        0x00019f7e:    f8078b01    ....    STRB     r8,[r7],#1
        0x00019f82:    f021487f    !..H    BIC      r8,r1,#0xff000000
        0x00019f86:    1e40        @.      SUBS     r0,r0,#1
        0x00019f88:    d1f2        ..      BNE      0x19f70 ; am_util_stdio_vsprintf + 1660
        0x00019f8a:    4462        bD      ADD      r2,r2,r12
        0x00019f8c:    eb080088    ....    ADD      r0,r8,r8,LSL #2
        0x00019f90:    0041        A.      LSLS     r1,r0,#1
        0x00019f92:    2005        .       MOVS     r0,#5
        0x00019f94:    ebb06f21    ..!o    CMP      r0,r1,ASR #24
        0x00019f98:    dc24        $.      BGT      0x19fe4 ; am_util_stdio_vsprintf + 1776
        0x00019f9a:    1e50        P.      SUBS     r0,r2,#1
        0x00019f9c:    ebab0300    ....    SUB      r3,r11,r0
        0x00019fa0:    2101        .!      MOVS     r1,#1
        0x00019fa2:    f1c30301    ....    RSB      r3,r3,#1
        0x00019fa6:    2b01        .+      CMP      r3,#1
        0x00019fa8:    bfa8        ..      IT       GE
        0x00019faa:    2730        0'      MOVGE    r7,#0x30
        0x00019fac:    db1a        ..      BLT      0x19fe4 ; am_util_stdio_vsprintf + 1776
        0x00019fae:    bf00        ..      NOP      
        0x00019fb0:    f890c000    ....    LDRB     r12,[r0,#0]
        0x00019fb4:    f1bc0f2e    ....    CMP      r12,#0x2e
        0x00019fb8:    d010        ..      BEQ      0x19fdc ; am_util_stdio_vsprintf + 1768
        0x00019fba:    f1bc0f39    ..9.    CMP      r12,#0x39
        0x00019fbe:    bf08        ..      IT       EQ
        0x00019fc0:    7007        .p      STRBEQ   r7,[r0,#0]
        0x00019fc2:    d00b        ..      BEQ      0x19fdc ; am_util_stdio_vsprintf + 1768
        0x00019fc4:    f00c01ff    ....    AND      r1,r12,#0xff
        0x00019fc8:    1c49        I.      ADDS     r1,r1,#1
        0x00019fca:    e001        ..      B        0x19fd0 ; am_util_stdio_vsprintf + 1756
        0x00019fcc:    e02a        *.      B        0x1a024 ; am_util_stdio_vsprintf + 1840
        0x00019fce:    e027        '.      B        0x1a020 ; am_util_stdio_vsprintf + 1836
        0x00019fd0:    7001        .p      STRB     r1,[r0,#0]
        0x00019fd2:    e007        ..      B        0x19fe4 ; am_util_stdio_vsprintf + 1776
        0x00019fd4:    2030        0       MOVS     r0,#0x30
        0x00019fd6:    f8020b01    ....    STRB     r0,[r2],#1
        0x00019fda:    e003        ..      B        0x19fe4 ; am_util_stdio_vsprintf + 1776
        0x00019fdc:    1e40        @.      SUBS     r0,r0,#1
        0x00019fde:    1c49        I.      ADDS     r1,r1,#1
        0x00019fe0:    428b        .B      CMP      r3,r1
        0x00019fe2:    dae5        ..      BGE      0x19fb0 ; am_util_stdio_vsprintf + 1724
        0x00019fe4:    2000        .       MOVS     r0,#0
        0x00019fe6:    7010        .p      STRB     r0,[r2,#0]
        0x00019fe8:    ebb2000b    ....    SUBS     r0,r2,r11
        0x00019fec:    d509        ..      BPL      0x1a002 ; am_util_stdio_vsprintf + 1806
        0x00019fee:    f1b03fff    ...?    CMP      r0,#0xffffffff
        0x00019ff2:    d015        ..      BEQ      0x1a020 ; am_util_stdio_vsprintf + 1836
        0x00019ff4:    f1100f02    ....    CMN      r0,#2
        0x00019ff8:    bf18        ..      IT       NE
        0x00019ffa:    480c        .H      LDRNE    r0,[pc,#48] ; [0x1a02c] = 0x3f2e3f
        0x00019ffc:    d012        ..      BEQ      0x1a024 ; am_util_stdio_vsprintf + 1840
        0x00019ffe:    6020         `      STR      r0,[r4,#0]
        0x0001a000:    2003        .       MOVS     r0,#3
        0x0001a002:    4405        .D      ADD      r5,r5,r0
        0x0001a004:    4404        .D      ADD      r4,r4,r0
        0x0001a006:    1c71        q.      ADDS     r1,r6,#1
        0x0001a008:    7808        .x      LDRB     r0,[r1,#0]
        0x0001a00a:    2800        .(      CMP      r0,#0
        0x0001a00c:    f47fac7c    ..|.    BNE      0x19908 ; am_util_stdio_vsprintf + 20
        0x0001a010:    2c00        .,      CMP      r4,#0
        0x0001a012:    bf1c        ..      ITT      NE
        0x0001a014:    2000        .       MOVNE    r0,#0
        0x0001a016:    7020         p      STRBNE   r0,[r4,#0]
        0x0001a018:    4628        (F      MOV      r0,r5
        0x0001a01a:    b00b        ..      ADD      sp,sp,#0x2c
        0x0001a01c:    e8bd8ff0    ....    POP      {r4-r11,pc}
        0x0001a020:    4801        .H      LDR      r0,[pc,#4] ; [0x1a028] = 0x302e30
        0x0001a022:    e7ec        ..      B        0x19ffe ; am_util_stdio_vsprintf + 1802
        0x0001a024:    4802        .H      LDR      r0,[pc,#8] ; [0x1a030] = 0x232e23
        0x0001a026:    e7ea        ..      B        0x19ffe ; am_util_stdio_vsprintf + 1802
    $d
        0x0001a028:    00302e30    0.0.    DCD    3157552
        0x0001a02c:    003f2e3f    ?.?.    DCD    4140607
        0x0001a030:    00232e23    #.#.    DCD    2305571
    $t
    i.crypto_boost_trims
    crypto_boost_trims
        0x0001a034:    b5f8        ..      PUSH     {r3-r7,lr}
        0x0001a036:    4f29        )O      LDR      r7,[pc,#164] ; [0x1a0dc] = 0x1000001c
        0x0001a038:    4606        .F      MOV      r6,r0
        0x0001a03a:    460c        .F      MOV      r4,r1
        0x0001a03c:    78b8        .x      LDRB     r0,[r7,#2]
        0x0001a03e:    ea460100    F...    ORR      r1,r6,r0
        0x0001a042:    4030        0@      ANDS     r0,r0,r6
        0x0001a044:    ea310000    1...    BICS     r0,r1,r0
        0x0001a048:    bf08        ..      IT       EQ
        0x0001a04a:    bdf8        ..      POPEQ    {r3-r7,pc}
        0x0001a04c:    f7fef958    ..X.    BL       am_hal_interrupt_master_disable ; 0x18300
        0x0001a050:    9000        ..      STR      r0,[sp,#0]
        0x0001a052:    70be        .p      STRB     r6,[r7,#2]
        0x0001a054:    6ab8        .j      LDR      r0,[r7,#0x28]
        0x0001a056:    2e00        ..      CMP      r6,#0
        0x0001a058:    bf0c        ..      ITE      EQ
        0x0001a05a:    1b05        ..      SUBEQ    r5,r0,r4
        0x0001a05c:    1905        ..      ADDNE    r5,r0,r4
        0x0001a05e:    62bd        .b      STR      r5,[r7,#0x28]
        0x0001a060:    2d00        .-      CMP      r5,#0
        0x0001a062:    bfb8        ..      IT       LT
        0x0001a064:    2500        .%      MOVLT    r5,#0
        0x0001a066:    db02        ..      BLT      0x1a06e ; crypto_boost_trims + 58
        0x0001a068:    2d3f        ?-      CMP      r5,#0x3f
        0x0001a06a:    bf88        ..      IT       HI
        0x0001a06c:    253f        ?%      MOVHI    r5,#0x3f
        0x0001a06e:    2e00        ..      CMP      r6,#0
        0x0001a070:    6af8        .j      LDR      r0,[r7,#0x2c]
        0x0001a072:    bf14        ..      ITE      NE
        0x0001a074:    4404        .D      ADDNE    r4,r0
        0x0001a076:    1b04        ..      SUBEQ    r4,r0,r4
        0x0001a078:    62fc        .b      STR      r4,[r7,#0x2c]
        0x0001a07a:    2c00        .,      CMP      r4,#0
        0x0001a07c:    bfb8        ..      IT       LT
        0x0001a07e:    2400        .$      MOVLT    r4,#0
        0x0001a080:    db02        ..      BLT      0x1a088 ; crypto_boost_trims + 84
        0x0001a082:    2c3f        ?,      CMP      r4,#0x3f
        0x0001a084:    bf88        ..      IT       HI
        0x0001a086:    243f        ?$      MOVHI    r4,#0x3f
        0x0001a088:    4f15        .O      LDR      r7,[pc,#84] ; [0x1a0e0] = 0x40020000
        0x0001a08a:    b17e        ~.      CBZ      r6,0x1a0ac ; crypto_boost_trims + 120
        0x0001a08c:    f8d7036c    ..l.    LDR      r0,[r7,#0x36c]
        0x0001a090:    f3655019    e..P    BFI      r0,r5,#20,#6
        0x0001a094:    f8c7036c    ..l.    STR      r0,[r7,#0x36c]
        0x0001a098:    2014        .       MOVS     r0,#0x14
        0x0001a09a:    f7fefb67    ..g.    BL       am_hal_delay_us ; 0x1876c
        0x0001a09e:    f8d70088    ....    LDR      r0,[r7,#0x88]
        0x0001a0a2:    f3640005    d...    BFI      r0,r4,#0,#6
        0x0001a0a6:    f8c70088    ....    STR      r0,[r7,#0x88]
        0x0001a0aa:    e00e        ..      B        0x1a0ca ; crypto_boost_trims + 150
        0x0001a0ac:    f8d70088    ....    LDR      r0,[r7,#0x88]
        0x0001a0b0:    f3640005    d...    BFI      r0,r4,#0,#6
        0x0001a0b4:    f8c70088    ....    STR      r0,[r7,#0x88]
        0x0001a0b8:    2014        .       MOVS     r0,#0x14
        0x0001a0ba:    f7fefb57    ..W.    BL       am_hal_delay_us ; 0x1876c
        0x0001a0be:    f8d7036c    ..l.    LDR      r0,[r7,#0x36c]
        0x0001a0c2:    f3655019    e..P    BFI      r0,r5,#20,#6
        0x0001a0c6:    f8c7036c    ..l.    STR      r0,[r7,#0x36c]
        0x0001a0ca:    9800        ..      LDR      r0,[sp,#0]
        0x0001a0cc:    f7fef91c    ....    BL       am_hal_interrupt_master_set ; 0x18308
        0x0001a0d0:    e8bd40f8    ...@    POP      {r3-r7,lr}
        0x0001a0d4:    2014        .       MOVS     r0,#0x14
        0x0001a0d6:    f7febb49    ..I.    B        am_hal_delay_us ; 0x1876c
    $d
        0x0001a0da:    0000        ..      DCW    0
        0x0001a0dc:    1000001c    ....    DCD    268435484
        0x0001a0e0:    40020000    ...@    DCD    1073872896
    $t
    i.main
    main
        0x0001a0e4:    4948        HI      LDR      r1,[pc,#288] ; [0x1a208] = 0x1a96c
        0x0001a0e6:    b088        ..      SUB      sp,sp,#0x20
        0x0001a0e8:    e9d10100    ....    LDRD     r0,r1,[r1,#0]
        0x0001a0ec:    e9cd0102    ....    STRD     r0,r1,[sp,#8]
        0x0001a0f0:    2000        .       MOVS     r0,#0
        0x0001a0f2:    9004        ..      STR      r0,[sp,#0x10]
        0x0001a0f4:    9005        ..      STR      r0,[sp,#0x14]
        0x0001a0f6:    f7fef959    ..Y.    BL       am_bsp_low_power_init ; 0x183ac
        0x0001a0fa:    2100        .!      MOVS     r1,#0
        0x0001a0fc:    2005        .       MOVS     r0,#5
        0x0001a0fe:    f7fefa13    ....    BL       am_hal_clkgen_control ; 0x18528
        0x0001a102:    4942        BI      LDR      r1,[pc,#264] ; [0x1a20c] = 0x4000c000
        0x0001a104:    2037        7       MOVS     r0,#0x37
        0x0001a106:    6088        .`      STR      r0,[r1,#8]
        0x0001a108:    2014        .       MOVS     r0,#0x14
        0x0001a10a:    f7fefe93    ....    BL       am_hal_pwrctrl_periph_disable ; 0x18e34
        0x0001a10e:    2100        .!      MOVS     r1,#0
        0x0001a110:    2003        .       MOVS     r0,#3
        0x0001a112:    f7fefc5b    ..[.    BL       am_hal_pwrctrl_control ; 0x189cc
        0x0001a116:    2100        .!      MOVS     r1,#0
        0x0001a118:    2002        .       MOVS     r0,#2
        0x0001a11a:    f7fefc57    ..W.    BL       am_hal_pwrctrl_control ; 0x189cc
        0x0001a11e:    483c        <H      LDR      r0,[pc,#240] ; [0x1a210] = 0x1a9b0
        0x0001a120:    f7fef9d2    ....    BL       am_hal_cachectrl_config ; 0x184c8
        0x0001a124:    f7fef9f4    ....    BL       am_hal_cachectrl_enable ; 0x18510
        0x0001a128:    a802        ..      ADD      r0,sp,#8
        0x0001a12a:    f7fefdf5    ....    BL       am_hal_pwrctrl_mcu_memory_config ; 0x18d18
        0x0001a12e:    a804        ..      ADD      r0,sp,#0x10
        0x0001a130:    f7feff70    ..p.    BL       am_hal_pwrctrl_sram_config ; 0x19014
        0x0001a134:    2100        .!      MOVS     r1,#0
        0x0001a136:    2037        7       MOVS     r0,#0x37
        0x0001a138:    f7fefbd6    ....    BL       am_hal_gpio_state_write ; 0x188e8
        0x0001a13c:    4835        5H      LDR      r0,[pc,#212] ; [0x1a214] = 0x1a9b8
        0x0001a13e:    6801        .h      LDR      r1,[r0,#0]
        0x0001a140:    9100        ..      STR      r1,[sp,#0]
        0x0001a142:    2037        7       MOVS     r0,#0x37
        0x0001a144:    f7fefba6    ....    BL       am_hal_gpio_pinconfig ; 0x18894
        0x0001a148:    2101        .!      MOVS     r1,#1
        0x0001a14a:    2037        7       MOVS     r0,#0x37
        0x0001a14c:    f7fefbcc    ....    BL       am_hal_gpio_state_write ; 0x188e8
        0x0001a150:    2100        .!      MOVS     r1,#0
        0x0001a152:    2037        7       MOVS     r0,#0x37
        0x0001a154:    f7fefbc8    ....    BL       am_hal_gpio_state_write ; 0x188e8
        0x0001a158:    f7fef95a    ..Z.    BL       am_bsp_uart_printf_enable ; 0x18410
        0x0001a15c:    f7fffbac    ....    BL       am_util_stdio_terminal_clear ; 0x198b8
        0x0001a160:    a02d        -.      ADR      r0,{pc}+0xb8 ; 0x1a218
        0x0001a162:    f7fffb89    ....    BL       am_util_stdio_printf ; 0x19878
        0x0001a166:    4d34        4M      LDR      r5,[pc,#208] ; [0x1a238] = 0xf4240
        0x0001a168:    4834        4H      LDR      r0,[pc,#208] ; [0x1a23c] = 0x1ac8c
        0x0001a16a:    4629        )F      MOV      r1,r5
        0x0001a16c:    f7fffb84    ....    BL       am_util_stdio_printf ; 0x19878
        0x0001a170:    a133        3.      ADR      r1,{pc}+0xd0 ; 0x1a240
        0x0001a172:    a037        7.      ADR      r0,{pc}+0xde ; 0x1a250
        0x0001a174:    f7fffb80    ....    BL       am_util_stdio_printf ; 0x19878
        0x0001a178:    493b        ;I      LDR      r1,[pc,#236] ; [0x1a268] = 0x1a972
        0x0001a17a:    a03c        <.      ADR      r0,{pc}+0xf2 ; 0x1a26c
        0x0001a17c:    f7fffb7c    ..|.    BL       am_util_stdio_printf ; 0x19878
        0x0001a180:    4c40        @L      LDR      r4,[pc,#256] ; [0x1a284] = 0x1a980
        0x0001a182:    8820         .      LDRH     r0,[r4,#0]
        0x0001a184:    f3c02307    ...#    UBFX     r3,r0,#8,#8
        0x0001a188:    6820         h      LDR      r0,[r4,#0]
        0x0001a18a:    f3c04207    ...B    UBFX     r2,r0,#16,#8
        0x0001a18e:    0e01        ..      LSRS     r1,r0,#24
        0x0001a190:    a03d        =.      ADR      r0,{pc}+0xf8 ; 0x1a288
        0x0001a192:    f7fffb71    ..q.    BL       am_util_stdio_printf ; 0x19878
        0x0001a196:    7820         x      LDRB     r0,[r4,#0]
        0x0001a198:    f0100f80    ....    TST      r0,#0x80
        0x0001a19c:    bf14        ..      ITE      NE
        0x0001a19e:    a141        A.      ADRNE    r1,{pc}+0x106 ; 0x1a2a4
        0x0001a1a0:    a142        B.      ADREQ    r1,{pc}+0x10c ; 0x1a2ac
        0x0001a1a2:    a044        D.      ADR      r0,{pc}+0x112 ; 0x1a2b4
        0x0001a1a4:    f7fffb68    ..h.    BL       am_util_stdio_printf ; 0x19878
        0x0001a1a8:    a04c        L.      ADR      r0,{pc}+0x134 ; 0x1a2dc
        0x0001a1aa:    f7fffb65    ..e.    BL       am_util_stdio_printf ; 0x19878
        0x0001a1ae:    f2427010    B..p    MOV      r0,#0x2710
        0x0001a1b2:    f7fefadb    ....    BL       am_hal_delay_us ; 0x1876c
        0x0001a1b6:    f7fef905    ....    BL       am_bsp_uart_printf_disable ; 0x183c4
        0x0001a1ba:    4e52        RN      LDR      r6,[pc,#328] ; [0x1a304] = 0x132a2
        0x0001a1bc:    2401        .$      MOVS     r4,#1
        0x0001a1be:    2003        .       MOVS     r0,#3
        0x0001a1c0:    2302        .#      MOVS     r3,#2
        0x0001a1c2:    2804        .(      CMP      r0,#4
        0x0001a1c4:    db0a        ..      BLT      0x1a1dc ; main + 248
        0x0001a1c6:    bf00        ..      NOP      
        0x0001a1c8:    fb90f1f3    ....    SDIV     r1,r0,r3
        0x0001a1cc:    fb030111    ....    MLS      r1,r3,r1,r0
        0x0001a1d0:    b129        ).      CBZ      r1,0x1a1de ; main + 250
        0x0001a1d2:    1c5b        [.      ADDS     r3,r3,#1
        0x0001a1d4:    fb03f103    ....    MUL      r1,r3,r3
        0x0001a1d8:    4281        .B      CMP      r1,r0
        0x0001a1da:    ddf5        ..      BLE      0x1a1c8 ; main + 228
        0x0001a1dc:    1c64        d.      ADDS     r4,r4,#1
        0x0001a1de:    1c40        @.      ADDS     r0,r0,#1
        0x0001a1e0:    42a8        .B      CMP      r0,r5
        0x0001a1e2:    dbed        ..      BLT      0x1a1c0 ; main + 220
        0x0001a1e4:    f7fef914    ....    BL       am_bsp_uart_printf_enable ; 0x18410
        0x0001a1e8:    4631        1F      MOV      r1,r6
        0x0001a1ea:    428c        .B      CMP      r4,r1
        0x0001a1ec:    4622        "F      MOV      r2,r4
        0x0001a1ee:    bf12        ..      ITEE     NE
        0x0001a1f0:    a045        E.      ADRNE    r0,{pc}+0x118 ; 0x1a308
        0x0001a1f2:    4629        )F      MOVEQ    r1,r5
        0x0001a1f4:    a054        T.      ADREQ    r0,{pc}+0x154 ; 0x1a348
        0x0001a1f6:    f7fffb3f    ..?.    BL       am_util_stdio_printf ; 0x19878
        0x0001a1fa:    f2427010    B..p    MOV      r0,#0x2710
        0x0001a1fe:    f7fefab5    ....    BL       am_hal_delay_us ; 0x1876c
        0x0001a202:    f7fef8df    ....    BL       am_bsp_uart_printf_disable ; 0x183c4
        0x0001a206:    e7d9        ..      B        0x1a1bc ; main + 216
    $d
        0x0001a208:    0001a96c    l...    DCD    108908
        0x0001a20c:    4000c000    ...@    DCD    1073790976
        0x0001a210:    0001a9b0    ....    DCD    108976
        0x0001a214:    0001a9b8    ....    DCD    108984
        0x0001a218:    69626d41    Ambi    DCD    1768058177
        0x0001a21c:    694d2071    q Mi    DCD    1766662257
        0x0001a220:    206f7263    cro     DCD    544174691
        0x0001a224:    69727027    'pri    DCD    1769107495
        0x0001a228:    2027656d    me'     DCD    539452781
        0x0001a22c:    6d617865    exam    DCD    1835104357
        0x0001a230:    2e656c70    ple.    DCD    778398832
        0x0001a234:    0000000a    ....    DCD    10
        0x0001a238:    000f4240    @B..    DCD    1000000
        0x0001a23c:    0001ac8c    ....    DCD    109708
        0x0001a240:    434d5241    ARMC    DCD    1129140801
        0x0001a244:    30352043    C 50    DCD    808788035
        0x0001a248:    35373036    6075    DCD    892809270
        0x0001a24c:    00000030    0...    DCD    48
        0x0001a250:    20707041    App     DCD    544239681
        0x0001a254:    706d6f43    Comp    DCD    1886220099
        0x0001a258:    72656c69    iler    DCD    1919249513
        0x0001a25c:    2020203a    :       DCD    538976314
        0x0001a260:    0a732520     %s.    DCD    175318304
        0x0001a264:    00000000    ....    DCD    0
        0x0001a268:    0001a972    r...    DCD    108914
        0x0001a26c:    204c4148    HAL     DCD    541868360
        0x0001a270:    706d6f43    Comp    DCD    1886220099
        0x0001a274:    72656c69    iler    DCD    1919249513
        0x0001a278:    2020203a    :       DCD    538976314
        0x0001a27c:    0a732520     %s.    DCD    175318304
        0x0001a280:    00000000    ....    DCD    0
        0x0001a284:    0001a980    ....    DCD    108928
        0x0001a288:    204c4148    HAL     DCD    541868360
        0x0001a28c:    204b4453    SDK     DCD    541803603
        0x0001a290:    73726576    vers    DCD    1936876918
        0x0001a294:    3a6e6f69    ion:    DCD    980316009
        0x0001a298:    2e642520     %d.    DCD    778315040
        0x0001a29c:    252e6425    %d.%    DCD    623797285
        0x0001a2a0:    00000a64    d...    DCD    2660
        0x0001a2a4:    525f4d41    AM_R    DCD    1381977409
        0x0001a2a8:    00004745    EG..    DCD    18245
        0x0001a2ac:    49534d43    CMSI    DCD    1230196035
        0x0001a2b0:    00000053    S...    DCD    83
        0x0001a2b4:    204c4148    HAL     DCD    541868360
        0x0001a2b8:    706d6f63    comp    DCD    1886220131
        0x0001a2bc:    64656c69    iled    DCD    1684368489
        0x0001a2c0:    74697720     wit    DCD    1953068832
        0x0001a2c4:    73252068    h %s    DCD    1931812968
        0x0001a2c8:    7974732d    -sty    DCD    2037674797
        0x0001a2cc:    7220656c    le r    DCD    1914725740
        0x0001a2d0:    73696765    egis    DCD    1936287589
        0x0001a2d4:    73726574    ters    DCD    1936876916
        0x0001a2d8:    0000000a    ....    DCD    10
        0x0001a2dc:    746e450a    .Ent    DCD    1953383690
        0x0001a2e0:    6e697265    erin    DCD    1852404325
        0x0001a2e4:    72702067    g pr    DCD    1919950951
        0x0001a2e8:    20656d69    ime     DCD    543518057
        0x0001a2ec:    636c6163    calc    DCD    1668047203
        0x0001a2f0:    74616c75    ulat    DCD    1952541813
        0x0001a2f4:    206e6f69    ion     DCD    544108393
        0x0001a2f8:    706f6f6c    loop    DCD    1886351212
        0x0001a2fc:    0a2e2e2e    ....    DCD    170798638
        0x0001a300:    00000000    ....    DCD    0
        0x0001a304:    000132a2    .2..    DCD    78498
        0x0001a308:    4f525245    ERRO    DCD    1330795077
        0x0001a30c:    49203a52    R: I    DCD    1226848850
        0x0001a310:    6c61766e    nval    DCD    1818326638
        0x0001a314:    72206469    id r    DCD    1914725481
        0x0001a318:    6c757365    esul    DCD    1819636581
        0x0001a31c:    45202e74    t. E    DCD    1159736948
        0x0001a320:    63657078    xpec    DCD    1667592312
        0x0001a324:    20646574    ted     DCD    543450484
        0x0001a328:    626d756e    numb    DCD    1651340654
        0x0001a32c:    6f207265    er o    DCD    1864397413
        0x0001a330:    72702066    f pr    DCD    1919950950
        0x0001a334:    73656d69    imes    DCD    1936026985
        0x0001a338:    25203d20     = %    DCD    622869792
        0x0001a33c:    67202c64    d, g    DCD    1730161764
        0x0001a340:    2520746f    ot %    DCD    622883951
        0x0001a344:    000a2e64    d...    DCD    667236
        0x0001a348:    73736150    Pass    DCD    1936941392
        0x0001a34c:    756e203a    : nu    DCD    1970151482
        0x0001a350:    7265626d    mber    DCD    1919246957
        0x0001a354:    20666f20     of     DCD    543584032
        0x0001a358:    6d697270    prim    DCD    1835627120
        0x0001a35c:    66207365    es f    DCD    1713402725
        0x0001a360:    2520726f    or %    DCD    622883439
        0x0001a364:    73692064    d is    DCD    1936269412
        0x0001a368:    2e642520     %d.    DCD    778315040
        0x0001a36c:    0000000a    ....    DCD    10
    $t
    i.ndigits_in_u64
    ndigits_in_u64
        0x0001a370:    e92d01f0    -...    PUSH     {r4-r8}
        0x0001a374:    ea500201    P...    ORRS     r2,r0,r1
        0x0001a378:    bf0e        ..      ITEE     EQ
        0x0001a37a:    2301        .#      MOVEQ    r3,#1
        0x0001a37c:    2300        .#      MOVNE    r3,#0
        0x0001a37e:    f04f0c00    O...    MOVNE    r12,#0
        0x0001a382:    d054        T.      BEQ      0x1a42e ; ndigits_in_u64 + 190
        0x0001a384:    2900        .)      CMP      r1,#0
        0x0001a386:    d03b        ;.      BEQ      0x1a400 ; ndigits_in_u64 + 144
        0x0001a388:    084c        L.      LSRS     r4,r1,#1
        0x0001a38a:    ea4f0690    O...    LSR      r6,r0,#2
        0x0001a38e:    ea4f0230    O.0.    RRX      r2,r0
        0x0001a392:    ea467681    F..v    ORR      r6,r6,r1,LSL #30
        0x0001a396:    1992        ..      ADDS     r2,r2,r6
        0x0001a398:    eb440491    D...    ADC      r4,r4,r1,LSR #2
        0x0001a39c:    ea4f1612    O...    LSR      r6,r2,#4
        0x0001a3a0:    ea467504    F..u    ORR      r5,r6,r4,LSL #28
        0x0001a3a4:    18aa        ..      ADDS     r2,r5,r2
        0x0001a3a6:    eb441414    D...    ADC      r4,r4,r4,LSR #4
        0x0001a3aa:    ea4f2612    O..&    LSR      r6,r2,#8
        0x0001a3ae:    ea466504    F..e    ORR      r5,r6,r4,LSL #24
        0x0001a3b2:    18aa        ..      ADDS     r2,r5,r2
        0x0001a3b4:    eb442514    D..%    ADC      r5,r4,r4,LSR #8
        0x0001a3b8:    ea4f4612    O..F    LSR      r6,r2,#16
        0x0001a3bc:    ea464405    F..D    ORR      r4,r6,r5,LSL #16
        0x0001a3c0:    18a4        ..      ADDS     r4,r4,r2
        0x0001a3c2:    eb454215    E..B    ADC      r2,r5,r5,LSR #16
        0x0001a3c6:    18a4        ..      ADDS     r4,r4,r2
        0x0001a3c8:    eb42020c    B...    ADC      r2,r2,r12
        0x0001a3cc:    08e4        ..      LSRS     r4,r4,#3
        0x0001a3ce:    ea447442    D.Bt    ORR      r4,r4,r2,LSL #29
        0x0001a3d2:    270a        .'      MOVS     r7,#0xa
        0x0001a3d4:    fba45807    ...X    UMULL    r5,r8,r4,r7
        0x0001a3d8:    08d2        ..      LSRS     r2,r2,#3
        0x0001a3da:    fb028707    ....    MLA      r7,r2,r7,r8
        0x0001a3de:    2600        .&      MOVS     r6,#0
        0x0001a3e0:    fb047606    ...v    MLA      r6,r4,r6,r7
        0x0001a3e4:    1b40        @.      SUBS     r0,r0,r5
        0x0001a3e6:    eb610106    a...    SBC      r1,r1,r6
        0x0001a3ea:    1d85        ..      ADDS     r5,r0,#6
        0x0001a3ec:    f1410000    A...    ADC      r0,r1,#0
        0x0001a3f0:    092d        -.      LSRS     r5,r5,#4
        0x0001a3f2:    ea457100    E..q    ORR      r1,r5,r0,LSL #28
        0x0001a3f6:    0905        ..      LSRS     r5,r0,#4
        0x0001a3f8:    1908        ..      ADDS     r0,r1,r4
        0x0001a3fa:    eb450102    E...    ADC      r1,r5,r2
        0x0001a3fe:    e012        ..      B        0x1a426 ; ndigits_in_u64 + 182
        0x0001a400:    0841        A.      LSRS     r1,r0,#1
        0x0001a402:    eb010190    ....    ADD      r1,r1,r0,LSR #2
        0x0001a406:    eb011111    ....    ADD      r1,r1,r1,LSR #4
        0x0001a40a:    eb012111    ...!    ADD      r1,r1,r1,LSR #8
        0x0001a40e:    eb014111    ...A    ADD      r1,r1,r1,LSR #16
        0x0001a412:    08c9        ..      LSRS     r1,r1,#3
        0x0001a414:    424a        JB      RSBS     r2,r1,#0
        0x0001a416:    eb020282    ....    ADD      r2,r2,r2,LSL #2
        0x0001a41a:    eb000042    ..B.    ADD      r0,r0,r2,LSL #1
        0x0001a41e:    1d80        ..      ADDS     r0,r0,#6
        0x0001a420:    eb011010    ....    ADD      r0,r1,r0,LSR #4
        0x0001a424:    4661        aF      MOV      r1,r12
        0x0001a426:    1c5b        [.      ADDS     r3,r3,#1
        0x0001a428:    ea500201    P...    ORRS     r2,r0,r1
        0x0001a42c:    d1aa        ..      BNE      0x1a384 ; ndigits_in_u64 + 20
        0x0001a42e:    e8bd01f0    ....    POP      {r4-r8}
        0x0001a432:    4618        .F      MOV      r0,r3
        0x0001a434:    4770        pG      BX       lr
    i.nonblocking_read_sm
    nonblocking_read_sm
        0x0001a436:    e92d41f0    -..A    PUSH     {r4-r8,lr}
        0x0001a43a:    4604        .F      MOV      r4,r0
        0x0001a43c:    f8900098    ....    LDRB     r0,[r0,#0x98]
        0x0001a440:    b08a        ..      SUB      sp,sp,#0x28
        0x0001a442:    b370        p.      CBZ      r0,0x1a4a2 ; nonblocking_read_sm + 108
        0x0001a444:    4625        %F      MOV      r5,r4
        0x0001a446:    f7fdff5b    ..[.    BL       am_hal_interrupt_master_disable ; 0x18300
        0x0001a44a:    9009        ..      STR      r0,[sp,#0x24]
        0x0001a44c:    2100        .!      MOVS     r1,#0
        0x0001a44e:    6a6a        jj      LDR      r2,[r5,#0x24]
        0x0001a450:    2620         &      MOVS     r6,#0x20
        0x0001a452:    0310        ..      LSLS     r0,r2,#12
        0x0001a454:    f1004380    ...C    ADD      r3,r0,#0x40000000
        0x0001a458:    466f        oF      MOV      r7,sp
        0x0001a45a:    f10d0820    .. .    ADD      r8,sp,#0x20
        0x0001a45e:    468c        .F      MOV      r12,r1
        0x0001a460:    f50333e0    ...3    ADD      r3,r3,#0x1c000
        0x0001a464:    6998        .i      LDR      r0,[r3,#0x18]
        0x0001a466:    f0100f10    ....    TST      r0,#0x10
        0x0001a46a:    d10a        ..      BNE      0x1a482 ; nonblocking_read_sm + 76
        0x0001a46c:    681a        .h      LDR      r2,[r3,#0]
        0x0001a46e:    f4126f70    ..po    TST      r2,#0xf00
        0x0001a472:    d002        ..      BEQ      0x1a47a ; nonblocking_read_sm + 68
        0x0001a474:    f04f6c00    O..l    MOV      r12,#0x8000000
        0x0001a478:    e003        ..      B        0x1a482 ; nonblocking_read_sm + 76
        0x0001a47a:    547a        zT      STRB     r2,[r7,r1]
        0x0001a47c:    1c49        I.      ADDS     r1,r1,#1
        0x0001a47e:    42b1        .B      CMP      r1,r6
        0x0001a480:    d3f0        ..      BCC      0x1a464 ; nonblocking_read_sm + 46
        0x0001a482:    f1b80f00    ....    CMP      r8,#0
        0x0001a486:    bf18        ..      IT       NE
        0x0001a488:    9108        ..      STRNE    r1,[sp,#0x20]
        0x0001a48a:    f1bc0f00    ....    CMP      r12,#0
        0x0001a48e:    d105        ..      BNE      0x1a49c ; nonblocking_read_sm + 102
        0x0001a490:    4639        9F      MOV      r1,r7
        0x0001a492:    f105009c    ....    ADD      r0,r5,#0x9c
        0x0001a496:    9a08        ..      LDR      r2,[sp,#0x20]
        0x0001a498:    f7fefe10    ....    BL       am_hal_queue_item_add ; 0x190bc
        0x0001a49c:    9809        ..      LDR      r0,[sp,#0x24]
        0x0001a49e:    f7fdff33    ..3.    BL       am_hal_interrupt_master_set ; 0x18308
        0x0001a4a2:    f894002c    ..,.    LDRB     r0,[r4,#0x2c]
        0x0001a4a6:    2800        .(      CMP      r0,#0
        0x0001a4a8:    bf04        ..      ITT      EQ
        0x0001a4aa:    b00a        ..      ADDEQ    sp,sp,#0x28
        0x0001a4ac:    e8bd81f0    ....    POPEQ    {r4-r8,pc}
        0x0001a4b0:    f7fdff26    ..&.    BL       am_hal_interrupt_master_disable ; 0x18300
        0x0001a4b4:    9001        ..      STR      r0,[sp,#4]
        0x0001a4b6:    6d20         m      LDR      r0,[r4,#0x50]
        0x0001a4b8:    6ba1        .k      LDR      r1,[r4,#0x38]
        0x0001a4ba:    1a0a        ..      SUBS     r2,r1,r0
        0x0001a4bc:    6b61        ak      LDR      r1,[r4,#0x34]
        0x0001a4be:    2500        .%      MOVS     r5,#0
        0x0001a4c0:    4401        .D      ADD      r1,r1,r0
        0x0001a4c2:    9500        ..      STR      r5,[sp,#0]
        0x0001a4c4:    f8940098    ....    LDRB     r0,[r4,#0x98]
        0x0001a4c8:    b1a0        ..      CBZ      r0,0x1a4f4 ; nonblocking_read_sm + 190
        0x0001a4ca:    f8d400a4    ....    LDR      r0,[r4,#0xa4]
        0x0001a4ce:    4282        .B      CMP      r2,r0
        0x0001a4d0:    bf28        (.      IT       CS
        0x0001a4d2:    4602        .F      MOVCS    r2,r0
        0x0001a4d4:    f104009c    ....    ADD      r0,r4,#0x9c
        0x0001a4d8:    9200        ..      STR      r2,[sp,#0]
        0x0001a4da:    f7fefe1a    ....    BL       am_hal_queue_item_get ; 0x19112
        0x0001a4de:    bb28        (.      CBNZ     r0,0x1a52c ; nonblocking_read_sm + 246
        0x0001a4e0:    f884502c    ..,P    STRB     r5,[r4,#0x2c]
        0x0001a4e4:    6c62        bl      LDR      r2,[r4,#0x44]
        0x0001a4e6:    b30a        ..      CBZ      r2,0x1a52c ; nonblocking_read_sm + 246
        0x0001a4e8:    2001        .       MOVS     r0,#1
        0x0001a4ea:    6ca1        .l      LDR      r1,[r4,#0x48]
        0x0001a4ec:    4790        .G      BLX      r2
        0x0001a4ee:    b00a        ..      ADD      sp,sp,#0x28
        0x0001a4f0:    e8bd81f0    ....    POP      {r4-r8,pc}
        0x0001a4f4:    2000        .       MOVS     r0,#0
        0x0001a4f6:    6a63        cj      LDR      r3,[r4,#0x24]
        0x0001a4f8:    466e        nF      MOV      r6,sp
        0x0001a4fa:    2a00        .*      CMP      r2,#0
        0x0001a4fc:    bf82        ..      ITTT     HI
        0x0001a4fe:    031b        ..      LSLHI    r3,r3,#12
        0x0001a500:    f1034c80    ...L    ADDHI    r12,r3,#0x40000000
        0x0001a504:    f50c3ce0    ...<    ADDHI    r12,r12,#0x1c000
        0x0001a508:    d90d        ..      BLS      0x1a526 ; nonblocking_read_sm + 240
        0x0001a50a:    f8dc3018    ...0    LDR      r3,[r12,#0x18]
        0x0001a50e:    f0130f10    ....    TST      r3,#0x10
        0x0001a512:    bf04        ..      ITT      EQ
        0x0001a514:    f8dc3000    ...0    LDREQ    r3,[r12,#0]
        0x0001a518:    f4136f70    ..po    TSTEQ    r3,#0xf00
        0x0001a51c:    d103        ..      BNE      0x1a526 ; nonblocking_read_sm + 240
        0x0001a51e:    540b        .T      STRB     r3,[r1,r0]
        0x0001a520:    1c40        @.      ADDS     r0,r0,#1
        0x0001a522:    4290        .B      CMP      r0,r2
        0x0001a524:    d3f1        ..      BCC      0x1a50a ; nonblocking_read_sm + 212
        0x0001a526:    2e00        ..      CMP      r6,#0
        0x0001a528:    bf18        ..      IT       NE
        0x0001a52a:    9000        ..      STRNE    r0,[sp,#0]
        0x0001a52c:    6d20         m      LDR      r0,[r4,#0x50]
        0x0001a52e:    9900        ..      LDR      r1,[sp,#0]
        0x0001a530:    4408        .D      ADD      r0,r0,r1
        0x0001a532:    6520         e      STR      r0,[r4,#0x50]
        0x0001a534:    9801        ..      LDR      r0,[sp,#4]
        0x0001a536:    f7fdfee7    ....    BL       am_hal_interrupt_master_set ; 0x18308
        0x0001a53a:    6d20         m      LDR      r0,[r4,#0x50]
        0x0001a53c:    6be1        .k      LDR      r1,[r4,#0x3c]
        0x0001a53e:    6008        .`      STR      r0,[r1,#0]
        0x0001a540:    6d20         m      LDR      r0,[r4,#0x50]
        0x0001a542:    6ba1        .k      LDR      r1,[r4,#0x38]
        0x0001a544:    4288        .B      CMP      r0,r1
        0x0001a546:    bf1c        ..      ITT      NE
        0x0001a548:    b00a        ..      ADDNE    sp,sp,#0x28
        0x0001a54a:    e8bd81f0    ....    POPNE    {r4-r8,pc}
        0x0001a54e:    f884502c    ..,P    STRB     r5,[r4,#0x2c]
        0x0001a552:    6c62        bl      LDR      r2,[r4,#0x44]
        0x0001a554:    2a00        .*      CMP      r2,#0
        0x0001a556:    bf04        ..      ITT      EQ
        0x0001a558:    b00a        ..      ADDEQ    sp,sp,#0x28
        0x0001a55a:    e8bd81f0    ....    POPEQ    {r4-r8,pc}
        0x0001a55e:    2000        .       MOVS     r0,#0
        0x0001a560:    6ca1        .l      LDR      r1,[r4,#0x48]
        0x0001a562:    b00a        ..      ADD      sp,sp,#0x28
        0x0001a564:    e8bd41f0    ...A    POP      {r4-r8,lr}
        0x0001a568:    4710        .G      BX       r2
    i.nonblocking_write_sm
    nonblocking_write_sm
        0x0001a56a:    b5f0        ..      PUSH     {r4-r7,lr}
        0x0001a56c:    4604        .F      MOV      r4,r0
        0x0001a56e:    f8900054    ..T.    LDRB     r0,[r0,#0x54]
        0x0001a572:    2600        .&      MOVS     r6,#0
        0x0001a574:    b083        ..      SUB      sp,sp,#0xc
        0x0001a576:    2800        .(      CMP      r0,#0
        0x0001a578:    d049        I.      BEQ      0x1a60e ; nonblocking_write_sm + 164
        0x0001a57a:    f7fdfec1    ....    BL       am_hal_interrupt_master_disable ; 0x18300
        0x0001a57e:    9001        ..      STR      r0,[sp,#4]
        0x0001a580:    6fa0        .o      LDR      r0,[r4,#0x78]
        0x0001a582:    6e21        !n      LDR      r1,[r4,#0x60]
        0x0001a584:    1a0a        ..      SUBS     r2,r1,r0
        0x0001a586:    6de1        .m      LDR      r1,[r4,#0x5c]
        0x0001a588:    4401        .D      ADD      r1,r1,r0
        0x0001a58a:    f894007c    ..|.    LDRB     r0,[r4,#0x7c]
        0x0001a58e:    b1b8        ..      CBZ      r0,0x1a5c0 ; nonblocking_write_sm + 86
        0x0001a590:    f8d4308c    ...0    LDR      r3,[r4,#0x8c]
        0x0001a594:    f8d40088    ....    LDR      r0,[r4,#0x88]
        0x0001a598:    1a18        ..      SUBS     r0,r3,r0
        0x0001a59a:    4282        .B      CMP      r2,r0
        0x0001a59c:    bf28        (.      IT       CS
        0x0001a59e:    4602        .F      MOVCS    r2,r0
        0x0001a5a0:    f1040080    ....    ADD      r0,r4,#0x80
        0x0001a5a4:    9200        ..      STR      r2,[sp,#0]
        0x0001a5a6:    f7fefd89    ....    BL       am_hal_queue_item_add ; 0x190bc
        0x0001a5aa:    bb48        H.      CBNZ     r0,0x1a600 ; nonblocking_write_sm + 150
        0x0001a5ac:    f8846054    ..T`    STRB     r6,[r4,#0x54]
        0x0001a5b0:    6ee2        .n      LDR      r2,[r4,#0x6c]
        0x0001a5b2:    4620         F      MOV      r0,r4
        0x0001a5b4:    b322        ".      CBZ      r2,0x1a600 ; nonblocking_write_sm + 150
        0x0001a5b6:    6f01        .o      LDR      r1,[r0,#0x70]
        0x0001a5b8:    2001        .       MOVS     r0,#1
        0x0001a5ba:    4790        .G      BLX      r2
        0x0001a5bc:    b003        ..      ADD      sp,sp,#0xc
        0x0001a5be:    bdf0        ..      POP      {r4-r7,pc}
        0x0001a5c0:    f8d4c024    ..$.    LDR      r12,[r4,#0x24]
        0x0001a5c4:    466d        mF      MOV      r5,sp
        0x0001a5c6:    2300        .#      MOVS     r3,#0
        0x0001a5c8:    b1ba        ..      CBZ      r2,0x1a5fa ; nonblocking_write_sm + 144
        0x0001a5ca:    f1b24f00    ...O    CMP      r2,#0x80000000
        0x0001a5ce:    d266        f.      BCS      0x1a69e ; nonblocking_write_sm + 308
        0x0001a5d0:    2001        .       MOVS     r0,#1
        0x0001a5d2:    2a01        .*      CMP      r2,#1
        0x0001a5d4:    db11        ..      BLT      0x1a5fa ; nonblocking_write_sm + 144
        0x0001a5d6:    ea4f3c0c    O..<    LSL      r12,r12,#12
        0x0001a5da:    f10c4c80    ...L    ADD      r12,r12,#0x40000000
        0x0001a5de:    f50c3ce0    ...<    ADD      r12,r12,#0x1c000
        0x0001a5e2:    f8dc7018    ...p    LDR      r7,[r12,#0x18]
        0x0001a5e6:    f0170f20    .. .    TST      r7,#0x20
        0x0001a5ea:    d106        ..      BNE      0x1a5fa ; nonblocking_write_sm + 144
        0x0001a5ec:    5ccf        .\      LDRB     r7,[r1,r3]
        0x0001a5ee:    f8cc7000    ...p    STR      r7,[r12,#0]
        0x0001a5f2:    1c40        @.      ADDS     r0,r0,#1
        0x0001a5f4:    1c5b        [.      ADDS     r3,r3,#1
        0x0001a5f6:    4290        .B      CMP      r0,r2
        0x0001a5f8:    ddf3        ..      BLE      0x1a5e2 ; nonblocking_write_sm + 120
        0x0001a5fa:    2d00        .-      CMP      r5,#0
        0x0001a5fc:    bf18        ..      IT       NE
        0x0001a5fe:    9300        ..      STRNE    r3,[sp,#0]
        0x0001a600:    6fa0        .o      LDR      r0,[r4,#0x78]
        0x0001a602:    9900        ..      LDR      r1,[sp,#0]
        0x0001a604:    4401        .D      ADD      r1,r1,r0
        0x0001a606:    67a1        .g      STR      r1,[r4,#0x78]
        0x0001a608:    9801        ..      LDR      r0,[sp,#4]
        0x0001a60a:    f7fdfe7d    ..}.    BL       am_hal_interrupt_master_set ; 0x18308
        0x0001a60e:    f894007c    ..|.    LDRB     r0,[r4,#0x7c]
        0x0001a612:    b340        @.      CBZ      r0,0x1a666 ; nonblocking_write_sm + 252
        0x0001a614:    4625        %F      MOV      r5,r4
        0x0001a616:    6a67        gj      LDR      r7,[r4,#0x24]
        0x0001a618:    f7fdfe72    ..r.    BL       am_hal_interrupt_master_disable ; 0x18300
        0x0001a61c:    9001        ..      STR      r0,[sp,#4]
        0x0001a61e:    0338        8.      LSLS     r0,r7,#12
        0x0001a620:    f1004780    ...G    ADD      r7,r0,#0x40000000
        0x0001a624:    f50737e0    ...7    ADD      r7,r7,#0x1c000
        0x0001a628:    69b8        .i      LDR      r0,[r7,#0x18]
        0x0001a62a:    f0100f20    .. .    TST      r0,#0x20
        0x0001a62e:    d117        ..      BNE      0x1a660 ; nonblocking_write_sm + 246
        0x0001a630:    2201        ."      MOVS     r2,#1
        0x0001a632:    4669        iF      MOV      r1,sp
        0x0001a634:    f1050080    ....    ADD      r0,r5,#0x80
        0x0001a638:    f7fefd6b    ..k.    BL       am_hal_queue_item_get ; 0x19112
        0x0001a63c:    b180        ..      CBZ      r0,0x1a660 ; nonblocking_write_sm + 246
        0x0001a63e:    6a68        hj      LDR      r0,[r5,#0x24]
        0x0001a640:    0300        ..      LSLS     r0,r0,#12
        0x0001a642:    f1004080    ...@    ADD      r0,r0,#0x40000000
        0x0001a646:    f50030e0    ...0    ADD      r0,r0,#0x1c000
        0x0001a64a:    6981        .i      LDR      r1,[r0,#0x18]
        0x0001a64c:    f0110f20    .. .    TST      r1,#0x20
        0x0001a650:    bf04        ..      ITT      EQ
        0x0001a652:    f89d1000    ....    LDRBEQ   r1,[sp,#0]
        0x0001a656:    6001        .`      STREQ    r1,[r0,#0]
        0x0001a658:    69b8        .i      LDR      r0,[r7,#0x18]
        0x0001a65a:    f0100f20    .. .    TST      r0,#0x20
        0x0001a65e:    d0e7        ..      BEQ      0x1a630 ; nonblocking_write_sm + 198
        0x0001a660:    9801        ..      LDR      r0,[sp,#4]
        0x0001a662:    f7fdfe51    ..Q.    BL       am_hal_interrupt_master_set ; 0x18308
        0x0001a666:    6fa0        .o      LDR      r0,[r4,#0x78]
        0x0001a668:    6e61        an      LDR      r1,[r4,#0x64]
        0x0001a66a:    6008        .`      STR      r0,[r1,#0]
        0x0001a66c:    6fa0        .o      LDR      r0,[r4,#0x78]
        0x0001a66e:    6e21        !n      LDR      r1,[r4,#0x60]
        0x0001a670:    4288        .B      CMP      r0,r1
        0x0001a672:    bf1c        ..      ITT      NE
        0x0001a674:    b003        ..      ADDNE    sp,sp,#0xc
        0x0001a676:    bdf0        ..      POPNE    {r4-r7,pc}
        0x0001a678:    f8940054    ..T.    LDRB     r0,[r4,#0x54]
        0x0001a67c:    2800        .(      CMP      r0,#0
        0x0001a67e:    bf04        ..      ITT      EQ
        0x0001a680:    b003        ..      ADDEQ    sp,sp,#0xc
        0x0001a682:    bdf0        ..      POPEQ    {r4-r7,pc}
        0x0001a684:    f8846054    ..T`    STRB     r6,[r4,#0x54]
        0x0001a688:    6ee2        .n      LDR      r2,[r4,#0x6c]
        0x0001a68a:    2a00        .*      CMP      r2,#0
        0x0001a68c:    bf04        ..      ITT      EQ
        0x0001a68e:    b003        ..      ADDEQ    sp,sp,#0xc
        0x0001a690:    bdf0        ..      POPEQ    {r4-r7,pc}
        0x0001a692:    2000        .       MOVS     r0,#0
        0x0001a694:    6f21        !o      LDR      r1,[r4,#0x70]
        0x0001a696:    b003        ..      ADD      sp,sp,#0xc
        0x0001a698:    e8bd40f0    ...@    POP      {r4-r7,lr}
        0x0001a69c:    4710        .G      BX       r2
        0x0001a69e:    ea4f300c    O..0    LSL      r0,r12,#12
        0x0001a6a2:    f1004080    ...@    ADD      r0,r0,#0x40000000
        0x0001a6a6:    f50030e0    ...0    ADD      r0,r0,#0x1c000
        0x0001a6aa:    f8d0c018    ....    LDR      r12,[r0,#0x18]
        0x0001a6ae:    f01c0f20    .. .    TST      r12,#0x20
        0x0001a6b2:    d1a2        ..      BNE      0x1a5fa ; nonblocking_write_sm + 144
        0x0001a6b4:    f811c003    ....    LDRB     r12,[r1,r3]
        0x0001a6b8:    f8c0c000    ....    STR      r12,[r0,#0]
        0x0001a6bc:    1c5b        [.      ADDS     r3,r3,#1
        0x0001a6be:    4293        .B      CMP      r3,r2
        0x0001a6c0:    d3f3        ..      BCC      0x1a6aa ; nonblocking_write_sm + 320
        0x0001a6c2:    e79a        ..      B        0x1a5fa ; nonblocking_write_sm + 144
    i.uint64_to_str
    uint64_to_str
        0x0001a6c4:    e92d07f0    -...    PUSH     {r4-r10}
        0x0001a6c8:    b087        ..      SUB      sp,sp,#0x1c
        0x0001a6ca:    f04f0c00    O...    MOV      r12,#0
        0x0001a6ce:    4666        fF      MOV      r6,r12
        0x0001a6d0:    466d        mF      MOV      r5,sp
        0x0001a6d2:    2900        .)      CMP      r1,#0
        0x0001a6d4:    d03f        ?.      BEQ      0x1a756 ; uint64_to_str + 146
        0x0001a6d6:    084f        O.      LSRS     r7,r1,#1
        0x0001a6d8:    ea4f0390    O...    LSR      r3,r0,#2
        0x0001a6dc:    ea4f0430    O.0.    RRX      r4,r0
        0x0001a6e0:    ea437381    C..s    ORR      r3,r3,r1,LSL #30
        0x0001a6e4:    18e4        ..      ADDS     r4,r4,r3
        0x0001a6e6:    eb470391    G...    ADC      r3,r7,r1,LSR #2
        0x0001a6ea:    ea4f1814    O...    LSR      r8,r4,#4
        0x0001a6ee:    ea487803    H..x    ORR      r8,r8,r3,LSL #28
        0x0001a6f2:    eb180404    ....    ADDS     r4,r8,r4
        0x0001a6f6:    eb431313    C...    ADC      r3,r3,r3,LSR #4
        0x0001a6fa:    ea4f2814    O..(    LSR      r8,r4,#8
        0x0001a6fe:    ea486803    H..h    ORR      r8,r8,r3,LSL #24
        0x0001a702:    eb180404    ....    ADDS     r4,r8,r4
        0x0001a706:    eb432313    C..#    ADC      r3,r3,r3,LSR #8
        0x0001a70a:    ea4f4814    O..H    LSR      r8,r4,#16
        0x0001a70e:    ea484803    H..H    ORR      r8,r8,r3,LSL #16
        0x0001a712:    eb180404    ....    ADDS     r4,r8,r4
        0x0001a716:    eb434313    C..C    ADC      r3,r3,r3,LSR #16
        0x0001a71a:    18e7        ..      ADDS     r7,r4,r3
        0x0001a71c:    eb430406    C...    ADC      r4,r3,r6
        0x0001a720:    08ff        ..      LSRS     r7,r7,#3
        0x0001a722:    ea477344    G.Ds    ORR      r3,r7,r4,LSL #29
        0x0001a726:    270a        .'      MOVS     r7,#0xa
        0x0001a728:    fba39a07    ....    UMULL    r9,r10,r3,r7
        0x0001a72c:    08e4        ..      LSRS     r4,r4,#3
        0x0001a72e:    fb04a707    ....    MLA      r7,r4,r7,r10
        0x0001a732:    f04f0800    O...    MOV      r8,#0
        0x0001a736:    fb037808    ...x    MLA      r8,r3,r8,r7
        0x0001a73a:    ebb00709    ....    SUBS     r7,r0,r9
        0x0001a73e:    eb610108    a...    SBC      r1,r1,r8
        0x0001a742:    1dbf        ..      ADDS     r7,r7,#6
        0x0001a744:    f1410100    A...    ADC      r1,r1,#0
        0x0001a748:    093f        ?.      LSRS     r7,r7,#4
        0x0001a74a:    ea477701    G..w    ORR      r7,r7,r1,LSL #28
        0x0001a74e:    18fb        ..      ADDS     r3,r7,r3
        0x0001a750:    eb441411    D...    ADC      r4,r4,r1,LSR #4
        0x0001a754:    e012        ..      B        0x1a77c ; uint64_to_str + 184
        0x0001a756:    0843        C.      LSRS     r3,r0,#1
        0x0001a758:    eb030390    ....    ADD      r3,r3,r0,LSR #2
        0x0001a75c:    eb031313    ....    ADD      r3,r3,r3,LSR #4
        0x0001a760:    eb032313    ...#    ADD      r3,r3,r3,LSR #8
        0x0001a764:    eb034313    ...C    ADD      r3,r3,r3,LSR #16
        0x0001a768:    08db        ..      LSRS     r3,r3,#3
        0x0001a76a:    425c        \B      RSBS     r4,r3,#0
        0x0001a76c:    eb040484    ....    ADD      r4,r4,r4,LSL #2
        0x0001a770:    eb000144    ..D.    ADD      r1,r0,r4,LSL #1
        0x0001a774:    1d89        ..      ADDS     r1,r1,#6
        0x0001a776:    eb031311    ....    ADD      r3,r3,r1,LSR #4
        0x0001a77a:    4634        4F      MOV      r4,r6
        0x0001a77c:    4621        !F      MOV      r1,r4
        0x0001a77e:    240a        .$      MOVS     r4,#0xa
        0x0001a780:    fba34704    ...G    UMULL    r4,r7,r3,r4
        0x0001a784:    1b00        ..      SUBS     r0,r0,r4
        0x0001a786:    f1000030    ..0.    ADD      r0,r0,#0x30
        0x0001a78a:    f805000c    ....    STRB     r0,[r5,r12]
        0x0001a78e:    4618        .F      MOV      r0,r3
        0x0001a790:    f10c0c01    ....    ADD      r12,r12,#1
        0x0001a794:    430b        .C      ORRS     r3,r3,r1
        0x0001a796:    d19c        ..      BNE      0x1a6d2 ; uint64_to_str + 14
        0x0001a798:    4660        `F      MOV      r0,r12
        0x0001a79a:    2a00        .*      CMP      r2,#0
        0x0001a79c:    bf02        ..      ITTT     EQ
        0x0001a79e:    b007        ..      ADDEQ    sp,sp,#0x1c
        0x0001a7a0:    e8bd07f0    ....    POPEQ    {r4-r10}
        0x0001a7a4:    4770        pG      BXEQ     lr
        0x0001a7a6:    1e47        G.      SUBS     r7,r0,#1
        0x0001a7a8:    f1b00c00    ....    SUBS     r12,r0,#0
        0x0001a7ac:    dd18        ..      BLE      0x1a7e0 ; uint64_to_str + 284
        0x0001a7ae:    19e9        ..      ADDS     r1,r5,r7
        0x0001a7b0:    1c4b        K.      ADDS     r3,r1,#1
        0x0001a7b2:    1e51        Q.      SUBS     r1,r2,#1
        0x0001a7b4:    f0170f01    ....    TST      r7,#1
        0x0001a7b8:    d103        ..      BNE      0x1a7c2 ; uint64_to_str + 254
        0x0001a7ba:    f8134d01    ...M    LDRB     r4,[r3,#-1]!
        0x0001a7be:    f8014f01    ...O    STRB     r4,[r1,#1]!
        0x0001a7c2:    ea5f046c    _.l.    ASRS     r4,r12,#1
        0x0001a7c6:    d009        ..      BEQ      0x1a7dc ; uint64_to_str + 280
        0x0001a7c8:    f813cc01    ....    LDRB     r12,[r3,#-1]
        0x0001a7cc:    f881c001    ....    STRB     r12,[r1,#1]
        0x0001a7d0:    f813cd02    ....    LDRB     r12,[r3,#-2]!
        0x0001a7d4:    f801cf02    ....    STRB     r12,[r1,#2]!
        0x0001a7d8:    1e64        d.      SUBS     r4,r4,#1
        0x0001a7da:    d1f5        ..      BNE      0x1a7c8 ; uint64_to_str + 260
        0x0001a7dc:    19d1        ..      ADDS     r1,r2,r7
        0x0001a7de:    1c4a        J.      ADDS     r2,r1,#1
        0x0001a7e0:    7016        .p      STRB     r6,[r2,#0]
        0x0001a7e2:    b007        ..      ADD      sp,sp,#0x1c
        0x0001a7e4:    e8bd07f0    ....    POP      {r4-r10}
        0x0001a7e8:    4770        pG      BX       lr
        0x0001a7ea:    0000        ..      MOVS     r0,r0
    x$fpl$d2f
    $v0
    __aeabi_d2f
    _d2f
        0x0001a7ec:    f0214200    !..B    BIC      r2,r1,#0x80000000
        0x0001a7f0:    f1a25260    ..`R    SUB      r2,r2,#0x38000000
        0x0001a7f4:    f5b21f80    ....    CMP      r2,#0x100000
        0x0001a7f8:    f0014300    ...C    AND      r3,r1,#0x80000000
        0x0001a7fc:    bf28        (.      IT       CS
        0x0001a7fe:    f1d26c7f    ...l    RSBSCS   r12,r2,#0xff00000
        0x0001a802:    d90b        ..      BLS      0x1a81c ; __aeabi_d2f + 48
        0x0001a804:    ea5f1c00    _...    LSLS     r12,r0,#4
        0x0001a808:    ea4302c2    C...    ORR      r2,r3,r2,LSL #3
        0x0001a80c:    eb427050    B.Pp    ADC      r0,r2,r0,LSR #29
        0x0001a810:    bf18        ..      IT       NE
        0x0001a812:    4770        pG      BXNE     lr
        0x0001a814:    bf28        (.      IT       CS
        0x0001a816:    f0200001     ...    BICCS    r0,r0,#1
        0x0001a81a:    4770        pG      BX       lr
        0x0001a81c:    f5b21f80    ....    CMP      r2,#0x100000
        0x0001a820:    bfbc        ..      ITT      LT
        0x0001a822:    4618        .F      MOVLT    r0,r3
        0x0001a824:    4770        pG      BXLT     lr
        0x0001a826:    ea4f0c41    O.A.    LSL      r12,r1,#1
        0x0001a82a:    f51c1f00    ....    CMN      r12,#0x200000
        0x0001a82e:    d202        ..      BCS      0x1a836 ; __aeabi_d2f + 74
        0x0001a830:    4608        .F      MOV      r0,r1
        0x0001a832:    f000b85f    .._.    B.W      __fpl_fretinf ; 0x1a8f4
        0x0001a836:    b570        p.      PUSH     {r4-r6,lr}
        0x0001a838:    f000f809    ....    BL       __fpl_dnaninf ; 0x1a84e
    $d
        0x0001a83c:    89000000    ....    DCD    2298478592
    $t
        0x0001a840:    f7ffbff6    ....    B.W      0x1a830 ; __aeabi_d2f + 68
        0x0001a844:    f04f4000    O..@    MOV      r0,#0x80000000
        0x0001a848:    f5a00080    ....    SUB      r0,r0,#0x400000
        0x0001a84c:    4770        pG      BX       lr
    x$fpl$dnaninf
    $v0
    __fpl_dnaninf
        0x0001a84e:    f10e0e02    ....    ADD      lr,lr,#2
        0x0001a852:    f02e0e03    ....    BIC      lr,lr,#3
        0x0001a856:    f85e6b04    ^..k    LDR      r6,[lr],#4
        0x0001a85a:    4236        6B      TST      r6,r6
        0x0001a85c:    d405        ..      BMI      0x1a86a ; __fpl_dnaninf + 28
        0x0001a85e:    2a01        .*      CMP      r2,#1
        0x0001a860:    eb430503    C...    ADC      r5,r3,r3
        0x0001a864:    f5151f00    ....    CMN      r5,#0x200000
        0x0001a868:    d812        ..      BHI      0x1a890 ; __fpl_dnaninf + 66
        0x0001a86a:    2801        .(      CMP      r0,#1
        0x0001a86c:    eb410c01    A...    ADC      r12,r1,r1
        0x0001a870:    f51c1f00    ....    CMN      r12,#0x200000
        0x0001a874:    d80c        ..      BHI      0x1a890 ; __fpl_dnaninf + 66
        0x0001a876:    d10e        ..      BNE      0x1a896 ; __fpl_dnaninf + 72
        0x0001a878:    ea4f7cd1    O..|    LSR      r12,r1,#31
        0x0001a87c:    f5151f00    ....    CMN      r5,#0x200000
        0x0001a880:    eb0c0c4c    ..L.    ADD      r12,r12,r12,LSL #1
        0x0001a884:    f10c0c02    ....    ADD      r12,r12,#2
        0x0001a888:    bf08        ..      IT       EQ
        0x0001a88a:    eb4c7cd3    L..|    ADCEQ    r12,r12,r3,LSR #31
        0x0001a88e:    e004        ..      B        0x1a89a ; __fpl_dnaninf + 76
        0x0001a890:    f04f0c08    O...    MOV      r12,#8
        0x0001a894:    e001        ..      B        0x1a89a ; __fpl_dnaninf + 76
        0x0001a896:    ea4f7cd3    O..|    LSR      r12,r3,#31
        0x0001a89a:    eb0c054c    ..L.    ADD      r5,r12,r12,LSL #1
        0x0001a89e:    fa26f605    &...    LSR      r6,r6,r5
        0x0001a8a2:    f0060607    ....    AND      r6,r6,#7
        0x0001a8a6:    f1b60c04    ....    SUBS     r12,r6,#4
        0x0001a8aa:    d206        ..      BCS      0x1a8ba ; __fpl_dnaninf + 108
        0x0001a8ac:    eb0e0c86    ....    ADD      r12,lr,r6,LSL #2
        0x0001a8b0:    e8bd4070    ..p@    POP      {r4-r6,lr}
        0x0001a8b4:    f04c0c01    L...    ORR      r12,r12,#1
        0x0001a8b8:    4760        `G      BX       r12
        0x0001a8ba:    e8dff00c    ....    TBB      [pc,r12]
    $d
        0x0001a8be:    0b09        ..      DCW    2825
        0x0001a8c0:    0202        ..      DCW    514
    $t
        0x0001a8c2:    f04f4100    O..A    MOV      r1,#0x80000000
        0x0001a8c6:    f04f0000    O...    MOV      r0,#0
        0x0001a8ca:    f5a12100    ...!    SUB      r1,r1,#0x80000
        0x0001a8ce:    bd70        p.      POP      {r4-r6,pc}
        0x0001a8d0:    4619        .F      MOV      r1,r3
        0x0001a8d2:    4610        .F      MOV      r0,r2
        0x0001a8d4:    2801        .(      CMP      r0,#1
        0x0001a8d6:    eb510401    Q...    ADCS     r4,r1,r1
        0x0001a8da:    bf18        ..      IT       NE
        0x0001a8dc:    f5d41400    ....    RSBSNE   r4,r4,#0x200000
        0x0001a8e0:    bf84        ..      ITT      HI
        0x0001a8e2:    2000        .       MOVHI    r0,#0
        0x0001a8e4:    f0014100    ...A    ANDHI    r1,r1,#0x80000000
        0x0001a8e8:    bd70        p.      POP      {r4-r6,pc}
    x$fpl$fpinit
    $v0
    _fp_init
        0x0001a8ea:    f04f7040    O.@p    MOV      r0,#0x3000000
        0x0001a8ee:    eee10a10    ....    VMSR     FPSCR,r0
    __fplib_config_fpu_vfp
    __fplib_config_pureend_doubles
        0x0001a8f2:    4770        pG      BX       lr
    x$fpl$fretinf
    $v0
    __fpl_fretinf
        0x0001a8f4:    21ff        .!      MOVS     r1,#0xff
        0x0001a8f6:    ea4150d0    A..P    ORR      r0,r1,r0,LSR #23
        0x0001a8fa:    05c0        ..      LSLS     r0,r0,#23
        0x0001a8fc:    4770        pG      BX       lr
    x$fpl$usenofp
    __I$use$fp
        0x0001a8fe:    0000        ..      MOVS     r0,r0
    $d.realdata
    .constdata
    __tagsym$$used
    ui32MCUAllowed
        0x0001a900:    00000000    ....    DCD    0
        0x0001a904:    00000000    ....    DCD    0
        0x0001a908:    00000000    ....    DCD    0
        0x0001a90c:    00000000    ....    DCD    0
        0x0001a910:    00000000    ....    DCD    0
    __tagsym$$used
    ui32DSP0Allowed
        0x0001a914:    00000000    ....    DCD    0
        0x0001a918:    00000000    ....    DCD    0
        0x0001a91c:    00000000    ....    DCD    0
        0x0001a920:    00000000    ....    DCD    0
        0x0001a924:    00000000    ....    DCD    0
    __tagsym$$used
    ui32DSP1Allowed
        0x0001a928:    00000000    ....    DCD    0
        0x0001a92c:    00000000    ....    DCD    0
        0x0001a930:    00000000    ....    DCD    0
        0x0001a934:    00000000    ....    DCD    0
        0x0001a938:    00000000    ....    DCD    0
    __tagsym$$used
    ui32SharedAccess
        0x0001a93c:    00000000    ....    DCD    0
        0x0001a940:    00000000    ....    DCD    0
        0x0001a944:    00000000    ....    DCD    0
        0x0001a948:    00000000    ....    DCD    0
        0x0001a94c:    00000000    ....    DCD    0
    __tagsym$$used
    sGlobalAccess
        0x0001a950:    0001a93c    <...    DCD    108860
        0x0001a954:    0001a900    ....    DCD    108800
        0x0001a958:    0001a914    ....    DCD    108820
        0x0001a95c:    0001a928    (...    DCD    108840
        0x0001a960:    1001f004    ....    DCD    268562436
        0x0001a964:    1001f018    ....    DCD    268562456
        0x0001a968:    1001f02c    ,...    DCD    268562476
    .constdata
        0x0001a96c:    01010002    ....    DCD    16842754
        0x0001a970:    0101        ..      DCW    257
    .constdata
    g_ui8HALcompiler
        0x0001a972:    5241        AR      DCW    21057
        0x0001a974:    2043434d    MCC     DCD    541279053
        0x0001a978:    30363035    5060    DCD    808857653
        0x0001a97c:    00303537    750.    DCD    3159351
    .constdata
    g_ui32HALversion
        0x0001a980:    04030000    ....    DCD    67305472
    .constdata
    g_sBspUartConfig
        0x0001a984:    0001c200    ....    DCD    115200
        0x0001a988:    00000203    ....    DCD    515
        0x0001a98c:    02020000    ....    DCD    33685504
        0x0001a990:    00000000    ....    DCD    0
        0x0001a994:    00000000    ....    DCD    0
        0x0001a998:    00000000    ....    DCD    0
        0x0001a99c:    00000000    ....    DCD    0
        0x0001a9a0:    ffffffff    ....    DCD    4294967295
        0x0001a9a4:    00000000    ....    DCD    0
        0x0001a9a8:    00000000    ....    DCD    0
        0x0001a9ac:    00000000    ....    DCD    0
    .constdata
    am_hal_cachectrl_defaults
        0x0001a9b0:    030e        ..      DCW    782
        0x0001a9b2:    00          .       DCB    0
    .constdata
    am_hal_daxi_defaults
        0x0001a9b3:    00          .       DCB    0
        0x0001a9b4:    010f0201    ....    DCD    17760769
    .constdata
    am_hal_gpio_pincfg_output
        0x0001a9b8:    00000183    ....    DCD    387
    .constdata
    am_hal_gpio_pincfg_disabled
        0x0001a9bc:    00000003    ....    DCD    3
    .constdata
    g_ui32DSpintbl
        0x0001a9c0:    8fc007e0    ....    DCD    2411726816
        0x0001a9c4:    e3fbffff    ....    DCD    3824943103
        0x0001a9c8:    01ffffff    ....    DCD    33554431
        0x0001a9cc:    00000000    ....    DCD    0
    .constdata
    g_DefaultMcuMemCfg
        0x0001a9d0:    07070102    ....    DCD    117899522
        0x0001a9d4:    0001        ..      DCW    1
    g_DefaultSRAMCfg
        0x0001a9d6:    0003        ..      DCW    3
        0x0001a9d8:    03000000    ....    DCD    50331648
    am_hal_pwrctrl_peripheral_control
        0x0001a9dc:    40021004    ...@    DCD    1073876996
        0x0001a9e0:    00000001    ....    DCD    1
        0x0001a9e4:    40021008    ...@    DCD    1073877000
        0x0001a9e8:    00000001    ....    DCD    1
        0x0001a9ec:    40021004    ...@    DCD    1073876996
        0x0001a9f0:    00000002    ....    DCD    2
        0x0001a9f4:    40021008    ...@    DCD    1073877000
        0x0001a9f8:    0000001e    ....    DCD    30
        0x0001a9fc:    40021004    ...@    DCD    1073876996
        0x0001aa00:    00000004    ....    DCD    4
        0x0001aa04:    40021008    ...@    DCD    1073877000
        0x0001aa08:    0000001e    ....    DCD    30
        0x0001aa0c:    40021004    ...@    DCD    1073876996
        0x0001aa10:    00000008    ....    DCD    8
        0x0001aa14:    40021008    ...@    DCD    1073877000
        0x0001aa18:    0000001e    ....    DCD    30
        0x0001aa1c:    40021004    ...@    DCD    1073876996
        0x0001aa20:    00000010    ....    DCD    16
        0x0001aa24:    40021008    ...@    DCD    1073877000
        0x0001aa28:    0000001e    ....    DCD    30
        0x0001aa2c:    40021004    ...@    DCD    1073876996
        0x0001aa30:    00000020     ...    DCD    32
        0x0001aa34:    40021008    ...@    DCD    1073877000
        0x0001aa38:    000001e0    ....    DCD    480
        0x0001aa3c:    40021004    ...@    DCD    1073876996
        0x0001aa40:    00000040    @...    DCD    64
        0x0001aa44:    40021008    ...@    DCD    1073877000
        0x0001aa48:    000001e0    ....    DCD    480
        0x0001aa4c:    40021004    ...@    DCD    1073876996
        0x0001aa50:    00000080    ....    DCD    128
        0x0001aa54:    40021008    ...@    DCD    1073877000
        0x0001aa58:    000001e0    ....    DCD    480
        0x0001aa5c:    40021004    ...@    DCD    1073876996
        0x0001aa60:    00000100    ....    DCD    256
        0x0001aa64:    40021008    ...@    DCD    1073877000
        0x0001aa68:    000001e0    ....    DCD    480
        0x0001aa6c:    40021004    ...@    DCD    1073876996
        0x0001aa70:    00000200    ....    DCD    512
        0x0001aa74:    40021008    ...@    DCD    1073877000
        0x0001aa78:    00001e00    ....    DCD    7680
        0x0001aa7c:    40021004    ...@    DCD    1073876996
        0x0001aa80:    00000400    ....    DCD    1024
        0x0001aa84:    40021008    ...@    DCD    1073877000
        0x0001aa88:    00001e00    ....    DCD    7680
        0x0001aa8c:    40021004    ...@    DCD    1073876996
        0x0001aa90:    00000800    ....    DCD    2048
        0x0001aa94:    40021008    ...@    DCD    1073877000
        0x0001aa98:    00001e00    ....    DCD    7680
        0x0001aa9c:    40021004    ...@    DCD    1073876996
        0x0001aaa0:    00001000    ....    DCD    4096
        0x0001aaa4:    40021008    ...@    DCD    1073877000
        0x0001aaa8:    00001e00    ....    DCD    7680
        0x0001aaac:    40021004    ...@    DCD    1073876996
        0x0001aab0:    00002000    . ..    DCD    8192
        0x0001aab4:    40021008    ...@    DCD    1073877000
        0x0001aab8:    00002000    . ..    DCD    8192
        0x0001aabc:    40021004    ...@    DCD    1073876996
        0x0001aac0:    00004000    .@..    DCD    16384
        0x0001aac4:    40021008    ...@    DCD    1073877000
        0x0001aac8:    0001c000    ....    DCD    114688
        0x0001aacc:    40021004    ...@    DCD    1073876996
        0x0001aad0:    00008000    ....    DCD    32768
        0x0001aad4:    40021008    ...@    DCD    1073877000
        0x0001aad8:    0001c000    ....    DCD    114688
        0x0001aadc:    40021004    ...@    DCD    1073876996
        0x0001aae0:    00010000    ....    DCD    65536
        0x0001aae4:    40021008    ...@    DCD    1073877000
        0x0001aae8:    0001c000    ....    DCD    114688
        0x0001aaec:    40021004    ...@    DCD    1073876996
        0x0001aaf0:    00020000    ....    DCD    131072
        0x0001aaf4:    40021008    ...@    DCD    1073877000
        0x0001aaf8:    00020000    ....    DCD    131072
        0x0001aafc:    40021004    ...@    DCD    1073876996
        0x0001ab00:    00040000    ....    DCD    262144
        0x0001ab04:    40021008    ...@    DCD    1073877000
        0x0001ab08:    00040000    ....    DCD    262144
        0x0001ab0c:    40021004    ...@    DCD    1073876996
        0x0001ab10:    00080000    ....    DCD    524288
        0x0001ab14:    40021008    ...@    DCD    1073877000
        0x0001ab18:    00080000    ....    DCD    524288
        0x0001ab1c:    40021004    ...@    DCD    1073876996
        0x0001ab20:    00100000    ....    DCD    1048576
        0x0001ab24:    40021008    ...@    DCD    1073877000
        0x0001ab28:    00100000    ....    DCD    1048576
        0x0001ab2c:    40021004    ...@    DCD    1073876996
        0x0001ab30:    00200000    .. .    DCD    2097152
        0x0001ab34:    40021008    ...@    DCD    1073877000
        0x0001ab38:    00200000    .. .    DCD    2097152
        0x0001ab3c:    40021004    ...@    DCD    1073876996
        0x0001ab40:    00400000    ..@.    DCD    4194304
        0x0001ab44:    40021008    ...@    DCD    1073877000
        0x0001ab48:    00400000    ..@.    DCD    4194304
        0x0001ab4c:    40021004    ...@    DCD    1073876996
        0x0001ab50:    00800000    ....    DCD    8388608
        0x0001ab54:    40021008    ...@    DCD    1073877000
        0x0001ab58:    00800000    ....    DCD    8388608
        0x0001ab5c:    40021004    ...@    DCD    1073876996
        0x0001ab60:    01000000    ....    DCD    16777216
        0x0001ab64:    40021008    ...@    DCD    1073877000
        0x0001ab68:    01000000    ....    DCD    16777216
        0x0001ab6c:    4002100c    ...@    DCD    1073877004
        0x0001ab70:    00000001    ....    DCD    1
        0x0001ab74:    40021010    ...@    DCD    1073877008
        0x0001ab78:    000000ff    ....    DCD    255
        0x0001ab7c:    4002100c    ...@    DCD    1073877004
        0x0001ab80:    00000002    ....    DCD    2
        0x0001ab84:    40021010    ...@    DCD    1073877008
        0x0001ab88:    000000ff    ....    DCD    255
        0x0001ab8c:    4002100c    ...@    DCD    1073877004
        0x0001ab90:    00000004    ....    DCD    4
        0x0001ab94:    40021010    ...@    DCD    1073877008
        0x0001ab98:    000000ff    ....    DCD    255
        0x0001ab9c:    4002100c    ...@    DCD    1073877004
        0x0001aba0:    00000008    ....    DCD    8
        0x0001aba4:    40021010    ...@    DCD    1073877008
        0x0001aba8:    000000ff    ....    DCD    255
        0x0001abac:    4002100c    ...@    DCD    1073877004
        0x0001abb0:    00000010    ....    DCD    16
        0x0001abb4:    40021010    ...@    DCD    1073877008
        0x0001abb8:    000000ff    ....    DCD    255
        0x0001abbc:    4002100c    ...@    DCD    1073877004
        0x0001abc0:    00000020     ...    DCD    32
        0x0001abc4:    40021010    ...@    DCD    1073877008
        0x0001abc8:    000000ff    ....    DCD    255
        0x0001abcc:    4002100c    ...@    DCD    1073877004
        0x0001abd0:    00000040    @...    DCD    64
        0x0001abd4:    40021010    ...@    DCD    1073877008
        0x0001abd8:    000000ff    ....    DCD    255
        0x0001abdc:    4002100c    ...@    DCD    1073877004
        0x0001abe0:    00000080    ....    DCD    128
        0x0001abe4:    40021010    ...@    DCD    1073877008
        0x0001abe8:    000000ff    ....    DCD    255
        0x0001abec:    4002100c    ...@    DCD    1073877004
        0x0001abf0:    00000400    ....    DCD    1024
        0x0001abf4:    40021010    ...@    DCD    1073877008
        0x0001abf8:    00000400    ....    DCD    1024
    g_VDDF_trimstbl
        0x0001abfc:    f500f5ec    ....    DCD    4110480876
        0x0001ac00:    08fefffe    ....    DCD    150929406
        0x0001ac04:    fd1108fe    ....    DCD    4245752062
        0x0001ac08:    1afc1a11    ....    DCD    452729361
        0x0001ac0c:    2c23fb23    #.#,    DCD    740555555
        0x0001ac10:    f9352cfa    .,5.    DCD    4181011706
        0x0001ac14:    7ff83c35    5<..    DCD    2146974773
        0x0001ac18:    007f        ..      DCW    127
    g_VDDFLP_trimstbl
        0x0001ac1a:    f5ec        ..      DCW    62956
        0x0001ac1c:    fffef500    ....    DCD    4294898944
        0x0001ac20:    08fe08fe    ....    DCD    150866174
        0x0001ac24:    1a11fd11    ....    DCD    437386513
        0x0001ac28:    fb231afc    ..#.    DCD    4213381884
        0x0001ac2c:    2cfa2c23    #,.,    DCD    754592803
        0x0001ac30:    3c35f935    5.5<    DCD    1010170165
        0x0001ac34:    007f7ff8    ....    DCD    8355832
    g_memlpldo_trimstbl
        0x0001ac38:    f208f2ee    ....    DCD    4060672750
        0x0001ac3c:    faf607f6    ....    DCD    4210427894
        0x0001ac40:    05fefa06    ....    DCD    100596230
        0x0001ac44:    020402fe    ....    DCD    33817342
        0x0001ac48:    0a060306    ....    DCD    168166150
        0x0001ac4c:    010e0a02    ....    DCD    17697282
        0x0001ac50:    1200120e    ....    DCD    301994510
        0x0001ac54:    1a16ff16    ....    DCD    437714710
        0x0001ac58:    fd2a1afe    ..*.    DCD    4247395070
        0x0001ac5c:    7ffc3c2a    *<..    DCD    2147236906
        0x0001ac60:    0000007f    ....    DCD    127
    .constdata
    g_am_hal_bootrom_helper
        0x0001ac64:    0800004d    M...    DCD    134217805
        0x0001ac68:    08000051    Q...    DCD    134217809
        0x0001ac6c:    08000055    U...    DCD    134217813
        0x0001ac70:    08000059    Y...    DCD    134217817
        0x0001ac74:    0800006d    m...    DCD    134217837
        0x0001ac78:    08000075    u...    DCD    134217845
        0x0001ac7c:    08000079    y...    DCD    134217849
        0x0001ac80:    08000081    ....    DCD    134217857
        0x0001ac84:    08000099    ....    DCD    134217881
        0x0001ac88:    0800009d    ....    DCD    134217885
    .conststring
        0x0001ac8c:    7361654d    Meas    DCD    1935762765
        0x0001ac90:    20657275    ure     DCD    543519349
        0x0001ac94:    65776f70    powe    DCD    1702326128
        0x0001ac98:    68772072    r wh    DCD    1752637554
        0x0001ac9c:    20656c69    ile     DCD    543517801
        0x0001aca0:    706d6f63    comp    DCD    1886220131
        0x0001aca4:    6e697475    utin    DCD    1852404853
        0x0001aca8:    68742067    g th    DCD    1752440935
        0x0001acac:    756e2065    e nu    DCD    1970151525
        0x0001acb0:    7265626d    mber    DCD    1919246957
        0x0001acb4:    20666f20     of     DCD    543584032
        0x0001acb8:    6d697270    prim    DCD    1835627120
        0x0001acbc:    756e2065    e nu    DCD    1970151525
        0x0001acc0:    7265626d    mber    DCD    1919246957
        0x0001acc4:    70752073    s up    DCD    1886724211
        0x0001acc8:    206f7420     to     DCD    544175136
        0x0001accc:    0a2e6425    %d..    DCD    170812453
        0x0001acd0:    0000000a    ....    DCD    10
    Region$$Table$$Base
        0x0001acd4:    0001ad04    ....    DCD    109828
        0x0001acd8:    10000000    ....    DCD    268435456
        0x0001acdc:    00000060    `...    DCD    96
        0x0001ace0:    00018270    p...    DCD    98928
        0x0001ace4:    0001ad64    d...    DCD    109924
        0x0001ace8:    1001f000    ....    DCD    268562432
        0x0001acec:    00000040    @...    DCD    64
        0x0001acf0:    00018270    p...    DCD    98928
        0x0001acf4:    0001ad64    d...    DCD    109924
        0x0001acf8:    10000060    `...    DCD    268435552
        0x0001acfc:    00000840    @...    DCD    2112
        0x0001ad00:    0001828c    ....    DCD    98956
    Region$$Table$$Limit

** Section #2 'MCU_TCM' (SHT_PROGBITS) [SHF_ALLOC + SHF_WRITE]
    Size   : 96 bytes (alignment 4)
    Address: 0x10000000

    0x10000000:   00 00 00 00 00 00 00 00 00 00 00 00 00 00 00 00    ................
    0x10000010:   00 00 00 00 00 01 02 0f 01 00 00 00 01 00 00 00    ................
    0x10000020:   00 00 00 00 ff ff ff ff ff ff ff ff 00 00 00 00    ................
    0x10000030:   00 00 00 00 00 00 00 00 00 00 00 00 00 00 00 00    ................
    0x10000040:   00 00 00 00 00 00 00 00 00 00 00 00 00 00 00 00    ................
    0x10000050:   00 00 00 00 00 00 00 00 04 04 00 00 04 00 00 00    ................


** Section #3 'MCU_TCM' (SHT_NOBITS) [SHF_ALLOC + SHF_WRITE]
    Size   : 2112 bytes (alignment 8)
    Address: 0x10000060


** Section #4 'SHARED_SRAM' (SHT_PROGBITS) [SHF_ALLOC + SHF_WRITE]
    Size   : 64 bytes (alignment 4)
    Address: 0x1001f000

    0x1001f000:   50 a9 01 00 00 00 00 00 00 00 00 00 00 00 00 00    P...............
    0x1001f010:   00 00 00 00 00 00 00 00 00 00 00 00 00 00 00 00    ................
    0x1001f020:   00 00 00 00 00 00 00 00 00 00 00 00 00 00 00 00    ................
    0x1001f030:   00 00 00 00 00 00 00 00 00 00 00 00 00 00 00 00    ................


** Section #5 '.debug_abbrev' (SHT_PROGBITS)
    Size   : 1476 bytes


** Section #6 '.debug_frame' (SHT_PROGBITS)
    Size   : 2776 bytes


** Section #7 '.debug_info' (SHT_PROGBITS)
    Size   : 16308 bytes


** Section #8 '.debug_line' (SHT_PROGBITS)
    Size   : 4812 bytes


** Section #9 '.debug_loc' (SHT_PROGBITS)
    Size   : 2780 bytes


** Section #10 '.debug_macinfo' (SHT_PROGBITS)
    Size   : 3452 bytes


** Section #11 '.debug_pubnames' (SHT_PROGBITS)
    Size   : 670 bytes


** Section #12 '.symtab' (SHT_SYMTAB)
    Size   : 9696 bytes (alignment 4)
    String table #13 '.strtab'
    Last local symbol no. 376

    Symbol table .symtab (605 symbols, 376 local)

      #  Symbol Name                Value      Bind  Sec  Type  Vis  Size
    ========================================================================

      1  $d                         0x00018000   Lc    1   --   De 
      2  $t                         0x00018200   Lc    1   --   De 
      3  $d                         0x00018230   Lc    1   --   De 
      4  $t                         0x00018234   Lc    1   --   De 
      5  $d                         0x00018268   Lc    1   --   De 
      6  $t                         0x00018270   Lc    1   --   De 
      7  $d                         0x0001831a   Lc    1   --   De 
      8  $t                         0x00018328   Lc    1   --   De 
      9  $d                         0x00018390   Lc    1   --   De 
     10  $t                         0x00018394   Lc    1   --   De 
     11  $d                         0x0001839c   Lc    1   --   De 
     12  $t                         0x000183a0   Lc    1   --   De 
     13  $d                         0x00018408   Lc    1   --   De 
     14  $t                         0x00018410   Lc    1   --   De 
     15  $d                         0x00018464   Lc    1   --   De 
     16  $t                         0x0001847c   Lc    1   --   De 
     17  $d                         0x000184be   Lc    1   --   De 
     18  $t                         0x000184c8   Lc    1   --   De 
     19  $d                         0x00018534   Lc    1   --   De 
     20  $t                         0x00018552   Lc    1   --   De 
     21  $d                         0x000186ca   Lc    1   --   De 
     22  $t                         0x000186d4   Lc    1   --   De 
     23  $d                         0x00018764   Lc    1   --   De 
     24  $t                         0x0001876c   Lc    1   --   De 
     25  $d                         0x0001878e   Lc    1   --   De 
     26  $t                         0x00018798   Lc    1   --   De 
     27  $d                         0x000187e8   Lc    1   --   De 
     28  $t                         0x000187f0   Lc    1   --   De 
     29  $d                         0x0001884c   Lc    1   --   De 
     30  $t                         0x00018854   Lc    1   --   De 
     31  $d                         0x000188e0   Lc    1   --   De 
     32  $t                         0x000188e8   Lc    1   --   De 
     33  $d                         0x0001890a   Lc    1   --   De 
     34  $t                         0x00018910   Lc    1   --   De 
     35  $d                         0x000189c8   Lc    1   --   De 
     36  $t                         0x000189cc   Lc    1   --   De 
     37  $d                         0x000189e4   Lc    1   --   De 
     38  $t                         0x000189ea   Lc    1   --   De 
     39  $d                         0x00018be0   Lc    1   --   De 
     40  $t                         0x00018bf4   Lc    1   --   De 
     41  $d                         0x00018cfa   Lc    1   --   De 
     42  $t                         0x00018d18   Lc    1   --   De 
     43  $d                         0x00018e2c   Lc    1   --   De 
     44  $t                         0x00018e34   Lc    1   --   De 
     45  $d                         0x00018f46   Lc    1   --   De 
     46  $t                         0x00018f60   Lc    1   --   De 
     47  $d                         0x00019006   Lc    1   --   De 
     48  $t                         0x00019014   Lc    1   --   De 
     49  $d                         0x000190b2   Lc    1   --   De 
     50  $t                         0x000190bc   Lc    1   --   De 
     51  $d                         0x00019172   Lc    1   --   De 
     52  $t                         0x00019178   Lc    1   --   De 
     53  $d                         0x000191ee   Lc    1   --   De 
     54  $t                         0x000191f4   Lc    1   --   De 
     55  $d                         0x000192ec   Lc    1   --   De 
     56  $t                         0x00019310   Lc    1   --   De 
     57  $d                         0x0001933a   Lc    1   --   De 
     58  $t                         0x00019340   Lc    1   --   De 
     59  $d                         0x000193b8   Lc    1   --   De 
     60  $t                         0x000193c0   Lc    1   --   De 
     61  $d                         0x000194a2   Lc    1   --   De 
     62  $t                         0x000194a8   Lc    1   --   De 
     63  $d                         0x0001971a   Lc    1   --   De 
     64  $t                         0x00019724   Lc    1   --   De 
     65  $d                         0x000197c2   Lc    1   --   De 
     66  $t                         0x000197c8   Lc    1   --   De 
     67  $d                         0x00019870   Lc    1   --   De 
     68  $t                         0x00019878   Lc    1   --   De 
     69  $d                         0x000198a4   Lc    1   --   De 
     70  $t                         0x000198ac   Lc    1   --   De 
     71  $d                         0x000198b2   Lc    1   --   De 
     72  $t                         0x000198b8   Lc    1   --   De 
     73  $d                         0x000198d8   Lc    1   --   De 
     74  $t                         0x000198f4   Lc    1   --   De 
     75  $d                         0x00019d14   Lc    1   --   De 
     76  $t                         0x00019d18   Lc    1   --   De 
     77  $d                         0x0001a028   Lc    1   --   De 
     78  $t                         0x0001a034   Lc    1   --   De 
     79  $d                         0x0001a0da   Lc    1   --   De 
     80  $t                         0x0001a0e4   Lc    1   --   De 
     81  $d                         0x0001a208   Lc    1   --   De 
     82  $t                         0x0001a370   Lc    1   --   De 
     83  $d                         0x0001a83c   Lc    1   --   De 
     84  $t                         0x0001a840   Lc    1   --   De 
     85  $d                         0x0001a8be   Lc    1   --   De 
     86  $t                         0x0001a8c2   Lc    1   --   De 
     87  $d.realdata                0x0001a900   Lc    1   --   De 
     88  $d.realdata                0x10000000   Lc    2   --   De 
     89  $d.realdata                0x1001f000   Lc    4   --   De 
     90  ../../../../../../third_party/prime_mpi/src/prime_mpi.c
                                    0x00000000   Lc  Abs  File  De 
     91  ..\src\am_resources.c      0x00000000   Lc  Abs  File  De 
     92  ../src/am_resources.c      0x00000000   Lc  Abs  File  De 
     93  .constdata                 0x0001a900   Lc    1  Sect  De   0x6c
     94  __tagsym$$used             0x0001a900   Lc    1   --   De 
     95  __tagsym$$used             0x0001a914   Lc    1   --   De 
     96  __tagsym$$used             0x0001a928   Lc    1   --   De 
     97  __tagsym$$used             0x0001a93c   Lc    1   --   De 
     98  __tagsym$$used             0x0001a950   Lc    1   --   De 
     99  RESOURCE_TABLE             0x1001f000   Lc    4  Sect  De   0x4
    100  __tagsym$$used             0x1001f000   Lc    4   --   De 
    101  SHARED_RW                  0x1001f004   Lc    4  Sect  De   0x3c
    102  __tagsym$$used             0x1001f004   Lc    4   --   De 
    103  __tagsym$$used             0x1001f018   Lc    4   --   De 
    104  __tagsym$$used             0x1001f02c   Lc    4   --   De 
    105  ..\src\prime.c             0x00000000   Lc  Abs  File  De 
    106  ../src/prime.c             0x00000000   Lc  Abs  File  De 
    107  i.main                     0x0001a0e4   Lc    1  Sect  De 
    108  .constdata                 0x0001a96c   Lc    1  Sect  De   0x6
    109  .conststring               0x0001ac8c   Lc    1  Sect  De   0x46
    110  ..\..\..\..\..\..\utils\am_util_delay.c
                                    0x00000000   Lc  Abs  File  De 
    111  ../../../../../../utils/am_util_delay.c
                                    0x00000000   Lc  Abs  File  De 
    112  ..\..\..\..\..\..\utils\am_util_faultisr.c
                                    0x00000000   Lc  Abs  File  De 
    113  .emb_text                  0x000182d4   Lc    1  Sect  De   0x22
    114  $v0                        0x000182d4   Lc    1   --   De 
    115  ../../../../../../utils/am_util_faultisr.c
                                    0x00000000   Lc  Abs  File  De 
    116  i.am_util_faultisr_collect_data
                                    0x000197c8   Lc    1  Sect  De 
    117  ../../../../../../utils/am_util_stdio.c
                                    0x00000000   Lc  Abs  File  De 
    118  i.am_util_stdio_printf     0x00019878   Lc    1  Sect  De 
    119  i.am_util_stdio_printf_init
                                    0x000198ac   Lc    1  Sect  De 
    120  i.am_util_stdio_terminal_clear
                                    0x000198b8   Lc    1  Sect  De 
    121  i.am_util_stdio_vsprintf   0x000198f4   Lc    1  Sect  De 
    122  i.ndigits_in_u64           0x0001a370   Lc    1  Sect  De 
    123  ndigits_in_u64             0x0001a371   Lc    1  Code  De   0xc6
    124  i.uint64_to_str            0x0001a6c4   Lc    1  Sect  De 
    125  uint64_to_str              0x0001a6c5   Lc    1  Code  De   0x126
    126  .bss                       0x10000060   Lc    3  Sect  De   0x100
    127  g_prfbuf                   0x10000060   Lc    3  Data  De   0x100
    128  .data                      0x10000000   Lc    2  Sect  De   0x8
    129  g_bTxtXlate                0x10000000   Lc    2  Data  De   0x1
    130  ..\..\..\..\..\..\devices\am_devices_led.c
                                    0x00000000   Lc  Abs  File  De 
    131  ../../../../../../devices/am_devices_led.c
                                    0x00000000   Lc  Abs  File  De 
    132  ../keil/startup_keil.s     0x00000000   Lc  Abs  File  De 
    133  STACK                      0x100004a0   Lc    3  Sect  De   0x400
    134  StackMem                   0x100004a0   Lc    3  Data  De 
    135  HEAP                       0x100004a0   Lc    3  Sect  De 
    136  HeapMem                    0x100004a0   Lc    3  Data  De 
    137  RESET                      0x00018000   Lc    1  Sect  De   0x234
    138  $v0                        0x00018200   Lc    1   --   De 
    139  am_cryptosec_isr           0x0001822f   Lc    1  Code  De 
    140  am_default_isr             0x0001822f   Lc    1  Code  De   0x2
    141  .text                      0x00018310   Lc    1  Sect  De   0x18
    142  $v0                        0x00018310   Lc    1   --   De 
    143  ..\..\..\..\..\mcu\apollo4p\hal\am_hal_global.c
                                    0x00000000   Lc  Abs  File  De 
    144  ../../../../../mcu/apollo4p/hal/am_hal_global.c
                                    0x00000000   Lc  Abs  File  De 
    145  .constdata                 0x0001a972   Lc    1  Sect  De   0xe
    146  .constdata                 0x0001a980   Lc    1  Sect  De   0x4
    147  .data                      0x10000008   Lc    2  Sect  De   0x4
    148  ..\am_bsp.c                0x00000000   Lc  Abs  File  De 
    149  ../am_bsp.c                0x00000000   Lc  Abs  File  De 
    150  i.am_bsp_low_power_init    0x000183ac   Lc    1  Sect  De 
    151  i.am_bsp_uart_printf_disable
                                    0x000183c4   Lc    1  Sect  De 
    152  i.am_bsp_uart_printf_enable
                                    0x00018410   Lc    1  Sect  De 
    153  i.am_bsp_uart_string_print 0x0001847c   Lc    1  Sect  De 
    154  .constdata                 0x0001a984   Lc    1  Sect  De   0x2c
    155  g_sBspUartConfig           0x0001a984   Lc    1  Data  De   0xc
    156  .data                      0x1000000c   Lc    2  Sect  De   0x8
    157  g_ePrintInterface          0x1000000c   Lc    2  Data  De   0x1
    158  g_sCOMUART                 0x10000010   Lc    2  Data  De   0x4
    159  ..\..\..\..\..\mcu\apollo4p\hal\mcu\am_hal_cachectrl.c
                                    0x00000000   Lc  Abs  File  De 
    160  ../../../../../mcu/apollo4p/hal/mcu/am_hal_cachectrl.c
                                    0x00000000   Lc  Abs  File  De 
    161  i.am_hal_cachectrl_config  0x000184c8   Lc    1  Sect  De 
    162  i.am_hal_cachectrl_enable  0x00018510   Lc    1  Sect  De 
    163  i.am_hal_daxi_config       0x000186d4   Lc    1  Sect  De 
    164  .constdata                 0x0001a9b0   Lc    1  Sect  De   0x3
    165  .constdata                 0x0001a9b3   Lc    1  Sect  De   0x5
    166  .data                      0x10000014   Lc    2  Sect  De   0x5
    167  i.__ARM_common_memcpy4_5   0x000183a2   Lc    1  Sect  De 
    168  ..\..\..\..\..\mcu\apollo4p\hal\mcu\am_hal_clkgen.c
                                    0x00000000   Lc  Abs  File  De 
    169  ../../../../../mcu/apollo4p/hal/mcu/am_hal_clkgen.c
                                    0x00000000   Lc  Abs  File  De 
    170  i.am_hal_clkgen_control    0x00018528   Lc    1  Sect  De 
    171  ..\..\..\..\..\mcu\apollo4p\hal\mcu\am_hal_fault.c
                                    0x00000000   Lc  Abs  File  De 
    172  ../../../../../mcu/apollo4p/hal/mcu/am_hal_fault.c
                                    0x00000000   Lc  Abs  File  De 
    173  i.am_hal_fault_status_get  0x00018854   Lc    1  Sect  De 
    174  ..\..\..\..\..\mcu\apollo4p\hal\mcu\am_hal_utils.c
                                    0x00000000   Lc  Abs  File  De 
    175  ../../../../../mcu/apollo4p/hal/mcu/am_hal_utils.c
                                    0x00000000   Lc  Abs  File  De 
    176  i.am_hal_delay_us          0x0001876c   Lc    1  Sect  De 
    177  i.am_hal_delay_us_status_change
                                    0x00018798   Lc    1  Sect  De 
    178  i.am_hal_delay_us_status_check
                                    0x000187f0   Lc    1  Sect  De 
    179  ..\..\..\..\..\mcu\apollo4p\hal\am_hal_gpio.c
                                    0x00000000   Lc  Abs  File  De 
    180  ../../../../../mcu/apollo4p/hal/am_hal_gpio.c
                                    0x00000000   Lc  Abs  File  De 
    181  i.am_hal_gpio_pinconfig    0x00018894   Lc    1  Sect  De 
    182  i.am_hal_gpio_state_write  0x000188e8   Lc    1  Sect  De 
    183  .constdata                 0x0001a9b8   Lc    1  Sect  De   0x4
    184  .constdata                 0x0001a9bc   Lc    1  Sect  De   0x4
    185  .constdata                 0x0001a9c0   Lc    1  Sect  De   0x10
    186  g_ui32DSpintbl             0x0001a9c0   Lc    1  Data  De   0x10
    187  ..\..\..\..\..\mcu\apollo4p\hal\am_hal_pwrctrl.c
                                    0x00000000   Lc  Abs  File  De 
    188  ../../../../../mcu/apollo4p/hal/am_hal_pwrctrl.c
                                    0x00000000   Lc  Abs  File  De 
    189  i.am_hal_pwrctrl_control   0x000189cc   Lc    1  Sect  De 
    190  i.am_hal_pwrctrl_low_power_init
                                    0x00018bf4   Lc    1  Sect  De 
    191  i.am_hal_pwrctrl_mcu_memory_config
                                    0x00018d18   Lc    1  Sect  De 
    192  i.am_hal_pwrctrl_periph_disable
                                    0x00018e34   Lc    1  Sect  De 
    193  i.am_hal_pwrctrl_periph_enable
                                    0x00018f60   Lc    1  Sect  De 
    194  i.am_hal_pwrctrl_sram_config
                                    0x00019014   Lc    1  Sect  De 
    195  i.crypto_boost_trims       0x0001a034   Lc    1  Sect  De 
    196  .constdata                 0x0001a9d0   Lc    1  Sect  De   0x292
    197  g_VDDF_trimstbl            0x0001abfc   Lc    1  Data  De   0x1e
    198  g_VDDFLP_trimstbl          0x0001ac1a   Lc    1  Data  De   0x1e
    199  g_memlpldo_trimstbl        0x0001ac38   Lc    1  Data  De   0x2a
    200  .data                      0x1000001c   Lc    2  Sect  De   0x3c
    201  g_bOrigTrimsStored         0x1000001d   Lc    2  Data  De   0x1
    202  g_bBoostForCryptoApplied   0x1000001e   Lc    2  Data  De   0x1
    203  g_bTempcoValid             0x1000001f   Lc    2  Data  De   0x1
    204  g_ui16TempcoTEMP_code      0x10000020   Lc    2  Data  De   0x2
    205  g_orig_ACTTRIMVDDF         0x1000002c   Lc    2  Data  De   0x4
    206  g_orig_MEMLDOACTIVETRIM    0x10000030   Lc    2  Data  De   0x4
    207  g_orig_LPTRIMVDDF          0x10000034   Lc    2  Data  De   0x4
    208  g_orig_MEMLPLDOTRIM        0x10000038   Lc    2  Data  De   0x4
    209  g_orig_TVRGVREFTRIM        0x1000003c   Lc    2  Data  De   0x4
    210  g_ui32VDDFAdjustCodes      0x10000040   Lc    2  Data  De   0x4
    211  g_i32LatestVddfActTrim     0x10000044   Lc    2  Data  De   0x4
    212  g_i32LatestLDOActTrim      0x10000048   Lc    2  Data  De   0x4
    213  g_TempcoADCHandle          0x1000004c   Lc    2  Data  De   0x4
    214  g_ui32TempcoADCslot        0x10000050   Lc    2  Data  De   0x4
    215  g_pfTempMeasured           0x10000054   Lc    2  Data  De   0x4
    216  ..\am_bsp_pins.c           0x00000000   Lc  Abs  File  De 
    217  ../am_bsp_pins.c           0x00000000   Lc  Abs  File  De 
    218  .data                      0x10000058   Lc    2  Sect  De   0x4
    219  .data                      0x1000005c   Lc    2  Sect  De   0x4
    220  ..\..\..\..\..\mcu\apollo4p\hal\mcu\am_hal_bootrom_helper.c
                                    0x00000000   Lc  Abs  File  De 
    221  ../../../../../mcu/apollo4p/hal/mcu/am_hal_bootrom_helper.c
                                    0x00000000   Lc  Abs  File  De 
    222  .constdata                 0x0001ac64   Lc    1  Sect  De   0x28
    223  ..\..\..\..\..\mcu\apollo4p\hal\mcu\am_hal_interrupt.c
                                    0x00000000   Lc  Abs  File  De 
    224  .emb_text                  0x000182f8   Lc    1  Sect  De   0x16
    225  $v0                        0x000182f8   Lc    1   --   De 
    226  ../../../../../mcu/apollo4p/hal/mcu/am_hal_interrupt.c
                                    0x00000000   Lc  Abs  File  De 
    227  ..\..\..\..\..\mcu\apollo4p\hal\mcu\am_hal_itm.c
                                    0x00000000   Lc  Abs  File  De 
    228  ../../../../../mcu/apollo4p/hal/mcu/am_hal_itm.c
                                    0x00000000   Lc  Abs  File  De 
    229  ..\..\..\..\..\mcu\apollo4p\hal\mcu\am_hal_mram.c
                                    0x00000000   Lc  Abs  File  De 
    230  ../../../../../mcu/apollo4p/hal/mcu/am_hal_mram.c
                                    0x00000000   Lc  Abs  File  De 
    231  i.am_hal_mram_info_read    0x0001895c   Lc    1  Sect  De 
    232  ..\..\..\..\..\mcu\apollo4p\hal\mcu\am_hal_rtc.c
                                    0x00000000   Lc  Abs  File  De 
    233  ../../../../../mcu/apollo4p/hal/mcu/am_hal_rtc.c
                                    0x00000000   Lc  Abs  File  De 
    234  i.am_hal_rtc_osc_disable   0x00019164   Lc    1  Sect  De 
    235  ..\..\..\..\..\mcu\apollo4p\hal\mcu\am_hal_tpiu.c
                                    0x00000000   Lc  Abs  File  De 
    236  ../../../../../mcu/apollo4p/hal/mcu/am_hal_tpiu.c
                                    0x00000000   Lc  Abs  File  De 
    237  ..\..\..\..\..\mcu\apollo4p\hal\mcu\am_hal_uart.c
                                    0x00000000   Lc  Abs  File  De 
    238  ../../../../../mcu/apollo4p/hal/mcu/am_hal_uart.c
                                    0x00000000   Lc  Abs  File  De 
    239  i.am_hal_uart_configure    0x00019178   Lc    1  Sect  De 
    240  i.am_hal_uart_deinitialize 0x00019310   Lc    1  Sect  De 
    241  i.am_hal_uart_initialize   0x00019340   Lc    1  Sect  De 
    242  i.am_hal_uart_power_control
                                    0x000193c0   Lc    1  Sect  De 
    243  i.am_hal_uart_transfer     0x000194a8   Lc    1  Sect  De 
    244  i.am_hal_uart_tx_flush     0x00019724   Lc    1  Sect  De 
    245  i.nonblocking_read_sm      0x0001a436   Lc    1  Sect  De 
    246  nonblocking_read_sm        0x0001a437   Lc    1  Code  De   0x134
    247  i.nonblocking_write_sm     0x0001a56a   Lc    1  Sect  De 
    248  nonblocking_write_sm       0x0001a56b   Lc    1  Code  De   0x15a
    249  .bss                       0x10000160   Lc    3  Sect  De   0x2e0
    250  ..\..\..\..\..\mcu\apollo4p\hal\am_hal_adc.c
                                    0x00000000   Lc  Abs  File  De 
    251  ../../../../../mcu/apollo4p/hal/am_hal_adc.c
                                    0x00000000   Lc  Abs  File  De 
    252  ..\..\..\..\..\mcu\apollo4p\hal\am_hal_dcu.c
                                    0x00000000   Lc  Abs  File  De 
    253  ../../../../../mcu/apollo4p/hal/am_hal_dcu.c
                                    0x00000000   Lc  Abs  File  De 
    254  ..\..\..\..\..\mcu\apollo4p\hal\am_hal_pin.c
                                    0x00000000   Lc  Abs  File  De 
    255  ../../../../../mcu/apollo4p/hal/am_hal_pin.c
                                    0x00000000   Lc  Abs  File  De 
    256  ..\..\..\..\..\mcu\apollo4p\hal\am_hal_queue.c
                                    0x00000000   Lc  Abs  File  De 
    257  ../../../../../mcu/apollo4p/hal/am_hal_queue.c
                                    0x00000000   Lc  Abs  File  De 
    258  i.am_hal_queue_item_add    0x000190bc   Lc    1  Sect  De 
    259  i.am_hal_queue_item_get    0x00019112   Lc    1  Sect  De 
    260  dc.s                       0x00000000   Lc  Abs  File  De 
    261  ../clib/longlong.s         0x00000000   Lc  Abs  File  De 
    262  ../clib/longlong.s         0x00000000   Lc  Abs  File  De 
    263  ../clib/heapaux.c          0x00000000   Lc  Abs  File  De 
    264  .text                      0x00018328   Lc    1  Sect  De 
    265  ../clib/angel/startup.s    0x00000000   Lc  Abs  File  De 
    266  !!!main                    0x00018234   Lc    1  Sect  De   0x8
    267  ../clib/angel/handlers.s   0x00000000   Lc  Abs  File  De 
    268  !!handler_copy             0x00018270   Lc    1  Sect  De   0x1a
    269  ../fplib/d2f.s             0x00000000   Lc  Abs  File  De 
    270  x$fpl$d2f                  0x0001a7ec   Lc    1  Sect  De   0x62
    271  $v0                        0x0001a7ec   Lc    1   --   De 
    272  ../clib/angel/kernel.s     0x00000000   Lc  Abs  File  De 
    273  .ARM.Collect$$rtentry$$00000000
                                    0x000182b4   Lc    1  Sect  De 
    274  ../fplib/dnaninf.s         0x00000000   Lc  Abs  File  De 
    275  x$fpl$dnaninf              0x0001a84e   Lc    1  Sect  De   0x9c
    276  $v0                        0x0001a84e   Lc    1   --   De 
    277  ../fplib/fretinf.s         0x00000000   Lc  Abs  File  De 
    278  x$fpl$fretinf              0x0001a8f4   Lc    1  Sect  De   0xa
    279  $v0                        0x0001a8f4   Lc    1   --   De 
    280  ../fplib/usenofp.s         0x00000000   Lc  Abs  File  De 
    281  x$fpl$usenofp              0x0001a8fe   Lc    1  Sect  De 
    282  ../clib/angel/kernel.s     0x00000000   Lc  Abs  File  De 
    283  .ARM.Collect$$rtentry$$00000002
                                    0x000182b4   Lc    1  Sect  De 
    284  .ARM.Collect$$rtentry$$00000009
                                    0x000182ba   Lc    1  Sect  De 
    285  .ARM.Collect$$rtentry$$0000000A
                                    0x000182ba   Lc    1  Sect  De   0x4
    286  .ARM.Collect$$rtentry$$0000000C
                                    0x000182be   Lc    1  Sect  De 
    287  .ARM.Collect$$rtentry$$0000000D
                                    0x000182be   Lc    1  Sect  De   0x8
    288  ../clib/angel/kernel.s     0x00000000   Lc  Abs  File  De 
    289  .ARM.Collect$$rtentry$$00000004
                                    0x000182b4   Lc    1  Sect  De   0x6
    290  ../clib/angel/sys.s        0x00000000   Lc  Abs  File  De 
    291  .text                      0x0001832e   Lc    1  Sect  De   0x4a
    292  ../clib/stdlib.c           0x00000000   Lc  Abs  File  De 
    293  .text                      0x00018378   Lc    1  Sect  De 
    294  ../clib/angel/boardlib.s   0x00000000   Lc  Abs  File  De 
    295  ../clib/angel/boardlib.s   0x00000000   Lc  Abs  File  De 
    296  ../clib/angel/boardlib.s   0x00000000   Lc  Abs  File  De 
    297  ../clib/libinit.s          0x00000000   Lc  Abs  File  De 
    298  .ARM.Collect$$libinit$$00000000
                                    0x000182a8   Lc    1  Sect  De   0x2
    299  ../clib/angel/sys.s        0x00000000   Lc  Abs  File  De 
    300  .text                      0x0001838c   Lc    1  Sect  De   0x8
    301  .bss                       0x10000440   Lc    3  Sect  De   0x60
    302  ../clib/angel/kernel.s     0x00000000   Lc  Abs  File  De 
    303  .ARM.Collect$$rtexit$$00000000
                                    0x000182c6   Lc    1  Sect  De   0x2
    304  ../clib/libinit.s          0x00000000   Lc  Abs  File  De 
    305  .ARM.Collect$$libinit$$00000001
                                    0x000182aa   Lc    1  Sect  De   0x4
    306  .ARM.Collect$$libinit$$00000004
                                    0x000182ae   Lc    1  Sect  De 
    307  .ARM.Collect$$libinit$$0000000A
                                    0x000182ae   Lc    1  Sect  De 
    308  .ARM.Collect$$libinit$$0000000C
                                    0x000182ae   Lc    1  Sect  De 
    309  .ARM.Collect$$libinit$$0000000E
                                    0x000182ae   Lc    1  Sect  De 
    310  .ARM.Collect$$libinit$$00000011
                                    0x000182ae   Lc    1  Sect  De 
    311  .ARM.Collect$$libinit$$00000013
                                    0x000182ae   Lc    1  Sect  De 
    312  .ARM.Collect$$libinit$$00000015
                                    0x000182ae   Lc    1  Sect  De 
    313  .ARM.Collect$$libinit$$00000017
                                    0x000182ae   Lc    1  Sect  De 
    314  .ARM.Collect$$libinit$$00000019
                                    0x000182ae   Lc    1  Sect  De 
    315  .ARM.Collect$$libinit$$0000001B
                                    0x000182ae   Lc    1  Sect  De 
    316  .ARM.Collect$$libinit$$0000001D
                                    0x000182ae   Lc    1  Sect  De 
    317  .ARM.Collect$$libinit$$0000001F
                                    0x000182ae   Lc    1  Sect  De 
    318  .ARM.Collect$$libinit$$00000021
                                    0x000182ae   Lc    1  Sect  De 
    319  .ARM.Collect$$libinit$$00000023
                                    0x000182ae   Lc    1  Sect  De 
    320  .ARM.Collect$$libinit$$00000025
                                    0x000182ae   Lc    1  Sect  De 
    321  .ARM.Collect$$libinit$$0000002C
                                    0x000182ae   Lc    1  Sect  De 
    322  .ARM.Collect$$libinit$$0000002E
                                    0x000182ae   Lc    1  Sect  De 
    323  .ARM.Collect$$libinit$$00000030
                                    0x000182ae   Lc    1  Sect  De 
    324  .ARM.Collect$$libinit$$00000032
                                    0x000182ae   Lc    1  Sect  De 
    325  .ARM.Collect$$libinit$$00000033
                                    0x000182ae   Lc    1  Sect  De   0x2
    326  ../clib/angel/kernel.s     0x00000000   Lc  Abs  File  De 
    327  .ARM.Collect$$rtexit$$00000002
                                    0x000182c8   Lc    1  Sect  De 
    328  .ARM.Collect$$rtexit$$00000003
                                    0x000182c8   Lc    1  Sect  De   0x4
    329  .ARM.Collect$$rtexit$$00000004
                                    0x000182cc   Lc    1  Sect  De   0x6
    330  ../clib/armsys.c           0x00000000   Lc  Abs  File  De 
    331  ../clib/armsys.c           0x00000000   Lc  Abs  File  De 
    332  ../fplib/fpinit.s          0x00000000   Lc  Abs  File  De 
    333  x$fpl$fpinit               0x0001a8ea   Lc    1  Sect  De   0xa
    334  $v0                        0x0001a8ea   Lc    1   --   De 
    335  ../clib/angel/sysapp.c     0x00000000   Lc  Abs  File  De 
    336  .text                      0x00018394   Lc    1  Sect  De 
    337  ../clib/angel/boardlib.s   0x00000000   Lc  Abs  File  De 
    338  ../clib/armsys.c           0x00000000   Lc  Abs  File  De 
    339  ../clib/armsys.c           0x00000000   Lc  Abs  File  De 
    340  ../clib/libinit.s          0x00000000   Lc  Abs  File  De 
    341  .ARM.Collect$$libshutdown$$00000000
                                    0x000182b0   Lc    1  Sect  De   0x2
    342  ../clib/angel/sysapp.c     0x00000000   Lc  Abs  File  De 
    343  ../clib/angel/sys.s        0x00000000   Lc  Abs  File  De 
    344  .text                      0x000183a0   Lc    1  Sect  De   0x2
    345  ../clib/angel/sys.s        0x00000000   Lc  Abs  File  De 
    346  .text                      0x000183a2   Lc    1  Sect  De 
    347  ../clib/heapalloc.c        0x00000000   Lc  Abs  File  De 
    348  ../clib/signal.c           0x00000000   Lc  Abs  File  De 
    349  ../clib/signal.c           0x00000000   Lc  Abs  File  De 
    350  ../clib/libinit.s          0x00000000   Lc  Abs  File  De 
    351  .ARM.Collect$$libshutdown$$00000002
                                    0x000182b2   Lc    1  Sect  De 
    352  .ARM.Collect$$libshutdown$$00000004
                                    0x000182b2   Lc    1  Sect  De 
    353  .ARM.Collect$$libshutdown$$00000007
                                    0x000182b2   Lc    1  Sect  De 
    354  .ARM.Collect$$libshutdown$$0000000A
                                    0x000182b2   Lc    1  Sect  De 
    355  .ARM.Collect$$libshutdown$$0000000C
                                    0x000182b2   Lc    1  Sect  De 
    356  .ARM.Collect$$libshutdown$$0000000F
                                    0x000182b2   Lc    1  Sect  De 
    357  .ARM.Collect$$libshutdown$$00000010
                                    0x000182b2   Lc    1  Sect  De   0x2
    358  ../clib/angel/rt.s         0x00000000   Lc  Abs  File  De 
    359  ../clib/signal.c           0x00000000   Lc  Abs  File  De 
    360  ../clib/signal.c           0x00000000   Lc  Abs  File  De 
    361  ../clib/signal.c           0x00000000   Lc  Abs  File  De 
    362  ../clib/signal.c           0x00000000   Lc  Abs  File  De 
    363  ../clib/angel/sysapp.c     0x00000000   Lc  Abs  File  De 
    364  ../clib/signal.s           0x00000000   Lc  Abs  File  De 
    365  ../clib/signal.c           0x00000000   Lc  Abs  File  De 
    366  ../clib/signal.c           0x00000000   Lc  Abs  File  De 
    367  ../clib/signal.c           0x00000000   Lc  Abs  File  De 
    368  ../clib/signal.c           0x00000000   Lc  Abs  File  De 
    369  ../clib/signal.c           0x00000000   Lc  Abs  File  De 
    370  ../clib/signal.c           0x00000000   Lc  Abs  File  De 
    371  ../clib/signal.c           0x00000000   Lc  Abs  File  De 
    372  ../clib/signal.c           0x00000000   Lc  Abs  File  De 
    373  ../clib/angel/scatter.s    0x00000000   Lc  Abs  File  De 
    374  !!!scatter                 0x0001823c   Lc    1  Sect  De   0x34
    375  ../clib/angel/handlers.s   0x00000000   Lc  Abs  File  De 
    376  !!handler_zi               0x0001828c   Lc    1  Sect  De   0x1c
    377  BuildAttributes$$THM_ISAv4$E$P$D$K$B$S$7EM$VFPi3$EXTD16$VFPS$VFMA$PE$A:L22UL41UL21$X:L11$S22US41US21$IEEE1$IW$USESV6$~STKCKD$USESV7$~SHL$OTIME$ROPI$EBA8$UX$STANDARDLIB$REQ8$PRES8$EABIv2
                                    0x00000000   Gb  Abs   --   Hi 
    378  __ARM_use_no_argv          0x00000000   Gb  Abs   --   Hi 
    379  __Vectors                  0x00018000   Gb    1  Data  Hi 
    380  __Patchable                0x00018190   Gb    1  Data  Hi 
    381  Reset_Handler              0x00018201   Wk    1  Code  Hi   0x1c
    382  NMI_Handler                0x0001821f   Wk    1  Code  Hi   0x2
    383  MemManage_Handler          0x00018221   Wk    1  Code  Hi   0x2
    384  BusFault_Handler           0x00018223   Wk    1  Code  Hi   0x2
    385  UsageFault_Handler         0x00018225   Wk    1  Code  Hi   0x2
    386  SVC_Handler                0x00018227   Wk    1  Code  Hi   0x2
    387  DebugMon_Handler           0x00018229   Wk    1  Code  Hi   0x2
    388  PendSV_Handler             0x0001822b   Wk    1  Code  Hi   0x2
    389  SysTick_Handler            0x0001822d   Wk    1  Code  Hi   0x2
    390  am_adc_isr                 0x0001822f   Wk    1  Code  Hi 
    391  am_audadc0_isr             0x0001822f   Wk    1  Code  Hi 
    392  am_brownout_isr            0x0001822f   Wk    1  Code  Hi 
    393  am_cachecpu_isr            0x0001822f   Wk    1  Code  Hi 
    394  am_clkgen_isr              0x0001822f   Wk    1  Code  Hi 
    395  am_ctimer_isr              0x0001822f   Wk    1  Code  Hi 
    396  am_disp_isr                0x0001822f   Wk    1  Code  Hi 
    397  am_dsi_isr                 0x0001822f   Wk    1  Code  Hi 
    398  am_dspi2s0_isr             0x0001822f   Wk    1  Code  Hi 
    399  am_dspi2s1_isr             0x0001822f   Wk    1  Code  Hi 
    400  am_dspi2s2_isr             0x0001822f   Wk    1  Code  Hi 
    401  am_dspi2s3_isr             0x0001822f   Wk    1  Code  Hi 
    402  am_gpio0_001f_isr          0x0001822f   Wk    1  Code  Hi 
    403  am_gpio0_203f_isr          0x0001822f   Wk    1  Code  Hi 
    404  am_gpio0_405f_isr          0x0001822f   Wk    1  Code  Hi 
    405  am_gpio0_607f_isr          0x0001822f   Wk    1  Code  Hi 
    406  am_gpio1_001f_isr          0x0001822f   Wk    1  Code  Hi 
    407  am_gpio1_203f_isr          0x0001822f   Wk    1  Code  Hi 
    408  am_gpio1_405f_isr          0x0001822f   Wk    1  Code  Hi 
    409  am_gpio1_607f_isr          0x0001822f   Wk    1  Code  Hi 
    410  am_gpu_isr                 0x0001822f   Wk    1  Code  Hi 
    411  am_iomaster0_isr           0x0001822f   Wk    1  Code  Hi 
    412  am_iomaster1_isr           0x0001822f   Wk    1  Code  Hi 
    413  am_iomaster2_isr           0x0001822f   Wk    1  Code  Hi 
    414  am_iomaster3_isr           0x0001822f   Wk    1  Code  Hi 
    415  am_iomaster4_isr           0x0001822f   Wk    1  Code  Hi 
    416  am_iomaster5_isr           0x0001822f   Wk    1  Code  Hi 
    417  am_iomaster6_isr           0x0001822f   Wk    1  Code  Hi 
    418  am_iomaster7_isr           0x0001822f   Wk    1  Code  Hi 
    419  am_ioslave_acc_isr         0x0001822f   Wk    1  Code  Hi 
    420  am_ioslave_ios_isr         0x0001822f   Wk    1  Code  Hi 
    421  am_mspi0_isr               0x0001822f   Wk    1  Code  Hi 
    422  am_mspi1_isr               0x0001822f   Wk    1  Code  Hi 
    423  am_mspi2_isr               0x0001822f   Wk    1  Code  Hi 
    424  am_pdm0_isr                0x0001822f   Wk    1  Code  Hi 
    425  am_pdm1_isr                0x0001822f   Wk    1  Code  Hi 
    426  am_pdm2_isr                0x0001822f   Wk    1  Code  Hi 
    427  am_pdm3_isr                0x0001822f   Wk    1  Code  Hi 
    428  am_rtc_isr                 0x0001822f   Wk    1  Code  Hi 
    429  am_sdio_isr                0x0001822f   Wk    1  Code  Hi 
    430  am_stimer_cmpr0_isr        0x0001822f   Wk    1  Code  Hi 
    431  am_stimer_cmpr1_isr        0x0001822f   Wk    1  Code  Hi 
    432  am_stimer_cmpr2_isr        0x0001822f   Wk    1  Code  Hi 
    433  am_stimer_cmpr3_isr        0x0001822f   Wk    1  Code  Hi 
    434  am_stimer_cmpr4_isr        0x0001822f   Wk    1  Code  Hi 
    435  am_stimer_cmpr5_isr        0x0001822f   Wk    1  Code  Hi 
    436  am_stimer_cmpr6_isr        0x0001822f   Wk    1  Code  Hi 
    437  am_stimer_cmpr7_isr        0x0001822f   Wk    1  Code  Hi 
    438  am_stimerof_isr            0x0001822f   Wk    1  Code  Hi 
    439  am_timer00_isr             0x0001822f   Wk    1  Code  Hi 
    440  am_timer01_isr             0x0001822f   Wk    1  Code  Hi 
    441  am_timer02_isr             0x0001822f   Wk    1  Code  Hi 
    442  am_timer03_isr             0x0001822f   Wk    1  Code  Hi 
    443  am_timer04_isr             0x0001822f   Wk    1  Code  Hi 
    444  am_timer05_isr             0x0001822f   Wk    1  Code  Hi 
    445  am_timer06_isr             0x0001822f   Wk    1  Code  Hi 
    446  am_timer07_isr             0x0001822f   Wk    1  Code  Hi 
    447  am_timer08_isr             0x0001822f   Wk    1  Code  Hi 
    448  am_timer09_isr             0x0001822f   Wk    1  Code  Hi 
    449  am_timer10_isr             0x0001822f   Wk    1  Code  Hi 
    450  am_timer11_isr             0x0001822f   Wk    1  Code  Hi 
    451  am_timer12_isr             0x0001822f   Wk    1  Code  Hi 
    452  am_timer13_isr             0x0001822f   Wk    1  Code  Hi 
    453  am_timer14_isr             0x0001822f   Wk    1  Code  Hi 
    454  am_timer15_isr             0x0001822f   Wk    1  Code  Hi 
    455  am_uart1_isr               0x0001822f   Wk    1  Code  Hi 
    456  am_uart2_isr               0x0001822f   Wk    1  Code  Hi 
    457  am_uart3_isr               0x0001822f   Wk    1  Code  Hi 
    458  am_uart_isr                0x0001822f   Wk    1  Code  Hi 
    459  am_usb_isr                 0x0001822f   Wk    1  Code  Hi 
    460  am_vcomp_isr               0x0001822f   Wk    1  Code  Hi 
    461  am_watchdog_isr            0x0001822f   Wk    1  Code  Hi 
    462  __main                     0x00018235   Gb    1  Code  Hi   0x8
    463  __scatterload              0x0001823d   Gb    1  Code  Hi 
    464  __scatterload_rt2          0x0001823d   Gb    1  Code  Hi   0x2c
    465  __scatterload_rt2_thumb_only
                                    0x0001823d   Gb    1  Code  Hi 
    466  __scatterload_null         0x0001824b   Gb    1  Code  Hi 
    467  __scatterload_copy         0x00018271   Gb    1  Code  Hi   0x1a
    468  __scatterload_zeroinit     0x0001828d   Gb    1  Code  Hi   0x1c
    469  __rt_lib_init              0x000182a9   Gb    1  Code  De 
    470  __rt_lib_init_fp_1         0x000182ab   Gb    1  Code  Hi 
    471  __rt_lib_init_alloca_1     0x000182af   Gb    1  Code  Hi 
    472  __rt_lib_init_argv_1       0x000182af   Gb    1  Code  Hi 
    473  __rt_lib_init_atexit_1     0x000182af   Gb    1  Code  Hi 
    474  __rt_lib_init_clock_1      0x000182af   Gb    1  Code  Hi 
    475  __rt_lib_init_cpp_1        0x000182af   Gb    1  Code  Hi 
    476  __rt_lib_init_exceptions_1 0x000182af   Gb    1  Code  Hi 
    477  __rt_lib_init_fp_trap_1    0x000182af   Gb    1  Code  Hi 
    478  __rt_lib_init_getenv_1     0x000182af   Gb    1  Code  Hi 
    479  __rt_lib_init_heap_1       0x000182af   Gb    1  Code  Hi 
    480  __rt_lib_init_lc_collate_1 0x000182af   Gb    1  Code  Hi 
    481  __rt_lib_init_lc_ctype_1   0x000182af   Gb    1  Code  Hi 
    482  __rt_lib_init_lc_monetary_1
                                    0x000182af   Gb    1  Code  Hi 
    483  __rt_lib_init_lc_numeric_1 0x000182af   Gb    1  Code  Hi 
    484  __rt_lib_init_lc_time_1    0x000182af   Gb    1  Code  Hi 
    485  __rt_lib_init_preinit_1    0x000182af   Gb    1  Code  Hi 
    486  __rt_lib_init_rand_1       0x000182af   Gb    1  Code  Hi 
    487  __rt_lib_init_return       0x000182af   Gb    1  Code  Hi 
    488  __rt_lib_init_signal_1     0x000182af   Gb    1  Code  Hi 
    489  __rt_lib_init_stdio_1      0x000182af   Gb    1  Code  Hi 
    490  __rt_lib_init_user_alloc_1 0x000182af   Gb    1  Code  Hi 
    491  __rt_lib_shutdown          0x000182b1   Gb    1  Code  De 
    492  __rt_lib_shutdown_cpp_1    0x000182b3   Gb    1  Code  Hi 
    493  __rt_lib_shutdown_fp_trap_1
                                    0x000182b3   Gb    1  Code  Hi 
    494  __rt_lib_shutdown_heap_1   0x000182b3   Gb    1  Code  Hi 
    495  __rt_lib_shutdown_return   0x000182b3   Gb    1  Code  Hi 
    496  __rt_lib_shutdown_signal_1 0x000182b3   Gb    1  Code  Hi 
    497  __rt_lib_shutdown_stdio_1  0x000182b3   Gb    1  Code  Hi 
    498  __rt_lib_shutdown_user_alloc_1
                                    0x000182b3   Gb    1  Code  Hi 
    499  __rt_entry                 0x000182b5   Gb    1  Code  Hi 
    500  __rt_entry_presh_1         0x000182b5   Gb    1  Code  Hi 
    501  __rt_entry_sh              0x000182b5   Gb    1  Code  Hi 
    502  __rt_entry_li              0x000182bb   Gb    1  Code  Hi 
    503  __rt_entry_postsh_1        0x000182bb   Gb    1  Code  Hi 
    504  __rt_entry_main            0x000182bf   Gb    1  Code  Hi 
    505  __rt_entry_postli_1        0x000182bf   Gb    1  Code  Hi 
    506  __rt_exit                  0x000182c7   Gb    1  Code  De 
    507  __rt_exit_ls               0x000182c9   Gb    1  Code  Hi 
    508  __rt_exit_prels_1          0x000182c9   Gb    1  Code  Hi 
    509  __rt_exit_exit             0x000182cd   Gb    1  Code  Hi 
    510  HardFault_Handler          0x000182d5   Gb    1  Code  Hi   0x1a
    511  getStackedReg              0x000182ef   Gb    1  Code  Hi   0x8
    512  am_hal_interrupt_master_enable
                                    0x000182f9   Gb    1  Code  Hi   0x8
    513  am_hal_interrupt_master_disable
                                    0x00018301   Gb    1  Code  Hi   0x8
    514  am_hal_interrupt_master_set
                                    0x00018309   Gb    1  Code  Hi   0x6
    515  __user_initial_stackheap   0x00018311   Gb    1  Code  Hi   0xa
    516  __use_two_region_memory    0x00018329   Gb    1  Code  Hi   0x2
    517  __rt_heap_escrow$2region   0x0001832b   Gb    1  Code  De   0x2
    518  __rt_heap_expand$2region   0x0001832d   Gb    1  Code  De   0x2
    519  __user_setup_stackheap     0x0001832f   Gb    1  Code  De   0x4a
    520  exit                       0x00018379   Gb    1  Code  De   0x12
    521  __user_libspace            0x0001838d   Wk    1  Code  De   0x8
    522  __user_perproc_libspace    0x0001838d   Wk    1  Code  De 
    523  __user_perthread_libspace  0x0001838d   Wk    1  Code  De 
    524  _sys_exit                  0x00018395   Gb    1  Code  De   0x8
    525  __I$use$semihosting        0x000183a1   Gb    1  Code  Hi 
    526  __use_no_semihosting_swi   0x000183a1   Gb    1  Code  Hi   0x2
    527  __ARM_common_memcpy4_5     0x000183a3   Gb    1  Code  Hi   0xa
    528  __semihosting_library_function
                                    0x000183a3   Gb    1  Code  Hi 
    529  am_bsp_low_power_init      0x000183ad   Gb    1  Code  Hi   0x16
    530  am_bsp_uart_printf_disable 0x000183c5   Gb    1  Code  Hi   0x44
    531  am_bsp_uart_printf_enable  0x00018411   Gb    1  Code  Hi   0x54
    532  am_bsp_uart_string_print   0x0001847d   Gb    1  Code  Hi   0x42
    533  am_hal_cachectrl_config    0x000184c9   Gb    1  Code  Hi   0x48
    534  am_hal_cachectrl_enable    0x00018511   Gb    1  Code  Hi   0x18
    535  am_hal_clkgen_control      0x00018529   Gb    1  Code  Hi   0x1a2
    536  am_hal_daxi_config         0x000186d5   Gb    1  Code  Hi   0x90
    537  am_hal_delay_us            0x0001876d   Gb    1  Code  Hi   0x22
    538  am_hal_delay_us_status_change
                                    0x00018799   Gb    1  Code  Hi   0x50
    539  am_hal_delay_us_status_check
                                    0x000187f1   Gb    1  Code  Hi   0x5c
    540  am_hal_fault_status_get    0x00018855   Gb    1  Code  Hi   0x3e
    541  am_hal_gpio_pinconfig      0x00018895   Gb    1  Code  Hi   0x4c
    542  am_hal_gpio_state_write    0x000188e9   Gb    1  Code  Hi   0x72
    543  am_hal_mram_info_read      0x0001895d   Gb    1  Code  Hi   0x6c
    544  am_hal_pwrctrl_control     0x000189cd   Gb    1  Code  Hi   0x214
    545  am_hal_pwrctrl_low_power_init
                                    0x00018bf5   Gb    1  Code  Hi   0x106
    546  am_hal_pwrctrl_mcu_memory_config
                                    0x00018d19   Gb    1  Code  Hi   0x114
    547  am_hal_pwrctrl_periph_disable
                                    0x00018e35   Gb    1  Code  Hi   0x112
    548  am_hal_pwrctrl_periph_enable
                                    0x00018f61   Gb    1  Code  Hi   0xa6
    549  am_hal_pwrctrl_sram_config 0x00019015   Gb    1  Code  Hi   0x9e
    550  am_hal_queue_item_add      0x000190bd   Gb    1  Code  Hi   0x56
    551  am_hal_queue_item_get      0x00019113   Gb    1  Code  Hi   0x52
    552  am_hal_rtc_osc_disable     0x00019165   Gb    1  Code  Hi   0xe
    553  am_hal_uart_configure      0x00019179   Gb    1  Code  Hi   0x174
    554  am_hal_uart_deinitialize   0x00019311   Gb    1  Code  Hi   0x2a
    555  am_hal_uart_initialize     0x00019341   Gb    1  Code  Hi   0x78
    556  am_hal_uart_power_control  0x000193c1   Gb    1  Code  Hi   0xe2
    557  am_hal_uart_transfer       0x000194a9   Gb    1  Code  Hi   0x272
    558  am_hal_uart_tx_flush       0x00019725   Gb    1  Code  Hi   0x9e
    559  am_util_faultisr_collect_data
                                    0x000197c9   Gb    1  Code  Hi   0xa8
    560  am_util_stdio_printf       0x00019879   Gb    1  Code  Hi   0x2c
    561  am_util_stdio_printf_init  0x000198ad   Gb    1  Code  Hi   0x6
    562  am_util_stdio_terminal_clear
                                    0x000198b9   Gb    1  Code  Hi   0x20
    563  am_util_stdio_vsprintf     0x000198f5   Gb    1  Code  Hi   0x734
    564  crypto_boost_trims         0x0001a035   Gb    1  Code  Hi   0xa6
    565  main                       0x0001a0e5   Gb    1  Code  Hi   0x124
    566  __aeabi_d2f                0x0001a7ed   Gb    1  Code  Hi 
    567  _d2f                       0x0001a7ed   Gb    1  Code  De   0x62
    568  __fpl_dnaninf              0x0001a84f   Gb    1  Code  De   0x9c
    569  _fp_init                   0x0001a8eb   Gb    1  Code  De   0xa
    570  __fplib_config_fpu_vfp     0x0001a8f3   Gb    1  Code  De 
    571  __fplib_config_pureend_doubles
                                    0x0001a8f3   Gb    1  Code  De 
    572  __fpl_fretinf              0x0001a8f5   Gb    1  Code  De   0xa
    573  __I$use$fp                 0x0001a8fe   Gb    1   --   De 
    574  ui32MCUAllowed             0x0001a900   Gb    1  Data  Hi   0x14
    575  ui32DSP0Allowed            0x0001a914   Gb    1  Data  Hi   0x14
    576  ui32DSP1Allowed            0x0001a928   Gb    1  Data  Hi   0x14
    577  ui32SharedAccess           0x0001a93c   Gb    1  Data  Hi   0x14
    578  sGlobalAccess              0x0001a950   Gb    1  Data  Hi   0x1c
    579  g_ui8HALcompiler           0x0001a972   Gb    1  Data  Hi   0xe
    580  g_ui32HALversion           0x0001a980   Gb    1  Data  Hi   0x4
    581  am_hal_cachectrl_defaults  0x0001a9b0   Gb    1  Data  Hi   0x3
    582  am_hal_daxi_defaults       0x0001a9b3   Gb    1  Data  Hi   0x5
    583  am_hal_gpio_pincfg_output  0x0001a9b8   Gb    1  Data  Hi   0x4
    584  am_hal_gpio_pincfg_disabled
                                    0x0001a9bc   Gb    1  Data  Hi   0x4
    585  g_DefaultMcuMemCfg         0x0001a9d0   Gb    1  Data  Hi   0x6
    586  g_DefaultSRAMCfg           0x0001a9d6   Gb    1  Data  Hi   0x6
    587  am_hal_pwrctrl_peripheral_control
                                    0x0001a9dc   Gb    1  Data  Hi   0x220
    588  g_am_hal_bootrom_helper    0x0001ac64   Gb    1  Data  Hi   0x28
    589  Region$$Table$$Base        0x0001acd4   Gb    1   --   Hi 
    590  Region$$Table$$Limit       0x0001ad04   Gb    1   --   Hi 
    591  g_pfnCharPrint             0x10000004   Gb    2  Data  Hi   0x4
    592  g_ui32HALflags             0x10000008   Gb    2  Data  Hi   0x4
    593  gDaxiConfig                0x10000014   Gb    2  Data  Hi   0x5
    594  g_eCurrPwrMode             0x1000001c   Gb    2  Data  Hi   0x1
    595  g_ui32TrimVer              0x10000024   Gb    2  Data  Hi   0x4
    596  g_ui32origSimobuckVDDStrim 0x10000028   Gb    2  Data  Hi   0x4
    597  g_AM_BSP_GPIO_COM_UART_TX  0x10000058   Gb    2  Data  Hi   0x4
    598  g_AM_BSP_GPIO_COM_UART_RX  0x1000005c   Gb    2  Data  Hi   0x4
    599  g_am_hal_uart_states       0x10000160   Gb    3  Data  Hi   0x2e0
    600  __libspace_start           0x10000440   Gb    3  Data  De   0x60
    601  __temporary_stack_top$libspace
                                    0x100004a0   Gb    3  Data  De 
    602  psGlobalAccessPtr          0x1001f000   Gb    4  Data  Hi   0x4
    603  ui32MCUClaimed             0x1001f004   Gb    4  Data  Hi   0x14
    604  ui32DSP0Claimed            0x1001f018   Gb    4  Data  Hi   0x14
    605  ui32DSP1Claimed            0x1001f02c   Gb    4  Data  Hi   0x14


** Section #13 '.strtab' (SHT_STRTAB)
    Size   : 10476 bytes

            #  Offset String
        ====================================

            1      1: $d
            2      4: $t
            3      7: $d.realdata
            4     19: ../../../../../../third_party/prime_mpi/src/prime_mpi.c
            5     75: ..\src\am_resources.c
            6     97: ../src/am_resources.c
            7    119: .constdata
            8    130: __tagsym$$used
            9    145: RESOURCE_TABLE
           10    160: SHARED_RW
           11    170: ..\src\prime.c
           12    185: ../src/prime.c
           13    200: i.main
           14    207: .conststring
           15    220: ..\..\..\..\..\..\utils\am_util_delay.c
           16    260: ../../../../../../utils/am_util_delay.c
           17    300: ..\..\..\..\..\..\utils\am_util_faultisr.c
           18    343: .emb_text
           19    353: $v0
           20    357: ../../../../../../utils/am_util_faultisr.c
           21    400: i.am_util_faultisr_collect_data
           22    432: ../../../../../../utils/am_util_stdio.c
           23    472: i.am_util_stdio_printf
           24    495: i.am_util_stdio_printf_init
           25    523: i.am_util_stdio_terminal_clear
           26    554: i.am_util_stdio_vsprintf
           27    579: i.ndigits_in_u64
           28    596: ndigits_in_u64
           29    611: i.uint64_to_str
           30    627: uint64_to_str
           31    641: .bss
           32    646: g_prfbuf
           33    655: .data
           34    661: g_bTxtXlate
           35    673: ..\..\..\..\..\..\devices\am_devices_led.c
           36    716: ../../../../../../devices/am_devices_led.c
           37    759: ../keil/startup_keil.s
           38    782: STACK
           39    788: StackMem
           40    797: HEAP
           41    802: HeapMem
           42    810: RESET
           43    816: am_cryptosec_isr
           44    833: am_default_isr
           45    848: .text
           46    854: ..\..\..\..\..\mcu\apollo4p\hal\am_hal_global.c
           47    902: ../../../../../mcu/apollo4p/hal/am_hal_global.c
           48    950: ..\am_bsp.c
           49    962: ../am_bsp.c
           50    974: i.am_bsp_low_power_init
           51    998: i.am_bsp_uart_printf_disable
           52   1027: i.am_bsp_uart_printf_enable
           53   1055: i.am_bsp_uart_string_print
           54   1082: g_sBspUartConfig
           55   1099: g_ePrintInterface
           56   1117: g_sCOMUART
           57   1128: ..\..\..\..\..\mcu\apollo4p\hal\mcu\am_hal_cachectrl.c
           58   1183: ../../../../../mcu/apollo4p/hal/mcu/am_hal_cachectrl.c
           59   1238: i.am_hal_cachectrl_config
           60   1264: i.am_hal_cachectrl_enable
           61   1290: i.am_hal_daxi_config
           62   1311: i.__ARM_common_memcpy4_5
           63   1336: ..\..\..\..\..\mcu\apollo4p\hal\mcu\am_hal_clkgen.c
           64   1388: ../../../../../mcu/apollo4p/hal/mcu/am_hal_clkgen.c
           65   1440: i.am_hal_clkgen_control
           66   1464: ..\..\..\..\..\mcu\apollo4p\hal\mcu\am_hal_fault.c
           67   1515: ../../../../../mcu/apollo4p/hal/mcu/am_hal_fault.c
           68   1566: i.am_hal_fault_status_get
           69   1592: ..\..\..\..\..\mcu\apollo4p\hal\mcu\am_hal_utils.c
           70   1643: ../../../../../mcu/apollo4p/hal/mcu/am_hal_utils.c
           71   1694: i.am_hal_delay_us
           72   1712: i.am_hal_delay_us_status_change
           73   1744: i.am_hal_delay_us_status_check
           74   1775: ..\..\..\..\..\mcu\apollo4p\hal\am_hal_gpio.c
           75   1821: ../../../../../mcu/apollo4p/hal/am_hal_gpio.c
           76   1867: i.am_hal_gpio_pinconfig
           77   1891: i.am_hal_gpio_state_write
           78   1917: g_ui32DSpintbl
           79   1932: ..\..\..\..\..\mcu\apollo4p\hal\am_hal_pwrctrl.c
           80   1981: ../../../../../mcu/apollo4p/hal/am_hal_pwrctrl.c
           81   2030: i.am_hal_pwrctrl_control
           82   2055: i.am_hal_pwrctrl_low_power_init
           83   2087: i.am_hal_pwrctrl_mcu_memory_config
           84   2122: i.am_hal_pwrctrl_periph_disable
           85   2154: i.am_hal_pwrctrl_periph_enable
           86   2185: i.am_hal_pwrctrl_sram_config
           87   2214: i.crypto_boost_trims
           88   2235: g_VDDF_trimstbl
           89   2251: g_VDDFLP_trimstbl
           90   2269: g_memlpldo_trimstbl
           91   2289: g_bOrigTrimsStored
           92   2308: g_bBoostForCryptoApplied
           93   2333: g_bTempcoValid
           94   2348: g_ui16TempcoTEMP_code
           95   2370: g_orig_ACTTRIMVDDF
           96   2389: g_orig_MEMLDOACTIVETRIM
           97   2413: g_orig_LPTRIMVDDF
           98   2431: g_orig_MEMLPLDOTRIM
           99   2451: g_orig_TVRGVREFTRIM
          100   2471: g_ui32VDDFAdjustCodes
          101   2493: g_i32LatestVddfActTrim
          102   2516: g_i32LatestLDOActTrim
          103   2538: g_TempcoADCHandle
          104   2556: g_ui32TempcoADCslot
          105   2576: g_pfTempMeasured
          106   2593: ..\am_bsp_pins.c
          107   2610: ../am_bsp_pins.c
          108   2627: ..\..\..\..\..\mcu\apollo4p\hal\mcu\am_hal_bootrom_helper.c
          109   2687: ../../../../../mcu/apollo4p/hal/mcu/am_hal_bootrom_helper.c
          110   2747: ..\..\..\..\..\mcu\apollo4p\hal\mcu\am_hal_interrupt.c
          111   2802: ../../../../../mcu/apollo4p/hal/mcu/am_hal_interrupt.c
          112   2857: ..\..\..\..\..\mcu\apollo4p\hal\mcu\am_hal_itm.c
          113   2906: ../../../../../mcu/apollo4p/hal/mcu/am_hal_itm.c
          114   2955: ..\..\..\..\..\mcu\apollo4p\hal\mcu\am_hal_mram.c
          115   3005: ../../../../../mcu/apollo4p/hal/mcu/am_hal_mram.c
          116   3055: i.am_hal_mram_info_read
          117   3079: ..\..\..\..\..\mcu\apollo4p\hal\mcu\am_hal_rtc.c
          118   3128: ../../../../../mcu/apollo4p/hal/mcu/am_hal_rtc.c
          119   3177: i.am_hal_rtc_osc_disable
          120   3202: ..\..\..\..\..\mcu\apollo4p\hal\mcu\am_hal_tpiu.c
          121   3252: ../../../../../mcu/apollo4p/hal/mcu/am_hal_tpiu.c
          122   3302: ..\..\..\..\..\mcu\apollo4p\hal\mcu\am_hal_uart.c
          123   3352: ../../../../../mcu/apollo4p/hal/mcu/am_hal_uart.c
          124   3402: i.am_hal_uart_configure
          125   3426: i.am_hal_uart_deinitialize
          126   3453: i.am_hal_uart_initialize
          127   3478: i.am_hal_uart_power_control
          128   3506: i.am_hal_uart_transfer
          129   3529: i.am_hal_uart_tx_flush
          130   3552: i.nonblocking_read_sm
          131   3574: nonblocking_read_sm
          132   3594: i.nonblocking_write_sm
          133   3617: nonblocking_write_sm
          134   3638: ..\..\..\..\..\mcu\apollo4p\hal\am_hal_adc.c
          135   3683: ../../../../../mcu/apollo4p/hal/am_hal_adc.c
          136   3728: ..\..\..\..\..\mcu\apollo4p\hal\am_hal_dcu.c
          137   3773: ../../../../../mcu/apollo4p/hal/am_hal_dcu.c
          138   3818: ..\..\..\..\..\mcu\apollo4p\hal\am_hal_pin.c
          139   3863: ../../../../../mcu/apollo4p/hal/am_hal_pin.c
          140   3908: ..\..\..\..\..\mcu\apollo4p\hal\am_hal_queue.c
          141   3955: ../../../../../mcu/apollo4p/hal/am_hal_queue.c
          142   4002: i.am_hal_queue_item_add
          143   4026: i.am_hal_queue_item_get
          144   4050: dc.s
          145   4055: ../clib/longlong.s
          146   4074: ../clib/heapaux.c
          147   4092: ../clib/angel/startup.s
          148   4116: !!!main
          149   4124: ../clib/angel/handlers.s
          150   4149: !!handler_copy
          151   4164: ../fplib/d2f.s
          152   4179: x$fpl$d2f
          153   4189: ../clib/angel/kernel.s
          154   4212: .ARM.Collect$$rtentry$$00000000
          155   4244: ../fplib/dnaninf.s
          156   4263: x$fpl$dnaninf
          157   4277: ../fplib/fretinf.s
          158   4296: x$fpl$fretinf
          159   4310: ../fplib/usenofp.s
          160   4329: x$fpl$usenofp
          161   4343: .ARM.Collect$$rtentry$$00000002
          162   4375: .ARM.Collect$$rtentry$$00000009
          163   4407: .ARM.Collect$$rtentry$$0000000A
          164   4439: .ARM.Collect$$rtentry$$0000000C
          165   4471: .ARM.Collect$$rtentry$$0000000D
          166   4503: .ARM.Collect$$rtentry$$00000004
          167   4535: ../clib/angel/sys.s
          168   4555: ../clib/stdlib.c
          169   4572: ../clib/angel/boardlib.s
          170   4597: ../clib/libinit.s
          171   4615: .ARM.Collect$$libinit$$00000000
          172   4647: .ARM.Collect$$rtexit$$00000000
          173   4678: .ARM.Collect$$libinit$$00000001
          174   4710: .ARM.Collect$$libinit$$00000004
          175   4742: .ARM.Collect$$libinit$$0000000A
          176   4774: .ARM.Collect$$libinit$$0000000C
          177   4806: .ARM.Collect$$libinit$$0000000E
          178   4838: .ARM.Collect$$libinit$$00000011
          179   4870: .ARM.Collect$$libinit$$00000013
          180   4902: .ARM.Collect$$libinit$$00000015
          181   4934: .ARM.Collect$$libinit$$00000017
          182   4966: .ARM.Collect$$libinit$$00000019
          183   4998: .ARM.Collect$$libinit$$0000001B
          184   5030: .ARM.Collect$$libinit$$0000001D
          185   5062: .ARM.Collect$$libinit$$0000001F
          186   5094: .ARM.Collect$$libinit$$00000021
          187   5126: .ARM.Collect$$libinit$$00000023
          188   5158: .ARM.Collect$$libinit$$00000025
          189   5190: .ARM.Collect$$libinit$$0000002C
          190   5222: .ARM.Collect$$libinit$$0000002E
          191   5254: .ARM.Collect$$libinit$$00000030
          192   5286: .ARM.Collect$$libinit$$00000032
          193   5318: .ARM.Collect$$libinit$$00000033
          194   5350: .ARM.Collect$$rtexit$$00000002
          195   5381: .ARM.Collect$$rtexit$$00000003
          196   5412: .ARM.Collect$$rtexit$$00000004
          197   5443: ../clib/armsys.c
          198   5460: ../fplib/fpinit.s
          199   5478: x$fpl$fpinit
          200   5491: ../clib/angel/sysapp.c
          201   5514: .ARM.Collect$$libshutdown$$00000000
          202   5550: ../clib/heapalloc.c
          203   5570: ../clib/signal.c
          204   5587: .ARM.Collect$$libshutdown$$00000002
          205   5623: .ARM.Collect$$libshutdown$$00000004
          206   5659: .ARM.Collect$$libshutdown$$00000007
          207   5695: .ARM.Collect$$libshutdown$$0000000A
          208   5731: .ARM.Collect$$libshutdown$$0000000C
          209   5767: .ARM.Collect$$libshutdown$$0000000F
          210   5803: .ARM.Collect$$libshutdown$$00000010
          211   5839: ../clib/angel/rt.s
          212   5858: ../clib/signal.s
          213   5875: ../clib/angel/scatter.s
          214   5899: !!!scatter
          215   5910: !!handler_zi
          216   5923: BuildAttributes$$THM_ISAv4$E$P$D$K$B$S$7EM$VFPi3$EXTD16$VFPS$VFMA$PE$A:L22UL41UL21$X:L11$S22US41US21$IEEE1$IW$USESV6$~STKCKD$USESV7$~SHL$OTIME$ROPI$EBA8$UX$STANDARDLIB$REQ8$PRES8$EABIv2
          217   6109: __ARM_use_no_argv
          218   6127: __Vectors
          219   6137: __Patchable
          220   6149: Reset_Handler
          221   6163: NMI_Handler
          222   6175: MemManage_Handler
          223   6193: BusFault_Handler
          224   6210: UsageFault_Handler
          225   6229: SVC_Handler
          226   6241: DebugMon_Handler
          227   6258: PendSV_Handler
          228   6273: SysTick_Handler
          229   6289: am_adc_isr
          230   6300: am_audadc0_isr
          231   6315: am_brownout_isr
          232   6331: am_cachecpu_isr
          233   6347: am_clkgen_isr
          234   6361: am_ctimer_isr
          235   6375: am_disp_isr
          236   6387: am_dsi_isr
          237   6398: am_dspi2s0_isr
          238   6413: am_dspi2s1_isr
          239   6428: am_dspi2s2_isr
          240   6443: am_dspi2s3_isr
          241   6458: am_gpio0_001f_isr
          242   6476: am_gpio0_203f_isr
          243   6494: am_gpio0_405f_isr
          244   6512: am_gpio0_607f_isr
          245   6530: am_gpio1_001f_isr
          246   6548: am_gpio1_203f_isr
          247   6566: am_gpio1_405f_isr
          248   6584: am_gpio1_607f_isr
          249   6602: am_gpu_isr
          250   6613: am_iomaster0_isr
          251   6630: am_iomaster1_isr
          252   6647: am_iomaster2_isr
          253   6664: am_iomaster3_isr
          254   6681: am_iomaster4_isr
          255   6698: am_iomaster5_isr
          256   6715: am_iomaster6_isr
          257   6732: am_iomaster7_isr
          258   6749: am_ioslave_acc_isr
          259   6768: am_ioslave_ios_isr
          260   6787: am_mspi0_isr
          261   6800: am_mspi1_isr
          262   6813: am_mspi2_isr
          263   6826: am_pdm0_isr
          264   6838: am_pdm1_isr
          265   6850: am_pdm2_isr
          266   6862: am_pdm3_isr
          267   6874: am_rtc_isr
          268   6885: am_sdio_isr
          269   6897: am_stimer_cmpr0_isr
          270   6917: am_stimer_cmpr1_isr
          271   6937: am_stimer_cmpr2_isr
          272   6957: am_stimer_cmpr3_isr
          273   6977: am_stimer_cmpr4_isr
          274   6997: am_stimer_cmpr5_isr
          275   7017: am_stimer_cmpr6_isr
          276   7037: am_stimer_cmpr7_isr
          277   7057: am_stimerof_isr
          278   7073: am_timer00_isr
          279   7088: am_timer01_isr
          280   7103: am_timer02_isr
          281   7118: am_timer03_isr
          282   7133: am_timer04_isr
          283   7148: am_timer05_isr
          284   7163: am_timer06_isr
          285   7178: am_timer07_isr
          286   7193: am_timer08_isr
          287   7208: am_timer09_isr
          288   7223: am_timer10_isr
          289   7238: am_timer11_isr
          290   7253: am_timer12_isr
          291   7268: am_timer13_isr
          292   7283: am_timer14_isr
          293   7298: am_timer15_isr
          294   7313: am_uart1_isr
          295   7326: am_uart2_isr
          296   7339: am_uart3_isr
          297   7352: am_uart_isr
          298   7364: am_usb_isr
          299   7375: am_vcomp_isr
          300   7388: am_watchdog_isr
          301   7404: __main
          302   7411: __scatterload
          303   7425: __scatterload_rt2
          304   7443: __scatterload_rt2_thumb_only
          305   7472: __scatterload_null
          306   7491: __scatterload_copy
          307   7510: __scatterload_zeroinit
          308   7533: __rt_lib_init
          309   7547: __rt_lib_init_fp_1
          310   7566: __rt_lib_init_alloca_1
          311   7589: __rt_lib_init_argv_1
          312   7610: __rt_lib_init_atexit_1
          313   7633: __rt_lib_init_clock_1
          314   7655: __rt_lib_init_cpp_1
          315   7675: __rt_lib_init_exceptions_1
          316   7702: __rt_lib_init_fp_trap_1
          317   7726: __rt_lib_init_getenv_1
          318   7749: __rt_lib_init_heap_1
          319   7770: __rt_lib_init_lc_collate_1
          320   7797: __rt_lib_init_lc_ctype_1
          321   7822: __rt_lib_init_lc_monetary_1
          322   7850: __rt_lib_init_lc_numeric_1
          323   7877: __rt_lib_init_lc_time_1
          324   7901: __rt_lib_init_preinit_1
          325   7925: __rt_lib_init_rand_1
          326   7946: __rt_lib_init_return
          327   7967: __rt_lib_init_signal_1
          328   7990: __rt_lib_init_stdio_1
          329   8012: __rt_lib_init_user_alloc_1
          330   8039: __rt_lib_shutdown
          331   8057: __rt_lib_shutdown_cpp_1
          332   8081: __rt_lib_shutdown_fp_trap_1
          333   8109: __rt_lib_shutdown_heap_1
          334   8134: __rt_lib_shutdown_return
          335   8159: __rt_lib_shutdown_signal_1
          336   8186: __rt_lib_shutdown_stdio_1
          337   8212: __rt_lib_shutdown_user_alloc_1
          338   8243: __rt_entry
          339   8254: __rt_entry_presh_1
          340   8273: __rt_entry_sh
          341   8287: __rt_entry_li
          342   8301: __rt_entry_postsh_1
          343   8321: __rt_entry_main
          344   8337: __rt_entry_postli_1
          345   8357: __rt_exit
          346   8367: __rt_exit_ls
          347   8380: __rt_exit_prels_1
          348   8398: __rt_exit_exit
          349   8413: HardFault_Handler
          350   8431: getStackedReg
          351   8445: am_hal_interrupt_master_enable
          352   8476: am_hal_interrupt_master_disable
          353   8508: am_hal_interrupt_master_set
          354   8536: __user_initial_stackheap
          355   8561: __use_two_region_memory
          356   8585: __rt_heap_escrow$2region
          357   8610: __rt_heap_expand$2region
          358   8635: __user_setup_stackheap
          359   8658: exit
          360   8663: __user_libspace
          361   8679: __user_perproc_libspace
          362   8703: __user_perthread_libspace
          363   8729: _sys_exit
          364   8739: __I$use$semihosting
          365   8759: __use_no_semihosting_swi
          366   8784: __ARM_common_memcpy4_5
          367   8807: __semihosting_library_function
          368   8838: am_bsp_low_power_init
          369   8860: am_bsp_uart_printf_disable
          370   8887: am_bsp_uart_printf_enable
          371   8913: am_bsp_uart_string_print
          372   8938: am_hal_cachectrl_config
          373   8962: am_hal_cachectrl_enable
          374   8986: am_hal_clkgen_control
          375   9008: am_hal_daxi_config
          376   9027: am_hal_delay_us
          377   9043: am_hal_delay_us_status_change
          378   9073: am_hal_delay_us_status_check
          379   9102: am_hal_fault_status_get
          380   9126: am_hal_gpio_pinconfig
          381   9148: am_hal_gpio_state_write
          382   9172: am_hal_mram_info_read
          383   9194: am_hal_pwrctrl_control
          384   9217: am_hal_pwrctrl_low_power_init
          385   9247: am_hal_pwrctrl_mcu_memory_config
          386   9280: am_hal_pwrctrl_periph_disable
          387   9310: am_hal_pwrctrl_periph_enable
          388   9339: am_hal_pwrctrl_sram_config
          389   9366: am_hal_queue_item_add
          390   9388: am_hal_queue_item_get
          391   9410: am_hal_rtc_osc_disable
          392   9433: am_hal_uart_configure
          393   9455: am_hal_uart_deinitialize
          394   9480: am_hal_uart_initialize
          395   9503: am_hal_uart_power_control
          396   9529: am_hal_uart_transfer
          397   9550: am_hal_uart_tx_flush
          398   9571: am_util_faultisr_collect_data
          399   9601: am_util_stdio_printf
          400   9622: am_util_stdio_printf_init
          401   9648: am_util_stdio_terminal_clear
          402   9677: am_util_stdio_vsprintf
          403   9700: crypto_boost_trims
          404   9719: main
          405   9724: __aeabi_d2f
          406   9736: _d2f
          407   9741: __fpl_dnaninf
          408   9755: _fp_init
          409   9764: __fplib_config_fpu_vfp
          410   9787: __fplib_config_pureend_doubles
          411   9818: __fpl_fretinf
          412   9832: __I$use$fp
          413   9843: ui32MCUAllowed
          414   9858: ui32DSP0Allowed
          415   9874: ui32DSP1Allowed
          416   9890: ui32SharedAccess
          417   9907: sGlobalAccess
          418   9921: g_ui8HALcompiler
          419   9938: g_ui32HALversion
          420   9955: am_hal_cachectrl_defaults
          421   9981: am_hal_daxi_defaults
          422  10002: am_hal_gpio_pincfg_output
          423  10028: am_hal_gpio_pincfg_disabled
          424  10056: g_DefaultMcuMemCfg
          425  10075: g_DefaultSRAMCfg
          426  10092: am_hal_pwrctrl_peripheral_control
          427  10126: g_am_hal_bootrom_helper
          428  10150: Region$$Table$$Base
          429  10170: Region$$Table$$Limit
          430  10191: g_pfnCharPrint
          431  10206: g_ui32HALflags
          432  10221: gDaxiConfig
          433  10233: g_eCurrPwrMode
          434  10248: g_ui32TrimVer
          435  10262: g_ui32origSimobuckVDDStrim
          436  10289: g_AM_BSP_GPIO_COM_UART_TX
          437  10315: g_AM_BSP_GPIO_COM_UART_RX
          438  10341: g_am_hal_uart_states
          439  10362: __libspace_start
          440  10379: __temporary_stack_top$libspace
          441  10410: psGlobalAccessPtr
          442  10428: ui32MCUClaimed
          443  10443: ui32DSP0Claimed
          444  10459: ui32DSP1Claimed
          445  10475: 


** Section #14 '.note' (SHT_NOTE)
    Size   : 32 bytes (alignment 4)


** Section #15 '.comment' (SHT_PROGBITS)
    Size   : 33688 bytes


** Section #16 '.shstrtab' (SHT_STRTAB)
    Size   : 164 bytes

            #  Offset String
        ====================================

            1      1: MCU_MRAM
            2     10: MCU_TCM
            3     18: SHARED_SRAM
            4     30: .debug_abbrev
            5     44: .debug_frame
            6     57: .debug_info
            7     69: .debug_line
            8     81: .debug_loc
            9     92: .debug_macinfo
           10    107: .debug_pubnames
           11    123: .symtab
           12    131: .strtab
           13    139: .note
           14    145: .comment
           15    154: .shstrtab


