
========================================================================

** ELF Header Information

    File Name: bin\rng_test.axf

    Machine class: ELFCLASS32 (32-bit)
    Data encoding: ELFDATA2LSB (Little endian)
    Header version: EV_CURRENT (Current version)
    Operating System ABI: none
    ABI Version: 0
    File Type: ET_EXEC (Executable) (2)
    Machine: EM_ARM (ARM)

    Image Entry point: 0x00018235
    Flags: EF_ARM_HASENTRY + EF_ARM_ABI_FLOAT_HARD (0x05000402)

    ARM ELF revision: 5 (ABI version 2)

    Conforms to Hard float procedure-call standard

    Built with
    Component: ARM Compiler 6.16 Tool: armasm [5dfea300]
    Component: ARM Compiler 6.16 Tool: armlink [5dfeaa00]

    Header size: 52 bytes (0x34)
    Program header entry size: 32 bytes (0x20)
    Section header entry size: 40 bytes (0x28)

    Program header entries: 1
    Section header entries: 19

    Program header offset: 267064 (0x00041338)
    Section header offset: 267096 (0x00041358)

    Section header string table index: 18

========================================================================

** Program header #0 (PT_LOAD) [PF_X + PF_W + PF_R + PF_ARM_ENTRY]
    Size : 245448 bytes (26512 bytes in file)
    Virtual address: 0x00018000 (Alignment 8)


========================================================================

** Section #1 'MCU_MRAM' (SHT_PROGBITS) [SHF_ALLOC + SHF_EXECINSTR]
    Size   : 26356 bytes (alignment 8)
    Address: 0x00018000

    $d
    RESET
    __Vectors
        0x00018000:    10035790    .W..    DCD    268654480
        0x00018004:    00018201    ....    DCD    98817
        0x00018008:    0001821f    ....    DCD    98847
        0x0001800c:    0001866d    m...    DCD    99949
        0x00018010:    00018221    !...    DCD    98849
        0x00018014:    00018223    #...    DCD    98851
        0x00018018:    00018225    %...    DCD    98853
        0x0001801c:    00000000    ....    DCD    0
        0x00018020:    00000000    ....    DCD    0
        0x00018024:    00000000    ....    DCD    0
        0x00018028:    00000000    ....    DCD    0
        0x0001802c:    00018227    '...    DCD    98855
        0x00018030:    00018229    )...    DCD    98857
        0x00018034:    00000000    ....    DCD    0
        0x00018038:    0001822b    +...    DCD    98859
        0x0001803c:    0001822d    -...    DCD    98861
        0x00018040:    0001822f    /...    DCD    98863
        0x00018044:    0001822f    /...    DCD    98863
        0x00018048:    0001822f    /...    DCD    98863
        0x0001804c:    0001822f    /...    DCD    98863
        0x00018050:    0001822f    /...    DCD    98863
        0x00018054:    0001822f    /...    DCD    98863
        0x00018058:    0001822f    /...    DCD    98863
        0x0001805c:    0001822f    /...    DCD    98863
        0x00018060:    0001822f    /...    DCD    98863
        0x00018064:    0001822f    /...    DCD    98863
        0x00018068:    0001822f    /...    DCD    98863
        0x0001806c:    0001822f    /...    DCD    98863
        0x00018070:    0001822f    /...    DCD    98863
        0x00018074:    0001822f    /...    DCD    98863
        0x00018078:    0001822f    /...    DCD    98863
        0x0001807c:    0001822f    /...    DCD    98863
        0x00018080:    0001822f    /...    DCD    98863
        0x00018084:    0001822f    /...    DCD    98863
        0x00018088:    0001822f    /...    DCD    98863
        0x0001808c:    0001822f    /...    DCD    98863
        0x00018090:    0001822f    /...    DCD    98863
        0x00018094:    0001822f    /...    DCD    98863
        0x00018098:    0001822f    /...    DCD    98863
        0x0001809c:    0001822f    /...    DCD    98863
        0x000180a0:    0001822f    /...    DCD    98863
        0x000180a4:    0001822f    /...    DCD    98863
        0x000180a8:    0001822f    /...    DCD    98863
        0x000180ac:    0001822f    /...    DCD    98863
        0x000180b0:    0001822f    /...    DCD    98863
        0x000180b4:    0001822f    /...    DCD    98863
        0x000180b8:    0001822f    /...    DCD    98863
        0x000180bc:    0001822f    /...    DCD    98863
        0x000180c0:    0001822f    /...    DCD    98863
        0x000180c4:    0001822f    /...    DCD    98863
        0x000180c8:    0001822f    /...    DCD    98863
        0x000180cc:    0001822f    /...    DCD    98863
        0x000180d0:    0001822f    /...    DCD    98863
        0x000180d4:    0001822f    /...    DCD    98863
        0x000180d8:    0001822f    /...    DCD    98863
        0x000180dc:    0001822f    /...    DCD    98863
        0x000180e0:    0001822f    /...    DCD    98863
        0x000180e4:    0001822f    /...    DCD    98863
        0x000180e8:    0001822f    /...    DCD    98863
        0x000180ec:    0001822f    /...    DCD    98863
        0x000180f0:    0001822f    /...    DCD    98863
        0x000180f4:    0001822f    /...    DCD    98863
        0x000180f8:    0001822f    /...    DCD    98863
        0x000180fc:    0001822f    /...    DCD    98863
        0x00018100:    0001822f    /...    DCD    98863
        0x00018104:    0001822f    /...    DCD    98863
        0x00018108:    0001822f    /...    DCD    98863
        0x0001810c:    0001822f    /...    DCD    98863
        0x00018110:    0001822f    /...    DCD    98863
        0x00018114:    0001822f    /...    DCD    98863
        0x00018118:    0001822f    /...    DCD    98863
        0x0001811c:    0001822f    /...    DCD    98863
        0x00018120:    0001822f    /...    DCD    98863
        0x00018124:    0001822f    /...    DCD    98863
        0x00018128:    0001822f    /...    DCD    98863
        0x0001812c:    0001822f    /...    DCD    98863
        0x00018130:    0001822f    /...    DCD    98863
        0x00018134:    0001822f    /...    DCD    98863
        0x00018138:    0001822f    /...    DCD    98863
        0x0001813c:    0001822f    /...    DCD    98863
        0x00018140:    0001822f    /...    DCD    98863
        0x00018144:    0001822f    /...    DCD    98863
        0x00018148:    0001822f    /...    DCD    98863
        0x0001814c:    0001822f    /...    DCD    98863
        0x00018150:    0001822f    /...    DCD    98863
        0x00018154:    0001822f    /...    DCD    98863
        0x00018158:    0001822f    /...    DCD    98863
        0x0001815c:    0001822f    /...    DCD    98863
        0x00018160:    0001822f    /...    DCD    98863
        0x00018164:    0001822f    /...    DCD    98863
        0x00018168:    0001822f    /...    DCD    98863
        0x0001816c:    0001822f    /...    DCD    98863
        0x00018170:    0001822f    /...    DCD    98863
        0x00018174:    0001822f    /...    DCD    98863
        0x00018178:    0001822f    /...    DCD    98863
        0x0001817c:    0001822f    /...    DCD    98863
        0x00018180:    0001822f    /...    DCD    98863
        0x00018184:    0001822f    /...    DCD    98863
        0x00018188:    0001822f    /...    DCD    98863
        0x0001818c:    0001822f    /...    DCD    98863
    __Patchable
        0x00018190:    00000000    ....    DCD    0
        0x00018194:    00000000    ....    DCD    0
        0x00018198:    00000000    ....    DCD    0
        0x0001819c:    00000000    ....    DCD    0
        0x000181a0:    00000000    ....    DCD    0
        0x000181a4:    00000000    ....    DCD    0
        0x000181a8:    00000000    ....    DCD    0
        0x000181ac:    00000000    ....    DCD    0
        0x000181b0:    00000000    ....    DCD    0
        0x000181b4:    00000000    ....    DCD    0
        0x000181b8:    00000000    ....    DCD    0
        0x000181bc:    00000000    ....    DCD    0
        0x000181c0:    00000000    ....    DCD    0
        0x000181c4:    00000000    ....    DCD    0
        0x000181c8:    00000000    ....    DCD    0
        0x000181cc:    00000000    ....    DCD    0
        0x000181d0:    00000000    ....    DCD    0
        0x000181d4:    00000000    ....    DCD    0
        0x000181d8:    00000000    ....    DCD    0
        0x000181dc:    00000000    ....    DCD    0
        0x000181e0:    00000000    ....    DCD    0
        0x000181e4:    00000000    ....    DCD    0
        0x000181e8:    00000000    ....    DCD    0
        0x000181ec:    00000000    ....    DCD    0
        0x000181f0:    00000000    ....    DCD    0
        0x000181f4:    00000000    ....    DCD    0
        0x000181f8:    00000000    ....    DCD    0
        0x000181fc:    00000000    ....    DCD    0
    $t
    $v0
    Reset_Handler
        0x00018200:    f64e5088    N..P    MOV      r0,#0xed88
        0x00018204:    f2ce0000    ....    MOVT     r0,#0xe000
        0x00018208:    6801        .h      LDR      r1,[r0,#0]
        0x0001820a:    f4410170    A.p.    ORR      r1,r1,#0xf00000
        0x0001820e:    6001        .`      STR      r1,[r0,#0]
        0x00018210:    f3bf8f4f    ..O.    DSB      
        0x00018214:    f3bf8f6f    ..o.    ISB      
        0x00018218:    4805        .H      LDR      r0,[pc,#20] ; [0x18230] = 0x18235
        0x0001821a:    4700        .G      BX       r0
        0x0001821c:    e7fe        ..      B        0x1821c ; Reset_Handler + 28
    NMI_Handler
        0x0001821e:    e7fe        ..      B        NMI_Handler ; 0x1821e
    MemManage_Handler
        0x00018220:    e7fe        ..      B        MemManage_Handler ; 0x18220
    BusFault_Handler
        0x00018222:    e7fe        ..      B        BusFault_Handler ; 0x18222
    UsageFault_Handler
        0x00018224:    e7fe        ..      B        UsageFault_Handler ; 0x18224
    SVC_Handler
        0x00018226:    e7fe        ..      B        SVC_Handler ; 0x18226
    DebugMon_Handler
        0x00018228:    e7fe        ..      B        DebugMon_Handler ; 0x18228
    PendSV_Handler
        0x0001822a:    e7fe        ..      B        PendSV_Handler ; 0x1822a
    SysTick_Handler
        0x0001822c:    e7fe        ..      B        SysTick_Handler ; 0x1822c
    am_cryptosec_isr
    am_default_isr
    am_adc_isr
    am_audadc0_isr
    am_brownout_isr
    am_cachecpu_isr
    am_clkgen_isr
    am_ctimer_isr
    am_disp_isr
    am_dsi_isr
    am_dspi2s0_isr
    am_dspi2s1_isr
    am_dspi2s2_isr
    am_dspi2s3_isr
    am_gpio0_001f_isr
    am_gpio0_203f_isr
    am_gpio0_405f_isr
    am_gpio0_607f_isr
    am_gpio1_001f_isr
    am_gpio1_203f_isr
    am_gpio1_405f_isr
    am_gpio1_607f_isr
    am_gpu_isr
    am_iomaster0_isr
    am_iomaster1_isr
    am_iomaster2_isr
    am_iomaster3_isr
    am_iomaster4_isr
    am_iomaster5_isr
    am_iomaster6_isr
    am_iomaster7_isr
    am_ioslave_acc_isr
    am_ioslave_ios_isr
    am_mspi0_isr
    am_mspi1_isr
    am_mspi2_isr
    am_pdm0_isr
    am_pdm1_isr
    am_pdm2_isr
    am_pdm3_isr
    am_rtc_isr
    am_sdio_isr
    am_stimer_cmpr0_isr
    am_stimer_cmpr1_isr
    am_stimer_cmpr2_isr
    am_stimer_cmpr3_isr
    am_stimer_cmpr4_isr
    am_stimer_cmpr5_isr
    am_stimer_cmpr6_isr
    am_stimer_cmpr7_isr
    am_stimerof_isr
    am_timer00_isr
    am_timer01_isr
    am_timer02_isr
    am_timer03_isr
    am_timer04_isr
    am_timer05_isr
    am_timer06_isr
    am_timer07_isr
    am_timer08_isr
    am_timer09_isr
    am_timer10_isr
    am_timer11_isr
    am_timer12_isr
    am_timer13_isr
    am_timer14_isr
    am_timer15_isr
    am_uart1_isr
    am_uart2_isr
    am_uart3_isr
    am_uart_isr
    am_usb_isr
    am_vcomp_isr
    am_watchdog_isr
        0x0001822e:    e7fe        ..      B        am_cryptosec_isr ; 0x1822e
    $d
        0x00018230:    00018235    5...    DCD    98869
    $t
    !!!main
    __main
        0x00018234:    f000f802    ....    BL       __scatterload ; 0x1823c
        0x00018238:    f000f83c    ..<.    BL       __rt_entry ; 0x182b4
    !!!scatter
    __scatterload
    __scatterload_rt2
    __scatterload_rt2_thumb_only
        0x0001823c:    a00a        ..      ADR      r0,{pc}+0x2c ; 0x18268
        0x0001823e:    e8900c00    ....    LDM      r0,{r10,r11}
        0x00018242:    4482        .D      ADD      r10,r10,r0
        0x00018244:    4483        .D      ADD      r11,r11,r0
        0x00018246:    f1aa0701    ....    SUB      r7,r10,#1
    __scatterload_null
        0x0001824a:    45da        .E      CMP      r10,r11
        0x0001824c:    d101        ..      BNE      0x18252 ; __scatterload_null + 8
        0x0001824e:    f000f831    ..1.    BL       __rt_entry ; 0x182b4
        0x00018252:    f2af0e09    ....    ADR      lr,{pc}-7 ; 0x1824b
        0x00018256:    e8ba000f    ....    LDM      r10!,{r0-r3}
        0x0001825a:    f0130f01    ....    TST      r3,#1
        0x0001825e:    bf18        ..      IT       NE
        0x00018260:    1afb        ..      SUBNE    r3,r7,r3
        0x00018262:    f0430301    C...    ORR      r3,r3,#1
        0x00018266:    4718        .G      BX       r3
    $d
        0x00018268:    0000645c    \d..    DCD    25692
        0x0001826c:    0000648c    .d..    DCD    25740
    $t
    !!handler_copy
    __scatterload_copy
        0x00018270:    3a10        .:      SUBS     r2,r2,#0x10
        0x00018272:    bf24        $.      ITT      CS
        0x00018274:    c878        x.      LDMCS    r0!,{r3-r6}
        0x00018276:    c178        x.      STMCS    r1!,{r3-r6}
        0x00018278:    d8fa        ..      BHI      __scatterload_copy ; 0x18270
        0x0001827a:    0752        R.      LSLS     r2,r2,#29
        0x0001827c:    bf24        $.      ITT      CS
        0x0001827e:    c830        0.      LDMCS    r0!,{r4,r5}
        0x00018280:    c130        0.      STMCS    r1!,{r4,r5}
        0x00018282:    bf44        D.      ITT      MI
        0x00018284:    6804        .h      LDRMI    r4,[r0,#0]
        0x00018286:    600c        .`      STRMI    r4,[r1,#0]
        0x00018288:    4770        pG      BX       lr
        0x0001828a:    0000        ..      MOVS     r0,r0
    !!handler_zi
    __scatterload_zeroinit
        0x0001828c:    2300        .#      MOVS     r3,#0
        0x0001828e:    2400        .$      MOVS     r4,#0
        0x00018290:    2500        .%      MOVS     r5,#0
        0x00018292:    2600        .&      MOVS     r6,#0
        0x00018294:    3a10        .:      SUBS     r2,r2,#0x10
        0x00018296:    bf28        (.      IT       CS
        0x00018298:    c178        x.      STMCS    r1!,{r3-r6}
        0x0001829a:    d8fb        ..      BHI      0x18294 ; __scatterload_zeroinit + 8
        0x0001829c:    0752        R.      LSLS     r2,r2,#29
        0x0001829e:    bf28        (.      IT       CS
        0x000182a0:    c130        0.      STMCS    r1!,{r4,r5}
        0x000182a2:    bf48        H.      IT       MI
        0x000182a4:    600b        .`      STRMI    r3,[r1,#0]
        0x000182a6:    4770        pG      BX       lr
    .ARM.Collect$$libinit$$00000000
    __rt_lib_init
        0x000182a8:    b51f        ..      PUSH     {r0-r4,lr}
    .ARM.Collect$$libinit$$00000001
    __rt_lib_init_fp_1
        0x000182aa:    f005fc0a    ....    BL       _fp_init ; 0x1dac2
    .ARM.Collect$$libinit$$00000004
    .ARM.Collect$$libinit$$0000000A
    .ARM.Collect$$libinit$$0000000C
    .ARM.Collect$$libinit$$0000000E
    .ARM.Collect$$libinit$$00000011
    .ARM.Collect$$libinit$$00000013
    .ARM.Collect$$libinit$$00000015
    .ARM.Collect$$libinit$$00000017
    .ARM.Collect$$libinit$$00000019
    .ARM.Collect$$libinit$$0000001B
    .ARM.Collect$$libinit$$0000001D
    .ARM.Collect$$libinit$$0000001F
    .ARM.Collect$$libinit$$00000021
    .ARM.Collect$$libinit$$00000023
    .ARM.Collect$$libinit$$00000025
    .ARM.Collect$$libinit$$0000002C
    .ARM.Collect$$libinit$$0000002E
    .ARM.Collect$$libinit$$00000030
    .ARM.Collect$$libinit$$00000032
    .ARM.Collect$$libinit$$00000033
    __rt_lib_init_alloca_1
    __rt_lib_init_argv_1
    __rt_lib_init_atexit_1
    __rt_lib_init_clock_1
    __rt_lib_init_cpp_1
    __rt_lib_init_exceptions_1
    __rt_lib_init_fp_trap_1
    __rt_lib_init_getenv_1
    __rt_lib_init_heap_1
    __rt_lib_init_lc_collate_1
    __rt_lib_init_lc_ctype_1
    __rt_lib_init_lc_monetary_1
    __rt_lib_init_lc_numeric_1
    __rt_lib_init_lc_time_1
    __rt_lib_init_preinit_1
    __rt_lib_init_rand_1
    __rt_lib_init_return
    __rt_lib_init_signal_1
    __rt_lib_init_stdio_1
    __rt_lib_init_user_alloc_1
        0x000182ae:    bd1f        ..      POP      {r0-r4,pc}
    .ARM.Collect$$libshutdown$$00000000
    __rt_lib_shutdown
        0x000182b0:    b510        ..      PUSH     {r4,lr}
    .ARM.Collect$$libshutdown$$00000002
    .ARM.Collect$$libshutdown$$00000004
    .ARM.Collect$$libshutdown$$00000007
    .ARM.Collect$$libshutdown$$0000000A
    .ARM.Collect$$libshutdown$$0000000C
    .ARM.Collect$$libshutdown$$0000000F
    .ARM.Collect$$libshutdown$$00000010
    __rt_lib_shutdown_cpp_1
    __rt_lib_shutdown_fp_trap_1
    __rt_lib_shutdown_heap_1
    __rt_lib_shutdown_return
    __rt_lib_shutdown_signal_1
    __rt_lib_shutdown_stdio_1
    __rt_lib_shutdown_user_alloc_1
        0x000182b2:    bd10        ..      POP      {r4,pc}
    .ARM.Collect$$rtentry$$00000000
    .ARM.Collect$$rtentry$$00000002
    .ARM.Collect$$rtentry$$00000004
    __rt_entry
    __rt_entry_presh_1
    __rt_entry_sh
        0x000182b4:    f000f99f    ....    BL       __user_setup_stackheap ; 0x185f6
        0x000182b8:    4611        .F      MOV      r1,r2
    .ARM.Collect$$rtentry$$00000009
    .ARM.Collect$$rtentry$$0000000A
    __rt_entry_li
    __rt_entry_postsh_1
        0x000182ba:    f7fffff5    ....    BL       __rt_lib_init ; 0x182a8
    .ARM.Collect$$rtentry$$0000000C
    .ARM.Collect$$rtentry$$0000000D
    __rt_entry_main
    __rt_entry_postli_1
        0x000182be:    f002fc7f    ....    BL       main ; 0x1abc0
        0x000182c2:    f000f9bd    ....    BL       exit ; 0x18640
    .ARM.Collect$$rtexit$$00000000
    __rt_exit
        0x000182c6:    b403        ..      PUSH     {r0,r1}
    .ARM.Collect$$rtexit$$00000002
    .ARM.Collect$$rtexit$$00000003
    __rt_exit_ls
    __rt_exit_prels_1
        0x000182c8:    f7fffff2    ....    BL       __rt_lib_shutdown ; 0x182b0
    .ARM.Collect$$rtexit$$00000004
    __rt_exit_exit
        0x000182cc:    bc03        ..      POP      {r0,r1}
        0x000182ce:    f000f9c5    ....    BL       _sys_exit ; 0x1865c
        0x000182d2:    0000        ..      MOVS     r0,r0
    .text
    $v0
    __user_initial_stackheap
        0x000182d4:    4802        .H      LDR      r0,[pc,#8] ; [0x182e0] = 0x10021790
        0x000182d6:    4903        .I      LDR      r1,[pc,#12] ; [0x182e4] = 0x10035790
        0x000182d8:    4a01        .J      LDR      r2,[pc,#4] ; [0x182e0] = 0x10021790
        0x000182da:    4b03        .K      LDR      r3,[pc,#12] ; [0x182e8] = 0x10021790
        0x000182dc:    4770        pG      BX       lr
    $d
        0x000182de:    0000        ..      DCW    0
        0x000182e0:    10021790    ....    DCD    268572560
        0x000182e4:    10035790    .W..    DCD    268654480
        0x000182e8:    10021790    ....    DCD    268572560
    $t
    .text
    memcmp
        0x000182ec:    ea400301    @...    ORR      r3,r0,r1
        0x000182f0:    b510        ..      PUSH     {r4,lr}
        0x000182f2:    079b        ..      LSLS     r3,r3,#30
        0x000182f4:    d10f        ..      BNE      0x18316 ; memcmp + 42
        0x000182f6:    2a04        .*      CMP      r2,#4
        0x000182f8:    d30d        ..      BCC      0x18316 ; memcmp + 42
        0x000182fa:    c810        ..      LDM      r0!,{r4}
        0x000182fc:    c908        ..      LDM      r1!,{r3}
        0x000182fe:    1f12        ..      SUBS     r2,r2,#4
        0x00018300:    429c        .B      CMP      r4,r3
        0x00018302:    d0f8        ..      BEQ      0x182f6 ; memcmp + 10
        0x00018304:    ba20         .      REV      r0,r4
        0x00018306:    ba19        ..      REV      r1,r3
        0x00018308:    4288        .B      CMP      r0,r1
        0x0001830a:    d901        ..      BLS      0x18310 ; memcmp + 36
        0x0001830c:    2001        .       MOVS     r0,#1
        0x0001830e:    bd10        ..      POP      {r4,pc}
        0x00018310:    f04f30ff    O..0    MOV      r0,#0xffffffff
        0x00018314:    bd10        ..      POP      {r4,pc}
        0x00018316:    b11a        ..      CBZ      r2,0x18320 ; memcmp + 52
        0x00018318:    07d3        ..      LSLS     r3,r2,#31
        0x0001831a:    d003        ..      BEQ      0x18324 ; memcmp + 56
        0x0001831c:    1c52        R.      ADDS     r2,r2,#1
        0x0001831e:    e007        ..      B        0x18330 ; memcmp + 68
        0x00018320:    2000        .       MOVS     r0,#0
        0x00018322:    bd10        ..      POP      {r4,pc}
        0x00018324:    f8103b01    ...;    LDRB     r3,[r0],#1
        0x00018328:    f8114b01    ...K    LDRB     r4,[r1],#1
        0x0001832c:    1b1b        ..      SUBS     r3,r3,r4
        0x0001832e:    d107        ..      BNE      0x18340 ; memcmp + 84
        0x00018330:    f8103b01    ...;    LDRB     r3,[r0],#1
        0x00018334:    f8114b01    ...K    LDRB     r4,[r1],#1
        0x00018338:    1b1b        ..      SUBS     r3,r3,r4
        0x0001833a:    d101        ..      BNE      0x18340 ; memcmp + 84
        0x0001833c:    1e92        ..      SUBS     r2,r2,#2
        0x0001833e:    d1f1        ..      BNE      0x18324 ; memcmp + 56
        0x00018340:    4618        .F      MOV      r0,r3
        0x00018342:    bd10        ..      POP      {r4,pc}
    .text
    __aeabi_memcpy
    __rt_memcpy
        0x00018344:    2a03        .*      CMP      r2,#3
        0x00018346:    f2408030    @.0.    BLS.W    _memcpy_lastbytes ; 0x183aa
        0x0001834a:    f0100c03    ....    ANDS     r12,r0,#3
        0x0001834e:    f0008015    ....    BEQ.W    0x1837c ; __aeabi_memcpy + 56
        0x00018352:    f8113b01    ...;    LDRB     r3,[r1],#1
        0x00018356:    f1bc0f02    ....    CMP      r12,#2
        0x0001835a:    4462        bD      ADD      r2,r2,r12
        0x0001835c:    bf98        ..      IT       LS
        0x0001835e:    f811cb01    ....    LDRBLS   r12,[r1],#1
        0x00018362:    f8003b01    ...;    STRB     r3,[r0],#1
        0x00018366:    bf38        8.      IT       CC
        0x00018368:    f8113b01    ...;    LDRBCC   r3,[r1],#1
        0x0001836c:    f1a20204    ....    SUB      r2,r2,#4
        0x00018370:    bf98        ..      IT       LS
        0x00018372:    f800cb01    ....    STRBLS   r12,[r0],#1
        0x00018376:    bf38        8.      IT       CC
        0x00018378:    f8003b01    ...;    STRBCC   r3,[r0],#1
        0x0001837c:    f0110303    ....    ANDS     r3,r1,#3
        0x00018380:    f000806b    ..k.    BEQ.W    __aeabi_memcpy4 ; 0x1845a
        0x00018384:    3a08        .:      SUBS     r2,r2,#8
        0x00018386:    f0c08008    ....    BCC.W    0x1839a ; __aeabi_memcpy + 86
        0x0001838a:    f8513b04    Q..;    LDR      r3,[r1],#4
        0x0001838e:    3a08        .:      SUBS     r2,r2,#8
        0x00018390:    f851cb04    Q...    LDR      r12,[r1],#4
        0x00018394:    e8a01008    ....    STM      r0!,{r3,r12}
        0x00018398:    e7f5        ..      B        0x18386 ; __aeabi_memcpy + 66
        0x0001839a:    1d12        ..      ADDS     r2,r2,#4
        0x0001839c:    bf5c        \.      ITT      PL
        0x0001839e:    f8513b04    Q..;    LDRPL    r3,[r1],#4
        0x000183a2:    f8403b04    @..;    STRPL    r3,[r0],#4
        0x000183a6:    f3af8000    ....    NOP.W    
    _memcpy_lastbytes
        0x000183aa:    07d2        ..      LSLS     r2,r2,#31
        0x000183ac:    bf24        $.      ITT      CS
        0x000183ae:    f8113b01    ...;    LDRBCS   r3,[r1],#1
        0x000183b2:    f811cb01    ....    LDRBCS   r12,[r1],#1
        0x000183b6:    bf48        H.      IT       MI
        0x000183b8:    f8112b01    ...+    LDRBMI   r2,[r1],#1
        0x000183bc:    bf24        $.      ITT      CS
        0x000183be:    f8003b01    ...;    STRBCS   r3,[r0],#1
        0x000183c2:    f800cb01    ....    STRBCS   r12,[r0],#1
        0x000183c6:    bf48        H.      IT       MI
        0x000183c8:    f8002b01    ...+    STRBMI   r2,[r0],#1
        0x000183cc:    4770        pG      BX       lr
    .text
    __aeabi_memmove
    __rt_memmove
        0x000183ce:    1a43        C.      SUBS     r3,r0,r1
        0x000183d0:    bf28        (.      IT       CS
        0x000183d2:    429a        .B      CMPCS    r2,r3
        0x000183d4:    f67fafb6    ....    BLS.W    __aeabi_memcpy ; 0x18344
        0x000183d8:    4410        .D      ADD      r0,r0,r2
        0x000183da:    4411        .D      ADD      r1,r1,r2
        0x000183dc:    2a03        .*      CMP      r2,#3
        0x000183de:    f2408026    @.&.    BLS.W    __memmove_lastfew ; 0x1842e
        0x000183e2:    f0100f03    ....    TST      r0,#3
        0x000183e6:    bf1e        ..      ITTT     NE
        0x000183e8:    f8113d01    ...=    LDRBNE   r3,[r1,#-1]!
        0x000183ec:    1e52        R.      SUBNE    r2,r2,#1
        0x000183ee:    f8003d01    ...=    STRBNE   r3,[r0,#-1]!
        0x000183f2:    f0100f03    ....    TST      r0,#3
        0x000183f6:    f47faff6    ....    BNE.W    0x183e6 ; __aeabi_memmove + 24
        0x000183fa:    f0110303    ....    ANDS     r3,r1,#3
        0x000183fe:    f00080d0    ....    BEQ.W    __memmove_aligned ; 0x185a2
        0x00018402:    3a08        .:      SUBS     r2,r2,#8
        0x00018404:    f0c0800b    ....    BCC.W    0x1841e ; __aeabi_memmove + 80
        0x00018408:    f8513d04    Q..=    LDR      r3,[r1,#-4]!
        0x0001840c:    3a08        .:      SUBS     r2,r2,#8
        0x0001840e:    f851cd04    Q...    LDR      r12,[r1,#-4]!
        0x00018412:    f8403d04    @..=    STR      r3,[r0,#-4]!
        0x00018416:    f840cd04    @...    STR      r12,[r0,#-4]!
        0x0001841a:    f7ffbff3    ....    B.W      0x18404 ; __aeabi_memmove + 54
        0x0001841e:    1d12        ..      ADDS     r2,r2,#4
        0x00018420:    bf5c        \.      ITT      PL
        0x00018422:    f8513d04    Q..=    LDRPL    r3,[r1,#-4]!
        0x00018426:    f8403d04    @..=    STRPL    r3,[r0,#-4]!
        0x0001842a:    f3af8000    ....    NOP.W    
    __memmove_lastfew
        0x0001842e:    07d2        ..      LSLS     r2,r2,#31
        0x00018430:    bf24        $.      ITT      CS
        0x00018432:    f8113d01    ...=    LDRBCS   r3,[r1,#-1]!
        0x00018436:    f811cd01    ....    LDRBCS   r12,[r1,#-1]!
        0x0001843a:    bf48        H.      IT       MI
        0x0001843c:    f8112c01    ...,    LDRBMI   r2,[r1,#-1]
        0x00018440:    bf24        $.      ITT      CS
        0x00018442:    f8003d01    ...=    STRBCS   r3,[r0,#-1]!
        0x00018446:    f800cd01    ....    STRBCS   r12,[r0,#-1]!
        0x0001844a:    bf48        H.      IT       MI
        0x0001844c:    f8002c01    ...,    STRBMI   r2,[r0,#-1]
        0x00018450:    4770        pG      BX       lr
    .text
    memmove
        0x00018452:    b501        ..      PUSH     {r0,lr}
        0x00018454:    f7ffffbb    ....    BL       __aeabi_memmove ; 0x183ce
        0x00018458:    bd01        ..      POP      {r0,pc}
    .text
    __aeabi_memcpy4
    __aeabi_memcpy8
    __rt_memcpy_w
        0x0001845a:    b510        ..      PUSH     {r4,lr}
        0x0001845c:    3a20         :      SUBS     r2,r2,#0x20
        0x0001845e:    f0c0800b    ....    BCC.W    0x18478 ; __aeabi_memcpy4 + 30
        0x00018462:    e8b15018    ...P    LDM      r1!,{r3,r4,r12,lr}
        0x00018466:    e8a05018    ...P    STM      r0!,{r3,r4,r12,lr}
        0x0001846a:    e8b15018    ...P    LDM      r1!,{r3,r4,r12,lr}
        0x0001846e:    e8a05018    ...P    STM      r0!,{r3,r4,r12,lr}
        0x00018472:    3a20         :      SUBS     r2,r2,#0x20
        0x00018474:    f4bfaff5    ....    BCS.W    0x18462 ; __aeabi_memcpy4 + 8
        0x00018478:    ea5f7c02    _..|    LSLS     r12,r2,#28
        0x0001847c:    bf24        $.      ITT      CS
        0x0001847e:    e8b15018    ...P    LDMCS    r1!,{r3,r4,r12,lr}
        0x00018482:    e8a05018    ...P    STMCS    r0!,{r3,r4,r12,lr}
        0x00018486:    bf44        D.      ITT      MI
        0x00018488:    c918        ..      LDMMI    r1!,{r3,r4}
        0x0001848a:    c018        ..      STMMI    r0!,{r3,r4}
        0x0001848c:    e8bd4010    ...@    POP      {r4,lr}
        0x00018490:    ea5f7c82    _..|    LSLS     r12,r2,#30
        0x00018494:    bf24        $.      ITT      CS
        0x00018496:    f8513b04    Q..;    LDRCS    r3,[r1],#4
        0x0001849a:    f8403b04    @..;    STRCS    r3,[r0],#4
        0x0001849e:    bf08        ..      IT       EQ
        0x000184a0:    4770        pG      BXEQ     lr
    _memcpy_lastbytes_aligned
        0x000184a2:    07d2        ..      LSLS     r2,r2,#31
        0x000184a4:    bf28        (.      IT       CS
        0x000184a6:    f8313b02    1..;    LDRHCS   r3,[r1],#2
        0x000184aa:    bf48        H.      IT       MI
        0x000184ac:    f8112b01    ...+    LDRBMI   r2,[r1],#1
        0x000184b0:    bf28        (.      IT       CS
        0x000184b2:    f8203b02     ..;    STRHCS   r3,[r0],#2
        0x000184b6:    bf48        H.      IT       MI
        0x000184b8:    f8002b01    ...+    STRBMI   r2,[r0],#1
        0x000184bc:    4770        pG      BX       lr
    .text
    memset
        0x000184be:    b501        ..      PUSH     {r0,lr}
        0x000184c0:    f00103ff    ....    AND      r3,r1,#0xff
        0x000184c4:    4611        .F      MOV      r1,r2
        0x000184c6:    ea432203    C.."    ORR      r2,r3,r3,LSL #8
        0x000184ca:    ea424202    B..B    ORR      r2,r2,r2,LSL #16
        0x000184ce:    f000f80b    ....    BL       _memset ; 0x184e8
        0x000184d2:    bd01        ..      POP      {r0,pc}
    .text
    __aeabi_memset
        0x000184d4:    f00203ff    ....    AND      r3,r2,#0xff
        0x000184d8:    ea432203    C.."    ORR      r2,r3,r3,LSL #8
        0x000184dc:    ea424202    B..B    ORR      r2,r2,r2,LSL #16
        0x000184e0:    f000b802    ....    B.W      _memset ; 0x184e8
    .text
    __aeabi_memclr
    __rt_memclr
        0x000184e4:    f04f0200    O...    MOV      r2,#0
    _memset
        0x000184e8:    2904        .)      CMP      r1,#4
        0x000184ea:    f0c08012    ....    BCC.W    0x18512 ; _memset + 42
        0x000184ee:    f0100c03    ....    ANDS     r12,r0,#3
        0x000184f2:    f000801b    ....    BEQ.W    _memset_w ; 0x1852c
        0x000184f6:    f1cc0c04    ....    RSB      r12,r12,#4
        0x000184fa:    f1bc0f02    ....    CMP      r12,#2
        0x000184fe:    bf18        ..      IT       NE
        0x00018500:    f8002b01    ...+    STRBNE   r2,[r0],#1
        0x00018504:    bfa8        ..      IT       GE
        0x00018506:    f8202b02     ..+    STRHGE   r2,[r0],#2
        0x0001850a:    eba1010c    ....    SUB      r1,r1,r12
        0x0001850e:    f000b80d    ....    B.W      _memset_w ; 0x1852c
        0x00018512:    ea5f7cc1    _..|    LSLS     r12,r1,#31
        0x00018516:    bf24        $.      ITT      CS
        0x00018518:    f8002b01    ...+    STRBCS   r2,[r0],#1
        0x0001851c:    f8002b01    ...+    STRBCS   r2,[r0],#1
        0x00018520:    bf48        H.      IT       MI
        0x00018522:    f8002b01    ...+    STRBMI   r2,[r0],#1
        0x00018526:    4770        pG      BX       lr
    .text
    __aeabi_memclr4
    __aeabi_memclr8
    __rt_memclr_w
        0x00018528:    f04f0200    O...    MOV      r2,#0
    _memset_w
        0x0001852c:    b500        ..      PUSH     {lr}
        0x0001852e:    4613        .F      MOV      r3,r2
        0x00018530:    4694        .F      MOV      r12,r2
        0x00018532:    4696        .F      MOV      lr,r2
        0x00018534:    3920         9      SUBS     r1,r1,#0x20
        0x00018536:    bf22        ".      ITTT     CS
        0x00018538:    e8a0500c    ...P    STMCS    r0!,{r2,r3,r12,lr}
        0x0001853c:    e8a0500c    ...P    STMCS    r0!,{r2,r3,r12,lr}
        0x00018540:    f1b10120    .. .    SUBSCS   r1,r1,#0x20
        0x00018544:    f4bfaff7    ....    BCS.W    0x18536 ; _memset_w + 10
        0x00018548:    0709        ..      LSLS     r1,r1,#28
        0x0001854a:    bf28        (.      IT       CS
        0x0001854c:    e8a0500c    ...P    STMCS    r0!,{r2,r3,r12,lr}
        0x00018550:    bf48        H.      IT       MI
        0x00018552:    c00c        ..      STMMI    r0!,{r2,r3}
        0x00018554:    f85deb04    ]...    POP      {lr}
        0x00018558:    0089        ..      LSLS     r1,r1,#2
        0x0001855a:    bf28        (.      IT       CS
        0x0001855c:    f8402b04    @..+    STRCS    r2,[r0],#4
        0x00018560:    bf08        ..      IT       EQ
        0x00018562:    4770        pG      BXEQ     lr
        0x00018564:    bf48        H.      IT       MI
        0x00018566:    f8202b02     ..+    STRHMI   r2,[r0],#2
        0x0001856a:    f0114f80    ...O    TST      r1,#0x40000000
        0x0001856e:    bf18        ..      IT       NE
        0x00018570:    f8002b01    ...+    STRBNE   r2,[r0],#1
        0x00018574:    4770        pG      BX       lr
    .text
    __use_two_region_memory
        0x00018576:    4770        pG      BX       lr
    __rt_heap_escrow$2region
        0x00018578:    4770        pG      BX       lr
    __rt_heap_expand$2region
        0x0001857a:    4770        pG      BX       lr
    .text
    __aeabi_memmove4
    __aeabi_memmove8
    __rt_memmove_w
        0x0001857c:    1a43        C.      SUBS     r3,r0,r1
        0x0001857e:    bf28        (.      IT       CS
        0x00018580:    429a        .B      CMPCS    r2,r3
        0x00018582:    f67faf6a    ..j.    BLS      __aeabi_memcpy4 ; 0x1845a
        0x00018586:    4410        .D      ADD      r0,r0,r2
        0x00018588:    4411        .D      ADD      r1,r1,r2
        0x0001858a:    f0100f03    ....    TST      r0,#3
        0x0001858e:    bf1e        ..      ITTT     NE
        0x00018590:    f8113d01    ...=    LDRBNE   r3,[r1,#-1]!
        0x00018594:    1e52        R.      SUBNE    r2,r2,#1
        0x00018596:    f8003d01    ...=    STRBNE   r3,[r0,#-1]!
        0x0001859a:    f0100f03    ....    TST      r0,#3
        0x0001859e:    f47faff6    ....    BNE.W    0x1858e ; __aeabi_memmove4 + 18
    __memmove_aligned
        0x000185a2:    3a10        .:      SUBS     r2,r2,#0x10
        0x000185a4:    f0c0800a    ....    BCC.W    0x185bc ; __memmove_aligned + 26
        0x000185a8:    b510        ..      PUSH     {r4,lr}
        0x000185aa:    e9315018    1..P    LDMDB    r1!,{r3,r4,r12,lr}
        0x000185ae:    e9205018     ..P    STMDB    r0!,{r3,r4,r12,lr}
        0x000185b2:    3a10        .:      SUBS     r2,r2,#0x10
        0x000185b4:    f4bfaff9    ....    BCS.W    0x185aa ; __memmove_aligned + 8
        0x000185b8:    e8bd4010    ...@    POP      {r4,lr}
        0x000185bc:    0753        S.      LSLS     r3,r2,#29
        0x000185be:    bf24        $.      ITT      CS
        0x000185c0:    e9311008    1...    LDMDBCS  r1!,{r3,r12}
        0x000185c4:    e9201008     ...    STMDBCS  r0!,{r3,r12}
        0x000185c8:    bf44        D.      ITT      MI
        0x000185ca:    f8513d04    Q..=    LDRMI    r3,[r1,#-4]!
        0x000185ce:    f8403d04    @..=    STRMI    r3,[r0,#-4]!
        0x000185d2:    f0120f03    ....    TST      r2,#3
        0x000185d6:    bf08        ..      IT       EQ
        0x000185d8:    4770        pG      BXEQ     lr
    __memmove_lastfew_aligned
        0x000185da:    07d2        ..      LSLS     r2,r2,#31
        0x000185dc:    bf28        (.      IT       CS
        0x000185de:    f8313d02    1..=    LDRHCS   r3,[r1,#-2]!
        0x000185e2:    bf48        H.      IT       MI
        0x000185e4:    f8112c01    ...,    LDRBMI   r2,[r1,#-1]
        0x000185e8:    bf28        (.      IT       CS
        0x000185ea:    f8203d02     ..=    STRHCS   r3,[r0,#-2]!
        0x000185ee:    bf48        H.      IT       MI
        0x000185f0:    f8002c01    ...,    STRBMI   r2,[r0,#-1]
        0x000185f4:    4770        pG      BX       lr
    .text
    __user_setup_stackheap
        0x000185f6:    4675        uF      MOV      r5,lr
        0x000185f8:    f000f82c    ..,.    BL       __user_libspace ; 0x18654
        0x000185fc:    46ae        .F      MOV      lr,r5
        0x000185fe:    0005        ..      MOVS     r5,r0
        0x00018600:    4669        iF      MOV      r1,sp
        0x00018602:    4653        SF      MOV      r3,r10
        0x00018604:    f0200007     ...    BIC      r0,r0,#7
        0x00018608:    4685        .F      MOV      sp,r0
        0x0001860a:    b018        ..      ADD      sp,sp,#0x60
        0x0001860c:    b520         .      PUSH     {r5,lr}
        0x0001860e:    f7fffe61    ..a.    BL       __user_initial_stackheap ; 0x182d4
        0x00018612:    e8bd4020    .. @    POP      {r5,lr}
        0x00018616:    f04f0600    O...    MOV      r6,#0
        0x0001861a:    f04f0700    O...    MOV      r7,#0
        0x0001861e:    f04f0800    O...    MOV      r8,#0
        0x00018622:    f04f0b00    O...    MOV      r11,#0
        0x00018626:    46ac        .F      MOV      r12,r5
        0x00018628:    e8ac09c0    ....    STM      r12!,{r6-r8,r11}
        0x0001862c:    e8ac09c0    ....    STM      r12!,{r6-r8,r11}
        0x00018630:    e8ac09c0    ....    STM      r12!,{r6-r8,r11}
        0x00018634:    e8ac09c0    ....    STM      r12!,{r6-r8,r11}
        0x00018638:    f0210107    !...    BIC      r1,r1,#7
        0x0001863c:    468d        .F      MOV      sp,r1
        0x0001863e:    4770        pG      BX       lr
    .text
    exit
        0x00018640:    b510        ..      PUSH     {r4,lr}
        0x00018642:    4604        .F      MOV      r4,r0
        0x00018644:    f3af8000    ....    NOP.W    
        0x00018648:    4620         F      MOV      r0,r4
        0x0001864a:    e8bd4010    ...@    POP      {r4,lr}
        0x0001864e:    f7ffbe3a    ..:.    B.W      __rt_exit ; 0x182c6
        0x00018652:    0000        ..      MOVS     r0,r0
    .text
    __user_libspace
    __user_perproc_libspace
    __user_perthread_libspace
        0x00018654:    4800        .H      LDR      r0,[pc,#0] ; [0x18658] = 0x1000006c
        0x00018656:    4770        pG      BX       lr
    $d
        0x00018658:    1000006c    l...    DCD    268435564
    $t
    .text
    _sys_exit
        0x0001865c:    4901        .I      LDR      r1,[pc,#4] ; [0x18664] = 0x20026
        0x0001865e:    2018        .       MOVS     r0,#0x18
        0x00018660:    beab        ..      BKPT     #0xab
        0x00018662:    e7fe        ..      B        0x18662 ; _sys_exit + 6
    $d
        0x00018664:    00020026    &...    DCD    131110
    $t
    .text
    __I$use$semihosting
    __use_no_semihosting_swi
        0x00018668:    4770        pG      BX       lr
    .text
    __semihosting_library_function
        0x0001866a:    0000        ..      MOVS     r0,r0
    $t.0
    HardFault_Handler
        0x0001866c:    f01e0f04    ....    TST      lr,#4
        0x00018670:    bf0c        ..      ITE      EQ
        0x00018672:    f3ef8008    ....    MRSEQ    r0,MSP
        0x00018676:    f3ef8009    ....    MRSNE    r0,PSP
        0x0001867a:    4904        .I      LDR      r1,[pc,#16] ; [0x1868c] = 0x100005fc
        0x0001867c:    f5017100    ...q    ADD      r1,r1,#0x200
        0x00018680:    f0210103    !...    BIC      r1,r1,#3
        0x00018684:    468d        .F      MOV      sp,r1
        0x00018686:    f001bac7    ....    B.W      am_util_faultisr_collect_data ; 0x19c18
        0x0001868a:    bf00        ..      NOP      
    $d.4
        0x0001868c:    100005fc    ....    DCD    268436988
    $t.17
    TrimVersionGet
        0x00018690:    b5b0        ..      PUSH     {r4,r5,r7,lr}
        0x00018692:    f2400548    @.H.    MOVW     r5,#0x48
        0x00018696:    f2c10500    ....    MOVT     r5,#0x1000
        0x0001869a:    6829        )h      LDR      r1,[r5,#0]
        0x0001869c:    4604        .F      MOV      r4,r0
        0x0001869e:    1c4a        J.      ADDS     r2,r1,#1
        0x000186a0:    d10c        ..      BNE      0x186bc ; TrimVersionGet + 44
        0x000186a2:    2001        .       MOVS     r0,#1
        0x000186a4:    f24041c4    @..A    MOV      r1,#0x4c4
        0x000186a8:    2201        ."      MOVS     r2,#1
        0x000186aa:    462b        +F      MOV      r3,r5
        0x000186ac:    f000fb8e    ....    BL       am_hal_mram_info_read ; 0x18dcc
        0x000186b0:    b910        ..      CBNZ     r0,0x186b8 ; TrimVersionGet + 40
        0x000186b2:    6829        )h      LDR      r1,[r5,#0]
        0x000186b4:    1c48        H.      ADDS     r0,r1,#1
        0x000186b6:    d101        ..      BNE      0x186bc ; TrimVersionGet + 44
        0x000186b8:    2100        .!      MOVS     r1,#0
        0x000186ba:    6029        )`      STR      r1,[r5,#0]
        0x000186bc:    b104        ..      CBZ      r4,0x186c0 ; TrimVersionGet + 48
        0x000186be:    6021        !`      STR      r1,[r4,#0]
        0x000186c0:    bdb0        ..      POP      {r4,r5,r7,pc}
    am_bsp_buffered_uart_printf_enable
        0x000186c2:    b510        ..      PUSH     {r4,lr}
        0x000186c4:    b082        ..      SUB      sp,sp,#8
        0x000186c6:    f6407404    @..t    MOV      r4,#0xf04
        0x000186ca:    f2c10400    ....    MOVT     r4,#0x1000
        0x000186ce:    2002        .       MOVS     r0,#2
        0x000186d0:    4621        !F      MOV      r1,r4
        0x000186d2:    f001f9b1    ....    BL       am_hal_uart_initialize ; 0x19a38
        0x000186d6:    bb80        ..      CBNZ     r0,0x1873a ; am_bsp_buffered_uart_printf_enable + 120
        0x000186d8:    6820         h      LDR      r0,[r4,#0]
        0x000186da:    2100        .!      MOVS     r1,#0
        0x000186dc:    2200        ."      MOVS     r2,#0
        0x000186de:    f001f9e3    ....    BL       am_hal_uart_power_control ; 0x19aa8
        0x000186e2:    bb50        P.      CBNZ     r0,0x1873a ; am_bsp_buffered_uart_printf_enable + 120
        0x000186e4:    6820         h      LDR      r0,[r4,#0]
        0x000186e6:    f24e215c    N.\!    MOV      r1,#0xe25c
        0x000186ea:    f2c00101    ....    MOVT     r1,#1
        0x000186ee:    f001f8cf    ....    BL       am_hal_uart_configure ; 0x19890
        0x000186f2:    bb10        ..      CBNZ     r0,0x1873a ; am_bsp_buffered_uart_printf_enable + 120
        0x000186f4:    6820         h      LDR      r0,[r4,#0]
        0x000186f6:    f241318c    A..1    MOV      r1,#0x138c
        0x000186fa:    f640738c    @..s    MOV      r3,#0xf8c
        0x000186fe:    f44f6480    O..d    MOV      r4,#0x400
        0x00018702:    f2c10102    ....    MOVT     r1,#0x1002
        0x00018706:    f2c10302    ....    MOVT     r3,#0x1002
        0x0001870a:    f44f6280    O..b    MOV      r2,#0x400
        0x0001870e:    9400        ..      STR      r4,[sp,#0]
        0x00018710:    f001f88e    ....    BL       am_hal_uart_buffer_configure ; 0x19830
        0x00018714:    b988        ..      CBNZ     r0,0x1873a ; am_bsp_buffered_uart_printf_enable + 120
        0x00018716:    f240003c    @.<.    MOVW     r0,#0x3c
        0x0001871a:    f2c10000    ....    MOVT     r0,#0x1000
        0x0001871e:    6801        .h      LDR      r1,[r0,#0]
        0x00018720:    200d        .       MOVS     r0,#0xd
        0x00018722:    f000fac9    ....    BL       am_hal_gpio_pinconfig ; 0x18cb8
        0x00018726:    b940        @.      CBNZ     r0,0x1873a ; am_bsp_buffered_uart_printf_enable + 120
        0x00018728:    f2400038    @.8.    MOVW     r0,#0x38
        0x0001872c:    f2c10000    ....    MOVT     r0,#0x1000
        0x00018730:    6801        .h      LDR      r1,[r0,#0]
        0x00018732:    200b        .       MOVS     r0,#0xb
        0x00018734:    f000fac0    ....    BL       am_hal_gpio_pinconfig ; 0x18cb8
        0x00018738:    b118        ..      CBZ      r0,0x18742 ; am_bsp_buffered_uart_printf_enable + 128
        0x0001873a:    f04f30ff    O..0    MOV      r0,#0xffffffff
        0x0001873e:    b002        ..      ADD      sp,sp,#8
        0x00018740:    bd10        ..      POP      {r4,pc}
        0x00018742:    f64800c1    H...    MOV      r0,#0x88c1
        0x00018746:    f2c00001    ....    MOVT     r0,#1
        0x0001874a:    f001fc27    ..'.    BL       am_util_stdio_printf_init ; 0x19f9c
        0x0001874e:    f24e4011    N..@    MOV      r0,#0xe411
        0x00018752:    f2ce0000    ....    MOVT     r0,#0xe000
        0x00018756:    2180        .!      MOVS     r1,#0x80
        0x00018758:    7001        .p      STRB     r1,[r0,#0]
        0x0001875a:    f24e1000    N...    MOVW     r0,#0xe100
        0x0001875e:    f2ce0000    ....    MOVT     r0,#0xe000
        0x00018762:    f44f3100    O..1    MOV      r1,#0x20000
        0x00018766:    6001        .`      STR      r1,[r0,#0]
        0x00018768:    f64020e3    @..     MOV      r0,#0xae3
        0x0001876c:    f2c10000    ....    MOVT     r0,#0x1000
        0x00018770:    2103        .!      MOVS     r1,#3
        0x00018772:    7001        .p      STRB     r1,[r0,#0]
        0x00018774:    2000        .       MOVS     r0,#0
        0x00018776:    e7e2        ..      B        0x1873e ; am_bsp_buffered_uart_printf_enable + 124
    am_bsp_debug_printf_enable
        0x00018778:    f64020e3    @..     MOV      r0,#0xae3
        0x0001877c:    f2c10000    ....    MOVT     r0,#0x1000
        0x00018780:    7800        .x      LDRB     r0,[r0,#0]
        0x00018782:    2802        .(      CMP      r0,#2
        0x00018784:    d307        ..      BCC      0x18796 ; am_bsp_debug_printf_enable + 30
        0x00018786:    d008        ..      BEQ      0x1879a ; am_bsp_debug_printf_enable + 34
        0x00018788:    2803        .(      CMP      r0,#3
        0x0001878a:    bf1c        ..      ITT      NE
        0x0001878c:    f04f30ff    O..0    MOVNE    r0,#0xffffffff
        0x00018790:    4770        pG      BXNE     lr
        0x00018792:    f7ffbf96    ....    B.W      am_bsp_buffered_uart_printf_enable ; 0x186c2
        0x00018796:    f000b802    ....    B.W      am_bsp_itm_printf_enable ; 0x1879e
        0x0001879a:    f000b855    ..U.    B.W      am_bsp_uart_printf_enable ; 0x18848
    am_bsp_itm_printf_enable
        0x0001879e:    b5b0        ..      PUSH     {r4,r5,r7,lr}
        0x000187a0:    b082        ..      SUB      sp,sp,#8
        0x000187a2:    f2410408    A...    MOV      r4,#0x1008
        0x000187a6:    f2c40402    ....    MOVT     r4,#0x4002
        0x000187aa:    6820         h      LDR      r0,[r4,#0]
        0x000187ac:    f4101580    ....    ANDS     r5,r0,#0x100000
        0x000187b0:    d102        ..      BNE      0x187b8 ; am_bsp_itm_printf_enable + 26
        0x000187b2:    2012        .       MOVS     r0,#0x12
        0x000187b4:    f000fe42    ..B.    BL       am_hal_pwrctrl_periph_enable ; 0x1943c
        0x000187b8:    6820         h      LDR      r0,[r4,#0]
        0x000187ba:    02c0        ..      LSLS     r0,r0,#11
        0x000187bc:    d512        ..      BPL      0x187e4 ; am_bsp_itm_printf_enable + 70
        0x000187be:    f640207c    @.|     MOV      r0,#0xa7c
        0x000187c2:    f2c4000c    ....    MOVT     r0,#0x400c
        0x000187c6:    6800        .h      LDR      r0,[r0,#0]
        0x000187c8:    07c0        ..      LSLS     r0,r0,#31
        0x000187ca:    d00b        ..      BEQ      0x187e4 ; am_bsp_itm_printf_enable + 70
        0x000187cc:    a801        ..      ADD      r0,sp,#4
        0x000187ce:    f000f91b    ....    BL       am_hal_dcu_get ; 0x18a08
        0x000187d2:    f89d0004    ....    LDRB     r0,[sp,#4]
        0x000187d6:    06c0        ..      LSLS     r0,r0,#27
        0x000187d8:    d40d        ..      BMI      0x187f6 ; am_bsp_itm_printf_enable + 88
        0x000187da:    2001        .       MOVS     r0,#1
        0x000187dc:    2110        .!      MOVS     r1,#0x10
        0x000187de:    f000f961    ..a.    BL       am_hal_dcu_update ; 0x18aa4
        0x000187e2:    b140        @.      CBZ      r0,0x187f6 ; am_bsp_itm_printf_enable + 88
        0x000187e4:    f04f34ff    O..4    MOV      r4,#0xffffffff
        0x000187e8:    b915        ..      CBNZ     r5,0x187f0 ; am_bsp_itm_printf_enable + 82
        0x000187ea:    2012        .       MOVS     r0,#0x12
        0x000187ec:    f000fd96    ....    BL       am_hal_pwrctrl_periph_disable ; 0x1931c
        0x000187f0:    4620         F      MOV      r0,r4
        0x000187f2:    b002        ..      ADD      sp,sp,#8
        0x000187f4:    bdb0        ..      POP      {r4,r5,r7,pc}
        0x000187f6:    f64020e3    @..     MOV      r0,#0xae3
        0x000187fa:    f2c10000    ....    MOVT     r0,#0x1000
        0x000187fe:    2101        .!      MOVS     r1,#1
        0x00018800:    7001        .p      STRB     r1,[r0,#0]
        0x00018802:    f000faa9    ....    BL       am_hal_itm_enable ; 0x18d58
        0x00018806:    f2442040    D.@     MOV      r0,#0x4240
        0x0001880a:    f2c0000f    ....    MOVT     r0,#0xf
        0x0001880e:    f000ffd9    ....    BL       am_hal_tpiu_enable ; 0x197c4
        0x00018812:    f2400040    @.@.    MOVW     r0,#0x40
        0x00018816:    f2c10000    ....    MOVT     r0,#0x1000
        0x0001881a:    6801        .h      LDR      r1,[r0,#0]
        0x0001881c:    2018        .       MOVS     r0,#0x18
        0x0001881e:    f000fa4b    ..K.    BL       am_hal_gpio_pinconfig ; 0x18cb8
        0x00018822:    f648509d    H..P    MOV      r0,#0x8d9d
        0x00018826:    f2c00001    ....    MOVT     r0,#1
        0x0001882a:    f001fbb7    ....    BL       am_util_stdio_printf_init ; 0x19f9c
        0x0001882e:    2400        .$      MOVS     r4,#0
        0x00018830:    e7da        ..      B        0x187e8 ; am_bsp_itm_printf_enable + 74
    am_bsp_low_power_init
        0x00018832:    b580        ..      PUSH     {r7,lr}
        0x00018834:    f000fc00    ....    BL       am_hal_pwrctrl_low_power_init ; 0x19038
        0x00018838:    2000        .       MOVS     r0,#0
        0x0001883a:    2100        .!      MOVS     r1,#0
        0x0001883c:    f000fb1c    ....    BL       am_hal_pwrctrl_control ; 0x18e78
        0x00018840:    e8bd4080    ...@    POP      {r7,lr}
        0x00018844:    f000bf1c    ....    B.W      am_hal_rtc_osc_disable ; 0x19680
    am_bsp_uart_printf_enable
        0x00018848:    b510        ..      PUSH     {r4,lr}
        0x0001884a:    f6407404    @..t    MOV      r4,#0xf04
        0x0001884e:    f2c10400    ....    MOVT     r4,#0x1000
        0x00018852:    2002        .       MOVS     r0,#2
        0x00018854:    4621        !F      MOV      r1,r4
        0x00018856:    f001f8ef    ....    BL       am_hal_uart_initialize ; 0x19a38
        0x0001885a:    b9f8        ..      CBNZ     r0,0x1889c ; am_bsp_uart_printf_enable + 84
        0x0001885c:    6820         h      LDR      r0,[r4,#0]
        0x0001885e:    2100        .!      MOVS     r1,#0
        0x00018860:    2200        ."      MOVS     r2,#0
        0x00018862:    f001f921    ..!.    BL       am_hal_uart_power_control ; 0x19aa8
        0x00018866:    b9c8        ..      CBNZ     r0,0x1889c ; am_bsp_uart_printf_enable + 84
        0x00018868:    6820         h      LDR      r0,[r4,#0]
        0x0001886a:    f24e215c    N.\!    MOV      r1,#0xe25c
        0x0001886e:    f2c00101    ....    MOVT     r1,#1
        0x00018872:    f001f80d    ....    BL       am_hal_uart_configure ; 0x19890
        0x00018876:    b988        ..      CBNZ     r0,0x1889c ; am_bsp_uart_printf_enable + 84
        0x00018878:    f240003c    @.<.    MOVW     r0,#0x3c
        0x0001887c:    f2c10000    ....    MOVT     r0,#0x1000
        0x00018880:    6801        .h      LDR      r1,[r0,#0]
        0x00018882:    200d        .       MOVS     r0,#0xd
        0x00018884:    f000fa18    ....    BL       am_hal_gpio_pinconfig ; 0x18cb8
        0x00018888:    b940        @.      CBNZ     r0,0x1889c ; am_bsp_uart_printf_enable + 84
        0x0001888a:    f2400038    @.8.    MOVW     r0,#0x38
        0x0001888e:    f2c10000    ....    MOVT     r0,#0x1000
        0x00018892:    6801        .h      LDR      r1,[r0,#0]
        0x00018894:    200b        .       MOVS     r0,#0xb
        0x00018896:    f000fa0f    ....    BL       am_hal_gpio_pinconfig ; 0x18cb8
        0x0001889a:    b110        ..      CBZ      r0,0x188a2 ; am_bsp_uart_printf_enable + 90
        0x0001889c:    f04f30ff    O..0    MOV      r0,#0xffffffff
        0x000188a0:    bd10        ..      POP      {r4,pc}
        0x000188a2:    f64020e3    @..     MOV      r0,#0xae3
        0x000188a6:    f2c10000    ....    MOVT     r0,#0x1000
        0x000188aa:    2102        .!      MOVS     r1,#2
        0x000188ac:    7001        .p      STRB     r1,[r0,#0]
        0x000188ae:    f64800c1    H...    MOV      r0,#0x88c1
        0x000188b2:    f2c00001    ....    MOVT     r0,#1
        0x000188b6:    f001fb71    ..q.    BL       am_util_stdio_printf_init ; 0x19f9c
        0x000188ba:    2000        .       MOVS     r0,#0
        0x000188bc:    bd10        ..      POP      {r4,pc}
        0x000188be:    0000        ..      MOVS     r0,r0
    am_bsp_uart_string_print
        0x000188c0:    b510        ..      PUSH     {r4,lr}
        0x000188c2:    b08a        ..      SUB      sp,sp,#0x28
        0x000188c4:    2400        .$      MOVS     r4,#0
        0x000188c6:    9409        ..      STR      r4,[sp,#0x24]
        0x000188c8:    5d01        .]      LDRB     r1,[r0,r4]
        0x000188ca:    3401        .4      ADDS     r4,#1
        0x000188cc:    2900        .)      CMP      r1,#0
        0x000188ce:    d1fb        ..      BNE      0x188c8 ; am_bsp_uart_string_print + 8
        0x000188d0:    9002        ..      STR      r0,[sp,#8]
        0x000188d2:    1e60        `.      SUBS     r0,r4,#1
        0x000188d4:    9003        ..      STR      r0,[sp,#0xc]
        0x000188d6:    a809        ..      ADD      r0,sp,#0x24
        0x000188d8:    2100        .!      MOVS     r1,#0
        0x000188da:    9004        ..      STR      r0,[sp,#0x10]
        0x000188dc:    f04f30ff    O..0    MOV      r0,#0xffffffff
        0x000188e0:    e9cd0105    ....    STRD     r0,r1,[sp,#0x14]
        0x000188e4:    f6407004    @..p    MOV      r0,#0xf04
        0x000188e8:    f2c10000    ....    MOVT     r0,#0x1000
        0x000188ec:    6800        .h      LDR      r0,[r0,#0]
        0x000188ee:    f88d1004    ....    STRB     r1,[sp,#4]
        0x000188f2:    9107        ..      STR      r1,[sp,#0x1c]
        0x000188f4:    9108        ..      STR      r1,[sp,#0x20]
        0x000188f6:    a901        ..      ADD      r1,sp,#4
        0x000188f8:    f001f934    ..4.    BL       am_hal_uart_transfer ; 0x19b64
        0x000188fc:    9809        ..      LDR      r0,[sp,#0x24]
        0x000188fe:    3001        .0      ADDS     r0,#1
        0x00018900:    42a0        .B      CMP      r0,r4
        0x00018902:    bf04        ..      ITT      EQ
        0x00018904:    b00a        ..      ADDEQ    sp,sp,#0x28
        0x00018906:    bd10        ..      POPEQ    {r4,pc}
        0x00018908:    e7fe        ..      B        0x18908 ; am_bsp_uart_string_print + 72
    am_hal_daxi_config
        0x0001890a:    b5b0        ..      PUSH     {r4,r5,r7,lr}
        0x0001890c:    b082        ..      SUB      sp,sp,#8
        0x0001890e:    2550        P%      MOVS     r5,#0x50
        0x00018910:    4604        .F      MOV      r4,r0
        0x00018912:    f6c40500    ....    MOVT     r5,#0x4800
        0x00018916:    f000fa17    ....    BL       am_hal_interrupt_master_disable ; 0x18d48
        0x0001891a:    9001        ..      STR      r0,[sp,#4]
        0x0001891c:    2001        .       MOVS     r0,#1
        0x0001891e:    f000f827    ..'.    BL       am_hal_daxi_control ; 0x18970
        0x00018922:    b1cc        ..      CBZ      r4,0x18958 ; am_hal_daxi_config + 78
        0x00018924:    7860        `x      LDRB     r0,[r4,#1]
        0x00018926:    7922        "y      LDRB     r2,[r4,#4]
        0x00018928:    78a1        .x      LDRB     r1,[r4,#2]
        0x0001892a:    78e3        .x      LDRB     r3,[r4,#3]
        0x0001892c:    f0020201    ....    AND      r2,r2,#1
        0x00018930:    f000007f    ....    AND      r0,r0,#0x7f
        0x00018934:    ea420040    B.@.    ORR      r0,r2,r0,LSL #1
        0x00018938:    f363200b    c..     BFI      r0,r3,#8,#4
        0x0001893c:    f001011f    ....    AND      r1,r1,#0x1f
        0x00018940:    ea404001    @..@    ORR      r0,r0,r1,LSL #16
        0x00018944:    6028        (`      STR      r0,[r5,#0]
        0x00018946:    7920         y      LDRB     r0,[r4,#4]
        0x00018948:    f2400120    @. .    MOVW     r1,#0x20
        0x0001894c:    f2c10100    ....    MOVT     r1,#0x1000
        0x00018950:    7108        .q      STRB     r0,[r1,#4]
        0x00018952:    6820         h      LDR      r0,[r4,#0]
        0x00018954:    6008        .`      STR      r0,[r1,#0]
        0x00018956:    e001        ..      B        0x1895c ; am_hal_daxi_config + 82
        0x00018958:    2006        .       MOVS     r0,#6
        0x0001895a:    6028        (`      STR      r0,[r5,#0]
        0x0001895c:    2000        .       MOVS     r0,#0
        0x0001895e:    f2c470ff    ...p    MOVT     r0,#0x47ff
        0x00018962:    6800        .h      LDR      r0,[r0,#0]
        0x00018964:    9801        ..      LDR      r0,[sp,#4]
        0x00018966:    f000f9f3    ....    BL       am_hal_interrupt_master_set ; 0x18d50
        0x0001896a:    2000        .       MOVS     r0,#0
        0x0001896c:    b002        ..      ADD      sp,sp,#8
        0x0001896e:    bdb0        ..      POP      {r4,r5,r7,pc}
    am_hal_daxi_control
        0x00018970:    b510        ..      PUSH     {r4,lr}
        0x00018972:    b082        ..      SUB      sp,sp,#8
        0x00018974:    2803        .(      CMP      r0,#3
        0x00018976:    d821        !.      BHI      0x189bc ; am_hal_daxi_control + 76
        0x00018978:    e8dff000    ....    TBB      [pc,r0]
    $d.9
        0x0001897c:    19142202    ."..    DCD    420749826
    $t.10
        0x00018980:    2054        T       MOVS     r0,#0x54
        0x00018982:    f6c40000    ....    MOVT     r0,#0x4800
        0x00018986:    f8501c04    P...    LDR      r1,[r0,#-4]
        0x0001898a:    0749        I.      LSLS     r1,r1,#29
        0x0001898c:    d438        8.      BMI      0x18a00 ; am_hal_daxi_control + 144
        0x0001898e:    f3bf8f4f    ..O.    DSB      
        0x00018992:    6801        .h      LDR      r1,[r0,#0]
        0x00018994:    f0410102    A...    ORR      r1,r1,#2
        0x00018998:    6001        .`      STR      r1,[r0,#0]
        0x0001899a:    2000        .       MOVS     r0,#0
        0x0001899c:    f2c470ff    ...p    MOVT     r0,#0x47ff
        0x000189a0:    6800        .h      LDR      r0,[r0,#0]
        0x000189a2:    e02d        -.      B        0x18a00 ; am_hal_daxi_control + 144
        0x000189a4:    2000        .       MOVS     r0,#0
        0x000189a6:    2400        .$      MOVS     r4,#0
        0x000189a8:    f7ffffaf    ....    BL       am_hal_daxi_config ; 0x1890a
        0x000189ac:    e029        ).      B        0x18a02 ; am_hal_daxi_control + 146
        0x000189ae:    f2400020    @. .    MOVW     r0,#0x20
        0x000189b2:    f2c10000    ....    MOVT     r0,#0x1000
        0x000189b6:    f7ffffa8    ....    BL       am_hal_daxi_config ; 0x1890a
        0x000189ba:    e021        !.      B        0x18a00 ; am_hal_daxi_control + 144
        0x000189bc:    2406        .$      MOVS     r4,#6
        0x000189be:    e020         .      B        0x18a02 ; am_hal_daxi_control + 146
        0x000189c0:    2454        T$      MOVS     r4,#0x54
        0x000189c2:    f6c40400    ....    MOVT     r4,#0x4800
        0x000189c6:    f000f9bf    ....    BL       am_hal_interrupt_master_disable ; 0x18d48
        0x000189ca:    9001        ..      STR      r0,[sp,#4]
        0x000189cc:    f8540c04    T...    LDR      r0,[r4,#-4]
        0x000189d0:    0740        @.      LSLS     r0,r0,#29
        0x000189d2:    d40f        ..      BMI      0x189f4 ; am_hal_daxi_control + 132
        0x000189d4:    f3bf8f4f    ..O.    DSB      
        0x000189d8:    6820         h      LDR      r0,[r4,#0]
        0x000189da:    f0400001    @...    ORR      r0,r0,#1
        0x000189de:    6020         `      STR      r0,[r4,#0]
        0x000189e0:    2000        .       MOVS     r0,#0
        0x000189e2:    f2c470ff    ...p    MOVT     r0,#0x47ff
        0x000189e6:    6801        .h      LDR      r1,[r0,#0]
        0x000189e8:    6821        !h      LDR      r1,[r4,#0]
        0x000189ea:    f0410102    A...    ORR      r1,r1,#2
        0x000189ee:    6021        !`      STR      r1,[r4,#0]
        0x000189f0:    6800        .h      LDR      r0,[r0,#0]
        0x000189f2:    bf00        ..      NOP      
        0x000189f4:    6820         h      LDR      r0,[r4,#0]
        0x000189f6:    0740        @.      LSLS     r0,r0,#29
        0x000189f8:    d5fc        ..      BPL      0x189f4 ; am_hal_daxi_control + 132
        0x000189fa:    9801        ..      LDR      r0,[sp,#4]
        0x000189fc:    f000f9a8    ....    BL       am_hal_interrupt_master_set ; 0x18d50
        0x00018a00:    2400        .$      MOVS     r4,#0
        0x00018a02:    4620         F      MOV      r0,r4
        0x00018a04:    b002        ..      ADD      sp,sp,#8
        0x00018a06:    bd10        ..      POP      {r4,pc}
    am_hal_dcu_get
        0x00018a08:    b5b0        ..      PUSH     {r4,r5,r7,lr}
        0x00018a0a:    b084        ..      SUB      sp,sp,#0x10
        0x00018a0c:    f2410108    A...    MOV      r1,#0x1008
        0x00018a10:    f2c40102    ....    MOVT     r1,#0x4002
        0x00018a14:    6809        .h      LDR      r1,[r1,#0]
        0x00018a16:    02c9        ..      LSLS     r1,r1,#11
        0x00018a18:    d506        ..      BPL      0x18a28 ; am_hal_dcu_get + 32
        0x00018a1a:    f640217c    @.|!    MOV      r1,#0xa7c
        0x00018a1e:    f2c4010c    ....    MOVT     r1,#0x400c
        0x00018a22:    6809        .h      LDR      r1,[r1,#0]
        0x00018a24:    07c9        ..      LSLS     r1,r1,#31
        0x00018a26:    d101        ..      BNE      0x18a2c ; am_hal_dcu_get + 36
        0x00018a28:    2007        .       MOVS     r0,#7
        0x00018a2a:    e038        8.      B        0x18a9e ; am_hal_dcu_get + 150
        0x00018a2c:    f2400150    @.P.    MOVW     r1,#0x50
        0x00018a30:    f2c10100    ....    MOVT     r1,#0x1000
        0x00018a34:    6809        .h      LDR      r1,[r1,#0]
        0x00018a36:    f24073fc    @..s    MOV      r3,#0x7fc
        0x00018a3a:    684a        Jh      LDR      r2,[r1,#4]
        0x00018a3c:    f2c10300    ....    MOVT     r3,#0x1000
        0x00018a40:    9201        ..      STR      r2,[sp,#4]
        0x00018a42:    6809        .h      LDR      r1,[r1,#0]
        0x00018a44:    9102        ..      STR      r1,[sp,#8]
        0x00018a46:    681b        .h      LDR      r3,[r3,#0]
        0x00018a48:    fa21fc03    !...    LSR      r12,r1,r3
        0x00018a4c:    f1c30120    .. .    RSB      r1,r3,#0x20
        0x00018a50:    fa02f101    ....    LSL      r1,r2,r1
        0x00018a54:    ea4c0e01    L...    ORR      lr,r12,r1
        0x00018a58:    f1b30120    .. .    SUBS     r1,r3,#0x20
        0x00018a5c:    bf58        X.      IT       PL
        0x00018a5e:    fa22fe01    "...    LSRPL    lr,r2,r1
        0x00018a62:    fa22f203    "...    LSR      r2,r2,r3
        0x00018a66:    f04f0300    O...    MOV      r3,#0
        0x00018a6a:    f04f0c01    O...    MOV      r12,#1
        0x00018a6e:    f04f0100    O...    MOV      r1,#0
        0x00018a72:    bf58        X.      IT       PL
        0x00018a74:    2200        ."      MOVPL    r2,#0
        0x00018a76:    bf00        ..      NOP      
        0x00018a78:    f00e0407    ....    AND      r4,lr,#7
        0x00018a7c:    fa0cf503    ....    LSL      r5,r12,r3
        0x00018a80:    f0940f05    ....    TEQ      r4,#5
        0x00018a84:    bf08        ..      IT       EQ
        0x00018a86:    4329        )C      ORREQ    r1,r1,r5
        0x00018a88:    ea4f05de    O...    LSR      r5,lr,#3
        0x00018a8c:    3301        .3      ADDS     r3,#1
        0x00018a8e:    ea457e42    E.B~    ORR      lr,r5,r2,LSL #29
        0x00018a92:    2b14        .+      CMP      r3,#0x14
        0x00018a94:    ea4f02d2    O...    LSR      r2,r2,#3
        0x00018a98:    d1ee        ..      BNE      0x18a78 ; am_hal_dcu_get + 112
        0x00018a9a:    6001        .`      STR      r1,[r0,#0]
        0x00018a9c:    2000        .       MOVS     r0,#0
        0x00018a9e:    b004        ..      ADD      sp,sp,#0x10
        0x00018aa0:    bdb0        ..      POP      {r4,r5,r7,pc}
        0x00018aa2:    0000        ..      MOVS     r0,r0
    am_hal_dcu_update
        0x00018aa4:    e92d41f0    -..A    PUSH     {r4-r8,lr}
        0x00018aa8:    b086        ..      SUB      sp,sp,#0x18
        0x00018aaa:    f2410208    A...    MOV      r2,#0x1008
        0x00018aae:    f2c40202    ....    MOVT     r2,#0x4002
        0x00018ab2:    6812        .h      LDR      r2,[r2,#0]
        0x00018ab4:    02d2        ..      LSLS     r2,r2,#11
        0x00018ab6:    d53b        ;.      BPL      0x18b30 ; am_hal_dcu_update + 140
        0x00018ab8:    f6402c7c    @.|,    MOV      r12,#0xa7c
        0x00018abc:    f2c40c0c    ....    MOVT     r12,#0x400c
        0x00018ac0:    f8dc2000    ...     LDR      r2,[r12,#0]
        0x00018ac4:    07d2        ..      LSLS     r2,r2,#31
        0x00018ac6:    f04f0207    O...    MOV      r2,#7
        0x00018aca:    d032        2.      BEQ      0x18b32 ; am_hal_dcu_update + 142
        0x00018acc:    f24073fc    @..s    MOV      r3,#0x7fc
        0x00018ad0:    f2c10300    ....    MOVT     r3,#0x1000
        0x00018ad4:    f8d38000    ....    LDR      r8,[r3,#0]
        0x00018ad8:    2500        .%      MOVS     r5,#0
        0x00018ada:    2300        .#      MOVS     r3,#0
        0x00018adc:    f04f0e00    O...    MOV      lr,#0
        0x00018ae0:    078e        ..      LSLS     r6,r1,#30
        0x00018ae2:    d511        ..      BPL      0x18b08 ; am_hal_dcu_update + 100
        0x00018ae4:    eb080605    ....    ADD      r6,r8,r5
        0x00018ae8:    f1c60420    .. .    RSB      r4,r6,#0x20
        0x00018aec:    f1b60720    .. .    SUBS     r7,r6,#0x20
        0x00018af0:    fa22f404    "...    LSR      r4,r2,r4
        0x00018af4:    fa02f606    ....    LSL      r6,r2,r6
        0x00018af8:    bf58        X.      IT       PL
        0x00018afa:    fa02f407    ....    LSLPL    r4,r2,r7
        0x00018afe:    bf58        X.      IT       PL
        0x00018b00:    2600        .&      MOVPL    r6,#0
        0x00018b02:    ea4e0e04    N...    ORR      lr,lr,r4
        0x00018b06:    4333        3C      ORRS     r3,r3,r6
        0x00018b08:    3503        .5      ADDS     r5,#3
        0x00018b0a:    2d3c        <-      CMP      r5,#0x3c
        0x00018b0c:    ea4f0151    O.Q.    LSR      r1,r1,#1
        0x00018b10:    d1e6        ..      BNE      0x18ae0 ; am_hal_dcu_update + 60
        0x00018b12:    f2400154    @.T.    MOVW     r1,#0x54
        0x00018b16:    f2c10100    ....    MOVT     r1,#0x1000
        0x00018b1a:    6809        .h      LDR      r1,[r1,#0]
        0x00018b1c:    684a        Jh      LDR      r2,[r1,#4]
        0x00018b1e:    9201        ..      STR      r2,[sp,#4]
        0x00018b20:    6809        .h      LDR      r1,[r1,#0]
        0x00018b22:    ea02020e    ....    AND      r2,r2,lr
        0x00018b26:    ea010403    ....    AND      r4,r1,r3
        0x00018b2a:    4322        "C      ORRS     r2,r2,r4
        0x00018b2c:    9102        ..      STR      r1,[sp,#8]
        0x00018b2e:    d004        ..      BEQ      0x18b3a ; am_hal_dcu_update + 150
        0x00018b30:    2207        ."      MOVS     r2,#7
        0x00018b32:    4610        .F      MOV      r0,r2
        0x00018b34:    b006        ..      ADD      sp,sp,#0x18
        0x00018b36:    e8bd81f0    ....    POP      {r4-r8,pc}
        0x00018b3a:    f2400150    @.P.    MOVW     r1,#0x50
        0x00018b3e:    f2c10100    ....    MOVT     r1,#0x1000
        0x00018b42:    6809        .h      LDR      r1,[r1,#0]
        0x00018b44:    f2400530    @.0.    MOVW     r5,#0x30
        0x00018b48:    684a        Jh      LDR      r2,[r1,#4]
        0x00018b4a:    f2400628    @.(.    MOVW     r6,#0x28
        0x00018b4e:    9203        ..      STR      r2,[sp,#0xc]
        0x00018b50:    680c        .h      LDR      r4,[r1,#0]
        0x00018b52:    f2c10500    ....    MOVT     r5,#0x1000
        0x00018b56:    f2c10600    ....    MOVT     r6,#0x1000
        0x00018b5a:    9404        ..      STR      r4,[sp,#0x10]
        0x00018b5c:    2800        .(      CMP      r0,#0
        0x00018b5e:    bf18        ..      IT       NE
        0x00018b60:    462e        .F      MOVNE    r6,r5
        0x00018b62:    e9d65000    ...P    LDRD     r5,r0,[r6,#0]
        0x00018b66:    439c        .C      BICS     r4,r4,r3
        0x00018b68:    ea22020e    "...    BIC      r2,r2,lr
        0x00018b6c:    402b        +@      ANDS     r3,r3,r5
        0x00018b6e:    ea00000e    ....    AND      r0,r0,lr
        0x00018b72:    4310        .C      ORRS     r0,r0,r2
        0x00018b74:    ea430204    C...    ORR      r2,r3,r4
        0x00018b78:    e9cd0203    ....    STRD     r0,r2,[sp,#0xc]
        0x00018b7c:    9803        ..      LDR      r0,[sp,#0xc]
        0x00018b7e:    6048        H`      STR      r0,[r1,#4]
        0x00018b80:    9804        ..      LDR      r0,[sp,#0x10]
        0x00018b82:    6008        .`      STR      r0,[r1,#0]
        0x00018b84:    f8dc0000    ....    LDR      r0,[r12,#0]
        0x00018b88:    07c0        ..      LSLS     r0,r0,#31
        0x00018b8a:    d0fb        ..      BEQ      0x18b84 ; am_hal_dcu_update + 224
        0x00018b8c:    2200        ."      MOVS     r2,#0
        0x00018b8e:    e7d0        ..      B        0x18b32 ; am_hal_dcu_update + 142
    am_hal_delay_us
        0x00018b90:    f2410100    A...    MOVW     r1,#0x1000
        0x00018b94:    f2c40102    ....    MOVT     r1,#0x4002
        0x00018b98:    6809        .h      LDR      r1,[r1,#0]
        0x00018b9a:    2205        ."      MOVS     r2,#5
        0x00018b9c:    f0010118    ....    AND      r1,r1,#0x18
        0x00018ba0:    2910        .)      CMP      r1,#0x10
        0x00018ba2:    bf08        ..      IT       EQ
        0x00018ba4:    2206        ."      MOVEQ    r2,#6
        0x00018ba6:    fa00f002    ....    LSL      r0,r0,r2
        0x00018baa:    f04f010f    O...    MOV      r1,#0xf
        0x00018bae:    bf08        ..      IT       EQ
        0x00018bb0:    2115        .!      MOVEQ    r1,#0x15
        0x00018bb2:    4281        .B      CMP      r1,r0
        0x00018bb4:    bf28        (.      IT       CS
        0x00018bb6:    4770        pG      BXCS     lr
        0x00018bb8:    1a40        @.      SUBS     r0,r0,r1
        0x00018bba:    f24e2134    N.4!    MOV      r1,#0xe234
        0x00018bbe:    f2c00101    ....    MOVT     r1,#1
        0x00018bc2:    6a49        Ij      LDR      r1,[r1,#0x24]
        0x00018bc4:    4708        .G      BX       r1
        0x00018bc6:    0000        ..      MOVS     r0,r0
    am_hal_delay_us_status_change
        0x00018bc8:    e92d43f0    -..C    PUSH     {r4-r9,lr}
        0x00018bcc:    b081        ..      SUB      sp,sp,#4
        0x00018bce:    460d        .F      MOV      r5,r1
        0x00018bd0:    6809        .h      LDR      r1,[r1,#0]
        0x00018bd2:    4011        .@      ANDS     r1,r1,r2
        0x00018bd4:    4299        .B      CMP      r1,r3
        0x00018bd6:    d01b        ..      BEQ      0x18c10 ; am_hal_delay_us_status_change + 72
        0x00018bd8:    f24e2134    N.4!    MOV      r1,#0xe234
        0x00018bdc:    f2c00101    ....    MOVT     r1,#1
        0x00018be0:    6a4f        Oj      LDR      r7,[r1,#0x24]
        0x00018be2:    f2410900    A...    MOVW     r9,#0x1000
        0x00018be6:    4698        .F      MOV      r8,r3
        0x00018be8:    4616        .F      MOV      r6,r2
        0x00018bea:    1c44        D.      ADDS     r4,r0,#1
        0x00018bec:    f2c40902    ....    MOVT     r9,#0x4002
        0x00018bf0:    3c01        .<      SUBS     r4,#1
        0x00018bf2:    d00f        ..      BEQ      0x18c14 ; am_hal_delay_us_status_change + 76
        0x00018bf4:    f8d90000    ....    LDR      r0,[r9,#0]
        0x00018bf8:    f0000018    ....    AND      r0,r0,#0x18
        0x00018bfc:    2810        .(      CMP      r0,#0x10
        0x00018bfe:    f04f0011    O...    MOV      r0,#0x11
        0x00018c02:    bf08        ..      IT       EQ
        0x00018c04:    202b        +       MOVEQ    r0,#0x2b
        0x00018c06:    47b8        .G      BLX      r7
        0x00018c08:    6828        (h      LDR      r0,[r5,#0]
        0x00018c0a:    4030        0@      ANDS     r0,r0,r6
        0x00018c0c:    4540        @E      CMP      r0,r8
        0x00018c0e:    d1ef        ..      BNE      0x18bf0 ; am_hal_delay_us_status_change + 40
        0x00018c10:    2000        .       MOVS     r0,#0
        0x00018c12:    e000        ..      B        0x18c16 ; am_hal_delay_us_status_change + 78
        0x00018c14:    2004        .       MOVS     r0,#4
        0x00018c16:    b001        ..      ADD      sp,sp,#4
        0x00018c18:    e8bd83f0    ....    POP      {r4-r9,pc}
    am_hal_delay_us_status_check
        0x00018c1c:    e92d47f0    -..G    PUSH     {r4-r10,lr}
        0x00018c20:    4607        .F      MOV      r7,r0
        0x00018c22:    f24e2034    N.4     MOV      r0,#0xe234
        0x00018c26:    f2c00001    ....    MOVT     r0,#1
        0x00018c2a:    f8dd8020    .. .    LDR      r8,[sp,#0x20]
        0x00018c2e:    6a44        Dj      LDR      r4,[r0,#0x24]
        0x00018c30:    f2410a00    A...    MOVW     r10,#0x1000
        0x00018c34:    4699        .F      MOV      r9,r3
        0x00018c36:    4615        .F      MOV      r5,r2
        0x00018c38:    460e        .F      MOV      r6,r1
        0x00018c3a:    f2c40a02    ....    MOVT     r10,#0x4002
        0x00018c3e:    bf00        ..      NOP      
        0x00018c40:    6830        0h      LDR      r0,[r6,#0]
        0x00018c42:    f1b80f00    ....    CMP      r8,#0
        0x00018c46:    ea000005    ....    AND      r0,r0,r5
        0x00018c4a:    d003        ..      BEQ      0x18c54 ; am_hal_delay_us_status_check + 56
        0x00018c4c:    4548        HE      CMP      r0,r9
        0x00018c4e:    d103        ..      BNE      0x18c58 ; am_hal_delay_us_status_check + 60
        0x00018c50:    e00f        ..      B        0x18c72 ; am_hal_delay_us_status_check + 86
        0x00018c52:    bf00        ..      NOP      
        0x00018c54:    4548        HE      CMP      r0,r9
        0x00018c56:    d10c        ..      BNE      0x18c72 ; am_hal_delay_us_status_check + 86
        0x00018c58:    b177        w.      CBZ      r7,0x18c78 ; am_hal_delay_us_status_check + 92
        0x00018c5a:    f8da0000    ....    LDR      r0,[r10,#0]
        0x00018c5e:    3f01        .?      SUBS     r7,#1
        0x00018c60:    f0000018    ....    AND      r0,r0,#0x18
        0x00018c64:    2810        .(      CMP      r0,#0x10
        0x00018c66:    f04f0011    O...    MOV      r0,#0x11
        0x00018c6a:    bf08        ..      IT       EQ
        0x00018c6c:    202b        +       MOVEQ    r0,#0x2b
        0x00018c6e:    47a0        .G      BLX      r4
        0x00018c70:    e7e6        ..      B        0x18c40 ; am_hal_delay_us_status_check + 36
        0x00018c72:    2000        .       MOVS     r0,#0
        0x00018c74:    e8bd87f0    ....    POP      {r4-r10,pc}
        0x00018c78:    2004        .       MOVS     r0,#4
        0x00018c7a:    e8bd87f0    ....    POP      {r4-r10,pc}
    am_hal_fault_status_get
        0x00018c7e:    b1c8        ..      CBZ      r0,0x18cb4 ; am_hal_fault_status_get + 54
        0x00018c80:    2180        .!      MOVS     r1,#0x80
        0x00018c82:    f6c40100    ....    MOVT     r1,#0x4800
        0x00018c86:    68ca        .h      LDR      r2,[r1,#0xc]
        0x00018c88:    b2d3        ..      UXTB     r3,r2
        0x00018c8a:    f0020201    ....    AND      r2,r2,#1
        0x00018c8e:    7002        .p      STRB     r2,[r0,#0]
        0x00018c90:    f3c30240    ..@.    UBFX     r2,r3,#1,#1
        0x00018c94:    7202        .r      STRB     r2,[r0,#8]
        0x00018c96:    f3c30280    ....    UBFX     r2,r3,#2,#1
        0x00018c9a:    7402        .t      STRB     r2,[r0,#0x10]
        0x00018c9c:    684a        Jh      LDR      r2,[r1,#4]
        0x00018c9e:    60c2        .`      STR      r2,[r0,#0xc]
        0x00018ca0:    680a        .h      LDR      r2,[r1,#0]
        0x00018ca2:    6843        Ch      LDR      r3,[r0,#4]
        0x00018ca4:    431a        .C      ORRS     r2,r2,r3
        0x00018ca6:    6042        B`      STR      r2,[r0,#4]
        0x00018ca8:    6889        .h      LDR      r1,[r1,#8]
        0x00018caa:    6942        Bi      LDR      r2,[r0,#0x14]
        0x00018cac:    4311        .C      ORRS     r1,r1,r2
        0x00018cae:    6141        Aa      STR      r1,[r0,#0x14]
        0x00018cb0:    2000        .       MOVS     r0,#0
        0x00018cb2:    4770        pG      BX       lr
        0x00018cb4:    2006        .       MOVS     r0,#6
        0x00018cb6:    4770        pG      BX       lr
    am_hal_gpio_pinconfig
        0x00018cb8:    b5b0        ..      PUSH     {r4,r5,r7,lr}
        0x00018cba:    b084        ..      SUB      sp,sp,#0x10
        0x00018cbc:    287f        .(      CMP      r0,#0x7f
        0x00018cbe:    9103        ..      STR      r1,[sp,#0xc]
        0x00018cc0:    d80f        ..      BHI      0x18ce2 ; am_hal_gpio_pinconfig + 42
        0x00018cc2:    f24e2218    N.."    MOV      r2,#0xe218
        0x00018cc6:    ea4f1c50    O.P.    LSR      r12,r0,#5
        0x00018cca:    f2c00201    ....    MOVT     r2,#1
        0x00018cce:    4604        .F      MOV      r4,r0
        0x00018cd0:    f852302c    R.,0    LDR      r3,[r2,r12,LSL #2]
        0x00018cd4:    f000021f    ....    AND      r2,r0,#0x1f
        0x00018cd8:    2001        .       MOVS     r0,#1
        0x00018cda:    fa00f202    ....    LSL      r2,r0,r2
        0x00018cde:    4213        .B      TST      r3,r2
        0x00018ce0:    d003        ..      BEQ      0x18cea ; am_hal_gpio_pinconfig + 50
        0x00018ce2:    2405        .$      MOVS     r4,#5
        0x00018ce4:    4620         F      MOV      r0,r4
        0x00018ce6:    b004        ..      ADD      sp,sp,#0x10
        0x00018ce8:    bdb0        ..      POP      {r4,r5,r7,pc}
        0x00018cea:    0508        ..      LSLS     r0,r1,#20
        0x00018cec:    d504        ..      BPL      0x18cf8 ; am_hal_gpio_pinconfig + 64
        0x00018cee:    a012        ..      ADR      r0,{pc}+0x4a ; 0x18d38
        0x00018cf0:    f850002c    P.,.    LDR      r0,[r0,r12,LSL #2]
        0x00018cf4:    4210        .B      TST      r0,r2
        0x00018cf6:    d01c        ..      BEQ      0x18d32 ; am_hal_gpio_pinconfig + 122
        0x00018cf8:    f000f826    ..&.    BL       am_hal_interrupt_master_disable ; 0x18d48
        0x00018cfc:    f2402500    @..%    MOVW     r5,#0x200
        0x00018d00:    9002        ..      STR      r0,[sp,#8]
        0x00018d02:    f2c40501    ....    MOVT     r5,#0x4001
        0x00018d06:    2073        s       MOVS     r0,#0x73
        0x00018d08:    6028        (`      STR      r0,[r5,#0]
        0x00018d0a:    9802        ..      LDR      r0,[sp,#8]
        0x00018d0c:    f000f820    .. .    BL       am_hal_interrupt_master_set ; 0x18d50
        0x00018d10:    9803        ..      LDR      r0,[sp,#0xc]
        0x00018d12:    f64f6200    O..b    MOVW     r2,#0xfe00
        0x00018d16:    eb050184    ....    ADD      r1,r5,r4,LSL #2
        0x00018d1a:    f6cf72ff    ...r    MOVT     r2,#0xffff
        0x00018d1e:    5088        .P      STR      r0,[r1,r2]
        0x00018d20:    f000f812    ....    BL       am_hal_interrupt_master_disable ; 0x18d48
        0x00018d24:    2400        .$      MOVS     r4,#0
        0x00018d26:    9001        ..      STR      r0,[sp,#4]
        0x00018d28:    602c        ,`      STR      r4,[r5,#0]
        0x00018d2a:    9801        ..      LDR      r0,[sp,#4]
        0x00018d2c:    f000f810    ....    BL       am_hal_interrupt_master_set ; 0x18d50
        0x00018d30:    e7d8        ..      B        0x18ce4 ; am_hal_gpio_pinconfig + 44
        0x00018d32:    2407        .$      MOVS     r4,#7
        0x00018d34:    e7d6        ..      B        0x18ce4 ; am_hal_gpio_pinconfig + 44
        0x00018d36:    bf00        ..      NOP      
    $d.2
    g_ui32DSpintbl
        0x00018d38:    8fc007e0    ....    DCD    2411726816
        0x00018d3c:    e3fbffff    ....    DCD    3824943103
        0x00018d40:    01ffffff    ....    DCD    33554431
        0x00018d44:    00000000    ....    DCD    0
    $t.1
    am_hal_interrupt_master_disable
        0x00018d48:    f3ef8010    ....    MRS      r0,PRIMASK
        0x00018d4c:    b672        r.      CPSID    i
        0x00018d4e:    4770        pG      BX       lr
    am_hal_interrupt_master_set
        0x00018d50:    f3808810    ....    MSR      PRIMASK,r0
        0x00018d54:    4770        pG      BX       lr
        0x00018d56:    0000        ..      MOVS     r0,r0
    am_hal_itm_enable
        0x00018d58:    f64e50fc    N..P    MOV      r0,#0xedfc
        0x00018d5c:    f2ce0000    ....    MOVT     r0,#0xe000
        0x00018d60:    6801        .h      LDR      r1,[r0,#0]
        0x00018d62:    f0417180    A..q    ORR      r1,r1,#0x1000000
        0x00018d66:    6001        .`      STR      r1,[r0,#0]
        0x00018d68:    6801        .h      LDR      r1,[r0,#0]
        0x00018d6a:    01c9        ..      LSLS     r1,r1,#7
        0x00018d6c:    d5fc        ..      BPL      0x18d68 ; am_hal_itm_enable + 16
        0x00018d6e:    f6406000    @..`    MOVW     r0,#0xe00
        0x00018d72:    f64c6155    L.Ua    MOV      r1,#0xce55
        0x00018d76:    f2ce0000    ....    MOVT     r0,#0xe000
        0x00018d7a:    f2cc51ac    ...Q    MOVT     r1,#0xc5ac
        0x00018d7e:    f8c011b0    ....    STR      r1,[r0,#0x1b0]
        0x00018d82:    210f        .!      MOVS     r1,#0xf
        0x00018d84:    6401        .d      STR      r1,[r0,#0x40]
        0x00018d86:    f04f31ff    O..1    MOV      r1,#0xffffffff
        0x00018d8a:    6001        .`      STR      r1,[r0,#0]
        0x00018d8c:    f2405111    @..Q    MOV      r1,#0x511
        0x00018d90:    f2c00115    ....    MOVT     r1,#0x15
        0x00018d94:    f8c01080    ....    STR      r1,[r0,#0x80]
        0x00018d98:    4770        pG      BX       lr
        0x00018d9a:    0000        ..      MOVS     r0,r0
    am_hal_itm_print
        0x00018d9c:    2100        .!      MOVS     r1,#0
        0x00018d9e:    bf00        ..      NOP      
        0x00018da0:    5c42        B\      LDRB     r2,[r0,r1]
        0x00018da2:    3101        .1      ADDS     r1,#1
        0x00018da4:    2a00        .*      CMP      r2,#0
        0x00018da6:    d1fb        ..      BNE      0x18da0 ; am_hal_itm_print + 4
        0x00018da8:    3901        .9      SUBS     r1,#1
        0x00018daa:    bf08        ..      IT       EQ
        0x00018dac:    4770        pG      BXEQ     lr
        0x00018dae:    f04f4260    O.`B    MOV      r2,#0xe0000000
        0x00018db2:    bf00        ..      NOP      
        0x00018db4:    f890c000    ....    LDRB     r12,[r0,#0]
        0x00018db8:    6813        .h      LDR      r3,[r2,#0]
        0x00018dba:    2b00        .+      CMP      r3,#0
        0x00018dbc:    d0fc        ..      BEQ      0x18db8 ; am_hal_itm_print + 28
        0x00018dbe:    3001        .0      ADDS     r0,#1
        0x00018dc0:    3901        .9      SUBS     r1,#1
        0x00018dc2:    f882c000    ....    STRB     r12,[r2,#0]
        0x00018dc6:    d1f5        ..      BNE      0x18db4 ; am_hal_itm_print + 24
        0x00018dc8:    4770        pG      BX       lr
        0x00018dca:    0000        ..      MOVS     r0,r0
    am_hal_mram_info_read
        0x00018dcc:    2801        .(      CMP      r0,#1
        0x00018dce:    d00e        ..      BEQ      0x18dee ; am_hal_mram_info_read + 34
        0x00018dd0:    bb50        P.      CBNZ     r0,0x18e28 ; am_hal_mram_info_read + 92
        0x00018dd2:    2000        .       MOVS     r0,#0
        0x00018dd4:    ebb02f51    ..Q/    CMP      r0,r1,LSR #9
        0x00018dd8:    f04f0002    O...    MOV      r0,#2
        0x00018ddc:    d123        #.      BNE      0x18e26 ; am_hal_mram_info_read + 90
        0x00018dde:    eb020c01    ....    ADD      r12,r2,r1
        0x00018de2:    f5bc7f00    ....    CMP      r12,#0x200
        0x00018de6:    d81e        ..      BHI      0x18e26 ; am_hal_mram_info_read + 90
        0x00018de8:    f04f4084    O..@    MOV      r0,#0x42000000
        0x00018dec:    e010        ..      B        0x18e10 ; am_hal_mram_info_read + 68
        0x00018dee:    f5a16090    ...`    SUB      r0,r1,#0x480
        0x00018df2:    09c0        ..      LSRS     r0,r0,#7
        0x00018df4:    2802        .(      CMP      r0,#2
        0x00018df6:    f04f0002    O...    MOV      r0,#2
        0x00018dfa:    d814        ..      BHI      0x18e26 ; am_hal_mram_info_read + 90
        0x00018dfc:    eb020c01    ....    ADD      r12,r2,r1
        0x00018e00:    f5bc6fc0    ...o    CMP      r12,#0x600
        0x00018e04:    bf88        ..      IT       HI
        0x00018e06:    4770        pG      BXHI     lr
        0x00018e08:    f2420000    B...    MOVW     r0,#0x2000
        0x00018e0c:    f2c42000    ...     MOVT     r0,#0x4200
        0x00018e10:    b142        B.      CBZ      r2,0x18e24 ; am_hal_mram_info_read + 88
        0x00018e12:    eb000081    ....    ADD      r0,r0,r1,LSL #2
        0x00018e16:    bf00        ..      NOP      
        0x00018e18:    f8501b04    P...    LDR      r1,[r0],#4
        0x00018e1c:    3a01        .:      SUBS     r2,#1
        0x00018e1e:    f8431b04    C...    STR      r1,[r3],#4
        0x00018e22:    d1f9        ..      BNE      0x18e18 ; am_hal_mram_info_read + 76
        0x00018e24:    2000        .       MOVS     r0,#0
        0x00018e26:    4770        pG      BX       lr
        0x00018e28:    2001        .       MOVS     r0,#1
        0x00018e2a:    4770        pG      BX       lr
    am_hal_otp_read_word
        0x00018e2c:    f64172fc    A..r    MOV      r2,#0x1ffc
        0x00018e30:    4290        .B      CMP      r0,r2
        0x00018e32:    f04f0205    O...    MOV      r2,#5
        0x00018e36:    d81c        ..      BHI      0x18e72 ; am_hal_otp_read_word + 70
        0x00018e38:    f0100303    ....    ANDS     r3,r0,#3
        0x00018e3c:    d119        ..      BNE      0x18e72 ; am_hal_otp_read_word + 70
        0x00018e3e:    b179        y.      CBZ      r1,0x18e60 ; am_hal_otp_read_word + 52
        0x00018e40:    f2410208    A...    MOV      r2,#0x1008
        0x00018e44:    f2c40202    ....    MOVT     r2,#0x4002
        0x00018e48:    6812        .h      LDR      r2,[r2,#0]
        0x00018e4a:    02d2        ..      LSLS     r2,r2,#11
        0x00018e4c:    d506        ..      BPL      0x18e5c ; am_hal_otp_read_word + 48
        0x00018e4e:    f640227c    @.|"    MOV      r2,#0xa7c
        0x00018e52:    f2c4020c    ....    MOVT     r2,#0x400c
        0x00018e56:    6812        .h      LDR      r2,[r2,#0]
        0x00018e58:    07d2        ..      LSLS     r2,r2,#31
        0x00018e5a:    d103        ..      BNE      0x18e64 ; am_hal_otp_read_word + 56
        0x00018e5c:    2207        ."      MOVS     r2,#7
        0x00018e5e:    e008        ..      B        0x18e72 ; am_hal_otp_read_word + 70
        0x00018e60:    2206        ."      MOVS     r2,#6
        0x00018e62:    e006        ..      B        0x18e72 ; am_hal_otp_read_word + 70
        0x00018e64:    f2420200    B...    MOVW     r2,#0x2000
        0x00018e68:    f2c4020c    ....    MOVT     r2,#0x400c
        0x00018e6c:    5880        .X      LDR      r0,[r0,r2]
        0x00018e6e:    2200        ."      MOVS     r2,#0
        0x00018e70:    6008        .`      STR      r0,[r1,#0]
        0x00018e72:    4610        .F      MOV      r0,r2
        0x00018e74:    4770        pG      BX       lr
        0x00018e76:    0000        ..      MOVS     r0,r0
    am_hal_pwrctrl_control
        0x00018e78:    b5b0        ..      PUSH     {r4,r5,r7,lr}
        0x00018e7a:    b082        ..      SUB      sp,sp,#8
        0x00018e7c:    2100        .!      MOVS     r1,#0
        0x00018e7e:    2803        .(      CMP      r0,#3
        0x00018e80:    9101        ..      STR      r1,[sp,#4]
        0x00018e82:    f2008095    ....    BHI.W    0x18fb0 ; am_hal_pwrctrl_control + 312
        0x00018e86:    e8dff000    ....    TBB      [pc,r0]
    $d.20
        0x00018e8a:    9502        ..      DCW    38146
        0x00018e8c:    b1a3        ..      DCW    45475
    $t.21
        0x00018e8e:    2400        .$      MOVS     r4,#0
        0x00018e90:    a801        ..      ADD      r0,sp,#4
        0x00018e92:    f2c40402    ....    MOVT     r4,#0x4002
        0x00018e96:    f7fffbfb    ....    BL       TrimVersionGet ; 0x18690
        0x00018e9a:    9801        ..      LDR      r0,[sp,#4]
        0x00018e9c:    2801        .(      CMP      r0,#1
        0x00018e9e:    d831        1.      BHI      0x18f04 ; am_hal_pwrctrl_control + 140
        0x00018ea0:    f8d41378    ..x.    LDR      r1,[r4,#0x378]
        0x00018ea4:    220a        ."      MOVS     r2,#0xa
        0x00018ea6:    f02151f8    !..Q    BIC      r1,r1,#0x1f000000
        0x00018eaa:    f8c41378    ..x.    STR      r1,[r4,#0x378]
        0x00018eae:    f8d41358    ..X.    LDR      r1,[r4,#0x358]
        0x00018eb2:    f42101f8    !...    BIC      r1,r1,#0x7c0000
        0x00018eb6:    f8c41358    ..X.    STR      r1,[r4,#0x358]
        0x00018eba:    f8d41344    ..D.    LDR      r1,[r4,#0x344]
        0x00018ebe:    f362611c    b..a    BFI      r1,r2,#24,#5
        0x00018ec2:    f8c41344    ..D.    STR      r1,[r4,#0x344]
        0x00018ec6:    f8d41344    ..D.    LDR      r1,[r4,#0x344]
        0x00018eca:    f36221ce    b..!    BFI      r1,r2,#11,#4
        0x00018ece:    f8c41344    ..D.    STR      r1,[r4,#0x344]
        0x00018ed2:    f8d41358    ..X.    LDR      r1,[r4,#0x358]
        0x00018ed6:    220f        ."      MOVS     r2,#0xf
        0x00018ed8:    f362210c    b..!    BFI      r1,r2,#8,#5
        0x00018edc:    f8c41358    ..X.    STR      r1,[r4,#0x358]
        0x00018ee0:    f8d41354    ..T.    LDR      r1,[r4,#0x354]
        0x00018ee4:    f44111f0    A...    ORR      r1,r1,#0x1e0000
        0x00018ee8:    f8c41354    ..T.    STR      r1,[r4,#0x354]
        0x00018eec:    f8d41360    ..`.    LDR      r1,[r4,#0x360]
        0x00018ef0:    f362519a    b..Q    BFI      r1,r2,#22,#5
        0x00018ef4:    f8c41360    ..`.    STR      r1,[r4,#0x360]
        0x00018ef8:    f8d41360    ..`.    LDR      r1,[r4,#0x360]
        0x00018efc:    f44111f0    A...    ORR      r1,r1,#0x1e0000
        0x00018f00:    f8c41360    ..`.    STR      r1,[r4,#0x360]
        0x00018f04:    f8d41348    ..H.    LDR      r1,[r4,#0x348]
        0x00018f08:    220a        ."      MOVS     r2,#0xa
        0x00018f0a:    f362619d    b..a    BFI      r1,r2,#26,#4
        0x00018f0e:    f8c41348    ..H.    STR      r1,[r4,#0x348]
        0x00018f12:    f8d41348    ..H.    LDR      r1,[r4,#0x348]
        0x00018f16:    2801        .(      CMP      r0,#1
        0x00018f18:    f3623150    b.P1    BFI      r1,r2,#13,#4
        0x00018f1c:    f8c41348    ..H.    STR      r1,[r4,#0x348]
        0x00018f20:    f8d4135c    ..\.    LDR      r1,[r4,#0x35c]
        0x00018f24:    f240024c    @.L.    MOVW     r2,#0x4c
        0x00018f28:    f0417170    A.pq    ORR      r1,r1,#0x3c00000
        0x00018f2c:    f8c4135c    ..\.    STR      r1,[r4,#0x35c]
        0x00018f30:    f8d4135c    ..\.    LDR      r1,[r4,#0x35c]
        0x00018f34:    f2c10200    ....    MOVT     r2,#0x1000
        0x00018f38:    f44151f0    A..Q    ORR      r1,r1,#0x1e00
        0x00018f3c:    f8c4135c    ..\.    STR      r1,[r4,#0x35c]
        0x00018f40:    f8d41380    ....    LDR      r1,[r4,#0x380]
        0x00018f44:    f0414100    A..A    ORR      r1,r1,#0x80000000
        0x00018f48:    f8c41380    ....    STR      r1,[r4,#0x380]
        0x00018f4c:    f8d41380    ....    LDR      r1,[r4,#0x380]
        0x00018f50:    f0414180    A..A    ORR      r1,r1,#0x40000000
        0x00018f54:    f8c41380    ....    STR      r1,[r4,#0x380]
        0x00018f58:    f8d41370    ..p.    LDR      r1,[r4,#0x370]
        0x00018f5c:    f3c15105    ...Q    UBFX     r1,r1,#20,#6
        0x00018f60:    6011        .`      STR      r1,[r2,#0]
        0x00018f62:    f8d41370    ..p.    LDR      r1,[r4,#0x370]
        0x00018f66:    f021717c    !.|q    BIC      r1,r1,#0x3f00000
        0x00018f6a:    f8c41370    ..p.    STR      r1,[r4,#0x370]
        0x00018f6e:    f04f0107    O...    MOV      r1,#7
        0x00018f72:    f8c4133c    ..<.    STR      r1,[r4,#0x33c]
        0x00018f76:    d80c        ..      BHI      0x18f92 ; am_hal_pwrctrl_control + 282
        0x00018f78:    f8d40340    ..@.    LDR      r0,[r4,#0x340]
        0x00018f7c:    2101        .!      MOVS     r1,#1
        0x00018f7e:    f0207070     .pp    BIC      r0,r0,#0x3c00000
        0x00018f82:    f8c40340    ..@.    STR      r0,[r4,#0x340]
        0x00018f86:    f8d40340    ..@.    LDR      r0,[r4,#0x340]
        0x00018f8a:    f361108a    a...    BFI      r0,r1,#6,#5
        0x00018f8e:    f8c40340    ..@.    STR      r0,[r4,#0x340]
        0x00018f92:    6820         h      LDR      r0,[r4,#0]
        0x00018f94:    f2410504    A...    MOV      r5,#0x1004
        0x00018f98:    f4104f7f    ...O    TST      r0,#0xff00
        0x00018f9c:    f2c40502    ....    MOVT     r5,#0x4002
        0x00018fa0:    d02b        +.      BEQ      0x18ffa ; am_hal_pwrctrl_control + 386
        0x00018fa2:    f8d500fc    ....    LDR      r0,[r5,#0xfc]
        0x00018fa6:    f0400001    @...    ORR      r0,r0,#1
        0x00018faa:    f8c500fc    ....    STR      r0,[r5,#0xfc]
        0x00018fae:    e034        4.      B        0x1901a ; am_hal_pwrctrl_control + 418
        0x00018fb0:    2006        .       MOVS     r0,#6
        0x00018fb2:    e03f        ?.      B        0x19034 ; am_hal_pwrctrl_control + 444
        0x00018fb4:    f2410004    A...    MOV      r0,#0x1004
        0x00018fb8:    f2c40002    ....    MOVT     r0,#0x4002
        0x00018fbc:    6840        @h      LDR      r0,[r0,#4]
        0x00018fbe:    02c0        ..      LSLS     r0,r0,#11
        0x00018fc0:    d537        7.      BPL      0x19032 ; am_hal_pwrctrl_control + 442
        0x00018fc2:    2012        .       MOVS     r0,#0x12
        0x00018fc4:    f000f9aa    ....    BL       am_hal_pwrctrl_periph_disable ; 0x1931c
        0x00018fc8:    2800        .(      CMP      r0,#0
        0x00018fca:    bf08        ..      IT       EQ
        0x00018fcc:    2000        .       MOVEQ    r0,#0
        0x00018fce:    e031        1.      B        0x19034 ; am_hal_pwrctrl_control + 444
        0x00018fd0:    2000        .       MOVS     r0,#0
        0x00018fd2:    f2c40002    ....    MOVT     r0,#0x4002
        0x00018fd6:    f8d01124    ..$.    LDR      r1,[r0,#0x124]
        0x00018fda:    2220         "      MOVS     r2,#0x20
        0x00018fdc:    f3620187    b...    BFI      r1,r2,#2,#6
        0x00018fe0:    f8c01124    ..$.    STR      r1,[r0,#0x124]
        0x00018fe4:    2101        .!      MOVS     r1,#1
        0x00018fe6:    f8c01120    .. .    STR      r1,[r0,#0x120]
        0x00018fea:    e022        ".      B        0x19032 ; am_hal_pwrctrl_control + 442
        0x00018fec:    f2410104    A...    MOV      r1,#0x1004
        0x00018ff0:    f2c40102    ....    MOVT     r1,#0x4002
        0x00018ff4:    2000        .       MOVS     r0,#0
        0x00018ff6:    6008        .`      STR      r0,[r1,#0]
        0x00018ff8:    e01c        ..      B        0x19034 ; am_hal_pwrctrl_control + 444
        0x00018ffa:    f001fb23    ..#.    BL       buck_ldo_override_init ; 0x1a644
        0x00018ffe:    f8d500fc    ....    LDR      r0,[r5,#0xfc]
        0x00019002:    f5057182    ...q    ADD      r1,r5,#0x104
        0x00019006:    f0400001    @...    ORR      r0,r0,#1
        0x0001900a:    f8c500fc    ....    STR      r0,[r5,#0xfc]
        0x0001900e:    2005        .       MOVS     r0,#5
        0x00019010:    2230        0"      MOVS     r2,#0x30
        0x00019012:    2330        0#      MOVS     r3,#0x30
        0x00019014:    f7fffdd8    ....    BL       am_hal_delay_us_status_change ; 0x18bc8
        0x00019018:    b960        `.      CBNZ     r0,0x19034 ; am_hal_pwrctrl_control + 444
        0x0001901a:    f8d40378    ..x.    LDR      r0,[r4,#0x378]
        0x0001901e:    f0404000    @..@    ORR      r0,r0,#0x80000000
        0x00019022:    f8c40378    ..x.    STR      r0,[r4,#0x378]
        0x00019026:    6820         h      LDR      r0,[r4,#0]
        0x00019028:    f4104f7f    ...O    TST      r0,#0xff00
        0x0001902c:    d001        ..      BEQ      0x19032 ; am_hal_pwrctrl_control + 442
        0x0001902e:    f001fb09    ....    BL       buck_ldo_override_init ; 0x1a644
        0x00019032:    2000        .       MOVS     r0,#0
        0x00019034:    b002        ..      ADD      sp,sp,#8
        0x00019036:    bdb0        ..      POP      {r4,r5,r7,pc}
    am_hal_pwrctrl_low_power_init
        0x00019038:    b5b0        ..      PUSH     {r4,r5,r7,lr}
        0x0001903a:    b082        ..      SUB      sp,sp,#8
        0x0001903c:    f2410008    A...    MOV      r0,#0x1008
        0x00019040:    f2c40002    ....    MOVT     r0,#0x4002
        0x00019044:    6800        .h      LDR      r0,[r0,#0]
        0x00019046:    f64021e0    @..!    MOVW     r1,#0xae0
        0x0001904a:    f3c05000    ...P    UBFX     r0,r0,#20,#1
        0x0001904e:    f2c10100    ....    MOVT     r1,#0x1000
        0x00019052:    7008        .p      STRB     r0,[r1,#0]
        0x00019054:    f24e2028    N.(     MOV      r0,#0xe228
        0x00019058:    f240346c    @.l4    MOVW     r4,#0x36c
        0x0001905c:    f2c00001    ....    MOVT     r0,#1
        0x00019060:    f2c40402    ....    MOVT     r4,#0x4002
        0x00019064:    f000f898    ....    BL       am_hal_pwrctrl_mcu_memory_config ; 0x19198
        0x00019068:    f24e202e    N..     MOV      r0,#0xe22e
        0x0001906c:    f2c00001    ....    MOVT     r0,#1
        0x00019070:    f000fa3e    ..>.    BL       am_hal_pwrctrl_sram_config ; 0x194f0
        0x00019074:    f2440544    D.D.    MOV      r5,#0x4044
        0x00019078:    f2c40500    ....    MOVT     r5,#0x4000
        0x0001907c:    6828        (h      LDR      r0,[r5,#0]
        0x0001907e:    f440007c    @.|.    ORR      r0,r0,#0xfc0000
        0x00019082:    6028        (`      STR      r0,[r5,#0]
        0x00019084:    f24e0080    N...    MOV      r0,#0xe080
        0x00019088:    f2c00001    ....    MOVT     r0,#1
        0x0001908c:    f7fffc3d    ..=.    BL       am_hal_daxi_config ; 0x1890a
        0x00019090:    2064        d       MOVS     r0,#0x64
        0x00019092:    f7fffd7d    ..}.    BL       am_hal_delay_us ; 0x18b90
        0x00019096:    6828        (h      LDR      r0,[r5,#0]
        0x00019098:    2104        .!      MOVS     r1,#4
        0x0001909a:    f0400040    @.@.    ORR      r0,r0,#0x40
        0x0001909e:    6028        (`      STR      r0,[r5,#0]
        0x000190a0:    6920         i      LDR      r0,[r4,#0x10]
        0x000190a2:    f04060b0    @..`    ORR      r0,r0,#0x5800000
        0x000190a6:    f44000fd    @...    ORR      r0,r0,#0x7e8000
        0x000190aa:    6120         a      STR      r0,[r4,#0x10]
        0x000190ac:    f8d400d8    ....    LDR      r0,[r4,#0xd8]
        0x000190b0:    f361200f    a..     BFI      r0,r1,#8,#8
        0x000190b4:    f64021e1    @..!    MOV      r1,#0xae1
        0x000190b8:    f8c400d8    ....    STR      r0,[r4,#0xd8]
        0x000190bc:    f2c10100    ....    MOVT     r1,#0x1000
        0x000190c0:    7808        .x      LDRB     r0,[r1,#0]
        0x000190c2:    2801        .(      CMP      r0,#1
        0x000190c4:    d10a        ..      BNE      0x190dc ; am_hal_pwrctrl_low_power_init + 164
        0x000190c6:    f64020ec    @..     MOV      r0,#0xaec
        0x000190ca:    f64021f4    @..!    MOV      r1,#0xaf4
        0x000190ce:    f2c10000    ....    MOVT     r0,#0x1000
        0x000190d2:    f2c10100    ....    MOVT     r1,#0x1000
        0x000190d6:    6800        .h      LDR      r0,[r0,#0]
        0x000190d8:    680a        .h      LDR      r2,[r1,#0]
        0x000190da:    e032        2.      B        0x19142 ; am_hal_pwrctrl_low_power_init + 266
        0x000190dc:    6820         h      LDR      r0,[r4,#0]
        0x000190de:    f64022ec    @.."    MOV      r2,#0xaec
        0x000190e2:    f3c05005    ...P    UBFX     r0,r0,#20,#6
        0x000190e6:    f2c10200    ....    MOVT     r2,#0x1000
        0x000190ea:    f64f5c1c    O..\    MOV      r12,#0xfd1c
        0x000190ee:    6010        .`      STR      r0,[r2,#0]
        0x000190f0:    f6cf7cff    ...|    MOVT     r12,#0xffff
        0x000190f4:    f854200c    T..     LDR      r2,[r4,r12]
        0x000190f8:    f64025f4    @..%    MOV      r5,#0xaf4
        0x000190fc:    f002023f    ..?.    AND      r2,r2,#0x3f
        0x00019100:    f2c10500    ....    MOVT     r5,#0x1000
        0x00019104:    602a        *`      STR      r2,[r5,#0]
        0x00019106:    6825        %h      LDR      r5,[r4,#0]
        0x00019108:    f64023f0    @..#    MOVW     r3,#0xaf0
        0x0001910c:    0ead        ..      LSRS     r5,r5,#26
        0x0001910e:    f2c10300    ....    MOVT     r3,#0x1000
        0x00019112:    601d        .`      STR      r5,[r3,#0]
        0x00019114:    f854300c    T..0    LDR      r3,[r4,r12]
        0x00019118:    f64025f8    @..%    MOV      r5,#0xaf8
        0x0001911c:    f3c34385    ...C    UBFX     r3,r3,#18,#6
        0x00019120:    f2c10500    ....    MOVT     r5,#0x1000
        0x00019124:    602b        +`      STR      r3,[r5,#0]
        0x00019126:    f64f43d8    O..C    MOV      r3,#0xfcd8
        0x0001912a:    f6cf73ff    ...s    MOVT     r3,#0xffff
        0x0001912e:    58e3        .X      LDR      r3,[r4,r3]
        0x00019130:    f64025fc    @..%    MOV      r5,#0xafc
        0x00019134:    f3c313c6    ....    UBFX     r3,r3,#7,#7
        0x00019138:    f2c10500    ....    MOVT     r5,#0x1000
        0x0001913c:    602b        +`      STR      r3,[r5,#0]
        0x0001913e:    2301        .#      MOVS     r3,#1
        0x00019140:    700b        .p      STRB     r3,[r1,#0]
        0x00019142:    f64021e8    @..!    MOV      r1,#0xae8
        0x00019146:    f2c10100    ....    MOVT     r1,#0x1000
        0x0001914a:    6008        .`      STR      r0,[r1,#0]
        0x0001914c:    f64020e4    @..     MOV      r0,#0xae4
        0x00019150:    f2c10000    ....    MOVT     r0,#0x1000
        0x00019154:    f6407408    @..t    MOV      r4,#0xf08
        0x00019158:    6002        .`      STR      r2,[r0,#0]
        0x0001915a:    f2c10402    ....    MOVT     r4,#0x1002
        0x0001915e:    2000        .       MOVS     r0,#0
        0x00019160:    6020         `      STR      r0,[r4,#0]
        0x00019162:    ab01        ..      ADD      r3,sp,#4
        0x00019164:    2001        .       MOVS     r0,#1
        0x00019166:    f44f6192    O..a    MOV      r1,#0x490
        0x0001916a:    2201        ."      MOVS     r2,#1
        0x0001916c:    f7fffe2e    ....    BL       am_hal_mram_info_read ; 0x18dcc
        0x00019170:    b978        x.      CBNZ     r0,0x19192 ; am_hal_pwrctrl_low_power_init + 346
        0x00019172:    9801        ..      LDR      r0,[sp,#4]
        0x00019174:    f0100f06    ....    TST      r0,#6
        0x00019178:    d003        ..      BEQ      0x19182 ; am_hal_pwrctrl_low_power_init + 330
        0x0001917a:    0781        ..      LSLS     r1,r0,#30
        0x0001917c:    d403        ..      BMI      0x19186 ; am_hal_pwrctrl_low_power_init + 334
        0x0001917e:    2006        .       MOVS     r0,#6
        0x00019180:    e006        ..      B        0x19190 ; am_hal_pwrctrl_low_power_init + 344
        0x00019182:    2003        .       MOVS     r0,#3
        0x00019184:    e004        ..      B        0x19190 ; am_hal_pwrctrl_low_power_init + 344
        0x00019186:    0740        @.      LSLS     r0,r0,#29
        0x00019188:    f04f0000    O...    MOV      r0,#0
        0x0001918c:    bf58        X.      IT       PL
        0x0001918e:    2009        .       MOVPL    r0,#9
        0x00019190:    6020         `      STR      r0,[r4,#0]
        0x00019192:    2000        .       MOVS     r0,#0
        0x00019194:    b002        ..      ADD      sp,sp,#8
        0x00019196:    bdb0        ..      POP      {r4,r5,r7,pc}
    am_hal_pwrctrl_mcu_memory_config
        0x00019198:    b570        p.      PUSH     {r4-r6,lr}
        0x0001919a:    b082        ..      SUB      sp,sp,#8
        0x0001919c:    4606        .F      MOV      r6,r0
        0x0001919e:    7800        .x      LDRB     r0,[r0,#0]
        0x000191a0:    f2410514    A...    MOV      r5,#0x1014
        0x000191a4:    2802        .(      CMP      r0,#2
        0x000191a6:    f2c40502    ....    MOVT     r5,#0x4002
        0x000191aa:    d006        ..      BEQ      0x191ba ; am_hal_pwrctrl_mcu_memory_config + 34
        0x000191ac:    2801        .(      CMP      r0,#1
        0x000191ae:    d00c        ..      BEQ      0x191ca ; am_hal_pwrctrl_mcu_memory_config + 50
        0x000191b0:    b998        ..      CBNZ     r0,0x191da ; am_hal_pwrctrl_mcu_memory_config + 66
        0x000191b2:    6828        (h      LDR      r0,[r5,#0]
        0x000191b4:    f0200010     ...    BIC      r0,r0,#0x10
        0x000191b8:    e00a        ..      B        0x191d0 ; am_hal_pwrctrl_mcu_memory_config + 56
        0x000191ba:    6828        (h      LDR      r0,[r5,#0]
        0x000191bc:    f0400010    @...    ORR      r0,r0,#0x10
        0x000191c0:    6028        (`      STR      r0,[r5,#0]
        0x000191c2:    6828        (h      LDR      r0,[r5,#0]
        0x000191c4:    f0400020    @. .    ORR      r0,r0,#0x20
        0x000191c8:    e006        ..      B        0x191d8 ; am_hal_pwrctrl_mcu_memory_config + 64
        0x000191ca:    6828        (h      LDR      r0,[r5,#0]
        0x000191cc:    f0400010    @...    ORR      r0,r0,#0x10
        0x000191d0:    6028        (`      STR      r0,[r5,#0]
        0x000191d2:    6828        (h      LDR      r0,[r5,#0]
        0x000191d4:    f0200020     . .    BIC      r0,r0,#0x20
        0x000191d8:    6028        (`      STR      r0,[r5,#0]
        0x000191da:    78b0        .x      LDRB     r0,[r6,#2]
        0x000191dc:    6829        )h      LDR      r1,[r5,#0]
        0x000191de:    2401        .$      MOVS     r4,#1
        0x000191e0:    f3600102    `...    BFI      r1,r0,#0,#3
        0x000191e4:    6029        )`      STR      r1,[r5,#0]
        0x000191e6:    7930        0y      LDRB     r0,[r6,#4]
        0x000191e8:    6829        )h      LDR      r1,[r5,#0]
        0x000191ea:    f000001f    ....    AND      r0,r0,#0x1f
        0x000191ee:    f0210108    !...    BIC      r1,r1,#8
        0x000191f2:    ea4100c0    A...    ORR      r0,r1,r0,LSL #3
        0x000191f6:    6028        (`      STR      r0,[r5,#0]
        0x000191f8:    4629        )F      MOV      r1,r5
        0x000191fa:    f8513b04    Q..;    LDR      r3,[r1],#4
        0x000191fe:    2005        .       MOVS     r0,#5
        0x00019200:    223f        ?"      MOVS     r2,#0x3f
        0x00019202:    9400        ..      STR      r4,[sp,#0]
        0x00019204:    f7fffd0a    ....    BL       am_hal_delay_us_status_check ; 0x18c1c
        0x00019208:    2800        .(      CMP      r0,#0
        0x0001920a:    d132        2.      BNE      0x19272 ; am_hal_pwrctrl_mcu_memory_config + 218
        0x0001920c:    6868        hh      LDR      r0,[r5,#4]
        0x0001920e:    6829        )h      LDR      r1,[r5,#0]
        0x00019210:    4048        H@      EORS     r0,r0,r1
        0x00019212:    06c0        ..      LSLS     r0,r0,#27
        0x00019214:    d42c        ,.      BMI      0x19270 ; am_hal_pwrctrl_mcu_memory_config + 216
        0x00019216:    6868        hh      LDR      r0,[r5,#4]
        0x00019218:    6829        )h      LDR      r1,[r5,#0]
        0x0001921a:    4048        H@      EORS     r0,r0,r1
        0x0001921c:    0680        ..      LSLS     r0,r0,#26
        0x0001921e:    d427        '.      BMI      0x19270 ; am_hal_pwrctrl_mcu_memory_config + 216
        0x00019220:    6868        hh      LDR      r0,[r5,#4]
        0x00019222:    6829        )h      LDR      r1,[r5,#0]
        0x00019224:    4048        H@      EORS     r0,r0,r1
        0x00019226:    0740        @.      LSLS     r0,r0,#29
        0x00019228:    d122        ".      BNE      0x19270 ; am_hal_pwrctrl_mcu_memory_config + 216
        0x0001922a:    6868        hh      LDR      r0,[r5,#4]
        0x0001922c:    6829        )h      LDR      r1,[r5,#0]
        0x0001922e:    4048        H@      EORS     r0,r0,r1
        0x00019230:    0700        ..      LSLS     r0,r0,#28
        0x00019232:    d41d        ..      BMI      0x19270 ; am_hal_pwrctrl_mcu_memory_config + 216
        0x00019234:    7870        px      LDRB     r0,[r6,#1]
        0x00019236:    68a9        .h      LDR      r1,[r5,#8]
        0x00019238:    2800        .(      CMP      r0,#0
        0x0001923a:    f0210110    !...    BIC      r1,r1,#0x10
        0x0001923e:    bf08        ..      IT       EQ
        0x00019240:    3110        .1      ADDEQ    r1,r1,#0x10
        0x00019242:    60a9        .`      STR      r1,[r5,#8]
        0x00019244:    7970        py      LDRB     r0,[r6,#5]
        0x00019246:    68a9        .h      LDR      r1,[r5,#8]
        0x00019248:    2800        .(      CMP      r0,#0
        0x0001924a:    f0210108    !...    BIC      r1,r1,#8
        0x0001924e:    bf08        ..      IT       EQ
        0x00019250:    3108        .1      ADDEQ    r1,r1,#8
        0x00019252:    60a9        .`      STR      r1,[r5,#8]
        0x00019254:    78f1        .x      LDRB     r1,[r6,#3]
        0x00019256:    2000        .       MOVS     r0,#0
        0x00019258:    2907        .)      CMP      r1,#7
        0x0001925a:    d80a        ..      BHI      0x19272 ; am_hal_pwrctrl_mcu_memory_config + 218
        0x0001925c:    e8dff001    ....    TBB      [pc,r1]
    $d.3
        0x00019260:    0e090b04    ....    DCD    235473668
        0x00019264:    13090909    ....    DCD    319359241
    $t.4
        0x00019268:    68a8        .h      LDR      r0,[r5,#8]
        0x0001926a:    f0400007    @...    ORR      r0,r0,#7
        0x0001926e:    e00d        ..      B        0x1928c ; am_hal_pwrctrl_mcu_memory_config + 244
        0x00019270:    2001        .       MOVS     r0,#1
        0x00019272:    b002        ..      ADD      sp,sp,#8
        0x00019274:    bd70        p.      POP      {r4-r6,pc}
        0x00019276:    68a8        .h      LDR      r0,[r5,#8]
        0x00019278:    2106        .!      MOVS     r1,#6
        0x0001927a:    e001        ..      B        0x19280 ; am_hal_pwrctrl_mcu_memory_config + 232
        0x0001927c:    68a8        .h      LDR      r0,[r5,#8]
        0x0001927e:    2104        .!      MOVS     r1,#4
        0x00019280:    f3610002    a...    BFI      r0,r1,#0,#3
        0x00019284:    e002        ..      B        0x1928c ; am_hal_pwrctrl_mcu_memory_config + 244
        0x00019286:    68a8        .h      LDR      r0,[r5,#8]
        0x00019288:    f0200007     ...    BIC      r0,r0,#7
        0x0001928c:    60a8        .`      STR      r0,[r5,#8]
        0x0001928e:    2000        .       MOVS     r0,#0
        0x00019290:    e7ef        ..      B        0x19272 ; am_hal_pwrctrl_mcu_memory_config + 218
        0x00019292:    0000        ..      MOVS     r0,r0
    am_hal_pwrctrl_mcu_mode_select
        0x00019294:    b570        p.      PUSH     {r4-r6,lr}
        0x00019296:    4604        .F      MOV      r4,r0
        0x00019298:    2801        .(      CMP      r0,#1
        0x0001929a:    d00d        ..      BEQ      0x192b8 ; am_hal_pwrctrl_mcu_mode_select + 36
        0x0001929c:    2c02        .,      CMP      r4,#2
        0x0001929e:    d129        ).      BNE      0x192f4 ; am_hal_pwrctrl_mcu_mode_select + 96
        0x000192a0:    f2410000    A...    MOVW     r0,#0x1000
        0x000192a4:    f2c40002    ....    MOVT     r0,#0x4002
        0x000192a8:    f8d00108    ....    LDR      r0,[r0,#0x108]
        0x000192ac:    f0000030    ..0.    AND      r0,r0,#0x30
        0x000192b0:    2830        0(      CMP      r0,#0x30
        0x000192b2:    bf1c        ..      ITT      NE
        0x000192b4:    2007        .       MOVNE    r0,#7
        0x000192b6:    bd70        p.      POPNE    {r4-r6,pc}
        0x000192b8:    f2400044    @.D.    MOVW     r0,#0x44
        0x000192bc:    f2c10000    ....    MOVT     r0,#0x1000
        0x000192c0:    7801        .x      LDRB     r1,[r0,#0]
        0x000192c2:    42a1        .B      CMP      r1,r4
        0x000192c4:    bf04        ..      ITT      EQ
        0x000192c6:    2000        .       MOVEQ    r0,#0
        0x000192c8:    bd70        p.      POPEQ    {r4-r6,pc}
        0x000192ca:    f2410500    A...    MOVW     r5,#0x1000
        0x000192ce:    f2c40502    ....    MOVT     r5,#0x4002
        0x000192d2:    7004        .p      STRB     r4,[r0,#0]
        0x000192d4:    6828        (h      LDR      r0,[r5,#0]
        0x000192d6:    2605        .&      MOVS     r6,#5
        0x000192d8:    f0200003     ...    BIC      r0,r0,#3
        0x000192dc:    4320         C      ORRS     r0,r0,r4
        0x000192de:    6028        (`      STR      r0,[r5,#0]
        0x000192e0:    6828        (h      LDR      r0,[r5,#0]
        0x000192e2:    0740        @.      LSLS     r0,r0,#29
        0x000192e4:    d408        ..      BMI      0x192f8 ; am_hal_pwrctrl_mcu_mode_select + 100
        0x000192e6:    2001        .       MOVS     r0,#1
        0x000192e8:    f7fffc52    ..R.    BL       am_hal_delay_us ; 0x18b90
        0x000192ec:    3e01        .>      SUBS     r6,#1
        0x000192ee:    d1f7        ..      BNE      0x192e0 ; am_hal_pwrctrl_mcu_mode_select + 76
        0x000192f0:    2004        .       MOVS     r0,#4
        0x000192f2:    bd70        p.      POP      {r4-r6,pc}
        0x000192f4:    2006        .       MOVS     r0,#6
        0x000192f6:    bd70        p.      POP      {r4-r6,pc}
        0x000192f8:    6828        (h      LDR      r0,[r5,#0]
        0x000192fa:    f3c000c1    ....    UBFX     r0,r0,#3,#2
        0x000192fe:    1b00        ..      SUBS     r0,r0,r4
        0x00019300:    bf18        ..      IT       NE
        0x00019302:    2001        .       MOVNE    r0,#1
        0x00019304:    bd70        p.      POP      {r4-r6,pc}
    am_hal_pwrctrl_mcu_mode_status
        0x00019306:    b138        8.      CBZ      r0,0x19318 ; am_hal_pwrctrl_mcu_mode_status + 18
        0x00019308:    f2400144    @.D.    MOVW     r1,#0x44
        0x0001930c:    f2c10100    ....    MOVT     r1,#0x1000
        0x00019310:    7809        .x      LDRB     r1,[r1,#0]
        0x00019312:    7001        .p      STRB     r1,[r0,#0]
        0x00019314:    2000        .       MOVS     r0,#0
        0x00019316:    4770        pG      BX       lr
        0x00019318:    2006        .       MOVS     r0,#6
        0x0001931a:    4770        pG      BX       lr
    am_hal_pwrctrl_periph_disable
        0x0001931c:    e92d43f0    -..C    PUSH     {r4-r9,lr}
        0x00019320:    b083        ..      SUB      sp,sp,#0xc
        0x00019322:    2818        .(      CMP      r0,#0x18
        0x00019324:    d901        ..      BLS      0x1932a ; am_hal_pwrctrl_periph_disable + 14
        0x00019326:    2406        .$      MOVS     r4,#6
        0x00019328:    e084        ..      B        0x19434 ; am_hal_pwrctrl_periph_disable + 280
        0x0001932a:    f24e0188    N...    MOV      r1,#0xe088
        0x0001932e:    f2c00101    ....    MOVT     r1,#1
        0x00019332:    0102        ..      LSLS     r2,r0,#4
        0x00019334:    f8518002    Q...    LDR      r8,[r1,r2]
        0x00019338:    eb011500    ....    ADD      r5,r1,r0,LSL #4
        0x0001933c:    686f        oh      LDR      r7,[r5,#4]
        0x0001933e:    f8d81000    ....    LDR      r1,[r8,#0]
        0x00019342:    4239        9B      TST      r1,r7
        0x00019344:    d075        u.      BEQ      0x19432 ; am_hal_pwrctrl_periph_disable + 278
        0x00019346:    2812        .(      CMP      r0,#0x12
        0x00019348:    d12c        ,.      BNE      0x193a4 ; am_hal_pwrctrl_periph_disable + 136
        0x0001934a:    f64076e0    @..v    MOVW     r6,#0xfe0
        0x0001934e:    f2c4060c    ....    MOVT     r6,#0x400c
        0x00019352:    6830        0h      LDR      r0,[r6,#0]
        0x00019354:    28c0        .(      CMP      r0,#0xc0
        0x00019356:    d125        %.      BNE      0x193a4 ; am_hal_pwrctrl_periph_disable + 136
        0x00019358:    f640297c    @.|)    MOV      r9,#0xa7c
        0x0001935c:    f2c4090c    ....    MOVT     r9,#0x400c
        0x00019360:    2064        d       MOVS     r0,#0x64
        0x00019362:    4649        IF      MOV      r1,r9
        0x00019364:    2201        ."      MOVS     r2,#1
        0x00019366:    2301        .#      MOVS     r3,#1
        0x00019368:    f7fffc2e    ....    BL       am_hal_delay_us_status_change ; 0x18bc8
        0x0001936c:    4604        .F      MOV      r4,r0
        0x0001936e:    2800        .(      CMP      r0,#0
        0x00019370:    d160        `.      BNE      0x19434 ; am_hal_pwrctrl_periph_disable + 280
        0x00019372:    f5066173    ..sa    ADD      r1,r6,#0xf30
        0x00019376:    2064        d       MOVS     r0,#0x64
        0x00019378:    2201        ."      MOVS     r2,#1
        0x0001937a:    2301        .#      MOVS     r3,#1
        0x0001937c:    f7fffc24    ..$.    BL       am_hal_delay_us_status_change ; 0x18bc8
        0x00019380:    4604        .F      MOV      r4,r0
        0x00019382:    2800        .(      CMP      r0,#0
        0x00019384:    d156        V.      BNE      0x19434 ; am_hal_pwrctrl_periph_disable + 280
        0x00019386:    f8d90004    ....    LDR      r0,[r9,#4]
        0x0001938a:    f0400001    @...    ORR      r0,r0,#1
        0x0001938e:    f8c90004    ....    STR      r0,[r9,#4]
        0x00019392:    f6407008    @..p    MOV      r0,#0xf08
        0x00019396:    f2c10002    ....    MOVT     r0,#0x1002
        0x0001939a:    6801        .h      LDR      r1,[r0,#0]
        0x0001939c:    b111        ..      CBZ      r1,0x193a4 ; am_hal_pwrctrl_periph_disable + 136
        0x0001939e:    2000        .       MOVS     r0,#0
        0x000193a0:    f001f9a8    ....    BL       crypto_boost_trims ; 0x1a6f4
        0x000193a4:    e9d56502    ...e    LDRD     r6,r5,[r5,#8]
        0x000193a8:    f7fffcce    ....    BL       am_hal_interrupt_master_disable ; 0x18d48
        0x000193ac:    9002        ..      STR      r0,[sp,#8]
        0x000193ae:    f8d80000    ....    LDR      r0,[r8,#0]
        0x000193b2:    43b8        .C      BICS     r0,r0,r7
        0x000193b4:    f8c80000    ....    STR      r0,[r8,#0]
        0x000193b8:    9802        ..      LDR      r0,[sp,#8]
        0x000193ba:    f7fffcc9    ....    BL       am_hal_interrupt_master_set ; 0x18d50
        0x000193be:    2400        .$      MOVS     r4,#0
        0x000193c0:    2005        .       MOVS     r0,#5
        0x000193c2:    4631        1F      MOV      r1,r6
        0x000193c4:    462a        *F      MOV      r2,r5
        0x000193c6:    462b        +F      MOV      r3,r5
        0x000193c8:    9400        ..      STR      r4,[sp,#0]
        0x000193ca:    f7fffc27    ..'.    BL       am_hal_delay_us_status_check ; 0x18c1c
        0x000193ce:    b388        ..      CBZ      r0,0x19434 ; am_hal_pwrctrl_periph_disable + 280
        0x000193d0:    f5b57ff0    ....    CMP      r5,#0x1e0
        0x000193d4:    f04f0400    O...    MOV      r4,#0
        0x000193d8:    db0c        ..      BLT      0x193f4 ; am_hal_pwrctrl_periph_disable + 216
        0x000193da:    d015        ..      BEQ      0x19408 ; am_hal_pwrctrl_periph_disable + 236
        0x000193dc:    f5b53fe0    ...?    CMP      r5,#0x1c000
        0x000193e0:    d01a        ..      BEQ      0x19418 ; am_hal_pwrctrl_periph_disable + 252
        0x000193e2:    f5b55ff0    ..._    CMP      r5,#0x1e00
        0x000193e6:    d125        %.      BNE      0x19434 ; am_hal_pwrctrl_periph_disable + 280
        0x000193e8:    f8d80000    ....    LDR      r0,[r8,#0]
        0x000193ec:    f4105ff0    ..._    TST      r0,#0x1e00
        0x000193f0:    d11d        ..      BNE      0x1942e ; am_hal_pwrctrl_periph_disable + 274
        0x000193f2:    e01e        ..      B        0x19432 ; am_hal_pwrctrl_periph_disable + 278
        0x000193f4:    2d1e        .-      CMP      r5,#0x1e
        0x000193f6:    d015        ..      BEQ      0x19424 ; am_hal_pwrctrl_periph_disable + 264
        0x000193f8:    2d47        G-      CMP      r5,#0x47
        0x000193fa:    d11b        ..      BNE      0x19434 ; am_hal_pwrctrl_periph_disable + 280
        0x000193fc:    f8d80000    ....    LDR      r0,[r8,#0]
        0x00019400:    f0100f47    ..G.    TST      r0,#0x47
        0x00019404:    d113        ..      BNE      0x1942e ; am_hal_pwrctrl_periph_disable + 274
        0x00019406:    e014        ..      B        0x19432 ; am_hal_pwrctrl_periph_disable + 278
        0x00019408:    f8d80000    ....    LDR      r0,[r8,#0]
        0x0001940c:    f4107ff0    ....    TST      r0,#0x1e0
        0x00019410:    bf18        ..      IT       NE
        0x00019412:    f8d80000    ....    LDRNE    r0,[r8,#0]
        0x00019416:    e00c        ..      B        0x19432 ; am_hal_pwrctrl_periph_disable + 278
        0x00019418:    f8d80000    ....    LDR      r0,[r8,#0]
        0x0001941c:    f4103fe0    ...?    TST      r0,#0x1c000
        0x00019420:    d105        ..      BNE      0x1942e ; am_hal_pwrctrl_periph_disable + 274
        0x00019422:    e006        ..      B        0x19432 ; am_hal_pwrctrl_periph_disable + 278
        0x00019424:    f8d80000    ....    LDR      r0,[r8,#0]
        0x00019428:    f0100f1e    ....    TST      r0,#0x1e
        0x0001942c:    d001        ..      BEQ      0x19432 ; am_hal_pwrctrl_periph_disable + 278
        0x0001942e:    f8d80000    ....    LDR      r0,[r8,#0]
        0x00019432:    2400        .$      MOVS     r4,#0
        0x00019434:    4620         F      MOV      r0,r4
        0x00019436:    b003        ..      ADD      sp,sp,#0xc
        0x00019438:    e8bd83f0    ....    POP      {r4-r9,pc}
    am_hal_pwrctrl_periph_enable
        0x0001943c:    e92d43f0    -..C    PUSH     {r4-r9,lr}
        0x00019440:    b083        ..      SUB      sp,sp,#0xc
        0x00019442:    2818        .(      CMP      r0,#0x18
        0x00019444:    d901        ..      BLS      0x1944a ; am_hal_pwrctrl_periph_enable + 14
        0x00019446:    2706        .'      MOVS     r7,#6
        0x00019448:    e00d        ..      B        0x19466 ; am_hal_pwrctrl_periph_enable + 42
        0x0001944a:    4606        .F      MOV      r6,r0
        0x0001944c:    f24e0188    N...    MOV      r1,#0xe088
        0x00019450:    f2c00101    ....    MOVT     r1,#1
        0x00019454:    0132        2.      LSLS     r2,r6,#4
        0x00019456:    588f        .X      LDR      r7,[r1,r2]
        0x00019458:    eb011000    ....    ADD      r0,r1,r0,LSL #4
        0x0001945c:    6844        Dh      LDR      r4,[r0,#4]
        0x0001945e:    6839        9h      LDR      r1,[r7,#0]
        0x00019460:    4221        !B      TST      r1,r4
        0x00019462:    d004        ..      BEQ      0x1946e ; am_hal_pwrctrl_periph_enable + 50
        0x00019464:    2700        .'      MOVS     r7,#0
        0x00019466:    4638        8F      MOV      r0,r7
        0x00019468:    b003        ..      ADD      sp,sp,#0xc
        0x0001946a:    e8bd83f0    ....    POP      {r4-r9,pc}
        0x0001946e:    e9d09502    ....    LDRD     r9,r5,[r0,#8]
        0x00019472:    f6407808    @..x    MOV      r8,#0xf08
        0x00019476:    2e12        ..      CMP      r6,#0x12
        0x00019478:    f2c10802    ....    MOVT     r8,#0x1002
        0x0001947c:    d105        ..      BNE      0x1948a ; am_hal_pwrctrl_periph_enable + 78
        0x0001947e:    f8d81000    ....    LDR      r1,[r8,#0]
        0x00019482:    b111        ..      CBZ      r1,0x1948a ; am_hal_pwrctrl_periph_enable + 78
        0x00019484:    2001        .       MOVS     r0,#1
        0x00019486:    f001f935    ..5.    BL       crypto_boost_trims ; 0x1a6f4
        0x0001948a:    f7fffc5d    ..].    BL       am_hal_interrupt_master_disable ; 0x18d48
        0x0001948e:    9002        ..      STR      r0,[sp,#8]
        0x00019490:    6838        8h      LDR      r0,[r7,#0]
        0x00019492:    4320         C      ORRS     r0,r0,r4
        0x00019494:    6038        8`      STR      r0,[r7,#0]
        0x00019496:    9802        ..      LDR      r0,[sp,#8]
        0x00019498:    f7fffc5a    ..Z.    BL       am_hal_interrupt_master_set ; 0x18d50
        0x0001949c:    2701        .'      MOVS     r7,#1
        0x0001949e:    2005        .       MOVS     r0,#5
        0x000194a0:    4649        IF      MOV      r1,r9
        0x000194a2:    462a        *F      MOV      r2,r5
        0x000194a4:    462b        +F      MOV      r3,r5
        0x000194a6:    9700        ..      STR      r7,[sp,#0]
        0x000194a8:    f7fffbb8    ....    BL       am_hal_delay_us_status_check ; 0x18c1c
        0x000194ac:    b150        P.      CBZ      r0,0x194c4 ; am_hal_pwrctrl_periph_enable + 136
        0x000194ae:    4607        .F      MOV      r7,r0
        0x000194b0:    2e12        ..      CMP      r6,#0x12
        0x000194b2:    d1d8        ..      BNE      0x19466 ; am_hal_pwrctrl_periph_enable + 42
        0x000194b4:    f8d81000    ....    LDR      r1,[r8,#0]
        0x000194b8:    2900        .)      CMP      r1,#0
        0x000194ba:    d0d4        ..      BEQ      0x19466 ; am_hal_pwrctrl_periph_enable + 42
        0x000194bc:    2000        .       MOVS     r0,#0
        0x000194be:    f001f919    ....    BL       crypto_boost_trims ; 0x1a6f4
        0x000194c2:    e7d0        ..      B        0x19466 ; am_hal_pwrctrl_periph_enable + 42
        0x000194c4:    2e12        ..      CMP      r6,#0x12
        0x000194c6:    d10b        ..      BNE      0x194e0 ; am_hal_pwrctrl_periph_enable + 164
        0x000194c8:    f6417110    A..q    MOV      r1,#0x1f10
        0x000194cc:    f2c4010c    ....    MOVT     r1,#0x400c
        0x000194d0:    2064        d       MOVS     r0,#0x64
        0x000194d2:    2201        ."      MOVS     r2,#1
        0x000194d4:    2301        .#      MOVS     r3,#1
        0x000194d6:    f7fffb77    ..w.    BL       am_hal_delay_us_status_change ; 0x18bc8
        0x000194da:    4607        .F      MOV      r7,r0
        0x000194dc:    2800        .(      CMP      r0,#0
        0x000194de:    d1c2        ..      BNE      0x19466 ; am_hal_pwrctrl_periph_enable + 42
        0x000194e0:    f8d90000    ....    LDR      r0,[r9,#0]
        0x000194e4:    4028        (@      ANDS     r0,r0,r5
        0x000194e6:    fab0f080    ....    CLZ      r0,r0
        0x000194ea:    0947        G.      LSRS     r7,r0,#5
        0x000194ec:    e7bb        ..      B        0x19466 ; am_hal_pwrctrl_periph_enable + 42
        0x000194ee:    0000        ..      MOVS     r0,r0
    am_hal_pwrctrl_sram_config
        0x000194f0:    b570        p.      PUSH     {r4-r6,lr}
        0x000194f2:    b082        ..      SUB      sp,sp,#8
        0x000194f4:    f2410624    A.$.    MOV      r6,#0x1024
        0x000194f8:    f2c40602    ....    MOVT     r6,#0x4002
        0x000194fc:    4604        .F      MOV      r4,r0
        0x000194fe:    7800        .x      LDRB     r0,[r0,#0]
        0x00019500:    6831        1h      LDR      r1,[r6,#0]
        0x00019502:    2501        .%      MOVS     r5,#1
        0x00019504:    f3600101    `...    BFI      r1,r0,#0,#2
        0x00019508:    6031        1`      STR      r1,[r6,#0]
        0x0001950a:    4631        1F      MOV      r1,r6
        0x0001950c:    f8513b04    Q..;    LDR      r3,[r1],#4
        0x00019510:    2005        .       MOVS     r0,#5
        0x00019512:    2203        ."      MOVS     r2,#3
        0x00019514:    9500        ..      STR      r5,[sp,#0]
        0x00019516:    f7fffb81    ....    BL       am_hal_delay_us_status_check ; 0x18c1c
        0x0001951a:    2800        .(      CMP      r0,#0
        0x0001951c:    d13e        >.      BNE      0x1959c ; am_hal_pwrctrl_sram_config + 172
        0x0001951e:    6870        ph      LDR      r0,[r6,#4]
        0x00019520:    6831        1h      LDR      r1,[r6,#0]
        0x00019522:    4048        H@      EORS     r0,r0,r1
        0x00019524:    0780        ..      LSLS     r0,r0,#30
        0x00019526:    d001        ..      BEQ      0x1952c ; am_hal_pwrctrl_sram_config + 60
        0x00019528:    2001        .       MOVS     r0,#1
        0x0001952a:    e037        7.      B        0x1959c ; am_hal_pwrctrl_sram_config + 172
        0x0001952c:    7860        `x      LDRB     r0,[r4,#1]
        0x0001952e:    68b1        .h      LDR      r1,[r6,#8]
        0x00019530:    f3600183    `...    BFI      r1,r0,#2,#2
        0x00019534:    60b1        .`      STR      r1,[r6,#8]
        0x00019536:    78a0        .x      LDRB     r0,[r4,#2]
        0x00019538:    68b1        .h      LDR      r1,[r6,#8]
        0x0001953a:    f0000003    ....    AND      r0,r0,#3
        0x0001953e:    f02101c0    !...    BIC      r1,r1,#0xc0
        0x00019542:    ea411080    A...    ORR      r0,r1,r0,LSL #6
        0x00019546:    60b0        .`      STR      r0,[r6,#8]
        0x00019548:    78e0        .x      LDRB     r0,[r4,#3]
        0x0001954a:    68b1        .h      LDR      r1,[r6,#8]
        0x0001954c:    f0000003    ....    AND      r0,r0,#3
        0x00019550:    f4217140    !.@q    BIC      r1,r1,#0x300
        0x00019554:    ea412000    A..     ORR      r0,r1,r0,LSL #8
        0x00019558:    60b0        .`      STR      r0,[r6,#8]
        0x0001955a:    7920         y      LDRB     r0,[r4,#4]
        0x0001955c:    68b1        .h      LDR      r1,[r6,#8]
        0x0001955e:    f3601105    `...    BFI      r1,r0,#4,#2
        0x00019562:    60b1        .`      STR      r1,[r6,#8]
        0x00019564:    7960        `y      LDRB     r0,[r4,#5]
        0x00019566:    2803        .(      CMP      r0,#3
        0x00019568:    d813        ..      BHI      0x19592 ; am_hal_pwrctrl_sram_config + 162
        0x0001956a:    e8dff000    ....    TBB      [pc,r0]
    $d.7
        0x0001956e:    0602        ..      DCW    1538
        0x00019570:    0e09        ..      DCW    3593
    $t.8
        0x00019572:    68b0        .h      LDR      r0,[r6,#8]
        0x00019574:    f0400003    @...    ORR      r0,r0,#3
        0x00019578:    e00a        ..      B        0x19590 ; am_hal_pwrctrl_sram_config + 160
        0x0001957a:    68b0        .h      LDR      r0,[r6,#8]
        0x0001957c:    2102        .!      MOVS     r1,#2
        0x0001957e:    e001        ..      B        0x19584 ; am_hal_pwrctrl_sram_config + 148
        0x00019580:    68b0        .h      LDR      r0,[r6,#8]
        0x00019582:    2101        .!      MOVS     r1,#1
        0x00019584:    f3610001    a...    BFI      r0,r1,#0,#2
        0x00019588:    e002        ..      B        0x19590 ; am_hal_pwrctrl_sram_config + 160
        0x0001958a:    68b0        .h      LDR      r0,[r6,#8]
        0x0001958c:    f0200003     ...    BIC      r0,r0,#3
        0x00019590:    60b0        .`      STR      r0,[r6,#8]
        0x00019592:    69f0        .i      LDR      r0,[r6,#0x1c]
        0x00019594:    f4206040     .@`    BIC      r0,r0,#0xc00
        0x00019598:    61f0        .a      STR      r0,[r6,#0x1c]
        0x0001959a:    2000        .       MOVS     r0,#0
        0x0001959c:    b002        ..      ADD      sp,sp,#8
        0x0001959e:    bd70        p.      POP      {r4-r6,pc}
    am_hal_queue_init
        0x000195a0:    f04f0c00    O...    MOV      r12,#0
        0x000195a4:    f8c0c000    ....    STR      r12,[r0,#0]
        0x000195a8:    f8c0c004    ....    STR      r12,[r0,#4]
        0x000195ac:    f8c0c008    ....    STR      r12,[r0,#8]
        0x000195b0:    e9c03203    ...2    STRD     r3,r2,[r0,#0xc]
        0x000195b4:    6141        Aa      STR      r1,[r0,#0x14]
        0x000195b6:    4770        pG      BX       lr
    am_hal_queue_item_add
        0x000195b8:    b5f0        ..      PUSH     {r4-r7,lr}
        0x000195ba:    b081        ..      SUB      sp,sp,#4
        0x000195bc:    4604        .F      MOV      r4,r0
        0x000195be:    6900        .i      LDR      r0,[r0,#0x10]
        0x000195c0:    460d        .F      MOV      r5,r1
        0x000195c2:    fb00f702    ....    MUL      r7,r0,r2
        0x000195c6:    f7fffbbf    ....    BL       am_hal_interrupt_master_disable ; 0x18d48
        0x000195ca:    9000        ..      STR      r0,[sp,#0]
        0x000195cc:    68e1        .h      LDR      r1,[r4,#0xc]
        0x000195ce:    68a0        .h      LDR      r0,[r4,#8]
        0x000195d0:    eba10c00    ....    SUB      r12,r1,r0
        0x000195d4:    45bc        .E      CMP      r12,r7
        0x000195d6:    d318        ..      BCC      0x1960a ; am_hal_queue_item_add + 82
        0x000195d8:    b1a7        ..      CBZ      r7,0x19604 ; am_hal_queue_item_add + 76
        0x000195da:    462a        *F      MOV      r2,r5
        0x000195dc:    463b        ;F      MOV      r3,r7
        0x000195de:    bf00        ..      NOP      
        0x000195e0:    b125        %.      CBZ      r5,0x195ec ; am_hal_queue_item_add + 52
        0x000195e2:    7811        .x      LDRB     r1,[r2,#0]
        0x000195e4:    6960        `i      LDR      r0,[r4,#0x14]
        0x000195e6:    6826        &h      LDR      r6,[r4,#0]
        0x000195e8:    5581        .U      STRB     r1,[r0,r6]
        0x000195ea:    68e1        .h      LDR      r1,[r4,#0xc]
        0x000195ec:    6820         h      LDR      r0,[r4,#0]
        0x000195ee:    3b01        .;      SUBS     r3,#1
        0x000195f0:    f1000001    ....    ADD      r0,r0,#1
        0x000195f4:    fbb0f6f1    ....    UDIV     r6,r0,r1
        0x000195f8:    f1020201    ....    ADD      r2,r2,#1
        0x000195fc:    fb060011    ....    MLS      r0,r6,r1,r0
        0x00019600:    6020         `      STR      r0,[r4,#0]
        0x00019602:    d1ed        ..      BNE      0x195e0 ; am_hal_queue_item_add + 40
        0x00019604:    68a1        .h      LDR      r1,[r4,#8]
        0x00019606:    4439        9D      ADD      r1,r1,r7
        0x00019608:    60a1        .`      STR      r1,[r4,#8]
        0x0001960a:    9800        ..      LDR      r0,[sp,#0]
        0x0001960c:    2400        .$      MOVS     r4,#0
        0x0001960e:    45bc        .E      CMP      r12,r7
        0x00019610:    bf28        (.      IT       CS
        0x00019612:    2401        .$      MOVCS    r4,#1
        0x00019614:    f7fffb9c    ....    BL       am_hal_interrupt_master_set ; 0x18d50
        0x00019618:    4620         F      MOV      r0,r4
        0x0001961a:    b001        ..      ADD      sp,sp,#4
        0x0001961c:    bdf0        ..      POP      {r4-r7,pc}
        0x0001961e:    0000        ..      MOVS     r0,r0
    am_hal_queue_item_get
        0x00019620:    b5f0        ..      PUSH     {r4-r7,lr}
        0x00019622:    b081        ..      SUB      sp,sp,#4
        0x00019624:    4604        .F      MOV      r4,r0
        0x00019626:    6900        .i      LDR      r0,[r0,#0x10]
        0x00019628:    460d        .F      MOV      r5,r1
        0x0001962a:    fb00f702    ....    MUL      r7,r0,r2
        0x0001962e:    f7fffb8b    ....    BL       am_hal_interrupt_master_disable ; 0x18d48
        0x00019632:    9000        ..      STR      r0,[sp,#0]
        0x00019634:    f8d4c008    ....    LDR      r12,[r4,#8]
        0x00019638:    45bc        .E      CMP      r12,r7
        0x0001963a:    d317        ..      BCC      0x1966c ; am_hal_queue_item_get + 76
        0x0001963c:    b19f        ..      CBZ      r7,0x19666 ; am_hal_queue_item_get + 70
        0x0001963e:    4629        )F      MOV      r1,r5
        0x00019640:    463a        :F      MOV      r2,r7
        0x00019642:    bf00        ..      NOP      
        0x00019644:    b11d        ..      CBZ      r5,0x1964e ; am_hal_queue_item_get + 46
        0x00019646:    6863        ch      LDR      r3,[r4,#4]
        0x00019648:    6960        `i      LDR      r0,[r4,#0x14]
        0x0001964a:    5cc0        .\      LDRB     r0,[r0,r3]
        0x0001964c:    7008        .p      STRB     r0,[r1,#0]
        0x0001964e:    6860        `h      LDR      r0,[r4,#4]
        0x00019650:    68e3        .h      LDR      r3,[r4,#0xc]
        0x00019652:    3001        .0      ADDS     r0,#1
        0x00019654:    fbb0f6f3    ....    UDIV     r6,r0,r3
        0x00019658:    3a01        .:      SUBS     r2,#1
        0x0001965a:    fb060013    ....    MLS      r0,r6,r3,r0
        0x0001965e:    f1010101    ....    ADD      r1,r1,#1
        0x00019662:    6060        ``      STR      r0,[r4,#4]
        0x00019664:    d1ee        ..      BNE      0x19644 ; am_hal_queue_item_get + 36
        0x00019666:    68a1        .h      LDR      r1,[r4,#8]
        0x00019668:    1bc9        ..      SUBS     r1,r1,r7
        0x0001966a:    60a1        .`      STR      r1,[r4,#8]
        0x0001966c:    9800        ..      LDR      r0,[sp,#0]
        0x0001966e:    2400        .$      MOVS     r4,#0
        0x00019670:    45bc        .E      CMP      r12,r7
        0x00019672:    bf28        (.      IT       CS
        0x00019674:    2401        .$      MOVCS    r4,#1
        0x00019676:    f7fffb6b    ..k.    BL       am_hal_interrupt_master_set ; 0x18d50
        0x0001967a:    4620         F      MOV      r0,r4
        0x0001967c:    b001        ..      ADD      sp,sp,#4
        0x0001967e:    bdf0        ..      POP      {r4-r7,pc}
    am_hal_rtc_osc_disable
        0x00019680:    f6440100    D...    MOVW     r1,#0x4800
        0x00019684:    f2c40100    ....    MOVT     r1,#0x4000
        0x00019688:    6808        .h      LDR      r0,[r1,#0]
        0x0001968a:    f0400210    @...    ORR      r2,r0,#0x10
        0x0001968e:    2000        .       MOVS     r0,#0
        0x00019690:    600a        .`      STR      r2,[r1,#0]
        0x00019692:    4770        pG      BX       lr
    am_hal_sysctrl_sleep
        0x00019694:    e92d41f0    -..A    PUSH     {r4-r8,lr}
        0x00019698:    b084        ..      SUB      sp,sp,#0x10
        0x0001969a:    a902        ..      ADD      r1,sp,#8
        0x0001969c:    f1b15f80    ..._    CMP      r1,#0x10000000
        0x000196a0:    d344        D.      BCC      0x1972c ; am_hal_sysctrl_sleep + 152
        0x000196a2:    4604        .F      MOV      r4,r0
        0x000196a4:    2000        .       MOVS     r0,#0
        0x000196a6:    f2c10006    ....    MOVT     r0,#0x1006
        0x000196aa:    4281        .B      CMP      r1,r0
        0x000196ac:    d23e        >.      BCS      0x1972c ; am_hal_sysctrl_sleep + 152
        0x000196ae:    f64e5510    N..U    MOV      r5,#0xed10
        0x000196b2:    f2410608    A...    MOV      r6,#0x1008
        0x000196b6:    f2ce0500    ....    MOVT     r5,#0xe000
        0x000196ba:    f2c40602    ....    MOVT     r6,#0x4002
        0x000196be:    f7fffb43    ..C.    BL       am_hal_interrupt_master_disable ; 0x18d48
        0x000196c2:    9001        ..      STR      r0,[sp,#4]
        0x000196c4:    f8d60100    ....    LDR      r0,[r6,#0x100]
        0x000196c8:    b38c        ..      CBZ      r4,0x1972e ; am_hal_sysctrl_sleep + 154
        0x000196ca:    f2403770    @.p7    MOVW     r7,#0x370
        0x000196ce:    f64f61e0    O..a    MOV      r1,#0xfee0
        0x000196d2:    f2c40702    ....    MOVT     r7,#0x4002
        0x000196d6:    f6cf71ff    ...q    MOVT     r1,#0xffff
        0x000196da:    5879        yX      LDR      r1,[r7,r1]
        0x000196dc:    07c9        ..      LSLS     r1,r1,#31
        0x000196de:    d126        &.      BNE      0x1972e ; am_hal_sysctrl_sleep + 154
        0x000196e0:    f0000030    ..0.    AND      r0,r0,#0x30
        0x000196e4:    f64f4890    O..H    MOV      r8,#0xfc90
        0x000196e8:    2830        0(      CMP      r0,#0x30
        0x000196ea:    f6cf78ff    ...x    MOVT     r8,#0xffff
        0x000196ee:    d106        ..      BNE      0x196fe ; am_hal_sysctrl_sleep + 106
        0x000196f0:    6830        0h      LDR      r0,[r6,#0]
        0x000196f2:    f64f71ff    O..q    MOV      r1,#0xffff
        0x000196f6:    f2c01133    ..3.    MOVT     r1,#0x133
        0x000196fa:    4208        .B      TST      r0,r1
        0x000196fc:    d042        B.      BEQ      0x19784 ; am_hal_sysctrl_sleep + 240
        0x000196fe:    2400        .$      MOVS     r4,#0
        0x00019700:    f8570008    W...    LDR      r0,[r7,r8]
        0x00019704:    f4104f70    ..pO    TST      r0,#0xf000
        0x00019708:    d10a        ..      BNE      0x19720 ; am_hal_sysctrl_sleep + 140
        0x0001970a:    6830        0h      LDR      r0,[r6,#0]
        0x0001970c:    01c0        ..      LSLS     r0,r0,#7
        0x0001970e:    d407        ..      BMI      0x19720 ; am_hal_sysctrl_sleep + 140
        0x00019710:    f10d000f    ....    ADD      r0,sp,#0xf
        0x00019714:    f7fffdf7    ....    BL       am_hal_pwrctrl_mcu_mode_status ; 0x19306
        0x00019718:    f89d000f    ....    LDRB     r0,[sp,#0xf]
        0x0001971c:    2802        .(      CMP      r0,#2
        0x0001971e:    d14c        L.      BNE      0x197ba ; am_hal_sysctrl_sleep + 294
        0x00019720:    2600        .&      MOVS     r6,#0
        0x00019722:    6828        (h      LDR      r0,[r5,#0]
        0x00019724:    f0400004    @...    ORR      r0,r0,#4
        0x00019728:    e006        ..      B        0x19738 ; am_hal_sysctrl_sleep + 164
        0x0001972a:    bf00        ..      NOP      
        0x0001972c:    e7fe        ..      B        0x1972c ; am_hal_sysctrl_sleep + 152
        0x0001972e:    6828        (h      LDR      r0,[r5,#0]
        0x00019730:    2400        .$      MOVS     r4,#0
        0x00019732:    f0200004     ...    BIC      r0,r0,#4
        0x00019736:    2600        .&      MOVS     r6,#0
        0x00019738:    6028        (`      STR      r0,[r5,#0]
        0x0001973a:    2001        .       MOVS     r0,#1
        0x0001973c:    2100        .!      MOVS     r1,#0
        0x0001973e:    f7fff917    ....    BL       am_hal_daxi_control ; 0x18970
        0x00019742:    bf30        0.      WFI      
        0x00019744:    f3bf8f6f    ..o.    ISB      
        0x00019748:    b116        ..      CBZ      r6,0x19750 ; am_hal_sysctrl_sleep + 188
        0x0001974a:    2001        .       MOVS     r0,#1
        0x0001974c:    f7fffda2    ....    BL       am_hal_pwrctrl_mcu_mode_select ; 0x19294
        0x00019750:    b194        ..      CBZ      r4,0x19778 ; am_hal_sysctrl_sleep + 228
        0x00019752:    2001        .       MOVS     r0,#1
        0x00019754:    f000ffb9    ....    BL       buck_ldo_update_override ; 0x1a6ca
        0x00019758:    f2403070    @.p0    MOVW     r0,#0x370
        0x0001975c:    f2c40002    ....    MOVT     r0,#0x4002
        0x00019760:    6901        .i      LDR      r1,[r0,#0x10]
        0x00019762:    f0414100    A..A    ORR      r1,r1,#0x80000000
        0x00019766:    6101        .a      STR      r1,[r0,#0x10]
        0x00019768:    6901        .i      LDR      r1,[r0,#0x10]
        0x0001976a:    f0414180    A..A    ORR      r1,r1,#0x40000000
        0x0001976e:    6101        .a      STR      r1,[r0,#0x10]
        0x00019770:    6801        .h      LDR      r1,[r0,#0]
        0x00019772:    f021717c    !.|q    BIC      r1,r1,#0x3f00000
        0x00019776:    6001        .`      STR      r1,[r0,#0]
        0x00019778:    9801        ..      LDR      r0,[sp,#4]
        0x0001977a:    f7fffae9    ....    BL       am_hal_interrupt_master_set ; 0x18d50
        0x0001977e:    b004        ..      ADD      sp,sp,#0x10
        0x00019780:    e8bd81f0    ....    POP      {r4-r8,pc}
        0x00019784:    f240004c    @.L.    MOVW     r0,#0x4c
        0x00019788:    f2c10000    ....    MOVT     r0,#0x1000
        0x0001978c:    6800        .h      LDR      r0,[r0,#0]
        0x0001978e:    6839        9h      LDR      r1,[r7,#0]
        0x00019790:    f3605119    `..Q    BFI      r1,r0,#20,#6
        0x00019794:    6039        9`      STR      r1,[r7,#0]
        0x00019796:    6938        8i      LDR      r0,[r7,#0x10]
        0x00019798:    f0204000     ..@    BIC      r0,r0,#0x80000000
        0x0001979c:    6138        8a      STR      r0,[r7,#0x10]
        0x0001979e:    6938        8i      LDR      r0,[r7,#0x10]
        0x000197a0:    f0204080     ..@    BIC      r0,r0,#0x40000000
        0x000197a4:    6138        8a      STR      r0,[r7,#0x10]
        0x000197a6:    f8570008    W...    LDR      r0,[r7,r8]
        0x000197aa:    f4104f7f    ...O    TST      r0,#0xff00
        0x000197ae:    d002        ..      BEQ      0x197b6 ; am_hal_sysctrl_sleep + 290
        0x000197b0:    2000        .       MOVS     r0,#0
        0x000197b2:    f000ff8a    ....    BL       buck_ldo_update_override ; 0x1a6ca
        0x000197b6:    2401        .$      MOVS     r4,#1
        0x000197b8:    e7a2        ..      B        0x19700 ; am_hal_sysctrl_sleep + 108
        0x000197ba:    2002        .       MOVS     r0,#2
        0x000197bc:    f7fffd6a    ..j.    BL       am_hal_pwrctrl_mcu_mode_select ; 0x19294
        0x000197c0:    2601        .&      MOVS     r6,#1
        0x000197c2:    e7ae        ..      B        0x19722 ; am_hal_sysctrl_sleep + 142
    am_hal_tpiu_enable
        0x000197c4:    f24a3280    J..2    MOV      r2,#0xa380
        0x000197c8:    2104        .!      MOVS     r1,#4
        0x000197ca:    f5a04361    ..aC    SUB      r3,r0,#0xe100
        0x000197ce:    f2c0021d    ....    MOVT     r2,#0x1d
        0x000197d2:    f2ce0104    ....    MOVT     r1,#0xe004
        0x000197d6:    f04f0c00    O...    MOV      r12,#0
        0x000197da:    4293        .B      CMP      r3,r2
        0x000197dc:    f6464300    F..C    MOVW     r3,#0x6c00
        0x000197e0:    f8c1c300    ....    STR      r12,[r1,#0x300]
        0x000197e4:    bf84        ..      ITT      HI
        0x000197e6:    f2442040    D.@     MOVHI    r0,#0x4240
        0x000197ea:    f2c0000f    ....    MOVTHI   r0,#0xf
        0x000197ee:    f2c023dc    ...#    MOVT     r3,#0x2dc
        0x000197f2:    fbb3f0f0    ....    UDIV     r0,r3,r0
        0x000197f6:    2201        ."      MOVS     r2,#1
        0x000197f8:    3801        .8      SUBS     r0,#1
        0x000197fa:    b280        ..      UXTH     r0,r0
        0x000197fc:    600a        .`      STR      r2,[r1,#0]
        0x000197fe:    60c8        .`      STR      r0,[r1,#0xc]
        0x00019800:    2002        .       MOVS     r0,#2
        0x00019802:    f8c100ec    ....    STR      r0,[r1,#0xec]
        0x00019806:    f6407100    @..q    MOVW     r1,#0xf00
        0x0001980a:    f2ce0104    ....    MOVT     r1,#0xe004
        0x0001980e:    f8c1c000    ....    STR      r12,[r1,#0]
        0x00019812:    f2402150    @.P!    MOVW     r1,#0x250
        0x00019816:    f2c40102    ....    MOVT     r1,#0x4002
        0x0001981a:    680a        .h      LDR      r2,[r1,#0]
        0x0001981c:    f3600243    `.C.    BFI      r2,r0,#1,#3
        0x00019820:    600a        .`      STR      r2,[r1,#0]
        0x00019822:    6808        .h      LDR      r0,[r1,#0]
        0x00019824:    f0400201    @...    ORR      r2,r0,#1
        0x00019828:    2064        d       MOVS     r0,#0x64
        0x0001982a:    600a        .`      STR      r2,[r1,#0]
        0x0001982c:    f7ffb9b0    ....    B        am_hal_delay_us ; 0x18b90
    am_hal_uart_buffer_configure
        0x00019830:    b5b0        ..      PUSH     {r4,r5,r7,lr}
        0x00019832:    b1b0        ..      CBZ      r0,0x19862 ; am_hal_uart_buffer_configure + 50
        0x00019834:    4605        .F      MOV      r5,r0
        0x00019836:    6800        .h      LDR      r0,[r0,#0]
        0x00019838:    461c        .F      MOV      r4,r3
        0x0001983a:    4613        .F      MOV      r3,r2
        0x0001983c:    f6496206    I..b    MOV      r2,#0x9e06
        0x00019840:    f020407e     .~@    BIC      r0,r0,#0xfe000000
        0x00019844:    f2c012ea    ....    MOVT     r2,#0x1ea
        0x00019848:    4290        .B      CMP      r0,r2
        0x0001984a:    d10a        ..      BNE      0x19862 ; am_hal_uart_buffer_configure + 50
        0x0001984c:    b159        Y.      CBZ      r1,0x19866 ; am_hal_uart_buffer_configure + 54
        0x0001984e:    b153        S.      CBZ      r3,0x19866 ; am_hal_uart_buffer_configure + 54
        0x00019850:    2001        .       MOVS     r0,#1
        0x00019852:    f885007c    ..|.    STRB     r0,[r5,#0x7c]
        0x00019856:    f1050080    ....    ADD      r0,r5,#0x80
        0x0001985a:    2201        ."      MOVS     r2,#1
        0x0001985c:    f7fffea0    ....    BL       am_hal_queue_init ; 0x195a0
        0x00019860:    e004        ..      B        0x1986c ; am_hal_uart_buffer_configure + 60
        0x00019862:    2002        .       MOVS     r0,#2
        0x00019864:    bdb0        ..      POP      {r4,r5,r7,pc}
        0x00019866:    2000        .       MOVS     r0,#0
        0x00019868:    f885007c    ..|.    STRB     r0,[r5,#0x7c]
        0x0001986c:    b164        d.      CBZ      r4,0x19888 ; am_hal_uart_buffer_configure + 88
        0x0001986e:    9b04        ..      LDR      r3,[sp,#0x10]
        0x00019870:    b153        S.      CBZ      r3,0x19888 ; am_hal_uart_buffer_configure + 88
        0x00019872:    2001        .       MOVS     r0,#1
        0x00019874:    f8850098    ....    STRB     r0,[r5,#0x98]
        0x00019878:    f105009c    ....    ADD      r0,r5,#0x9c
        0x0001987c:    4621        !F      MOV      r1,r4
        0x0001987e:    2201        ."      MOVS     r2,#1
        0x00019880:    f7fffe8e    ....    BL       am_hal_queue_init ; 0x195a0
        0x00019884:    2000        .       MOVS     r0,#0
        0x00019886:    bdb0        ..      POP      {r4,r5,r7,pc}
        0x00019888:    2000        .       MOVS     r0,#0
        0x0001988a:    f8850098    ....    STRB     r0,[r5,#0x98]
        0x0001988e:    bdb0        ..      POP      {r4,r5,r7,pc}
    am_hal_uart_configure
        0x00019890:    b510        ..      PUSH     {r4,lr}
        0x00019892:    6802        .h      LDR      r2,[r0,#0]
        0x00019894:    f6496306    I..c    MOV      r3,#0x9e06
        0x00019898:    f022427e    ".~B    BIC      r2,r2,#0xfe000000
        0x0001989c:    f2c013ea    ....    MOVT     r3,#0x1ea
        0x000198a0:    429a        .B      CMP      r2,r3
        0x000198a2:    d11c        ..      BNE      0x198de ; am_hal_uart_configure + 78
        0x000198a4:    f8d0e024    ..$.    LDR      lr,[r0,#0x24]
        0x000198a8:    f24c0c30    L.0.    MOV      r12,#0xc030
        0x000198ac:    ea4f330e    O..3    LSL      r3,lr,#12
        0x000198b0:    f2c40c01    ....    MOVT     r12,#0x4001
        0x000198b4:    2200        ."      MOVS     r2,#0
        0x000198b6:    f84c2003    L..     STR      r2,[r12,r3]
        0x000198ba:    f85c2003    \..     LDR      r2,[r12,r3]
        0x000198be:    f1be0f00    ....    CMP      lr,#0
        0x000198c2:    f0420208    B...    ORR      r2,r2,#8
        0x000198c6:    f84c2003    L..     STR      r2,[r12,r3]
        0x000198ca:    680b        .h      LDR      r3,[r1,#0]
        0x000198cc:    f24e3c60    N.`<    MOV      r12,#0xe360
        0x000198d0:    f2c00c16    ....    MOVT     r12,#0x16
        0x000198d4:    d005        ..      BEQ      0x198e2 ; am_hal_uart_configure + 82
        0x000198d6:    4563        cE      CMP      r3,r12
        0x000198d8:    d908        ..      BLS      0x198ec ; am_hal_uart_configure + 92
        0x000198da:    2105        .!      MOVS     r1,#5
        0x000198dc:    e09f        ..      B        0x19a1e ; am_hal_uart_configure + 398
        0x000198de:    2102        .!      MOVS     r1,#2
        0x000198e0:    e09d        ..      B        0x19a1e ; am_hal_uart_configure + 398
        0x000198e2:    4563        cE      CMP      r3,r12
        0x000198e4:    d902        ..      BLS      0x198ec ; am_hal_uart_configure + 92
        0x000198e6:    f04f0c50    O.P.    MOV      r12,#0x50
        0x000198ea:    e001        ..      B        0x198f0 ; am_hal_uart_configure + 96
        0x000198ec:    f04f0c10    O...    MOV      r12,#0x10
        0x000198f0:    f24c0200    L...    MOVW     r2,#0xc000
        0x000198f4:    f2c40201    ....    MOVT     r2,#0x4001
        0x000198f8:    eb02320e    ...2    ADD      r2,r2,lr,LSL #12
        0x000198fc:    6b13        .k      LDR      r3,[r2,#0x30]
        0x000198fe:    f0230370    #.p.    BIC      r3,r3,#0x70
        0x00019902:    ea43030c    C...    ORR      r3,r3,r12
        0x00019906:    6313        .c      STR      r3,[r2,#0x30]
        0x00019908:    6b13        .k      LDR      r3,[r2,#0x30]
        0x0001990a:    f0230301    #...    BIC      r3,r3,#1
        0x0001990e:    6313        .c      STR      r3,[r2,#0x30]
        0x00019910:    6b13        .k      LDR      r3,[r2,#0x30]
        0x00019912:    f4237300    #..s    BIC      r3,r3,#0x200
        0x00019916:    6313        .c      STR      r3,[r2,#0x30]
        0x00019918:    6b13        .k      LDR      r3,[r2,#0x30]
        0x0001991a:    f4237380    #..s    BIC      r3,r3,#0x100
        0x0001991e:    6313        .c      STR      r3,[r2,#0x30]
        0x00019920:    f8d1e000    ....    LDR      lr,[r1,#0]
        0x00019924:    6b13        .k      LDR      r3,[r2,#0x30]
        0x00019926:    f3c31302    ....    UBFX     r3,r3,#4,#3
        0x0001992a:    f1a30c01    ....    SUB      r12,r3,#1
        0x0001992e:    f1bc0f05    ....    CMP      r12,#5
        0x00019932:    d20c        ..      BCS      0x1994e ; am_hal_uart_configure + 190
        0x00019934:    a33b        ;.      ADR      r3,{pc}+0xf0 ; 0x19a24
        0x00019936:    f853c02c    S.,.    LDR      r12,[r3,r12,LSL #2]
        0x0001993a:    ebbc1f0e    ....    CMP      r12,lr,LSL #4
        0x0001993e:    d20c        ..      BCS      0x1995a ; am_hal_uart_configure + 202
        0x00019940:    2100        .!      MOVS     r1,#0
        0x00019942:    6281        .b      STR      r1,[r0,#0x28]
        0x00019944:    2002        .       MOVS     r0,#2
        0x00019946:    f6c00000    ....    MOVT     r0,#0x800
        0x0001994a:    1c41        A.      ADDS     r1,r0,#1
        0x0001994c:    e067        g.      B        0x19a1e ; am_hal_uart_configure + 398
        0x0001994e:    2102        .!      MOVS     r1,#2
        0x00019950:    2200        ."      MOVS     r2,#0
        0x00019952:    f6c00100    ....    MOVT     r1,#0x800
        0x00019956:    6282        .b      STR      r2,[r0,#0x28]
        0x00019958:    e061        a.      B        0x19a1e ; am_hal_uart_configure + 398
        0x0001995a:    ea4f1e0e    O...    LSL      lr,lr,#4
        0x0001995e:    ea4f148c    O...    LSL      r4,r12,#6
        0x00019962:    fbbcf3fe    ....    UDIV     r3,r12,lr
        0x00019966:    fbb4f4fe    ....    UDIV     r4,r4,lr
        0x0001996a:    6253        Sb      STR      r3,[r2,#0x24]
        0x0001996c:    eba41e83    ....    SUB      lr,r4,r3,LSL #6
        0x00019970:    ea4f049e    O...    LSR      r4,lr,#2
        0x00019974:    eb041303    ....    ADD      r3,r4,r3,LSL #4
        0x00019978:    fbbcf3f3    ....    UDIV     r3,r12,r3
        0x0001997c:    f8c2e028    ..(.    STR      lr,[r2,#0x28]
        0x00019980:    6283        .b      STR      r3,[r0,#0x28]
        0x00019982:    6b10        .k      LDR      r0,[r2,#0x30]
        0x00019984:    f4204080     ..@    BIC      r0,r0,#0x4000
        0x00019988:    6310        .c      STR      r0,[r2,#0x30]
        0x0001998a:    6b10        .k      LDR      r0,[r2,#0x30]
        0x0001998c:    f4204000     ..@    BIC      r0,r0,#0x8000
        0x00019990:    6310        .c      STR      r0,[r2,#0x30]
        0x00019992:    8908        ..      LDRH     r0,[r1,#8]
        0x00019994:    6b13        .k      LDR      r3,[r2,#0x30]
        0x00019996:    4318        .C      ORRS     r0,r0,r3
        0x00019998:    6310        .c      STR      r0,[r2,#0x30]
        0x0001999a:    7948        Hy      LDRB     r0,[r1,#5]
        0x0001999c:    2801        .(      CMP      r0,#1
        0x0001999e:    d002        ..      BEQ      0x199a6 ; am_hal_uart_configure + 278
        0x000199a0:    b920         .      CBNZ     r0,0x199ac ; am_hal_uart_configure + 284
        0x000199a2:    2000        .       MOVS     r0,#0
        0x000199a4:    e000        ..      B        0x199a8 ; am_hal_uart_configure + 280
        0x000199a6:    2004        .       MOVS     r0,#4
        0x000199a8:    2302        .#      MOVS     r3,#2
        0x000199aa:    e001        ..      B        0x199b0 ; am_hal_uart_configure + 288
        0x000199ac:    2300        .#      MOVS     r3,#0
        0x000199ae:    2000        .       MOVS     r0,#0
        0x000199b0:    6ad4        .j      LDR      r4,[r2,#0x2c]
        0x000199b2:    f0240401    $...    BIC      r4,r4,#1
        0x000199b6:    62d4        .b      STR      r4,[r2,#0x2c]
        0x000199b8:    6ad4        .j      LDR      r4,[r2,#0x2c]
        0x000199ba:    f0240402    $...    BIC      r4,r4,#2
        0x000199be:    4323        #C      ORRS     r3,r3,r4
        0x000199c0:    62d3        .b      STR      r3,[r2,#0x2c]
        0x000199c2:    6ad3        .j      LDR      r3,[r2,#0x2c]
        0x000199c4:    f0230304    #...    BIC      r3,r3,#4
        0x000199c8:    4318        .C      ORRS     r0,r0,r3
        0x000199ca:    62d0        .b      STR      r0,[r2,#0x2c]
        0x000199cc:    7988        .y      LDRB     r0,[r1,#6]
        0x000199ce:    6ad3        .j      LDR      r3,[r2,#0x2c]
        0x000199d0:    f36003c3    `...    BFI      r3,r0,#3,#1
        0x000199d4:    62d3        .b      STR      r3,[r2,#0x2c]
        0x000199d6:    6ad0        .j      LDR      r0,[r2,#0x2c]
        0x000199d8:    f0400010    @...    ORR      r0,r0,#0x10
        0x000199dc:    62d0        .b      STR      r0,[r2,#0x2c]
        0x000199de:    7908        .y      LDRB     r0,[r1,#4]
        0x000199e0:    6ad3        .j      LDR      r3,[r2,#0x2c]
        0x000199e2:    f3601346    `.F.    BFI      r3,r0,#5,#2
        0x000199e6:    62d3        .b      STR      r3,[r2,#0x2c]
        0x000199e8:    6ad0        .j      LDR      r0,[r2,#0x2c]
        0x000199ea:    f0200080     ...    BIC      r0,r0,#0x80
        0x000199ee:    62d0        .b      STR      r0,[r2,#0x2c]
        0x000199f0:    7a88        .z      LDRB     r0,[r1,#0xa]
        0x000199f2:    6b53        Sk      LDR      r3,[r2,#0x34]
        0x000199f4:    f3600302    `...    BFI      r3,r0,#0,#3
        0x000199f8:    6353        Sc      STR      r3,[r2,#0x34]
        0x000199fa:    7ac8        .z      LDRB     r0,[r1,#0xb]
        0x000199fc:    6b51        Qk      LDR      r1,[r2,#0x34]
        0x000199fe:    f36001c5    `...    BFI      r1,r0,#3,#3
        0x00019a02:    6351        Qc      STR      r1,[r2,#0x34]
        0x00019a04:    6b10        .k      LDR      r0,[r2,#0x30]
        0x00019a06:    2100        .!      MOVS     r1,#0
        0x00019a08:    f0400001    @...    ORR      r0,r0,#1
        0x00019a0c:    6310        .c      STR      r0,[r2,#0x30]
        0x00019a0e:    6b10        .k      LDR      r0,[r2,#0x30]
        0x00019a10:    f4407000    @..p    ORR      r0,r0,#0x200
        0x00019a14:    6310        .c      STR      r0,[r2,#0x30]
        0x00019a16:    6b10        .k      LDR      r0,[r2,#0x30]
        0x00019a18:    f4407080    @..p    ORR      r0,r0,#0x100
        0x00019a1c:    6310        .c      STR      r0,[r2,#0x30]
        0x00019a1e:    4608        .F      MOV      r0,r1
        0x00019a20:    bd10        ..      POP      {r4,pc}
        0x00019a22:    bf00        ..      NOP      
    $d.8
        0x00019a24:    016e3600    .6n.    DCD    24000000
        0x00019a28:    00b71b00    ....    DCD    12000000
        0x00019a2c:    005b8d80    ..[.    DCD    6000000
        0x00019a30:    002dc6c0    ..-.    DCD    3000000
        0x00019a34:    02dc6c00    .l..    DCD    48000000
    $t.0
    am_hal_uart_initialize
        0x00019a38:    b5b0        ..      PUSH     {r4,r5,r7,lr}
        0x00019a3a:    2803        .(      CMP      r0,#3
        0x00019a3c:    bf84        ..      ITT      HI
        0x00019a3e:    2005        .       MOVHI    r0,#5
        0x00019a40:    bdb0        ..      POPHI    {r4,r5,r7,pc}
        0x00019a42:    b379        y.      CBZ      r1,0x19aa4 ; am_hal_uart_initialize + 108
        0x00019a44:    680b        .h      LDR      r3,[r1,#0]
        0x00019a46:    f6496c06    I..l    MOV      r12,#0x9e06
        0x00019a4a:    4602        .F      MOV      r2,r0
        0x00019a4c:    f2c01cea    ....    MOVT     r12,#0x1ea
        0x00019a50:    b133        3.      CBZ      r3,0x19a60 ; am_hal_uart_initialize + 40
        0x00019a52:    681b        .h      LDR      r3,[r3,#0]
        0x00019a54:    f023437e    #.~C    BIC      r3,r3,#0xfe000000
        0x00019a58:    4563        cE      CMP      r3,r12
        0x00019a5a:    bf04        ..      ITT      EQ
        0x00019a5c:    2007        .       MOVEQ    r0,#7
        0x00019a5e:    bdb0        ..      POPEQ    {r4,r5,r7,pc}
        0x00019a60:    f6400500    @...    MOVW     r5,#0x800
        0x00019a64:    f04f0eb8    O...    MOV      lr,#0xb8
        0x00019a68:    f2c10500    ....    MOVT     r5,#0x1000
        0x00019a6c:    fb02f00e    ....    MUL      r0,r2,lr
        0x00019a70:    582c        ,X      LDR      r4,[r5,r0]
        0x00019a72:    fb02530e    ...S    MLA      r3,r2,lr,r5
        0x00019a76:    f004447e    ..~D    AND      r4,r4,#0xfe000000
        0x00019a7a:    4464        dD      ADD      r4,r4,r12
        0x00019a7c:    502c        ,P      STR      r4,[r5,r0]
        0x00019a7e:    2000        .       MOVS     r0,#0
        0x00019a80:    e9c32009    ...     STRD     r2,r0,[r3,#0x24]
        0x00019a84:    2201        ."      MOVS     r2,#1
        0x00019a86:    7118        .q      STRB     r0,[r3,#4]
        0x00019a88:    f883002c    ..,.    STRB     r0,[r3,#0x2c]
        0x00019a8c:    f8830054    ..T.    STRB     r0,[r3,#0x54]
        0x00019a90:    f883007c    ..|.    STRB     r0,[r3,#0x7c]
        0x00019a94:    f8830098    ....    STRB     r0,[r3,#0x98]
        0x00019a98:    6798        .g      STR      r0,[r3,#0x78]
        0x00019a9a:    6518        .e      STR      r0,[r3,#0x50]
        0x00019a9c:    f88320b4    ...     STRB     r2,[r3,#0xb4]
        0x00019aa0:    600b        .`      STR      r3,[r1,#0]
        0x00019aa2:    bdb0        ..      POP      {r4,r5,r7,pc}
        0x00019aa4:    2006        .       MOVS     r0,#6
        0x00019aa6:    bdb0        ..      POP      {r4,r5,r7,pc}
    am_hal_uart_power_control
        0x00019aa8:    b5b0        ..      PUSH     {r4,r5,r7,lr}
        0x00019aaa:    4604        .F      MOV      r4,r0
        0x00019aac:    6800        .h      LDR      r0,[r0,#0]
        0x00019aae:    f6496306    I..c    MOV      r3,#0x9e06
        0x00019ab2:    f020407e     .~@    BIC      r0,r0,#0xfe000000
        0x00019ab6:    f2c013ea    ....    MOVT     r3,#0x1ea
        0x00019aba:    4298        .B      CMP      r0,r3
        0x00019abc:    d127        '.      BNE      0x19b0e ; am_hal_uart_power_control + 102
        0x00019abe:    6a65        ej      LDR      r5,[r4,#0x24]
        0x00019ac0:    1e48        H.      SUBS     r0,r1,#1
        0x00019ac2:    2802        .(      CMP      r0,#2
        0x00019ac4:    f1050009    ....    ADD      r0,r5,#9
        0x00019ac8:    d224        $.      BCS      0x19b14 ; am_hal_uart_power_control + 108
        0x00019aca:    f24c0100    L...    MOVW     r1,#0xc000
        0x00019ace:    f2c40101    ....    MOVT     r1,#0x4001
        0x00019ad2:    b18a        ..      CBZ      r2,0x19af8 ; am_hal_uart_power_control + 80
        0x00019ad4:    eb013205    ...2    ADD      r2,r1,r5,LSL #12
        0x00019ad8:    6a13        .j      LDR      r3,[r2,#0x20]
        0x00019ada:    60a3        .`      STR      r3,[r4,#8]
        0x00019adc:    6a53        Sj      LDR      r3,[r2,#0x24]
        0x00019ade:    60e3        .`      STR      r3,[r4,#0xc]
        0x00019ae0:    6a93        .j      LDR      r3,[r2,#0x28]
        0x00019ae2:    6123        #a      STR      r3,[r4,#0x10]
        0x00019ae4:    6ad3        .j      LDR      r3,[r2,#0x2c]
        0x00019ae6:    6163        ca      STR      r3,[r4,#0x14]
        0x00019ae8:    6b13        .k      LDR      r3,[r2,#0x30]
        0x00019aea:    61a3        .a      STR      r3,[r4,#0x18]
        0x00019aec:    6b53        Sk      LDR      r3,[r2,#0x34]
        0x00019aee:    61e3        .a      STR      r3,[r4,#0x1c]
        0x00019af0:    6b92        .k      LDR      r2,[r2,#0x38]
        0x00019af2:    6222        "b      STR      r2,[r4,#0x20]
        0x00019af4:    2201        ."      MOVS     r2,#1
        0x00019af6:    7122        "q      STRB     r2,[r4,#4]
        0x00019af8:    eb013105    ...1    ADD      r1,r1,r5,LSL #12
        0x00019afc:    f04f32ff    O..2    MOV      r2,#0xffffffff
        0x00019b00:    2500        .%      MOVS     r5,#0
        0x00019b02:    b2c0        ..      UXTB     r0,r0
        0x00019b04:    644a        Jd      STR      r2,[r1,#0x44]
        0x00019b06:    630d        .c      STR      r5,[r1,#0x30]
        0x00019b08:    f7fffc08    ....    BL       am_hal_pwrctrl_periph_disable ; 0x1931c
        0x00019b0c:    e000        ..      B        0x19b10 ; am_hal_uart_power_control + 104
        0x00019b0e:    2502        .%      MOVS     r5,#2
        0x00019b10:    4628        (F      MOV      r0,r5
        0x00019b12:    bdb0        ..      POP      {r4,r5,r7,pc}
        0x00019b14:    b9e1        ..      CBNZ     r1,0x19b50 ; am_hal_uart_power_control + 168
        0x00019b16:    b1ea        ..      CBZ      r2,0x19b54 ; am_hal_uart_power_control + 172
        0x00019b18:    7921        !y      LDRB     r1,[r4,#4]
        0x00019b1a:    b301        ..      CBZ      r1,0x19b5e ; am_hal_uart_power_control + 182
        0x00019b1c:    b2c0        ..      UXTB     r0,r0
        0x00019b1e:    f7fffc8d    ....    BL       am_hal_pwrctrl_periph_enable ; 0x1943c
        0x00019b22:    f24c0100    L...    MOVW     r1,#0xc000
        0x00019b26:    68a0        .h      LDR      r0,[r4,#8]
        0x00019b28:    f2c40101    ....    MOVT     r1,#0x4001
        0x00019b2c:    eb013105    ...1    ADD      r1,r1,r5,LSL #12
        0x00019b30:    6208        .b      STR      r0,[r1,#0x20]
        0x00019b32:    68e0        .h      LDR      r0,[r4,#0xc]
        0x00019b34:    2500        .%      MOVS     r5,#0
        0x00019b36:    6248        Hb      STR      r0,[r1,#0x24]
        0x00019b38:    6920         i      LDR      r0,[r4,#0x10]
        0x00019b3a:    6288        .b      STR      r0,[r1,#0x28]
        0x00019b3c:    6960        `i      LDR      r0,[r4,#0x14]
        0x00019b3e:    62c8        .b      STR      r0,[r1,#0x2c]
        0x00019b40:    69a0        .i      LDR      r0,[r4,#0x18]
        0x00019b42:    6308        .c      STR      r0,[r1,#0x30]
        0x00019b44:    69e0        .i      LDR      r0,[r4,#0x1c]
        0x00019b46:    6348        Hc      STR      r0,[r1,#0x34]
        0x00019b48:    6a20         j      LDR      r0,[r4,#0x20]
        0x00019b4a:    6388        .c      STR      r0,[r1,#0x38]
        0x00019b4c:    7125        %q      STRB     r5,[r4,#4]
        0x00019b4e:    e7df        ..      B        0x19b10 ; am_hal_uart_power_control + 104
        0x00019b50:    2506        .%      MOVS     r5,#6
        0x00019b52:    e7dd        ..      B        0x19b10 ; am_hal_uart_power_control + 104
        0x00019b54:    b2c0        ..      UXTB     r0,r0
        0x00019b56:    f7fffc71    ..q.    BL       am_hal_pwrctrl_periph_enable ; 0x1943c
        0x00019b5a:    2500        .%      MOVS     r5,#0
        0x00019b5c:    e7d8        ..      B        0x19b10 ; am_hal_uart_power_control + 104
        0x00019b5e:    2507        .%      MOVS     r5,#7
        0x00019b60:    e7d6        ..      B        0x19b10 ; am_hal_uart_power_control + 104
        0x00019b62:    0000        ..      MOVS     r0,r0
    am_hal_uart_transfer
        0x00019b64:    b570        p.      PUSH     {r4-r6,lr}
        0x00019b66:    460c        .F      MOV      r4,r1
        0x00019b68:    7809        .x      LDRB     r1,[r1,#0]
        0x00019b6a:    2903        .)      CMP      r1,#3
        0x00019b6c:    d80a        ..      BHI      0x19b84 ; am_hal_uart_transfer + 32
        0x00019b6e:    4605        .F      MOV      r5,r0
        0x00019b70:    e8dff001    ....    TBB      [pc,r1]
    $d.12
        0x00019b74:    2c260a02    ..&,    DCD    740690434
    $t.13
        0x00019b78:    4628        (F      MOV      r0,r5
        0x00019b7a:    4621        !F      MOV      r1,r4
        0x00019b7c:    f001f981    ....    BL       nonblocking_write ; 0x1ae82
        0x00019b80:    b350        P.      CBZ      r0,0x19bd8 ; am_hal_uart_transfer + 116
        0x00019b82:    bd70        p.      POP      {r4-r6,pc}
        0x00019b84:    2001        .       MOVS     r0,#1
        0x00019b86:    bd70        p.      POP      {r4-r6,pc}
        0x00019b88:    4628        (F      MOV      r0,r5
        0x00019b8a:    4621        !F      MOV      r1,r4
        0x00019b8c:    f001f8e4    ....    BL       nonblocking_read ; 0x1ad58
        0x00019b90:    2800        .(      CMP      r0,#0
        0x00019b92:    d1f6        ..      BNE      0x19b82 ; am_hal_uart_transfer + 30
        0x00019b94:    f895002c    ..,.    LDRB     r0,[r5,#0x2c]
        0x00019b98:    b398        ..      CBZ      r0,0x19c02 ; am_hal_uart_transfer + 158
        0x00019b9a:    2600        .&      MOVS     r6,#0
        0x00019b9c:    4628        (F      MOV      r0,r5
        0x00019b9e:    f001f8f7    ....    BL       nonblocking_read_sm ; 0x1ad90
        0x00019ba2:    f44f707a    O.zp    MOV      r0,#0x3e8
        0x00019ba6:    f7fefff3    ....    BL       am_hal_delay_us ; 0x18b90
        0x00019baa:    6920         i      LDR      r0,[r4,#0x10]
        0x00019bac:    1c41        A.      ADDS     r1,r0,#1
        0x00019bae:    d002        ..      BEQ      0x19bb6 ; am_hal_uart_transfer + 82
        0x00019bb0:    3601        .6      ADDS     r6,#1
        0x00019bb2:    4286        .B      CMP      r6,r0
        0x00019bb4:    d027        '.      BEQ      0x19c06 ; am_hal_uart_transfer + 162
        0x00019bb6:    f895002c    ..,.    LDRB     r0,[r5,#0x2c]
        0x00019bba:    2800        .(      CMP      r0,#0
        0x00019bbc:    d1ee        ..      BNE      0x19b9c ; am_hal_uart_transfer + 56
        0x00019bbe:    e020         .      B        0x19c02 ; am_hal_uart_transfer + 158
        0x00019bc0:    4628        (F      MOV      r0,r5
        0x00019bc2:    4621        !F      MOV      r1,r4
        0x00019bc4:    e8bd4070    ..p@    POP      {r4-r6,lr}
        0x00019bc8:    f001b95b    ..[.    B.W      nonblocking_write ; 0x1ae82
        0x00019bcc:    4628        (F      MOV      r0,r5
        0x00019bce:    4621        !F      MOV      r1,r4
        0x00019bd0:    e8bd4070    ..p@    POP      {r4-r6,lr}
        0x00019bd4:    f001b8c0    ....    B.W      nonblocking_read ; 0x1ad58
        0x00019bd8:    f8950054    ..T.    LDRB     r0,[r5,#0x54]
        0x00019bdc:    b188        ..      CBZ      r0,0x19c02 ; am_hal_uart_transfer + 158
        0x00019bde:    2600        .&      MOVS     r6,#0
        0x00019be0:    4628        (F      MOV      r0,r5
        0x00019be2:    f001f96b    ..k.    BL       nonblocking_write_sm ; 0x1aebc
        0x00019be6:    f44f707a    O.zp    MOV      r0,#0x3e8
        0x00019bea:    f7feffd1    ....    BL       am_hal_delay_us ; 0x18b90
        0x00019bee:    6920         i      LDR      r0,[r4,#0x10]
        0x00019bf0:    1c41        A.      ADDS     r1,r0,#1
        0x00019bf2:    d002        ..      BEQ      0x19bfa ; am_hal_uart_transfer + 150
        0x00019bf4:    3601        .6      ADDS     r6,#1
        0x00019bf6:    4286        .B      CMP      r6,r0
        0x00019bf8:    d009        ..      BEQ      0x19c0e ; am_hal_uart_transfer + 170
        0x00019bfa:    f8950054    ..T.    LDRB     r0,[r5,#0x54]
        0x00019bfe:    2800        .(      CMP      r0,#0
        0x00019c00:    d1ee        ..      BNE      0x19be0 ; am_hal_uart_transfer + 124
        0x00019c02:    2000        .       MOVS     r0,#0
        0x00019c04:    bd70        p.      POP      {r4-r6,pc}
        0x00019c06:    2000        .       MOVS     r0,#0
        0x00019c08:    f885002c    ..,.    STRB     r0,[r5,#0x2c]
        0x00019c0c:    e002        ..      B        0x19c14 ; am_hal_uart_transfer + 176
        0x00019c0e:    2000        .       MOVS     r0,#0
        0x00019c10:    f8850054    ..T.    STRB     r0,[r5,#0x54]
        0x00019c14:    2004        .       MOVS     r0,#4
        0x00019c16:    bd70        p.      POP      {r4-r6,pc}
    am_util_faultisr_collect_data
        0x00019c18:    b580        ..      PUSH     {r7,lr}
        0x00019c1a:    b096        ..      SUB      sp,sp,#0x58
        0x00019c1c:    9015        ..      STR      r0,[sp,#0x54]
        0x00019c1e:    2000        .       MOVS     r0,#0
        0x00019c20:    9008        ..      STR      r0,[sp,#0x20]
        0x00019c22:    9007        ..      STR      r0,[sp,#0x1c]
        0x00019c24:    9006        ..      STR      r0,[sp,#0x18]
        0x00019c26:    9005        ..      STR      r0,[sp,#0x14]
        0x00019c28:    9004        ..      STR      r0,[sp,#0x10]
        0x00019c2a:    9003        ..      STR      r0,[sp,#0xc]
        0x00019c2c:    9002        ..      STR      r0,[sp,#8]
        0x00019c2e:    9802        ..      LDR      r0,[sp,#8]
        0x00019c30:    9013        ..      STR      r0,[sp,#0x4c]
        0x00019c32:    f64e5028    N.(P    MOV      r0,#0xed28
        0x00019c36:    f2ce0000    ....    MOVT     r0,#0xe000
        0x00019c3a:    6800        .h      LDR      r0,[r0,#0]
        0x00019c3c:    9013        ..      STR      r0,[sp,#0x4c]
        0x00019c3e:    9813        ..      LDR      r0,[sp,#0x4c]
        0x00019c40:    f88d0050    ..P.    STRB     r0,[sp,#0x50]
        0x00019c44:    9813        ..      LDR      r0,[sp,#0x4c]
        0x00019c46:    0a00        ..      LSRS     r0,r0,#8
        0x00019c48:    f88d0051    ..Q.    STRB     r0,[sp,#0x51]
        0x00019c4c:    9813        ..      LDR      r0,[sp,#0x4c]
        0x00019c4e:    0c00        ..      LSRS     r0,r0,#16
        0x00019c50:    f8ad0052    ..R.    STRH     r0,[sp,#0x52]
        0x00019c54:    f64e5038    N.8P    MOV      r0,#0xed38
        0x00019c58:    f2ce0000    ....    MOVT     r0,#0xe000
        0x00019c5c:    6800        .h      LDR      r0,[r0,#0]
        0x00019c5e:    9012        ..      STR      r0,[sp,#0x48]
        0x00019c60:    9815        ..      LDR      r0,[sp,#0x54]
        0x00019c62:    f000fcd7    ....    BL       am_valid_sp ; 0x1a614
        0x00019c66:    b3d8        ..      CBZ      r0,0x19ce0 ; am_util_faultisr_collect_data + 200
        0x00019c68:    e7ff        ..      B        0x19c6a ; am_util_faultisr_collect_data + 82
        0x00019c6a:    f89d0051    ..Q.    LDRB     r0,[sp,#0x51]
        0x00019c6e:    0780        ..      LSLS     r0,r0,#30
        0x00019c70:    2800        .(      CMP      r0,#0
        0x00019c72:    d506        ..      BPL      0x19c82 ; am_util_faultisr_collect_data + 106
        0x00019c74:    e7ff        ..      B        0x19c76 ; am_util_faultisr_collect_data + 94
        0x00019c76:    9915        ..      LDR      r1,[sp,#0x54]
        0x00019c78:    2006        .       MOVS     r0,#6
        0x00019c7a:    f000ff9d    ....    BL       getStackedReg ; 0x1abb8
        0x00019c7e:    9001        ..      STR      r0,[sp,#4]
        0x00019c80:    e003        ..      B        0x19c8a ; am_util_faultisr_collect_data + 114
        0x00019c82:    f04f30ff    O..0    MOV      r0,#0xffffffff
        0x00019c86:    9001        ..      STR      r0,[sp,#4]
        0x00019c88:    e7ff        ..      B        0x19c8a ; am_util_faultisr_collect_data + 114
        0x00019c8a:    9801        ..      LDR      r0,[sp,#4]
        0x00019c8c:    9011        ..      STR      r0,[sp,#0x44]
        0x00019c8e:    9915        ..      LDR      r1,[sp,#0x54]
        0x00019c90:    2000        .       MOVS     r0,#0
        0x00019c92:    f000ff91    ....    BL       getStackedReg ; 0x1abb8
        0x00019c96:    9009        ..      STR      r0,[sp,#0x24]
        0x00019c98:    9915        ..      LDR      r1,[sp,#0x54]
        0x00019c9a:    2001        .       MOVS     r0,#1
        0x00019c9c:    f000ff8c    ....    BL       getStackedReg ; 0x1abb8
        0x00019ca0:    900a        ..      STR      r0,[sp,#0x28]
        0x00019ca2:    9915        ..      LDR      r1,[sp,#0x54]
        0x00019ca4:    2002        .       MOVS     r0,#2
        0x00019ca6:    f000ff87    ....    BL       getStackedReg ; 0x1abb8
        0x00019caa:    900b        ..      STR      r0,[sp,#0x2c]
        0x00019cac:    9915        ..      LDR      r1,[sp,#0x54]
        0x00019cae:    2003        .       MOVS     r0,#3
        0x00019cb0:    f000ff82    ....    BL       getStackedReg ; 0x1abb8
        0x00019cb4:    900c        ..      STR      r0,[sp,#0x30]
        0x00019cb6:    9915        ..      LDR      r1,[sp,#0x54]
        0x00019cb8:    2004        .       MOVS     r0,#4
        0x00019cba:    f000ff7d    ..}.    BL       getStackedReg ; 0x1abb8
        0x00019cbe:    900d        ..      STR      r0,[sp,#0x34]
        0x00019cc0:    9915        ..      LDR      r1,[sp,#0x54]
        0x00019cc2:    2005        .       MOVS     r0,#5
        0x00019cc4:    f000ff78    ..x.    BL       getStackedReg ; 0x1abb8
        0x00019cc8:    900e        ..      STR      r0,[sp,#0x38]
        0x00019cca:    9915        ..      LDR      r1,[sp,#0x54]
        0x00019ccc:    2006        .       MOVS     r0,#6
        0x00019cce:    f000ff73    ..s.    BL       getStackedReg ; 0x1abb8
        0x00019cd2:    900f        ..      STR      r0,[sp,#0x3c]
        0x00019cd4:    9915        ..      LDR      r1,[sp,#0x54]
        0x00019cd6:    2007        .       MOVS     r0,#7
        0x00019cd8:    f000ff6e    ..n.    BL       getStackedReg ; 0x1abb8
        0x00019cdc:    9010        ..      STR      r0,[sp,#0x40]
        0x00019cde:    e7ff        ..      B        0x19ce0 ; am_util_faultisr_collect_data + 200
        0x00019ce0:    a803        ..      ADD      r0,sp,#0xc
        0x00019ce2:    f7feffcc    ....    BL       am_hal_fault_status_get ; 0x18c7e
        0x00019ce6:    f24e305c    N.\0    MOV      r0,#0xe35c
        0x00019cea:    f2c00001    ....    MOVT     r0,#1
        0x00019cee:    f000f927    ..'.    BL       am_util_stdio_printf ; 0x19f40
        0x00019cf2:    9815        ..      LDR      r0,[sp,#0x54]
        0x00019cf4:    f000fc8e    ....    BL       am_valid_sp ; 0x1a614
        0x00019cf8:    b938        8.      CBNZ     r0,0x19d0a ; am_util_faultisr_collect_data + 242
        0x00019cfa:    e7ff        ..      B        0x19cfc ; am_util_faultisr_collect_data + 228
        0x00019cfc:    f24e20eb    N..     MOV      r0,#0xe2eb
        0x00019d00:    f2c00001    ....    MOVT     r0,#1
        0x00019d04:    f000f91c    ....    BL       am_util_stdio_printf ; 0x19f40
        0x00019d08:    e03e        >.      B        0x19d88 ; am_util_faultisr_collect_data + 368
        0x00019d0a:    f24e3089    N..0    MOV      r0,#0xe389
        0x00019d0e:    f2c00001    ....    MOVT     r0,#1
        0x00019d12:    f000f915    ....    BL       am_util_stdio_printf ; 0x19f40
        0x00019d16:    9909        ..      LDR      r1,[sp,#0x24]
        0x00019d18:    f24e509c    N..P    MOV      r0,#0xe59c
        0x00019d1c:    f2c00001    ....    MOVT     r0,#1
        0x00019d20:    f000f90e    ....    BL       am_util_stdio_printf ; 0x19f40
        0x00019d24:    990a        ..      LDR      r1,[sp,#0x28]
        0x00019d26:    f24e50ae    N..P    MOV      r0,#0xe5ae
        0x00019d2a:    f2c00001    ....    MOVT     r0,#1
        0x00019d2e:    f000f907    ....    BL       am_util_stdio_printf ; 0x19f40
        0x00019d32:    990b        ..      LDR      r1,[sp,#0x2c]
        0x00019d34:    f24e50c0    N..P    MOV      r0,#0xe5c0
        0x00019d38:    f2c00001    ....    MOVT     r0,#1
        0x00019d3c:    f000f900    ....    BL       am_util_stdio_printf ; 0x19f40
        0x00019d40:    990c        ..      LDR      r1,[sp,#0x30]
        0x00019d42:    f24e50d2    N..P    MOV      r0,#0xe5d2
        0x00019d46:    f2c00001    ....    MOVT     r0,#1
        0x00019d4a:    f000f8f9    ....    BL       am_util_stdio_printf ; 0x19f40
        0x00019d4e:    990d        ..      LDR      r1,[sp,#0x34]
        0x00019d50:    f24e6030    N.0`    MOV      r0,#0xe630
        0x00019d54:    f2c00001    ....    MOVT     r0,#1
        0x00019d58:    f000f8f2    ....    BL       am_util_stdio_printf ; 0x19f40
        0x00019d5c:    990e        ..      LDR      r1,[sp,#0x38]
        0x00019d5e:    f24e50f6    N..P    MOV      r0,#0xe5f6
        0x00019d62:    f2c00001    ....    MOVT     r0,#1
        0x00019d66:    f000f8eb    ....    BL       am_util_stdio_printf ; 0x19f40
        0x00019d6a:    990f        ..      LDR      r1,[sp,#0x3c]
        0x00019d6c:    f24e50e4    N..P    MOV      r0,#0xe5e4
        0x00019d70:    f2c00001    ....    MOVT     r0,#1
        0x00019d74:    f000f8e4    ....    BL       am_util_stdio_printf ; 0x19f40
        0x00019d78:    9910        ..      LDR      r1,[sp,#0x40]
        0x00019d7a:    f24e3076    N.v0    MOV      r0,#0xe376
        0x00019d7e:    f2c00001    ....    MOVT     r0,#1
        0x00019d82:    f000f8dd    ....    BL       am_util_stdio_printf ; 0x19f40
        0x00019d86:    e7ff        ..      B        0x19d88 ; am_util_faultisr_collect_data + 368
        0x00019d88:    f24e30b5    N..0    MOV      r0,#0xe3b5
        0x00019d8c:    f2c00001    ....    MOVT     r0,#1
        0x00019d90:    f000f8d6    ....    BL       am_util_stdio_printf ; 0x19f40
        0x00019d94:    9911        ..      LDR      r1,[sp,#0x44]
        0x00019d96:    f24e6042    N.B`    MOV      r0,#0xe642
        0x00019d9a:    f2c00001    ....    MOVT     r0,#1
        0x00019d9e:    f000f8cf    ....    BL       am_util_stdio_printf ; 0x19f40
        0x00019da2:    9912        ..      LDR      r1,[sp,#0x48]
        0x00019da4:    f24e6008    N..`    MOV      r0,#0xe608
        0x00019da8:    f2c00001    ....    MOVT     r0,#1
        0x00019dac:    f000f8c8    ....    BL       am_util_stdio_printf ; 0x19f40
        0x00019db0:    f89d1050    ..P.    LDRB     r1,[sp,#0x50]
        0x00019db4:    f24e40e0    N..@    MOV      r0,#0xe4e0
        0x00019db8:    f2c00001    ....    MOVT     r0,#1
        0x00019dbc:    f000f8c0    ....    BL       am_util_stdio_printf ; 0x19f40
        0x00019dc0:    f8bd1052    ..R.    LDRH     r1,[sp,#0x52]
        0x00019dc4:    f24e500f    N..P    MOV      r0,#0xe50f
        0x00019dc8:    f2c00001    ....    MOVT     r0,#1
        0x00019dcc:    f000f8b8    ....    BL       am_util_stdio_printf ; 0x19f40
        0x00019dd0:    f89d1051    ..Q.    LDRB     r1,[sp,#0x51]
        0x00019dd4:    f24e40b6    N..@    MOV      r0,#0xe4b6
        0x00019dd8:    f2c00001    ....    MOVT     r0,#1
        0x00019ddc:    f000f8b0    ....    BL       am_util_stdio_printf ; 0x19f40
        0x00019de0:    2080        .       MOVS     r0,#0x80
        0x00019de2:    9002        ..      STR      r0,[sp,#8]
        0x00019de4:    e7ff        ..      B        0x19de6 ; am_util_faultisr_collect_data + 462
        0x00019de6:    9802        ..      LDR      r0,[sp,#8]
        0x00019de8:    2800        .(      CMP      r0,#0
        0x00019dea:    d062        b.      BEQ      0x19eb2 ; am_util_faultisr_collect_data + 666
        0x00019dec:    e7ff        ..      B        0x19dee ; am_util_faultisr_collect_data + 470
        0x00019dee:    f89d0051    ..Q.    LDRB     r0,[sp,#0x51]
        0x00019df2:    9902        ..      LDR      r1,[sp,#8]
        0x00019df4:    4008        .@      ANDS     r0,r0,r1
        0x00019df6:    4601        .F      MOV      r1,r0
        0x00019df8:    9100        ..      STR      r1,[sp,#0]
        0x00019dfa:    2801        .(      CMP      r0,#1
        0x00019dfc:    d04d        M.      BEQ      0x19e9a ; am_util_faultisr_collect_data + 642
        0x00019dfe:    e7ff        ..      B        0x19e00 ; am_util_faultisr_collect_data + 488
        0x00019e00:    9800        ..      LDR      r0,[sp,#0]
        0x00019e02:    2802        .(      CMP      r0,#2
        0x00019e04:    d042        B.      BEQ      0x19e8c ; am_util_faultisr_collect_data + 628
        0x00019e06:    e7ff        ..      B        0x19e08 ; am_util_faultisr_collect_data + 496
        0x00019e08:    9800        ..      LDR      r0,[sp,#0]
        0x00019e0a:    2804        .(      CMP      r0,#4
        0x00019e0c:    d037        7.      BEQ      0x19e7e ; am_util_faultisr_collect_data + 614
        0x00019e0e:    e7ff        ..      B        0x19e10 ; am_util_faultisr_collect_data + 504
        0x00019e10:    9800        ..      LDR      r0,[sp,#0]
        0x00019e12:    2808        .(      CMP      r0,#8
        0x00019e14:    d02c        ,.      BEQ      0x19e70 ; am_util_faultisr_collect_data + 600
        0x00019e16:    e7ff        ..      B        0x19e18 ; am_util_faultisr_collect_data + 512
        0x00019e18:    9800        ..      LDR      r0,[sp,#0]
        0x00019e1a:    2810        .(      CMP      r0,#0x10
        0x00019e1c:    d021        !.      BEQ      0x19e62 ; am_util_faultisr_collect_data + 586
        0x00019e1e:    e7ff        ..      B        0x19e20 ; am_util_faultisr_collect_data + 520
        0x00019e20:    9800        ..      LDR      r0,[sp,#0]
        0x00019e22:    2820         (      CMP      r0,#0x20
        0x00019e24:    d016        ..      BEQ      0x19e54 ; am_util_faultisr_collect_data + 572
        0x00019e26:    e7ff        ..      B        0x19e28 ; am_util_faultisr_collect_data + 528
        0x00019e28:    9800        ..      LDR      r0,[sp,#0]
        0x00019e2a:    2840        @(      CMP      r0,#0x40
        0x00019e2c:    d00b        ..      BEQ      0x19e46 ; am_util_faultisr_collect_data + 558
        0x00019e2e:    e7ff        ..      B        0x19e30 ; am_util_faultisr_collect_data + 536
        0x00019e30:    9800        ..      LDR      r0,[sp,#0]
        0x00019e32:    2880        .(      CMP      r0,#0x80
        0x00019e34:    d138        8.      BNE      0x19ea8 ; am_util_faultisr_collect_data + 656
        0x00019e36:    e7ff        ..      B        0x19e38 ; am_util_faultisr_collect_data + 544
        0x00019e38:    f24e30ea    N..0    MOV      r0,#0xe3ea
        0x00019e3c:    f2c00001    ....    MOVT     r0,#1
        0x00019e40:    f000f87e    ..~.    BL       am_util_stdio_printf ; 0x19f40
        0x00019e44:    e031        1.      B        0x19eaa ; am_util_faultisr_collect_data + 658
        0x00019e46:    f24e30cd    N..0    MOV      r0,#0xe3cd
        0x00019e4a:    f2c00001    ....    MOVT     r0,#1
        0x00019e4e:    f000f877    ..w.    BL       am_util_stdio_printf ; 0x19f40
        0x00019e52:    e02a        *.      B        0x19eaa ; am_util_faultisr_collect_data + 658
        0x00019e54:    f24e405f    N._@    MOV      r0,#0xe45f
        0x00019e58:    f2c00001    ....    MOVT     r0,#1
        0x00019e5c:    f000f870    ..p.    BL       am_util_stdio_printf ; 0x19f40
        0x00019e60:    e023        #.      B        0x19eaa ; am_util_faultisr_collect_data + 658
        0x00019e62:    f24e4027    N.'@    MOV      r0,#0xe427
        0x00019e66:    f2c00001    ....    MOVT     r0,#1
        0x00019e6a:    f000f869    ..i.    BL       am_util_stdio_printf ; 0x19f40
        0x00019e6e:    e01c        ..      B        0x19eaa ; am_util_faultisr_collect_data + 658
        0x00019e70:    f24e4042    N.B@    MOV      r0,#0xe442
        0x00019e74:    f2c00001    ....    MOVT     r0,#1
        0x00019e78:    f000f862    ..b.    BL       am_util_stdio_printf ; 0x19f40
        0x00019e7c:    e015        ..      B        0x19eaa ; am_util_faultisr_collect_data + 658
        0x00019e7e:    f24e407a    N.z@    MOV      r0,#0xe47a
        0x00019e82:    f2c00001    ....    MOVT     r0,#1
        0x00019e86:    f000f85b    ..[.    BL       am_util_stdio_printf ; 0x19f40
        0x00019e8a:    e00e        ..      B        0x19eaa ; am_util_faultisr_collect_data + 658
        0x00019e8c:    f24e4008    N..@    MOV      r0,#0xe408
        0x00019e90:    f2c00001    ....    MOVT     r0,#1
        0x00019e94:    f000f854    ..T.    BL       am_util_stdio_printf ; 0x19f40
        0x00019e98:    e007        ..      B        0x19eaa ; am_util_faultisr_collect_data + 658
        0x00019e9a:    f24e409a    N..@    MOV      r0,#0xe49a
        0x00019e9e:    f2c00001    ....    MOVT     r0,#1
        0x00019ea2:    f000f84d    ..M.    BL       am_util_stdio_printf ; 0x19f40
        0x00019ea6:    e000        ..      B        0x19eaa ; am_util_faultisr_collect_data + 658
        0x00019ea8:    e7ff        ..      B        0x19eaa ; am_util_faultisr_collect_data + 658
        0x00019eaa:    9802        ..      LDR      r0,[sp,#8]
        0x00019eac:    0840        @.      LSRS     r0,r0,#1
        0x00019eae:    9002        ..      STR      r0,[sp,#8]
        0x00019eb0:    e799        ..      B        0x19de6 ; am_util_faultisr_collect_data + 462
        0x00019eb2:    f89d000c    ....    LDRB     r0,[sp,#0xc]
        0x00019eb6:    07c0        ..      LSLS     r0,r0,#31
        0x00019eb8:    b950        P.      CBNZ     r0,0x19ed0 ; am_util_faultisr_collect_data + 696
        0x00019eba:    e7ff        ..      B        0x19ebc ; am_util_faultisr_collect_data + 676
        0x00019ebc:    f89d0014    ....    LDRB     r0,[sp,#0x14]
        0x00019ec0:    07c0        ..      LSLS     r0,r0,#31
        0x00019ec2:    b928        (.      CBNZ     r0,0x19ed0 ; am_util_faultisr_collect_data + 696
        0x00019ec4:    e7ff        ..      B        0x19ec6 ; am_util_faultisr_collect_data + 686
        0x00019ec6:    f89d001c    ....    LDRB     r0,[sp,#0x1c]
        0x00019eca:    07c0        ..      LSLS     r0,r0,#31
        0x00019ecc:    b138        8.      CBZ      r0,0x19ede ; am_util_faultisr_collect_data + 710
        0x00019ece:    e7ff        ..      B        0x19ed0 ; am_util_faultisr_collect_data + 696
        0x00019ed0:    f24e30a3    N..0    MOV      r0,#0xe3a3
        0x00019ed4:    f2c00001    ....    MOVT     r0,#1
        0x00019ed8:    f000f832    ..2.    BL       am_util_stdio_printf ; 0x19f40
        0x00019edc:    e7ff        ..      B        0x19ede ; am_util_faultisr_collect_data + 710
        0x00019ede:    f89d000c    ....    LDRB     r0,[sp,#0xc]
        0x00019ee2:    07c0        ..      LSLS     r0,r0,#31
        0x00019ee4:    b140        @.      CBZ      r0,0x19ef8 ; am_util_faultisr_collect_data + 736
        0x00019ee6:    e7ff        ..      B        0x19ee8 ; am_util_faultisr_collect_data + 720
        0x00019ee8:    9904        ..      LDR      r1,[sp,#0x10]
        0x00019eea:    f24e505c    N.\P    MOV      r0,#0xe55c
        0x00019eee:    f2c00001    ....    MOVT     r0,#1
        0x00019ef2:    f000f825    ..%.    BL       am_util_stdio_printf ; 0x19f40
        0x00019ef6:    e7ff        ..      B        0x19ef8 ; am_util_faultisr_collect_data + 736
        0x00019ef8:    f89d0014    ....    LDRB     r0,[sp,#0x14]
        0x00019efc:    07c0        ..      LSLS     r0,r0,#31
        0x00019efe:    b140        @.      CBZ      r0,0x19f12 ; am_util_faultisr_collect_data + 762
        0x00019f00:    e7ff        ..      B        0x19f02 ; am_util_faultisr_collect_data + 746
        0x00019f02:    9906        ..      LDR      r1,[sp,#0x18]
        0x00019f04:    f24e503b    N.;P    MOV      r0,#0xe53b
        0x00019f08:    f2c00001    ....    MOVT     r0,#1
        0x00019f0c:    f000f818    ....    BL       am_util_stdio_printf ; 0x19f40
        0x00019f10:    e7ff        ..      B        0x19f12 ; am_util_faultisr_collect_data + 762
        0x00019f12:    f89d001c    ....    LDRB     r0,[sp,#0x1c]
        0x00019f16:    07c0        ..      LSLS     r0,r0,#31
        0x00019f18:    b140        @.      CBZ      r0,0x19f2c ; am_util_faultisr_collect_data + 788
        0x00019f1a:    e7ff        ..      B        0x19f1c ; am_util_faultisr_collect_data + 772
        0x00019f1c:    9908        ..      LDR      r1,[sp,#0x20]
        0x00019f1e:    f24e507d    N.}P    MOV      r0,#0xe57d
        0x00019f22:    f2c00001    ....    MOVT     r0,#1
        0x00019f26:    f000f80b    ....    BL       am_util_stdio_printf ; 0x19f40
        0x00019f2a:    e7ff        ..      B        0x19f2c ; am_util_faultisr_collect_data + 788
        0x00019f2c:    f24e302e    N..0    MOV      r0,#0xe32e
        0x00019f30:    f2c00001    ....    MOVT     r0,#1
        0x00019f34:    f000f804    ....    BL       am_util_stdio_printf ; 0x19f40
        0x00019f38:    2000        .       MOVS     r0,#0
        0x00019f3a:    9002        ..      STR      r0,[sp,#8]
        0x00019f3c:    e7ff        ..      B        0x19f3e ; am_util_faultisr_collect_data + 806
        0x00019f3e:    e7fe        ..      B        0x19f3e ; am_util_faultisr_collect_data + 806
    am_util_stdio_printf
        0x00019f40:    b083        ..      SUB      sp,sp,#0xc
        0x00019f42:    b580        ..      PUSH     {r7,lr}
        0x00019f44:    b085        ..      SUB      sp,sp,#0x14
        0x00019f46:    9309        ..      STR      r3,[sp,#0x24]
        0x00019f48:    9208        ..      STR      r2,[sp,#0x20]
        0x00019f4a:    9107        ..      STR      r1,[sp,#0x1c]
        0x00019f4c:    9003        ..      STR      r0,[sp,#0xc]
        0x00019f4e:    f6403000    @..0    MOVW     r0,#0xb00
        0x00019f52:    f2c10000    ....    MOVT     r0,#0x1000
        0x00019f56:    6800        .h      LDR      r0,[r0,#0]
        0x00019f58:    b918        ..      CBNZ     r0,0x19f62 ; am_util_stdio_printf + 34
        0x00019f5a:    e7ff        ..      B        0x19f5c ; am_util_stdio_printf + 28
        0x00019f5c:    2000        .       MOVS     r0,#0
        0x00019f5e:    9004        ..      STR      r0,[sp,#0x10]
        0x00019f60:    e016        ..      B        0x19f90 ; am_util_stdio_printf + 80
        0x00019f62:    a807        ..      ADD      r0,sp,#0x1c
        0x00019f64:    9001        ..      STR      r0,[sp,#4]
        0x00019f66:    9903        ..      LDR      r1,[sp,#0xc]
        0x00019f68:    9a01        ..      LDR      r2,[sp,#4]
        0x00019f6a:    f6403004    @..0    MOV      r0,#0xb04
        0x00019f6e:    f2c10000    ....    MOVT     r0,#0x1000
        0x00019f72:    9000        ..      STR      r0,[sp,#0]
        0x00019f74:    f000f824    ..$.    BL       am_util_stdio_vsprintf ; 0x19fc0
        0x00019f78:    4601        .F      MOV      r1,r0
        0x00019f7a:    9800        ..      LDR      r0,[sp,#0]
        0x00019f7c:    9102        ..      STR      r1,[sp,#8]
        0x00019f7e:    f6403100    @..1    MOVW     r1,#0xb00
        0x00019f82:    f2c10100    ....    MOVT     r1,#0x1000
        0x00019f86:    6809        .h      LDR      r1,[r1,#0]
        0x00019f88:    4788        .G      BLX      r1
        0x00019f8a:    9802        ..      LDR      r0,[sp,#8]
        0x00019f8c:    9004        ..      STR      r0,[sp,#0x10]
        0x00019f8e:    e7ff        ..      B        0x19f90 ; am_util_stdio_printf + 80
        0x00019f90:    9804        ..      LDR      r0,[sp,#0x10]
        0x00019f92:    b005        ..      ADD      sp,sp,#0x14
        0x00019f94:    e8bd4080    ...@    POP      {r7,lr}
        0x00019f98:    b003        ..      ADD      sp,sp,#0xc
        0x00019f9a:    4770        pG      BX       lr
    am_util_stdio_printf_init
        0x00019f9c:    b081        ..      SUB      sp,sp,#4
        0x00019f9e:    9000        ..      STR      r0,[sp,#0]
        0x00019fa0:    9800        ..      LDR      r0,[sp,#0]
        0x00019fa2:    f6403100    @..1    MOVW     r1,#0xb00
        0x00019fa6:    f2c10100    ....    MOVT     r1,#0x1000
        0x00019faa:    6008        .`      STR      r0,[r1,#0]
        0x00019fac:    b001        ..      ADD      sp,sp,#4
        0x00019fae:    4770        pG      BX       lr
    am_util_stdio_terminal_clear
        0x00019fb0:    b580        ..      PUSH     {r7,lr}
        0x00019fb2:    f24e605e    N.^`    MOV      r0,#0xe65e
        0x00019fb6:    f2c00001    ....    MOVT     r0,#1
        0x00019fba:    f7ffffc1    ....    BL       am_util_stdio_printf ; 0x19f40
        0x00019fbe:    bd80        ..      POP      {r7,pc}
    am_util_stdio_vsprintf
        0x00019fc0:    b580        ..      PUSH     {r7,lr}
        0x00019fc2:    b09e        ..      SUB      sp,sp,#0x78
        0x00019fc4:    921d        ..      STR      r2,[sp,#0x74]
        0x00019fc6:    901c        ..      STR      r0,[sp,#0x70]
        0x00019fc8:    911b        ..      STR      r1,[sp,#0x6c]
        0x00019fca:    2000        .       MOVS     r0,#0
        0x00019fcc:    9014        ..      STR      r0,[sp,#0x50]
        0x00019fce:    900e        ..      STR      r0,[sp,#0x38]
        0x00019fd0:    e7ff        ..      B        0x19fd2 ; am_util_stdio_vsprintf + 18
        0x00019fd2:    981b        ..      LDR      r0,[sp,#0x6c]
        0x00019fd4:    7800        .x      LDRB     r0,[r0,#0]
        0x00019fd6:    2800        .(      CMP      r0,#0
        0x00019fd8:    f0008312    ....    BEQ.W    0x1a600 ; am_util_stdio_vsprintf + 1600
        0x00019fdc:    e7ff        ..      B        0x19fde ; am_util_stdio_vsprintf + 30
        0x00019fde:    2006        .       MOVS     r0,#6
        0x00019fe0:    9011        ..      STR      r0,[sp,#0x44]
        0x00019fe2:    981b        ..      LDR      r0,[sp,#0x6c]
        0x00019fe4:    7800        .x      LDRB     r0,[r0,#0]
        0x00019fe6:    2825        %(      CMP      r0,#0x25
        0x00019fe8:    d027        '.      BEQ      0x1a03a ; am_util_stdio_vsprintf + 122
        0x00019fea:    e7ff        ..      B        0x19fec ; am_util_stdio_vsprintf + 44
        0x00019fec:    981c        ..      LDR      r0,[sp,#0x70]
        0x00019fee:    b1e8        ..      CBZ      r0,0x1a02c ; am_util_stdio_vsprintf + 108
        0x00019ff0:    e7ff        ..      B        0x19ff2 ; am_util_stdio_vsprintf + 50
        0x00019ff2:    981b        ..      LDR      r0,[sp,#0x6c]
        0x00019ff4:    7800        .x      LDRB     r0,[r0,#0]
        0x00019ff6:    280a        .(      CMP      r0,#0xa
        0x00019ff8:    d111        ..      BNE      0x1a01e ; am_util_stdio_vsprintf + 94
        0x00019ffa:    e7ff        ..      B        0x19ffc ; am_util_stdio_vsprintf + 60
        0x00019ffc:    f64020e2    @..     MOV      r0,#0xae2
        0x0001a000:    f2c10000    ....    MOVT     r0,#0x1000
        0x0001a004:    7800        .x      LDRB     r0,[r0,#0]
        0x0001a006:    07c0        ..      LSLS     r0,r0,#31
        0x0001a008:    b148        H.      CBZ      r0,0x1a01e ; am_util_stdio_vsprintf + 94
        0x0001a00a:    e7ff        ..      B        0x1a00c ; am_util_stdio_vsprintf + 76
        0x0001a00c:    991c        ..      LDR      r1,[sp,#0x70]
        0x0001a00e:    1c48        H.      ADDS     r0,r1,#1
        0x0001a010:    901c        ..      STR      r0,[sp,#0x70]
        0x0001a012:    200d        .       MOVS     r0,#0xd
        0x0001a014:    7008        .p      STRB     r0,[r1,#0]
        0x0001a016:    9814        ..      LDR      r0,[sp,#0x50]
        0x0001a018:    3001        .0      ADDS     r0,#1
        0x0001a01a:    9014        ..      STR      r0,[sp,#0x50]
        0x0001a01c:    e7ff        ..      B        0x1a01e ; am_util_stdio_vsprintf + 94
        0x0001a01e:    981b        ..      LDR      r0,[sp,#0x6c]
        0x0001a020:    7800        .x      LDRB     r0,[r0,#0]
        0x0001a022:    991c        ..      LDR      r1,[sp,#0x70]
        0x0001a024:    1c4a        J.      ADDS     r2,r1,#1
        0x0001a026:    921c        ..      STR      r2,[sp,#0x70]
        0x0001a028:    7008        .p      STRB     r0,[r1,#0]
        0x0001a02a:    e7ff        ..      B        0x1a02c ; am_util_stdio_vsprintf + 108
        0x0001a02c:    981b        ..      LDR      r0,[sp,#0x6c]
        0x0001a02e:    3001        .0      ADDS     r0,#1
        0x0001a030:    901b        ..      STR      r0,[sp,#0x6c]
        0x0001a032:    9814        ..      LDR      r0,[sp,#0x50]
        0x0001a034:    3001        .0      ADDS     r0,#1
        0x0001a036:    9014        ..      STR      r0,[sp,#0x50]
        0x0001a038:    e7cb        ..      B        0x19fd2 ; am_util_stdio_vsprintf + 18
        0x0001a03a:    981b        ..      LDR      r0,[sp,#0x6c]
        0x0001a03c:    3001        .0      ADDS     r0,#1
        0x0001a03e:    901b        ..      STR      r0,[sp,#0x6c]
        0x0001a040:    2000        .       MOVS     r0,#0
        0x0001a042:    f88d0040    ..@.    STRB     r0,[sp,#0x40]
        0x0001a046:    f88d0041    ..A.    STRB     r0,[sp,#0x41]
        0x0001a04a:    2020                MOVS     r0,#0x20
        0x0001a04c:    f88d0042    ..B.    STRB     r0,[sp,#0x42]
        0x0001a050:    981b        ..      LDR      r0,[sp,#0x6c]
        0x0001a052:    7800        .x      LDRB     r0,[r0,#0]
        0x0001a054:    2830        0(      CMP      r0,#0x30
        0x0001a056:    d107        ..      BNE      0x1a068 ; am_util_stdio_vsprintf + 168
        0x0001a058:    e7ff        ..      B        0x1a05a ; am_util_stdio_vsprintf + 154
        0x0001a05a:    2030        0       MOVS     r0,#0x30
        0x0001a05c:    f88d0042    ..B.    STRB     r0,[sp,#0x42]
        0x0001a060:    981b        ..      LDR      r0,[sp,#0x6c]
        0x0001a062:    3001        .0      ADDS     r0,#1
        0x0001a064:    901b        ..      STR      r0,[sp,#0x6c]
        0x0001a066:    e7ff        ..      B        0x1a068 ; am_util_stdio_vsprintf + 168
        0x0001a068:    981b        ..      LDR      r0,[sp,#0x6c]
        0x0001a06a:    a915        ..      ADD      r1,sp,#0x54
        0x0001a06c:    f000fbac    ....    BL       decstr_to_int ; 0x1a7c8
        0x0001a070:    9013        ..      STR      r0,[sp,#0x4c]
        0x0001a072:    9915        ..      LDR      r1,[sp,#0x54]
        0x0001a074:    981b        ..      LDR      r0,[sp,#0x6c]
        0x0001a076:    4408        .D      ADD      r0,r0,r1
        0x0001a078:    901b        ..      STR      r0,[sp,#0x6c]
        0x0001a07a:    981b        ..      LDR      r0,[sp,#0x6c]
        0x0001a07c:    7800        .x      LDRB     r0,[r0,#0]
        0x0001a07e:    2873        s(      CMP      r0,#0x73
        0x0001a080:    d009        ..      BEQ      0x1a096 ; am_util_stdio_vsprintf + 214
        0x0001a082:    e7ff        ..      B        0x1a084 ; am_util_stdio_vsprintf + 196
        0x0001a084:    9813        ..      LDR      r0,[sp,#0x4c]
        0x0001a086:    f1b03fff    ...?    CMP      r0,#0xffffffff
        0x0001a08a:    dc04        ..      BGT      0x1a096 ; am_util_stdio_vsprintf + 214
        0x0001a08c:    e7ff        ..      B        0x1a08e ; am_util_stdio_vsprintf + 206
        0x0001a08e:    9813        ..      LDR      r0,[sp,#0x4c]
        0x0001a090:    4240        @B      RSBS     r0,r0,#0
        0x0001a092:    9013        ..      STR      r0,[sp,#0x4c]
        0x0001a094:    e7ff        ..      B        0x1a096 ; am_util_stdio_vsprintf + 214
        0x0001a096:    981b        ..      LDR      r0,[sp,#0x6c]
        0x0001a098:    7800        .x      LDRB     r0,[r0,#0]
        0x0001a09a:    282e        .(      CMP      r0,#0x2e
        0x0001a09c:    d10d        ..      BNE      0x1a0ba ; am_util_stdio_vsprintf + 250
        0x0001a09e:    e7ff        ..      B        0x1a0a0 ; am_util_stdio_vsprintf + 224
        0x0001a0a0:    981b        ..      LDR      r0,[sp,#0x6c]
        0x0001a0a2:    3001        .0      ADDS     r0,#1
        0x0001a0a4:    901b        ..      STR      r0,[sp,#0x6c]
        0x0001a0a6:    981b        ..      LDR      r0,[sp,#0x6c]
        0x0001a0a8:    a915        ..      ADD      r1,sp,#0x54
        0x0001a0aa:    f000fb8d    ....    BL       decstr_to_int ; 0x1a7c8
        0x0001a0ae:    9011        ..      STR      r0,[sp,#0x44]
        0x0001a0b0:    9915        ..      LDR      r1,[sp,#0x54]
        0x0001a0b2:    981b        ..      LDR      r0,[sp,#0x6c]
        0x0001a0b4:    4408        .D      ADD      r0,r0,r1
        0x0001a0b6:    901b        ..      STR      r0,[sp,#0x6c]
        0x0001a0b8:    e7ff        ..      B        0x1a0ba ; am_util_stdio_vsprintf + 250
        0x0001a0ba:    981b        ..      LDR      r0,[sp,#0x6c]
        0x0001a0bc:    7800        .x      LDRB     r0,[r0,#0]
        0x0001a0be:    286c        l(      CMP      r0,#0x6c
        0x0001a0c0:    d110        ..      BNE      0x1a0e4 ; am_util_stdio_vsprintf + 292
        0x0001a0c2:    e7ff        ..      B        0x1a0c4 ; am_util_stdio_vsprintf + 260
        0x0001a0c4:    981b        ..      LDR      r0,[sp,#0x6c]
        0x0001a0c6:    3001        .0      ADDS     r0,#1
        0x0001a0c8:    901b        ..      STR      r0,[sp,#0x6c]
        0x0001a0ca:    981b        ..      LDR      r0,[sp,#0x6c]
        0x0001a0cc:    7800        .x      LDRB     r0,[r0,#0]
        0x0001a0ce:    286c        l(      CMP      r0,#0x6c
        0x0001a0d0:    d107        ..      BNE      0x1a0e2 ; am_util_stdio_vsprintf + 290
        0x0001a0d2:    e7ff        ..      B        0x1a0d4 ; am_util_stdio_vsprintf + 276
        0x0001a0d4:    981b        ..      LDR      r0,[sp,#0x6c]
        0x0001a0d6:    3001        .0      ADDS     r0,#1
        0x0001a0d8:    901b        ..      STR      r0,[sp,#0x6c]
        0x0001a0da:    2001        .       MOVS     r0,#1
        0x0001a0dc:    f88d0040    ..@.    STRB     r0,[sp,#0x40]
        0x0001a0e0:    e7ff        ..      B        0x1a0e2 ; am_util_stdio_vsprintf + 290
        0x0001a0e2:    e7ff        ..      B        0x1a0e4 ; am_util_stdio_vsprintf + 292
        0x0001a0e4:    981b        ..      LDR      r0,[sp,#0x6c]
        0x0001a0e6:    7800        .x      LDRB     r0,[r0,#0]
        0x0001a0e8:    3846        F8      SUBS     r0,r0,#0x46
        0x0001a0ea:    4601        .F      MOV      r1,r0
        0x0001a0ec:    910b        ..      STR      r1,[sp,#0x2c]
        0x0001a0ee:    2832        2(      CMP      r0,#0x32
        0x0001a0f0:    f2008273    ..s.    BHI.W    0x1a5da ; am_util_stdio_vsprintf + 1562
        0x0001a0f4:    990b        ..      LDR      r1,[sp,#0x2c]
        0x0001a0f6:    e8dff011    ....    TBH      [pc,r1,LSL #1]
    $d.4
        0x0001a0fa:    0224        $.      DCW    548
        0x0001a0fc:    02700270    p.p.    DCD    40895088
        0x0001a100:    02700270    p.p.    DCD    40895088
        0x0001a104:    02700270    p.p.    DCD    40895088
        0x0001a108:    02700270    p.p.    DCD    40895088
        0x0001a10c:    02700270    p.p.    DCD    40895088
        0x0001a110:    02700270    p.p.    DCD    40895088
        0x0001a114:    02700270    p.p.    DCD    40895088
        0x0001a118:    02700270    p.p.    DCD    40895088
        0x0001a11c:    00bf0270    p...    DCD    12518000
        0x0001a120:    02700270    p.p.    DCD    40895088
        0x0001a124:    02700270    p.p.    DCD    40895088
        0x0001a128:    02700270    p.p.    DCD    40895088
        0x0001a12c:    02700270    p.p.    DCD    40895088
        0x0001a130:    02700270    p.p.    DCD    40895088
        0x0001a134:    016f0033    3.o.    DCD    24051763
        0x0001a138:    02240270    p.$.    DCD    35914352
        0x0001a13c:    02700270    p.p.    DCD    40895088
        0x0001a140:    0270016f    o.p.    DCD    40894831
        0x0001a144:    02700270    p.p.    DCD    40895088
        0x0001a148:    02700270    p.p.    DCD    40895088
        0x0001a14c:    02700270    p.p.    DCD    40895088
        0x0001a150:    02700270    p.p.    DCD    40895088
        0x0001a154:    02700047    G.p.    DCD    40894535
        0x0001a158:    02700119    ..p.    DCD    40894745
        0x0001a15c:    00bb0270    p...    DCD    12255856
    $t.5
        0x0001a160:    981d        ..      LDR      r0,[sp,#0x74]
        0x0001a162:    1d01        ..      ADDS     r1,r0,#4
        0x0001a164:    911d        ..      STR      r1,[sp,#0x74]
        0x0001a166:    6800        .h      LDR      r0,[r0,#0]
        0x0001a168:    f88d0043    ..C.    STRB     r0,[sp,#0x43]
        0x0001a16c:    981c        ..      LDR      r0,[sp,#0x70]
        0x0001a16e:    b138        8.      CBZ      r0,0x1a180 ; am_util_stdio_vsprintf + 448
        0x0001a170:    e7ff        ..      B        0x1a172 ; am_util_stdio_vsprintf + 434
        0x0001a172:    f89d0043    ..C.    LDRB     r0,[sp,#0x43]
        0x0001a176:    991c        ..      LDR      r1,[sp,#0x70]
        0x0001a178:    1c4a        J.      ADDS     r2,r1,#1
        0x0001a17a:    921c        ..      STR      r2,[sp,#0x70]
        0x0001a17c:    7008        .p      STRB     r0,[r1,#0]
        0x0001a17e:    e7ff        ..      B        0x1a180 ; am_util_stdio_vsprintf + 448
        0x0001a180:    9814        ..      LDR      r0,[sp,#0x50]
        0x0001a182:    3001        .0      ADDS     r0,#1
        0x0001a184:    9014        ..      STR      r0,[sp,#0x50]
        0x0001a186:    e236        6.      B        0x1a5f6 ; am_util_stdio_vsprintf + 1590
        0x0001a188:    981d        ..      LDR      r0,[sp,#0x74]
        0x0001a18a:    1d01        ..      ADDS     r1,r0,#4
        0x0001a18c:    911d        ..      STR      r1,[sp,#0x74]
        0x0001a18e:    6800        .h      LDR      r0,[r0,#0]
        0x0001a190:    901a        ..      STR      r0,[sp,#0x68]
        0x0001a192:    981a        ..      LDR      r0,[sp,#0x68]
        0x0001a194:    f000ff68    ..h.    BL       simple_strlen ; 0x1b068
        0x0001a198:    900e        ..      STR      r0,[sp,#0x38]
        0x0001a19a:    9813        ..      LDR      r0,[sp,#0x4c]
        0x0001a19c:    2801        .(      CMP      r0,#1
        0x0001a19e:    db25        %.      BLT      0x1a1ec ; am_util_stdio_vsprintf + 556
        0x0001a1a0:    e7ff        ..      B        0x1a1a2 ; am_util_stdio_vsprintf + 482
        0x0001a1a2:    980e        ..      LDR      r0,[sp,#0x38]
        0x0001a1a4:    9913        ..      LDR      r1,[sp,#0x4c]
        0x0001a1a6:    4288        .B      CMP      r0,r1
        0x0001a1a8:    d21f        ..      BCS      0x1a1ea ; am_util_stdio_vsprintf + 554
        0x0001a1aa:    e7ff        ..      B        0x1a1ac ; am_util_stdio_vsprintf + 492
        0x0001a1ac:    990e        ..      LDR      r1,[sp,#0x38]
        0x0001a1ae:    9813        ..      LDR      r0,[sp,#0x4c]
        0x0001a1b0:    1a40        @.      SUBS     r0,r0,r1
        0x0001a1b2:    9013        ..      STR      r0,[sp,#0x4c]
        0x0001a1b4:    981c        ..      LDR      r0,[sp,#0x70]
        0x0001a1b6:    f89d1042    ..B.    LDRB     r1,[sp,#0x42]
        0x0001a1ba:    9a13        ..      LDR      r2,[sp,#0x4c]
        0x0001a1bc:    f000ff02    ....    BL       padbuffer ; 0x1afc4
        0x0001a1c0:    9013        ..      STR      r0,[sp,#0x4c]
        0x0001a1c2:    981c        ..      LDR      r0,[sp,#0x70]
        0x0001a1c4:    b118        ..      CBZ      r0,0x1a1ce ; am_util_stdio_vsprintf + 526
        0x0001a1c6:    e7ff        ..      B        0x1a1c8 ; am_util_stdio_vsprintf + 520
        0x0001a1c8:    9813        ..      LDR      r0,[sp,#0x4c]
        0x0001a1ca:    900a        ..      STR      r0,[sp,#0x28]
        0x0001a1cc:    e002        ..      B        0x1a1d4 ; am_util_stdio_vsprintf + 532
        0x0001a1ce:    2000        .       MOVS     r0,#0
        0x0001a1d0:    900a        ..      STR      r0,[sp,#0x28]
        0x0001a1d2:    e7ff        ..      B        0x1a1d4 ; am_util_stdio_vsprintf + 532
        0x0001a1d4:    990a        ..      LDR      r1,[sp,#0x28]
        0x0001a1d6:    981c        ..      LDR      r0,[sp,#0x70]
        0x0001a1d8:    4408        .D      ADD      r0,r0,r1
        0x0001a1da:    901c        ..      STR      r0,[sp,#0x70]
        0x0001a1dc:    9913        ..      LDR      r1,[sp,#0x4c]
        0x0001a1de:    9814        ..      LDR      r0,[sp,#0x50]
        0x0001a1e0:    4408        .D      ADD      r0,r0,r1
        0x0001a1e2:    9014        ..      STR      r0,[sp,#0x50]
        0x0001a1e4:    2000        .       MOVS     r0,#0
        0x0001a1e6:    9013        ..      STR      r0,[sp,#0x4c]
        0x0001a1e8:    e7ff        ..      B        0x1a1ea ; am_util_stdio_vsprintf + 554
        0x0001a1ea:    e7ff        ..      B        0x1a1ec ; am_util_stdio_vsprintf + 556
        0x0001a1ec:    e7ff        ..      B        0x1a1ee ; am_util_stdio_vsprintf + 558
        0x0001a1ee:    981a        ..      LDR      r0,[sp,#0x68]
        0x0001a1f0:    7800        .x      LDRB     r0,[r0,#0]
        0x0001a1f2:    b188        ..      CBZ      r0,0x1a218 ; am_util_stdio_vsprintf + 600
        0x0001a1f4:    e7ff        ..      B        0x1a1f6 ; am_util_stdio_vsprintf + 566
        0x0001a1f6:    981c        ..      LDR      r0,[sp,#0x70]
        0x0001a1f8:    b138        8.      CBZ      r0,0x1a20a ; am_util_stdio_vsprintf + 586
        0x0001a1fa:    e7ff        ..      B        0x1a1fc ; am_util_stdio_vsprintf + 572
        0x0001a1fc:    981a        ..      LDR      r0,[sp,#0x68]
        0x0001a1fe:    7800        .x      LDRB     r0,[r0,#0]
        0x0001a200:    991c        ..      LDR      r1,[sp,#0x70]
        0x0001a202:    1c4a        J.      ADDS     r2,r1,#1
        0x0001a204:    921c        ..      STR      r2,[sp,#0x70]
        0x0001a206:    7008        .p      STRB     r0,[r1,#0]
        0x0001a208:    e7ff        ..      B        0x1a20a ; am_util_stdio_vsprintf + 586
        0x0001a20a:    981a        ..      LDR      r0,[sp,#0x68]
        0x0001a20c:    3001        .0      ADDS     r0,#1
        0x0001a20e:    901a        ..      STR      r0,[sp,#0x68]
        0x0001a210:    9814        ..      LDR      r0,[sp,#0x50]
        0x0001a212:    3001        .0      ADDS     r0,#1
        0x0001a214:    9014        ..      STR      r0,[sp,#0x50]
        0x0001a216:    e7ea        ..      B        0x1a1ee ; am_util_stdio_vsprintf + 558
        0x0001a218:    9813        ..      LDR      r0,[sp,#0x4c]
        0x0001a21a:    b340        @.      CBZ      r0,0x1a26e ; am_util_stdio_vsprintf + 686
        0x0001a21c:    e7ff        ..      B        0x1a21e ; am_util_stdio_vsprintf + 606
        0x0001a21e:    9813        ..      LDR      r0,[sp,#0x4c]
        0x0001a220:    4240        @B      RSBS     r0,r0,#0
        0x0001a222:    9013        ..      STR      r0,[sp,#0x4c]
        0x0001a224:    980e        ..      LDR      r0,[sp,#0x38]
        0x0001a226:    9913        ..      LDR      r1,[sp,#0x4c]
        0x0001a228:    4288        .B      CMP      r0,r1
        0x0001a22a:    d21f        ..      BCS      0x1a26c ; am_util_stdio_vsprintf + 684
        0x0001a22c:    e7ff        ..      B        0x1a22e ; am_util_stdio_vsprintf + 622
        0x0001a22e:    990e        ..      LDR      r1,[sp,#0x38]
        0x0001a230:    9813        ..      LDR      r0,[sp,#0x4c]
        0x0001a232:    1a40        @.      SUBS     r0,r0,r1
        0x0001a234:    9013        ..      STR      r0,[sp,#0x4c]
        0x0001a236:    981c        ..      LDR      r0,[sp,#0x70]
        0x0001a238:    f89d1042    ..B.    LDRB     r1,[sp,#0x42]
        0x0001a23c:    9a13        ..      LDR      r2,[sp,#0x4c]
        0x0001a23e:    f000fec1    ....    BL       padbuffer ; 0x1afc4
        0x0001a242:    9013        ..      STR      r0,[sp,#0x4c]
        0x0001a244:    981c        ..      LDR      r0,[sp,#0x70]
        0x0001a246:    b118        ..      CBZ      r0,0x1a250 ; am_util_stdio_vsprintf + 656
        0x0001a248:    e7ff        ..      B        0x1a24a ; am_util_stdio_vsprintf + 650
        0x0001a24a:    9813        ..      LDR      r0,[sp,#0x4c]
        0x0001a24c:    9009        ..      STR      r0,[sp,#0x24]
        0x0001a24e:    e002        ..      B        0x1a256 ; am_util_stdio_vsprintf + 662
        0x0001a250:    2000        .       MOVS     r0,#0
        0x0001a252:    9009        ..      STR      r0,[sp,#0x24]
        0x0001a254:    e7ff        ..      B        0x1a256 ; am_util_stdio_vsprintf + 662
        0x0001a256:    9909        ..      LDR      r1,[sp,#0x24]
        0x0001a258:    981c        ..      LDR      r0,[sp,#0x70]
        0x0001a25a:    4408        .D      ADD      r0,r0,r1
        0x0001a25c:    901c        ..      STR      r0,[sp,#0x70]
        0x0001a25e:    9913        ..      LDR      r1,[sp,#0x4c]
        0x0001a260:    9814        ..      LDR      r0,[sp,#0x50]
        0x0001a262:    4408        .D      ADD      r0,r0,r1
        0x0001a264:    9014        ..      STR      r0,[sp,#0x50]
        0x0001a266:    2000        .       MOVS     r0,#0
        0x0001a268:    9013        ..      STR      r0,[sp,#0x4c]
        0x0001a26a:    e7ff        ..      B        0x1a26c ; am_util_stdio_vsprintf + 684
        0x0001a26c:    e7ff        ..      B        0x1a26e ; am_util_stdio_vsprintf + 686
        0x0001a26e:    e1c2        ..      B        0x1a5f6 ; am_util_stdio_vsprintf + 1590
        0x0001a270:    2001        .       MOVS     r0,#1
        0x0001a272:    f88d0041    ..A.    STRB     r0,[sp,#0x41]
        0x0001a276:    e7ff        ..      B        0x1a278 ; am_util_stdio_vsprintf + 696
        0x0001a278:    f89d0040    ..@.    LDRB     r0,[sp,#0x40]
        0x0001a27c:    07c0        ..      LSLS     r0,r0,#31
        0x0001a27e:    b160        `.      CBZ      r0,0x1a29a ; am_util_stdio_vsprintf + 730
        0x0001a280:    e7ff        ..      B        0x1a282 ; am_util_stdio_vsprintf + 706
        0x0001a282:    981d        ..      LDR      r0,[sp,#0x74]
        0x0001a284:    3007        .0      ADDS     r0,#7
        0x0001a286:    f0200007     ...    BIC      r0,r0,#7
        0x0001a28a:    f1000108    ....    ADD      r1,r0,#8
        0x0001a28e:    911d        ..      STR      r1,[sp,#0x74]
        0x0001a290:    6801        .h      LDR      r1,[r0,#0]
        0x0001a292:    6840        @h      LDR      r0,[r0,#4]
        0x0001a294:    9107        ..      STR      r1,[sp,#0x1c]
        0x0001a296:    9008        ..      STR      r0,[sp,#0x20]
        0x0001a298:    e007        ..      B        0x1a2aa ; am_util_stdio_vsprintf + 746
        0x0001a29a:    981d        ..      LDR      r0,[sp,#0x74]
        0x0001a29c:    1d01        ..      ADDS     r1,r0,#4
        0x0001a29e:    911d        ..      STR      r1,[sp,#0x74]
        0x0001a2a0:    6801        .h      LDR      r1,[r0,#0]
        0x0001a2a2:    2000        .       MOVS     r0,#0
        0x0001a2a4:    9107        ..      STR      r1,[sp,#0x1c]
        0x0001a2a6:    9008        ..      STR      r0,[sp,#0x20]
        0x0001a2a8:    e7ff        ..      B        0x1a2aa ; am_util_stdio_vsprintf + 746
        0x0001a2aa:    9907        ..      LDR      r1,[sp,#0x1c]
        0x0001a2ac:    9808        ..      LDR      r0,[sp,#0x20]
        0x0001a2ae:    9118        ..      STR      r1,[sp,#0x60]
        0x0001a2b0:    9019        ..      STR      r0,[sp,#0x64]
        0x0001a2b2:    9813        ..      LDR      r0,[sp,#0x4c]
        0x0001a2b4:    b318        ..      CBZ      r0,0x1a2fe ; am_util_stdio_vsprintf + 830
        0x0001a2b6:    e7ff        ..      B        0x1a2b8 ; am_util_stdio_vsprintf + 760
        0x0001a2b8:    9818        ..      LDR      r0,[sp,#0x60]
        0x0001a2ba:    9919        ..      LDR      r1,[sp,#0x64]
        0x0001a2bc:    f000fcf6    ....    BL       ndigits_in_hex ; 0x1acac
        0x0001a2c0:    4601        .F      MOV      r1,r0
        0x0001a2c2:    9813        ..      LDR      r0,[sp,#0x4c]
        0x0001a2c4:    1a40        @.      SUBS     r0,r0,r1
        0x0001a2c6:    9013        ..      STR      r0,[sp,#0x4c]
        0x0001a2c8:    981c        ..      LDR      r0,[sp,#0x70]
        0x0001a2ca:    f89d1042    ..B.    LDRB     r1,[sp,#0x42]
        0x0001a2ce:    9a13        ..      LDR      r2,[sp,#0x4c]
        0x0001a2d0:    f000fe78    ..x.    BL       padbuffer ; 0x1afc4
        0x0001a2d4:    9013        ..      STR      r0,[sp,#0x4c]
        0x0001a2d6:    981c        ..      LDR      r0,[sp,#0x70]
        0x0001a2d8:    b118        ..      CBZ      r0,0x1a2e2 ; am_util_stdio_vsprintf + 802
        0x0001a2da:    e7ff        ..      B        0x1a2dc ; am_util_stdio_vsprintf + 796
        0x0001a2dc:    9813        ..      LDR      r0,[sp,#0x4c]
        0x0001a2de:    9006        ..      STR      r0,[sp,#0x18]
        0x0001a2e0:    e002        ..      B        0x1a2e8 ; am_util_stdio_vsprintf + 808
        0x0001a2e2:    2000        .       MOVS     r0,#0
        0x0001a2e4:    9006        ..      STR      r0,[sp,#0x18]
        0x0001a2e6:    e7ff        ..      B        0x1a2e8 ; am_util_stdio_vsprintf + 808
        0x0001a2e8:    9906        ..      LDR      r1,[sp,#0x18]
        0x0001a2ea:    981c        ..      LDR      r0,[sp,#0x70]
        0x0001a2ec:    4408        .D      ADD      r0,r0,r1
        0x0001a2ee:    901c        ..      STR      r0,[sp,#0x70]
        0x0001a2f0:    9913        ..      LDR      r1,[sp,#0x4c]
        0x0001a2f2:    9814        ..      LDR      r0,[sp,#0x50]
        0x0001a2f4:    4408        .D      ADD      r0,r0,r1
        0x0001a2f6:    9014        ..      STR      r0,[sp,#0x50]
        0x0001a2f8:    2000        .       MOVS     r0,#0
        0x0001a2fa:    9013        ..      STR      r0,[sp,#0x4c]
        0x0001a2fc:    e7ff        ..      B        0x1a2fe ; am_util_stdio_vsprintf + 830
        0x0001a2fe:    9818        ..      LDR      r0,[sp,#0x60]
        0x0001a300:    9919        ..      LDR      r1,[sp,#0x64]
        0x0001a302:    9a1c        ..      LDR      r2,[sp,#0x70]
        0x0001a304:    f89d3041    ..A0    LDRB     r3,[sp,#0x41]
        0x0001a308:    f0030301    ....    AND      r3,r3,#1
        0x0001a30c:    f000fec8    ....    BL       uint64_to_hexstr ; 0x1b0a0
        0x0001a310:    9012        ..      STR      r0,[sp,#0x48]
        0x0001a312:    981c        ..      LDR      r0,[sp,#0x70]
        0x0001a314:    b128        (.      CBZ      r0,0x1a322 ; am_util_stdio_vsprintf + 866
        0x0001a316:    e7ff        ..      B        0x1a318 ; am_util_stdio_vsprintf + 856
        0x0001a318:    9912        ..      LDR      r1,[sp,#0x48]
        0x0001a31a:    981c        ..      LDR      r0,[sp,#0x70]
        0x0001a31c:    4408        .D      ADD      r0,r0,r1
        0x0001a31e:    901c        ..      STR      r0,[sp,#0x70]
        0x0001a320:    e7ff        ..      B        0x1a322 ; am_util_stdio_vsprintf + 866
        0x0001a322:    9912        ..      LDR      r1,[sp,#0x48]
        0x0001a324:    9814        ..      LDR      r0,[sp,#0x50]
        0x0001a326:    4408        .D      ADD      r0,r0,r1
        0x0001a328:    9014        ..      STR      r0,[sp,#0x50]
        0x0001a32a:    e164        d.      B        0x1a5f6 ; am_util_stdio_vsprintf + 1590
        0x0001a32c:    f89d0040    ..@.    LDRB     r0,[sp,#0x40]
        0x0001a330:    07c0        ..      LSLS     r0,r0,#31
        0x0001a332:    b160        `.      CBZ      r0,0x1a34e ; am_util_stdio_vsprintf + 910
        0x0001a334:    e7ff        ..      B        0x1a336 ; am_util_stdio_vsprintf + 886
        0x0001a336:    981d        ..      LDR      r0,[sp,#0x74]
        0x0001a338:    3007        .0      ADDS     r0,#7
        0x0001a33a:    f0200007     ...    BIC      r0,r0,#7
        0x0001a33e:    f1000108    ....    ADD      r1,r0,#8
        0x0001a342:    911d        ..      STR      r1,[sp,#0x74]
        0x0001a344:    6801        .h      LDR      r1,[r0,#0]
        0x0001a346:    6840        @h      LDR      r0,[r0,#4]
        0x0001a348:    9104        ..      STR      r1,[sp,#0x10]
        0x0001a34a:    9005        ..      STR      r0,[sp,#0x14]
        0x0001a34c:    e007        ..      B        0x1a35e ; am_util_stdio_vsprintf + 926
        0x0001a34e:    981d        ..      LDR      r0,[sp,#0x74]
        0x0001a350:    1d01        ..      ADDS     r1,r0,#4
        0x0001a352:    911d        ..      STR      r1,[sp,#0x74]
        0x0001a354:    6801        .h      LDR      r1,[r0,#0]
        0x0001a356:    2000        .       MOVS     r0,#0
        0x0001a358:    9104        ..      STR      r1,[sp,#0x10]
        0x0001a35a:    9005        ..      STR      r0,[sp,#0x14]
        0x0001a35c:    e7ff        ..      B        0x1a35e ; am_util_stdio_vsprintf + 926
        0x0001a35e:    9904        ..      LDR      r1,[sp,#0x10]
        0x0001a360:    9805        ..      LDR      r0,[sp,#0x14]
        0x0001a362:    9118        ..      STR      r1,[sp,#0x60]
        0x0001a364:    9019        ..      STR      r0,[sp,#0x64]
        0x0001a366:    9813        ..      LDR      r0,[sp,#0x4c]
        0x0001a368:    b318        ..      CBZ      r0,0x1a3b2 ; am_util_stdio_vsprintf + 1010
        0x0001a36a:    e7ff        ..      B        0x1a36c ; am_util_stdio_vsprintf + 940
        0x0001a36c:    9818        ..      LDR      r0,[sp,#0x60]
        0x0001a36e:    9919        ..      LDR      r1,[sp,#0x64]
        0x0001a370:    f000fcd4    ....    BL       ndigits_in_u64 ; 0x1ad1c
        0x0001a374:    4601        .F      MOV      r1,r0
        0x0001a376:    9813        ..      LDR      r0,[sp,#0x4c]
        0x0001a378:    1a40        @.      SUBS     r0,r0,r1
        0x0001a37a:    9013        ..      STR      r0,[sp,#0x4c]
        0x0001a37c:    981c        ..      LDR      r0,[sp,#0x70]
        0x0001a37e:    f89d1042    ..B.    LDRB     r1,[sp,#0x42]
        0x0001a382:    9a13        ..      LDR      r2,[sp,#0x4c]
        0x0001a384:    f000fe1e    ....    BL       padbuffer ; 0x1afc4
        0x0001a388:    9013        ..      STR      r0,[sp,#0x4c]
        0x0001a38a:    981c        ..      LDR      r0,[sp,#0x70]
        0x0001a38c:    b118        ..      CBZ      r0,0x1a396 ; am_util_stdio_vsprintf + 982
        0x0001a38e:    e7ff        ..      B        0x1a390 ; am_util_stdio_vsprintf + 976
        0x0001a390:    9813        ..      LDR      r0,[sp,#0x4c]
        0x0001a392:    9003        ..      STR      r0,[sp,#0xc]
        0x0001a394:    e002        ..      B        0x1a39c ; am_util_stdio_vsprintf + 988
        0x0001a396:    2000        .       MOVS     r0,#0
        0x0001a398:    9003        ..      STR      r0,[sp,#0xc]
        0x0001a39a:    e7ff        ..      B        0x1a39c ; am_util_stdio_vsprintf + 988
        0x0001a39c:    9903        ..      LDR      r1,[sp,#0xc]
        0x0001a39e:    981c        ..      LDR      r0,[sp,#0x70]
        0x0001a3a0:    4408        .D      ADD      r0,r0,r1
        0x0001a3a2:    901c        ..      STR      r0,[sp,#0x70]
        0x0001a3a4:    9913        ..      LDR      r1,[sp,#0x4c]
        0x0001a3a6:    9814        ..      LDR      r0,[sp,#0x50]
        0x0001a3a8:    4408        .D      ADD      r0,r0,r1
        0x0001a3aa:    9014        ..      STR      r0,[sp,#0x50]
        0x0001a3ac:    2000        .       MOVS     r0,#0
        0x0001a3ae:    9013        ..      STR      r0,[sp,#0x4c]
        0x0001a3b0:    e7ff        ..      B        0x1a3b2 ; am_util_stdio_vsprintf + 1010
        0x0001a3b2:    9818        ..      LDR      r0,[sp,#0x60]
        0x0001a3b4:    9919        ..      LDR      r1,[sp,#0x64]
        0x0001a3b6:    9a1c        ..      LDR      r2,[sp,#0x70]
        0x0001a3b8:    f000fed2    ....    BL       uint64_to_str ; 0x1b160
        0x0001a3bc:    9012        ..      STR      r0,[sp,#0x48]
        0x0001a3be:    981c        ..      LDR      r0,[sp,#0x70]
        0x0001a3c0:    b128        (.      CBZ      r0,0x1a3ce ; am_util_stdio_vsprintf + 1038
        0x0001a3c2:    e7ff        ..      B        0x1a3c4 ; am_util_stdio_vsprintf + 1028
        0x0001a3c4:    9912        ..      LDR      r1,[sp,#0x48]
        0x0001a3c6:    981c        ..      LDR      r0,[sp,#0x70]
        0x0001a3c8:    4408        .D      ADD      r0,r0,r1
        0x0001a3ca:    901c        ..      STR      r0,[sp,#0x70]
        0x0001a3cc:    e7ff        ..      B        0x1a3ce ; am_util_stdio_vsprintf + 1038
        0x0001a3ce:    9912        ..      LDR      r1,[sp,#0x48]
        0x0001a3d0:    9814        ..      LDR      r0,[sp,#0x50]
        0x0001a3d2:    4408        .D      ADD      r0,r0,r1
        0x0001a3d4:    9014        ..      STR      r0,[sp,#0x50]
        0x0001a3d6:    e10e        ..      B        0x1a5f6 ; am_util_stdio_vsprintf + 1590
        0x0001a3d8:    f89d0040    ..@.    LDRB     r0,[sp,#0x40]
        0x0001a3dc:    07c0        ..      LSLS     r0,r0,#31
        0x0001a3de:    b160        `.      CBZ      r0,0x1a3fa ; am_util_stdio_vsprintf + 1082
        0x0001a3e0:    e7ff        ..      B        0x1a3e2 ; am_util_stdio_vsprintf + 1058
        0x0001a3e2:    981d        ..      LDR      r0,[sp,#0x74]
        0x0001a3e4:    3007        .0      ADDS     r0,#7
        0x0001a3e6:    f0200007     ...    BIC      r0,r0,#7
        0x0001a3ea:    f1000108    ....    ADD      r1,r0,#8
        0x0001a3ee:    911d        ..      STR      r1,[sp,#0x74]
        0x0001a3f0:    6801        .h      LDR      r1,[r0,#0]
        0x0001a3f2:    6840        @h      LDR      r0,[r0,#4]
        0x0001a3f4:    9101        ..      STR      r1,[sp,#4]
        0x0001a3f6:    9002        ..      STR      r0,[sp,#8]
        0x0001a3f8:    e007        ..      B        0x1a40a ; am_util_stdio_vsprintf + 1098
        0x0001a3fa:    981d        ..      LDR      r0,[sp,#0x74]
        0x0001a3fc:    1d01        ..      ADDS     r1,r0,#4
        0x0001a3fe:    911d        ..      STR      r1,[sp,#0x74]
        0x0001a400:    6801        .h      LDR      r1,[r0,#0]
        0x0001a402:    17c8        ..      ASRS     r0,r1,#31
        0x0001a404:    9101        ..      STR      r1,[sp,#4]
        0x0001a406:    9002        ..      STR      r0,[sp,#8]
        0x0001a408:    e7ff        ..      B        0x1a40a ; am_util_stdio_vsprintf + 1098
        0x0001a40a:    9901        ..      LDR      r1,[sp,#4]
        0x0001a40c:    9802        ..      LDR      r0,[sp,#8]
        0x0001a40e:    9116        ..      STR      r1,[sp,#0x58]
        0x0001a410:    9017        ..      STR      r0,[sp,#0x5c]
        0x0001a412:    9817        ..      LDR      r0,[sp,#0x5c]
        0x0001a414:    f1b03fff    ...?    CMP      r0,#0xffffffff
        0x0001a418:    dc0c        ..      BGT      0x1a434 ; am_util_stdio_vsprintf + 1140
        0x0001a41a:    e7ff        ..      B        0x1a41c ; am_util_stdio_vsprintf + 1116
        0x0001a41c:    9816        ..      LDR      r0,[sp,#0x58]
        0x0001a41e:    9a17        ..      LDR      r2,[sp,#0x5c]
        0x0001a420:    4241        AB      RSBS     r1,r0,#0
        0x0001a422:    f04f0000    O...    MOV      r0,#0
        0x0001a426:    4190        .A      SBCS     r0,r0,r2
        0x0001a428:    9118        ..      STR      r1,[sp,#0x60]
        0x0001a42a:    9019        ..      STR      r0,[sp,#0x64]
        0x0001a42c:    2001        .       MOVS     r0,#1
        0x0001a42e:    f88d003f    ..?.    STRB     r0,[sp,#0x3f]
        0x0001a432:    e007        ..      B        0x1a444 ; am_util_stdio_vsprintf + 1156
        0x0001a434:    9816        ..      LDR      r0,[sp,#0x58]
        0x0001a436:    9917        ..      LDR      r1,[sp,#0x5c]
        0x0001a438:    9119        ..      STR      r1,[sp,#0x64]
        0x0001a43a:    9018        ..      STR      r0,[sp,#0x60]
        0x0001a43c:    2000        .       MOVS     r0,#0
        0x0001a43e:    f88d003f    ..?.    STRB     r0,[sp,#0x3f]
        0x0001a442:    e7ff        ..      B        0x1a444 ; am_util_stdio_vsprintf + 1156
        0x0001a444:    9813        ..      LDR      r0,[sp,#0x4c]
        0x0001a446:    2800        .(      CMP      r0,#0
        0x0001a448:    d055        U.      BEQ      0x1a4f6 ; am_util_stdio_vsprintf + 1334
        0x0001a44a:    e7ff        ..      B        0x1a44c ; am_util_stdio_vsprintf + 1164
        0x0001a44c:    9818        ..      LDR      r0,[sp,#0x60]
        0x0001a44e:    9919        ..      LDR      r1,[sp,#0x64]
        0x0001a450:    f000fc4c    ..L.    BL       ndigits_in_i64 ; 0x1acec
        0x0001a454:    4601        .F      MOV      r1,r0
        0x0001a456:    9813        ..      LDR      r0,[sp,#0x4c]
        0x0001a458:    1a40        @.      SUBS     r0,r0,r1
        0x0001a45a:    9013        ..      STR      r0,[sp,#0x4c]
        0x0001a45c:    f89d003f    ..?.    LDRB     r0,[sp,#0x3f]
        0x0001a460:    07c0        ..      LSLS     r0,r0,#31
        0x0001a462:    b1b0        ..      CBZ      r0,0x1a492 ; am_util_stdio_vsprintf + 1234
        0x0001a464:    e7ff        ..      B        0x1a466 ; am_util_stdio_vsprintf + 1190
        0x0001a466:    9813        ..      LDR      r0,[sp,#0x4c]
        0x0001a468:    3801        .8      SUBS     r0,#1
        0x0001a46a:    9013        ..      STR      r0,[sp,#0x4c]
        0x0001a46c:    f89d0042    ..B.    LDRB     r0,[sp,#0x42]
        0x0001a470:    2830        0(      CMP      r0,#0x30
        0x0001a472:    d10d        ..      BNE      0x1a490 ; am_util_stdio_vsprintf + 1232
        0x0001a474:    e7ff        ..      B        0x1a476 ; am_util_stdio_vsprintf + 1206
        0x0001a476:    981c        ..      LDR      r0,[sp,#0x70]
        0x0001a478:    b130        0.      CBZ      r0,0x1a488 ; am_util_stdio_vsprintf + 1224
        0x0001a47a:    e7ff        ..      B        0x1a47c ; am_util_stdio_vsprintf + 1212
        0x0001a47c:    991c        ..      LDR      r1,[sp,#0x70]
        0x0001a47e:    1c48        H.      ADDS     r0,r1,#1
        0x0001a480:    901c        ..      STR      r0,[sp,#0x70]
        0x0001a482:    202d        -       MOVS     r0,#0x2d
        0x0001a484:    7008        .p      STRB     r0,[r1,#0]
        0x0001a486:    e7ff        ..      B        0x1a488 ; am_util_stdio_vsprintf + 1224
        0x0001a488:    9814        ..      LDR      r0,[sp,#0x50]
        0x0001a48a:    3001        .0      ADDS     r0,#1
        0x0001a48c:    9014        ..      STR      r0,[sp,#0x50]
        0x0001a48e:    e7ff        ..      B        0x1a490 ; am_util_stdio_vsprintf + 1232
        0x0001a490:    e7ff        ..      B        0x1a492 ; am_util_stdio_vsprintf + 1234
        0x0001a492:    981c        ..      LDR      r0,[sp,#0x70]
        0x0001a494:    f89d1042    ..B.    LDRB     r1,[sp,#0x42]
        0x0001a498:    9a13        ..      LDR      r2,[sp,#0x4c]
        0x0001a49a:    f000fd93    ....    BL       padbuffer ; 0x1afc4
        0x0001a49e:    9013        ..      STR      r0,[sp,#0x4c]
        0x0001a4a0:    981c        ..      LDR      r0,[sp,#0x70]
        0x0001a4a2:    b118        ..      CBZ      r0,0x1a4ac ; am_util_stdio_vsprintf + 1260
        0x0001a4a4:    e7ff        ..      B        0x1a4a6 ; am_util_stdio_vsprintf + 1254
        0x0001a4a6:    9813        ..      LDR      r0,[sp,#0x4c]
        0x0001a4a8:    9000        ..      STR      r0,[sp,#0]
        0x0001a4aa:    e002        ..      B        0x1a4b2 ; am_util_stdio_vsprintf + 1266
        0x0001a4ac:    2000        .       MOVS     r0,#0
        0x0001a4ae:    9000        ..      STR      r0,[sp,#0]
        0x0001a4b0:    e7ff        ..      B        0x1a4b2 ; am_util_stdio_vsprintf + 1266
        0x0001a4b2:    9900        ..      LDR      r1,[sp,#0]
        0x0001a4b4:    981c        ..      LDR      r0,[sp,#0x70]
        0x0001a4b6:    4408        .D      ADD      r0,r0,r1
        0x0001a4b8:    901c        ..      STR      r0,[sp,#0x70]
        0x0001a4ba:    9913        ..      LDR      r1,[sp,#0x4c]
        0x0001a4bc:    9814        ..      LDR      r0,[sp,#0x50]
        0x0001a4be:    4408        .D      ADD      r0,r0,r1
        0x0001a4c0:    9014        ..      STR      r0,[sp,#0x50]
        0x0001a4c2:    2000        .       MOVS     r0,#0
        0x0001a4c4:    9013        ..      STR      r0,[sp,#0x4c]
        0x0001a4c6:    f89d003f    ..?.    LDRB     r0,[sp,#0x3f]
        0x0001a4ca:    07c0        ..      LSLS     r0,r0,#31
        0x0001a4cc:    b190        ..      CBZ      r0,0x1a4f4 ; am_util_stdio_vsprintf + 1332
        0x0001a4ce:    e7ff        ..      B        0x1a4d0 ; am_util_stdio_vsprintf + 1296
        0x0001a4d0:    f89d0042    ..B.    LDRB     r0,[sp,#0x42]
        0x0001a4d4:    2820         (      CMP      r0,#0x20
        0x0001a4d6:    d10d        ..      BNE      0x1a4f4 ; am_util_stdio_vsprintf + 1332
        0x0001a4d8:    e7ff        ..      B        0x1a4da ; am_util_stdio_vsprintf + 1306
        0x0001a4da:    981c        ..      LDR      r0,[sp,#0x70]
        0x0001a4dc:    b130        0.      CBZ      r0,0x1a4ec ; am_util_stdio_vsprintf + 1324
        0x0001a4de:    e7ff        ..      B        0x1a4e0 ; am_util_stdio_vsprintf + 1312
        0x0001a4e0:    991c        ..      LDR      r1,[sp,#0x70]
        0x0001a4e2:    1c48        H.      ADDS     r0,r1,#1
        0x0001a4e4:    901c        ..      STR      r0,[sp,#0x70]
        0x0001a4e6:    202d        -       MOVS     r0,#0x2d
        0x0001a4e8:    7008        .p      STRB     r0,[r1,#0]
        0x0001a4ea:    e7ff        ..      B        0x1a4ec ; am_util_stdio_vsprintf + 1324
        0x0001a4ec:    9814        ..      LDR      r0,[sp,#0x50]
        0x0001a4ee:    3001        .0      ADDS     r0,#1
        0x0001a4f0:    9014        ..      STR      r0,[sp,#0x50]
        0x0001a4f2:    e7ff        ..      B        0x1a4f4 ; am_util_stdio_vsprintf + 1332
        0x0001a4f4:    e012        ..      B        0x1a51c ; am_util_stdio_vsprintf + 1372
        0x0001a4f6:    f89d003f    ..?.    LDRB     r0,[sp,#0x3f]
        0x0001a4fa:    07c0        ..      LSLS     r0,r0,#31
        0x0001a4fc:    b168        h.      CBZ      r0,0x1a51a ; am_util_stdio_vsprintf + 1370
        0x0001a4fe:    e7ff        ..      B        0x1a500 ; am_util_stdio_vsprintf + 1344
        0x0001a500:    981c        ..      LDR      r0,[sp,#0x70]
        0x0001a502:    b130        0.      CBZ      r0,0x1a512 ; am_util_stdio_vsprintf + 1362
        0x0001a504:    e7ff        ..      B        0x1a506 ; am_util_stdio_vsprintf + 1350
        0x0001a506:    991c        ..      LDR      r1,[sp,#0x70]
        0x0001a508:    1c48        H.      ADDS     r0,r1,#1
        0x0001a50a:    901c        ..      STR      r0,[sp,#0x70]
        0x0001a50c:    202d        -       MOVS     r0,#0x2d
        0x0001a50e:    7008        .p      STRB     r0,[r1,#0]
        0x0001a510:    e7ff        ..      B        0x1a512 ; am_util_stdio_vsprintf + 1362
        0x0001a512:    9814        ..      LDR      r0,[sp,#0x50]
        0x0001a514:    3001        .0      ADDS     r0,#1
        0x0001a516:    9014        ..      STR      r0,[sp,#0x50]
        0x0001a518:    e7ff        ..      B        0x1a51a ; am_util_stdio_vsprintf + 1370
        0x0001a51a:    e7ff        ..      B        0x1a51c ; am_util_stdio_vsprintf + 1372
        0x0001a51c:    9818        ..      LDR      r0,[sp,#0x60]
        0x0001a51e:    9919        ..      LDR      r1,[sp,#0x64]
        0x0001a520:    9a1c        ..      LDR      r2,[sp,#0x70]
        0x0001a522:    f000fe1d    ....    BL       uint64_to_str ; 0x1b160
        0x0001a526:    9012        ..      STR      r0,[sp,#0x48]
        0x0001a528:    981c        ..      LDR      r0,[sp,#0x70]
        0x0001a52a:    b128        (.      CBZ      r0,0x1a538 ; am_util_stdio_vsprintf + 1400
        0x0001a52c:    e7ff        ..      B        0x1a52e ; am_util_stdio_vsprintf + 1390
        0x0001a52e:    9912        ..      LDR      r1,[sp,#0x48]
        0x0001a530:    981c        ..      LDR      r0,[sp,#0x70]
        0x0001a532:    4408        .D      ADD      r0,r0,r1
        0x0001a534:    901c        ..      STR      r0,[sp,#0x70]
        0x0001a536:    e7ff        ..      B        0x1a538 ; am_util_stdio_vsprintf + 1400
        0x0001a538:    9912        ..      LDR      r1,[sp,#0x48]
        0x0001a53a:    9814        ..      LDR      r0,[sp,#0x50]
        0x0001a53c:    4408        .D      ADD      r0,r0,r1
        0x0001a53e:    9014        ..      STR      r0,[sp,#0x50]
        0x0001a540:    e059        Y.      B        0x1a5f6 ; am_util_stdio_vsprintf + 1590
        0x0001a542:    981c        ..      LDR      r0,[sp,#0x70]
        0x0001a544:    2800        .(      CMP      r0,#0
        0x0001a546:    d047        G.      BEQ      0x1a5d8 ; am_util_stdio_vsprintf + 1560
        0x0001a548:    e7ff        ..      B        0x1a54a ; am_util_stdio_vsprintf + 1418
        0x0001a54a:    981d        ..      LDR      r0,[sp,#0x74]
        0x0001a54c:    3007        .0      ADDS     r0,#7
        0x0001a54e:    f0200007     ...    BIC      r0,r0,#7
        0x0001a552:    f1000108    ....    ADD      r1,r0,#8
        0x0001a556:    911d        ..      STR      r1,[sp,#0x74]
        0x0001a558:    ed900b00    ....    VLDR     d0,[r0,#0]
        0x0001a55c:    ec510b10    Q...    VMOV     r0,r1,d0
        0x0001a560:    f003fa30    ..0.    BL       __aeabi_d2f ; 0x1d9c4
        0x0001a564:    900d        ..      STR      r0,[sp,#0x34]
        0x0001a566:    991c        ..      LDR      r1,[sp,#0x70]
        0x0001a568:    2014        .       MOVS     r0,#0x14
        0x0001a56a:    6008        .`      STR      r0,[r1,#0]
        0x0001a56c:    ed9d0a0d    ....    VLDR     s0,[sp,#0x34]
        0x0001a570:    981c        ..      LDR      r0,[sp,#0x70]
        0x0001a572:    9911        ..      LDR      r1,[sp,#0x44]
        0x0001a574:    f000fa08    ....    BL       ftoa ; 0x1a988
        0x0001a578:    9012        ..      STR      r0,[sp,#0x48]
        0x0001a57a:    9812        ..      LDR      r0,[sp,#0x48]
        0x0001a57c:    f1b03fff    ...?    CMP      r0,#0xffffffff
        0x0001a580:    dc21        !.      BGT      0x1a5c6 ; am_util_stdio_vsprintf + 1542
        0x0001a582:    e7ff        ..      B        0x1a584 ; am_util_stdio_vsprintf + 1476
        0x0001a584:    9812        ..      LDR      r0,[sp,#0x48]
        0x0001a586:    3001        .0      ADDS     r0,#1
        0x0001a588:    b930        0.      CBNZ     r0,0x1a598 ; am_util_stdio_vsprintf + 1496
        0x0001a58a:    e7ff        ..      B        0x1a58c ; am_util_stdio_vsprintf + 1484
        0x0001a58c:    f6426030    B.0`    MOV      r0,#0x2e30
        0x0001a590:    f2c00030    ..0.    MOVT     r0,#0x30
        0x0001a594:    900c        ..      STR      r0,[sp,#0x30]
        0x0001a596:    e010        ..      B        0x1a5ba ; am_util_stdio_vsprintf + 1530
        0x0001a598:    9812        ..      LDR      r0,[sp,#0x48]
        0x0001a59a:    3002        .0      ADDS     r0,#2
        0x0001a59c:    b930        0.      CBNZ     r0,0x1a5ac ; am_util_stdio_vsprintf + 1516
        0x0001a59e:    e7ff        ..      B        0x1a5a0 ; am_util_stdio_vsprintf + 1504
        0x0001a5a0:    f6426023    B.#`    MOV      r0,#0x2e23
        0x0001a5a4:    f2c00023    ..#.    MOVT     r0,#0x23
        0x0001a5a8:    900c        ..      STR      r0,[sp,#0x30]
        0x0001a5aa:    e005        ..      B        0x1a5b8 ; am_util_stdio_vsprintf + 1528
        0x0001a5ac:    f642603f    B.?`    MOV      r0,#0x2e3f
        0x0001a5b0:    f2c0003f    ..?.    MOVT     r0,#0x3f
        0x0001a5b4:    900c        ..      STR      r0,[sp,#0x30]
        0x0001a5b6:    e7ff        ..      B        0x1a5b8 ; am_util_stdio_vsprintf + 1528
        0x0001a5b8:    e7ff        ..      B        0x1a5ba ; am_util_stdio_vsprintf + 1530
        0x0001a5ba:    980c        ..      LDR      r0,[sp,#0x30]
        0x0001a5bc:    991c        ..      LDR      r1,[sp,#0x70]
        0x0001a5be:    6008        .`      STR      r0,[r1,#0]
        0x0001a5c0:    2003        .       MOVS     r0,#3
        0x0001a5c2:    9012        ..      STR      r0,[sp,#0x48]
        0x0001a5c4:    e7ff        ..      B        0x1a5c6 ; am_util_stdio_vsprintf + 1542
        0x0001a5c6:    9912        ..      LDR      r1,[sp,#0x48]
        0x0001a5c8:    9814        ..      LDR      r0,[sp,#0x50]
        0x0001a5ca:    4408        .D      ADD      r0,r0,r1
        0x0001a5cc:    9014        ..      STR      r0,[sp,#0x50]
        0x0001a5ce:    9912        ..      LDR      r1,[sp,#0x48]
        0x0001a5d0:    981c        ..      LDR      r0,[sp,#0x70]
        0x0001a5d2:    4408        .D      ADD      r0,r0,r1
        0x0001a5d4:    901c        ..      STR      r0,[sp,#0x70]
        0x0001a5d6:    e7ff        ..      B        0x1a5d8 ; am_util_stdio_vsprintf + 1560
        0x0001a5d8:    e00d        ..      B        0x1a5f6 ; am_util_stdio_vsprintf + 1590
        0x0001a5da:    981c        ..      LDR      r0,[sp,#0x70]
        0x0001a5dc:    b138        8.      CBZ      r0,0x1a5ee ; am_util_stdio_vsprintf + 1582
        0x0001a5de:    e7ff        ..      B        0x1a5e0 ; am_util_stdio_vsprintf + 1568
        0x0001a5e0:    981b        ..      LDR      r0,[sp,#0x6c]
        0x0001a5e2:    7800        .x      LDRB     r0,[r0,#0]
        0x0001a5e4:    991c        ..      LDR      r1,[sp,#0x70]
        0x0001a5e6:    1c4a        J.      ADDS     r2,r1,#1
        0x0001a5e8:    921c        ..      STR      r2,[sp,#0x70]
        0x0001a5ea:    7008        .p      STRB     r0,[r1,#0]
        0x0001a5ec:    e7ff        ..      B        0x1a5ee ; am_util_stdio_vsprintf + 1582
        0x0001a5ee:    9814        ..      LDR      r0,[sp,#0x50]
        0x0001a5f0:    3001        .0      ADDS     r0,#1
        0x0001a5f2:    9014        ..      STR      r0,[sp,#0x50]
        0x0001a5f4:    e7ff        ..      B        0x1a5f6 ; am_util_stdio_vsprintf + 1590
        0x0001a5f6:    981b        ..      LDR      r0,[sp,#0x6c]
        0x0001a5f8:    3001        .0      ADDS     r0,#1
        0x0001a5fa:    901b        ..      STR      r0,[sp,#0x6c]
        0x0001a5fc:    f7ffbce9    ....    B.W      0x19fd2 ; am_util_stdio_vsprintf + 18
        0x0001a600:    981c        ..      LDR      r0,[sp,#0x70]
        0x0001a602:    b120         .      CBZ      r0,0x1a60e ; am_util_stdio_vsprintf + 1614
        0x0001a604:    e7ff        ..      B        0x1a606 ; am_util_stdio_vsprintf + 1606
        0x0001a606:    991c        ..      LDR      r1,[sp,#0x70]
        0x0001a608:    2000        .       MOVS     r0,#0
        0x0001a60a:    7008        .p      STRB     r0,[r1,#0]
        0x0001a60c:    e7ff        ..      B        0x1a60e ; am_util_stdio_vsprintf + 1614
        0x0001a60e:    9814        ..      LDR      r0,[sp,#0x50]
        0x0001a610:    b01e        ..      ADD      sp,sp,#0x78
        0x0001a612:    bd80        ..      POP      {r7,pc}
    am_valid_sp
        0x0001a614:    b082        ..      SUB      sp,sp,#8
        0x0001a616:    9001        ..      STR      r0,[sp,#4]
        0x0001a618:    9901        ..      LDR      r1,[sp,#4]
        0x0001a61a:    2000        .       MOVS     r0,#0
        0x0001a61c:    f1b15f80    ..._    CMP      r1,#0x10000000
        0x0001a620:    9000        ..      STR      r0,[sp,#0]
        0x0001a622:    d30a        ..      BCC      0x1a63a ; am_valid_sp + 38
        0x0001a624:    e7ff        ..      B        0x1a626 ; am_valid_sp + 18
        0x0001a626:    9901        ..      LDR      r1,[sp,#4]
        0x0001a628:    2200        ."      MOVS     r2,#0
        0x0001a62a:    f2c10216    ....    MOVT     r2,#0x1016
        0x0001a62e:    2000        .       MOVS     r0,#0
        0x0001a630:    4291        .B      CMP      r1,r2
        0x0001a632:    bf38        8.      IT       CC
        0x0001a634:    2001        .       MOVCC    r0,#1
        0x0001a636:    9000        ..      STR      r0,[sp,#0]
        0x0001a638:    e7ff        ..      B        0x1a63a ; am_valid_sp + 38
        0x0001a63a:    9800        ..      LDR      r0,[sp,#0]
        0x0001a63c:    f0000001    ....    AND      r0,r0,#1
        0x0001a640:    b002        ..      ADD      sp,sp,#8
        0x0001a642:    4770        pG      BX       lr
    buck_ldo_override_init
        0x0001a644:    b510        ..      PUSH     {r4,lr}
        0x0001a646:    b082        ..      SUB      sp,sp,#8
        0x0001a648:    2460        `$      MOVS     r4,#0x60
        0x0001a64a:    2000        .       MOVS     r0,#0
        0x0001a64c:    f2c40402    ....    MOVT     r4,#0x4002
        0x0001a650:    9001        ..      STR      r0,[sp,#4]
        0x0001a652:    6820         h      LDR      r0,[r4,#0]
        0x0001a654:    f4403000    @..0    ORR      r0,r0,#0x20000
        0x0001a658:    6020         `      STR      r0,[r4,#0]
        0x0001a65a:    6820         h      LDR      r0,[r4,#0]
        0x0001a65c:    f4402080    @..     ORR      r0,r0,#0x40000
        0x0001a660:    6020         `      STR      r0,[r4,#0]
        0x0001a662:    6820         h      LDR      r0,[r4,#0]
        0x0001a664:    f4402000    @..     ORR      r0,r0,#0x80000
        0x0001a668:    6020         `      STR      r0,[r4,#0]
        0x0001a66a:    6820         h      LDR      r0,[r4,#0]
        0x0001a66c:    f4403080    @..0    ORR      r0,r0,#0x10000
        0x0001a670:    6020         `      STR      r0,[r4,#0]
        0x0001a672:    a801        ..      ADD      r0,sp,#4
        0x0001a674:    f7fef80c    ....    BL       TrimVersionGet ; 0x18690
        0x0001a678:    9801        ..      LDR      r0,[sp,#4]
        0x0001a67a:    2801        .(      CMP      r0,#1
        0x0001a67c:    d80b        ..      BHI      0x1a696 ; buck_ldo_override_init + 82
        0x0001a67e:    6a20         j      LDR      r0,[r4,#0x20]
        0x0001a680:    f36f209f    o..     BFC      r0,#10,#22
        0x0001a684:    2807        .(      CMP      r0,#7
        0x0001a686:    d306        ..      BCC      0x1a696 ; buck_ldo_override_init + 82
        0x0001a688:    6a20         j      LDR      r0,[r4,#0x20]
        0x0001a68a:    6a21        !j      LDR      r1,[r4,#0x20]
        0x0001a68c:    f20030fa    ...0    ADD      r0,r0,#0x3fa
        0x0001a690:    f3600109    `...    BFI      r1,r0,#0,#10
        0x0001a694:    6221        !b      STR      r1,[r4,#0x20]
        0x0001a696:    6820         h      LDR      r0,[r4,#0]
        0x0001a698:    f0200010     ...    BIC      r0,r0,#0x10
        0x0001a69c:    6020         `      STR      r0,[r4,#0]
        0x0001a69e:    6820         h      LDR      r0,[r4,#0]
        0x0001a6a0:    f040000e    @...    ORR      r0,r0,#0xe
        0x0001a6a4:    6020         `      STR      r0,[r4,#0]
        0x0001a6a6:    6820         h      LDR      r0,[r4,#0]
        0x0001a6a8:    f0400001    @...    ORR      r0,r0,#1
        0x0001a6ac:    6020         `      STR      r0,[r4,#0]
        0x0001a6ae:    6820         h      LDR      r0,[r4,#0]
        0x0001a6b0:    f4207000     ..p    BIC      r0,r0,#0x200
        0x0001a6b4:    6020         `      STR      r0,[r4,#0]
        0x0001a6b6:    6820         h      LDR      r0,[r4,#0]
        0x0001a6b8:    f44070e0    @..p    ORR      r0,r0,#0x1c0
        0x0001a6bc:    6020         `      STR      r0,[r4,#0]
        0x0001a6be:    6820         h      LDR      r0,[r4,#0]
        0x0001a6c0:    f0400020    @. .    ORR      r0,r0,#0x20
        0x0001a6c4:    6020         `      STR      r0,[r4,#0]
        0x0001a6c6:    b002        ..      ADD      sp,sp,#8
        0x0001a6c8:    bd10        ..      POP      {r4,pc}
    buck_ldo_update_override
        0x0001a6ca:    2160        `!      MOVS     r1,#0x60
        0x0001a6cc:    f2c40102    ....    MOVT     r1,#0x4002
        0x0001a6d0:    680a        .h      LDR      r2,[r1,#0]
        0x0001a6d2:    f4223280    "..2    BIC      r2,r2,#0x10000
        0x0001a6d6:    f3604210    `..B    BFI      r2,r0,#16,#1
        0x0001a6da:    600a        .`      STR      r2,[r1,#0]
        0x0001a6dc:    680a        .h      LDR      r2,[r1,#0]
        0x0001a6de:    f0220201    "...    BIC      r2,r2,#1
        0x0001a6e2:    4402        .D      ADD      r2,r2,r0
        0x0001a6e4:    600a        .`      STR      r2,[r1,#0]
        0x0001a6e6:    680a        .h      LDR      r2,[r1,#0]
        0x0001a6e8:    f0220220    ". .    BIC      r2,r2,#0x20
        0x0001a6ec:    f3601245    `.E.    BFI      r2,r0,#5,#1
        0x0001a6f0:    600a        .`      STR      r2,[r1,#0]
        0x0001a6f2:    4770        pG      BX       lr
    crypto_boost_trims
        0x0001a6f4:    e92d41f0    -..A    PUSH     {r4-r8,lr}
        0x0001a6f8:    b082        ..      SUB      sp,sp,#8
        0x0001a6fa:    f64026e0    @..&    MOVW     r6,#0xae0
        0x0001a6fe:    f2c10600    ....    MOVT     r6,#0x1000
        0x0001a702:    7832        2x      LDRB     r2,[r6,#0]
        0x0001a704:    4604        .F      MOV      r4,r0
        0x0001a706:    fab2f082    ....    CLZ      r0,r2
        0x0001a70a:    0940        @.      LSRS     r0,r0,#5
        0x0001a70c:    4060        `@      EORS     r0,r0,r4
        0x0001a70e:    bf1c        ..      ITT      NE
        0x0001a710:    b002        ..      ADDNE    sp,sp,#8
        0x0001a712:    e8bd81f0    ....    POPNE    {r4-r8,pc}
        0x0001a716:    f2400888    @...    MOVW     r8,#0x88
        0x0001a71a:    460d        .F      MOV      r5,r1
        0x0001a71c:    f2c40802    ....    MOVT     r8,#0x4002
        0x0001a720:    f7fefb12    ....    BL       am_hal_interrupt_master_disable ; 0x18d48
        0x0001a724:    9001        ..      STR      r0,[sp,#4]
        0x0001a726:    f64020e8    @..     MOV      r0,#0xae8
        0x0001a72a:    f2c10000    ....    MOVT     r0,#0x1000
        0x0001a72e:    6801        .h      LDR      r1,[r0,#0]
        0x0001a730:    7034        4p      STRB     r4,[r6,#0]
        0x0001a732:    2c00        .,      CMP      r4,#0
        0x0001a734:    bf08        ..      IT       EQ
        0x0001a736:    426d        mB      RSBEQ    r5,r5,#0
        0x0001a738:    4429        )D      ADD      r1,r1,r5
        0x0001a73a:    6001        .`      STR      r1,[r0,#0]
        0x0001a73c:    f64020e4    @..     MOV      r0,#0xae4
        0x0001a740:    293f        ?)      CMP      r1,#0x3f
        0x0001a742:    f04f063f    O.?.    MOV      r6,#0x3f
        0x0001a746:    f2c10000    ....    MOVT     r0,#0x1000
        0x0001a74a:    bf38        8.      IT       CC
        0x0001a74c:    460e        .F      MOVCC    r6,r1
        0x0001a74e:    2900        .)      CMP      r1,#0
        0x0001a750:    6801        .h      LDR      r1,[r0,#0]
        0x0001a752:    f04f073f    O.?.    MOV      r7,#0x3f
        0x0001a756:    4429        )D      ADD      r1,r1,r5
        0x0001a758:    bf48        H.      IT       MI
        0x0001a75a:    2600        .&      MOVMI    r6,#0
        0x0001a75c:    293f        ?)      CMP      r1,#0x3f
        0x0001a75e:    bf38        8.      IT       CC
        0x0001a760:    460f        .F      MOVCC    r7,r1
        0x0001a762:    2900        .)      CMP      r1,#0
        0x0001a764:    bf48        H.      IT       MI
        0x0001a766:    2700        .'      MOVMI    r7,#0
        0x0001a768:    6001        .`      STR      r1,[r0,#0]
        0x0001a76a:    b194        ..      CBZ      r4,0x1a792 ; crypto_boost_trims + 158
        0x0001a76c:    f8d802e4    ....    LDR      r0,[r8,#0x2e4]
        0x0001a770:    f020707c     .|p    BIC      r0,r0,#0x3f00000
        0x0001a774:    ea405006    @..P    ORR      r0,r0,r6,LSL #20
        0x0001a778:    f8c802e4    ....    STR      r0,[r8,#0x2e4]
        0x0001a77c:    2014        .       MOVS     r0,#0x14
        0x0001a77e:    f7fefa07    ....    BL       am_hal_delay_us ; 0x18b90
        0x0001a782:    f8d80000    ....    LDR      r0,[r8,#0]
        0x0001a786:    f020003f     .?.    BIC      r0,r0,#0x3f
        0x0001a78a:    4338        8C      ORRS     r0,r0,r7
        0x0001a78c:    f8c80000    ....    STR      r0,[r8,#0]
        0x0001a790:    e011        ..      B        0x1a7b6 ; crypto_boost_trims + 194
        0x0001a792:    f8d80000    ....    LDR      r0,[r8,#0]
        0x0001a796:    f020003f     .?.    BIC      r0,r0,#0x3f
        0x0001a79a:    4338        8C      ORRS     r0,r0,r7
        0x0001a79c:    f8c80000    ....    STR      r0,[r8,#0]
        0x0001a7a0:    2014        .       MOVS     r0,#0x14
        0x0001a7a2:    f7fef9f5    ....    BL       am_hal_delay_us ; 0x18b90
        0x0001a7a6:    f8d802e4    ....    LDR      r0,[r8,#0x2e4]
        0x0001a7aa:    f020707c     .|p    BIC      r0,r0,#0x3f00000
        0x0001a7ae:    ea405006    @..P    ORR      r0,r0,r6,LSL #20
        0x0001a7b2:    f8c802e4    ....    STR      r0,[r8,#0x2e4]
        0x0001a7b6:    9801        ..      LDR      r0,[sp,#4]
        0x0001a7b8:    f7fefaca    ....    BL       am_hal_interrupt_master_set ; 0x18d50
        0x0001a7bc:    2014        .       MOVS     r0,#0x14
        0x0001a7be:    b002        ..      ADD      sp,sp,#8
        0x0001a7c0:    e8bd41f0    ...A    POP      {r4-r8,lr}
        0x0001a7c4:    f7feb9e4    ....    B        am_hal_delay_us ; 0x18b90
    decstr_to_int
        0x0001a7c8:    b087        ..      SUB      sp,sp,#0x1c
        0x0001a7ca:    9006        ..      STR      r0,[sp,#0x18]
        0x0001a7cc:    9105        ..      STR      r1,[sp,#0x14]
        0x0001a7ce:    2000        .       MOVS     r0,#0
        0x0001a7d0:    f88d0013    ....    STRB     r0,[sp,#0x13]
        0x0001a7d4:    9003        ..      STR      r0,[sp,#0xc]
        0x0001a7d6:    9002        ..      STR      r0,[sp,#8]
        0x0001a7d8:    9806        ..      LDR      r0,[sp,#0x18]
        0x0001a7da:    7800        .x      LDRB     r0,[r0,#0]
        0x0001a7dc:    282d        -(      CMP      r0,#0x2d
        0x0001a7de:    d10a        ..      BNE      0x1a7f6 ; decstr_to_int + 46
        0x0001a7e0:    e7ff        ..      B        0x1a7e2 ; decstr_to_int + 26
        0x0001a7e2:    2001        .       MOVS     r0,#1
        0x0001a7e4:    f88d0013    ....    STRB     r0,[sp,#0x13]
        0x0001a7e8:    9806        ..      LDR      r0,[sp,#0x18]
        0x0001a7ea:    3001        .0      ADDS     r0,#1
        0x0001a7ec:    9006        ..      STR      r0,[sp,#0x18]
        0x0001a7ee:    9802        ..      LDR      r0,[sp,#8]
        0x0001a7f0:    3001        .0      ADDS     r0,#1
        0x0001a7f2:    9002        ..      STR      r0,[sp,#8]
        0x0001a7f4:    e7ff        ..      B        0x1a7f6 ; decstr_to_int + 46
        0x0001a7f6:    e7ff        ..      B        0x1a7f8 ; decstr_to_int + 48
        0x0001a7f8:    9806        ..      LDR      r0,[sp,#0x18]
        0x0001a7fa:    7801        .x      LDRB     r1,[r0,#0]
        0x0001a7fc:    2000        .       MOVS     r0,#0
        0x0001a7fe:    2930        0)      CMP      r1,#0x30
        0x0001a800:    9001        ..      STR      r0,[sp,#4]
        0x0001a802:    db08        ..      BLT      0x1a816 ; decstr_to_int + 78
        0x0001a804:    e7ff        ..      B        0x1a806 ; decstr_to_int + 62
        0x0001a806:    9806        ..      LDR      r0,[sp,#0x18]
        0x0001a808:    7801        .x      LDRB     r1,[r0,#0]
        0x0001a80a:    2000        .       MOVS     r0,#0
        0x0001a80c:    293a        :)      CMP      r1,#0x3a
        0x0001a80e:    bfb8        ..      IT       LT
        0x0001a810:    2001        .       MOVLT    r0,#1
        0x0001a812:    9001        ..      STR      r0,[sp,#4]
        0x0001a814:    e7ff        ..      B        0x1a816 ; decstr_to_int + 78
        0x0001a816:    9801        ..      LDR      r0,[sp,#4]
        0x0001a818:    07c0        ..      LSLS     r0,r0,#31
        0x0001a81a:    b190        ..      CBZ      r0,0x1a842 ; decstr_to_int + 122
        0x0001a81c:    e7ff        ..      B        0x1a81e ; decstr_to_int + 86
        0x0001a81e:    9802        ..      LDR      r0,[sp,#8]
        0x0001a820:    3001        .0      ADDS     r0,#1
        0x0001a822:    9002        ..      STR      r0,[sp,#8]
        0x0001a824:    9803        ..      LDR      r0,[sp,#0xc]
        0x0001a826:    eb000080    ....    ADD      r0,r0,r0,LSL #2
        0x0001a82a:    0040        @.      LSLS     r0,r0,#1
        0x0001a82c:    9003        ..      STR      r0,[sp,#0xc]
        0x0001a82e:    9806        ..      LDR      r0,[sp,#0x18]
        0x0001a830:    7800        .x      LDRB     r0,[r0,#0]
        0x0001a832:    9903        ..      LDR      r1,[sp,#0xc]
        0x0001a834:    4408        .D      ADD      r0,r0,r1
        0x0001a836:    3830        08      SUBS     r0,r0,#0x30
        0x0001a838:    9003        ..      STR      r0,[sp,#0xc]
        0x0001a83a:    9806        ..      LDR      r0,[sp,#0x18]
        0x0001a83c:    3001        .0      ADDS     r0,#1
        0x0001a83e:    9006        ..      STR      r0,[sp,#0x18]
        0x0001a840:    e7da        ..      B        0x1a7f8 ; decstr_to_int + 48
        0x0001a842:    9805        ..      LDR      r0,[sp,#0x14]
        0x0001a844:    b120         .      CBZ      r0,0x1a850 ; decstr_to_int + 136
        0x0001a846:    e7ff        ..      B        0x1a848 ; decstr_to_int + 128
        0x0001a848:    9802        ..      LDR      r0,[sp,#8]
        0x0001a84a:    9905        ..      LDR      r1,[sp,#0x14]
        0x0001a84c:    6008        .`      STR      r0,[r1,#0]
        0x0001a84e:    e7ff        ..      B        0x1a850 ; decstr_to_int + 136
        0x0001a850:    f89d0013    ....    LDRB     r0,[sp,#0x13]
        0x0001a854:    07c0        ..      LSLS     r0,r0,#31
        0x0001a856:    b120         .      CBZ      r0,0x1a862 ; decstr_to_int + 154
        0x0001a858:    e7ff        ..      B        0x1a85a ; decstr_to_int + 146
        0x0001a85a:    9803        ..      LDR      r0,[sp,#0xc]
        0x0001a85c:    4240        @B      RSBS     r0,r0,#0
        0x0001a85e:    9000        ..      STR      r0,[sp,#0]
        0x0001a860:    e002        ..      B        0x1a868 ; decstr_to_int + 160
        0x0001a862:    9803        ..      LDR      r0,[sp,#0xc]
        0x0001a864:    9000        ..      STR      r0,[sp,#0]
        0x0001a866:    e7ff        ..      B        0x1a868 ; decstr_to_int + 160
        0x0001a868:    9800        ..      LDR      r0,[sp,#0]
        0x0001a86a:    b007        ..      ADD      sp,sp,#0x1c
        0x0001a86c:    4770        pG      BX       lr
        0x0001a86e:    0000        ..      MOVS     r0,r0
    divu64_10
        0x0001a870:    b08c        ..      SUB      sp,sp,#0x30
        0x0001a872:    9109        ..      STR      r1,[sp,#0x24]
        0x0001a874:    9008        ..      STR      r0,[sp,#0x20]
        0x0001a876:    9809        ..      LDR      r0,[sp,#0x24]
        0x0001a878:    2800        .(      CMP      r0,#0
        0x0001a87a:    d05b        [.      BEQ      0x1a934 ; divu64_10 + 196
        0x0001a87c:    e7ff        ..      B        0x1a87e ; divu64_10 + 14
        0x0001a87e:    9b08        ..      LDR      r3,[sp,#0x20]
        0x0001a880:    9a09        ..      LDR      r2,[sp,#0x24]
        0x0001a882:    ea5f0052    _.R.    LSRS.W   r0,r2,#1
        0x0001a886:    ea4f0133    O.3.    RRX      r1,r3
        0x0001a88a:    089b        ..      LSRS     r3,r3,#2
        0x0001a88c:    ea437382    C..s    ORR      r3,r3,r2,LSL #30
        0x0001a890:    18c9        ..      ADDS     r1,r1,r3
        0x0001a892:    eb400092    @...    ADC      r0,r0,r2,LSR #2
        0x0001a896:    9106        ..      STR      r1,[sp,#0x18]
        0x0001a898:    9007        ..      STR      r0,[sp,#0x1c]
        0x0001a89a:    9906        ..      LDR      r1,[sp,#0x18]
        0x0001a89c:    9807        ..      LDR      r0,[sp,#0x1c]
        0x0001a89e:    090a        ..      LSRS     r2,r1,#4
        0x0001a8a0:    ea427200    B..r    ORR      r2,r2,r0,LSL #28
        0x0001a8a4:    1889        ..      ADDS     r1,r1,r2
        0x0001a8a6:    eb401010    @...    ADC      r0,r0,r0,LSR #4
        0x0001a8aa:    9106        ..      STR      r1,[sp,#0x18]
        0x0001a8ac:    9007        ..      STR      r0,[sp,#0x1c]
        0x0001a8ae:    9906        ..      LDR      r1,[sp,#0x18]
        0x0001a8b0:    9807        ..      LDR      r0,[sp,#0x1c]
        0x0001a8b2:    0a0a        ..      LSRS     r2,r1,#8
        0x0001a8b4:    ea426200    B..b    ORR      r2,r2,r0,LSL #24
        0x0001a8b8:    1889        ..      ADDS     r1,r1,r2
        0x0001a8ba:    eb402010    @..     ADC      r0,r0,r0,LSR #8
        0x0001a8be:    9106        ..      STR      r1,[sp,#0x18]
        0x0001a8c0:    9007        ..      STR      r0,[sp,#0x1c]
        0x0001a8c2:    9906        ..      LDR      r1,[sp,#0x18]
        0x0001a8c4:    9807        ..      LDR      r0,[sp,#0x1c]
        0x0001a8c6:    0c0a        ..      LSRS     r2,r1,#16
        0x0001a8c8:    ea424200    B..B    ORR      r2,r2,r0,LSL #16
        0x0001a8cc:    1889        ..      ADDS     r1,r1,r2
        0x0001a8ce:    eb404010    @..@    ADC      r0,r0,r0,LSR #16
        0x0001a8d2:    9106        ..      STR      r1,[sp,#0x18]
        0x0001a8d4:    9007        ..      STR      r0,[sp,#0x1c]
        0x0001a8d6:    9906        ..      LDR      r1,[sp,#0x18]
        0x0001a8d8:    9807        ..      LDR      r0,[sp,#0x1c]
        0x0001a8da:    1809        ..      ADDS     r1,r1,r0
        0x0001a8dc:    f1400000    @...    ADC      r0,r0,#0
        0x0001a8e0:    9106        ..      STR      r1,[sp,#0x18]
        0x0001a8e2:    9007        ..      STR      r0,[sp,#0x1c]
        0x0001a8e4:    9806        ..      LDR      r0,[sp,#0x18]
        0x0001a8e6:    9907        ..      LDR      r1,[sp,#0x1c]
        0x0001a8e8:    08c0        ..      LSRS     r0,r0,#3
        0x0001a8ea:    ea407041    @.Ap    ORR      r0,r0,r1,LSL #29
        0x0001a8ee:    08c9        ..      LSRS     r1,r1,#3
        0x0001a8f0:    9107        ..      STR      r1,[sp,#0x1c]
        0x0001a8f2:    9006        ..      STR      r0,[sp,#0x18]
        0x0001a8f4:    9908        ..      LDR      r1,[sp,#0x20]
        0x0001a8f6:    9809        ..      LDR      r0,[sp,#0x24]
        0x0001a8f8:    9a06        ..      LDR      r2,[sp,#0x18]
        0x0001a8fa:    f8ddc01c    ....    LDR      r12,[sp,#0x1c]
        0x0001a8fe:    230a        .#      MOVS     r3,#0xa
        0x0001a900:    fba23203    ...2    UMULL    r3,r2,r2,r3
        0x0001a904:    eb0c0c8c    ....    ADD      r12,r12,r12,LSL #2
        0x0001a908:    eb02024c    ..L.    ADD      r2,r2,r12,LSL #1
        0x0001a90c:    1ac9        ..      SUBS     r1,r1,r3
        0x0001a90e:    4190        .A      SBCS     r0,r0,r2
        0x0001a910:    9104        ..      STR      r1,[sp,#0x10]
        0x0001a912:    9005        ..      STR      r0,[sp,#0x14]
        0x0001a914:    9906        ..      LDR      r1,[sp,#0x18]
        0x0001a916:    9807        ..      LDR      r0,[sp,#0x1c]
        0x0001a918:    9b04        ..      LDR      r3,[sp,#0x10]
        0x0001a91a:    9a05        ..      LDR      r2,[sp,#0x14]
        0x0001a91c:    3306        .3      ADDS     r3,#6
        0x0001a91e:    f1420200    B...    ADC      r2,r2,#0
        0x0001a922:    091b        ..      LSRS     r3,r3,#4
        0x0001a924:    ea437302    C..s    ORR      r3,r3,r2,LSL #28
        0x0001a928:    18c9        ..      ADDS     r1,r1,r3
        0x0001a92a:    eb401012    @...    ADC      r0,r0,r2,LSR #4
        0x0001a92e:    910a        ..      STR      r1,[sp,#0x28]
        0x0001a930:    900b        ..      STR      r0,[sp,#0x2c]
        0x0001a932:    e025        %.      B        0x1a980 ; divu64_10 + 272
        0x0001a934:    9808        ..      LDR      r0,[sp,#0x20]
        0x0001a936:    9001        ..      STR      r0,[sp,#4]
        0x0001a938:    9901        ..      LDR      r1,[sp,#4]
        0x0001a93a:    0848        H.      LSRS     r0,r1,#1
        0x0001a93c:    eb000091    ....    ADD      r0,r0,r1,LSR #2
        0x0001a940:    9003        ..      STR      r0,[sp,#0xc]
        0x0001a942:    9803        ..      LDR      r0,[sp,#0xc]
        0x0001a944:    eb001010    ....    ADD      r0,r0,r0,LSR #4
        0x0001a948:    9003        ..      STR      r0,[sp,#0xc]
        0x0001a94a:    9803        ..      LDR      r0,[sp,#0xc]
        0x0001a94c:    eb002010    ...     ADD      r0,r0,r0,LSR #8
        0x0001a950:    9003        ..      STR      r0,[sp,#0xc]
        0x0001a952:    9803        ..      LDR      r0,[sp,#0xc]
        0x0001a954:    eb004010    ...@    ADD      r0,r0,r0,LSR #16
        0x0001a958:    9003        ..      STR      r0,[sp,#0xc]
        0x0001a95a:    9803        ..      LDR      r0,[sp,#0xc]
        0x0001a95c:    08c0        ..      LSRS     r0,r0,#3
        0x0001a95e:    9003        ..      STR      r0,[sp,#0xc]
        0x0001a960:    9801        ..      LDR      r0,[sp,#4]
        0x0001a962:    9903        ..      LDR      r1,[sp,#0xc]
        0x0001a964:    eb010181    ....    ADD      r1,r1,r1,LSL #2
        0x0001a968:    eba00041    ..A.    SUB      r0,r0,r1,LSL #1
        0x0001a96c:    9002        ..      STR      r0,[sp,#8]
        0x0001a96e:    9803        ..      LDR      r0,[sp,#0xc]
        0x0001a970:    9902        ..      LDR      r1,[sp,#8]
        0x0001a972:    3106        .1      ADDS     r1,#6
        0x0001a974:    eb001011    ....    ADD      r0,r0,r1,LSR #4
        0x0001a978:    2100        .!      MOVS     r1,#0
        0x0001a97a:    910b        ..      STR      r1,[sp,#0x2c]
        0x0001a97c:    900a        ..      STR      r0,[sp,#0x28]
        0x0001a97e:    e7ff        ..      B        0x1a980 ; divu64_10 + 272
        0x0001a980:    980a        ..      LDR      r0,[sp,#0x28]
        0x0001a982:    990b        ..      LDR      r1,[sp,#0x2c]
        0x0001a984:    b00c        ..      ADD      sp,sp,#0x30
        0x0001a986:    4770        pG      BX       lr
    ftoa
        0x0001a988:    b580        ..      PUSH     {r7,lr}
        0x0001a98a:    b090        ..      SUB      sp,sp,#0x40
        0x0001a98c:    ed8d0a0e    ....    VSTR     s0,[sp,#0x38]
        0x0001a990:    900d        ..      STR      r0,[sp,#0x34]
        0x0001a992:    910c        ..      STR      r1,[sp,#0x30]
        0x0001a994:    980d        ..      LDR      r0,[sp,#0x34]
        0x0001a996:    6800        .h      LDR      r0,[r0,#0]
        0x0001a998:    9009        ..      STR      r0,[sp,#0x24]
        0x0001a99a:    9809        ..      LDR      r0,[sp,#0x24]
        0x0001a99c:    2803        .(      CMP      r0,#3
        0x0001a99e:    dc04        ..      BGT      0x1a9aa ; ftoa + 34
        0x0001a9a0:    e7ff        ..      B        0x1a9a2 ; ftoa + 26
        0x0001a9a2:    f06f0002    o...    MVN      r0,#2
        0x0001a9a6:    900f        ..      STR      r0,[sp,#0x3c]
        0x0001a9a8:    e103        ..      B        0x1abb2 ; ftoa + 554
        0x0001a9aa:    ed9d0a0e    ....    VLDR     s0,[sp,#0x38]
        0x0001a9ae:    eeb50a40    ..@.    VCMP.F32 s0,#0.0
        0x0001a9b2:    eef1fa10    ....    VMRS     APSR_nzcv,FPSCR
        0x0001a9b6:    d109        ..      BNE      0x1a9cc ; ftoa + 68
        0x0001a9b8:    e7ff        ..      B        0x1a9ba ; ftoa + 50
        0x0001a9ba:    990d        ..      LDR      r1,[sp,#0x34]
        0x0001a9bc:    f6426030    B.0`    MOV      r0,#0x2e30
        0x0001a9c0:    f2c00030    ..0.    MOVT     r0,#0x30
        0x0001a9c4:    6008        .`      STR      r0,[r1,#0]
        0x0001a9c6:    2003        .       MOVS     r0,#3
        0x0001a9c8:    900f        ..      STR      r0,[sp,#0x3c]
        0x0001a9ca:    e0f2        ..      B        0x1abb2 ; ftoa + 554
        0x0001a9cc:    980d        ..      LDR      r0,[sp,#0x34]
        0x0001a9ce:    9005        ..      STR      r0,[sp,#0x14]
        0x0001a9d0:    980e        ..      LDR      r0,[sp,#0x38]
        0x0001a9d2:    900b        ..      STR      r0,[sp,#0x2c]
        0x0001a9d4:    980b        ..      LDR      r0,[sp,#0x2c]
        0x0001a9d6:    0dc1        ..      LSRS     r1,r0,#23
        0x0001a9d8:    f06f007e    o.~.    MVN      r0,#0x7e
        0x0001a9dc:    fa50f081    P...    UXTAB    r0,r0,r1
        0x0001a9e0:    900a        ..      STR      r0,[sp,#0x28]
        0x0001a9e2:    980b        ..      LDR      r0,[sp,#0x2c]
        0x0001a9e4:    f4400000    @...    ORR      r0,r0,#0x800000
        0x0001a9e8:    f020407f     ..@    BIC      r0,r0,#0xff000000
        0x0001a9ec:    9008        ..      STR      r0,[sp,#0x20]
        0x0001a9ee:    2000        .       MOVS     r0,#0
        0x0001a9f0:    9006        ..      STR      r0,[sp,#0x18]
        0x0001a9f2:    9007        ..      STR      r0,[sp,#0x1c]
        0x0001a9f4:    980a        ..      LDR      r0,[sp,#0x28]
        0x0001a9f6:    281f        .(      CMP      r0,#0x1f
        0x0001a9f8:    db04        ..      BLT      0x1aa04 ; ftoa + 124
        0x0001a9fa:    e7ff        ..      B        0x1a9fc ; ftoa + 116
        0x0001a9fc:    f06f0001    o...    MVN      r0,#1
        0x0001aa00:    900f        ..      STR      r0,[sp,#0x3c]
        0x0001aa02:    e0d6        ..      B        0x1abb2 ; ftoa + 554
        0x0001aa04:    980a        ..      LDR      r0,[sp,#0x28]
        0x0001aa06:    f1100f18    ....    CMN      r0,#0x18
        0x0001aa0a:    dc04        ..      BGT      0x1aa16 ; ftoa + 142
        0x0001aa0c:    e7ff        ..      B        0x1aa0e ; ftoa + 134
        0x0001aa0e:    f04f30ff    O..0    MOV      r0,#0xffffffff
        0x0001aa12:    900f        ..      STR      r0,[sp,#0x3c]
        0x0001aa14:    e0cd        ..      B        0x1abb2 ; ftoa + 554
        0x0001aa16:    980a        ..      LDR      r0,[sp,#0x28]
        0x0001aa18:    2817        .(      CMP      r0,#0x17
        0x0001aa1a:    db06        ..      BLT      0x1aa2a ; ftoa + 162
        0x0001aa1c:    e7ff        ..      B        0x1aa1e ; ftoa + 150
        0x0001aa1e:    9808        ..      LDR      r0,[sp,#0x20]
        0x0001aa20:    990a        ..      LDR      r1,[sp,#0x28]
        0x0001aa22:    3917        .9      SUBS     r1,r1,#0x17
        0x0001aa24:    4088        .@      LSLS     r0,r0,r1
        0x0001aa26:    9007        ..      STR      r0,[sp,#0x1c]
        0x0001aa28:    e01a        ..      B        0x1aa60 ; ftoa + 216
        0x0001aa2a:    980a        ..      LDR      r0,[sp,#0x28]
        0x0001aa2c:    2800        .(      CMP      r0,#0
        0x0001aa2e:    d40e        ..      BMI      0x1aa4e ; ftoa + 198
        0x0001aa30:    e7ff        ..      B        0x1aa32 ; ftoa + 170
        0x0001aa32:    9808        ..      LDR      r0,[sp,#0x20]
        0x0001aa34:    990a        ..      LDR      r1,[sp,#0x28]
        0x0001aa36:    f1c10117    ....    RSB      r1,r1,#0x17
        0x0001aa3a:    4108        .A      ASRS     r0,r0,r1
        0x0001aa3c:    9007        ..      STR      r0,[sp,#0x1c]
        0x0001aa3e:    9808        ..      LDR      r0,[sp,#0x20]
        0x0001aa40:    990a        ..      LDR      r1,[sp,#0x28]
        0x0001aa42:    3101        .1      ADDS     r1,#1
        0x0001aa44:    4088        .@      LSLS     r0,r0,r1
        0x0001aa46:    f020407f     ..@    BIC      r0,r0,#0xff000000
        0x0001aa4a:    9006        ..      STR      r0,[sp,#0x18]
        0x0001aa4c:    e007        ..      B        0x1aa5e ; ftoa + 214
        0x0001aa4e:    9808        ..      LDR      r0,[sp,#0x20]
        0x0001aa50:    f020407f     ..@    BIC      r0,r0,#0xff000000
        0x0001aa54:    990a        ..      LDR      r1,[sp,#0x28]
        0x0001aa56:    43c9        .C      MVNS     r1,r1
        0x0001aa58:    40c8        .@      LSRS     r0,r0,r1
        0x0001aa5a:    9006        ..      STR      r0,[sp,#0x18]
        0x0001aa5c:    e7ff        ..      B        0x1aa5e ; ftoa + 214
        0x0001aa5e:    e7ff        ..      B        0x1aa60 ; ftoa + 216
        0x0001aa60:    e7ff        ..      B        0x1aa62 ; ftoa + 218
        0x0001aa62:    e7ff        ..      B        0x1aa64 ; ftoa + 220
        0x0001aa64:    980b        ..      LDR      r0,[sp,#0x2c]
        0x0001aa66:    f1b03fff    ...?    CMP      r0,#0xffffffff
        0x0001aa6a:    dc06        ..      BGT      0x1aa7a ; ftoa + 242
        0x0001aa6c:    e7ff        ..      B        0x1aa6e ; ftoa + 230
        0x0001aa6e:    990d        ..      LDR      r1,[sp,#0x34]
        0x0001aa70:    1c48        H.      ADDS     r0,r1,#1
        0x0001aa72:    900d        ..      STR      r0,[sp,#0x34]
        0x0001aa74:    202d        -       MOVS     r0,#0x2d
        0x0001aa76:    7008        .p      STRB     r0,[r1,#0]
        0x0001aa78:    e7ff        ..      B        0x1aa7a ; ftoa + 242
        0x0001aa7a:    9807        ..      LDR      r0,[sp,#0x1c]
        0x0001aa7c:    b930        0.      CBNZ     r0,0x1aa8c ; ftoa + 260
        0x0001aa7e:    e7ff        ..      B        0x1aa80 ; ftoa + 248
        0x0001aa80:    990d        ..      LDR      r1,[sp,#0x34]
        0x0001aa82:    1c48        H.      ADDS     r0,r1,#1
        0x0001aa84:    900d        ..      STR      r0,[sp,#0x34]
        0x0001aa86:    2030        0       MOVS     r0,#0x30
        0x0001aa88:    7008        .p      STRB     r0,[r1,#0]
        0x0001aa8a:    e01f        ..      B        0x1aacc ; ftoa + 324
        0x0001aa8c:    9807        ..      LDR      r0,[sp,#0x1c]
        0x0001aa8e:    2801        .(      CMP      r0,#1
        0x0001aa90:    db06        ..      BLT      0x1aaa0 ; ftoa + 280
        0x0001aa92:    e7ff        ..      B        0x1aa94 ; ftoa + 268
        0x0001aa94:    9807        ..      LDR      r0,[sp,#0x1c]
        0x0001aa96:    17c1        ..      ASRS     r1,r0,#31
        0x0001aa98:    9a0d        ..      LDR      r2,[sp,#0x34]
        0x0001aa9a:    f000fb61    ..a.    BL       uint64_to_str ; 0x1b160
        0x0001aa9e:    e00b        ..      B        0x1aab8 ; ftoa + 304
        0x0001aaa0:    990d        ..      LDR      r1,[sp,#0x34]
        0x0001aaa2:    1c48        H.      ADDS     r0,r1,#1
        0x0001aaa4:    900d        ..      STR      r0,[sp,#0x34]
        0x0001aaa6:    202d        -       MOVS     r0,#0x2d
        0x0001aaa8:    7008        .p      STRB     r0,[r1,#0]
        0x0001aaaa:    9807        ..      LDR      r0,[sp,#0x1c]
        0x0001aaac:    4240        @B      RSBS     r0,r0,#0
        0x0001aaae:    17c1        ..      ASRS     r1,r0,#31
        0x0001aab0:    9a0d        ..      LDR      r2,[sp,#0x34]
        0x0001aab2:    f000fb55    ..U.    BL       uint64_to_str ; 0x1b160
        0x0001aab6:    e7ff        ..      B        0x1aab8 ; ftoa + 304
        0x0001aab8:    e7ff        ..      B        0x1aaba ; ftoa + 306
        0x0001aaba:    980d        ..      LDR      r0,[sp,#0x34]
        0x0001aabc:    7800        .x      LDRB     r0,[r0,#0]
        0x0001aabe:    b120         .      CBZ      r0,0x1aaca ; ftoa + 322
        0x0001aac0:    e7ff        ..      B        0x1aac2 ; ftoa + 314
        0x0001aac2:    980d        ..      LDR      r0,[sp,#0x34]
        0x0001aac4:    3001        .0      ADDS     r0,#1
        0x0001aac6:    900d        ..      STR      r0,[sp,#0x34]
        0x0001aac8:    e7f7        ..      B        0x1aaba ; ftoa + 306
        0x0001aaca:    e7ff        ..      B        0x1aacc ; ftoa + 324
        0x0001aacc:    990d        ..      LDR      r1,[sp,#0x34]
        0x0001aace:    1c48        H.      ADDS     r0,r1,#1
        0x0001aad0:    900d        ..      STR      r0,[sp,#0x34]
        0x0001aad2:    202e        .       MOVS     r0,#0x2e
        0x0001aad4:    7008        .p      STRB     r0,[r1,#0]
        0x0001aad6:    9806        ..      LDR      r0,[sp,#0x18]
        0x0001aad8:    b930        0.      CBNZ     r0,0x1aae8 ; ftoa + 352
        0x0001aada:    e7ff        ..      B        0x1aadc ; ftoa + 340
        0x0001aadc:    990d        ..      LDR      r1,[sp,#0x34]
        0x0001aade:    1c48        H.      ADDS     r0,r1,#1
        0x0001aae0:    900d        ..      STR      r0,[sp,#0x34]
        0x0001aae2:    2030        0       MOVS     r0,#0x30
        0x0001aae4:    7008        .p      STRB     r0,[r1,#0]
        0x0001aae6:    e05c        \.      B        0x1aba2 ; ftoa + 538
        0x0001aae8:    9909        ..      LDR      r1,[sp,#0x24]
        0x0001aaea:    980d        ..      LDR      r0,[sp,#0x34]
        0x0001aaec:    9a05        ..      LDR      r2,[sp,#0x14]
        0x0001aaee:    1a80        ..      SUBS     r0,r0,r2
        0x0001aaf0:    43c0        .C      MVNS     r0,r0
        0x0001aaf2:    4408        .D      ADD      r0,r0,r1
        0x0001aaf4:    9002        ..      STR      r0,[sp,#8]
        0x0001aaf6:    9802        ..      LDR      r0,[sp,#8]
        0x0001aaf8:    990c        ..      LDR      r1,[sp,#0x30]
        0x0001aafa:    4288        .B      CMP      r0,r1
        0x0001aafc:    dd03        ..      BLE      0x1ab06 ; ftoa + 382
        0x0001aafe:    e7ff        ..      B        0x1ab00 ; ftoa + 376
        0x0001ab00:    980c        ..      LDR      r0,[sp,#0x30]
        0x0001ab02:    9001        ..      STR      r0,[sp,#4]
        0x0001ab04:    e002        ..      B        0x1ab0c ; ftoa + 388
        0x0001ab06:    9802        ..      LDR      r0,[sp,#8]
        0x0001ab08:    9001        ..      STR      r0,[sp,#4]
        0x0001ab0a:    e7ff        ..      B        0x1ab0c ; ftoa + 388
        0x0001ab0c:    9801        ..      LDR      r0,[sp,#4]
        0x0001ab0e:    9002        ..      STR      r0,[sp,#8]
        0x0001ab10:    2000        .       MOVS     r0,#0
        0x0001ab12:    9003        ..      STR      r0,[sp,#0xc]
        0x0001ab14:    e7ff        ..      B        0x1ab16 ; ftoa + 398
        0x0001ab16:    9803        ..      LDR      r0,[sp,#0xc]
        0x0001ab18:    9902        ..      LDR      r1,[sp,#8]
        0x0001ab1a:    4288        .B      CMP      r0,r1
        0x0001ab1c:    da15        ..      BGE      0x1ab4a ; ftoa + 450
        0x0001ab1e:    e7ff        ..      B        0x1ab20 ; ftoa + 408
        0x0001ab20:    9806        ..      LDR      r0,[sp,#0x18]
        0x0001ab22:    eb000080    ....    ADD      r0,r0,r0,LSL #2
        0x0001ab26:    0040        @.      LSLS     r0,r0,#1
        0x0001ab28:    9006        ..      STR      r0,[sp,#0x18]
        0x0001ab2a:    f89d001b    ....    LDRB     r0,[sp,#0x1b]
        0x0001ab2e:    3030        00      ADDS     r0,r0,#0x30
        0x0001ab30:    990d        ..      LDR      r1,[sp,#0x34]
        0x0001ab32:    1c4a        J.      ADDS     r2,r1,#1
        0x0001ab34:    920d        ..      STR      r2,[sp,#0x34]
        0x0001ab36:    7008        .p      STRB     r0,[r1,#0]
        0x0001ab38:    9806        ..      LDR      r0,[sp,#0x18]
        0x0001ab3a:    f020407f     ..@    BIC      r0,r0,#0xff000000
        0x0001ab3e:    9006        ..      STR      r0,[sp,#0x18]
        0x0001ab40:    e7ff        ..      B        0x1ab42 ; ftoa + 442
        0x0001ab42:    9803        ..      LDR      r0,[sp,#0xc]
        0x0001ab44:    3001        .0      ADDS     r0,#1
        0x0001ab46:    9003        ..      STR      r0,[sp,#0xc]
        0x0001ab48:    e7e5        ..      B        0x1ab16 ; ftoa + 398
        0x0001ab4a:    9806        ..      LDR      r0,[sp,#0x18]
        0x0001ab4c:    eb000080    ....    ADD      r0,r0,r0,LSL #2
        0x0001ab50:    f34050c7    @..P    SBFX     r0,r0,#23,#8
        0x0001ab54:    2805        .(      CMP      r0,#5
        0x0001ab56:    db23        #.      BLT      0x1aba0 ; ftoa + 536
        0x0001ab58:    e7ff        ..      B        0x1ab5a ; ftoa + 466
        0x0001ab5a:    980d        ..      LDR      r0,[sp,#0x34]
        0x0001ab5c:    3801        .8      SUBS     r0,#1
        0x0001ab5e:    9004        ..      STR      r0,[sp,#0x10]
        0x0001ab60:    e7ff        ..      B        0x1ab62 ; ftoa + 474
        0x0001ab62:    9804        ..      LDR      r0,[sp,#0x10]
        0x0001ab64:    9905        ..      LDR      r1,[sp,#0x14]
        0x0001ab66:    4288        .B      CMP      r0,r1
        0x0001ab68:    d319        ..      BCC      0x1ab9e ; ftoa + 534
        0x0001ab6a:    e7ff        ..      B        0x1ab6c ; ftoa + 484
        0x0001ab6c:    9804        ..      LDR      r0,[sp,#0x10]
        0x0001ab6e:    7800        .x      LDRB     r0,[r0,#0]
        0x0001ab70:    282e        .(      CMP      r0,#0x2e
        0x0001ab72:    d101        ..      BNE      0x1ab78 ; ftoa + 496
        0x0001ab74:    e7ff        ..      B        0x1ab76 ; ftoa + 494
        0x0001ab76:    e00e        ..      B        0x1ab96 ; ftoa + 526
        0x0001ab78:    9804        ..      LDR      r0,[sp,#0x10]
        0x0001ab7a:    7800        .x      LDRB     r0,[r0,#0]
        0x0001ab7c:    2839        9(      CMP      r0,#0x39
        0x0001ab7e:    d104        ..      BNE      0x1ab8a ; ftoa + 514
        0x0001ab80:    e7ff        ..      B        0x1ab82 ; ftoa + 506
        0x0001ab82:    9904        ..      LDR      r1,[sp,#0x10]
        0x0001ab84:    2030        0       MOVS     r0,#0x30
        0x0001ab86:    7008        .p      STRB     r0,[r1,#0]
        0x0001ab88:    e004        ..      B        0x1ab94 ; ftoa + 524
        0x0001ab8a:    9904        ..      LDR      r1,[sp,#0x10]
        0x0001ab8c:    7808        .x      LDRB     r0,[r1,#0]
        0x0001ab8e:    3001        .0      ADDS     r0,#1
        0x0001ab90:    7008        .p      STRB     r0,[r1,#0]
        0x0001ab92:    e004        ..      B        0x1ab9e ; ftoa + 534
        0x0001ab94:    e7ff        ..      B        0x1ab96 ; ftoa + 526
        0x0001ab96:    9804        ..      LDR      r0,[sp,#0x10]
        0x0001ab98:    3801        .8      SUBS     r0,#1
        0x0001ab9a:    9004        ..      STR      r0,[sp,#0x10]
        0x0001ab9c:    e7e1        ..      B        0x1ab62 ; ftoa + 474
        0x0001ab9e:    e7ff        ..      B        0x1aba0 ; ftoa + 536
        0x0001aba0:    e7ff        ..      B        0x1aba2 ; ftoa + 538
        0x0001aba2:    990d        ..      LDR      r1,[sp,#0x34]
        0x0001aba4:    2000        .       MOVS     r0,#0
        0x0001aba6:    7008        .p      STRB     r0,[r1,#0]
        0x0001aba8:    980d        ..      LDR      r0,[sp,#0x34]
        0x0001abaa:    9905        ..      LDR      r1,[sp,#0x14]
        0x0001abac:    1a40        @.      SUBS     r0,r0,r1
        0x0001abae:    900f        ..      STR      r0,[sp,#0x3c]
        0x0001abb0:    e7ff        ..      B        0x1abb2 ; ftoa + 554
        0x0001abb2:    980f        ..      LDR      r0,[sp,#0x3c]
        0x0001abb4:    b010        ..      ADD      sp,sp,#0x40
        0x0001abb6:    bd80        ..      POP      {r7,pc}
    getStackedReg
        0x0001abb8:    0080        ..      LSLS     r0,r0,#2
        0x0001abba:    1840        @.      ADDS     r0,r0,r1
        0x0001abbc:    6800        .h      LDR      r0,[r0,#0]
        0x0001abbe:    4770        pG      BX       lr
    main
        0x0001abc0:    b580        ..      PUSH     {r7,lr}
        0x0001abc2:    b084        ..      SUB      sp,sp,#0x10
        0x0001abc4:    2000        .       MOVS     r0,#0
        0x0001abc6:    9003        ..      STR      r0,[sp,#0xc]
        0x0001abc8:    f2403148    @.H1    MOVW     r1,#0x348
        0x0001abcc:    f2c10100    ....    MOVT     r1,#0x1000
        0x0001abd0:    9100        ..      STR      r1,[sp,#0]
        0x0001abd2:    f2403054    @.T0    MOVW     r0,#0x354
        0x0001abd6:    f2c10000    ....    MOVT     r0,#0x1000
        0x0001abda:    6008        .`      STR      r0,[r1,#0]
        0x0001abdc:    f24000d0    @...    MOVW     r0,#0xd0
        0x0001abe0:    f2c10000    ....    MOVT     r0,#0x1000
        0x0001abe4:    6048        H`      STR      r0,[r1,#4]
        0x0001abe6:    f7fdfdc7    ....    BL       am_bsp_debug_printf_enable ; 0x18778
        0x0001abea:    f7fff9e1    ....    BL       am_util_stdio_terminal_clear ; 0x19fb0
        0x0001abee:    f24e2084    N..     MOV      r0,#0xe284
        0x0001abf2:    f2c00001    ....    MOVT     r0,#1
        0x0001abf6:    f7fff9a3    ....    BL       am_util_stdio_printf ; 0x19f40
        0x0001abfa:    f7fdfe1a    ....    BL       am_bsp_low_power_init ; 0x18832
        0x0001abfe:    f24e20d7    N..     MOV      r0,#0xe2d7
        0x0001ac02:    f2c00001    ....    MOVT     r0,#1
        0x0001ac06:    f7fff99b    ....    BL       am_util_stdio_printf ; 0x19f40
        0x0001ac0a:    2012        .       MOVS     r0,#0x12
        0x0001ac0c:    f7fefc16    ....    BL       am_hal_pwrctrl_periph_enable ; 0x1943c
        0x0001ac10:    f6407008    @..p    MOV      r0,#0xf08
        0x0001ac14:    f2c10000    ....    MOVT     r0,#0x1000
        0x0001ac18:    f44f4100    O..A    MOV      r1,#0x8000
        0x0001ac1c:    f002fb8c    ....    BL       mbedtls_memory_buffer_alloc_init ; 0x1d338
        0x0001ac20:    9800        ..      LDR      r0,[sp,#0]
        0x0001ac22:    f24031dc    @..1    MOVW     r1,#0x3dc
        0x0001ac26:    f2c10100    ....    MOVT     r1,#0x1000
        0x0001ac2a:    f000fb57    ..W.    BL       CC_LibInit ; 0x1b2dc
        0x0001ac2e:    9800        ..      LDR      r0,[sp,#0]
        0x0001ac30:    6800        .h      LDR      r0,[r0,#0]
        0x0001ac32:    f640710c    @..q    MOV      r1,#0xf0c
        0x0001ac36:    f2c10102    ....    MOVT     r1,#0x1002
        0x0001ac3a:    2280        ."      MOVS     r2,#0x80
        0x0001ac3c:    f001fc83    ....    BL       mbedtls_ctr_drbg_random ; 0x1c546
        0x0001ac40:    9002        ..      STR      r0,[sp,#8]
        0x0001ac42:    9802        ..      LDR      r0,[sp,#8]
        0x0001ac44:    b140        @.      CBZ      r0,0x1ac58 ; main + 152
        0x0001ac46:    e7ff        ..      B        0x1ac48 ; main + 136
        0x0001ac48:    9902        ..      LDR      r1,[sp,#8]
        0x0001ac4a:    f24e20c0    N..     MOV      r0,#0xe2c0
        0x0001ac4e:    f2c00001    ....    MOVT     r0,#1
        0x0001ac52:    f7fff975    ..u.    BL       am_util_stdio_printf ; 0x19f40
        0x0001ac56:    e01e        ..      B        0x1ac96 ; main + 214
        0x0001ac58:    f24e20a7    N..     MOV      r0,#0xe2a7
        0x0001ac5c:    f2c00001    ....    MOVT     r0,#1
        0x0001ac60:    f7fff96e    ..n.    BL       am_util_stdio_printf ; 0x19f40
        0x0001ac64:    2000        .       MOVS     r0,#0
        0x0001ac66:    9001        ..      STR      r0,[sp,#4]
        0x0001ac68:    e7ff        ..      B        0x1ac6a ; main + 170
        0x0001ac6a:    9801        ..      LDR      r0,[sp,#4]
        0x0001ac6c:    287f        .(      CMP      r0,#0x7f
        0x0001ac6e:    d811        ..      BHI      0x1ac94 ; main + 212
        0x0001ac70:    e7ff        ..      B        0x1ac72 ; main + 178
        0x0001ac72:    9901        ..      LDR      r1,[sp,#4]
        0x0001ac74:    f640700c    @..p    MOV      r0,#0xf0c
        0x0001ac78:    f2c10002    ....    MOVT     r0,#0x1002
        0x0001ac7c:    5c41        A\      LDRB     r1,[r0,r1]
        0x0001ac7e:    f24e5007    N..P    MOV      r0,#0xe507
        0x0001ac82:    f2c00001    ....    MOVT     r0,#1
        0x0001ac86:    f7fff95b    ..[.    BL       am_util_stdio_printf ; 0x19f40
        0x0001ac8a:    e7ff        ..      B        0x1ac8c ; main + 204
        0x0001ac8c:    9801        ..      LDR      r0,[sp,#4]
        0x0001ac8e:    3001        .0      ADDS     r0,#1
        0x0001ac90:    9001        ..      STR      r0,[sp,#4]
        0x0001ac92:    e7ea        ..      B        0x1ac6a ; main + 170
        0x0001ac94:    e7ff        ..      B        0x1ac96 ; main + 214
        0x0001ac96:    f24e2098    N..     MOV      r0,#0xe298
        0x0001ac9a:    f2c00001    ....    MOVT     r0,#1
        0x0001ac9e:    f7fff94f    ..O.    BL       am_util_stdio_printf ; 0x19f40
        0x0001aca2:    e7ff        ..      B        0x1aca4 ; main + 228
        0x0001aca4:    2000        .       MOVS     r0,#0
        0x0001aca6:    f7fefcf5    ....    BL       am_hal_sysctrl_sleep ; 0x19694
        0x0001acaa:    e7fb        ..      B        0x1aca4 ; main + 228
    ndigits_in_hex
        0x0001acac:    b084        ..      SUB      sp,sp,#0x10
        0x0001acae:    9103        ..      STR      r1,[sp,#0xc]
        0x0001acb0:    9002        ..      STR      r0,[sp,#8]
        0x0001acb2:    9802        ..      LDR      r0,[sp,#8]
        0x0001acb4:    9903        ..      LDR      r1,[sp,#0xc]
        0x0001acb6:    4308        .C      ORRS     r0,r0,r1
        0x0001acb8:    fab0f080    ....    CLZ      r0,r0
        0x0001acbc:    0940        @.      LSRS     r0,r0,#5
        0x0001acbe:    9001        ..      STR      r0,[sp,#4]
        0x0001acc0:    e7ff        ..      B        0x1acc2 ; ndigits_in_hex + 22
        0x0001acc2:    9802        ..      LDR      r0,[sp,#8]
        0x0001acc4:    9903        ..      LDR      r1,[sp,#0xc]
        0x0001acc6:    4308        .C      ORRS     r0,r0,r1
        0x0001acc8:    b160        `.      CBZ      r0,0x1ace4 ; ndigits_in_hex + 56
        0x0001acca:    e7ff        ..      B        0x1accc ; ndigits_in_hex + 32
        0x0001accc:    9802        ..      LDR      r0,[sp,#8]
        0x0001acce:    9903        ..      LDR      r1,[sp,#0xc]
        0x0001acd0:    0900        ..      LSRS     r0,r0,#4
        0x0001acd2:    ea407001    @..p    ORR      r0,r0,r1,LSL #28
        0x0001acd6:    0909        ..      LSRS     r1,r1,#4
        0x0001acd8:    9103        ..      STR      r1,[sp,#0xc]
        0x0001acda:    9002        ..      STR      r0,[sp,#8]
        0x0001acdc:    9801        ..      LDR      r0,[sp,#4]
        0x0001acde:    3001        .0      ADDS     r0,#1
        0x0001ace0:    9001        ..      STR      r0,[sp,#4]
        0x0001ace2:    e7ee        ..      B        0x1acc2 ; ndigits_in_hex + 22
        0x0001ace4:    9801        ..      LDR      r0,[sp,#4]
        0x0001ace6:    b004        ..      ADD      sp,sp,#0x10
        0x0001ace8:    4770        pG      BX       lr
        0x0001acea:    0000        ..      MOVS     r0,r0
    ndigits_in_i64
        0x0001acec:    b580        ..      PUSH     {r7,lr}
        0x0001acee:    b082        ..      SUB      sp,sp,#8
        0x0001acf0:    9101        ..      STR      r1,[sp,#4]
        0x0001acf2:    9000        ..      STR      r0,[sp,#0]
        0x0001acf4:    9801        ..      LDR      r0,[sp,#4]
        0x0001acf6:    f1b03fff    ...?    CMP      r0,#0xffffffff
        0x0001acfa:    dc09        ..      BGT      0x1ad10 ; ndigits_in_i64 + 36
        0x0001acfc:    e7ff        ..      B        0x1acfe ; ndigits_in_i64 + 18
        0x0001acfe:    9800        ..      LDR      r0,[sp,#0]
        0x0001ad00:    9a01        ..      LDR      r2,[sp,#4]
        0x0001ad02:    4241        AB      RSBS     r1,r0,#0
        0x0001ad04:    f04f0000    O...    MOV      r0,#0
        0x0001ad08:    4190        .A      SBCS     r0,r0,r2
        0x0001ad0a:    9100        ..      STR      r1,[sp,#0]
        0x0001ad0c:    9001        ..      STR      r0,[sp,#4]
        0x0001ad0e:    e7ff        ..      B        0x1ad10 ; ndigits_in_i64 + 36
        0x0001ad10:    9800        ..      LDR      r0,[sp,#0]
        0x0001ad12:    9901        ..      LDR      r1,[sp,#4]
        0x0001ad14:    f000f802    ....    BL       ndigits_in_u64 ; 0x1ad1c
        0x0001ad18:    b002        ..      ADD      sp,sp,#8
        0x0001ad1a:    bd80        ..      POP      {r7,pc}
    ndigits_in_u64
        0x0001ad1c:    b580        ..      PUSH     {r7,lr}
        0x0001ad1e:    b084        ..      SUB      sp,sp,#0x10
        0x0001ad20:    9103        ..      STR      r1,[sp,#0xc]
        0x0001ad22:    9002        ..      STR      r0,[sp,#8]
        0x0001ad24:    9802        ..      LDR      r0,[sp,#8]
        0x0001ad26:    9903        ..      LDR      r1,[sp,#0xc]
        0x0001ad28:    4308        .C      ORRS     r0,r0,r1
        0x0001ad2a:    fab0f080    ....    CLZ      r0,r0
        0x0001ad2e:    0940        @.      LSRS     r0,r0,#5
        0x0001ad30:    9001        ..      STR      r0,[sp,#4]
        0x0001ad32:    e7ff        ..      B        0x1ad34 ; ndigits_in_u64 + 24
        0x0001ad34:    9802        ..      LDR      r0,[sp,#8]
        0x0001ad36:    9903        ..      LDR      r1,[sp,#0xc]
        0x0001ad38:    4308        .C      ORRS     r0,r0,r1
        0x0001ad3a:    b150        P.      CBZ      r0,0x1ad52 ; ndigits_in_u64 + 54
        0x0001ad3c:    e7ff        ..      B        0x1ad3e ; ndigits_in_u64 + 34
        0x0001ad3e:    9802        ..      LDR      r0,[sp,#8]
        0x0001ad40:    9903        ..      LDR      r1,[sp,#0xc]
        0x0001ad42:    f7fffd95    ....    BL       divu64_10 ; 0x1a870
        0x0001ad46:    9103        ..      STR      r1,[sp,#0xc]
        0x0001ad48:    9002        ..      STR      r0,[sp,#8]
        0x0001ad4a:    9801        ..      LDR      r0,[sp,#4]
        0x0001ad4c:    3001        .0      ADDS     r0,#1
        0x0001ad4e:    9001        ..      STR      r0,[sp,#4]
        0x0001ad50:    e7f0        ..      B        0x1ad34 ; ndigits_in_u64 + 24
        0x0001ad52:    9801        ..      LDR      r0,[sp,#4]
        0x0001ad54:    b004        ..      ADD      sp,sp,#0x10
        0x0001ad56:    bd80        ..      POP      {r7,pc}
    nonblocking_read
        0x0001ad58:    b510        ..      PUSH     {r4,lr}
        0x0001ad5a:    b190        ..      CBZ      r0,0x1ad82 ; nonblocking_read + 42
        0x0001ad5c:    4604        .F      MOV      r4,r0
        0x0001ad5e:    6800        .h      LDR      r0,[r0,#0]
        0x0001ad60:    f6496206    I..b    MOV      r2,#0x9e06
        0x0001ad64:    f020407e     .~@    BIC      r0,r0,#0xfe000000
        0x0001ad68:    f2c012ea    ....    MOVT     r2,#0x1ea
        0x0001ad6c:    4290        .B      CMP      r0,r2
        0x0001ad6e:    d108        ..      BNE      0x1ad82 ; nonblocking_read + 42
        0x0001ad70:    68c8        .h      LDR      r0,[r1,#0xc]
        0x0001ad72:    b108        ..      CBZ      r0,0x1ad78 ; nonblocking_read + 32
        0x0001ad74:    2200        ."      MOVS     r2,#0
        0x0001ad76:    6002        .`      STR      r2,[r0,#0]
        0x0001ad78:    4620         F      MOV      r0,r4
        0x0001ad7a:    f000f94b    ..K.    BL       read_transaction_save ; 0x1b014
        0x0001ad7e:    b110        ..      CBZ      r0,0x1ad86 ; nonblocking_read + 46
        0x0001ad80:    bd10        ..      POP      {r4,pc}
        0x0001ad82:    2002        .       MOVS     r0,#2
        0x0001ad84:    bd10        ..      POP      {r4,pc}
        0x0001ad86:    4620         F      MOV      r0,r4
        0x0001ad88:    f000f802    ....    BL       nonblocking_read_sm ; 0x1ad90
        0x0001ad8c:    2000        .       MOVS     r0,#0
        0x0001ad8e:    bd10        ..      POP      {r4,pc}
    nonblocking_read_sm
        0x0001ad90:    b5b0        ..      PUSH     {r4,r5,r7,lr}
        0x0001ad92:    b08a        ..      SUB      sp,sp,#0x28
        0x0001ad94:    4604        .F      MOV      r4,r0
        0x0001ad96:    f8900098    ....    LDRB     r0,[r0,#0x98]
        0x0001ad9a:    b1f8        ..      CBZ      r0,0x1addc ; nonblocking_read_sm + 76
        0x0001ad9c:    f7fdffd4    ....    BL       am_hal_interrupt_master_disable ; 0x18d48
        0x0001ada0:    9001        ..      STR      r0,[sp,#4]
        0x0001ada2:    6a60        `j      LDR      r0,[r4,#0x24]
        0x0001ada4:    f24c0100    L...    MOVW     r1,#0xc000
        0x0001ada8:    f2c40101    ....    MOVT     r1,#0x4001
        0x0001adac:    eb013000    ...0    ADD      r0,r1,r0,LSL #12
        0x0001adb0:    2200        ."      MOVS     r2,#0
        0x0001adb2:    a902        ..      ADD      r1,sp,#8
        0x0001adb4:    6983        .i      LDR      r3,[r0,#0x18]
        0x0001adb6:    06db        ..      LSLS     r3,r3,#27
        0x0001adb8:    d408        ..      BMI      0x1adcc ; nonblocking_read_sm + 60
        0x0001adba:    6803        .h      LDR      r3,[r0,#0]
        0x0001adbc:    f4136f70    ..po    TST      r3,#0xf00
        0x0001adc0:    d109        ..      BNE      0x1add6 ; nonblocking_read_sm + 70
        0x0001adc2:    548b        .T      STRB     r3,[r1,r2]
        0x0001adc4:    3201        .2      ADDS     r2,#1
        0x0001adc6:    2a20         *      CMP      r2,#0x20
        0x0001adc8:    d1f4        ..      BNE      0x1adb4 ; nonblocking_read_sm + 36
        0x0001adca:    2220         "      MOVS     r2,#0x20
        0x0001adcc:    f104009c    ....    ADD      r0,r4,#0x9c
        0x0001add0:    a902        ..      ADD      r1,sp,#8
        0x0001add2:    f7fefbf1    ....    BL       am_hal_queue_item_add ; 0x195b8
        0x0001add6:    9801        ..      LDR      r0,[sp,#4]
        0x0001add8:    f7fdffba    ....    BL       am_hal_interrupt_master_set ; 0x18d50
        0x0001addc:    f894002c    ..,.    LDRB     r0,[r4,#0x2c]
        0x0001ade0:    2800        .(      CMP      r0,#0
        0x0001ade2:    d04c        L.      BEQ      0x1ae7e ; nonblocking_read_sm + 238
        0x0001ade4:    f7fdffb0    ....    BL       am_hal_interrupt_master_disable ; 0x18d48
        0x0001ade8:    9002        ..      STR      r0,[sp,#8]
        0x0001adea:    6d20         m      LDR      r0,[r4,#0x50]
        0x0001adec:    f8941098    ....    LDRB     r1,[r4,#0x98]
        0x0001adf0:    6ba2        .k      LDR      r2,[r4,#0x38]
        0x0001adf2:    2900        .)      CMP      r1,#0
        0x0001adf4:    6b61        ak      LDR      r1,[r4,#0x34]
        0x0001adf6:    eba20200    ....    SUB      r2,r2,r0
        0x0001adfa:    4401        .D      ADD      r1,r1,r0
        0x0001adfc:    d012        ..      BEQ      0x1ae24 ; nonblocking_read_sm + 148
        0x0001adfe:    f8d450a4    ...P    LDR      r5,[r4,#0xa4]
        0x0001ae02:    f104009c    ....    ADD      r0,r4,#0x9c
        0x0001ae06:    42aa        .B      CMP      r2,r5
        0x0001ae08:    bf38        8.      IT       CC
        0x0001ae0a:    4615        .F      MOVCC    r5,r2
        0x0001ae0c:    462a        *F      MOV      r2,r5
        0x0001ae0e:    f7fefc07    ....    BL       am_hal_queue_item_get ; 0x19620
        0x0001ae12:    b9f8        ..      CBNZ     r0,0x1ae54 ; nonblocking_read_sm + 196
        0x0001ae14:    6c62        bl      LDR      r2,[r4,#0x44]
        0x0001ae16:    2000        .       MOVS     r0,#0
        0x0001ae18:    f884002c    ..,.    STRB     r0,[r4,#0x2c]
        0x0001ae1c:    b1d2        ..      CBZ      r2,0x1ae54 ; nonblocking_read_sm + 196
        0x0001ae1e:    6ca1        .l      LDR      r1,[r4,#0x48]
        0x0001ae20:    2001        .       MOVS     r0,#1
        0x0001ae22:    e02b        +.      B        0x1ae7c ; nonblocking_read_sm + 236
        0x0001ae24:    b1aa        ..      CBZ      r2,0x1ae52 ; nonblocking_read_sm + 194
        0x0001ae26:    6a60        `j      LDR      r0,[r4,#0x24]
        0x0001ae28:    f24c0300    L...    MOVW     r3,#0xc000
        0x0001ae2c:    f2c40301    ....    MOVT     r3,#0x4001
        0x0001ae30:    eb033000    ...0    ADD      r0,r3,r0,LSL #12
        0x0001ae34:    2500        .%      MOVS     r5,#0
        0x0001ae36:    bf00        ..      NOP      
        0x0001ae38:    6983        .i      LDR      r3,[r0,#0x18]
        0x0001ae3a:    06db        ..      LSLS     r3,r3,#27
        0x0001ae3c:    d40a        ..      BMI      0x1ae54 ; nonblocking_read_sm + 196
        0x0001ae3e:    6803        .h      LDR      r3,[r0,#0]
        0x0001ae40:    f4136f70    ..po    TST      r3,#0xf00
        0x0001ae44:    d106        ..      BNE      0x1ae54 ; nonblocking_read_sm + 196
        0x0001ae46:    554b        KU      STRB     r3,[r1,r5]
        0x0001ae48:    3501        .5      ADDS     r5,#1
        0x0001ae4a:    42aa        .B      CMP      r2,r5
        0x0001ae4c:    d1f4        ..      BNE      0x1ae38 ; nonblocking_read_sm + 168
        0x0001ae4e:    4615        .F      MOV      r5,r2
        0x0001ae50:    e000        ..      B        0x1ae54 ; nonblocking_read_sm + 196
        0x0001ae52:    2500        .%      MOVS     r5,#0
        0x0001ae54:    6d20         m      LDR      r0,[r4,#0x50]
        0x0001ae56:    4428        (D      ADD      r0,r0,r5
        0x0001ae58:    6520         e      STR      r0,[r4,#0x50]
        0x0001ae5a:    9802        ..      LDR      r0,[sp,#8]
        0x0001ae5c:    f7fdff78    ..x.    BL       am_hal_interrupt_master_set ; 0x18d50
        0x0001ae60:    6be0        .k      LDR      r0,[r4,#0x3c]
        0x0001ae62:    6d21        !m      LDR      r1,[r4,#0x50]
        0x0001ae64:    6001        .`      STR      r1,[r0,#0]
        0x0001ae66:    6ba0        .k      LDR      r0,[r4,#0x38]
        0x0001ae68:    6d21        !m      LDR      r1,[r4,#0x50]
        0x0001ae6a:    4281        .B      CMP      r1,r0
        0x0001ae6c:    d107        ..      BNE      0x1ae7e ; nonblocking_read_sm + 238
        0x0001ae6e:    6c62        bl      LDR      r2,[r4,#0x44]
        0x0001ae70:    2000        .       MOVS     r0,#0
        0x0001ae72:    f884002c    ..,.    STRB     r0,[r4,#0x2c]
        0x0001ae76:    b112        ..      CBZ      r2,0x1ae7e ; nonblocking_read_sm + 238
        0x0001ae78:    6ca1        .l      LDR      r1,[r4,#0x48]
        0x0001ae7a:    2000        .       MOVS     r0,#0
        0x0001ae7c:    4790        .G      BLX      r2
        0x0001ae7e:    b00a        ..      ADD      sp,sp,#0x28
        0x0001ae80:    bdb0        ..      POP      {r4,r5,r7,pc}
    nonblocking_write
        0x0001ae82:    b510        ..      PUSH     {r4,lr}
        0x0001ae84:    b190        ..      CBZ      r0,0x1aeac ; nonblocking_write + 42
        0x0001ae86:    4604        .F      MOV      r4,r0
        0x0001ae88:    6800        .h      LDR      r0,[r0,#0]
        0x0001ae8a:    f6496206    I..b    MOV      r2,#0x9e06
        0x0001ae8e:    f020407e     .~@    BIC      r0,r0,#0xfe000000
        0x0001ae92:    f2c012ea    ....    MOVT     r2,#0x1ea
        0x0001ae96:    4290        .B      CMP      r0,r2
        0x0001ae98:    d108        ..      BNE      0x1aeac ; nonblocking_write + 42
        0x0001ae9a:    68c8        .h      LDR      r0,[r1,#0xc]
        0x0001ae9c:    b108        ..      CBZ      r0,0x1aea2 ; nonblocking_write + 32
        0x0001ae9e:    2200        ."      MOVS     r2,#0
        0x0001aea0:    6002        .`      STR      r2,[r0,#0]
        0x0001aea2:    4620         F      MOV      r0,r4
        0x0001aea4:    f000f9a0    ....    BL       write_transaction_save ; 0x1b1e8
        0x0001aea8:    b110        ..      CBZ      r0,0x1aeb0 ; nonblocking_write + 46
        0x0001aeaa:    bd10        ..      POP      {r4,pc}
        0x0001aeac:    2002        .       MOVS     r0,#2
        0x0001aeae:    bd10        ..      POP      {r4,pc}
        0x0001aeb0:    4620         F      MOV      r0,r4
        0x0001aeb2:    f000f803    ....    BL       nonblocking_write_sm ; 0x1aebc
        0x0001aeb6:    2000        .       MOVS     r0,#0
        0x0001aeb8:    bd10        ..      POP      {r4,pc}
        0x0001aeba:    0000        ..      MOVS     r0,r0
    nonblocking_write_sm
        0x0001aebc:    e92d41f0    -..A    PUSH     {r4-r8,lr}
        0x0001aec0:    b084        ..      SUB      sp,sp,#0x10
        0x0001aec2:    4604        .F      MOV      r4,r0
        0x0001aec4:    f8900054    ..T.    LDRB     r0,[r0,#0x54]
        0x0001aec8:    b3e8        ..      CBZ      r0,0x1af46 ; nonblocking_write_sm + 138
        0x0001aeca:    f7fdff3d    ..=.    BL       am_hal_interrupt_master_disable ; 0x18d48
        0x0001aece:    9001        ..      STR      r0,[sp,#4]
        0x0001aed0:    6fa0        .o      LDR      r0,[r4,#0x78]
        0x0001aed2:    f894107c    ..|.    LDRB     r1,[r4,#0x7c]
        0x0001aed6:    6e22        "n      LDR      r2,[r4,#0x60]
        0x0001aed8:    2900        .)      CMP      r1,#0
        0x0001aeda:    6de1        .m      LDR      r1,[r4,#0x5c]
        0x0001aedc:    eba20200    ....    SUB      r2,r2,r0
        0x0001aee0:    4401        .D      ADD      r1,r1,r0
        0x0001aee2:    d015        ..      BEQ      0x1af10 ; nonblocking_write_sm + 84
        0x0001aee4:    f8d43088    ...0    LDR      r3,[r4,#0x88]
        0x0001aee8:    f8d4708c    ...p    LDR      r7,[r4,#0x8c]
        0x0001aeec:    f1040080    ....    ADD      r0,r4,#0x80
        0x0001aef0:    1afd        ..      SUBS     r5,r7,r3
        0x0001aef2:    42aa        .B      CMP      r2,r5
        0x0001aef4:    bf38        8.      IT       CC
        0x0001aef6:    4615        .F      MOVCC    r5,r2
        0x0001aef8:    462a        *F      MOV      r2,r5
        0x0001aefa:    f7fefb5d    ..].    BL       am_hal_queue_item_add ; 0x195b8
        0x0001aefe:    b9e0        ..      CBNZ     r0,0x1af3a ; nonblocking_write_sm + 126
        0x0001af00:    6ee2        .n      LDR      r2,[r4,#0x6c]
        0x0001af02:    2000        .       MOVS     r0,#0
        0x0001af04:    f8840054    ..T.    STRB     r0,[r4,#0x54]
        0x0001af08:    b1ba        ..      CBZ      r2,0x1af3a ; nonblocking_write_sm + 126
        0x0001af0a:    6f21        !o      LDR      r1,[r4,#0x70]
        0x0001af0c:    2001        .       MOVS     r0,#1
        0x0001af0e:    e055        U.      B        0x1afbc ; nonblocking_write_sm + 256
        0x0001af10:    b192        ..      CBZ      r2,0x1af38 ; nonblocking_write_sm + 124
        0x0001af12:    6a60        `j      LDR      r0,[r4,#0x24]
        0x0001af14:    f24c0300    L...    MOVW     r3,#0xc000
        0x0001af18:    f2c40301    ....    MOVT     r3,#0x4001
        0x0001af1c:    eb033000    ...0    ADD      r0,r3,r0,LSL #12
        0x0001af20:    2500        .%      MOVS     r5,#0
        0x0001af22:    bf00        ..      NOP      
        0x0001af24:    6983        .i      LDR      r3,[r0,#0x18]
        0x0001af26:    069b        ..      LSLS     r3,r3,#26
        0x0001af28:    d407        ..      BMI      0x1af3a ; nonblocking_write_sm + 126
        0x0001af2a:    5d4b        K]      LDRB     r3,[r1,r5]
        0x0001af2c:    3501        .5      ADDS     r5,#1
        0x0001af2e:    42aa        .B      CMP      r2,r5
        0x0001af30:    6003        .`      STR      r3,[r0,#0]
        0x0001af32:    d1f7        ..      BNE      0x1af24 ; nonblocking_write_sm + 104
        0x0001af34:    4615        .F      MOV      r5,r2
        0x0001af36:    e000        ..      B        0x1af3a ; nonblocking_write_sm + 126
        0x0001af38:    2500        .%      MOVS     r5,#0
        0x0001af3a:    6fa0        .o      LDR      r0,[r4,#0x78]
        0x0001af3c:    4428        (D      ADD      r0,r0,r5
        0x0001af3e:    67a0        .g      STR      r0,[r4,#0x78]
        0x0001af40:    9801        ..      LDR      r0,[sp,#4]
        0x0001af42:    f7fdff05    ....    BL       am_hal_interrupt_master_set ; 0x18d50
        0x0001af46:    f894007c    ..|.    LDRB     r0,[r4,#0x7c]
        0x0001af4a:    b330        0.      CBZ      r0,0x1af9a ; nonblocking_write_sm + 222
        0x0001af4c:    6a65        ej      LDR      r5,[r4,#0x24]
        0x0001af4e:    f24c0800    L...    MOVW     r8,#0xc000
        0x0001af52:    f2c40801    ....    MOVT     r8,#0x4001
        0x0001af56:    f7fdfef7    ....    BL       am_hal_interrupt_master_disable ; 0x18d48
        0x0001af5a:    9002        ..      STR      r0,[sp,#8]
        0x0001af5c:    eb083705    ...7    ADD      r7,r8,r5,LSL #12
        0x0001af60:    69b8        .i      LDR      r0,[r7,#0x18]
        0x0001af62:    0680        ..      LSLS     r0,r0,#26
        0x0001af64:    d416        ..      BMI      0x1af94 ; nonblocking_write_sm + 216
        0x0001af66:    f1040580    ....    ADD      r5,r4,#0x80
        0x0001af6a:    f10d060f    ....    ADD      r6,sp,#0xf
        0x0001af6e:    bf00        ..      NOP      
        0x0001af70:    4628        (F      MOV      r0,r5
        0x0001af72:    4631        1F      MOV      r1,r6
        0x0001af74:    2201        ."      MOVS     r2,#1
        0x0001af76:    f7fefb53    ..S.    BL       am_hal_queue_item_get ; 0x19620
        0x0001af7a:    b158        X.      CBZ      r0,0x1af94 ; nonblocking_write_sm + 216
        0x0001af7c:    6a60        `j      LDR      r0,[r4,#0x24]
        0x0001af7e:    f89d100f    ....    LDRB     r1,[sp,#0xf]
        0x0001af82:    eb083000    ...0    ADD      r0,r8,r0,LSL #12
        0x0001af86:    6982        .i      LDR      r2,[r0,#0x18]
        0x0001af88:    0692        ..      LSLS     r2,r2,#26
        0x0001af8a:    bf58        X.      IT       PL
        0x0001af8c:    6001        .`      STRPL    r1,[r0,#0]
        0x0001af8e:    69b8        .i      LDR      r0,[r7,#0x18]
        0x0001af90:    0680        ..      LSLS     r0,r0,#26
        0x0001af92:    d5ed        ..      BPL      0x1af70 ; nonblocking_write_sm + 180
        0x0001af94:    9802        ..      LDR      r0,[sp,#8]
        0x0001af96:    f7fdfedb    ....    BL       am_hal_interrupt_master_set ; 0x18d50
        0x0001af9a:    6e60        `n      LDR      r0,[r4,#0x64]
        0x0001af9c:    6fa1        .o      LDR      r1,[r4,#0x78]
        0x0001af9e:    6001        .`      STR      r1,[r0,#0]
        0x0001afa0:    6e20         n      LDR      r0,[r4,#0x60]
        0x0001afa2:    6fa1        .o      LDR      r1,[r4,#0x78]
        0x0001afa4:    4281        .B      CMP      r1,r0
        0x0001afa6:    d10a        ..      BNE      0x1afbe ; nonblocking_write_sm + 258
        0x0001afa8:    f8940054    ..T.    LDRB     r0,[r4,#0x54]
        0x0001afac:    b138        8.      CBZ      r0,0x1afbe ; nonblocking_write_sm + 258
        0x0001afae:    6ee2        .n      LDR      r2,[r4,#0x6c]
        0x0001afb0:    2000        .       MOVS     r0,#0
        0x0001afb2:    f8840054    ..T.    STRB     r0,[r4,#0x54]
        0x0001afb6:    b112        ..      CBZ      r2,0x1afbe ; nonblocking_write_sm + 258
        0x0001afb8:    6f21        !o      LDR      r1,[r4,#0x70]
        0x0001afba:    2000        .       MOVS     r0,#0
        0x0001afbc:    4790        .G      BLX      r2
        0x0001afbe:    b004        ..      ADD      sp,sp,#0x10
        0x0001afc0:    e8bd81f0    ....    POP      {r4-r8,pc}
    padbuffer
        0x0001afc4:    b085        ..      SUB      sp,sp,#0x14
        0x0001afc6:    9003        ..      STR      r0,[sp,#0xc]
        0x0001afc8:    f88d100b    ....    STRB     r1,[sp,#0xb]
        0x0001afcc:    9201        ..      STR      r2,[sp,#4]
        0x0001afce:    2000        .       MOVS     r0,#0
        0x0001afd0:    9000        ..      STR      r0,[sp,#0]
        0x0001afd2:    9801        ..      LDR      r0,[sp,#4]
        0x0001afd4:    2800        .(      CMP      r0,#0
        0x0001afd6:    dc03        ..      BGT      0x1afe0 ; padbuffer + 28
        0x0001afd8:    e7ff        ..      B        0x1afda ; padbuffer + 22
        0x0001afda:    9800        ..      LDR      r0,[sp,#0]
        0x0001afdc:    9004        ..      STR      r0,[sp,#0x10]
        0x0001afde:    e016        ..      B        0x1b00e ; padbuffer + 74
        0x0001afe0:    e7ff        ..      B        0x1afe2 ; padbuffer + 30
        0x0001afe2:    9801        ..      LDR      r0,[sp,#4]
        0x0001afe4:    1e41        A.      SUBS     r1,r0,#1
        0x0001afe6:    9101        ..      STR      r1,[sp,#4]
        0x0001afe8:    b170        p.      CBZ      r0,0x1b008 ; padbuffer + 68
        0x0001afea:    e7ff        ..      B        0x1afec ; padbuffer + 40
        0x0001afec:    9803        ..      LDR      r0,[sp,#0xc]
        0x0001afee:    b138        8.      CBZ      r0,0x1b000 ; padbuffer + 60
        0x0001aff0:    e7ff        ..      B        0x1aff2 ; padbuffer + 46
        0x0001aff2:    f89d000b    ....    LDRB     r0,[sp,#0xb]
        0x0001aff6:    9903        ..      LDR      r1,[sp,#0xc]
        0x0001aff8:    1c4a        J.      ADDS     r2,r1,#1
        0x0001affa:    9203        ..      STR      r2,[sp,#0xc]
        0x0001affc:    7008        .p      STRB     r0,[r1,#0]
        0x0001affe:    e7ff        ..      B        0x1b000 ; padbuffer + 60
        0x0001b000:    9800        ..      LDR      r0,[sp,#0]
        0x0001b002:    3001        .0      ADDS     r0,#1
        0x0001b004:    9000        ..      STR      r0,[sp,#0]
        0x0001b006:    e7ec        ..      B        0x1afe2 ; padbuffer + 30
        0x0001b008:    9800        ..      LDR      r0,[sp,#0]
        0x0001b00a:    9004        ..      STR      r0,[sp,#0x10]
        0x0001b00c:    e7ff        ..      B        0x1b00e ; padbuffer + 74
        0x0001b00e:    9804        ..      LDR      r0,[sp,#0x10]
        0x0001b010:    b005        ..      ADD      sp,sp,#0x14
        0x0001b012:    4770        pG      BX       lr
    read_transaction_save
        0x0001b014:    b5b0        ..      PUSH     {r4,r5,r7,lr}
        0x0001b016:    b082        ..      SUB      sp,sp,#8
        0x0001b018:    460d        .F      MOV      r5,r1
        0x0001b01a:    4604        .F      MOV      r4,r0
        0x0001b01c:    f7fdfe94    ....    BL       am_hal_interrupt_master_disable ; 0x18d48
        0x0001b020:    9001        ..      STR      r0,[sp,#4]
        0x0001b022:    f894002c    ..,.    LDRB     r0,[r4,#0x2c]
        0x0001b026:    b118        ..      CBZ      r0,0x1b030 ; read_transaction_save + 28
        0x0001b028:    2505        .%      MOVS     r5,#5
        0x0001b02a:    f6c00500    ....    MOVT     r5,#0x800
        0x0001b02e:    e015        ..      B        0x1b05c ; read_transaction_save + 72
        0x0001b030:    2001        .       MOVS     r0,#1
        0x0001b032:    f884002c    ..,.    STRB     r0,[r4,#0x2c]
        0x0001b036:    7828        (x      LDRB     r0,[r5,#0]
        0x0001b038:    6869        ih      LDR      r1,[r5,#4]
        0x0001b03a:    f8840030    ..0.    STRB     r0,[r4,#0x30]
        0x0001b03e:    6361        ac      STR      r1,[r4,#0x34]
        0x0001b040:    e9d50102    ....    LDRD     r0,r1,[r5,#8]
        0x0001b044:    e9c4010e    ....    STRD     r0,r1,[r4,#0x38]
        0x0001b048:    e9d50104    ....    LDRD     r0,r1,[r5,#0x10]
        0x0001b04c:    e9c40110    ....    STRD     r0,r1,[r4,#0x40]
        0x0001b050:    e9d50106    ....    LDRD     r0,r1,[r5,#0x18]
        0x0001b054:    2500        .%      MOVS     r5,#0
        0x0001b056:    e9c40112    ....    STRD     r0,r1,[r4,#0x48]
        0x0001b05a:    6525        %e      STR      r5,[r4,#0x50]
        0x0001b05c:    9801        ..      LDR      r0,[sp,#4]
        0x0001b05e:    f7fdfe77    ..w.    BL       am_hal_interrupt_master_set ; 0x18d50
        0x0001b062:    4628        (F      MOV      r0,r5
        0x0001b064:    b002        ..      ADD      sp,sp,#8
        0x0001b066:    bdb0        ..      POP      {r4,r5,r7,pc}
    simple_strlen
        0x0001b068:    b083        ..      SUB      sp,sp,#0xc
        0x0001b06a:    9001        ..      STR      r0,[sp,#4]
        0x0001b06c:    2000        .       MOVS     r0,#0
        0x0001b06e:    9000        ..      STR      r0,[sp,#0]
        0x0001b070:    9801        ..      LDR      r0,[sp,#4]
        0x0001b072:    b918        ..      CBNZ     r0,0x1b07c ; simple_strlen + 20
        0x0001b074:    e7ff        ..      B        0x1b076 ; simple_strlen + 14
        0x0001b076:    9800        ..      LDR      r0,[sp,#0]
        0x0001b078:    9002        ..      STR      r0,[sp,#8]
        0x0001b07a:    e00d        ..      B        0x1b098 ; simple_strlen + 48
        0x0001b07c:    e7ff        ..      B        0x1b07e ; simple_strlen + 22
        0x0001b07e:    9801        ..      LDR      r0,[sp,#4]
        0x0001b080:    1c41        A.      ADDS     r1,r0,#1
        0x0001b082:    9101        ..      STR      r1,[sp,#4]
        0x0001b084:    7800        .x      LDRB     r0,[r0,#0]
        0x0001b086:    b120         .      CBZ      r0,0x1b092 ; simple_strlen + 42
        0x0001b088:    e7ff        ..      B        0x1b08a ; simple_strlen + 34
        0x0001b08a:    9800        ..      LDR      r0,[sp,#0]
        0x0001b08c:    3001        .0      ADDS     r0,#1
        0x0001b08e:    9000        ..      STR      r0,[sp,#0]
        0x0001b090:    e7f5        ..      B        0x1b07e ; simple_strlen + 22
        0x0001b092:    9800        ..      LDR      r0,[sp,#0]
        0x0001b094:    9002        ..      STR      r0,[sp,#8]
        0x0001b096:    e7ff        ..      B        0x1b098 ; simple_strlen + 48
        0x0001b098:    9802        ..      LDR      r0,[sp,#8]
        0x0001b09a:    b003        ..      ADD      sp,sp,#0xc
        0x0001b09c:    4770        pG      BX       lr
        0x0001b09e:    0000        ..      MOVS     r0,r0
    uint64_to_hexstr
        0x0001b0a0:    b08c        ..      SUB      sp,sp,#0x30
        0x0001b0a2:    910b        ..      STR      r1,[sp,#0x2c]
        0x0001b0a4:    900a        ..      STR      r0,[sp,#0x28]
        0x0001b0a6:    9209        ..      STR      r2,[sp,#0x24]
        0x0001b0a8:    f88d3023    ..#0    STRB     r3,[sp,#0x23]
        0x0001b0ac:    2000        .       MOVS     r0,#0
        0x0001b0ae:    9006        ..      STR      r0,[sp,#0x18]
        0x0001b0b0:    980a        ..      LDR      r0,[sp,#0x28]
        0x0001b0b2:    990b        ..      LDR      r1,[sp,#0x2c]
        0x0001b0b4:    4308        .C      ORRS     r0,r0,r1
        0x0001b0b6:    b940        @.      CBNZ     r0,0x1b0ca ; uint64_to_hexstr + 42
        0x0001b0b8:    e7ff        ..      B        0x1b0ba ; uint64_to_hexstr + 26
        0x0001b0ba:    9a06        ..      LDR      r2,[sp,#0x18]
        0x0001b0bc:    1c50        P.      ADDS     r0,r2,#1
        0x0001b0be:    9006        ..      STR      r0,[sp,#0x18]
        0x0001b0c0:    f10d0103    ....    ADD      r1,sp,#3
        0x0001b0c4:    2030        0       MOVS     r0,#0x30
        0x0001b0c6:    5488        .T      STRB     r0,[r1,r2]
        0x0001b0c8:    e7ff        ..      B        0x1b0ca ; uint64_to_hexstr + 42
        0x0001b0ca:    e7ff        ..      B        0x1b0cc ; uint64_to_hexstr + 44
        0x0001b0cc:    980a        ..      LDR      r0,[sp,#0x28]
        0x0001b0ce:    990b        ..      LDR      r1,[sp,#0x2c]
        0x0001b0d0:    4308        .C      ORRS     r0,r0,r1
        0x0001b0d2:    b350        P.      CBZ      r0,0x1b12a ; uint64_to_hexstr + 138
        0x0001b0d4:    e7ff        ..      B        0x1b0d6 ; uint64_to_hexstr + 54
        0x0001b0d6:    f89d0028    ..(.    LDRB     r0,[sp,#0x28]
        0x0001b0da:    f000000f    ....    AND      r0,r0,#0xf
        0x0001b0de:    f88d0017    ....    STRB     r0,[sp,#0x17]
        0x0001b0e2:    f89d0017    ....    LDRB     r0,[sp,#0x17]
        0x0001b0e6:    280a        .(      CMP      r0,#0xa
        0x0001b0e8:    db0d        ..      BLT      0x1b106 ; uint64_to_hexstr + 102
        0x0001b0ea:    e7ff        ..      B        0x1b0ec ; uint64_to_hexstr + 76
        0x0001b0ec:    f89d0023    ..#.    LDRB     r0,[sp,#0x23]
        0x0001b0f0:    07c0        ..      LSLS     r0,r0,#31
        0x0001b0f2:    2107        .!      MOVS     r1,#7
        0x0001b0f4:    2800        .(      CMP      r0,#0
        0x0001b0f6:    bf18        ..      IT       NE
        0x0001b0f8:    2127        '!      MOVNE    r1,#0x27
        0x0001b0fa:    f89d0017    ....    LDRB     r0,[sp,#0x17]
        0x0001b0fe:    4408        .D      ADD      r0,r0,r1
        0x0001b100:    f88d0017    ....    STRB     r0,[sp,#0x17]
        0x0001b104:    e7ff        ..      B        0x1b106 ; uint64_to_hexstr + 102
        0x0001b106:    f89d0017    ....    LDRB     r0,[sp,#0x17]
        0x0001b10a:    3030        00      ADDS     r0,r0,#0x30
        0x0001b10c:    9a06        ..      LDR      r2,[sp,#0x18]
        0x0001b10e:    1c51        Q.      ADDS     r1,r2,#1
        0x0001b110:    9106        ..      STR      r1,[sp,#0x18]
        0x0001b112:    f10d0103    ....    ADD      r1,sp,#3
        0x0001b116:    5488        .T      STRB     r0,[r1,r2]
        0x0001b118:    980a        ..      LDR      r0,[sp,#0x28]
        0x0001b11a:    990b        ..      LDR      r1,[sp,#0x2c]
        0x0001b11c:    0900        ..      LSRS     r0,r0,#4
        0x0001b11e:    ea407001    @..p    ORR      r0,r0,r1,LSL #28
        0x0001b122:    0909        ..      LSRS     r1,r1,#4
        0x0001b124:    910b        ..      STR      r1,[sp,#0x2c]
        0x0001b126:    900a        ..      STR      r0,[sp,#0x28]
        0x0001b128:    e7d0        ..      B        0x1b0cc ; uint64_to_hexstr + 44
        0x0001b12a:    9806        ..      LDR      r0,[sp,#0x18]
        0x0001b12c:    9007        ..      STR      r0,[sp,#0x1c]
        0x0001b12e:    9809        ..      LDR      r0,[sp,#0x24]
        0x0001b130:    b198        ..      CBZ      r0,0x1b15a ; uint64_to_hexstr + 186
        0x0001b132:    e7ff        ..      B        0x1b134 ; uint64_to_hexstr + 148
        0x0001b134:    e7ff        ..      B        0x1b136 ; uint64_to_hexstr + 150
        0x0001b136:    9806        ..      LDR      r0,[sp,#0x18]
        0x0001b138:    1e41        A.      SUBS     r1,r0,#1
        0x0001b13a:    9106        ..      STR      r1,[sp,#0x18]
        0x0001b13c:    b148        H.      CBZ      r0,0x1b152 ; uint64_to_hexstr + 178
        0x0001b13e:    e7ff        ..      B        0x1b140 ; uint64_to_hexstr + 160
        0x0001b140:    9906        ..      LDR      r1,[sp,#0x18]
        0x0001b142:    f10d0003    ....    ADD      r0,sp,#3
        0x0001b146:    5c40        @\      LDRB     r0,[r0,r1]
        0x0001b148:    9909        ..      LDR      r1,[sp,#0x24]
        0x0001b14a:    1c4a        J.      ADDS     r2,r1,#1
        0x0001b14c:    9209        ..      STR      r2,[sp,#0x24]
        0x0001b14e:    7008        .p      STRB     r0,[r1,#0]
        0x0001b150:    e7f1        ..      B        0x1b136 ; uint64_to_hexstr + 150
        0x0001b152:    9909        ..      LDR      r1,[sp,#0x24]
        0x0001b154:    2000        .       MOVS     r0,#0
        0x0001b156:    7008        .p      STRB     r0,[r1,#0]
        0x0001b158:    e7ff        ..      B        0x1b15a ; uint64_to_hexstr + 186
        0x0001b15a:    9807        ..      LDR      r0,[sp,#0x1c]
        0x0001b15c:    b00c        ..      ADD      sp,sp,#0x30
        0x0001b15e:    4770        pG      BX       lr
    uint64_to_str
        0x0001b160:    b580        ..      PUSH     {r7,lr}
        0x0001b162:    b090        ..      SUB      sp,sp,#0x40
        0x0001b164:    910f        ..      STR      r1,[sp,#0x3c]
        0x0001b166:    900e        ..      STR      r0,[sp,#0x38]
        0x0001b168:    920d        ..      STR      r2,[sp,#0x34]
        0x0001b16a:    2000        .       MOVS     r0,#0
        0x0001b16c:    9005        ..      STR      r0,[sp,#0x14]
        0x0001b16e:    9004        ..      STR      r0,[sp,#0x10]
        0x0001b170:    e7ff        ..      B        0x1b172 ; uint64_to_str + 18
        0x0001b172:    980e        ..      LDR      r0,[sp,#0x38]
        0x0001b174:    990f        ..      LDR      r1,[sp,#0x3c]
        0x0001b176:    f7fffb7b    ..{.    BL       divu64_10 ; 0x1a870
        0x0001b17a:    9101        ..      STR      r1,[sp,#4]
        0x0001b17c:    9000        ..      STR      r0,[sp,#0]
        0x0001b17e:    980e        ..      LDR      r0,[sp,#0x38]
        0x0001b180:    9900        ..      LDR      r1,[sp,#0]
        0x0001b182:    eb010181    ....    ADD      r1,r1,r1,LSL #2
        0x0001b186:    eba00041    ..A.    SUB      r0,r0,r1,LSL #1
        0x0001b18a:    9003        ..      STR      r0,[sp,#0xc]
        0x0001b18c:    9803        ..      LDR      r0,[sp,#0xc]
        0x0001b18e:    3030        00      ADDS     r0,r0,#0x30
        0x0001b190:    9a05        ..      LDR      r2,[sp,#0x14]
        0x0001b192:    1c51        Q.      ADDS     r1,r2,#1
        0x0001b194:    9105        ..      STR      r1,[sp,#0x14]
        0x0001b196:    f10d011b    ....    ADD      r1,sp,#0x1b
        0x0001b19a:    5488        .T      STRB     r0,[r1,r2]
        0x0001b19c:    9800        ..      LDR      r0,[sp,#0]
        0x0001b19e:    9901        ..      LDR      r1,[sp,#4]
        0x0001b1a0:    910f        ..      STR      r1,[sp,#0x3c]
        0x0001b1a2:    900e        ..      STR      r0,[sp,#0x38]
        0x0001b1a4:    e7ff        ..      B        0x1b1a6 ; uint64_to_str + 70
        0x0001b1a6:    980e        ..      LDR      r0,[sp,#0x38]
        0x0001b1a8:    990f        ..      LDR      r1,[sp,#0x3c]
        0x0001b1aa:    4308        .C      ORRS     r0,r0,r1
        0x0001b1ac:    2800        .(      CMP      r0,#0
        0x0001b1ae:    d1e0        ..      BNE      0x1b172 ; uint64_to_str + 18
        0x0001b1b0:    e7ff        ..      B        0x1b1b2 ; uint64_to_str + 82
        0x0001b1b2:    9805        ..      LDR      r0,[sp,#0x14]
        0x0001b1b4:    9004        ..      STR      r0,[sp,#0x10]
        0x0001b1b6:    980d        ..      LDR      r0,[sp,#0x34]
        0x0001b1b8:    b198        ..      CBZ      r0,0x1b1e2 ; uint64_to_str + 130
        0x0001b1ba:    e7ff        ..      B        0x1b1bc ; uint64_to_str + 92
        0x0001b1bc:    e7ff        ..      B        0x1b1be ; uint64_to_str + 94
        0x0001b1be:    9805        ..      LDR      r0,[sp,#0x14]
        0x0001b1c0:    1e41        A.      SUBS     r1,r0,#1
        0x0001b1c2:    9105        ..      STR      r1,[sp,#0x14]
        0x0001b1c4:    b148        H.      CBZ      r0,0x1b1da ; uint64_to_str + 122
        0x0001b1c6:    e7ff        ..      B        0x1b1c8 ; uint64_to_str + 104
        0x0001b1c8:    9905        ..      LDR      r1,[sp,#0x14]
        0x0001b1ca:    f10d001b    ....    ADD      r0,sp,#0x1b
        0x0001b1ce:    5c40        @\      LDRB     r0,[r0,r1]
        0x0001b1d0:    990d        ..      LDR      r1,[sp,#0x34]
        0x0001b1d2:    1c4a        J.      ADDS     r2,r1,#1
        0x0001b1d4:    920d        ..      STR      r2,[sp,#0x34]
        0x0001b1d6:    7008        .p      STRB     r0,[r1,#0]
        0x0001b1d8:    e7f1        ..      B        0x1b1be ; uint64_to_str + 94
        0x0001b1da:    990d        ..      LDR      r1,[sp,#0x34]
        0x0001b1dc:    2000        .       MOVS     r0,#0
        0x0001b1de:    7008        .p      STRB     r0,[r1,#0]
        0x0001b1e0:    e7ff        ..      B        0x1b1e2 ; uint64_to_str + 130
        0x0001b1e2:    9804        ..      LDR      r0,[sp,#0x10]
        0x0001b1e4:    b010        ..      ADD      sp,sp,#0x40
        0x0001b1e6:    bd80        ..      POP      {r7,pc}
    write_transaction_save
        0x0001b1e8:    b5b0        ..      PUSH     {r4,r5,r7,lr}
        0x0001b1ea:    b082        ..      SUB      sp,sp,#8
        0x0001b1ec:    460d        .F      MOV      r5,r1
        0x0001b1ee:    4604        .F      MOV      r4,r0
        0x0001b1f0:    f7fdfdaa    ....    BL       am_hal_interrupt_master_disable ; 0x18d48
        0x0001b1f4:    9001        ..      STR      r0,[sp,#4]
        0x0001b1f6:    f8940054    ..T.    LDRB     r0,[r4,#0x54]
        0x0001b1fa:    b118        ..      CBZ      r0,0x1b204 ; write_transaction_save + 28
        0x0001b1fc:    2504        .%      MOVS     r5,#4
        0x0001b1fe:    f6c00500    ....    MOVT     r5,#0x800
        0x0001b202:    e017        ..      B        0x1b234 ; write_transaction_save + 76
        0x0001b204:    2001        .       MOVS     r0,#1
        0x0001b206:    f8840054    ..T.    STRB     r0,[r4,#0x54]
        0x0001b20a:    7828        (x      LDRB     r0,[r5,#0]
        0x0001b20c:    6869        ih      LDR      r1,[r5,#4]
        0x0001b20e:    f8840058    ..X.    STRB     r0,[r4,#0x58]
        0x0001b212:    65e1        .e      STR      r1,[r4,#0x5c]
        0x0001b214:    e9d50102    ....    LDRD     r0,r1,[r5,#8]
        0x0001b218:    e9c40118    ....    STRD     r0,r1,[r4,#0x60]
        0x0001b21c:    e9d50104    ....    LDRD     r0,r1,[r5,#0x10]
        0x0001b220:    e9c4011a    ....    STRD     r0,r1,[r4,#0x68]
        0x0001b224:    e9d50106    ....    LDRD     r0,r1,[r5,#0x18]
        0x0001b228:    2500        .%      MOVS     r5,#0
        0x0001b22a:    e9c4011c    ....    STRD     r0,r1,[r4,#0x70]
        0x0001b22e:    67a5        .g      STR      r5,[r4,#0x78]
        0x0001b230:    f88450b4    ...P    STRB     r5,[r4,#0xb4]
        0x0001b234:    9801        ..      LDR      r0,[sp,#4]
        0x0001b236:    f7fdfd8b    ....    BL       am_hal_interrupt_master_set ; 0x18d50
        0x0001b23a:    4628        (F      MOV      r0,r5
        0x0001b23c:    b002        ..      ADD      sp,sp,#8
        0x0001b23e:    bdb0        ..      POP      {r4,r5,r7,pc}
    $t
    i.CC_HalClearInterruptBit
    CC_HalClearInterruptBit
        0x0001b240:    4902        .I      LDR      r1,[pc,#8] ; [0x1b24c] = 0x10000008
        0x0001b242:    6809        .h      LDR      r1,[r1,#0]
        0x0001b244:    f8c10a08    ....    STR      r0,[r1,#0xa08]
        0x0001b248:    4770        pG      BX       lr
    $d
        0x0001b24a:    0000        ..      DCW    0
        0x0001b24c:    10000008    ....    DCD    268435464
    $t
    i.CC_HalInit
    CC_HalInit
        0x0001b250:    b508        ..      PUSH     {r3,lr}
        0x0001b252:    2000        .       MOVS     r0,#0
        0x0001b254:    9000        ..      STR      r0,[sp,#0]
        0x0001b256:    466a        jF      MOV      r2,sp
        0x0001b258:    f44f1180    O...    MOV      r1,#0x100000
        0x0001b25c:    4803        .H      LDR      r0,[pc,#12] ; [0x1b26c] = 0x400c0000
        0x0001b25e:    f000f8d9    ....    BL       CC_PalMemMap ; 0x1b414
        0x0001b262:    4903        .I      LDR      r1,[pc,#12] ; [0x1b270] = 0x10000008
        0x0001b264:    9800        ..      LDR      r0,[sp,#0]
        0x0001b266:    6008        .`      STR      r0,[r1,#0]
        0x0001b268:    2000        .       MOVS     r0,#0
        0x0001b26a:    bd08        ..      POP      {r3,pc}
    $d
        0x0001b26c:    400c0000    ...@    DCD    1074528256
        0x0001b270:    10000008    ....    DCD    268435464
    $t
    i.CC_HalMaskInterrupt
    CC_HalMaskInterrupt
        0x0001b274:    4902        .I      LDR      r1,[pc,#8] ; [0x1b280] = 0x10000008
        0x0001b276:    6809        .h      LDR      r1,[r1,#0]
        0x0001b278:    f8c10a04    ....    STR      r0,[r1,#0xa04]
        0x0001b27c:    4770        pG      BX       lr
    $d
        0x0001b27e:    0000        ..      DCW    0
        0x0001b280:    10000008    ....    DCD    268435464
    $t
    i.CC_HalTerminate
    CC_HalTerminate
        0x0001b284:    b510        ..      PUSH     {r4,lr}
        0x0001b286:    4c04        .L      LDR      r4,[pc,#16] ; [0x1b298] = 0x10000008
        0x0001b288:    f44f1180    O...    MOV      r1,#0x100000
        0x0001b28c:    6820         h      LDR      r0,[r4,#0]
        0x0001b28e:    f000f8cb    ....    BL       CC_PalMemUnMap ; 0x1b428
        0x0001b292:    2000        .       MOVS     r0,#0
        0x0001b294:    6020         `      STR      r0,[r4,#0]
        0x0001b296:    bd10        ..      POP      {r4,pc}
    $d
        0x0001b298:    10000008    ....    DCD    268435464
    $t
    i.CC_HalWaitInterrupt
    CC_HalWaitInterrupt
        0x0001b29c:    b108        ..      CBZ      r0,0x1b2a2 ; CC_HalWaitInterrupt + 6
        0x0001b29e:    f000b8e1    ....    B.W      CC_PalWaitInterrupt ; 0x1b464
        0x0001b2a2:    f44f0075    O.u.    MOV      r0,#0xf50000
        0x0001b2a6:    4770        pG      BX       lr
    i.CC_HalWaitInterruptRND
    CC_HalWaitInterruptRND
        0x0001b2a8:    b530        0.      PUSH     {r4,r5,lr}
        0x0001b2aa:    2300        .#      MOVS     r3,#0
        0x0001b2ac:    f44f0475    O.u.    MOV      r4,#0xf50000
        0x0001b2b0:    b148        H.      CBZ      r0,0x1b2c6 ; CC_HalWaitInterruptRND + 30
        0x0001b2b2:    4909        .I      LDR      r1,[pc,#36] ; [0x1b2d8] = 0x10000008
        0x0001b2b4:    680a        .h      LDR      r2,[r1,#0]
        0x0001b2b6:    f8d21a00    ....    LDR      r1,[r2,#0xa00]
        0x0001b2ba:    05cd        ..      LSLS     r5,r1,#23
        0x0001b2bc:    d505        ..      BPL      0x1b2ca ; CC_HalWaitInterruptRND + 34
        0x0001b2be:    4623        #F      MOV      r3,r4
        0x0001b2c0:    f4407080    @..p    ORR      r0,r0,#0x100
        0x0001b2c4:    e003        ..      B        0x1b2ce ; CC_HalWaitInterruptRND + 38
        0x0001b2c6:    4620         F      MOV      r0,r4
        0x0001b2c8:    bd30        0.      POP      {r4,r5,pc}
        0x0001b2ca:    4201        .B      TST      r1,r0
        0x0001b2cc:    d0f3        ..      BEQ      0x1b2b6 ; CC_HalWaitInterruptRND + 14
        0x0001b2ce:    f8c20a08    ....    STR      r0,[r2,#0xa08]
        0x0001b2d2:    4618        .F      MOV      r0,r3
        0x0001b2d4:    bd30        0.      POP      {r4,r5,pc}
    $d
        0x0001b2d6:    0000        ..      DCW    0
        0x0001b2d8:    10000008    ....    DCD    268435464
    $t
    i.CC_LibInit
    CC_LibInit
        0x0001b2dc:    e92d41f0    -..A    PUSH     {r4-r8,lr}
        0x0001b2e0:    b08a        ..      SUB      sp,sp,#0x28
        0x0001b2e2:    460d        .F      MOV      r5,r1
        0x0001b2e4:    0004        ..      MOVS     r4,r0
        0x0001b2e6:    d00d        ..      BEQ      0x1b304 ; CC_LibInit + 40
        0x0001b2e8:    b145        E.      CBZ      r5,0x1b2fc ; CC_LibInit + 32
        0x0001b2ea:    6820         h      LDR      r0,[r4,#0]
        0x0001b2ec:    b150        P.      CBZ      r0,0x1b304 ; CC_LibInit + 40
        0x0001b2ee:    6860        `h      LDR      r0,[r4,#4]
        0x0001b2f0:    b140        @.      CBZ      r0,0x1b304 ; CC_LibInit + 40
        0x0001b2f2:    f7ffffad    ....    BL       CC_HalInit ; 0x1b250
        0x0001b2f6:    b138        8.      CBZ      r0,0x1b308 ; CC_LibInit + 44
        0x0001b2f8:    2403        .$      MOVS     r4,#3
        0x0001b2fa:    e069        i.      B        0x1b3d0 ; CC_LibInit + 244
        0x0001b2fc:    2002        .       MOVS     r0,#2
        0x0001b2fe:    b00a        ..      ADD      sp,sp,#0x28
        0x0001b300:    e8bd81f0    ....    POP      {r4-r8,pc}
        0x0001b304:    2001        .       MOVS     r0,#1
        0x0001b306:    e7fa        ..      B        0x1b2fe ; CC_LibInit + 34
        0x0001b308:    f000f875    ..u.    BL       CC_PalInit ; 0x1b3f6
        0x0001b30c:    b108        ..      CBZ      r0,0x1b312 ; CC_LibInit + 54
        0x0001b30e:    2404        .$      MOVS     r4,#4
        0x0001b310:    e060        `.      B        0x1b3d4 ; CC_LibInit + 248
        0x0001b312:    f000fe07    ....    BL       VerifyPidVal ; 0x1bf24
        0x0001b316:    b108        ..      CBZ      r0,0x1b31c ; CC_LibInit + 64
        0x0001b318:    2406        .$      MOVS     r4,#6
        0x0001b31a:    e057        W.      B        0x1b3cc ; CC_LibInit + 240
        0x0001b31c:    f000fdda    ....    BL       VerifyCidVal ; 0x1bed4
        0x0001b320:    b108        ..      CBZ      r0,0x1b326 ; CC_LibInit + 74
        0x0001b322:    2407        .$      MOVS     r4,#7
        0x0001b324:    e052        R.      B        0x1b3cc ; CC_LibInit + 240
        0x0001b326:    4b2d        -K      LDR      r3,[pc,#180] ; [0x1b3dc] = 0x10000008
        0x0001b328:    6819        .h      LDR      r1,[r3,#0]
        0x0001b32a:    f5015280    ...R    ADD      r2,r1,#0x1000
        0x0001b32e:    f8d20e34    ..4.    LDR      r0,[r2,#0xe34]
        0x0001b332:    f0200080     ...    BIC      r0,r0,#0x80
        0x0001b336:    f8c20e34    ..4.    STR      r0,[r2,#0xe34]
        0x0001b33a:    f8d26e34    ..4n    LDR      r6,[r2,#0xe34]
        0x0001b33e:    4286        .B      CMP      r6,r0
        0x0001b340:    d107        ..      BNE      0x1b352 ; CC_LibInit + 118
        0x0001b342:    f4407080    @..p    ORR      r0,r0,#0x100
        0x0001b346:    f8c20e34    ..4.    STR      r0,[r2,#0xe34]
        0x0001b34a:    f8d22e34    ..4.    LDR      r2,[r2,#0xe34]
        0x0001b34e:    4282        .B      CMP      r2,r0
        0x0001b350:    d001        ..      BEQ      0x1b356 ; CC_LibInit + 122
        0x0001b352:    2408        .$      MOVS     r4,#8
        0x0001b354:    e03a        :.      B        0x1b3cc ; CC_LibInit + 240
        0x0001b356:    2600        .&      MOVS     r6,#0
        0x0001b358:    4698        .F      MOV      r8,r3
        0x0001b35a:    f8c164f0    ...d    STR      r6,[r1,#0x4f0]
        0x0001b35e:    f8c16a0c    ...j    STR      r6,[r1,#0xa0c]
        0x0001b362:    4628        (F      MOV      r0,r5
        0x0001b364:    f000fce2    ....    BL       RndStartupTest ; 0x1bd2c
        0x0001b368:    bb78        x.      CBNZ     r0,0x1b3ca ; CC_LibInit + 238
        0x0001b36a:    6820         h      LDR      r0,[r4,#0]
        0x0001b36c:    f001f8e8    ....    BL       mbedtls_ctr_drbg_init ; 0x1c540
        0x0001b370:    6860        `h      LDR      r0,[r4,#4]
        0x0001b372:    f001fa51    ..Q.    BL       mbedtls_entropy_init ; 0x1c818
        0x0001b376:    9600        ..      STR      r6,[sp,#0]
        0x0001b378:    e9d40200    ....    LDRD     r0,r2,[r4,#0]
        0x0001b37c:    2300        .#      MOVS     r3,#0
        0x0001b37e:    4918        .I      LDR      r1,[pc,#96] ; [0x1b3e0] = 0x1c739
        0x0001b380:    f001f992    ....    BL       mbedtls_ctr_drbg_seed ; 0x1c6a8
        0x0001b384:    bb08        ..      CBNZ     r0,0x1b3ca ; CC_LibInit + 238
        0x0001b386:    4917        .I      LDR      r1,[pc,#92] ; [0x1b3e4] = 0x1c547
        0x0001b388:    4620         F      MOV      r0,r4
        0x0001b38a:    f000f87f    ....    BL       CC_RndSetGenerateVectorFunc ; 0x1b48c
        0x0001b38e:    b9e0        ..      CBNZ     r0,0x1b3ca ; CC_LibInit + 238
        0x0001b390:    9608        ..      STR      r6,[sp,#0x20]
        0x0001b392:    2500        .%      MOVS     r5,#0
        0x0001b394:    a808        ..      ADD      r0,sp,#0x20
        0x0001b396:    68a7        .h      LDR      r7,[r4,#8]
        0x0001b398:    f002f800    ....    BL       mbedtls_mng_lcsGet ; 0x1d39c
        0x0001b39c:    9808        ..      LDR      r0,[sp,#0x20]
        0x0001b39e:    2807        .(      CMP      r0,#7
        0x0001b3a0:    d112        ..      BNE      0x1b3c8 ; CC_LibInit + 236
        0x0001b3a2:    2220         "      MOVS     r2,#0x20
        0x0001b3a4:    4669        iF      MOV      r1,sp
        0x0001b3a6:    6820         h      LDR      r0,[r4,#0]
        0x0001b3a8:    47b8        .G      BLX      r7
        0x0001b3aa:    b108        ..      CBZ      r0,0x1b3b0 ; CC_LibInit + 212
        0x0001b3ac:    2605        .&      MOVS     r6,#5
        0x0001b3ae:    e00b        ..      B        0x1b3c8 ; CC_LibInit + 236
        0x0001b3b0:    f8d80000    ....    LDR      r0,[r8,#0]
        0x0001b3b4:    4669        iF      MOV      r1,sp
        0x0001b3b6:    f5005080    ...P    ADD      r0,r0,#0x1000
        0x0001b3ba:    f8512025    Q.%     LDR      r2,[r1,r5,LSL #2]
        0x0001b3be:    f8c02f18    .../    STR      r2,[r0,#0xf18]
        0x0001b3c2:    1c6d        m.      ADDS     r5,r5,#1
        0x0001b3c4:    2d08        .-      CMP      r5,#8
        0x0001b3c6:    d3f8        ..      BCC      0x1b3ba ; CC_LibInit + 222
        0x0001b3c8:    b136        6.      CBZ      r6,0x1b3d8 ; CC_LibInit + 252
        0x0001b3ca:    2405        .$      MOVS     r4,#5
        0x0001b3cc:    f7ffff5a    ..Z.    BL       CC_HalTerminate ; 0x1b284
        0x0001b3d0:    f000f833    ..3.    BL       CC_PalTerminate ; 0x1b43a
        0x0001b3d4:    4620         F      MOV      r0,r4
        0x0001b3d6:    e792        ..      B        0x1b2fe ; CC_LibInit + 34
        0x0001b3d8:    2000        .       MOVS     r0,#0
        0x0001b3da:    e790        ..      B        0x1b2fe ; CC_LibInit + 34
    $d
        0x0001b3dc:    10000008    ....    DCD    268435464
        0x0001b3e0:    0001c739    9...    DCD    116537
        0x0001b3e4:    0001c547    G...    DCD    116039
    $t
    i.CC_PalAbort
    CC_PalAbort
        0x0001b3e8:    e7fe        ..      B        CC_PalAbort ; 0x1b3e8
    i.CC_PalDataBufferAttrGet
    CC_PalDataBufferAttrGet
        0x0001b3ea:    2000        .       MOVS     r0,#0
        0x0001b3ec:    7018        .p      STRB     r0,[r3,#0]
        0x0001b3ee:    4770        pG      BX       lr
    i.CC_PalDmaInit
    CC_PalDmaInit
        0x0001b3f0:    2000        .       MOVS     r0,#0
        0x0001b3f2:    4770        pG      BX       lr
    i.CC_PalDmaTerminate
    CC_PalDmaTerminate
        0x0001b3f4:    4770        pG      BX       lr
    i.CC_PalInit
    CC_PalInit
        0x0001b3f6:    b510        ..      PUSH     {r4,lr}
        0x0001b3f8:    2100        .!      MOVS     r1,#0
        0x0001b3fa:    4608        .F      MOV      r0,r1
        0x0001b3fc:    f7fffff8    ....    BL       CC_PalDmaInit ; 0x1b3f0
        0x0001b400:    0004        ..      MOVS     r4,r0
        0x0001b402:    d102        ..      BNE      0x1b40a ; CC_PalInit + 20
        0x0001b404:    f000f816    ....    BL       CC_PalPowerSaveModeInit ; 0x1b434
        0x0001b408:    4620         F      MOV      r0,r4
        0x0001b40a:    bd10        ..      POP      {r4,pc}
    i.CC_PalMemCmpPlat
    CC_PalMemCmpPlat
        0x0001b40c:    f7fcbf6e    ..n.    B        memcmp ; 0x182ec
    i.CC_PalMemCopyPlat
    CC_PalMemCopyPlat
        0x0001b410:    f7fdb81f    ....    B        memmove ; 0x18452
    i.CC_PalMemMap
    CC_PalMemMap
        0x0001b414:    6010        .`      STR      r0,[r2,#0]
        0x0001b416:    2000        .       MOVS     r0,#0
        0x0001b418:    4770        pG      BX       lr
    i.CC_PalMemSetPlat
    CC_PalMemSetPlat
        0x0001b41a:    4613        .F      MOV      r3,r2
        0x0001b41c:    460a        .F      MOV      r2,r1
        0x0001b41e:    4619        .F      MOV      r1,r3
        0x0001b420:    f7fdb858    ..X.    B        __aeabi_memset ; 0x184d4
    i.CC_PalMemSetZeroPlat
    CC_PalMemSetZeroPlat
        0x0001b424:    f7fdb85e    ..^.    B        __aeabi_memclr ; 0x184e4
    i.CC_PalMemUnMap
    CC_PalMemUnMap
        0x0001b428:    2000        .       MOVS     r0,#0
        0x0001b42a:    4770        pG      BX       lr
    i.CC_PalMutexLock
    CC_PalMutexLock
        0x0001b42c:    2000        .       MOVS     r0,#0
        0x0001b42e:    4770        pG      BX       lr
    i.CC_PalMutexUnlock
    CC_PalMutexUnlock
        0x0001b430:    2000        .       MOVS     r0,#0
        0x0001b432:    4770        pG      BX       lr
    i.CC_PalPowerSaveModeInit
    CC_PalPowerSaveModeInit
        0x0001b434:    4770        pG      BX       lr
    i.CC_PalPowerSaveModeSelect
    CC_PalPowerSaveModeSelect
        0x0001b436:    2000        .       MOVS     r0,#0
        0x0001b438:    4770        pG      BX       lr
    i.CC_PalTerminate
    CC_PalTerminate
        0x0001b43a:    f7ffbfdb    ....    B.W      CC_PalDmaTerminate ; 0x1b3f4
    i.CC_PalTrngParamGet
    CC_PalTrngParamGet
        0x0001b43e:    b118        ..      CBZ      r0,0x1b448 ; CC_PalTrngParamGet + 10
        0x0001b440:    b111        ..      CBZ      r1,0x1b448 ; CC_PalTrngParamGet + 10
        0x0001b442:    6809        .h      LDR      r1,[r1,#0]
        0x0001b444:    2910        .)      CMP      r1,#0x10
        0x0001b446:    d001        ..      BEQ      0x1b44c ; CC_PalTrngParamGet + 14
        0x0001b448:    2001        .       MOVS     r0,#1
        0x0001b44a:    4770        pG      BX       lr
        0x0001b44c:    f2413188    A..1    MOV      r1,#0x1388
        0x0001b450:    6001        .`      STR      r1,[r0,#0]
        0x0001b452:    f44f717a    O.zq    MOV      r1,#0x3e8
        0x0001b456:    6041        A`      STR      r1,[r0,#4]
        0x0001b458:    1049        I.      ASRS     r1,r1,#1
        0x0001b45a:    6081        .`      STR      r1,[r0,#8]
        0x0001b45c:    2100        .!      MOVS     r1,#0
        0x0001b45e:    60c1        .`      STR      r1,[r0,#0xc]
        0x0001b460:    4608        .F      MOV      r0,r1
        0x0001b462:    4770        pG      BX       lr
    i.CC_PalWaitInterrupt
    CC_PalWaitInterrupt
        0x0001b464:    4908        .I      LDR      r1,[pc,#32] ; [0x1b488] = 0x10000008
        0x0001b466:    b510        ..      PUSH     {r4,lr}
        0x0001b468:    680a        .h      LDR      r2,[r1,#0]
        0x0001b46a:    2300        .#      MOVS     r3,#0
        0x0001b46c:    f8d21a00    ....    LDR      r1,[r2,#0xa00]
        0x0001b470:    05cc        ..      LSLS     r4,r1,#23
        0x0001b472:    d503        ..      BPL      0x1b47c ; CC_PalWaitInterrupt + 24
        0x0001b474:    2301        .#      MOVS     r3,#1
        0x0001b476:    f4407080    @..p    ORR      r0,r0,#0x100
        0x0001b47a:    e001        ..      B        0x1b480 ; CC_PalWaitInterrupt + 28
        0x0001b47c:    4201        .B      TST      r1,r0
        0x0001b47e:    d0f5        ..      BEQ      0x1b46c ; CC_PalWaitInterrupt + 8
        0x0001b480:    f8c20a08    ....    STR      r0,[r2,#0xa08]
        0x0001b484:    4618        .F      MOV      r0,r3
        0x0001b486:    bd10        ..      POP      {r4,pc}
    $d
        0x0001b488:    10000008    ....    DCD    268435464
    $t
    i.CC_RndSetGenerateVectorFunc
    CC_RndSetGenerateVectorFunc
        0x0001b48c:    b118        ..      CBZ      r0,0x1b496 ; CC_RndSetGenerateVectorFunc + 10
        0x0001b48e:    b121        !.      CBZ      r1,0x1b49a ; CC_RndSetGenerateVectorFunc + 14
        0x0001b490:    6081        .`      STR      r1,[r0,#8]
        0x0001b492:    2000        .       MOVS     r0,#0
        0x0001b494:    4770        pG      BX       lr
        0x0001b496:    4802        .H      LDR      r0,[pc,#8] ; [0x1b4a0] = 0xf00c27
        0x0001b498:    4770        pG      BX       lr
        0x0001b49a:    4801        .H      LDR      r0,[pc,#4] ; [0x1b4a0] = 0xf00c27
        0x0001b49c:    3813        .8      SUBS     r0,r0,#0x13
        0x0001b49e:    4770        pG      BX       lr
    $d
        0x0001b4a0:    00f00c27    '...    DCD    15731751
    $t
    i.InitAes
    InitAes
        0x0001b4a4:    b570        p.      PUSH     {r4-r6,lr}
        0x0001b4a6:    0004        ..      MOVS     r4,r0
        0x0001b4a8:    f04f0500    O...    MOV      r5,#0
        0x0001b4ac:    d008        ..      BEQ      0x1b4c0 ; InitAes + 28
        0x0001b4ae:    6b60        `k      LDR      r0,[r4,#0x34]
        0x0001b4b0:    2808        .(      CMP      r0,#8
        0x0001b4b2:    d208        ..      BCS      0x1b4c6 ; InitAes + 34
        0x0001b4b4:    e8dff000    ....    TBB      [pc,r0]
    $d
        0x0001b4b8:    09090909    ....    DCD    151587081
        0x0001b4bc:    09090707    ....    DCD    151586567
    $t
        0x0001b4c0:    f44f0071    O.q.    MOV      r0,#0xf10000
        0x0001b4c4:    bd70        p.      POP      {r4-r6,pc}
        0x0001b4c6:    4828        (H      LDR      r0,[pc,#160] ; [0x1b568] = 0xf10001
        0x0001b4c8:    bd70        p.      POP      {r4-r6,pc}
        0x0001b4ca:    6ba0        .k      LDR      r0,[r4,#0x38]
        0x0001b4cc:    b120         .      CBZ      r0,0x1b4d8 ; InitAes + 52
        0x0001b4ce:    2801        .(      CMP      r0,#1
        0x0001b4d0:    d002        ..      BEQ      0x1b4d8 ; InitAes + 52
        0x0001b4d2:    4825        %H      LDR      r0,[pc,#148] ; [0x1b568] = 0xf10001
        0x0001b4d4:    1c40        @.      ADDS     r0,r0,#1
        0x0001b4d6:    bd70        p.      POP      {r4-r6,pc}
        0x0001b4d8:    6ca0        .l      LDR      r0,[r4,#0x48]
        0x0001b4da:    b120         .      CBZ      r0,0x1b4e6 ; InitAes + 66
        0x0001b4dc:    2801        .(      CMP      r0,#1
        0x0001b4de:    d002        ..      BEQ      0x1b4e6 ; InitAes + 66
        0x0001b4e0:    4821        !H      LDR      r0,[pc,#132] ; [0x1b568] = 0xf10001
        0x0001b4e2:    1c80        ..      ADDS     r0,r0,#2
        0x0001b4e4:    bd70        p.      POP      {r4-r6,pc}
        0x0001b4e6:    6ce0        .l      LDR      r0,[r4,#0x4c]
        0x0001b4e8:    b120         .      CBZ      r0,0x1b4f4 ; InitAes + 80
        0x0001b4ea:    2801        .(      CMP      r0,#1
        0x0001b4ec:    d002        ..      BEQ      0x1b4f4 ; InitAes + 80
        0x0001b4ee:    481e        .H      LDR      r0,[pc,#120] ; [0x1b568] = 0xf10001
        0x0001b4f0:    1cc0        ..      ADDS     r0,r0,#3
        0x0001b4f2:    bd70        p.      POP      {r4-r6,pc}
        0x0001b4f4:    4e1d        .N      LDR      r6,[pc,#116] ; [0x1b56c] = 0x10000008
        0x0001b4f6:    6831        1h      LDR      r1,[r6,#0]
        0x0001b4f8:    f8d10910    ....    LDR      r0,[r1,#0x910]
        0x0001b4fc:    2800        .(      CMP      r0,#0
        0x0001b4fe:    d1fb        ..      BNE      0x1b4f8 ; InitAes + 84
        0x0001b500:    1e40        @.      SUBS     r0,r0,#1
        0x0001b502:    f7fffe9d    ....    BL       CC_HalClearInterruptBit ; 0x1b240
        0x0001b506:    6830        0h      LDR      r0,[r6,#0]
        0x0001b508:    f8d00a04    ....    LDR      r0,[r0,#0xa04]
        0x0001b50c:    f4206000     ..`    BIC      r0,r0,#0x800
        0x0001b510:    f04000f0    @...    ORR      r0,r0,#0xf0
        0x0001b514:    f7fffeae    ....    BL       CC_HalMaskInterrupt ; 0x1b274
        0x0001b518:    6831        1h      LDR      r1,[r6,#0]
        0x0001b51a:    2301        .#      MOVS     r3,#1
        0x0001b51c:    f8c13900    ...9    STR      r3,[r1,#0x900]
        0x0001b520:    2000        .       MOVS     r0,#0
        0x0001b522:    f8c104bc    ....    STR      r0,[r1,#0x4bc]
        0x0001b526:    6b60        `k      LDR      r0,[r4,#0x34]
        0x0001b528:    2803        .(      CMP      r0,#3
        0x0001b52a:    d00f        ..      BEQ      0x1b54c ; InitAes + 168
        0x0001b52c:    2807        .(      CMP      r0,#7
        0x0001b52e:    d00d        ..      BEQ      0x1b54c ; InitAes + 168
        0x0001b530:    6ba2        .k      LDR      r2,[r4,#0x38]
        0x0001b532:    f3620500    b...    BFI      r5,r2,#0,#1
        0x0001b536:    f3600584    `...    BFI      r5,r0,#2,#3
        0x0001b53a:    6b20         k      LDR      r0,[r4,#0x30]
        0x0001b53c:    b140        @.      CBZ      r0,0x1b550 ; InitAes + 172
        0x0001b53e:    2801        .(      CMP      r0,#1
        0x0001b540:    d006        ..      BEQ      0x1b550 ; InitAes + 172
        0x0001b542:    2802        .(      CMP      r0,#2
        0x0001b544:    d004        ..      BEQ      0x1b550 ; InitAes + 172
        0x0001b546:    4808        .H      LDR      r0,[pc,#32] ; [0x1b568] = 0xf10001
        0x0001b548:    1d40        @.      ADDS     r0,r0,#5
        0x0001b54a:    bd70        p.      POP      {r4-r6,pc}
        0x0001b54c:    2200        ."      MOVS     r2,#0
        0x0001b54e:    e7f0        ..      B        0x1b532 ; InitAes + 142
        0x0001b550:    f360350d    `..5    BFI      r5,r0,#12,#2
        0x0001b554:    f8c154c0    ...T    STR      r5,[r1,#0x4c0]
        0x0001b558:    6b60        `k      LDR      r0,[r4,#0x34]
        0x0001b55a:    2807        .(      CMP      r0,#7
        0x0001b55c:    d101        ..      BNE      0x1b562 ; InitAes + 190
        0x0001b55e:    f8c1347c    ..|4    STR      r3,[r1,#0x47c]
        0x0001b562:    2000        .       MOVS     r0,#0
        0x0001b564:    bd70        p.      POP      {r4-r6,pc}
    $d
        0x0001b566:    0000        ..      DCW    0
        0x0001b568:    00f10001    ....    DCD    15794177
        0x0001b56c:    10000008    ....    DCD    268435464
    $t
    i.LLF_RND_GetFastestRosc
    LLF_RND_GetFastestRosc
        0x0001b570:    680a        .h      LDR      r2,[r1,#0]
        0x0001b572:    6943        Ci      LDR      r3,[r0,#0x14]
        0x0001b574:    421a        .B      TST      r2,r3
        0x0001b576:    d001        ..      BEQ      0x1b57c ; LLF_RND_GetFastestRosc + 12
        0x0001b578:    2000        .       MOVS     r0,#0
        0x0001b57a:    4770        pG      BX       lr
        0x0001b57c:    0052        R.      LSLS     r2,r2,#1
        0x0001b57e:    600a        .`      STR      r2,[r1,#0]
        0x0001b580:    2a08        .*      CMP      r2,#8
        0x0001b582:    d9f5        ..      BLS      LLF_RND_GetFastestRosc ; 0x1b570
        0x0001b584:    4800        .H      LDR      r0,[pc,#0] ; [0x1b588] = 0xf10c31
        0x0001b586:    4770        pG      BX       lr
    $d
        0x0001b588:    00f10c31    1...    DCD    15797297
    $t
    i.LLF_RND_GetRoscSampleCnt
    LLF_RND_GetRoscSampleCnt
        0x0001b58c:    2801        .(      CMP      r0,#1
        0x0001b58e:    d007        ..      BEQ      0x1b5a0 ; LLF_RND_GetRoscSampleCnt + 20
        0x0001b590:    2802        .(      CMP      r0,#2
        0x0001b592:    d007        ..      BEQ      0x1b5a4 ; LLF_RND_GetRoscSampleCnt + 24
        0x0001b594:    2804        .(      CMP      r0,#4
        0x0001b596:    d009        ..      BEQ      0x1b5ac ; LLF_RND_GetRoscSampleCnt + 32
        0x0001b598:    2808        .(      CMP      r0,#8
        0x0001b59a:    d009        ..      BEQ      0x1b5b0 ; LLF_RND_GetRoscSampleCnt + 36
        0x0001b59c:    4805        .H      LDR      r0,[pc,#20] ; [0x1b5b4] = 0xf10c31
        0x0001b59e:    4770        pG      BX       lr
        0x0001b5a0:    6808        .h      LDR      r0,[r1,#0]
        0x0001b5a2:    e000        ..      B        0x1b5a6 ; LLF_RND_GetRoscSampleCnt + 26
        0x0001b5a4:    6848        Hh      LDR      r0,[r1,#4]
        0x0001b5a6:    6188        .a      STR      r0,[r1,#0x18]
        0x0001b5a8:    2000        .       MOVS     r0,#0
        0x0001b5aa:    4770        pG      BX       lr
        0x0001b5ac:    6888        .h      LDR      r0,[r1,#8]
        0x0001b5ae:    e7fa        ..      B        0x1b5a6 ; LLF_RND_GetRoscSampleCnt + 26
        0x0001b5b0:    68c8        .h      LDR      r0,[r1,#0xc]
        0x0001b5b2:    e7f8        ..      B        0x1b5a6 ; LLF_RND_GetRoscSampleCnt + 26
    $d
        0x0001b5b4:    00f10c31    1...    DCD    15797297
    $t
    i.LLF_RND_GetTrngSource
    LLF_RND_GetTrngSource
        0x0001b5b8:    e92d4fff    -..O    PUSH     {r0-r11,lr}
        0x0001b5bc:    b08d        ..      SUB      sp,sp,#0x34
        0x0001b5be:    460f        .F      MOV      r7,r1
        0x0001b5c0:    e9dd941b    ....    LDRD     r9,r4,[sp,#0x6c]
        0x0001b5c4:    4606        .F      MOV      r6,r0
        0x0001b5c6:    2130        0!      MOVS     r1,#0x30
        0x0001b5c8:    4668        hF      MOV      r0,sp
        0x0001b5ca:    f8ddb068    ..h.    LDR      r11,[sp,#0x68]
        0x0001b5ce:    f7fcffab    ....    BL       __aeabi_memclr4 ; 0x18528
        0x0001b5d2:    f8dfa138    ..8.    LDR      r10,[pc,#312] ; [0x1b70c] = 0x10000004
        0x0001b5d6:    f04f31ff    O..1    MOV      r1,#0xffffffff
        0x0001b5da:    f8da0000    ....    LDR      r0,[r10,#0]
        0x0001b5de:    f7ffff25    ..%.    BL       CC_PalMutexLock ; 0x1b42c
        0x0001b5e2:    b110        ..      CBZ      r0,0x1b5ea ; LLF_RND_GetTrngSource + 50
        0x0001b5e4:    a04a        J.      ADR      r0,{pc}+0x12c ; 0x1b710
        0x0001b5e6:    f7fffeff    ....    BL       CC_PalAbort ; 0x1b3e8
        0x0001b5ea:    4d4f        OM      LDR      r5,[pc,#316] ; [0x1b728] = 0x10000008
        0x0001b5ec:    6828        (h      LDR      r0,[r5,#0]
        0x0001b5ee:    f5005080    ...P    ADD      r0,r0,#0x1000
        0x0001b5f2:    f8d00e34    ..4.    LDR      r0,[r0,#0xe34]
        0x0001b5f6:    f0100001    ....    ANDS     r0,r0,#1
        0x0001b5fa:    d000        ..      BEQ      0x1b5fe ; LLF_RND_GetTrngSource + 70
        0x0001b5fc:    2001        .       MOVS     r0,#1
        0x0001b5fe:    f8df812c    ..,.    LDR      r8,[pc,#300] ; [0x1b72c] = 0xf10c32
        0x0001b602:    b108        ..      CBZ      r0,0x1b608 ; LLF_RND_GetTrngSource + 80
        0x0001b604:    4644        DF      MOV      r4,r8
        0x0001b606:    e075        u.      B        0x1b6f4 ; LLF_RND_GetTrngSource + 316
        0x0001b608:    2000        .       MOVS     r0,#0
        0x0001b60a:    f7ffff14    ....    BL       CC_PalPowerSaveModeSelect ; 0x1b436
        0x0001b60e:    b110        ..      CBZ      r0,0x1b616 ; LLF_RND_GetTrngSource + 94
        0x0001b610:    a047        G.      ADR      r0,{pc}+0x120 ; 0x1b730
        0x0001b612:    f7fffee9    ....    BL       CC_PalAbort ; 0x1b3e8
        0x0001b616:    f8cb4000    ...@    STR      r4,[r11,#0]
        0x0001b61a:    f1040b08    ....    ADD      r11,r4,#8
        0x0001b61e:    2400        .$      MOVS     r4,#0
        0x0001b620:    f8c94000    ...@    STR      r4,[r9,#0]
        0x0001b624:    980f        ..      LDR      r0,[sp,#0x3c]
        0x0001b626:    b158        X.      CBZ      r0,0x1b640 ; LLF_RND_GetTrngSource + 136
        0x0001b628:    6829        )h      LDR      r1,[r5,#0]
        0x0001b62a:    f8d10138    ..8.    LDR      r0,[r1,#0x138]
        0x0001b62e:    b180        ..      CBZ      r0,0x1b652 ; LLF_RND_GetTrngSource + 154
        0x0001b630:    2000        .       MOVS     r0,#0
        0x0001b632:    f8d11130    ..0.    LDR      r1,[r1,#0x130]
        0x0001b636:    69ba        .i      LDR      r2,[r7,#0x18]
        0x0001b638:    428a        .B      CMP      r2,r1
        0x0001b63a:    d10c        ..      BNE      0x1b656 ; LLF_RND_GetTrngSource + 158
        0x0001b63c:    2101        .!      MOVS     r1,#1
        0x0001b63e:    e00b        ..      B        0x1b658 ; LLF_RND_GetTrngSource + 160
        0x0001b640:    ab0c        ..      ADD      r3,sp,#0x30
        0x0001b642:    2201        ."      MOVS     r2,#1
        0x0001b644:    4639        9F      MOV      r1,r7
        0x0001b646:    4630        0F      MOV      r0,r6
        0x0001b648:    f000f8a0    ....    BL       LLF_RND_StartTrngHW ; 0x1b78c
        0x0001b64c:    0004        ..      MOVS     r4,r0
        0x0001b64e:    d148        H.      BNE      0x1b6e2 ; LLF_RND_GetTrngSource + 298
        0x0001b650:    e00a        ..      B        0x1b668 ; LLF_RND_GetTrngSource + 176
        0x0001b652:    2001        .       MOVS     r0,#1
        0x0001b654:    e7ed        ..      B        0x1b632 ; LLF_RND_GetTrngSource + 122
        0x0001b656:    2100        .!      MOVS     r1,#0
        0x0001b658:    4201        .B      TST      r1,r0
        0x0001b65a:    d101        ..      BNE      0x1b660 ; LLF_RND_GetTrngSource + 168
        0x0001b65c:    4c33        3L      LDR      r4,[pc,#204] ; [0x1b72c] = 0xf10c32
        0x0001b65e:    1ea4        ..      SUBS     r4,r4,#2
        0x0001b660:    bb4c        L.      CBNZ     r4,0x1b6b6 ; LLF_RND_GetTrngSource + 254
        0x0001b662:    6830        0h      LDR      r0,[r6,#0]
        0x0001b664:    0e00        ..      LSRS     r0,r0,#24
        0x0001b666:    900c        ..      STR      r0,[sp,#0x30]
        0x0001b668:    2500        .%      MOVS     r5,#0
        0x0001b66a:    4668        hF      MOV      r0,sp
        0x0001b66c:    991d        ..      LDR      r1,[sp,#0x74]
        0x0001b66e:    f000f911    ....    BL       LLF_RND_TRNG_ReadEhrData ; 0x1b894
        0x0001b672:    0004        ..      MOVS     r4,r0
        0x0001b674:    d108        ..      BNE      0x1b688 ; LLF_RND_GetTrngSource + 208
        0x0001b676:    4638        8F      MOV      r0,r7
        0x0001b678:    f000f8fc    ....    BL       LLF_RND_TRNG_EnableRngSourceAndWatchdog ; 0x1b874
        0x0001b67c:    a806        ..      ADD      r0,sp,#0x18
        0x0001b67e:    991d        ..      LDR      r1,[sp,#0x74]
        0x0001b680:    f000f908    ....    BL       LLF_RND_TRNG_ReadEhrData ; 0x1b894
        0x0001b684:    0004        ..      MOVS     r4,r0
        0x0001b686:    d024        $.      BEQ      0x1b6d2 ; LLF_RND_GetTrngSource + 282
        0x0001b688:    4828        (H      LDR      r0,[pc,#160] ; [0x1b72c] = 0xf10c32
        0x0001b68a:    3830        08      SUBS     r0,r0,#0x30
        0x0001b68c:    4284        .B      CMP      r4,r0
        0x0001b68e:    d028        (.      BEQ      0x1b6e2 ; LLF_RND_GetTrngSource + 298
        0x0001b690:    980c        ..      LDR      r0,[sp,#0x30]
        0x0001b692:    2808        .(      CMP      r0,#8
        0x0001b694:    d00e        ..      BEQ      0x1b6b4 ; LLF_RND_GetTrngSource + 252
        0x0001b696:    0040        @.      LSLS     r0,r0,#1
        0x0001b698:    900c        ..      STR      r0,[sp,#0x30]
        0x0001b69a:    ab0c        ..      ADD      r3,sp,#0x30
        0x0001b69c:    2200        ."      MOVS     r2,#0
        0x0001b69e:    4639        9F      MOV      r1,r7
        0x0001b6a0:    4630        0F      MOV      r0,r6
        0x0001b6a2:    f000f873    ..s.    BL       LLF_RND_StartTrngHW ; 0x1b78c
        0x0001b6a6:    4604        .F      MOV      r4,r0
        0x0001b6a8:    4820         H      LDR      r0,[pc,#128] ; [0x1b72c] = 0xf10c32
        0x0001b6aa:    1e40        @.      SUBS     r0,r0,#1
        0x0001b6ac:    4284        .B      CMP      r4,r0
        0x0001b6ae:    d103        ..      BNE      0x1b6b8 ; LLF_RND_GetTrngSource + 256
        0x0001b6b0:    6978        xi      LDR      r0,[r7,#0x14]
        0x0001b6b2:    b108        ..      CBZ      r0,0x1b6b8 ; LLF_RND_GetTrngSource + 256
        0x0001b6b4:    4644        DF      MOV      r4,r8
        0x0001b6b6:    e014        ..      B        0x1b6e2 ; LLF_RND_GetTrngSource + 298
        0x0001b6b8:    b99c        ..      CBNZ     r4,0x1b6e2 ; LLF_RND_GetTrngSource + 298
        0x0001b6ba:    6830        0h      LDR      r0,[r6,#0]
        0x0001b6bc:    f44f017f    O...    MOV      r1,#0xff0000
        0x0001b6c0:    ea012110    ...!    AND      r1,r1,r0,LSR #8
        0x0001b6c4:    4308        .C      ORRS     r0,r0,r1
        0x0001b6c6:    f020407f     ..@    BIC      r0,r0,#0xff000000
        0x0001b6ca:    1c6d        m.      ADDS     r5,r5,#1
        0x0001b6cc:    6030        0`      STR      r0,[r6,#0]
        0x0001b6ce:    2d04        .-      CMP      r5,#4
        0x0001b6d0:    dbcb        ..      BLT      0x1b66a ; LLF_RND_GetTrngSource + 178
        0x0001b6d2:    2230        0"      MOVS     r2,#0x30
        0x0001b6d4:    4669        iF      MOV      r1,sp
        0x0001b6d6:    4658        XF      MOV      r0,r11
        0x0001b6d8:    f7fffe9a    ....    BL       CC_PalMemCopyPlat ; 0x1b410
        0x0001b6dc:    2130        0!      MOVS     r1,#0x30
        0x0001b6de:    f8c91000    ....    STR      r1,[r9,#0]
        0x0001b6e2:    f000f905    ....    BL       LLF_RND_TurnOffTrng ; 0x1b8f0
        0x0001b6e6:    2001        .       MOVS     r0,#1
        0x0001b6e8:    f7fffea5    ....    BL       CC_PalPowerSaveModeSelect ; 0x1b436
        0x0001b6ec:    b110        ..      CBZ      r0,0x1b6f4 ; LLF_RND_GetTrngSource + 316
        0x0001b6ee:    a018        ..      ADR      r0,{pc}+0x62 ; 0x1b750
        0x0001b6f0:    f7fffe7a    ..z.    BL       CC_PalAbort ; 0x1b3e8
        0x0001b6f4:    f8da0000    ....    LDR      r0,[r10,#0]
        0x0001b6f8:    f7fffe9a    ....    BL       CC_PalMutexUnlock ; 0x1b430
        0x0001b6fc:    b110        ..      CBZ      r0,0x1b704 ; LLF_RND_GetTrngSource + 332
        0x0001b6fe:    a01c        ..      ADR      r0,{pc}+0x72 ; 0x1b770
        0x0001b700:    f7fffe72    ..r.    BL       CC_PalAbort ; 0x1b3e8
        0x0001b704:    b011        ..      ADD      sp,sp,#0x44
        0x0001b706:    4620         F      MOV      r0,r4
        0x0001b708:    e8bd8ff0    ....    POP      {r4-r11,pc}
    $d
        0x0001b70c:    10000004    ....    DCD    268435460
        0x0001b710:    6c696146    Fail    DCD    1818845510
        0x0001b714:    206f7420     to     DCD    544175136
        0x0001b718:    75716361    acqu    DCD    1970365281
        0x0001b71c:    20657269    ire     DCD    543519337
        0x0001b720:    6574756d    mute    DCD    1702131053
        0x0001b724:    00000a78    x...    DCD    2680
        0x0001b728:    10000008    ....    DCD    268435464
        0x0001b72c:    00f10c32    2...    DCD    15797298
        0x0001b730:    6c696146    Fail    DCD    1818845510
        0x0001b734:    206f7420     to     DCD    544175136
        0x0001b738:    72636e69    incr    DCD    1919118953
        0x0001b73c:    65736165    ease    DCD    1702060389
        0x0001b740:    204d5020     PM     DCD    541937696
        0x0001b744:    6e756f63    coun    DCD    1853189987
        0x0001b748:    0a726574    ter.    DCD    175269236
        0x0001b74c:    00000000    ....    DCD    0
        0x0001b750:    6c696146    Fail    DCD    1818845510
        0x0001b754:    206f7420     to     DCD    544175136
        0x0001b758:    72636564    decr    DCD    1919116644
        0x0001b75c:    65736165    ease    DCD    1702060389
        0x0001b760:    204d5020     PM     DCD    541937696
        0x0001b764:    6e756f63    coun    DCD    1853189987
        0x0001b768:    0a726574    ter.    DCD    175269236
        0x0001b76c:    00000000    ....    DCD    0
        0x0001b770:    6c696146    Fail    DCD    1818845510
        0x0001b774:    206f7420     to     DCD    544175136
        0x0001b778:    656c6572    rele    DCD    1701602674
        0x0001b77c:    20657361    ase     DCD    543519585
        0x0001b780:    6574756d    mute    DCD    1702131053
        0x0001b784:    00000a78    x...    DCD    2680
    $t
    i.LLF_RND_RunTrngStartupTest
    LLF_RND_RunTrngStartupTest
        0x0001b788:    2000        .       MOVS     r0,#0
        0x0001b78a:    4770        pG      BX       lr
    i.LLF_RND_StartTrngHW
    LLF_RND_StartTrngHW
        0x0001b78c:    e92d47f0    -..G    PUSH     {r4-r10,lr}
        0x0001b790:    461c        .F      MOV      r4,r3
        0x0001b792:    460e        .F      MOV      r6,r1
        0x0001b794:    0005        ..      MOVS     r5,r0
        0x0001b796:    d05d        ].      BEQ      0x1b854 ; LLF_RND_StartTrngHW + 200
        0x0001b798:    b3ee        ..      CBZ      r6,0x1b816 ; LLF_RND_StartTrngHW + 138
        0x0001b79a:    b3e4        ..      CBZ      r4,0x1b816 ; LLF_RND_StartTrngHW + 138
        0x0001b79c:    f04f0900    O...    MOV      r9,#0
        0x0001b7a0:    f04f0801    O...    MOV      r8,#1
        0x0001b7a4:    b11a        ..      CBZ      r2,0x1b7ae ; LLF_RND_StartTrngHW + 34
        0x0001b7a6:    f8c48000    ....    STR      r8,[r4,#0]
        0x0001b7aa:    f8c59000    ....    STR      r9,[r5,#0]
        0x0001b7ae:    6820         h      LDR      r0,[r4,#0]
        0x0001b7b0:    b390        ..      CBZ      r0,0x1b818 ; LLF_RND_StartTrngHW + 140
        0x0001b7b2:    4619        .F      MOV      r1,r3
        0x0001b7b4:    4630        0F      MOV      r0,r6
        0x0001b7b6:    f7fffedb    ....    BL       LLF_RND_GetFastestRosc ; 0x1b570
        0x0001b7ba:    2800        .(      CMP      r0,#0
        0x0001b7bc:    d148        H.      BNE      0x1b850 ; LLF_RND_StartTrngHW + 196
        0x0001b7be:    4631        1F      MOV      r1,r6
        0x0001b7c0:    6820         h      LDR      r0,[r4,#0]
        0x0001b7c2:    f7fffee3    ....    BL       LLF_RND_GetRoscSampleCnt ; 0x1b58c
        0x0001b7c6:    0007        ..      MOVS     r7,r0
        0x0001b7c8:    d142        B.      BNE      0x1b850 ; LLF_RND_StartTrngHW + 196
        0x0001b7ca:    6820         h      LDR      r0,[r4,#0]
        0x0001b7cc:    2808        .(      CMP      r0,#8
        0x0001b7ce:    d046        F.      BEQ      0x1b85e ; LLF_RND_StartTrngHW + 210
        0x0001b7d0:    2804        .(      CMP      r0,#4
        0x0001b7d2:    d046        F.      BEQ      0x1b862 ; LLF_RND_StartTrngHW + 214
        0x0001b7d4:    2802        .(      CMP      r0,#2
        0x0001b7d6:    d046        F.      BEQ      0x1b866 ; LLF_RND_StartTrngHW + 218
        0x0001b7d8:    2100        .!      MOVS     r1,#0
        0x0001b7da:    f8dfc090    ....    LDR      r12,[pc,#144] ; [0x1b86c] = 0x10000008
        0x0001b7de:    4643        CF      MOV      r3,r8
        0x0001b7e0:    f8dc0000    ....    LDR      r0,[r12,#0]
        0x0001b7e4:    f8c081c4    ....    STR      r8,[r0,#0x1c4]
        0x0001b7e8:    f8c08140    ..@.    STR      r8,[r0,#0x140]
        0x0001b7ec:    f8c031c4    ...1    STR      r3,[r0,#0x1c4]
        0x0001b7f0:    69b2        .i      LDR      r2,[r6,#0x18]
        0x0001b7f2:    f8c02130    ..0!    STR      r2,[r0,#0x130]
        0x0001b7f6:    f8d02130    ..0!    LDR      r2,[r0,#0x130]
        0x0001b7fa:    f8d68018    ....    LDR      r8,[r6,#0x18]
        0x0001b7fe:    4590        .E      CMP      r8,r2
        0x0001b800:    d1f4        ..      BNE      0x1b7ec ; LLF_RND_StartTrngHW + 96
        0x0001b802:    464a        JF      MOV      r2,r9
        0x0001b804:    46c8        .F      MOV      r8,r9
        0x0001b806:    46e1        .F      MOV      r9,r12
        0x0001b808:    f8c0212c    ..,!    STR      r2,[r0,#0x12c]
        0x0001b80c:    f04f32ff    O..2    MOV      r2,#0xffffffff
        0x0001b810:    f8c02108    ...!    STR      r2,[r0,#0x108]
        0x0001b814:    e001        ..      B        0x1b81a ; LLF_RND_StartTrngHW + 142
        0x0001b816:    e01d        ..      B        0x1b854 ; LLF_RND_StartTrngHW + 200
        0x0001b818:    e01e        ..      B        0x1b858 ; LLF_RND_StartTrngHW + 204
        0x0001b81a:    f06f0213    o...    MVN      r2,#0x13
        0x0001b81e:    f8c02100    ...!    STR      r2,[r0,#0x100]
        0x0001b822:    f8c0110c    ....    STR      r1,[r0,#0x10c]
        0x0001b826:    f8d00a04    ....    LDR      r0,[r0,#0xa04]
        0x0001b82a:    f4406080    @..`    ORR      r0,r0,#0x400
        0x0001b82e:    f7fffd21    ..!.    BL       CC_HalMaskInterrupt ; 0x1b274
        0x0001b832:    f8d91000    ....    LDR      r1,[r9,#0]
        0x0001b836:    f8c18138    ..8.    STR      r8,[r1,#0x138]
        0x0001b83a:    4630        0F      MOV      r0,r6
        0x0001b83c:    f000f81a    ....    BL       LLF_RND_TRNG_EnableRngSourceAndWatchdog ; 0x1b874
        0x0001b840:    7820         x      LDRB     r0,[r4,#0]
        0x0001b842:    70e8        .p      STRB     r0,[r5,#3]
        0x0001b844:    6828        (h      LDR      r0,[r5,#0]
        0x0001b846:    6821        !h      LDR      r1,[r4,#0]
        0x0001b848:    ea402001    @..     ORR      r0,r0,r1,LSL #8
        0x0001b84c:    6028        (`      STR      r0,[r5,#0]
        0x0001b84e:    4638        8F      MOV      r0,r7
        0x0001b850:    e8bd87f0    ....    POP      {r4-r10,pc}
        0x0001b854:    4806        .H      LDR      r0,[pc,#24] ; [0x1b870] = 0xf10c35
        0x0001b856:    e7fb        ..      B        0x1b850 ; LLF_RND_StartTrngHW + 196
        0x0001b858:    4805        .H      LDR      r0,[pc,#20] ; [0x1b870] = 0xf10c35
        0x0001b85a:    1f00        ..      SUBS     r0,r0,#4
        0x0001b85c:    e7f8        ..      B        0x1b850 ; LLF_RND_StartTrngHW + 196
        0x0001b85e:    2103        .!      MOVS     r1,#3
        0x0001b860:    e7bb        ..      B        0x1b7da ; LLF_RND_StartTrngHW + 78
        0x0001b862:    2102        .!      MOVS     r1,#2
        0x0001b864:    e7b9        ..      B        0x1b7da ; LLF_RND_StartTrngHW + 78
        0x0001b866:    2101        .!      MOVS     r1,#1
        0x0001b868:    e7b7        ..      B        0x1b7da ; LLF_RND_StartTrngHW + 78
    $d
        0x0001b86a:    0000        ..      DCW    0
        0x0001b86c:    10000008    ....    DCD    268435464
        0x0001b870:    00f10c35    5...    DCD    15797301
    $t
    i.LLF_RND_TRNG_EnableRngSourceAndWatchdog
    LLF_RND_TRNG_EnableRngSourceAndWatchdog
        0x0001b874:    8b00        ..      LDRH     r0,[r0,#0x18]
        0x0001b876:    eb000040    ..@.    ADD      r0,r0,r0,LSL #1
        0x0001b87a:    0400        ..      LSLS     r0,r0,#16
        0x0001b87c:    0981        ..      LSRS     r1,r0,#6
        0x0001b87e:    4804        .H      LDR      r0,[pc,#16] ; [0x1b890] = 0x10000008
        0x0001b880:    6800        .h      LDR      r0,[r0,#0]
        0x0001b882:    f8c011d8    ....    STR      r1,[r0,#0x1d8]
        0x0001b886:    2101        .!      MOVS     r1,#1
        0x0001b888:    f8c0112c    ..,.    STR      r1,[r0,#0x12c]
        0x0001b88c:    4770        pG      BX       lr
    $d
        0x0001b88e:    0000        ..      DCW    0
        0x0001b890:    10000008    ....    DCD    268435464
    $t
    i.LLF_RND_TRNG_ReadEhrData
    LLF_RND_TRNG_ReadEhrData
        0x0001b894:    b538        8.      PUSH     {r3-r5,lr}
        0x0001b896:    4604        .F      MOV      r4,r0
        0x0001b898:    2000        .       MOVS     r0,#0
        0x0001b89a:    9000        ..      STR      r0,[sp,#0]
        0x0001b89c:    460d        .F      MOV      r5,r1
        0x0001b89e:    4668        hF      MOV      r0,sp
        0x0001b8a0:    f000f838    ..8.    BL       LLF_RND_WaitRngInterrupt ; 0x1b914
        0x0001b8a4:    2800        .(      CMP      r0,#0
        0x0001b8a6:    d11e        ..      BNE      0x1b8e6 ; LLF_RND_TRNG_ReadEhrData + 82
        0x0001b8a8:    9900        ..      LDR      r1,[sp,#0]
        0x0001b8aa:    480f        .H      LDR      r0,[pc,#60] ; [0x1b8e8] = 0xf10c31
        0x0001b8ac:    07ca        ..      LSLS     r2,r1,#31
        0x0001b8ae:    d000        ..      BEQ      0x1b8b2 ; LLF_RND_TRNG_ReadEhrData + 30
        0x0001b8b0:    2000        .       MOVS     r0,#0
        0x0001b8b2:    ea150f91    ....    TST      r5,r1,LSR #2
        0x0001b8b6:    d001        ..      BEQ      0x1b8bc ; LLF_RND_TRNG_ReadEhrData + 40
        0x0001b8b8:    480b        .H      LDR      r0,[pc,#44] ; [0x1b8e8] = 0xf10c31
        0x0001b8ba:    382f        /8      SUBS     r0,r0,#0x2f
        0x0001b8bc:    4a0b        .J      LDR      r2,[pc,#44] ; [0x1b8ec] = 0x10000008
        0x0001b8be:    f04f31ff    O..1    MOV      r1,#0xffffffff
        0x0001b8c2:    6813        .h      LDR      r3,[r2,#0]
        0x0001b8c4:    f8c31108    ....    STR      r1,[r3,#0x108]
        0x0001b8c8:    2800        .(      CMP      r0,#0
        0x0001b8ca:    d10c        ..      BNE      0x1b8e6 ; LLF_RND_TRNG_ReadEhrData + 82
        0x0001b8cc:    2100        .!      MOVS     r1,#0
        0x0001b8ce:    6813        .h      LDR      r3,[r2,#0]
        0x0001b8d0:    eb030381    ....    ADD      r3,r3,r1,LSL #2
        0x0001b8d4:    f8d33114    ...1    LDR      r3,[r3,#0x114]
        0x0001b8d8:    1c49        I.      ADDS     r1,r1,#1
        0x0001b8da:    c408        ..      STM      r4!,{r3}
        0x0001b8dc:    2906        .)      CMP      r1,#6
        0x0001b8de:    d3f6        ..      BCC      0x1b8ce ; LLF_RND_TRNG_ReadEhrData + 58
        0x0001b8e0:    6811        .h      LDR      r1,[r2,#0]
        0x0001b8e2:    f8d11104    ....    LDR      r1,[r1,#0x104]
        0x0001b8e6:    bd38        8.      POP      {r3-r5,pc}
    $d
        0x0001b8e8:    00f10c31    1...    DCD    15797297
        0x0001b8ec:    10000008    ....    DCD    268435464
    $t
    i.LLF_RND_TurnOffTrng
    LLF_RND_TurnOffTrng
        0x0001b8f0:    4807        .H      LDR      r0,[pc,#28] ; [0x1b910] = 0x10000008
        0x0001b8f2:    2100        .!      MOVS     r1,#0
        0x0001b8f4:    6800        .h      LDR      r0,[r0,#0]
        0x0001b8f6:    f8c0112c    ..,.    STR      r1,[r0,#0x12c]
        0x0001b8fa:    f8c011c4    ....    STR      r1,[r0,#0x1c4]
        0x0001b8fe:    f44f6180    O..a    MOV      r1,#0x400
        0x0001b902:    f8c01a08    ....    STR      r1,[r0,#0xa08]
        0x0001b906:    f04f31ff    O..1    MOV      r1,#0xffffffff
        0x0001b90a:    f8c01108    ....    STR      r1,[r0,#0x108]
        0x0001b90e:    4770        pG      BX       lr
    $d
        0x0001b910:    10000008    ....    DCD    268435464
    $t
    i.LLF_RND_WaitRngInterrupt
    LLF_RND_WaitRngInterrupt
        0x0001b914:    b570        p.      PUSH     {r4-r6,lr}
        0x0001b916:    4605        .F      MOV      r5,r0
        0x0001b918:    f44f6480    O..d    MOV      r4,#0x400
        0x0001b91c:    4620         F      MOV      r0,r4
        0x0001b91e:    f7fffcc3    ....    BL       CC_HalWaitInterruptRND ; 0x1b2a8
        0x0001b922:    490c        .I      LDR      r1,[pc,#48] ; [0x1b954] = 0x10000008
        0x0001b924:    2200        ."      MOVS     r2,#0
        0x0001b926:    b128        (.      CBZ      r0,0x1b934 ; LLF_RND_WaitRngInterrupt + 32
        0x0001b928:    6809        .h      LDR      r1,[r1,#0]
        0x0001b92a:    f8c121c8    ...!    STR      r2,[r1,#0x1c8]
        0x0001b92e:    f8c1212c    ..,!    STR      r2,[r1,#0x12c]
        0x0001b932:    bd70        p.      POP      {r4-r6,pc}
        0x0001b934:    6808        .h      LDR      r0,[r1,#0]
        0x0001b936:    f8c021c8    ...!    STR      r2,[r0,#0x1c8]
        0x0001b93a:    f8c0212c    ..,!    STR      r2,[r0,#0x12c]
        0x0001b93e:    f8d00104    ....    LDR      r0,[r0,#0x104]
        0x0001b942:    6028        (`      STR      r0,[r5,#0]
        0x0001b944:    6809        .h      LDR      r1,[r1,#0]
        0x0001b946:    f8c10108    ....    STR      r0,[r1,#0x108]
        0x0001b94a:    f8c14a08    ...J    STR      r4,[r1,#0xa08]
        0x0001b94e:    4610        .F      MOV      r0,r2
        0x0001b950:    bd70        p.      POP      {r4-r6,pc}
    $d
        0x0001b952:    0000        ..      DCW    0
        0x0001b954:    10000008    ....    DCD    268435464
    $t
    i.LoadAesKey
    LoadAesKey
        0x0001b958:    e92d43f8    -..C    PUSH     {r3-r9,lr}
        0x0001b95c:    0004        ..      MOVS     r4,r0
        0x0001b95e:    d011        ..      BEQ      0x1b984 ; LoadAesKey + 44
        0x0001b960:    4e54        TN      LDR      r6,[pc,#336] ; [0x1bab4] = 0x10000008
        0x0001b962:    4f53        SO      LDR      r7,[pc,#332] ; [0x1bab0] = 0xf10008
        0x0001b964:    6be1        .k      LDR      r1,[r4,#0x3c]
        0x0001b966:    2200        ."      MOVS     r2,#0
        0x0001b968:    2501        .%      MOVS     r5,#1
        0x0001b96a:    6830        0h      LDR      r0,[r6,#0]
        0x0001b96c:    f1070801    ....    ADD      r8,r7,#1
        0x0001b970:    f1a70901    ....    SUB      r9,r7,#1
        0x0001b974:    2907        .)      CMP      r1,#7
        0x0001b976:    d27d        }.      BCS      0x1ba74 ; LoadAesKey + 284
        0x0001b978:    e8dff001    ....    TBB      [pc,r1]
    $d
        0x0001b97c:    94450829    ).E.    DCD    2487552041
        0x0001b980:    00919467    g...    DCD    9540711
    $t
        0x0001b984:    f44f0071    O.q.    MOV      r0,#0xf10000
        0x0001b988:    e8bd83f8    ....    POP      {r3-r9,pc}
        0x0001b98c:    6921        !i      LDR      r1,[r4,#0x10]
        0x0001b98e:    f8c01400    ....    STR      r1,[r0,#0x400]
        0x0001b992:    6961        ai      LDR      r1,[r4,#0x14]
        0x0001b994:    f8c01404    ....    STR      r1,[r0,#0x404]
        0x0001b998:    69a1        .i      LDR      r1,[r4,#0x18]
        0x0001b99a:    f8c01408    ....    STR      r1,[r0,#0x408]
        0x0001b99e:    69e1        .i      LDR      r1,[r4,#0x1c]
        0x0001b9a0:    f8c0140c    ....    STR      r1,[r0,#0x40c]
        0x0001b9a4:    6b21        !k      LDR      r1,[r4,#0x30]
        0x0001b9a6:    2901        .)      CMP      r1,#1
        0x0001b9a8:    d001        ..      BEQ      0x1b9ae ; LoadAesKey + 86
        0x0001b9aa:    2902        .)      CMP      r1,#2
        0x0001b9ac:    d11b        ..      BNE      0x1b9e6 ; LoadAesKey + 142
        0x0001b9ae:    6a21        !j      LDR      r1,[r4,#0x20]
        0x0001b9b0:    f8c01410    ....    STR      r1,[r0,#0x410]
        0x0001b9b4:    6a61        aj      LDR      r1,[r4,#0x24]
        0x0001b9b6:    f8c01414    ....    STR      r1,[r0,#0x414]
        0x0001b9ba:    6b21        !k      LDR      r1,[r4,#0x30]
        0x0001b9bc:    2902        .)      CMP      r1,#2
        0x0001b9be:    d112        ..      BNE      0x1b9e6 ; LoadAesKey + 142
        0x0001b9c0:    6aa1        .j      LDR      r1,[r4,#0x28]
        0x0001b9c2:    f8c01418    ....    STR      r1,[r0,#0x418]
        0x0001b9c6:    6ae1        .j      LDR      r1,[r4,#0x2c]
        0x0001b9c8:    f8c0141c    ....    STR      r1,[r0,#0x41c]
        0x0001b9cc:    e00b        ..      B        0x1b9e6 ; LoadAesKey + 142
        0x0001b9ce:    f6417214    A..r    MOV      r2,#0x1f14
        0x0001b9d2:    5812        .X      LDR      r2,[r2,r0]
        0x0001b9d4:    f3c22200    ..."    UBFX     r2,r2,#8,#1
        0x0001b9d8:    b102        ..      CBZ      r2,0x1b9dc ; LoadAesKey + 132
        0x0001b9da:    2201        ."      MOVS     r2,#1
        0x0001b9dc:    bb8a        ..      CBNZ     r2,0x1ba42 ; LoadAesKey + 234
        0x0001b9de:    f8c01a38    ..8.    STR      r1,[r0,#0xa38]
        0x0001b9e2:    f8c05478    ..xT    STR      r5,[r0,#0x478]
        0x0001b9e6:    6be0        .k      LDR      r0,[r4,#0x3c]
        0x0001b9e8:    2801        .(      CMP      r0,#1
        0x0001b9ea:    d05e        ^.      BEQ      0x1baaa ; LoadAesKey + 338
        0x0001b9ec:    6830        0h      LDR      r0,[r6,#0]
        0x0001b9ee:    f5005080    ...P    ADD      r0,r0,#0x1000
        0x0001b9f2:    f8d00e34    ..4.    LDR      r0,[r0,#0xe34]
        0x0001b9f6:    f0100001    ....    ANDS     r0,r0,#1
        0x0001b9fa:    d000        ..      BEQ      0x1b9fe ; LoadAesKey + 166
        0x0001b9fc:    2001        .       MOVS     r0,#1
        0x0001b9fe:    b3d0        ..      CBZ      r0,0x1ba76 ; LoadAesKey + 286
        0x0001ba00:    482b        +H      LDR      r0,[pc,#172] ; [0x1bab0] = 0xf10008
        0x0001ba02:    1c80        ..      ADDS     r0,r0,#2
        0x0001ba04:    e7c0        ..      B        0x1b988 ; LoadAesKey + 48
        0x0001ba06:    4669        iF      MOV      r1,sp
        0x0001ba08:    2021        !       MOVS     r0,#0x21
        0x0001ba0a:    9200        ..      STR      r2,[sp,#0]
        0x0001ba0c:    f001fcde    ....    BL       mbedtls_mng_otpWordRead ; 0x1d3cc
        0x0001ba10:    bb90        ..      CBNZ     r0,0x1ba78 ; LoadAesKey + 288
        0x0001ba12:    9800        ..      LDR      r0,[sp,#0]
        0x0001ba14:    f3c030c0    ...0    UBFX     r0,r0,#15,#1
        0x0001ba18:    b160        `.      CBZ      r0,0x1ba34 ; LoadAesKey + 220
        0x0001ba1a:    2000        .       MOVS     r0,#0
        0x0001ba1c:    b360        `.      CBZ      r0,0x1ba78 ; LoadAesKey + 288
        0x0001ba1e:    6830        0h      LDR      r0,[r6,#0]
        0x0001ba20:    f5005180    ...Q    ADD      r1,r0,#0x1000
        0x0001ba24:    f8d12e34    ..4.    LDR      r2,[r1,#0xe34]
        0x0001ba28:    f3c202c0    ....    UBFX     r2,r2,#3,#1
        0x0001ba2c:    b102        ..      CBZ      r2,0x1ba30 ; LoadAesKey + 216
        0x0001ba2e:    2201        ."      MOVS     r2,#1
        0x0001ba30:    bb2a        *.      CBNZ     r2,0x1ba7e ; LoadAesKey + 294
        0x0001ba32:    e001        ..      B        0x1ba38 ; LoadAesKey + 224
        0x0001ba34:    2001        .       MOVS     r0,#1
        0x0001ba36:    e7f1        ..      B        0x1ba1c ; LoadAesKey + 196
        0x0001ba38:    f8d11f14    ....    LDR      r1,[r1,#0xf14]
        0x0001ba3c:    f3c12140    ..@!    UBFX     r1,r1,#9,#1
        0x0001ba40:    e027        '.      B        0x1ba92 ; LoadAesKey + 314
        0x0001ba42:    e000        ..      B        0x1ba46 ; LoadAesKey + 238
        0x0001ba44:    b349        I.      CBZ      r1,0x1ba9a ; LoadAesKey + 322
        0x0001ba46:    4638        8F      MOV      r0,r7
        0x0001ba48:    e79e        ..      B        0x1b988 ; LoadAesKey + 48
        0x0001ba4a:    4669        iF      MOV      r1,sp
        0x0001ba4c:    2010        .       MOVS     r0,#0x10
        0x0001ba4e:    9200        ..      STR      r2,[sp,#0]
        0x0001ba50:    f001fcbc    ....    BL       mbedtls_mng_otpWordRead ; 0x1d3cc
        0x0001ba54:    b980        ..      CBNZ     r0,0x1ba78 ; LoadAesKey + 288
        0x0001ba56:    9800        ..      LDR      r0,[sp,#0]
        0x0001ba58:    f3c030c0    ...0    UBFX     r0,r0,#15,#1
        0x0001ba5c:    b188        ..      CBZ      r0,0x1ba82 ; LoadAesKey + 298
        0x0001ba5e:    2000        .       MOVS     r0,#0
        0x0001ba60:    b150        P.      CBZ      r0,0x1ba78 ; LoadAesKey + 288
        0x0001ba62:    6830        0h      LDR      r0,[r6,#0]
        0x0001ba64:    f5005180    ...Q    ADD      r1,r0,#0x1000
        0x0001ba68:    f8d12e34    ..4.    LDR      r2,[r1,#0xe34]
        0x0001ba6c:    f3c20240    ..@.    UBFX     r2,r2,#1,#1
        0x0001ba70:    b122        ".      CBZ      r2,0x1ba7c ; LoadAesKey + 292
        0x0001ba72:    e002        ..      B        0x1ba7a ; LoadAesKey + 290
        0x0001ba74:    e016        ..      B        0x1baa4 ; LoadAesKey + 332
        0x0001ba76:    e018        ..      B        0x1baaa ; LoadAesKey + 338
        0x0001ba78:    e005        ..      B        0x1ba86 ; LoadAesKey + 302
        0x0001ba7a:    2201        ."      MOVS     r2,#1
        0x0001ba7c:    b12a        *.      CBZ      r2,0x1ba8a ; LoadAesKey + 306
        0x0001ba7e:    4648        HF      MOV      r0,r9
        0x0001ba80:    e782        ..      B        0x1b988 ; LoadAesKey + 48
        0x0001ba82:    2001        .       MOVS     r0,#1
        0x0001ba84:    e7ec        ..      B        0x1ba60 ; LoadAesKey + 264
        0x0001ba86:    4640        @F      MOV      r0,r8
        0x0001ba88:    e77e        ~.      B        0x1b988 ; LoadAesKey + 48
        0x0001ba8a:    f8d11f14    ....    LDR      r1,[r1,#0xf14]
        0x0001ba8e:    f3c121c0    ...!    UBFX     r1,r1,#11,#1
        0x0001ba92:    2900        .)      CMP      r1,#0
        0x0001ba94:    d0d6        ..      BEQ      0x1ba44 ; LoadAesKey + 236
        0x0001ba96:    2101        .!      MOVS     r1,#1
        0x0001ba98:    e7d4        ..      B        0x1ba44 ; LoadAesKey + 236
        0x0001ba9a:    6be1        .k      LDR      r1,[r4,#0x3c]
        0x0001ba9c:    e79f        ..      B        0x1b9de ; LoadAesKey + 134
        0x0001ba9e:    f8c05a38    ..8Z    STR      r5,[r0,#0xa38]
        0x0001baa2:    e79e        ..      B        0x1b9e2 ; LoadAesKey + 138
        0x0001baa4:    4802        .H      LDR      r0,[pc,#8] ; [0x1bab0] = 0xf10008
        0x0001baa6:    1fc0        ..      SUBS     r0,r0,#7
        0x0001baa8:    e76e        n.      B        0x1b988 ; LoadAesKey + 48
        0x0001baaa:    2000        .       MOVS     r0,#0
        0x0001baac:    e76c        l.      B        0x1b988 ; LoadAesKey + 48
    $d
        0x0001baae:    0000        ..      DCW    0
        0x0001bab0:    00f10008    ....    DCD    15794184
        0x0001bab4:    10000008    ....    DCD    268435464
    $t
    i.LoadIVState
    LoadIVState
        0x0001bab8:    b150        P.      CBZ      r0,0x1bad0 ; LoadIVState + 24
        0x0001baba:    4915        .I      LDR      r1,[pc,#84] ; [0x1bb10] = 0x10000008
        0x0001babc:    6b42        Bk      LDR      r2,[r0,#0x34]
        0x0001babe:    6809        .h      LDR      r1,[r1,#0]
        0x0001bac0:    2a08        .*      CMP      r2,#8
        0x0001bac2:    d223        #.      BCS      0x1bb0c ; LoadIVState + 84
        0x0001bac4:    e8dff002    ....    TBB      [pc,r2]
    $d
        0x0001bac8:    14071420     ...    DCD    336008224
        0x0001bacc:    14072222    ""..    DCD    336011810
    $t
        0x0001bad0:    f44f0071    O.q.    MOV      r0,#0xf10000
        0x0001bad4:    4770        pG      BX       lr
        0x0001bad6:    6802        .h      LDR      r2,[r0,#0]
        0x0001bad8:    f8c12460    ..`$    STR      r2,[r1,#0x460]
        0x0001badc:    6842        Bh      LDR      r2,[r0,#4]
        0x0001bade:    f8c12464    ..d$    STR      r2,[r1,#0x464]
        0x0001bae2:    6882        .h      LDR      r2,[r0,#8]
        0x0001bae4:    f8c12468    ..h$    STR      r2,[r1,#0x468]
        0x0001bae8:    68c0        .h      LDR      r0,[r0,#0xc]
        0x0001baea:    f8c1046c    ..l.    STR      r0,[r1,#0x46c]
        0x0001baee:    e00b        ..      B        0x1bb08 ; LoadIVState + 80
        0x0001baf0:    6802        .h      LDR      r2,[r0,#0]
        0x0001baf2:    f8c12440    ..@$    STR      r2,[r1,#0x440]
        0x0001baf6:    6842        Bh      LDR      r2,[r0,#4]
        0x0001baf8:    f8c12444    ..D$    STR      r2,[r1,#0x444]
        0x0001bafc:    6882        .h      LDR      r2,[r0,#8]
        0x0001bafe:    f8c12448    ..H$    STR      r2,[r1,#0x448]
        0x0001bb02:    68c0        .h      LDR      r0,[r0,#0xc]
        0x0001bb04:    f8c1044c    ..L.    STR      r0,[r1,#0x44c]
        0x0001bb08:    2000        .       MOVS     r0,#0
        0x0001bb0a:    4770        pG      BX       lr
        0x0001bb0c:    4801        .H      LDR      r0,[pc,#4] ; [0x1bb14] = 0xf10001
        0x0001bb0e:    4770        pG      BX       lr
    $d
        0x0001bb10:    10000008    ....    DCD    268435464
        0x0001bb14:    00f10001    ....    DCD    15794177
    $t
    i.ProcessAesDrv
    ProcessAesDrv
        0x0001bb18:    e92d5ff0    -.._    PUSH     {r4-r12,lr}
        0x0001bb1c:    461d        .F      MOV      r5,r3
        0x0001bb1e:    4617        .F      MOV      r7,r2
        0x0001bb20:    ea5f0801    _...    MOVS     r8,r1
        0x0001bb24:    4606        .F      MOV      r6,r0
        0x0001bb26:    f04f0a00    O...    MOV      r10,#0
        0x0001bb2a:    d006        ..      BEQ      0x1bb3a ; ProcessAesDrv + 34
        0x0001bb2c:    b12f        /.      CBZ      r7,0x1bb3a ; ProcessAesDrv + 34
        0x0001bb2e:    b13e        >.      CBZ      r6,0x1bb40 ; ProcessAesDrv + 40
        0x0001bb30:    6cb0        .l      LDR      r0,[r6,#0x48]
        0x0001bb32:    b140        @.      CBZ      r0,0x1bb46 ; ProcessAesDrv + 46
        0x0001bb34:    2801        .(      CMP      r0,#1
        0x0001bb36:    d00a        ..      BEQ      0x1bb4e ; ProcessAesDrv + 54
        0x0001bb38:    e00f        ..      B        0x1bb5a ; ProcessAesDrv + 66
        0x0001bb3a:    4844        DH      LDR      r0,[pc,#272] ; [0x1bc4c] = 0xf1000b
        0x0001bb3c:    e8bd9ff0    ....    POP      {r4-r12,pc}
        0x0001bb40:    f44f0071    O.q.    MOV      r0,#0xf10000
        0x0001bb44:    e7fa        ..      B        0x1bb3c ; ProcessAesDrv + 36
        0x0001bb46:    f5b55f80    ..._    CMP      r5,#0x1000
        0x0001bb4a:    d203        ..      BCS      0x1bb54 ; ProcessAesDrv + 60
        0x0001bb4c:    e005        ..      B        0x1bb5a ; ProcessAesDrv + 66
        0x0001bb4e:    f5b53f80    ...?    CMP      r5,#0x10000
        0x0001bb52:    d302        ..      BCC      0x1bb5a ; ProcessAesDrv + 66
        0x0001bb54:    483d        =H      LDR      r0,[pc,#244] ; [0x1bc4c] = 0xf1000b
        0x0001bb56:    1f80        ..      SUBS     r0,r0,#6
        0x0001bb58:    e7f0        ..      B        0x1bb3c ; ProcessAesDrv + 36
        0x0001bb5a:    f04f31ff    O..1    MOV      r1,#0xffffffff
        0x0001bb5e:    483c        <H      LDR      r0,[pc,#240] ; [0x1bc50] = 0x10000000
        0x0001bb60:    f7fffc64    ..d.    BL       CC_PalMutexLock ; 0x1b42c
        0x0001bb64:    b110        ..      CBZ      r0,0x1bb6c ; ProcessAesDrv + 84
        0x0001bb66:    a03b        ;.      ADR      r0,{pc}+0xee ; 0x1bc54
        0x0001bb68:    f7fffc3e    ..>.    BL       CC_PalAbort ; 0x1b3e8
        0x0001bb6c:    2000        .       MOVS     r0,#0
        0x0001bb6e:    f7fffc62    ..b.    BL       CC_PalPowerSaveModeSelect ; 0x1b436
        0x0001bb72:    b110        ..      CBZ      r0,0x1bb7a ; ProcessAesDrv + 98
        0x0001bb74:    a03d        =.      ADR      r0,{pc}+0xf8 ; 0x1bc6c
        0x0001bb76:    f7fffc37    ..7.    BL       CC_PalAbort ; 0x1b3e8
        0x0001bb7a:    f8df9110    ....    LDR      r9,[pc,#272] ; [0x1bc8c] = 0x10000008
        0x0001bb7e:    f04f0b01    O...    MOV      r11,#1
        0x0001bb82:    f8d90000    ....    LDR      r0,[r9,#0]
        0x0001bb86:    f8c0b810    ....    STR      r11,[r0,#0x810]
        0x0001bb8a:    f8c0b820    .. .    STR      r11,[r0,#0x820]
        0x0001bb8e:    4630        0F      MOV      r0,r6
        0x0001bb90:    f7fffc88    ....    BL       InitAes ; 0x1b4a4
        0x0001bb94:    0004        ..      MOVS     r4,r0
        0x0001bb96:    d141        A.      BNE      0x1bc1c ; ProcessAesDrv + 260
        0x0001bb98:    4630        0F      MOV      r0,r6
        0x0001bb9a:    f7fffedd    ....    BL       LoadAesKey ; 0x1b958
        0x0001bb9e:    0004        ..      MOVS     r4,r0
        0x0001bba0:    d13c        <.      BNE      0x1bc1c ; ProcessAesDrv + 260
        0x0001bba2:    4630        0F      MOV      r0,r6
        0x0001bba4:    f7ffff88    ....    BL       LoadIVState ; 0x1bab8
        0x0001bba8:    0004        ..      MOVS     r4,r0
        0x0001bbaa:    d137        7.      BNE      0x1bc1c ; ProcessAesDrv + 260
        0x0001bbac:    f8980004    ....    LDRB     r0,[r8,#4]
        0x0001bbb0:    4653        SF      MOV      r3,r10
        0x0001bbb2:    f3600341    `.A.    BFI      r3,r0,#1,#1
        0x0001bbb6:    7938        8y      LDRB     r0,[r7,#4]
        0x0001bbb8:    f8d82000    ...     LDR      r2,[r8,#0]
        0x0001bbbc:    f3600300    `...    BFI      r3,r0,#0,#1
        0x0001bbc0:    f8d90000    ....    LDR      r0,[r9,#0]
        0x0001bbc4:    6839        9h      LDR      r1,[r7,#0]
        0x0001bbc6:    f8c03b0c    ...;    STR      r3,[r0,#0xb0c]
        0x0001bbca:    6b73        sk      LDR      r3,[r6,#0x34]
        0x0001bbcc:    2b03        .+      CMP      r3,#3
        0x0001bbce:    d008        ..      BEQ      0x1bbe2 ; ProcessAesDrv + 202
        0x0001bbd0:    2b07        .+      CMP      r3,#7
        0x0001bbd2:    d006        ..      BEQ      0x1bbe2 ; ProcessAesDrv + 202
        0x0001bbd4:    6cf3        .l      LDR      r3,[r6,#0x4c]
        0x0001bbd6:    2b01        .+      CMP      r3,#1
        0x0001bbd8:    d011        ..      BEQ      0x1bbfe ; ProcessAesDrv + 230
        0x0001bbda:    f8c01d30    ..0.    STR      r1,[r0,#0xd30]
        0x0001bbde:    f8c05d34    ..4]    STR      r5,[r0,#0xd34]
        0x0001bbe2:    6cb1        .l      LDR      r1,[r6,#0x48]
        0x0001bbe4:    2901        .)      CMP      r1,#1
        0x0001bbe6:    d00f        ..      BEQ      0x1bc08 ; ProcessAesDrv + 240
        0x0001bbe8:    f8c02c30    ..0,    STR      r2,[r0,#0xc30]
        0x0001bbec:    f8c05c34    ..4\    STR      r5,[r0,#0xc34]
        0x0001bbf0:    f44f6000    O..`    MOV      r0,#0x800
        0x0001bbf4:    f7fffb52    ..R.    BL       CC_HalWaitInterrupt ; 0x1b29c
        0x0001bbf8:    0004        ..      MOVS     r4,r0
        0x0001bbfa:    d10f        ..      BNE      0x1bc1c ; ProcessAesDrv + 260
        0x0001bbfc:    e009        ..      B        0x1bc12 ; ProcessAesDrv + 250
        0x0001bbfe:    f8c01d28    ..(.    STR      r1,[r0,#0xd28]
        0x0001bc02:    f8c05d2c    ..,]    STR      r5,[r0,#0xd2c]
        0x0001bc06:    e7ec        ..      B        0x1bbe2 ; ProcessAesDrv + 202
        0x0001bc08:    f8c02c28    ..(,    STR      r2,[r0,#0xc28]
        0x0001bc0c:    f8c05c2c    ..,\    STR      r5,[r0,#0xc2c]
        0x0001bc10:    e7ee        ..      B        0x1bbf0 ; ProcessAesDrv + 216
        0x0001bc12:    4630        0F      MOV      r0,r6
        0x0001bc14:    f000f92c    ..,.    BL       StoreIVState ; 0x1be70
        0x0001bc18:    f8c6b044    ..D.    STR      r11,[r6,#0x44]
        0x0001bc1c:    f8d90000    ....    LDR      r0,[r9,#0]
        0x0001bc20:    2100        .!      MOVS     r1,#0
        0x0001bc22:    f8c01810    ....    STR      r1,[r0,#0x810]
        0x0001bc26:    f8c01820    .. .    STR      r1,[r0,#0x820]
        0x0001bc2a:    2001        .       MOVS     r0,#1
        0x0001bc2c:    f7fffc03    ....    BL       CC_PalPowerSaveModeSelect ; 0x1b436
        0x0001bc30:    b110        ..      CBZ      r0,0x1bc38 ; ProcessAesDrv + 288
        0x0001bc32:    a017        ..      ADR      r0,{pc}+0x5e ; 0x1bc90
        0x0001bc34:    f7fffbd8    ....    BL       CC_PalAbort ; 0x1b3e8
        0x0001bc38:    4805        .H      LDR      r0,[pc,#20] ; [0x1bc50] = 0x10000000
        0x0001bc3a:    f7fffbf9    ....    BL       CC_PalMutexUnlock ; 0x1b430
        0x0001bc3e:    b110        ..      CBZ      r0,0x1bc46 ; ProcessAesDrv + 302
        0x0001bc40:    a01b        ..      ADR      r0,{pc}+0x70 ; 0x1bcb0
        0x0001bc42:    f7fffbd1    ....    BL       CC_PalAbort ; 0x1b3e8
        0x0001bc46:    4620         F      MOV      r0,r4
        0x0001bc48:    e778        x.      B        0x1bb3c ; ProcessAesDrv + 36
    $d
        0x0001bc4a:    0000        ..      DCW    0
        0x0001bc4c:    00f1000b    ....    DCD    15794187
        0x0001bc50:    10000000    ....    DCD    268435456
        0x0001bc54:    6c696146    Fail    DCD    1818845510
        0x0001bc58:    206f7420     to     DCD    544175136
        0x0001bc5c:    75716361    acqu    DCD    1970365281
        0x0001bc60:    20657269    ire     DCD    543519337
        0x0001bc64:    6574756d    mute    DCD    1702131053
        0x0001bc68:    00000a78    x...    DCD    2680
        0x0001bc6c:    6c696146    Fail    DCD    1818845510
        0x0001bc70:    206f7420     to     DCD    544175136
        0x0001bc74:    72636e69    incr    DCD    1919118953
        0x0001bc78:    65736165    ease    DCD    1702060389
        0x0001bc7c:    204d5020     PM     DCD    541937696
        0x0001bc80:    6e756f63    coun    DCD    1853189987
        0x0001bc84:    0a726574    ter.    DCD    175269236
        0x0001bc88:    00000000    ....    DCD    0
        0x0001bc8c:    10000008    ....    DCD    268435464
        0x0001bc90:    6c696146    Fail    DCD    1818845510
        0x0001bc94:    206f7420     to     DCD    544175136
        0x0001bc98:    72636564    decr    DCD    1919116644
        0x0001bc9c:    65736165    ease    DCD    1702060389
        0x0001bca0:    204d5020     PM     DCD    541937696
        0x0001bca4:    6e756f63    coun    DCD    1853189987
        0x0001bca8:    0a726574    ter.    DCD    175269236
        0x0001bcac:    00000000    ....    DCD    0
        0x0001bcb0:    6c696146    Fail    DCD    1818845510
        0x0001bcb4:    206f7420     to     DCD    544175136
        0x0001bcb8:    656c6572    rele    DCD    1701602674
        0x0001bcbc:    20657361    ase     DCD    543519585
        0x0001bcc0:    6574756d    mute    DCD    1702131053
        0x0001bcc4:    00000a78    x...    DCD    2680
    $t
    i.RNG_PLAT_SetUserRngParameters
    RNG_PLAT_SetUserRngParameters
        0x0001bcc8:    b538        8.      PUSH     {r3-r5,lr}
        0x0001bcca:    4604        .F      MOV      r4,r0
        0x0001bccc:    2010        .       MOVS     r0,#0x10
        0x0001bcce:    9000        ..      STR      r0,[sp,#0]
        0x0001bcd0:    4669        iF      MOV      r1,sp
        0x0001bcd2:    4620         F      MOV      r0,r4
        0x0001bcd4:    f7fffbb3    ....    BL       CC_PalTrngParamGet ; 0x1b43e
        0x0001bcd8:    2800        .(      CMP      r0,#0
        0x0001bcda:    d11b        ..      BNE      0x1bd14 ; RNG_PLAT_SetUserRngParameters + 76
        0x0001bcdc:    9800        ..      LDR      r0,[sp,#0]
        0x0001bcde:    2810        .(      CMP      r0,#0x10
        0x0001bce0:    d001        ..      BEQ      0x1bce6 ; RNG_PLAT_SetUserRngParameters + 30
        0x0001bce2:    4d11        .M      LDR      r5,[pc,#68] ; [0x1bd28] = 0xf00c37
        0x0001bce4:    e019        ..      B        0x1bd1a ; RNG_PLAT_SetUserRngParameters + 82
        0x0001bce6:    2001        .       MOVS     r0,#1
        0x0001bce8:    6120         a      STR      r0,[r4,#0x10]
        0x0001bcea:    6820         h      LDR      r0,[r4,#0]
        0x0001bcec:    b100        ..      CBZ      r0,0x1bcf0 ; RNG_PLAT_SetUserRngParameters + 40
        0x0001bcee:    2001        .       MOVS     r0,#1
        0x0001bcf0:    6861        ah      LDR      r1,[r4,#4]
        0x0001bcf2:    b101        ..      CBZ      r1,0x1bcf6 ; RNG_PLAT_SetUserRngParameters + 46
        0x0001bcf4:    2102        .!      MOVS     r1,#2
        0x0001bcf6:    4308        .C      ORRS     r0,r0,r1
        0x0001bcf8:    68a1        .h      LDR      r1,[r4,#8]
        0x0001bcfa:    b101        ..      CBZ      r1,0x1bcfe ; RNG_PLAT_SetUserRngParameters + 54
        0x0001bcfc:    2104        .!      MOVS     r1,#4
        0x0001bcfe:    4308        .C      ORRS     r0,r0,r1
        0x0001bd00:    68e1        .h      LDR      r1,[r4,#0xc]
        0x0001bd02:    b101        ..      CBZ      r1,0x1bd06 ; RNG_PLAT_SetUserRngParameters + 62
        0x0001bd04:    2108        .!      MOVS     r1,#8
        0x0001bd06:    4308        .C      ORRS     r0,r0,r1
        0x0001bd08:    f04f0100    O...    MOV      r1,#0
        0x0001bd0c:    e9c40105    ....    STRD     r0,r1,[r4,#0x14]
        0x0001bd10:    d001        ..      BEQ      0x1bd16 ; RNG_PLAT_SetUserRngParameters + 78
        0x0001bd12:    2000        .       MOVS     r0,#0
        0x0001bd14:    bd38        8.      POP      {r3-r5,pc}
        0x0001bd16:    4d04        .M      LDR      r5,[pc,#16] ; [0x1bd28] = 0xf00c37
        0x0001bd18:    3d29        )=      SUBS     r5,r5,#0x29
        0x0001bd1a:    2110        .!      MOVS     r1,#0x10
        0x0001bd1c:    4620         F      MOV      r0,r4
        0x0001bd1e:    f7fffb81    ....    BL       CC_PalMemSetZeroPlat ; 0x1b424
        0x0001bd22:    4628        (F      MOV      r0,r5
        0x0001bd24:    bd38        8.      POP      {r3-r5,pc}
    $d
        0x0001bd26:    0000        ..      DCW    0
        0x0001bd28:    00f00c37    7...    DCD    15731767
    $t
    i.RndStartupTest
    RndStartupTest
        0x0001bd2c:    b530        0.      PUSH     {r4,r5,lr}
        0x0001bd2e:    b089        ..      SUB      sp,sp,#0x24
        0x0001bd30:    4604        .F      MOV      r4,r0
        0x0001bd32:    4668        hF      MOV      r0,sp
        0x0001bd34:    f7ffffc8    ....    BL       RNG_PLAT_SetUserRngParameters ; 0x1bcc8
        0x0001bd38:    2800        .(      CMP      r0,#0
        0x0001bd3a:    d131        1.      BNE      0x1bda0 ; RndStartupTest + 116
        0x0001bd3c:    4d19        .M      LDR      r5,[pc,#100] ; [0x1bda4] = 0x10000004
        0x0001bd3e:    1e41        A.      SUBS     r1,r0,#1
        0x0001bd40:    6828        (h      LDR      r0,[r5,#0]
        0x0001bd42:    f7fffb73    ..s.    BL       CC_PalMutexLock ; 0x1b42c
        0x0001bd46:    b110        ..      CBZ      r0,0x1bd4e ; RndStartupTest + 34
        0x0001bd48:    a017        ..      ADR      r0,{pc}+0x60 ; 0x1bda8
        0x0001bd4a:    f7fffb4d    ..M.    BL       CC_PalAbort ; 0x1b3e8
        0x0001bd4e:    481c        .H      LDR      r0,[pc,#112] ; [0x1bdc0] = 0x10000008
        0x0001bd50:    6800        .h      LDR      r0,[r0,#0]
        0x0001bd52:    f5005080    ...P    ADD      r0,r0,#0x1000
        0x0001bd56:    f8d00e34    ..4.    LDR      r0,[r0,#0xe34]
        0x0001bd5a:    f0100001    ....    ANDS     r0,r0,#1
        0x0001bd5e:    d000        ..      BEQ      0x1bd62 ; RndStartupTest + 54
        0x0001bd60:    2001        .       MOVS     r0,#1
        0x0001bd62:    b108        ..      CBZ      r0,0x1bd68 ; RndStartupTest + 60
        0x0001bd64:    2405        .$      MOVS     r4,#5
        0x0001bd66:    e013        ..      B        0x1bd90 ; RndStartupTest + 100
        0x0001bd68:    2000        .       MOVS     r0,#0
        0x0001bd6a:    f7fffb64    ..d.    BL       CC_PalPowerSaveModeSelect ; 0x1b436
        0x0001bd6e:    b110        ..      CBZ      r0,0x1bd76 ; RndStartupTest + 74
        0x0001bd70:    a014        ..      ADR      r0,{pc}+0x54 ; 0x1bdc4
        0x0001bd72:    f7fffb39    ..9.    BL       CC_PalAbort ; 0x1b3e8
        0x0001bd76:    4622        "F      MOV      r2,r4
        0x0001bd78:    4669        iF      MOV      r1,sp
        0x0001bd7a:    a807        ..      ADD      r0,sp,#0x1c
        0x0001bd7c:    f7fffd04    ....    BL       LLF_RND_RunTrngStartupTest ; 0x1b788
        0x0001bd80:    4604        .F      MOV      r4,r0
        0x0001bd82:    2001        .       MOVS     r0,#1
        0x0001bd84:    f7fffb57    ..W.    BL       CC_PalPowerSaveModeSelect ; 0x1b436
        0x0001bd88:    b110        ..      CBZ      r0,0x1bd90 ; RndStartupTest + 100
        0x0001bd8a:    a016        ..      ADR      r0,{pc}+0x5a ; 0x1bde4
        0x0001bd8c:    f7fffb2c    ..,.    BL       CC_PalAbort ; 0x1b3e8
        0x0001bd90:    6828        (h      LDR      r0,[r5,#0]
        0x0001bd92:    f7fffb4d    ..M.    BL       CC_PalMutexUnlock ; 0x1b430
        0x0001bd96:    b110        ..      CBZ      r0,0x1bd9e ; RndStartupTest + 114
        0x0001bd98:    a01a        ..      ADR      r0,{pc}+0x6c ; 0x1be04
        0x0001bd9a:    f7fffb25    ..%.    BL       CC_PalAbort ; 0x1b3e8
        0x0001bd9e:    4620         F      MOV      r0,r4
        0x0001bda0:    b009        ..      ADD      sp,sp,#0x24
        0x0001bda2:    bd30        0.      POP      {r4,r5,pc}
    $d
        0x0001bda4:    10000004    ....    DCD    268435460
        0x0001bda8:    6c696146    Fail    DCD    1818845510
        0x0001bdac:    206f7420     to     DCD    544175136
        0x0001bdb0:    75716361    acqu    DCD    1970365281
        0x0001bdb4:    20657269    ire     DCD    543519337
        0x0001bdb8:    6574756d    mute    DCD    1702131053
        0x0001bdbc:    00000a78    x...    DCD    2680
        0x0001bdc0:    10000008    ....    DCD    268435464
        0x0001bdc4:    6c696146    Fail    DCD    1818845510
        0x0001bdc8:    206f7420     to     DCD    544175136
        0x0001bdcc:    72636e69    incr    DCD    1919118953
        0x0001bdd0:    65736165    ease    DCD    1702060389
        0x0001bdd4:    204d5020     PM     DCD    541937696
        0x0001bdd8:    6e756f63    coun    DCD    1853189987
        0x0001bddc:    0a726574    ter.    DCD    175269236
        0x0001bde0:    00000000    ....    DCD    0
        0x0001bde4:    6c696146    Fail    DCD    1818845510
        0x0001bde8:    206f7420     to     DCD    544175136
        0x0001bdec:    72636564    decr    DCD    1919116644
        0x0001bdf0:    65736165    ease    DCD    1702060389
        0x0001bdf4:    204d5020     PM     DCD    541937696
        0x0001bdf8:    6e756f63    coun    DCD    1853189987
        0x0001bdfc:    0a726574    ter.    DCD    175269236
        0x0001be00:    00000000    ....    DCD    0
        0x0001be04:    6c696146    Fail    DCD    1818845510
        0x0001be08:    206f7420     to     DCD    544175136
        0x0001be0c:    656c6572    rele    DCD    1701602674
        0x0001be10:    20657361    ase     DCD    543519585
        0x0001be14:    6574756d    mute    DCD    1702131053
        0x0001be18:    00000a78    x...    DCD    2680
    $t
    i.SetDataBuffersInfo
    SetDataBuffersInfo
        0x0001be1c:    e92d43f8    -..C    PUSH     {r3-r9,lr}
        0x0001be20:    4680        .F      MOV      r8,r0
        0x0001be22:    e9dd9408    ....    LDRD     r9,r4,[sp,#0x20]
        0x0001be26:    2000        .       MOVS     r0,#0
        0x0001be28:    461d        .F      MOV      r5,r3
        0x0001be2a:    4616        .F      MOV      r6,r2
        0x0001be2c:    f88d0000    ....    STRB     r0,[sp,#0]
        0x0001be30:    466b        kF      MOV      r3,sp
        0x0001be32:    2201        ."      MOVS     r2,#1
        0x0001be34:    4640        @F      MOV      r0,r8
        0x0001be36:    f7fffad8    ....    BL       CC_PalDataBufferAttrGet ; 0x1b3ea
        0x0001be3a:    f44f0775    O.u.    MOV      r7,#0xf50000
        0x0001be3e:    b970        p.      CBNZ     r0,0x1be5e ; SetDataBuffersInfo + 66
        0x0001be40:    f8c68000    ....    STR      r8,[r6,#0]
        0x0001be44:    f89d1000    ....    LDRB     r1,[sp,#0]
        0x0001be48:    7131        1q      STRB     r1,[r6,#4]
        0x0001be4a:    2c00        .,      CMP      r4,#0
        0x0001be4c:    d008        ..      BEQ      0x1be60 ; SetDataBuffersInfo + 68
        0x0001be4e:    b14d        M.      CBZ      r5,0x1be64 ; SetDataBuffersInfo + 72
        0x0001be50:    466b        kF      MOV      r3,sp
        0x0001be52:    2200        ."      MOVS     r2,#0
        0x0001be54:    4649        IF      MOV      r1,r9
        0x0001be56:    4628        (F      MOV      r0,r5
        0x0001be58:    f7fffac7    ....    BL       CC_PalDataBufferAttrGet ; 0x1b3ea
        0x0001be5c:    b110        ..      CBZ      r0,0x1be64 ; SetDataBuffersInfo + 72
        0x0001be5e:    4638        8F      MOV      r0,r7
        0x0001be60:    e8bd83f8    ....    POP      {r3-r9,pc}
        0x0001be64:    6025        %`      STR      r5,[r4,#0]
        0x0001be66:    f89d1000    ....    LDRB     r1,[sp,#0]
        0x0001be6a:    7121        !q      STRB     r1,[r4,#4]
        0x0001be6c:    e7f8        ..      B        0x1be60 ; SetDataBuffersInfo + 68
        0x0001be6e:    0000        ..      MOVS     r0,r0
    i.StoreIVState
    StoreIVState
        0x0001be70:    b510        ..      PUSH     {r4,lr}
        0x0001be72:    b150        P.      CBZ      r0,0x1be8a ; StoreIVState + 26
        0x0001be74:    4a15        .J      LDR      r2,[pc,#84] ; [0x1becc] = 0x10000008
        0x0001be76:    6b43        Ck      LDR      r3,[r0,#0x34]
        0x0001be78:    6811        .h      LDR      r1,[r2,#0]
        0x0001be7a:    2b08        .+      CMP      r3,#8
        0x0001be7c:    d224        $.      BCS      0x1bec8 ; StoreIVState + 88
        0x0001be7e:    e8dff003    ....    TBB      [pc,r3]
    $d
        0x0001be82:    1421        !.      DCW    5153
        0x0001be84:    23231407    ..##    DCD    589501447
        0x0001be88:    1407        ..      DCW    5127
    $t
        0x0001be8a:    f44f0071    O.q.    MOV      r0,#0xf10000
        0x0001be8e:    bd10        ..      POP      {r4,pc}
        0x0001be90:    f8d11460    ..`.    LDR      r1,[r1,#0x460]
        0x0001be94:    6001        .`      STR      r1,[r0,#0]
        0x0001be96:    6811        .h      LDR      r1,[r2,#0]
        0x0001be98:    f8d12464    ..d$    LDR      r2,[r1,#0x464]
        0x0001be9c:    6042        B`      STR      r2,[r0,#4]
        0x0001be9e:    f8d12468    ..h$    LDR      r2,[r1,#0x468]
        0x0001bea2:    6082        .`      STR      r2,[r0,#8]
        0x0001bea4:    f8d1146c    ..l.    LDR      r1,[r1,#0x46c]
        0x0001bea8:    e00b        ..      B        0x1bec2 ; StoreIVState + 82
        0x0001beaa:    f8d11440    ..@.    LDR      r1,[r1,#0x440]
        0x0001beae:    6001        .`      STR      r1,[r0,#0]
        0x0001beb0:    6811        .h      LDR      r1,[r2,#0]
        0x0001beb2:    f8d12444    ..D$    LDR      r2,[r1,#0x444]
        0x0001beb6:    6042        B`      STR      r2,[r0,#4]
        0x0001beb8:    f8d12448    ..H$    LDR      r2,[r1,#0x448]
        0x0001bebc:    6082        .`      STR      r2,[r0,#8]
        0x0001bebe:    f8d1144c    ..L.    LDR      r1,[r1,#0x44c]
        0x0001bec2:    60c1        .`      STR      r1,[r0,#0xc]
        0x0001bec4:    2000        .       MOVS     r0,#0
        0x0001bec6:    bd10        ..      POP      {r4,pc}
        0x0001bec8:    4801        .H      LDR      r0,[pc,#4] ; [0x1bed0] = 0xf10001
        0x0001beca:    bd10        ..      POP      {r4,pc}
    $d
        0x0001becc:    10000008    ....    DCD    268435464
        0x0001bed0:    00f10001    ....    DCD    15794177
    $t
    i.VerifyCidVal
    VerifyCidVal
        0x0001bed4:    b500        ..      PUSH     {lr}
        0x0001bed6:    b089        ..      SUB      sp,sp,#0x24
        0x0001bed8:    2000        .       MOVS     r0,#0
        0x0001beda:    9001        ..      STR      r0,[sp,#4]
        0x0001bedc:    9002        ..      STR      r0,[sp,#8]
        0x0001bede:    9003        ..      STR      r0,[sp,#0xc]
        0x0001bee0:    480e        .H      LDR      r0,[pc,#56] ; [0x1bf1c] = 0x1db10
        0x0001bee2:    f10d0c10    ....    ADD      r12,sp,#0x10
        0x0001bee6:    c80f        ..      LDM      r0,{r0-r3}
        0x0001bee8:    e88c000f    ....    STM      r12,{r0-r3}
        0x0001beec:    480c        .H      LDR      r0,[pc,#48] ; [0x1bf20] = 0x10000008
        0x0001beee:    6800        .h      LDR      r0,[r0,#0]
        0x0001bef0:    f8d01ff0    ....    LDR      r1,[r0,#0xff0]
        0x0001bef4:    9100        ..      STR      r1,[sp,#0]
        0x0001bef6:    f8d01ff4    ....    LDR      r1,[r0,#0xff4]
        0x0001befa:    9101        ..      STR      r1,[sp,#4]
        0x0001befc:    f8d01ff8    ....    LDR      r1,[r0,#0xff8]
        0x0001bf00:    9102        ..      STR      r1,[sp,#8]
        0x0001bf02:    f8d00ffc    ....    LDR      r0,[r0,#0xffc]
        0x0001bf06:    9003        ..      STR      r0,[sp,#0xc]
        0x0001bf08:    2210        ."      MOVS     r2,#0x10
        0x0001bf0a:    4669        iF      MOV      r1,sp
        0x0001bf0c:    a804        ..      ADD      r0,sp,#0x10
        0x0001bf0e:    f7fffa7d    ..}.    BL       CC_PalMemCmpPlat ; 0x1b40c
        0x0001bf12:    2800        .(      CMP      r0,#0
        0x0001bf14:    d000        ..      BEQ      0x1bf18 ; VerifyCidVal + 68
        0x0001bf16:    2007        .       MOVS     r0,#7
        0x0001bf18:    b009        ..      ADD      sp,sp,#0x24
        0x0001bf1a:    bd00        ..      POP      {pc}
    $d
        0x0001bf1c:    0001db10    ....    DCD    121616
        0x0001bf20:    10000008    ....    DCD    268435464
    $t
    i.VerifyPidVal
    VerifyPidVal
        0x0001bf24:    b500        ..      PUSH     {lr}
        0x0001bf26:    b08f        ..      SUB      sp,sp,#0x3c
        0x0001bf28:    2114        .!      MOVS     r1,#0x14
        0x0001bf2a:    4668        hF      MOV      r0,sp
        0x0001bf2c:    f7fcfafc    ....    BL       __aeabi_memclr4 ; 0x18528
        0x0001bf30:    2214        ."      MOVS     r2,#0x14
        0x0001bf32:    4916        .I      LDR      r1,[pc,#88] ; [0x1bf8c] = 0x1dae8
        0x0001bf34:    a805        ..      ADD      r0,sp,#0x14
        0x0001bf36:    f7fcfa90    ....    BL       __aeabi_memcpy4 ; 0x1845a
        0x0001bf3a:    4914        .I      LDR      r1,[pc,#80] ; [0x1bf8c] = 0x1dae8
        0x0001bf3c:    2214        ."      MOVS     r2,#0x14
        0x0001bf3e:    3114        .1      ADDS     r1,r1,#0x14
        0x0001bf40:    a80a        ..      ADD      r0,sp,#0x28
        0x0001bf42:    f7fcfa8a    ....    BL       __aeabi_memcpy4 ; 0x1845a
        0x0001bf46:    4812        .H      LDR      r0,[pc,#72] ; [0x1bf90] = 0x10000008
        0x0001bf48:    6800        .h      LDR      r0,[r0,#0]
        0x0001bf4a:    f8d01fe0    ....    LDR      r1,[r0,#0xfe0]
        0x0001bf4e:    9100        ..      STR      r1,[sp,#0]
        0x0001bf50:    f8d01fe4    ....    LDR      r1,[r0,#0xfe4]
        0x0001bf54:    9101        ..      STR      r1,[sp,#4]
        0x0001bf56:    f8d01fe8    ....    LDR      r1,[r0,#0xfe8]
        0x0001bf5a:    9102        ..      STR      r1,[sp,#8]
        0x0001bf5c:    f8d01fec    ....    LDR      r1,[r0,#0xfec]
        0x0001bf60:    9103        ..      STR      r1,[sp,#0xc]
        0x0001bf62:    f8d00fd0    ....    LDR      r0,[r0,#0xfd0]
        0x0001bf66:    9004        ..      STR      r0,[sp,#0x10]
        0x0001bf68:    2214        ."      MOVS     r2,#0x14
        0x0001bf6a:    4669        iF      MOV      r1,sp
        0x0001bf6c:    a805        ..      ADD      r0,sp,#0x14
        0x0001bf6e:    f7fffa4d    ..M.    BL       CC_PalMemCmpPlat ; 0x1b40c
        0x0001bf72:    b140        @.      CBZ      r0,0x1bf86 ; VerifyPidVal + 98
        0x0001bf74:    2214        ."      MOVS     r2,#0x14
        0x0001bf76:    4669        iF      MOV      r1,sp
        0x0001bf78:    a80a        ..      ADD      r0,sp,#0x28
        0x0001bf7a:    f7fffa47    ..G.    BL       CC_PalMemCmpPlat ; 0x1b40c
        0x0001bf7e:    b110        ..      CBZ      r0,0x1bf86 ; VerifyPidVal + 98
        0x0001bf80:    2006        .       MOVS     r0,#6
        0x0001bf82:    b00f        ..      ADD      sp,sp,#0x3c
        0x0001bf84:    bd00        ..      POP      {pc}
        0x0001bf86:    2000        .       MOVS     r0,#0
        0x0001bf88:    e7fb        ..      B        0x1bf82 ; VerifyPidVal + 94
    $d
        0x0001bf8a:    0000        ..      DCW    0
        0x0001bf8c:    0001dae8    ....    DCD    121576
        0x0001bf90:    10000008    ....    DCD    268435464
    $t
    i.aes_setkey
    aes_setkey
        0x0001bf94:    b510        ..      PUSH     {r4,lr}
        0x0001bf96:    b170        p.      CBZ      r0,0x1bfb6 ; aes_setkey + 34
        0x0001bf98:    f06f041f    o...    MVN      r4,#0x1f
        0x0001bf9c:    b149        I.      CBZ      r1,0x1bfb2 ; aes_setkey + 30
        0x0001bf9e:    6383        .c      STR      r3,[r0,#0x38]
        0x0001bfa0:    2301        .#      MOVS     r3,#1
        0x0001bfa2:    63c3        .c      STR      r3,[r0,#0x3c]
        0x0001bfa4:    2a80        .*      CMP      r2,#0x80
        0x0001bfa6:    d009        ..      BEQ      0x1bfbc ; aes_setkey + 40
        0x0001bfa8:    2ac0        .*      CMP      r2,#0xc0
        0x0001bfaa:    d008        ..      BEQ      0x1bfbe ; aes_setkey + 42
        0x0001bfac:    f5b27f80    ....    CMP      r2,#0x100
        0x0001bfb0:    d00c        ..      BEQ      0x1bfcc ; aes_setkey + 56
        0x0001bfb2:    4620         F      MOV      r0,r4
        0x0001bfb4:    bd10        ..      POP      {r4,pc}
        0x0001bfb6:    f06f0021    o.!.    MVN      r0,#0x21
        0x0001bfba:    bd10        ..      POP      {r4,pc}
        0x0001bfbc:    2300        .#      MOVS     r3,#0
        0x0001bfbe:    6303        .c      STR      r3,[r0,#0x30]
        0x0001bfc0:    08d2        ..      LSRS     r2,r2,#3
        0x0001bfc2:    3010        .0      ADDS     r0,r0,#0x10
        0x0001bfc4:    f7fffa24    ..$.    BL       CC_PalMemCopyPlat ; 0x1b410
        0x0001bfc8:    2000        .       MOVS     r0,#0
        0x0001bfca:    bd10        ..      POP      {r4,pc}
        0x0001bfcc:    2302        .#      MOVS     r3,#2
        0x0001bfce:    e7f6        ..      B        0x1bfbe ; aes_setkey + 42
    i.block_cipher_df
    block_cipher_df
        0x0001bfd0:    e92d4ff0    -..O    PUSH     {r4-r11,lr}
        0x0001bfd4:    f5ad7d19    ...}    SUB      sp,sp,#0x264
        0x0001bfd8:    4614        .F      MOV      r4,r2
        0x0001bfda:    460e        .F      MOV      r6,r1
        0x0001bfdc:    4683        .F      MOV      r11,r0
        0x0001bfde:    f5b27fc0    ....    CMP      r2,#0x180
        0x0001bfe2:    d905        ..      BLS      0x1bff0 ; block_cipher_df + 32
        0x0001bfe4:    f06f0037    o.7.    MVN      r0,#0x37
        0x0001bfe8:    f50d7d19    ...}    ADD      sp,sp,#0x264
        0x0001bfec:    e8bd8ff0    ....    POP      {r4-r11,pc}
        0x0001bff0:    f44f71d0    O..q    MOV      r1,#0x1a0
        0x0001bff4:    4668        hF      MOV      r0,sp
        0x0001bff6:    f7fcfa97    ....    BL       __aeabi_memclr4 ; 0x18528
        0x0001bffa:    a868        h.      ADD      r0,sp,#0x1a0
        0x0001bffc:    f000fa7e    ..~.    BL       mbedtls_aes_init ; 0x1c4fc
        0x0001c000:    0e20         .      LSRS     r0,r4,#24
        0x0001c002:    f88d0010    ....    STRB     r0,[sp,#0x10]
        0x0001c006:    0c20         .      LSRS     r0,r4,#16
        0x0001c008:    f88d0011    ....    STRB     r0,[sp,#0x11]
        0x0001c00c:    0a20         .      LSRS     r0,r4,#8
        0x0001c00e:    f88d0012    ....    STRB     r0,[sp,#0x12]
        0x0001c012:    2030        0       MOVS     r0,#0x30
        0x0001c014:    f88d0017    ....    STRB     r0,[sp,#0x17]
        0x0001c018:    ad06        ..      ADD      r5,sp,#0x18
        0x0001c01a:    f88d4013    ...@    STRB     r4,[sp,#0x13]
        0x0001c01e:    4622        "F      MOV      r2,r4
        0x0001c020:    4631        1F      MOV      r1,r6
        0x0001c022:    4628        (F      MOV      r0,r5
        0x0001c024:    f7fcf98e    ....    BL       __aeabi_memcpy ; 0x18344
        0x0001c028:    2080        .       MOVS     r0,#0x80
        0x0001c02a:    5528        (U      STRB     r0,[r5,r4]
        0x0001c02c:    f1040919    ....    ADD      r9,r4,#0x19
        0x0001c030:    2000        .       MOVS     r0,#0
        0x0001c032:    a990        ..      ADD      r1,sp,#0x240
        0x0001c034:    5408        .T      STRB     r0,[r1,r0]
        0x0001c036:    1c40        @.      ADDS     r0,r0,#1
        0x0001c038:    2820         (      CMP      r0,#0x20
        0x0001c03a:    dbfb        ..      BLT      0x1c034 ; block_cipher_df + 100
        0x0001c03c:    f44f7280    O..r    MOV      r2,#0x100
        0x0001c040:    a868        h.      ADD      r0,sp,#0x1a0
        0x0001c042:    f000fa73    ..s.    BL       mbedtls_aes_setkey_enc ; 0x1c52c
        0x0001c046:    0007        ..      MOVS     r7,r0
        0x0001c048:    d151        Q.      BNE      0x1c0ee ; block_cipher_df + 286
        0x0001c04a:    2600        .&      MOVS     r6,#0
        0x0001c04c:    46b2        .F      MOV      r10,r6
        0x0001c04e:    466d        mF      MOV      r5,sp
        0x0001c050:    f8cda230    ..0.    STR      r10,[sp,#0x230]
        0x0001c054:    f8cda234    ..4.    STR      r10,[sp,#0x234]
        0x0001c058:    f8cda238    ..8.    STR      r10,[sp,#0x238]
        0x0001c05c:    464c        LF      MOV      r4,r9
        0x0001c05e:    f50d780c    ...x    ADD      r8,sp,#0x230
        0x0001c062:    f8cda23c    ..<.    STR      r10,[sp,#0x23c]
        0x0001c066:    e017        ..      B        0x1c098 ; block_cipher_df + 200
        0x0001c068:    2000        .       MOVS     r0,#0
        0x0001c06a:    4641        AF      MOV      r1,r8
        0x0001c06c:    5c2b        +\      LDRB     r3,[r5,r0]
        0x0001c06e:    5c0a        .\      LDRB     r2,[r1,r0]
        0x0001c070:    405a        Z@      EORS     r2,r2,r3
        0x0001c072:    540a        .T      STRB     r2,[r1,r0]
        0x0001c074:    1c40        @.      ADDS     r0,r0,#1
        0x0001c076:    2810        .(      CMP      r0,#0x10
        0x0001c078:    dbf8        ..      BLT      0x1c06c ; block_cipher_df + 156
        0x0001c07a:    3510        .5      ADDS     r5,r5,#0x10
        0x0001c07c:    2c10        .,      CMP      r4,#0x10
        0x0001c07e:    d301        ..      BCC      0x1c084 ; block_cipher_df + 180
        0x0001c080:    2010        .       MOVS     r0,#0x10
        0x0001c082:    e000        ..      B        0x1c086 ; block_cipher_df + 182
        0x0001c084:    4620         F      MOV      r0,r4
        0x0001c086:    1a24        $.      SUBS     r4,r4,r0
        0x0001c088:    ab8c        ..      ADD      r3,sp,#0x230
        0x0001c08a:    461a        .F      MOV      r2,r3
        0x0001c08c:    2101        .!      MOVS     r1,#1
        0x0001c08e:    a868        h.      ADD      r0,sp,#0x1a0
        0x0001c090:    f000f9ff    ....    BL       mbedtls_aes_crypt_ecb ; 0x1c492
        0x0001c094:    0007        ..      MOVS     r7,r0
        0x0001c096:    d12a        *.      BNE      0x1c0ee ; block_cipher_df + 286
        0x0001c098:    2c00        .,      CMP      r4,#0
        0x0001c09a:    d1e5        ..      BNE      0x1c068 ; block_cipher_df + 152
        0x0001c09c:    a880        ..      ADD      r0,sp,#0x200
        0x0001c09e:    4430        0D      ADD      r0,r0,r6
        0x0001c0a0:    2210        ."      MOVS     r2,#0x10
        0x0001c0a2:    a98c        ..      ADD      r1,sp,#0x230
        0x0001c0a4:    f7fcf94e    ..N.    BL       __aeabi_memcpy ; 0x18344
        0x0001c0a8:    f89d0003    ....    LDRB     r0,[sp,#3]
        0x0001c0ac:    3610        .6      ADDS     r6,r6,#0x10
        0x0001c0ae:    1c40        @.      ADDS     r0,r0,#1
        0x0001c0b0:    f88d0003    ....    STRB     r0,[sp,#3]
        0x0001c0b4:    2e30        0.      CMP      r6,#0x30
        0x0001c0b6:    dbca        ..      BLT      0x1c04e ; block_cipher_df + 126
        0x0001c0b8:    f44f7280    O..r    MOV      r2,#0x100
        0x0001c0bc:    a980        ..      ADD      r1,sp,#0x200
        0x0001c0be:    a868        h.      ADD      r0,sp,#0x1a0
        0x0001c0c0:    f000fa34    ..4.    BL       mbedtls_aes_setkey_enc ; 0x1c52c
        0x0001c0c4:    0007        ..      MOVS     r7,r0
        0x0001c0c6:    d112        ..      BNE      0x1c0ee ; block_cipher_df + 286
        0x0001c0c8:    ae88        ..      ADD      r6,sp,#0x220
        0x0001c0ca:    465d        ]F      MOV      r5,r11
        0x0001c0cc:    4633        3F      MOV      r3,r6
        0x0001c0ce:    461a        .F      MOV      r2,r3
        0x0001c0d0:    2101        .!      MOVS     r1,#1
        0x0001c0d2:    a868        h.      ADD      r0,sp,#0x1a0
        0x0001c0d4:    f000f9dd    ....    BL       mbedtls_aes_crypt_ecb ; 0x1c492
        0x0001c0d8:    0007        ..      MOVS     r7,r0
        0x0001c0da:    d108        ..      BNE      0x1c0ee ; block_cipher_df + 286
        0x0001c0dc:    2210        ."      MOVS     r2,#0x10
        0x0001c0de:    4631        1F      MOV      r1,r6
        0x0001c0e0:    4628        (F      MOV      r0,r5
        0x0001c0e2:    f7fcf92f    ../.    BL       __aeabi_memcpy ; 0x18344
        0x0001c0e6:    3410        .4      ADDS     r4,r4,#0x10
        0x0001c0e8:    3510        .5      ADDS     r5,r5,#0x10
        0x0001c0ea:    2c30        0,      CMP      r4,#0x30
        0x0001c0ec:    dbee        ..      BLT      0x1c0cc ; block_cipher_df + 252
        0x0001c0ee:    a868        h.      ADD      r0,sp,#0x1a0
        0x0001c0f0:    f000f9fc    ....    BL       mbedtls_aes_free ; 0x1c4ec
        0x0001c0f4:    f44f71d0    O..q    MOV      r1,#0x1a0
        0x0001c0f8:    4668        hF      MOV      r0,sp
        0x0001c0fa:    f001f98d    ....    BL       mbedtls_platform_zeroize ; 0x1d418
        0x0001c0fe:    2130        0!      MOVS     r1,#0x30
        0x0001c100:    a880        ..      ADD      r0,sp,#0x200
        0x0001c102:    f001f989    ....    BL       mbedtls_platform_zeroize ; 0x1d418
        0x0001c106:    2120         !      MOVS     r1,#0x20
        0x0001c108:    a890        ..      ADD      r0,sp,#0x240
        0x0001c10a:    f001f985    ....    BL       mbedtls_platform_zeroize ; 0x1d418
        0x0001c10e:    2110        .!      MOVS     r1,#0x10
        0x0001c110:    a88c        ..      ADD      r0,sp,#0x230
        0x0001c112:    f001f981    ....    BL       mbedtls_platform_zeroize ; 0x1d418
        0x0001c116:    b11f        ..      CBZ      r7,0x1c120 ; block_cipher_df + 336
        0x0001c118:    2130        0!      MOVS     r1,#0x30
        0x0001c11a:    4658        XF      MOV      r0,r11
        0x0001c11c:    f001f97c    ..|.    BL       mbedtls_platform_zeroize ; 0x1d418
        0x0001c120:    4638        8F      MOV      r0,r7
        0x0001c122:    e761        a.      B        0x1bfe8 ; block_cipher_df + 24
    i.buffer_alloc_calloc
    buffer_alloc_calloc
        0x0001c124:    e92d41f0    -..A    PUSH     {r4-r8,lr}
        0x0001c128:    4e38        8N      LDR      r6,[pc,#224] ; [0x1c20c] = 0x10000058
        0x0001c12a:    68f4        .h      LDR      r4,[r6,#0xc]
        0x0001c12c:    6832        2h      LDR      r2,[r6,#0]
        0x0001c12e:    b37a        z.      CBZ      r2,0x1c190 ; buffer_alloc_calloc + 108
        0x0001c130:    68b2        .h      LDR      r2,[r6,#8]
        0x0001c132:    b36a        j.      CBZ      r2,0x1c190 ; buffer_alloc_calloc + 108
        0x0001c134:    fb00f501    ....    MUL      r5,r0,r1
        0x0001c138:    46a8        .F      MOV      r8,r5
        0x0001c13a:    b348        H.      CBZ      r0,0x1c190 ; buffer_alloc_calloc + 108
        0x0001c13c:    b341        A.      CBZ      r1,0x1c190 ; buffer_alloc_calloc + 108
        0x0001c13e:    fbb5f0f0    ....    UDIV     r0,r5,r0
        0x0001c142:    4288        .B      CMP      r0,r1
        0x0001c144:    d125        %.      BNE      0x1c192 ; buffer_alloc_calloc + 110
        0x0001c146:    f1150f04    ....    CMN      r5,#4
        0x0001c14a:    d822        ".      BHI      0x1c192 ; buffer_alloc_calloc + 110
        0x0001c14c:    07a8        ..      LSLS     r0,r5,#30
        0x0001c14e:    d009        ..      BEQ      0x1c164 ; buffer_alloc_calloc + 64
        0x0001c150:    f0050003    ....    AND      r0,r5,#3
        0x0001c154:    eba80500    ....    SUB      r5,r8,r0
        0x0001c158:    1d2d        -.      ADDS     r5,r5,#4
        0x0001c15a:    e003        ..      B        0x1c164 ; buffer_alloc_calloc + 64
        0x0001c15c:    6860        `h      LDR      r0,[r4,#4]
        0x0001c15e:    42a8        .B      CMP      r0,r5
        0x0001c160:    d203        ..      BCS      0x1c16a ; buffer_alloc_calloc + 70
        0x0001c162:    69a4        .i      LDR      r4,[r4,#0x18]
        0x0001c164:    2c00        .,      CMP      r4,#0
        0x0001c166:    d1f9        ..      BNE      0x1c15c ; buffer_alloc_calloc + 56
        0x0001c168:    e013        ..      B        0x1c192 ; buffer_alloc_calloc + 110
        0x0001c16a:    b18c        ..      CBZ      r4,0x1c190 ; buffer_alloc_calloc + 108
        0x0001c16c:    4f28        (O      LDR      r7,[pc,#160] ; [0x1c210] = 0x10000018
        0x0001c16e:    68a0        .h      LDR      r0,[r4,#8]
        0x0001c170:    b110        ..      CBZ      r0,0x1c178 ; buffer_alloc_calloc + 84
        0x0001c172:    6839        9h      LDR      r1,[r7,#0]
        0x0001c174:    2001        .       MOVS     r0,#1
        0x0001c176:    4788        .G      BLX      r1
        0x0001c178:    6860        `h      LDR      r0,[r4,#4]
        0x0001c17a:    2301        .#      MOVS     r3,#1
        0x0001c17c:    1b41        A.      SUBS     r1,r0,r5
        0x0001c17e:    2200        ."      MOVS     r2,#0
        0x0001c180:    2924        $)      CMP      r1,#0x24
        0x0001c182:    d219        ..      BCS      0x1c1b8 ; buffer_alloc_calloc + 148
        0x0001c184:    60a3        .`      STR      r3,[r4,#8]
        0x0001c186:    6960        `i      LDR      r0,[r4,#0x14]
        0x0001c188:    b130        0.      CBZ      r0,0x1c198 ; buffer_alloc_calloc + 116
        0x0001c18a:    69a1        .i      LDR      r1,[r4,#0x18]
        0x0001c18c:    6181        .a      STR      r1,[r0,#0x18]
        0x0001c18e:    e005        ..      B        0x1c19c ; buffer_alloc_calloc + 120
        0x0001c190:    e7ff        ..      B        0x1c192 ; buffer_alloc_calloc + 110
        0x0001c192:    2000        .       MOVS     r0,#0
        0x0001c194:    e8bd81f0    ....    POP      {r4-r8,pc}
        0x0001c198:    69a0        .i      LDR      r0,[r4,#0x18]
        0x0001c19a:    60f0        .`      STR      r0,[r6,#0xc]
        0x0001c19c:    69a0        .i      LDR      r0,[r4,#0x18]
        0x0001c19e:    b108        ..      CBZ      r0,0x1c1a4 ; buffer_alloc_calloc + 128
        0x0001c1a0:    6961        ai      LDR      r1,[r4,#0x14]
        0x0001c1a2:    6141        Aa      STR      r1,[r0,#0x14]
        0x0001c1a4:    6162        ba      STR      r2,[r4,#0x14]
        0x0001c1a6:    61a2        .a      STR      r2,[r4,#0x18]
        0x0001c1a8:    e025        %.      B        0x1c1f6 ; buffer_alloc_calloc + 210
        0x0001c1aa:    f001fbcf    ....    BL       verify_chain ; 0x1d94c
        0x0001c1ae:    b328        (.      CBZ      r0,0x1c1fc ; buffer_alloc_calloc + 216
        0x0001c1b0:    6839        9h      LDR      r1,[r7,#0]
        0x0001c1b2:    2001        .       MOVS     r0,#1
        0x0001c1b4:    4788        .G      BLX      r1
        0x0001c1b6:    e021        !.      B        0x1c1fc ; buffer_alloc_calloc + 216
        0x0001c1b8:    1960        `.      ADDS     r0,r4,r5
        0x0001c1ba:    3024        $0      ADDS     r0,r0,#0x24
        0x0001c1bc:    3920         9      SUBS     r1,r1,#0x20
        0x0001c1be:    c016        ..      STM      r0!,{r1,r2,r4}
        0x0001c1c0:    6921        !i      LDR      r1,[r4,#0x10]
        0x0001c1c2:    f8401910    @...    STR      r1,[r0],#-0x10
        0x0001c1c6:    4913        .I      LDR      r1,[pc,#76] ; [0x1c214] = 0xff00aa55
        0x0001c1c8:    6001        .`      STR      r1,[r0,#0]
        0x0001c1ca:    4913        .I      LDR      r1,[pc,#76] ; [0x1c218] = 0xee119966
        0x0001c1cc:    61c1        .a      STR      r1,[r0,#0x1c]
        0x0001c1ce:    6901        .i      LDR      r1,[r0,#0x10]
        0x0001c1d0:    b101        ..      CBZ      r1,0x1c1d4 ; buffer_alloc_calloc + 176
        0x0001c1d2:    60c8        .`      STR      r0,[r1,#0xc]
        0x0001c1d4:    6961        ai      LDR      r1,[r4,#0x14]
        0x0001c1d6:    6141        Aa      STR      r1,[r0,#0x14]
        0x0001c1d8:    69a1        .i      LDR      r1,[r4,#0x18]
        0x0001c1da:    6181        .a      STR      r1,[r0,#0x18]
        0x0001c1dc:    6941        Ai      LDR      r1,[r0,#0x14]
        0x0001c1de:    b109        ..      CBZ      r1,0x1c1e4 ; buffer_alloc_calloc + 192
        0x0001c1e0:    6188        .a      STR      r0,[r1,#0x18]
        0x0001c1e2:    e000        ..      B        0x1c1e6 ; buffer_alloc_calloc + 194
        0x0001c1e4:    60f0        .`      STR      r0,[r6,#0xc]
        0x0001c1e6:    6981        .i      LDR      r1,[r0,#0x18]
        0x0001c1e8:    b101        ..      CBZ      r1,0x1c1ec ; buffer_alloc_calloc + 200
        0x0001c1ea:    6148        Ha      STR      r0,[r1,#0x14]
        0x0001c1ec:    e9c40204    ....    STRD     r0,r2,[r4,#0x10]
        0x0001c1f0:    61a2        .a      STR      r2,[r4,#0x18]
        0x0001c1f2:    e9c45301    ...S    STRD     r5,r3,[r4,#4]
        0x0001c1f6:    7c30        0|      LDRB     r0,[r6,#0x10]
        0x0001c1f8:    07c0        ..      LSLS     r0,r0,#31
        0x0001c1fa:    d1d6        ..      BNE      0x1c1aa ; buffer_alloc_calloc + 134
        0x0001c1fc:    3420         4      ADDS     r4,r4,#0x20
        0x0001c1fe:    4641        AF      MOV      r1,r8
        0x0001c200:    4620         F      MOV      r0,r4
        0x0001c202:    f7fcf96f    ..o.    BL       __aeabi_memclr ; 0x184e4
        0x0001c206:    4620         F      MOV      r0,r4
        0x0001c208:    e7c4        ..      B        0x1c194 ; buffer_alloc_calloc + 112
    $d
        0x0001c20a:    0000        ..      DCW    0
        0x0001c20c:    10000058    X...    DCD    268435544
        0x0001c210:    10000018    ....    DCD    268435480
        0x0001c214:    ff00aa55    U...    DCD    4278233685
        0x0001c218:    ee119966    f...    DCD    3994130790
    $t
    i.buffer_alloc_free
    buffer_alloc_free
        0x0001c21c:    e92d41f0    -..A    PUSH     {r4-r8,lr}
        0x0001c220:    2600        .&      MOVS     r6,#0
        0x0001c222:    0004        ..      MOVS     r4,r0
        0x0001c224:    d072        r.      BEQ      0x1c30c ; buffer_alloc_free + 240
        0x0001c226:    4d3a        :M      LDR      r5,[pc,#232] ; [0x1c310] = 0x10000058
        0x0001c228:    6828        (h      LDR      r0,[r5,#0]
        0x0001c22a:    2800        .(      CMP      r0,#0
        0x0001c22c:    d06e        n.      BEQ      0x1c30c ; buffer_alloc_free + 240
        0x0001c22e:    68a9        .h      LDR      r1,[r5,#8]
        0x0001c230:    2900        .)      CMP      r1,#0
        0x0001c232:    d06b        k.      BEQ      0x1c30c ; buffer_alloc_free + 240
        0x0001c234:    4f37        7O      LDR      r7,[pc,#220] ; [0x1c314] = 0x10000018
        0x0001c236:    42a0        .B      CMP      r0,r4
        0x0001c238:    d803        ..      BHI      0x1c242 ; buffer_alloc_free + 38
        0x0001c23a:    6869        ih      LDR      r1,[r5,#4]
        0x0001c23c:    4408        .D      ADD      r0,r0,r1
        0x0001c23e:    42a0        .B      CMP      r0,r4
        0x0001c240:    d802        ..      BHI      0x1c248 ; buffer_alloc_free + 44
        0x0001c242:    6839        9h      LDR      r1,[r7,#0]
        0x0001c244:    2001        .       MOVS     r0,#1
        0x0001c246:    4788        .G      BLX      r1
        0x0001c248:    3c20         <      SUBS     r4,r4,#0x20
        0x0001c24a:    4620         F      MOV      r0,r4
        0x0001c24c:    f001fb9c    ....    BL       verify_header ; 0x1d988
        0x0001c250:    b110        ..      CBZ      r0,0x1c258 ; buffer_alloc_free + 60
        0x0001c252:    6839        9h      LDR      r1,[r7,#0]
        0x0001c254:    2001        .       MOVS     r0,#1
        0x0001c256:    4788        .G      BLX      r1
        0x0001c258:    68a0        .h      LDR      r0,[r4,#8]
        0x0001c25a:    2801        .(      CMP      r0,#1
        0x0001c25c:    d002        ..      BEQ      0x1c264 ; buffer_alloc_free + 72
        0x0001c25e:    6839        9h      LDR      r1,[r7,#0]
        0x0001c260:    2001        .       MOVS     r0,#1
        0x0001c262:    4788        .G      BLX      r1
        0x0001c264:    2000        .       MOVS     r0,#0
        0x0001c266:    60a0        .`      STR      r0,[r4,#8]
        0x0001c268:    68e0        .h      LDR      r0,[r4,#0xc]
        0x0001c26a:    b188        ..      CBZ      r0,0x1c290 ; buffer_alloc_free + 116
        0x0001c26c:    6881        .h      LDR      r1,[r0,#8]
        0x0001c26e:    b979        y.      CBNZ     r1,0x1c290 ; buffer_alloc_free + 116
        0x0001c270:    6841        Ah      LDR      r1,[r0,#4]
        0x0001c272:    6862        bh      LDR      r2,[r4,#4]
        0x0001c274:    4626        &F      MOV      r6,r4
        0x0001c276:    4411        .D      ADD      r1,r1,r2
        0x0001c278:    3120         1      ADDS     r1,r1,#0x20
        0x0001c27a:    6041        A`      STR      r1,[r0,#4]
        0x0001c27c:    e9d41003    ....    LDRD     r1,r0,[r4,#0xc]
        0x0001c280:    6108        .a      STR      r0,[r1,#0x10]
        0x0001c282:    68e4        .h      LDR      r4,[r4,#0xc]
        0x0001c284:    b100        ..      CBZ      r0,0x1c288 ; buffer_alloc_free + 108
        0x0001c286:    60c4        .`      STR      r4,[r0,#0xc]
        0x0001c288:    2120         !      MOVS     r1,#0x20
        0x0001c28a:    4630        0F      MOV      r0,r6
        0x0001c28c:    f7fcf94c    ..L.    BL       __aeabi_memclr4 ; 0x18528
        0x0001c290:    6920         i      LDR      r0,[r4,#0x10]
        0x0001c292:    b108        ..      CBZ      r0,0x1c298 ; buffer_alloc_free + 124
        0x0001c294:    6881        .h      LDR      r1,[r0,#8]
        0x0001c296:    b109        ..      CBZ      r1,0x1c29c ; buffer_alloc_free + 128
        0x0001c298:    b336        6.      CBZ      r6,0x1c2e8 ; buffer_alloc_free + 204
        0x0001c29a:    e02a        *.      B        0x1c2f2 ; buffer_alloc_free + 214
        0x0001c29c:    6861        ah      LDR      r1,[r4,#4]
        0x0001c29e:    6842        Bh      LDR      r2,[r0,#4]
        0x0001c2a0:    4411        .D      ADD      r1,r1,r2
        0x0001c2a2:    3120         1      ADDS     r1,r1,#0x20
        0x0001c2a4:    6061        a`      STR      r1,[r4,#4]
        0x0001c2a6:    6901        .i      LDR      r1,[r0,#0x10]
        0x0001c2a8:    6121        !a      STR      r1,[r4,#0x10]
        0x0001c2aa:    6961        ai      LDR      r1,[r4,#0x14]
        0x0001c2ac:    b121        !.      CBZ      r1,0x1c2b8 ; buffer_alloc_free + 156
        0x0001c2ae:    69a2        .i      LDR      r2,[r4,#0x18]
        0x0001c2b0:    618a        .a      STR      r2,[r1,#0x18]
        0x0001c2b2:    69a1        .i      LDR      r1,[r4,#0x18]
        0x0001c2b4:    b919        ..      CBNZ     r1,0x1c2be ; buffer_alloc_free + 162
        0x0001c2b6:    e005        ..      B        0x1c2c4 ; buffer_alloc_free + 168
        0x0001c2b8:    69a1        .i      LDR      r1,[r4,#0x18]
        0x0001c2ba:    b119        ..      CBZ      r1,0x1c2c4 ; buffer_alloc_free + 168
        0x0001c2bc:    60e9        .`      STR      r1,[r5,#0xc]
        0x0001c2be:    e9d41205    ....    LDRD     r1,r2,[r4,#0x14]
        0x0001c2c2:    6151        Qa      STR      r1,[r2,#0x14]
        0x0001c2c4:    6941        Ai      LDR      r1,[r0,#0x14]
        0x0001c2c6:    6161        aa      STR      r1,[r4,#0x14]
        0x0001c2c8:    6982        .i      LDR      r2,[r0,#0x18]
        0x0001c2ca:    61a2        .a      STR      r2,[r4,#0x18]
        0x0001c2cc:    b109        ..      CBZ      r1,0x1c2d2 ; buffer_alloc_free + 182
        0x0001c2ce:    618c        .a      STR      r4,[r1,#0x18]
        0x0001c2d0:    e000        ..      B        0x1c2d4 ; buffer_alloc_free + 184
        0x0001c2d2:    60ec        .`      STR      r4,[r5,#0xc]
        0x0001c2d4:    69a1        .i      LDR      r1,[r4,#0x18]
        0x0001c2d6:    b101        ..      CBZ      r1,0x1c2da ; buffer_alloc_free + 190
        0x0001c2d8:    614c        La      STR      r4,[r1,#0x14]
        0x0001c2da:    6921        !i      LDR      r1,[r4,#0x10]
        0x0001c2dc:    b101        ..      CBZ      r1,0x1c2e0 ; buffer_alloc_free + 196
        0x0001c2de:    60cc        .`      STR      r4,[r1,#0xc]
        0x0001c2e0:    2120         !      MOVS     r1,#0x20
        0x0001c2e2:    f7fcf921    ..!.    BL       __aeabi_memclr4 ; 0x18528
        0x0001c2e6:    e004        ..      B        0x1c2f2 ; buffer_alloc_free + 214
        0x0001c2e8:    68e8        .h      LDR      r0,[r5,#0xc]
        0x0001c2ea:    61a0        .a      STR      r0,[r4,#0x18]
        0x0001c2ec:    b100        ..      CBZ      r0,0x1c2f0 ; buffer_alloc_free + 212
        0x0001c2ee:    6144        Da      STR      r4,[r0,#0x14]
        0x0001c2f0:    60ec        .`      STR      r4,[r5,#0xc]
        0x0001c2f2:    7c28        (|      LDRB     r0,[r5,#0x10]
        0x0001c2f4:    0780        ..      LSLS     r0,r0,#30
        0x0001c2f6:    d509        ..      BPL      0x1c30c ; buffer_alloc_free + 240
        0x0001c2f8:    f001fb28    ..(.    BL       verify_chain ; 0x1d94c
        0x0001c2fc:    2800        .(      CMP      r0,#0
        0x0001c2fe:    d005        ..      BEQ      0x1c30c ; buffer_alloc_free + 240
        0x0001c300:    6839        9h      LDR      r1,[r7,#0]
        0x0001c302:    e8bd41f0    ...A    POP      {r4-r8,lr}
        0x0001c306:    2001        .       MOVS     r0,#1
        0x0001c308:    4708        .G      BX       r1
        0x0001c30a:    e7ff        ..      B        0x1c30c ; buffer_alloc_free + 240
        0x0001c30c:    e8bd81f0    ....    POP      {r4-r8,pc}
    $d
        0x0001c310:    10000058    X...    DCD    268435544
        0x0001c314:    10000018    ....    DCD    268435480
    $t
    i.ctr_drbg_update_internal
    ctr_drbg_update_internal
        0x0001c318:    e92d43f0    -..C    PUSH     {r4-r9,lr}
        0x0001c31c:    b08d        ..      SUB      sp,sp,#0x34
        0x0001c31e:    4688        .F      MOV      r8,r1
        0x0001c320:    4605        .F      MOV      r5,r0
        0x0001c322:    466e        nF      MOV      r6,sp
        0x0001c324:    2130        0!      MOVS     r1,#0x30
        0x0001c326:    4630        0F      MOV      r0,r6
        0x0001c328:    f7fcf8fe    ....    BL       __aeabi_memclr4 ; 0x18528
        0x0001c32c:    2400        .$      MOVS     r4,#0
        0x0001c32e:    f1050920    .. .    ADD      r9,r5,#0x20
        0x0001c332:    2110        .!      MOVS     r1,#0x10
        0x0001c334:    1868        h.      ADDS     r0,r5,r1
        0x0001c336:    f8102d01    ...-    LDRB     r2,[r0,#-1]!
        0x0001c33a:    1c52        R.      ADDS     r2,r2,#1
        0x0001c33c:    f01202ff    ....    ANDS     r2,r2,#0xff
        0x0001c340:    7002        .p      STRB     r2,[r0,#0]
        0x0001c342:    d102        ..      BNE      0x1c34a ; ctr_drbg_update_internal + 50
        0x0001c344:    1e49        I.      SUBS     r1,r1,#1
        0x0001c346:    2900        .)      CMP      r1,#0
        0x0001c348:    dcf4        ..      BGT      0x1c334 ; ctr_drbg_update_internal + 28
        0x0001c34a:    4633        3F      MOV      r3,r6
        0x0001c34c:    462a        *F      MOV      r2,r5
        0x0001c34e:    2101        .!      MOVS     r1,#1
        0x0001c350:    4648        HF      MOV      r0,r9
        0x0001c352:    f000f89e    ....    BL       mbedtls_aes_crypt_ecb ; 0x1c492
        0x0001c356:    0007        ..      MOVS     r7,r0
        0x0001c358:    d11a        ..      BNE      0x1c390 ; ctr_drbg_update_internal + 120
        0x0001c35a:    3410        .4      ADDS     r4,r4,#0x10
        0x0001c35c:    3610        .6      ADDS     r6,r6,#0x10
        0x0001c35e:    2c30        0,      CMP      r4,#0x30
        0x0001c360:    dbe7        ..      BLT      0x1c332 ; ctr_drbg_update_internal + 26
        0x0001c362:    2100        .!      MOVS     r1,#0
        0x0001c364:    4668        hF      MOV      r0,sp
        0x0001c366:    f8183001    ...0    LDRB     r3,[r8,r1]
        0x0001c36a:    5c42        B\      LDRB     r2,[r0,r1]
        0x0001c36c:    405a        Z@      EORS     r2,r2,r3
        0x0001c36e:    5442        BT      STRB     r2,[r0,r1]
        0x0001c370:    1c49        I.      ADDS     r1,r1,#1
        0x0001c372:    2930        0)      CMP      r1,#0x30
        0x0001c374:    dbf7        ..      BLT      0x1c366 ; ctr_drbg_update_internal + 78
        0x0001c376:    4601        .F      MOV      r1,r0
        0x0001c378:    f44f7280    O..r    MOV      r2,#0x100
        0x0001c37c:    4648        HF      MOV      r0,r9
        0x0001c37e:    f000f8d5    ....    BL       mbedtls_aes_setkey_enc ; 0x1c52c
        0x0001c382:    0007        ..      MOVS     r7,r0
        0x0001c384:    d104        ..      BNE      0x1c390 ; ctr_drbg_update_internal + 120
        0x0001c386:    ac08        ..      ADD      r4,sp,#0x20
        0x0001c388:    e894000f    ....    LDM      r4,{r0-r3}
        0x0001c38c:    e885000f    ....    STM      r5,{r0-r3}
        0x0001c390:    2130        0!      MOVS     r1,#0x30
        0x0001c392:    4668        hF      MOV      r0,sp
        0x0001c394:    f001f840    ..@.    BL       mbedtls_platform_zeroize ; 0x1d418
        0x0001c398:    b00d        ..      ADD      sp,sp,#0x34
        0x0001c39a:    4638        8F      MOV      r0,r7
        0x0001c39c:    e8bd83f0    ....    POP      {r4-r9,pc}
    i.entropy_gather_internal
    entropy_gather_internal
        0x0001c3a0:    e92d41f0    -..A    PUSH     {r4-r8,lr}
        0x0001c3a4:    4607        .F      MOV      r7,r0
        0x0001c3a6:    f8d000e0    ....    LDR      r0,[r0,#0xe0]
        0x0001c3aa:    b0a6        ..      SUB      sp,sp,#0x98
        0x0001c3ac:    f04f0800    O...    MOV      r8,#0
        0x0001c3b0:    b108        ..      CBZ      r0,0x1c3b6 ; entropy_gather_internal + 22
        0x0001c3b2:    2400        .$      MOVS     r4,#0
        0x0001c3b4:    e026        &.      B        0x1c404 ; entropy_gather_internal + 100
        0x0001c3b6:    f06f003f    o.?.    MVN      r0,#0x3f
        0x0001c3ba:    b026        &.      ADD      sp,sp,#0x98
        0x0001c3bc:    e8bd81f0    ....    POP      {r4-r8,pc}
        0x0001c3c0:    eb040084    ....    ADD      r0,r4,r4,LSL #2
        0x0001c3c4:    eb070580    ....    ADD      r5,r7,r0,LSL #2
        0x0001c3c8:    f8d500f4    ....    LDR      r0,[r5,#0xf4]
        0x0001c3cc:    2801        .(      CMP      r0,#1
        0x0001c3ce:    d100        ..      BNE      0x1c3d2 ; entropy_gather_internal + 50
        0x0001c3d0:    4680        .F      MOV      r8,r0
        0x0001c3d2:    2000        .       MOVS     r0,#0
        0x0001c3d4:    9024        $.      STR      r0,[sp,#0x90]
        0x0001c3d6:    e9d56039    ..9`    LDRD     r6,r0,[r5,#0xe4]
        0x0001c3da:    ab24        $.      ADD      r3,sp,#0x90
        0x0001c3dc:    2290        ."      MOVS     r2,#0x90
        0x0001c3de:    4669        iF      MOV      r1,sp
        0x0001c3e0:    47b0        .G      BLX      r6
        0x0001c3e2:    0006        ..      MOVS     r6,r0
        0x0001c3e4:    d117        ..      BNE      0x1c416 ; entropy_gather_internal + 118
        0x0001c3e6:    9b24        $.      LDR      r3,[sp,#0x90]
        0x0001c3e8:    b15b        [.      CBZ      r3,0x1c402 ; entropy_gather_internal + 98
        0x0001c3ea:    b2e1        ..      UXTB     r1,r4
        0x0001c3ec:    466a        jF      MOV      r2,sp
        0x0001c3ee:    4638        8F      MOV      r0,r7
        0x0001c3f0:    f000f817    ....    BL       entropy_update ; 0x1c422
        0x0001c3f4:    0006        ..      MOVS     r6,r0
        0x0001c3f6:    d1e0        ..      BNE      0x1c3ba ; entropy_gather_internal + 26
        0x0001c3f8:    f8550fec    U...    LDR      r0,[r5,#0xec]!
        0x0001c3fc:    9924        $.      LDR      r1,[sp,#0x90]
        0x0001c3fe:    4408        .D      ADD      r0,r0,r1
        0x0001c400:    6028        (`      STR      r0,[r5,#0]
        0x0001c402:    1c64        d.      ADDS     r4,r4,#1
        0x0001c404:    f8d700e0    ....    LDR      r0,[r7,#0xe0]
        0x0001c408:    42a0        .B      CMP      r0,r4
        0x0001c40a:    dcd9        ..      BGT      0x1c3c0 ; entropy_gather_internal + 32
        0x0001c40c:    f1b80f00    ....    CMP      r8,#0
        0x0001c410:    d101        ..      BNE      0x1c416 ; entropy_gather_internal + 118
        0x0001c412:    f06f063c    o.<.    MVN      r6,#0x3c
        0x0001c416:    2190        .!      MOVS     r1,#0x90
        0x0001c418:    4668        hF      MOV      r0,sp
        0x0001c41a:    f000fffd    ....    BL       mbedtls_platform_zeroize ; 0x1d418
        0x0001c41e:    4630        0F      MOV      r0,r6
        0x0001c420:    e7cb        ..      B        0x1c3ba ; entropy_gather_internal + 26
    i.entropy_update
    entropy_update
        0x0001c422:    e92d41f0    -..A    PUSH     {r4-r8,lr}
        0x0001c426:    b092        ..      SUB      sp,sp,#0x48
        0x0001c428:    461d        .F      MOV      r5,r3
        0x0001c42a:    4617        .F      MOV      r7,r2
        0x0001c42c:    4688        .F      MOV      r8,r1
        0x0001c42e:    4606        .F      MOV      r6,r0
        0x0001c430:    2b40        @+      CMP      r3,#0x40
        0x0001c432:    d909        ..      BLS      0x1c448 ; entropy_update + 38
        0x0001c434:    2300        .#      MOVS     r3,#0
        0x0001c436:    466a        jF      MOV      r2,sp
        0x0001c438:    4629        )F      MOV      r1,r5
        0x0001c43a:    4638        8F      MOV      r0,r7
        0x0001c43c:    f001f986    ....    BL       mbedtls_sha512_ret ; 0x1d74c
        0x0001c440:    0004        ..      MOVS     r4,r0
        0x0001c442:    d11e        ..      BNE      0x1c482 ; entropy_update + 96
        0x0001c444:    466f        oF      MOV      r7,sp
        0x0001c446:    2540        @%      MOVS     r5,#0x40
        0x0001c448:    f88d8040    ..@.    STRB     r8,[sp,#0x40]
        0x0001c44c:    f88d5041    ..AP    STRB     r5,[sp,#0x41]
        0x0001c450:    f1060008    ....    ADD      r0,r6,#8
        0x0001c454:    6831        1h      LDR      r1,[r6,#0]
        0x0001c456:    4680        .F      MOV      r8,r0
        0x0001c458:    b921        !.      CBNZ     r1,0x1c464 ; entropy_update + 66
        0x0001c45a:    2100        .!      MOVS     r1,#0
        0x0001c45c:    f001f998    ....    BL       mbedtls_sha512_starts_ret ; 0x1d790
        0x0001c460:    0004        ..      MOVS     r4,r0
        0x0001c462:    d10e        ..      BNE      0x1c482 ; entropy_update + 96
        0x0001c464:    2001        .       MOVS     r0,#1
        0x0001c466:    6030        0`      STR      r0,[r6,#0]
        0x0001c468:    2202        ."      MOVS     r2,#2
        0x0001c46a:    a910        ..      ADD      r1,sp,#0x40
        0x0001c46c:    4640        @F      MOV      r0,r8
        0x0001c46e:    f001fa19    ....    BL       mbedtls_sha512_update_ret ; 0x1d8a4
        0x0001c472:    0004        ..      MOVS     r4,r0
        0x0001c474:    d105        ..      BNE      0x1c482 ; entropy_update + 96
        0x0001c476:    462a        *F      MOV      r2,r5
        0x0001c478:    4639        9F      MOV      r1,r7
        0x0001c47a:    4640        @F      MOV      r0,r8
        0x0001c47c:    f001fa12    ....    BL       mbedtls_sha512_update_ret ; 0x1d8a4
        0x0001c480:    4604        .F      MOV      r4,r0
        0x0001c482:    2140        @!      MOVS     r1,#0x40
        0x0001c484:    4668        hF      MOV      r0,sp
        0x0001c486:    f000ffc7    ....    BL       mbedtls_platform_zeroize ; 0x1d418
        0x0001c48a:    b012        ..      ADD      sp,sp,#0x48
        0x0001c48c:    4620         F      MOV      r0,r4
        0x0001c48e:    e8bd81f0    ....    POP      {r4-r8,pc}
    i.mbedtls_aes_crypt_ecb
    mbedtls_aes_crypt_ecb
        0x0001c492:    b570        p.      PUSH     {r4-r6,lr}
        0x0001c494:    b086        ..      SUB      sp,sp,#0x18
        0x0001c496:    4616        .F      MOV      r6,r2
        0x0001c498:    f06f0521    o.!.    MVN      r5,#0x21
        0x0001c49c:    b318        ..      CBZ      r0,0x1c4e6 ; mbedtls_aes_crypt_ecb + 84
        0x0001c49e:    b316        ..      CBZ      r6,0x1c4e6 ; mbedtls_aes_crypt_ecb + 84
        0x0001c4a0:    b30b        ..      CBZ      r3,0x1c4e6 ; mbedtls_aes_crypt_ecb + 84
        0x0001c4a2:    2901        .)      CMP      r1,#1
        0x0001c4a4:    d000        ..      BEQ      0x1c4a8 ; mbedtls_aes_crypt_ecb + 22
        0x0001c4a6:    b9f1        ..      CBNZ     r1,0x1c4e6 ; mbedtls_aes_crypt_ecb + 84
        0x0001c4a8:    4604        .F      MOV      r4,r0
        0x0001c4aa:    2901        .)      CMP      r1,#1
        0x0001c4ac:    d001        ..      BEQ      0x1c4b2 ; mbedtls_aes_crypt_ecb + 32
        0x0001c4ae:    b119        ..      CBZ      r1,0x1c4b8 ; mbedtls_aes_crypt_ecb + 38
        0x0001c4b0:    e005        ..      B        0x1c4be ; mbedtls_aes_crypt_ecb + 44
        0x0001c4b2:    6ba0        .k      LDR      r0,[r4,#0x38]
        0x0001c4b4:    b9b8        ..      CBNZ     r0,0x1c4e6 ; mbedtls_aes_crypt_ecb + 84
        0x0001c4b6:    e002        ..      B        0x1c4be ; mbedtls_aes_crypt_ecb + 44
        0x0001c4b8:    6ba0        .k      LDR      r0,[r4,#0x38]
        0x0001c4ba:    2801        .(      CMP      r0,#1
        0x0001c4bc:    d113        ..      BNE      0x1c4e6 ; mbedtls_aes_crypt_ecb + 84
        0x0001c4be:    2000        .       MOVS     r0,#0
        0x0001c4c0:    6360        `c      STR      r0,[r4,#0x34]
        0x0001c4c2:    a904        ..      ADD      r1,sp,#0x10
        0x0001c4c4:    2010        .       MOVS     r0,#0x10
        0x0001c4c6:    e9cd0100    ....    STRD     r0,r1,[sp,#0]
        0x0001c4ca:    4601        .F      MOV      r1,r0
        0x0001c4cc:    aa02        ..      ADD      r2,sp,#8
        0x0001c4ce:    4630        0F      MOV      r0,r6
        0x0001c4d0:    f7fffca4    ....    BL       SetDataBuffersInfo ; 0x1be1c
        0x0001c4d4:    b938        8.      CBNZ     r0,0x1c4e6 ; mbedtls_aes_crypt_ecb + 84
        0x0001c4d6:    2310        .#      MOVS     r3,#0x10
        0x0001c4d8:    aa04        ..      ADD      r2,sp,#0x10
        0x0001c4da:    a902        ..      ADD      r1,sp,#8
        0x0001c4dc:    4620         F      MOV      r0,r4
        0x0001c4de:    f7fffb1b    ....    BL       ProcessAesDrv ; 0x1bb18
        0x0001c4e2:    2800        .(      CMP      r0,#0
        0x0001c4e4:    d000        ..      BEQ      0x1c4e8 ; mbedtls_aes_crypt_ecb + 86
        0x0001c4e6:    4628        (F      MOV      r0,r5
        0x0001c4e8:    b006        ..      ADD      sp,sp,#0x18
        0x0001c4ea:    bd70        p.      POP      {r4-r6,pc}
    i.mbedtls_aes_free
    mbedtls_aes_free
        0x0001c4ec:    2800        .(      CMP      r0,#0
        0x0001c4ee:    d003        ..      BEQ      0x1c4f8 ; mbedtls_aes_free + 12
        0x0001c4f0:    2260        `"      MOVS     r2,#0x60
        0x0001c4f2:    2100        .!      MOVS     r1,#0
        0x0001c4f4:    f7febf91    ....    B        CC_PalMemSetPlat ; 0x1b41a
        0x0001c4f8:    4770        pG      BX       lr
        0x0001c4fa:    0000        ..      MOVS     r0,r0
    i.mbedtls_aes_init
    mbedtls_aes_init
        0x0001c4fc:    b510        ..      PUSH     {r4,lr}
        0x0001c4fe:    0004        ..      MOVS     r4,r0
        0x0001c500:    d102        ..      BNE      0x1c508 ; mbedtls_aes_init + 12
        0x0001c502:    a005        ..      ADR      r0,{pc}+0x16 ; 0x1c518
        0x0001c504:    f7feff70    ..p.    BL       CC_PalAbort ; 0x1b3e8
        0x0001c508:    2000        .       MOVS     r0,#0
        0x0001c50a:    6420         d      STR      r0,[r4,#0x40]
        0x0001c50c:    6460        `d      STR      r0,[r4,#0x44]
        0x0001c50e:    2001        .       MOVS     r0,#1
        0x0001c510:    64a0        .d      STR      r0,[r4,#0x48]
        0x0001c512:    64e0        .d      STR      r0,[r4,#0x4c]
        0x0001c514:    bd10        ..      POP      {r4,pc}
    $d
        0x0001c516:    0000        ..      DCW    0
        0x0001c518:    20787463    ctx     DCD    544765027
        0x0001c51c:    6e6e6163    cann    DCD    1852727651
        0x0001c520:    6220746f    ot b    DCD    1646294127
        0x0001c524:    554e2065    e NU    DCD    1431183461
        0x0001c528:    00004c4c    LL..    DCD    19532
    $t
    i.mbedtls_aes_setkey_enc
    mbedtls_aes_setkey_enc
        0x0001c52c:    2300        .#      MOVS     r3,#0
        0x0001c52e:    f7ffbd31    ..1.    B.W      aes_setkey ; 0x1bf94
        0x0001c532:    0000        ..      MOVS     r0,r0
    i.mbedtls_calloc
    mbedtls_calloc
        0x0001c534:    4a01        .J      LDR      r2,[pc,#4] ; [0x1c53c] = 0x1000000c
        0x0001c536:    6812        .h      LDR      r2,[r2,#0]
        0x0001c538:    4710        .G      BX       r2
    $d
        0x0001c53a:    0000        ..      DCW    0
        0x0001c53c:    1000000c    ....    DCD    268435468
    $t
    i.mbedtls_ctr_drbg_init
    mbedtls_ctr_drbg_init
        0x0001c540:    2188        .!      MOVS     r1,#0x88
        0x0001c542:    f7fbbff1    ....    B        __aeabi_memclr4 ; 0x18528
    i.mbedtls_ctr_drbg_random
    mbedtls_ctr_drbg_random
        0x0001c546:    b508        ..      PUSH     {r3,lr}
        0x0001c548:    2300        .#      MOVS     r3,#0
        0x0001c54a:    9300        ..      STR      r3,[sp,#0]
        0x0001c54c:    f000f801    ....    BL       mbedtls_ctr_drbg_random_with_add ; 0x1c552
        0x0001c550:    bd08        ..      POP      {r3,pc}
    i.mbedtls_ctr_drbg_random_with_add
    mbedtls_ctr_drbg_random_with_add
        0x0001c552:    e92d41f0    -..A    PUSH     {r4-r8,lr}
        0x0001c556:    b090        ..      SUB      sp,sp,#0x40
        0x0001c558:    4698        .F      MOV      r8,r3
        0x0001c55a:    9f16        ..      LDR      r7,[sp,#0x58]
        0x0001c55c:    4614        .F      MOV      r4,r2
        0x0001c55e:    460e        .F      MOV      r6,r1
        0x0001c560:    4605        .F      MOV      r5,r0
        0x0001c562:    f5b26f80    ...o    CMP      r2,#0x400
        0x0001c566:    d904        ..      BLS      0x1c572 ; mbedtls_ctr_drbg_random_with_add + 32
        0x0001c568:    f06f0035    o.5.    MVN      r0,#0x35
        0x0001c56c:    b010        ..      ADD      sp,sp,#0x40
        0x0001c56e:    e8bd81f0    ....    POP      {r4-r8,pc}
        0x0001c572:    f5b77f80    ....    CMP      r7,#0x100
        0x0001c576:    d902        ..      BLS      0x1c57e ; mbedtls_ctr_drbg_random_with_add + 44
        0x0001c578:    f06f0037    o.7.    MVN      r0,#0x37
        0x0001c57c:    e7f6        ..      B        0x1c56c ; mbedtls_ctr_drbg_random_with_add + 26
        0x0001c57e:    2130        0!      MOVS     r1,#0x30
        0x0001c580:    4668        hF      MOV      r0,sp
        0x0001c582:    f7fbffd1    ....    BL       __aeabi_memclr4 ; 0x18528
        0x0001c586:    69e9        .i      LDR      r1,[r5,#0x1c]
        0x0001c588:    6928        (i      LDR      r0,[r5,#0x10]
        0x0001c58a:    4288        .B      CMP      r0,r1
        0x0001c58c:    dc01        ..      BGT      0x1c592 ; mbedtls_ctr_drbg_random_with_add + 64
        0x0001c58e:    6968        hi      LDR      r0,[r5,#0x14]
        0x0001c590:    b138        8.      CBZ      r0,0x1c5a2 ; mbedtls_ctr_drbg_random_with_add + 80
        0x0001c592:    463a        :F      MOV      r2,r7
        0x0001c594:    4641        AF      MOV      r1,r8
        0x0001c596:    4628        (F      MOV      r0,r5
        0x0001c598:    f000f846    ..F.    BL       mbedtls_ctr_drbg_reseed ; 0x1c628
        0x0001c59c:    2800        .(      CMP      r0,#0
        0x0001c59e:    d1e5        ..      BNE      0x1c56c ; mbedtls_ctr_drbg_random_with_add + 26
        0x0001c5a0:    e02c        ,.      B        0x1c5fc ; mbedtls_ctr_drbg_random_with_add + 170
        0x0001c5a2:    b35f        _.      CBZ      r7,0x1c5fc ; mbedtls_ctr_drbg_random_with_add + 170
        0x0001c5a4:    463a        :F      MOV      r2,r7
        0x0001c5a6:    4641        AF      MOV      r1,r8
        0x0001c5a8:    4668        hF      MOV      r0,sp
        0x0001c5aa:    f7fffd11    ....    BL       block_cipher_df ; 0x1bfd0
        0x0001c5ae:    bb88        ..      CBNZ     r0,0x1c614 ; mbedtls_ctr_drbg_random_with_add + 194
        0x0001c5b0:    4669        iF      MOV      r1,sp
        0x0001c5b2:    4628        (F      MOV      r0,r5
        0x0001c5b4:    f7fffeb0    ....    BL       ctr_drbg_update_internal ; 0x1c318
        0x0001c5b8:    bb60        `.      CBNZ     r0,0x1c614 ; mbedtls_ctr_drbg_random_with_add + 194
        0x0001c5ba:    e01f        ..      B        0x1c5fc ; mbedtls_ctr_drbg_random_with_add + 170
        0x0001c5bc:    2010        .       MOVS     r0,#0x10
        0x0001c5be:    1829        ).      ADDS     r1,r5,r0
        0x0001c5c0:    f8112d01    ...-    LDRB     r2,[r1,#-1]!
        0x0001c5c4:    1c52        R.      ADDS     r2,r2,#1
        0x0001c5c6:    f01202ff    ....    ANDS     r2,r2,#0xff
        0x0001c5ca:    700a        .p      STRB     r2,[r1,#0]
        0x0001c5cc:    d102        ..      BNE      0x1c5d4 ; mbedtls_ctr_drbg_random_with_add + 130
        0x0001c5ce:    1e40        @.      SUBS     r0,r0,#1
        0x0001c5d0:    2800        .(      CMP      r0,#0
        0x0001c5d2:    dcf4        ..      BGT      0x1c5be ; mbedtls_ctr_drbg_random_with_add + 108
        0x0001c5d4:    ab0c        ..      ADD      r3,sp,#0x30
        0x0001c5d6:    462a        *F      MOV      r2,r5
        0x0001c5d8:    2101        .!      MOVS     r1,#1
        0x0001c5da:    4640        @F      MOV      r0,r8
        0x0001c5dc:    f7ffff59    ..Y.    BL       mbedtls_aes_crypt_ecb ; 0x1c492
        0x0001c5e0:    b9c0        ..      CBNZ     r0,0x1c614 ; mbedtls_ctr_drbg_random_with_add + 194
        0x0001c5e2:    2c10        .,      CMP      r4,#0x10
        0x0001c5e4:    d901        ..      BLS      0x1c5ea ; mbedtls_ctr_drbg_random_with_add + 152
        0x0001c5e6:    2710        .'      MOVS     r7,#0x10
        0x0001c5e8:    e000        ..      B        0x1c5ec ; mbedtls_ctr_drbg_random_with_add + 154
        0x0001c5ea:    4627        'F      MOV      r7,r4
        0x0001c5ec:    463a        :F      MOV      r2,r7
        0x0001c5ee:    a90c        ..      ADD      r1,sp,#0x30
        0x0001c5f0:    4630        0F      MOV      r0,r6
        0x0001c5f2:    f7fbfea7    ....    BL       __aeabi_memcpy ; 0x18344
        0x0001c5f6:    443e        >D      ADD      r6,r6,r7
        0x0001c5f8:    1be4        ..      SUBS     r4,r4,r7
        0x0001c5fa:    e001        ..      B        0x1c600 ; mbedtls_ctr_drbg_random_with_add + 174
        0x0001c5fc:    f1050820    .. .    ADD      r8,r5,#0x20
        0x0001c600:    2c00        .,      CMP      r4,#0
        0x0001c602:    d1db        ..      BNE      0x1c5bc ; mbedtls_ctr_drbg_random_with_add + 106
        0x0001c604:    4669        iF      MOV      r1,sp
        0x0001c606:    4628        (F      MOV      r0,r5
        0x0001c608:    f7fffe86    ....    BL       ctr_drbg_update_internal ; 0x1c318
        0x0001c60c:    b910        ..      CBNZ     r0,0x1c614 ; mbedtls_ctr_drbg_random_with_add + 194
        0x0001c60e:    6928        (i      LDR      r0,[r5,#0x10]
        0x0001c610:    1c40        @.      ADDS     r0,r0,#1
        0x0001c612:    6128        (a      STR      r0,[r5,#0x10]
        0x0001c614:    2130        0!      MOVS     r1,#0x30
        0x0001c616:    4668        hF      MOV      r0,sp
        0x0001c618:    f000fefe    ....    BL       mbedtls_platform_zeroize ; 0x1d418
        0x0001c61c:    2110        .!      MOVS     r1,#0x10
        0x0001c61e:    a80c        ..      ADD      r0,sp,#0x30
        0x0001c620:    f000fefa    ....    BL       mbedtls_platform_zeroize ; 0x1d418
        0x0001c624:    2000        .       MOVS     r0,#0
        0x0001c626:    e7a1        ..      B        0x1c56c ; mbedtls_ctr_drbg_random_with_add + 26
    i.mbedtls_ctr_drbg_reseed
    mbedtls_ctr_drbg_reseed
        0x0001c628:    e92d41f0    -..A    PUSH     {r4-r8,lr}
        0x0001c62c:    460f        .F      MOV      r7,r1
        0x0001c62e:    6985        .i      LDR      r5,[r0,#0x18]
        0x0001c630:    f44f71c0    O..q    MOV      r1,#0x180
        0x0001c634:    b0e0        ..      SUB      sp,sp,#0x180
        0x0001c636:    4616        .F      MOV      r6,r2
        0x0001c638:    4604        .F      MOV      r4,r0
        0x0001c63a:    428d        .B      CMP      r5,r1
        0x0001c63c:    d803        ..      BHI      0x1c646 ; mbedtls_ctr_drbg_reseed + 30
        0x0001c63e:    f5c570c0    ...p    RSB      r0,r5,#0x180
        0x0001c642:    42b0        .B      CMP      r0,r6
        0x0001c644:    d204        ..      BCS      0x1c650 ; mbedtls_ctr_drbg_reseed + 40
        0x0001c646:    f06f0037    o.7.    MVN      r0,#0x37
        0x0001c64a:    b060        `.      ADD      sp,sp,#0x180
        0x0001c64c:    e8bd81f0    ....    POP      {r4-r8,pc}
        0x0001c650:    4688        .F      MOV      r8,r1
        0x0001c652:    4668        hF      MOV      r0,sp
        0x0001c654:    f7fbff68    ..h.    BL       __aeabi_memclr4 ; 0x18528
        0x0001c658:    e9d43020    .. 0    LDRD     r3,r0,[r4,#0x80]
        0x0001c65c:    462a        *F      MOV      r2,r5
        0x0001c65e:    4669        iF      MOV      r1,sp
        0x0001c660:    4798        .G      BLX      r3
        0x0001c662:    b110        ..      CBZ      r0,0x1c66a ; mbedtls_ctr_drbg_reseed + 66
        0x0001c664:    f06f0033    o.3.    MVN      r0,#0x33
        0x0001c668:    e7ef        ..      B        0x1c64a ; mbedtls_ctr_drbg_reseed + 34
        0x0001c66a:    69a5        .i      LDR      r5,[r4,#0x18]
        0x0001c66c:    b13f        ?.      CBZ      r7,0x1c67e ; mbedtls_ctr_drbg_reseed + 86
        0x0001c66e:    b136        6.      CBZ      r6,0x1c67e ; mbedtls_ctr_drbg_reseed + 86
        0x0001c670:    eb0d0005    ....    ADD      r0,sp,r5
        0x0001c674:    4632        2F      MOV      r2,r6
        0x0001c676:    4639        9F      MOV      r1,r7
        0x0001c678:    f7fbfe64    ..d.    BL       __aeabi_memcpy ; 0x18344
        0x0001c67c:    4435        5D      ADD      r5,r5,r6
        0x0001c67e:    4669        iF      MOV      r1,sp
        0x0001c680:    462a        *F      MOV      r2,r5
        0x0001c682:    4608        .F      MOV      r0,r1
        0x0001c684:    f7fffca4    ....    BL       block_cipher_df ; 0x1bfd0
        0x0001c688:    0005        ..      MOVS     r5,r0
        0x0001c68a:    d107        ..      BNE      0x1c69c ; mbedtls_ctr_drbg_reseed + 116
        0x0001c68c:    4669        iF      MOV      r1,sp
        0x0001c68e:    4620         F      MOV      r0,r4
        0x0001c690:    f7fffe42    ..B.    BL       ctr_drbg_update_internal ; 0x1c318
        0x0001c694:    0005        ..      MOVS     r5,r0
        0x0001c696:    d101        ..      BNE      0x1c69c ; mbedtls_ctr_drbg_reseed + 116
        0x0001c698:    2001        .       MOVS     r0,#1
        0x0001c69a:    6120         a      STR      r0,[r4,#0x10]
        0x0001c69c:    4641        AF      MOV      r1,r8
        0x0001c69e:    4668        hF      MOV      r0,sp
        0x0001c6a0:    f000feba    ....    BL       mbedtls_platform_zeroize ; 0x1d418
        0x0001c6a4:    4628        (F      MOV      r0,r5
        0x0001c6a6:    e7d0        ..      B        0x1c64a ; mbedtls_ctr_drbg_reseed + 34
    i.mbedtls_ctr_drbg_seed
    mbedtls_ctr_drbg_seed
        0x0001c6a8:    b57c        |.      PUSH     {r2-r6,lr}
        0x0001c6aa:    2530        0%      MOVS     r5,#0x30
        0x0001c6ac:    9c06        ..      LDR      r4,[sp,#0x18]
        0x0001c6ae:    e9cd4500    ...E    STRD     r4,r5,[sp,#0]
        0x0001c6b2:    f000f801    ....    BL       mbedtls_ctr_drbg_seed_entropy_len ; 0x1c6b8
        0x0001c6b6:    bd7c        |.      POP      {r2-r6,pc}
    i.mbedtls_ctr_drbg_seed_entropy_len
    mbedtls_ctr_drbg_seed_entropy_len
        0x0001c6b8:    e92d47f0    -..G    PUSH     {r4-r10,lr}
        0x0001c6bc:    b088        ..      SUB      sp,sp,#0x20
        0x0001c6be:    460d        .F      MOV      r5,r1
        0x0001c6c0:    e9dda810    ....    LDRD     r10,r8,[sp,#0x40]
        0x0001c6c4:    4604        .F      MOV      r4,r0
        0x0001c6c6:    4699        .F      MOV      r9,r3
        0x0001c6c8:    4616        .F      MOV      r6,r2
        0x0001c6ca:    2120         !      MOVS     r1,#0x20
        0x0001c6cc:    4668        hF      MOV      r0,sp
        0x0001c6ce:    f7fbff2b    ..+.    BL       __aeabi_memclr4 ; 0x18528
        0x0001c6d2:    f1040020    .. .    ADD      r0,r4,#0x20
        0x0001c6d6:    4607        .F      MOV      r7,r0
        0x0001c6d8:    f7ffff10    ....    BL       mbedtls_aes_init ; 0x1c4fc
        0x0001c6dc:    f64f70f0    O..p    MOV      r0,#0xfff0
        0x0001c6e0:    e9c48006    ....    STRD     r8,r0,[r4,#0x18]
        0x0001c6e4:    e9c45620    .. V    STRD     r5,r6,[r4,#0x80]
        0x0001c6e8:    f44f7280    O..r    MOV      r2,#0x100
        0x0001c6ec:    4669        iF      MOV      r1,sp
        0x0001c6ee:    4638        8F      MOV      r0,r7
        0x0001c6f0:    f7ffff1c    ....    BL       mbedtls_aes_setkey_enc ; 0x1c52c
        0x0001c6f4:    2800        .(      CMP      r0,#0
        0x0001c6f6:    d104        ..      BNE      0x1c702 ; mbedtls_ctr_drbg_seed_entropy_len + 74
        0x0001c6f8:    4652        RF      MOV      r2,r10
        0x0001c6fa:    4649        IF      MOV      r1,r9
        0x0001c6fc:    4620         F      MOV      r0,r4
        0x0001c6fe:    f7ffff93    ....    BL       mbedtls_ctr_drbg_reseed ; 0x1c628
        0x0001c702:    b008        ..      ADD      sp,sp,#0x20
        0x0001c704:    e8bd87f0    ....    POP      {r4-r10,pc}
    i.mbedtls_entropy_add_source
    mbedtls_entropy_add_source
        0x0001c708:    b570        p.      PUSH     {r4-r6,lr}
        0x0001c70a:    f8d040e0    ...@    LDR      r4,[r0,#0xe0]
        0x0001c70e:    2500        .%      MOVS     r5,#0
        0x0001c710:    9e04        ..      LDR      r6,[sp,#0x10]
        0x0001c712:    2c14        .,      CMP      r4,#0x14
        0x0001c714:    db02        ..      BLT      0x1c71c ; mbedtls_entropy_add_source + 20
        0x0001c716:    f06f053d    o.=.    MVN      r5,#0x3d
        0x0001c71a:    e00b        ..      B        0x1c734 ; mbedtls_entropy_add_source + 44
        0x0001c71c:    eb040484    ....    ADD      r4,r4,r4,LSL #2
        0x0001c720:    eb000484    ....    ADD      r4,r0,r4,LSL #2
        0x0001c724:    e9e41239    ..9.    STRD     r1,r2,[r4,#0xe4]!
        0x0001c728:    e9c43603    ...6    STRD     r3,r6,[r4,#0xc]
        0x0001c72c:    f8501fe0    P...    LDR      r1,[r0,#0xe0]!
        0x0001c730:    1c49        I.      ADDS     r1,r1,#1
        0x0001c732:    6001        .`      STR      r1,[r0,#0]
        0x0001c734:    4628        (F      MOV      r0,r5
        0x0001c736:    bd70        p.      POP      {r4-r6,pc}
    i.mbedtls_entropy_func
    mbedtls_entropy_func
        0x0001c738:    e92d47f0    -..G    PUSH     {r4-r10,lr}
        0x0001c73c:    2500        .%      MOVS     r5,#0
        0x0001c73e:    b090        ..      SUB      sp,sp,#0x40
        0x0001c740:    4691        .F      MOV      r9,r2
        0x0001c742:    468a        .F      MOV      r10,r1
        0x0001c744:    4604        .F      MOV      r4,r0
        0x0001c746:    f06f063b    o.;.    MVN      r6,#0x3b
        0x0001c74a:    2a40        @*      CMP      r2,#0x40
        0x0001c74c:    d903        ..      BLS      0x1c756 ; mbedtls_entropy_func + 30
        0x0001c74e:    4630        0F      MOV      r0,r6
        0x0001c750:    b010        ..      ADD      sp,sp,#0x40
        0x0001c752:    e8bd87f0    ....    POP      {r4-r10,pc}
        0x0001c756:    f44f7880    O..x    MOV      r8,#0x100
        0x0001c75a:    4628        (F      MOV      r0,r5
        0x0001c75c:    1c6d        m.      ADDS     r5,r5,#1
        0x0001c75e:    4540        @E      CMP      r0,r8
        0x0001c760:    dd01        ..      BLE      0x1c766 ; mbedtls_entropy_func + 46
        0x0001c762:    4637        7F      MOV      r7,r6
        0x0001c764:    e051        Q.      B        0x1c80a ; mbedtls_entropy_func + 210
        0x0001c766:    4620         F      MOV      r0,r4
        0x0001c768:    f7fffe1a    ....    BL       entropy_gather_internal ; 0x1c3a0
        0x0001c76c:    0007        ..      MOVS     r7,r0
        0x0001c76e:    d14c        L.      BNE      0x1c80a ; mbedtls_entropy_func + 210
        0x0001c770:    2201        ."      MOVS     r2,#1
        0x0001c772:    2100        .!      MOVS     r1,#0
        0x0001c774:    f8d430e0    ...0    LDR      r3,[r4,#0xe0]
        0x0001c778:    e009        ..      B        0x1c78e ; mbedtls_entropy_func + 86
        0x0001c77a:    eb010081    ....    ADD      r0,r1,r1,LSL #2
        0x0001c77e:    eb040080    ....    ADD      r0,r4,r0,LSL #2
        0x0001c782:    e9d0703b    ..;p    LDRD     r7,r0,[r0,#0xec]
        0x0001c786:    4287        .B      CMP      r7,r0
        0x0001c788:    d200        ..      BCS      0x1c78c ; mbedtls_entropy_func + 84
        0x0001c78a:    2200        ."      MOVS     r2,#0
        0x0001c78c:    1c49        I.      ADDS     r1,r1,#1
        0x0001c78e:    428b        .B      CMP      r3,r1
        0x0001c790:    dcf3        ..      BGT      0x1c77a ; mbedtls_entropy_func + 66
        0x0001c792:    2a00        .*      CMP      r2,#0
        0x0001c794:    d0e1        ..      BEQ      0x1c75a ; mbedtls_entropy_func + 34
        0x0001c796:    2140        @!      MOVS     r1,#0x40
        0x0001c798:    4668        hF      MOV      r0,sp
        0x0001c79a:    f7fbfec5    ....    BL       __aeabi_memclr4 ; 0x18528
        0x0001c79e:    f1040008    ....    ADD      r0,r4,#8
        0x0001c7a2:    4669        iF      MOV      r1,sp
        0x0001c7a4:    4605        .F      MOV      r5,r0
        0x0001c7a6:    f000fe3f    ..?.    BL       mbedtls_sha512_finish_ret ; 0x1d428
        0x0001c7aa:    0007        ..      MOVS     r7,r0
        0x0001c7ac:    d12d        -.      BNE      0x1c80a ; mbedtls_entropy_func + 210
        0x0001c7ae:    4628        (F      MOV      r0,r5
        0x0001c7b0:    f000ffc3    ....    BL       mbedtls_sha512_free ; 0x1d73a
        0x0001c7b4:    4628        (F      MOV      r0,r5
        0x0001c7b6:    f000ffc6    ....    BL       mbedtls_sha512_init ; 0x1d746
        0x0001c7ba:    2100        .!      MOVS     r1,#0
        0x0001c7bc:    4628        (F      MOV      r0,r5
        0x0001c7be:    f000ffe7    ....    BL       mbedtls_sha512_starts_ret ; 0x1d790
        0x0001c7c2:    0007        ..      MOVS     r7,r0
        0x0001c7c4:    d121        !.      BNE      0x1c80a ; mbedtls_entropy_func + 210
        0x0001c7c6:    2240        @"      MOVS     r2,#0x40
        0x0001c7c8:    4669        iF      MOV      r1,sp
        0x0001c7ca:    4628        (F      MOV      r0,r5
        0x0001c7cc:    f001f86a    ..j.    BL       mbedtls_sha512_update_ret ; 0x1d8a4
        0x0001c7d0:    0007        ..      MOVS     r7,r0
        0x0001c7d2:    d11a        ..      BNE      0x1c80a ; mbedtls_entropy_func + 210
        0x0001c7d4:    466a        jF      MOV      r2,sp
        0x0001c7d6:    2300        .#      MOVS     r3,#0
        0x0001c7d8:    2140        @!      MOVS     r1,#0x40
        0x0001c7da:    4610        .F      MOV      r0,r2
        0x0001c7dc:    f000ffb6    ....    BL       mbedtls_sha512_ret ; 0x1d74c
        0x0001c7e0:    0007        ..      MOVS     r7,r0
        0x0001c7e2:    d112        ..      BNE      0x1c80a ; mbedtls_entropy_func + 210
        0x0001c7e4:    4601        .F      MOV      r1,r0
        0x0001c7e6:    e006        ..      B        0x1c7f6 ; mbedtls_entropy_func + 190
        0x0001c7e8:    eb000280    ....    ADD      r2,r0,r0,LSL #2
        0x0001c7ec:    eb040282    ....    ADD      r2,r4,r2,LSL #2
        0x0001c7f0:    1c40        @.      ADDS     r0,r0,#1
        0x0001c7f2:    f8c210ec    ....    STR      r1,[r2,#0xec]
        0x0001c7f6:    f8d420e0    ...     LDR      r2,[r4,#0xe0]
        0x0001c7fa:    4282        .B      CMP      r2,r0
        0x0001c7fc:    dcf4        ..      BGT      0x1c7e8 ; mbedtls_entropy_func + 176
        0x0001c7fe:    464a        JF      MOV      r2,r9
        0x0001c800:    4669        iF      MOV      r1,sp
        0x0001c802:    4650        PF      MOV      r0,r10
        0x0001c804:    f7fbfd9e    ....    BL       __aeabi_memcpy ; 0x18344
        0x0001c808:    2700        .'      MOVS     r7,#0
        0x0001c80a:    2140        @!      MOVS     r1,#0x40
        0x0001c80c:    4668        hF      MOV      r0,sp
        0x0001c80e:    f000fe03    ....    BL       mbedtls_platform_zeroize ; 0x1d418
        0x0001c812:    4638        8F      MOV      r0,r7
        0x0001c814:    e79c        ..      B        0x1c750 ; mbedtls_entropy_func + 24
        0x0001c816:    0000        ..      MOVS     r0,r0
    i.mbedtls_entropy_init
    mbedtls_entropy_init
        0x0001c818:    b538        8.      PUSH     {r3-r5,lr}
        0x0001c81a:    2500        .%      MOVS     r5,#0
        0x0001c81c:    4604        .F      MOV      r4,r0
        0x0001c81e:    f8c050e0    ...P    STR      r5,[r0,#0xe0]
        0x0001c822:    f44f71c8    O..q    MOV      r1,#0x190
        0x0001c826:    30e4        .0      ADDS     r0,r0,#0xe4
        0x0001c828:    f7fbfe7e    ..~.    BL       __aeabi_memclr4 ; 0x18528
        0x0001c82c:    f1040008    ....    ADD      r0,r4,#8
        0x0001c830:    6025        %`      STR      r5,[r4,#0]
        0x0001c832:    f000ff88    ....    BL       mbedtls_sha512_init ; 0x1d746
        0x0001c836:    2001        .       MOVS     r0,#1
        0x0001c838:    9000        ..      STR      r0,[sp,#0]
        0x0001c83a:    2320         #      MOVS     r3,#0x20
        0x0001c83c:    2200        ."      MOVS     r2,#0
        0x0001c83e:    4902        .I      LDR      r1,[pc,#8] ; [0x1c848] = 0x1c859
        0x0001c840:    4620         F      MOV      r0,r4
        0x0001c842:    f7ffff61    ..a.    BL       mbedtls_entropy_add_source ; 0x1c708
        0x0001c846:    bd38        8.      POP      {r3-r5,pc}
    $d
        0x0001c848:    0001c859    Y...    DCD    116825
    $t
    i.mbedtls_free
    mbedtls_free
        0x0001c84c:    4901        .I      LDR      r1,[pc,#4] ; [0x1c854] = 0x1000000c
        0x0001c84e:    6849        Ih      LDR      r1,[r1,#4]
        0x0001c850:    4708        .G      BX       r1
    $d
        0x0001c852:    0000        ..      DCW    0
        0x0001c854:    1000000c    ....    DCD    268435468
    $t
    i.mbedtls_hardware_poll
    mbedtls_hardware_poll
        0x0001c858:    e92d43ff    -..C    PUSH     {r0-r9,lr}
        0x0001c85c:    b08d        ..      SUB      sp,sp,#0x34
        0x0001c85e:    461f        .F      MOV      r7,r3
        0x0001c860:    ea5f0801    _...    MOVS     r8,r1
        0x0001c864:    f04f0400    O...    MOV      r4,#0
        0x0001c868:    f04f35ff    O..5    MOV      r5,#0xffffffff
        0x0001c86c:    d017        ..      BEQ      0x1c89e ; mbedtls_hardware_poll + 70
        0x0001c86e:    b1b7        ..      CBZ      r7,0x1c89e ; mbedtls_hardware_poll + 70
        0x0001c870:    980f        ..      LDR      r0,[sp,#0x3c]
        0x0001c872:    b1a0        ..      CBZ      r0,0x1c89e ; mbedtls_hardware_poll + 70
        0x0001c874:    f44f7908    O..y    MOV      r9,#0x220
        0x0001c878:    4649        IF      MOV      r1,r9
        0x0001c87a:    2001        .       MOVS     r0,#1
        0x0001c87c:    f7fffe5a    ..Z.    BL       mbedtls_calloc ; 0x1c534
        0x0001c880:    0006        ..      MOVS     r6,r0
        0x0001c882:    d00c        ..      BEQ      0x1c89e ; mbedtls_hardware_poll + 70
        0x0001c884:    2104        .!      MOVS     r1,#4
        0x0001c886:    a80b        ..      ADD      r0,sp,#0x2c
        0x0001c888:    f7fefdcc    ....    BL       CC_PalMemSetZeroPlat ; 0x1b424
        0x0001c88c:    211c        .!      MOVS     r1,#0x1c
        0x0001c88e:    a804        ..      ADD      r0,sp,#0x10
        0x0001c890:    f7fefdc8    ....    BL       CC_PalMemSetZeroPlat ; 0x1b424
        0x0001c894:    a804        ..      ADD      r0,sp,#0x10
        0x0001c896:    f7fffa17    ....    BL       RNG_PLAT_SetUserRngParameters ; 0x1bcc8
        0x0001c89a:    b9c8        ..      CBNZ     r0,0x1c8d0 ; mbedtls_hardware_poll + 120
        0x0001c89c:    e001        ..      B        0x1c8a2 ; mbedtls_hardware_poll + 74
        0x0001c89e:    462c        ,F      MOV      r4,r5
        0x0001c8a0:    e022        ".      B        0x1c8e8 ; mbedtls_hardware_poll + 144
        0x0001c8a2:    2000        .       MOVS     r0,#0
        0x0001c8a4:    a90c        ..      ADD      r1,sp,#0x30
        0x0001c8a6:    e9cd1700    ....    STRD     r1,r7,[sp,#0]
        0x0001c8aa:    e9cd6002    ...`    STRD     r6,r0,[sp,#8]
        0x0001c8ae:    4602        .F      MOV      r2,r0
        0x0001c8b0:    ab0f        ..      ADD      r3,sp,#0x3c
        0x0001c8b2:    a904        ..      ADD      r1,sp,#0x10
        0x0001c8b4:    a80b        ..      ADD      r0,sp,#0x2c
        0x0001c8b6:    f7fefe7f    ....    BL       LLF_RND_GetTrngSource ; 0x1b5b8
        0x0001c8ba:    b948        H.      CBNZ     r0,0x1c8d0 ; mbedtls_hardware_poll + 120
        0x0001c8bc:    683a        :h      LDR      r2,[r7,#0]
        0x0001c8be:    980f        ..      LDR      r0,[sp,#0x3c]
        0x0001c8c0:    4282        .B      CMP      r2,r0
        0x0001c8c2:    d805        ..      BHI      0x1c8d0 ; mbedtls_hardware_poll + 120
        0x0001c8c4:    990c        ..      LDR      r1,[sp,#0x30]
        0x0001c8c6:    4640        @F      MOV      r0,r8
        0x0001c8c8:    3108        .1      ADDS     r1,r1,#8
        0x0001c8ca:    f7fefda1    ....    BL       CC_PalMemCopyPlat ; 0x1b410
        0x0001c8ce:    e000        ..      B        0x1c8d2 ; mbedtls_hardware_poll + 122
        0x0001c8d0:    462c        ,F      MOV      r4,r5
        0x0001c8d2:    4649        IF      MOV      r1,r9
        0x0001c8d4:    4630        0F      MOV      r0,r6
        0x0001c8d6:    f001f82a    ..*.    BL       mbedtls_zeroize_internal ; 0x1d92e
        0x0001c8da:    4630        0F      MOV      r0,r6
        0x0001c8dc:    f7ffffb6    ....    BL       mbedtls_free ; 0x1c84c
        0x0001c8e0:    2104        .!      MOVS     r1,#4
        0x0001c8e2:    a80b        ..      ADD      r0,sp,#0x2c
        0x0001c8e4:    f001f823    ..#.    BL       mbedtls_zeroize_internal ; 0x1d92e
        0x0001c8e8:    b011        ..      ADD      sp,sp,#0x44
        0x0001c8ea:    4620         F      MOV      r0,r4
        0x0001c8ec:    e8bd83f0    ....    POP      {r4-r9,pc}
    i.mbedtls_internal_sha512_process
    mbedtls_internal_sha512_process
        0x0001c8f0:    e92d4ff3    -..O    PUSH     {r0,r1,r4-r11,lr}
        0x0001c8f4:    f5ad7d41    ..A}    SUB      sp,sp,#0x304
        0x0001c8f8:    2000        .       MOVS     r0,#0
        0x0001c8fa:    466f        oF      MOV      r7,sp
        0x0001c8fc:    eb0102c0    ....    ADD      r2,r1,r0,LSL #3
        0x0001c900:    6813        .h      LDR      r3,[r2,#0]
        0x0001c902:    78d4        .x      LDRB     r4,[r2,#3]
        0x0001c904:    ba1b        ..      REV      r3,r3
        0x0001c906:    f02303ff    #...    BIC      r3,r3,#0xff
        0x0001c90a:    4323        #C      ORRS     r3,r3,r4
        0x0001c90c:    7914        .y      LDRB     r4,[r2,#4]
        0x0001c90e:    7956        Vy      LDRB     r6,[r2,#5]
        0x0001c910:    0a25        %.      LSRS     r5,r4,#8
        0x0001c912:    432b        +C      ORRS     r3,r3,r5
        0x0001c914:    0624        $.      LSLS     r4,r4,#24
        0x0001c916:    7995        .y      LDRB     r5,[r2,#6]
        0x0001c918:    ea444406    D..D    ORR      r4,r4,r6,LSL #16
        0x0001c91c:    79d2        .y      LDRB     r2,[r2,#7]
        0x0001c91e:    ea442405    D..$    ORR      r4,r4,r5,LSL #8
        0x0001c922:    4314        .C      ORRS     r4,r4,r2
        0x0001c924:    eb0702c0    ....    ADD      r2,r7,r0,LSL #3
        0x0001c928:    ea434316    C..C    ORR      r3,r3,r6,LSR #16
        0x0001c92c:    ea436315    C..c    ORR      r3,r3,r5,LSR #24
        0x0001c930:    e9c24300    ...C    STRD     r4,r3,[r2,#0]
        0x0001c934:    1c40        @.      ADDS     r0,r0,#1
        0x0001c936:    2810        .(      CMP      r0,#0x10
        0x0001c938:    dbe0        ..      BLT      0x1c8fc ; mbedtls_internal_sha512_process + 12
        0x0001c93a:    e044        D.      B        0x1c9c6 ; mbedtls_internal_sha512_process + 214
        0x0001c93c:    4669        iF      MOV      r1,sp
        0x0001c93e:    eb0101c0    ....    ADD      r1,r1,r0,LSL #3
        0x0001c942:    e9513204    Q..2    LDRD     r3,r2,[r1,#-0x10]
        0x0001c946:    0cd5        ..      LSRS     r5,r2,#19
        0x0001c948:    00d7        ..      LSLS     r7,r2,#3
        0x0001c94a:    0cde        ..      LSRS     r6,r3,#19
        0x0001c94c:    ea453543    E.C5    ORR      r5,r5,r3,LSL #13
        0x0001c950:    0f54        T.      LSRS     r4,r2,#29
        0x0001c952:    ea477753    G.Sw    ORR      r7,r7,r3,LSR #29
        0x0001c956:    ea4404c3    D...    ORR      r4,r4,r3,LSL #3
        0x0001c95a:    ea463642    F.B6    ORR      r6,r6,r2,LSL #13
        0x0001c95e:    099b        ..      LSRS     r3,r3,#6
        0x0001c960:    4066        f@      EORS     r6,r6,r4
        0x0001c962:    407d        }@      EORS     r5,r5,r7
        0x0001c964:    ea436382    C..c    ORR      r3,r3,r2,LSL #26
        0x0001c968:    405e        ^@      EORS     r6,r6,r3
        0x0001c96a:    ea851592    ....    EOR      r5,r5,r2,LSR #6
        0x0001c96e:    e951321e    Q..2    LDRD     r3,r2,[r1,#-0x78]
        0x0001c972:    3980        .9      SUBS     r1,r1,#0x80
        0x0001c974:    0857        W.      LSRS     r7,r2,#1
        0x0001c976:    469a        .F      MOV      r10,r3
        0x0001c978:    ea4f0433    O.3.    RRX      r4,r3
        0x0001c97c:    f8918008    ....    LDRB     r8,[r1,#8]
        0x0001c980:    ea4f2313    O..#    LSR      r3,r3,#8
        0x0001c984:    ea436302    C..c    ORR      r3,r3,r2,LSL #24
        0x0001c988:    ea4f2c12    O..,    LSR      r12,r2,#8
        0x0001c98c:    ea840403    ....    EOR      r4,r4,r3
        0x0001c990:    ea477bc8    G..{    ORR      r11,r7,r8,LSL #31
        0x0001c994:    ea4c6c08    L..l    ORR      r12,r12,r8,LSL #24
        0x0001c998:    ea4f13da    O...    LSR      r3,r10,#7
        0x0001c99c:    ea8b070c    ....    EOR      r7,r11,r12
        0x0001c9a0:    ea436342    C.Bc    ORR      r3,r3,r2,LSL #25
        0x0001c9a4:    ea840403    ....    EOR      r4,r4,r3
        0x0001c9a8:    ea8717d2    ....    EOR      r7,r7,r2,LSR #7
        0x0001c9ac:    1932        2.      ADDS     r2,r6,r4
        0x0001c9ae:    e9d14312    ...C    LDRD     r4,r3,[r1,#0x48]
        0x0001c9b2:    417d        }A      ADCS     r5,r5,r7
        0x0001c9b4:    e9d16700    ...g    LDRD     r6,r7,[r1,#0]
        0x0001c9b8:    19a4        ..      ADDS     r4,r4,r6
        0x0001c9ba:    417b        {A      ADCS     r3,r3,r7
        0x0001c9bc:    1912        ..      ADDS     r2,r2,r4
        0x0001c9be:    415d        ]A      ADCS     r5,r5,r3
        0x0001c9c0:    e9c12520    .. %    STRD     r2,r5,[r1,#0x80]
        0x0001c9c4:    1c40        @.      ADDS     r0,r0,#1
        0x0001c9c6:    2850        P(      CMP      r0,#0x50
        0x0001c9c8:    dbb8        ..      BLT      0x1c93c ; mbedtls_internal_sha512_process + 76
        0x0001c9ca:    99c1        ..      LDR      r1,[sp,#0x304]
        0x0001c9cc:    e9d10304    ....    LDRD     r0,r3,[r1,#0x10]
        0x0001c9d0:    4686        .F      MOV      lr,r0
        0x0001c9d2:    90c0        ..      STR      r0,[sp,#0x300]
        0x0001c9d4:    4608        .F      MOV      r0,r1
        0x0001c9d6:    93bd        ..      STR      r3,[sp,#0x2f4]
        0x0001c9d8:    e9d01006    ....    LDRD     r1,r0,[r0,#0x18]
        0x0001c9dc:    91be        ..      STR      r1,[sp,#0x2f8]
        0x0001c9de:    91a6        ..      STR      r1,[sp,#0x298]
        0x0001c9e0:    99c1        ..      LDR      r1,[sp,#0x304]
        0x0001c9e2:    90bb        ..      STR      r0,[sp,#0x2ec]
        0x0001c9e4:    e9d12108    ...!    LDRD     r2,r1,[r1,#0x20]
        0x0001c9e8:    92bc        ..      STR      r2,[sp,#0x2f0]
        0x0001c9ea:    92a4        ..      STR      r2,[sp,#0x290]
        0x0001c9ec:    9ac1        ..      LDR      r2,[sp,#0x304]
        0x0001c9ee:    91b9        ..      STR      r1,[sp,#0x2e4]
        0x0001c9f0:    e9d2420a    ...B    LDRD     r4,r2,[r2,#0x28]
        0x0001c9f4:    92b7        ..      STR      r2,[sp,#0x2dc]
        0x0001c9f6:    9dc1        ..      LDR      r5,[sp,#0x304]
        0x0001c9f8:    94ba        ..      STR      r4,[sp,#0x2e8]
        0x0001c9fa:    94a2        ..      STR      r4,[sp,#0x288]
        0x0001c9fc:    e9d5450c    ...E    LDRD     r4,r5,[r5,#0x30]
        0x0001ca00:    95b5        ..      STR      r5,[sp,#0x2d4]
        0x0001ca02:    95a7        ..      STR      r5,[sp,#0x29c]
        0x0001ca04:    9dc1        ..      LDR      r5,[sp,#0x304]
        0x0001ca06:    94b8        ..      STR      r4,[sp,#0x2e0]
        0x0001ca08:    94aa        ..      STR      r4,[sp,#0x2a8]
        0x0001ca0a:    e9d5450e    ...E    LDRD     r4,r5,[r5,#0x38]
        0x0001ca0e:    95b3        ..      STR      r5,[sp,#0x2cc]
        0x0001ca10:    95a9        ..      STR      r5,[sp,#0x2a4]
        0x0001ca12:    9dc1        ..      LDR      r5,[sp,#0x304]
        0x0001ca14:    46a2        .F      MOV      r10,r4
        0x0001ca16:    94b6        ..      STR      r4,[sp,#0x2d8]
        0x0001ca18:    e9d54510    ...E    LDRD     r4,r5,[r5,#0x40]
        0x0001ca1c:    95b1        ..      STR      r5,[sp,#0x2c4]
        0x0001ca1e:    95a3        ..      STR      r5,[sp,#0x28c]
        0x0001ca20:    9dc1        ..      LDR      r5,[sp,#0x304]
        0x0001ca22:    46a1        .F      MOV      r9,r4
        0x0001ca24:    94b4        ..      STR      r4,[sp,#0x2d0]
        0x0001ca26:    e9d54512    ...E    LDRD     r4,r5,[r5,#0x48]
        0x0001ca2a:    94b2        ..      STR      r4,[sp,#0x2c8]
        0x0001ca2c:    94a8        ..      STR      r4,[sp,#0x2a0]
        0x0001ca2e:    95af        ..      STR      r5,[sp,#0x2bc]
        0x0001ca30:    2400        .$      MOVS     r4,#0
        0x0001ca32:    e9cd45a0    ...E    STRD     r4,r5,[sp,#0x280]
        0x0001ca36:    9daa        ..      LDR      r5,[sp,#0x2a8]
        0x0001ca38:    9ca7        ..      LDR      r4,[sp,#0x29c]
        0x0001ca3a:    0baf        ..      LSRS     r7,r5,#14
        0x0001ca3c:    0ba6        ..      LSRS     r6,r4,#14
        0x0001ca3e:    ea464685    F..F    ORR      r6,r6,r5,LSL #18
        0x0001ca42:    0cad        ..      LSRS     r5,r5,#18
        0x0001ca44:    ea474784    G..G    ORR      r7,r7,r4,LSL #18
        0x0001ca48:    ea453584    E..5    ORR      r5,r5,r4,LSL #14
        0x0001ca4c:    f8ddc2a8    ....    LDR      r12,[sp,#0x2a8]
        0x0001ca50:    0ca4        ..      LSRS     r4,r4,#18
        0x0001ca52:    ea44348c    D..4    ORR      r4,r4,r12,LSL #14
        0x0001ca56:    406f        o@      EORS     r7,r7,r5
        0x0001ca58:    4066        f@      EORS     r6,r6,r4
        0x0001ca5a:    9ca7        ..      LDR      r4,[sp,#0x29c]
        0x0001ca5c:    9da7        ..      LDR      r5,[sp,#0x29c]
        0x0001ca5e:    0a64        d.      LSRS     r4,r4,#9
        0x0001ca60:    ea4454cc    D..T    ORR      r4,r4,r12,LSL #23
        0x0001ca64:    05ed        ..      LSLS     r5,r5,#23
        0x0001ca66:    ea45255c    E.\%    ORR      r5,r5,r12,LSR #9
        0x0001ca6a:    4067        g@      EORS     r7,r7,r4
        0x0001ca6c:    406e        n@      EORS     r6,r6,r5
        0x0001ca6e:    f8dd82a8    ....    LDR      r8,[sp,#0x2a8]
        0x0001ca72:    ea8a0409    ....    EOR      r4,r10,r9
        0x0001ca76:    f8ddc28c    ....    LDR      r12,[sp,#0x28c]
        0x0001ca7a:    9da9        ..      LDR      r5,[sp,#0x2a4]
        0x0001ca7c:    ea040408    ....    AND      r4,r4,r8
        0x0001ca80:    ea85050c    ....    EOR      r5,r5,r12
        0x0001ca84:    f8ddc29c    ....    LDR      r12,[sp,#0x29c]
        0x0001ca88:    ea840409    ....    EOR      r4,r4,r9
        0x0001ca8c:    f8dd828c    ....    LDR      r8,[sp,#0x28c]
        0x0001ca90:    ea05050c    ....    AND      r5,r5,r12
        0x0001ca94:    193f        ?.      ADDS     r7,r7,r4
        0x0001ca96:    ea850508    ....    EOR      r5,r5,r8
        0x0001ca9a:    416e        nA      ADCS     r6,r6,r5
        0x0001ca9c:    4cfe        .L      LDR      r4,[pc,#1016] ; [0x1ce98] = 0x1db20
        0x0001ca9e:    9da0        ..      LDR      r5,[sp,#0x280]
        0x0001caa0:    f8ddc284    ....    LDR      r12,[sp,#0x284]
        0x0001caa4:    eb0404c5    ....    ADD      r4,r4,r5,LSL #3
        0x0001caa8:    9da8        ..      LDR      r5,[sp,#0x2a0]
        0x0001caaa:    e9d48400    ....    LDRD     r8,r4,[r4,#0]
        0x0001caae:    eb180505    ....    ADDS     r5,r8,r5
        0x0001cab2:    eb44040c    D...    ADC      r4,r4,r12
        0x0001cab6:    197d        }.      ADDS     r5,r7,r5
        0x0001cab8:    4166        fA      ADCS     r6,r6,r4
        0x0001caba:    9fa0        ..      LDR      r7,[sp,#0x280]
        0x0001cabc:    466c        lF      MOV      r4,sp
        0x0001cabe:    eb0404c7    ....    ADD      r4,r4,r7,LSL #3
        0x0001cac2:    ea430800    C...    ORR      r8,r3,r0
        0x0001cac6:    e9d47400    ...t    LDRD     r7,r4,[r4,#0]
        0x0001caca:    19ef        ..      ADDS     r7,r5,r7
        0x0001cacc:    4166        fA      ADCS     r6,r6,r4
        0x0001cace:    97ac        ..      STR      r7,[sp,#0x2b0]
        0x0001cad0:    ea4f771e    O..w    LSR      r7,lr,#28
        0x0001cad4:    089d        ..      LSRS     r5,r3,#2
        0x0001cad6:    ea471703    G...    ORR      r7,r7,r3,LSL #4
        0x0001cada:    ea45758e    E..u    ORR      r5,r5,lr,LSL #30
        0x0001cade:    406f        o@      EORS     r7,r7,r5
        0x0001cae0:    09dd        ..      LSRS     r5,r3,#7
        0x0001cae2:    96a5        ..      STR      r6,[sp,#0x294]
        0x0001cae4:    0f1c        ..      LSRS     r4,r3,#28
        0x0001cae6:    079e        ..      LSLS     r6,r3,#30
        0x0001cae8:    ea44140e    D...    ORR      r4,r4,lr,LSL #4
        0x0001caec:    ea46069e    F...    ORR      r6,r6,lr,LSR #2
        0x0001caf0:    ea45654e    E.Ne    ORR      r5,r5,lr,LSL #25
        0x0001caf4:    4074        t@      EORS     r4,r4,r6
        0x0001caf6:    406f        o@      EORS     r7,r7,r5
        0x0001caf8:    065e        ^.      LSLS     r6,r3,#25
        0x0001cafa:    ea4616de    F...    ORR      r6,r6,lr,LSR #7
        0x0001cafe:    4074        t@      EORS     r4,r4,r6
        0x0001cb00:    9da6        ..      LDR      r5,[sp,#0x298]
        0x0001cb02:    ea030600    ....    AND      r6,r3,r0
        0x0001cb06:    96a1        ..      STR      r6,[sp,#0x284]
        0x0001cb08:    ea0e0c05    ....    AND      r12,lr,r5
        0x0001cb0c:    9ea4        ..      LDR      r6,[sp,#0x290]
        0x0001cb0e:    ea4e0505    N...    ORR      r5,lr,r5
        0x0001cb12:    4035        5@      ANDS     r5,r5,r6
        0x0001cb14:    ea4c0c05    L...    ORR      r12,r12,r5
        0x0001cb18:    9ea1        ..      LDR      r6,[sp,#0x284]
        0x0001cb1a:    eb17050c    ....    ADDS     r5,r7,r12
        0x0001cb1e:    ea080801    ....    AND      r8,r8,r1
        0x0001cb22:    ea460608    F...    ORR      r6,r6,r8
        0x0001cb26:    4174        tA      ADCS     r4,r4,r6
        0x0001cb28:    f8ddc288    ....    LDR      r12,[sp,#0x288]
        0x0001cb2c:    9fac        ..      LDR      r7,[sp,#0x2b0]
        0x0001cb2e:    9ea5        ..      LDR      r6,[sp,#0x294]
        0x0001cb30:    eb1c0707    ....    ADDS     r7,r12,r7
        0x0001cb34:    4172        rA      ADCS     r2,r2,r6
        0x0001cb36:    97a2        ..      STR      r7,[sp,#0x288]
        0x0001cb38:    9fac        ..      LDR      r7,[sp,#0x2b0]
        0x0001cb3a:    92ab        ..      STR      r2,[sp,#0x2ac]
        0x0001cb3c:    197f        ..      ADDS     r7,r7,r5
        0x0001cb3e:    4166        fA      ADCS     r6,r6,r4
        0x0001cb40:    97a8        ..      STR      r7,[sp,#0x2a0]
        0x0001cb42:    9fa2        ..      LDR      r7,[sp,#0x288]
        0x0001cb44:    ea4f3892    O..8    LSR      r8,r2,#14
        0x0001cb48:    0bbc        ..      LSRS     r4,r7,#14
        0x0001cb4a:    0cbd        ..      LSRS     r5,r7,#18
        0x0001cb4c:    ea444482    D..D    ORR      r4,r4,r2,LSL #18
        0x0001cb50:    ea453582    E..5    ORR      r5,r5,r2,LSL #14
        0x0001cb54:    96a1        ..      STR      r6,[sp,#0x284]
        0x0001cb56:    0c92        ..      LSRS     r2,r2,#18
        0x0001cb58:    ea484887    H..H    ORR      r8,r8,r7,LSL #18
        0x0001cb5c:    ea423287    B..2    ORR      r2,r2,r7,LSL #14
        0x0001cb60:    ea880802    ....    EOR      r8,r8,r2
        0x0001cb64:    9aab        ..      LDR      r2,[sp,#0x2ac]
        0x0001cb66:    406c        l@      EORS     r4,r4,r5
        0x0001cb68:    0a55        U.      LSRS     r5,r2,#9
        0x0001cb6a:    9ea0        ..      LDR      r6,[sp,#0x280]
        0x0001cb6c:    05d2        ..      LSLS     r2,r2,#23
        0x0001cb6e:    ea422257    B.W"    ORR      r2,r2,r7,LSR #9
        0x0001cb72:    1c76        v.      ADDS     r6,r6,#1
        0x0001cb74:    96a0        ..      STR      r6,[sp,#0x280]
        0x0001cb76:    ea880802    ....    EOR      r8,r8,r2
        0x0001cb7a:    ea4555c7    E..U    ORR      r5,r5,r7,LSL #23
        0x0001cb7e:    e9dd26a9    ...&    LDRD     r2,r6,[sp,#0x2a4]
        0x0001cb82:    406c        l@      EORS     r4,r4,r5
        0x0001cb84:    9da7        ..      LDR      r5,[sp,#0x29c]
        0x0001cb86:    9fa2        ..      LDR      r7,[sp,#0x288]
        0x0001cb88:    ea86060a    ....    EOR      r6,r6,r10
        0x0001cb8c:    4055        U@      EORS     r5,r5,r2
        0x0001cb8e:    403e        >@      ANDS     r6,r6,r7
        0x0001cb90:    9aab        ..      LDR      r2,[sp,#0x2ac]
        0x0001cb92:    ea86060a    ....    EOR      r6,r6,r10
        0x0001cb96:    4015        .@      ANDS     r5,r5,r2
        0x0001cb98:    19a2        ..      ADDS     r2,r4,r6
        0x0001cb9a:    9fa9        ..      LDR      r7,[sp,#0x2a4]
        0x0001cb9c:    4cbe        .L      LDR      r4,[pc,#760] ; [0x1ce98] = 0x1db20
        0x0001cb9e:    9ea0        ..      LDR      r6,[sp,#0x280]
        0x0001cba0:    407d        }@      EORS     r5,r5,r7
        0x0001cba2:    eb0404c6    ....    ADD      r4,r4,r6,LSL #3
        0x0001cba6:    eb480805    H...    ADC      r8,r8,r5
        0x0001cbaa:    e9d45400    ...T    LDRD     r5,r4,[r4,#0]
        0x0001cbae:    9fa3        ..      LDR      r7,[sp,#0x28c]
        0x0001cbb0:    eb150509    ....    ADDS     r5,r5,r9
        0x0001cbb4:    417c        |A      ADCS     r4,r4,r7
        0x0001cbb6:    1952        R.      ADDS     r2,r2,r5
        0x0001cbb8:    eb480804    H...    ADC      r8,r8,r4
        0x0001cbbc:    466c        lF      MOV      r4,sp
        0x0001cbbe:    eb0404c6    ....    ADD      r4,r4,r6,LSL #3
        0x0001cbc2:    9ea1        ..      LDR      r6,[sp,#0x284]
        0x0001cbc4:    e9d45400    ...T    LDRD     r5,r4,[r4,#0]
        0x0001cbc8:    eb120905    ....    ADDS     r9,r2,r5
        0x0001cbcc:    eb480804    H...    ADC      r8,r8,r4
        0x0001cbd0:    9fa8        ..      LDR      r7,[sp,#0x2a0]
        0x0001cbd2:    0f32        2.      LSRS     r2,r6,#28
        0x0001cbd4:    0f3c        <.      LSRS     r4,r7,#28
        0x0001cbd6:    ea441406    D...    ORR      r4,r4,r6,LSL #4
        0x0001cbda:    08b5        ..      LSRS     r5,r6,#2
        0x0001cbdc:    ea421207    B...    ORR      r2,r2,r7,LSL #4
        0x0001cbe0:    07b6        ..      LSLS     r6,r6,#30
        0x0001cbe2:    ea460697    F...    ORR      r6,r6,r7,LSR #2
        0x0001cbe6:    4072        r@      EORS     r2,r2,r6
        0x0001cbe8:    ea457587    E..u    ORR      r5,r5,r7,LSL #30
        0x0001cbec:    9ea1        ..      LDR      r6,[sp,#0x284]
        0x0001cbee:    406c        l@      EORS     r4,r4,r5
        0x0001cbf0:    09f5        ..      LSRS     r5,r6,#7
        0x0001cbf2:    0676        v.      LSLS     r6,r6,#25
        0x0001cbf4:    ea456547    E.Ge    ORR      r5,r5,r7,LSL #25
        0x0001cbf8:    ea4616d7    F...    ORR      r6,r6,r7,LSR #7
        0x0001cbfc:    9fa8        ..      LDR      r7,[sp,#0x2a0]
        0x0001cbfe:    f8ddc298    ....    LDR      r12,[sp,#0x298]
        0x0001cc02:    ea07070e    ....    AND      r7,r7,lr
        0x0001cc06:    97a3        ..      STR      r7,[sp,#0x28c]
        0x0001cc08:    9fa8        ..      LDR      r7,[sp,#0x2a0]
        0x0001cc0a:    406c        l@      EORS     r4,r4,r5
        0x0001cc0c:    ea47070e    G...    ORR      r7,r7,lr
        0x0001cc10:    4072        r@      EORS     r2,r2,r6
        0x0001cc12:    9da1        ..      LDR      r5,[sp,#0x284]
        0x0001cc14:    ea07070c    ....    AND      r7,r7,r12
        0x0001cc18:    9ea1        ..      LDR      r6,[sp,#0x284]
        0x0001cc1a:    f8ddc28c    ....    LDR      r12,[sp,#0x28c]
        0x0001cc1e:    431d        .C      ORRS     r5,r5,r3
        0x0001cc20:    401e        .@      ANDS     r6,r6,r3
        0x0001cc22:    4005        .@      ANDS     r5,r5,r0
        0x0001cc24:    ea4c0c07    L...    ORR      r12,r12,r7
        0x0001cc28:    432e        .C      ORRS     r6,r6,r5
        0x0001cc2a:    eb14040c    ....    ADDS     r4,r4,r12
        0x0001cc2e:    4172        rA      ADCS     r2,r2,r6
        0x0001cc30:    9ea4        ..      LDR      r6,[sp,#0x290]
        0x0001cc32:    464d        MF      MOV      r5,r9
        0x0001cc34:    1976        v.      ADDS     r6,r6,r5
        0x0001cc36:    eb410108    A...    ADC      r1,r1,r8
        0x0001cc3a:    eb190904    ....    ADDS     r9,r9,r4
        0x0001cc3e:    e9cd19ad    ....    STRD     r1,r9,[sp,#0x2b4]
        0x0001cc42:    eb480802    H...    ADC      r8,r8,r2
        0x0001cc46:    e9cd86a3    ....    STRD     r8,r6,[sp,#0x28c]
        0x0001cc4a:    9ea0        ..      LDR      r6,[sp,#0x280]
        0x0001cc4c:    0b8d        ..      LSRS     r5,r1,#14
        0x0001cc4e:    1c76        v.      ADDS     r6,r6,#1
        0x0001cc50:    96a0        ..      STR      r6,[sp,#0x280]
        0x0001cc52:    9ea4        ..      LDR      r6,[sp,#0x290]
        0x0001cc54:    9fa2        ..      LDR      r7,[sp,#0x288]
        0x0001cc56:    0bb4        ..      LSRS     r4,r6,#14
        0x0001cc58:    ea444481    D..D    ORR      r4,r4,r1,LSL #18
        0x0001cc5c:    99ad        ..      LDR      r1,[sp,#0x2b4]
        0x0001cc5e:    0cb2        ..      LSRS     r2,r6,#18
        0x0001cc60:    ea423281    B..2    ORR      r2,r2,r1,LSL #14
        0x0001cc64:    0c89        ..      LSRS     r1,r1,#18
        0x0001cc66:    ea454586    E..E    ORR      r5,r5,r6,LSL #18
        0x0001cc6a:    ea413186    A..1    ORR      r1,r1,r6,LSL #14
        0x0001cc6e:    404d        M@      EORS     r5,r5,r1
        0x0001cc70:    99ad        ..      LDR      r1,[sp,#0x2b4]
        0x0001cc72:    4054        T@      EORS     r4,r4,r2
        0x0001cc74:    0a4a        J.      LSRS     r2,r1,#9
        0x0001cc76:    05c9        ..      LSLS     r1,r1,#23
        0x0001cc78:    ea412156    A.V!    ORR      r1,r1,r6,LSR #9
        0x0001cc7c:    ea4252c6    B..R    ORR      r2,r2,r6,LSL #23
        0x0001cc80:    4054        T@      EORS     r4,r4,r2
        0x0001cc82:    e9dd62aa    ...b    LDRD     r6,r2,[sp,#0x2a8]
        0x0001cc86:    404d        M@      EORS     r5,r5,r1
        0x0001cc88:    99a7        ..      LDR      r1,[sp,#0x29c]
        0x0001cc8a:    4077        w@      EORS     r7,r7,r6
        0x0001cc8c:    404a        J@      EORS     r2,r2,r1
        0x0001cc8e:    9ea4        ..      LDR      r6,[sp,#0x290]
        0x0001cc90:    99ad        ..      LDR      r1,[sp,#0x2b4]
        0x0001cc92:    4037        7@      ANDS     r7,r7,r6
        0x0001cc94:    400a        .@      ANDS     r2,r2,r1
        0x0001cc96:    99aa        ..      LDR      r1,[sp,#0x2a8]
        0x0001cc98:    9ea7        ..      LDR      r6,[sp,#0x29c]
        0x0001cc9a:    404f        O@      EORS     r7,r7,r1
        0x0001cc9c:    4072        r@      EORS     r2,r2,r6
        0x0001cc9e:    19e1        ..      ADDS     r1,r4,r7
        0x0001cca0:    4155        UA      ADCS     r5,r5,r2
        0x0001cca2:    4a7d        }J      LDR      r2,[pc,#500] ; [0x1ce98] = 0x1db20
        0x0001cca4:    9ea0        ..      LDR      r6,[sp,#0x280]
        0x0001cca6:    9fa9        ..      LDR      r7,[sp,#0x2a4]
        0x0001cca8:    eb0202c6    ....    ADD      r2,r2,r6,LSL #3
        0x0001ccac:    e9d26200    ...b    LDRD     r6,r2,[r2,#0]
        0x0001ccb0:    eb16040a    ....    ADDS     r4,r6,r10
        0x0001ccb4:    417a        zA      ADCS     r2,r2,r7
        0x0001ccb6:    190c        ..      ADDS     r4,r1,r4
        0x0001ccb8:    9ea0        ..      LDR      r6,[sp,#0x280]
        0x0001ccba:    4669        iF      MOV      r1,sp
        0x0001ccbc:    eb0101c6    ....    ADD      r1,r1,r6,LSL #3
        0x0001ccc0:    4155        UA      ADCS     r5,r5,r2
        0x0001ccc2:    e9d12100    ...!    LDRD     r2,r1,[r1,#0]
        0x0001ccc6:    18a4        ..      ADDS     r4,r4,r2
        0x0001ccc8:    eb450a01    E...    ADC      r10,r5,r1
        0x0001cccc:    94ac        ..      STR      r4,[sp,#0x2b0]
        0x0001ccce:    ea4f7219    O..r    LSR      r2,r9,#28
        0x0001ccd2:    ea4f0498    O...    LSR      r4,r8,#2
        0x0001ccd6:    ea421208    B...    ORR      r2,r2,r8,LSL #4
        0x0001ccda:    ea447489    D..t    ORR      r4,r4,r9,LSL #30
        0x0001ccde:    ea4f7118    O..q    LSR      r1,r8,#28
        0x0001cce2:    ea4f7588    O..u    LSL      r5,r8,#30
        0x0001cce6:    4062        b@      EORS     r2,r2,r4
        0x0001cce8:    ea411109    A...    ORR      r1,r1,r9,LSL #4
        0x0001ccec:    ea450599    E...    ORR      r5,r5,r9,LSR #2
        0x0001ccf0:    ea4f14d8    O...    LSR      r4,r8,#7
        0x0001ccf4:    4069        i@      EORS     r1,r1,r5
        0x0001ccf6:    ea4f6548    O.He    LSL      r5,r8,#25
        0x0001ccfa:    ea446449    D.Id    ORR      r4,r4,r9,LSL #25
        0x0001ccfe:    4062        b@      EORS     r2,r2,r4
        0x0001cd00:    9ea1        ..      LDR      r6,[sp,#0x284]
        0x0001cd02:    ea4515d9    E...    ORR      r5,r5,r9,LSR #7
        0x0001cd06:    9fa8        ..      LDR      r7,[sp,#0x2a0]
        0x0001cd08:    9ca3        ..      LDR      r4,[sp,#0x28c]
        0x0001cd0a:    ea090c07    ....    AND      r12,r9,r7
        0x0001cd0e:    4334        4C      ORRS     r4,r4,r6
        0x0001cd10:    ea080806    ....    AND      r8,r8,r6
        0x0001cd14:    ea490907    I...    ORR      r9,r9,r7
        0x0001cd18:    ea09090e    ....    AND      r9,r9,lr
        0x0001cd1c:    401c        .@      ANDS     r4,r4,r3
        0x0001cd1e:    4069        i@      EORS     r1,r1,r5
        0x0001cd20:    ea4c0c09    L...    ORR      r12,r12,r9
        0x0001cd24:    ea480804    H...    ORR      r8,r8,r4
        0x0001cd28:    eb12020c    ....    ADDS     r2,r2,r12
        0x0001cd2c:    9ea6        ..      LDR      r6,[sp,#0x298]
        0x0001cd2e:    9cac        ..      LDR      r4,[sp,#0x2b0]
        0x0001cd30:    eb410108    A...    ADC      r1,r1,r8
        0x0001cd34:    1937        7.      ADDS     r7,r6,r4
        0x0001cd36:    eb400c0a    @...    ADC      r12,r0,r10
        0x0001cd3a:    4655        UF      MOV      r5,r10
        0x0001cd3c:    eb140a02    ....    ADDS     r10,r4,r2
        0x0001cd40:    414d        MA      ADCS     r5,r5,r1
        0x0001cd42:    9ea0        ..      LDR      r6,[sp,#0x280]
        0x0001cd44:    0bb8        ..      LSRS     r0,r7,#14
        0x0001cd46:    1c76        v.      ADDS     r6,r6,#1
        0x0001cd48:    ea4f349c    O..4    LSR      r4,r12,#14
        0x0001cd4c:    0cb9        ..      LSRS     r1,r7,#18
        0x0001cd4e:    ea4f429c    O..B    LSR      r2,r12,#18
        0x0001cd52:    ea40408c    @..@    ORR      r0,r0,r12,LSL #18
        0x0001cd56:    ea444487    D..D    ORR      r4,r4,r7,LSL #18
        0x0001cd5a:    ea41318c    A..1    ORR      r1,r1,r12,LSL #14
        0x0001cd5e:    ea423287    B..2    ORR      r2,r2,r7,LSL #14
        0x0001cd62:    4048        H@      EORS     r0,r0,r1
        0x0001cd64:    4054        T@      EORS     r4,r4,r2
        0x0001cd66:    ea4f215c    O.\!    LSR      r1,r12,#9
        0x0001cd6a:    ea4f52cc    O..R    LSL      r2,r12,#23
        0x0001cd6e:    f8cdc2a4    ....    STR      r12,[sp,#0x2a4]
        0x0001cd72:    97a6        ..      STR      r7,[sp,#0x298]
        0x0001cd74:    ea422257    B.W"    ORR      r2,r2,r7,LSR #9
        0x0001cd78:    ea4151c7    A..Q    ORR      r1,r1,r7,LSL #23
        0x0001cd7c:    96a0        ..      STR      r6,[sp,#0x280]
        0x0001cd7e:    9fa2        ..      LDR      r7,[sp,#0x288]
        0x0001cd80:    9ea4        ..      LDR      r6,[sp,#0x290]
        0x0001cd82:    4048        H@      EORS     r0,r0,r1
        0x0001cd84:    4054        T@      EORS     r4,r4,r2
        0x0001cd86:    f8cda2c0    ....    STR      r10,[sp,#0x2c0]
        0x0001cd8a:    407e        ~@      EORS     r6,r6,r7
        0x0001cd8c:    9fa6        ..      LDR      r7,[sp,#0x298]
        0x0001cd8e:    9aab        ..      LDR      r2,[sp,#0x2ac]
        0x0001cd90:    403e        >@      ANDS     r6,r6,r7
        0x0001cd92:    99ad        ..      LDR      r1,[sp,#0x2b4]
        0x0001cd94:    9fa2        ..      LDR      r7,[sp,#0x288]
        0x0001cd96:    4051        Q@      EORS     r1,r1,r2
        0x0001cd98:    407e        ~@      EORS     r6,r6,r7
        0x0001cd9a:    ea01010c    ....    AND      r1,r1,r12
        0x0001cd9e:    1980        ..      ADDS     r0,r0,r6
        0x0001cda0:    4051        Q@      EORS     r1,r1,r2
        0x0001cda2:    414c        LA      ADCS     r4,r4,r1
        0x0001cda4:    493c        <I      LDR      r1,[pc,#240] ; [0x1ce98] = 0x1db20
        0x0001cda6:    9ea0        ..      LDR      r6,[sp,#0x280]
        0x0001cda8:    9fa7        ..      LDR      r7,[sp,#0x29c]
        0x0001cdaa:    eb0101c6    ....    ADD      r1,r1,r6,LSL #3
        0x0001cdae:    f8dd92b8    ....    LDR      r9,[sp,#0x2b8]
        0x0001cdb2:    e9d16200    ...b    LDRD     r6,r2,[r1,#0]
        0x0001cdb6:    99aa        ..      LDR      r1,[sp,#0x2a8]
        0x0001cdb8:    f8dd828c    ....    LDR      r8,[sp,#0x28c]
        0x0001cdbc:    1871        q.      ADDS     r1,r6,r1
        0x0001cdbe:    417a        zA      ADCS     r2,r2,r7
        0x0001cdc0:    1841        A.      ADDS     r1,r0,r1
        0x0001cdc2:    9ea0        ..      LDR      r6,[sp,#0x280]
        0x0001cdc4:    4668        hF      MOV      r0,sp
        0x0001cdc6:    eb0000c6    ....    ADD      r0,r0,r6,LSL #3
        0x0001cdca:    4154        TA      ADCS     r4,r4,r2
        0x0001cdcc:    e9d02000    ...     LDRD     r2,r0,[r0,#0]
        0x0001cdd0:    188a        ..      ADDS     r2,r1,r2
        0x0001cdd2:    4144        DA      ADCS     r4,r4,r0
        0x0001cdd4:    94a5        ..      STR      r4,[sp,#0x294]
        0x0001cdd6:    0f28        (.      LSRS     r0,r5,#28
        0x0001cdd8:    07ac        ..      LSLS     r4,r5,#30
        0x0001cdda:    ea40100a    @...    ORR      r0,r0,r10,LSL #4
        0x0001cdde:    92ac        ..      STR      r2,[sp,#0x2b0]
        0x0001cde0:    ea44049a    D...    ORR      r4,r4,r10,LSR #2
        0x0001cde4:    ea4f711a    O..q    LSR      r1,r10,#28
        0x0001cde8:    08aa        ..      LSRS     r2,r5,#2
        0x0001cdea:    4060        `@      EORS     r0,r0,r4
        0x0001cdec:    ea411105    A...    ORR      r1,r1,r5,LSL #4
        0x0001cdf0:    ea42728a    B..r    ORR      r2,r2,r10,LSL #30
        0x0001cdf4:    066c        l.      LSLS     r4,r5,#25
        0x0001cdf6:    4051        Q@      EORS     r1,r1,r2
        0x0001cdf8:    ea4414da    D...    ORR      r4,r4,r10,LSR #7
        0x0001cdfc:    09ea        ..      LSRS     r2,r5,#7
        0x0001cdfe:    ea42624a    B.Jb    ORR      r2,r2,r10,LSL #25
        0x0001ce02:    4051        Q@      EORS     r1,r1,r2
        0x0001ce04:    ea0a0209    ....    AND      r2,r10,r9
        0x0001ce08:    9fa8        ..      LDR      r7,[sp,#0x2a0]
        0x0001ce0a:    4060        `@      EORS     r0,r0,r4
        0x0001ce0c:    ea4a0a09    J...    ORR      r10,r10,r9
        0x0001ce10:    9ea1        ..      LDR      r6,[sp,#0x284]
        0x0001ce12:    ea450408    E...    ORR      r4,r5,r8
        0x0001ce16:    92a7        ..      STR      r2,[sp,#0x29c]
        0x0001ce18:    ea0a0a07    ....    AND      r10,r10,r7
        0x0001ce1c:    ea050b08    ....    AND      r11,r5,r8
        0x0001ce20:    4034        4@      ANDS     r4,r4,r6
        0x0001ce22:    ea42020a    B...    ORR      r2,r2,r10
        0x0001ce26:    ea4b0604    K...    ORR      r6,r11,r4
        0x0001ce2a:    1889        ..      ADDS     r1,r1,r2
        0x0001ce2c:    9aac        ..      LDR      r2,[sp,#0x2b0]
        0x0001ce2e:    4170        pA      ADCS     r0,r0,r6
        0x0001ce30:    9ca5        ..      LDR      r4,[sp,#0x294]
        0x0001ce32:    eb1e0e02    ....    ADDS     lr,lr,r2
        0x0001ce36:    eb430804    C...    ADC      r8,r3,r4
        0x0001ce3a:    1857        W.      ADDS     r7,r2,r1
        0x0001ce3c:    4144        DA      ADCS     r4,r4,r0
        0x0001ce3e:    97aa        ..      STR      r7,[sp,#0x2a8]
        0x0001ce40:    9ea0        ..      LDR      r6,[sp,#0x280]
        0x0001ce42:    ea4f309e    O..0    LSR      r0,lr,#14
        0x0001ce46:    ea4f3398    O..3    LSR      r3,r8,#14
        0x0001ce4a:    f8cd829c    ....    STR      r8,[sp,#0x29c]
        0x0001ce4e:    1c76        v.      ADDS     r6,r6,#1
        0x0001ce50:    ea404088    @..@    ORR      r0,r0,r8,LSL #18
        0x0001ce54:    ea43438e    C..C    ORR      r3,r3,lr,LSL #18
        0x0001ce58:    ea4f419e    O..A    LSR      r1,lr,#18
        0x0001ce5c:    ea413188    A..1    ORR      r1,r1,r8,LSL #14
        0x0001ce60:    4048        H@      EORS     r0,r0,r1
        0x0001ce62:    ea4f4298    O..B    LSR      r2,r8,#18
        0x0001ce66:    ea4f2158    O.X!    LSR      r1,r8,#9
        0x0001ce6a:    ea42328e    B..2    ORR      r2,r2,lr,LSL #14
        0x0001ce6e:    ea4151ce    A..Q    ORR      r1,r1,lr,LSL #23
        0x0001ce72:    4053        S@      EORS     r3,r3,r2
        0x0001ce74:    4048        H@      EORS     r0,r0,r1
        0x0001ce76:    ea4f52c8    O..R    LSL      r2,r8,#23
        0x0001ce7a:    96a0        ..      STR      r6,[sp,#0x280]
        0x0001ce7c:    ea42225e    B.^"    ORR      r2,r2,lr,LSR #9
        0x0001ce80:    9fa6        ..      LDR      r7,[sp,#0x298]
        0x0001ce82:    9ea4        ..      LDR      r6,[sp,#0x290]
        0x0001ce84:    99ad        ..      LDR      r1,[sp,#0x2b4]
        0x0001ce86:    4053        S@      EORS     r3,r3,r2
        0x0001ce88:    4077        w@      EORS     r7,r7,r6
        0x0001ce8a:    ea8c0c01    ....    EOR      r12,r12,r1
        0x0001ce8e:    ea07070e    ....    AND      r7,r7,lr
        0x0001ce92:    ea0c0c08    ....    AND      r12,r12,r8
        0x0001ce96:    e001        ..      B        0x1ce9c ; mbedtls_internal_sha512_process + 1452
    $d
        0x0001ce98:    0001db20     ...    DCD    121632
    $t
        0x0001ce9c:    4077        w@      EORS     r7,r7,r6
        0x0001ce9e:    ea8c0c01    ....    EOR      r12,r12,r1
        0x0001cea2:    19c0        ..      ADDS     r0,r0,r7
        0x0001cea4:    eb43030c    C...    ADC      r3,r3,r12
        0x0001cea8:    49fe        .I      LDR      r1,[pc,#1016] ; [0x1d2a4] = 0x1db20
        0x0001ceaa:    9ea0        ..      LDR      r6,[sp,#0x280]
        0x0001ceac:    9fa2        ..      LDR      r7,[sp,#0x288]
        0x0001ceae:    eb0101c6    ....    ADD      r1,r1,r6,LSL #3
        0x0001ceb2:    9aab        ..      LDR      r2,[sp,#0x2ac]
        0x0001ceb4:    e9d16100    ...a    LDRD     r6,r1,[r1,#0]
        0x0001ceb8:    19f6        ..      ADDS     r6,r6,r7
        0x0001ceba:    4151        QA      ADCS     r1,r1,r2
        0x0001cebc:    1980        ..      ADDS     r0,r0,r6
        0x0001cebe:    414b        KA      ADCS     r3,r3,r1
        0x0001cec0:    9ea0        ..      LDR      r6,[sp,#0x280]
        0x0001cec2:    4669        iF      MOV      r1,sp
        0x0001cec4:    eb0101c6    ....    ADD      r1,r1,r6,LSL #3
        0x0001cec8:    f8dda2c0    ....    LDR      r10,[sp,#0x2c0]
        0x0001cecc:    e9d12100    ...!    LDRD     r2,r1,[r1,#0]
        0x0001ced0:    eb100c02    ....    ADDS     r12,r0,r2
        0x0001ced4:    414b        KA      ADCS     r3,r3,r1
        0x0001ced6:    93a5        ..      STR      r3,[sp,#0x294]
        0x0001ced8:    9faa        ..      LDR      r7,[sp,#0x2a8]
        0x0001ceda:    08a2        ..      LSRS     r2,r4,#2
        0x0001cedc:    0f39        9.      LSRS     r1,r7,#28
        0x0001cede:    ea411104    A...    ORR      r1,r1,r4,LSL #4
        0x0001cee2:    0f20         .      LSRS     r0,r4,#28
        0x0001cee4:    07a3        ..      LSLS     r3,r4,#30
        0x0001cee6:    ea427287    B..r    ORR      r2,r2,r7,LSL #30
        0x0001ceea:    ea401007    @...    ORR      r0,r0,r7,LSL #4
        0x0001ceee:    ea430397    C...    ORR      r3,r3,r7,LSR #2
        0x0001cef2:    4051        Q@      EORS     r1,r1,r2
        0x0001cef4:    4058        X@      EORS     r0,r0,r3
        0x0001cef6:    09e2        ..      LSRS     r2,r4,#7
        0x0001cef8:    0663        c.      LSLS     r3,r4,#25
        0x0001cefa:    ea426247    B.Gb    ORR      r2,r2,r7,LSL #25
        0x0001cefe:    ea4313d7    C...    ORR      r3,r3,r7,LSR #7
        0x0001cf02:    4058        X@      EORS     r0,r0,r3
        0x0001cf04:    ea07030a    ....    AND      r3,r7,r10
        0x0001cf08:    9faa        ..      LDR      r7,[sp,#0x2a8]
        0x0001cf0a:    4051        Q@      EORS     r1,r1,r2
        0x0001cf0c:    ea47070a    G...    ORR      r7,r7,r10
        0x0001cf10:    ea070709    ....    AND      r7,r7,r9
        0x0001cf14:    f8dd828c    ....    LDR      r8,[sp,#0x28c]
        0x0001cf18:    433b        ;C      ORRS     r3,r3,r7
        0x0001cf1a:    ea440205    D...    ORR      r2,r4,r5
        0x0001cf1e:    ea040605    ....    AND      r6,r4,r5
        0x0001cf22:    ea020208    ....    AND      r2,r2,r8
        0x0001cf26:    18c9        ..      ADDS     r1,r1,r3
        0x0001cf28:    4316        .C      ORRS     r6,r6,r2
        0x0001cf2a:    4170        pA      ADCS     r0,r0,r6
        0x0001cf2c:    9fa8        ..      LDR      r7,[sp,#0x2a0]
        0x0001cf2e:    9ea1        ..      LDR      r6,[sp,#0x284]
        0x0001cf30:    9ba5        ..      LDR      r3,[sp,#0x294]
        0x0001cf32:    eb17020c    ....    ADDS     r2,r7,r12
        0x0001cf36:    415e        ^A      ADCS     r6,r6,r3
        0x0001cf38:    92a8        ..      STR      r2,[sp,#0x2a0]
        0x0001cf3a:    eb1c0101    ....    ADDS     r1,r12,r1
        0x0001cf3e:    e9cd61a1    ...a    STRD     r6,r1,[sp,#0x284]
        0x0001cf42:    eb430200    C...    ADC      r2,r3,r0
        0x0001cf46:    98a8        ..      LDR      r0,[sp,#0x2a0]
        0x0001cf48:    99a1        ..      LDR      r1,[sp,#0x284]
        0x0001cf4a:    0b80        ..      LSRS     r0,r0,#14
        0x0001cf4c:    ea404081    @..@    ORR      r0,r0,r1,LSL #18
        0x0001cf50:    ea4f3a91    O..:    LSR      r10,r1,#14
        0x0001cf54:    99a8        ..      LDR      r1,[sp,#0x2a0]
        0x0001cf56:    9ea0        ..      LDR      r6,[sp,#0x280]
        0x0001cf58:    ea4a4a81    J..J    ORR      r10,r10,r1,LSL #18
        0x0001cf5c:    460b        .F      MOV      r3,r1
        0x0001cf5e:    99a1        ..      LDR      r1,[sp,#0x284]
        0x0001cf60:    1c76        v.      ADDS     r6,r6,#1
        0x0001cf62:    0c9b        ..      LSRS     r3,r3,#18
        0x0001cf64:    ea433381    C..3    ORR      r3,r3,r1,LSL #14
        0x0001cf68:    96a0        ..      STR      r6,[sp,#0x280]
        0x0001cf6a:    0c89        ..      LSRS     r1,r1,#18
        0x0001cf6c:    9ea8        ..      LDR      r6,[sp,#0x2a0]
        0x0001cf6e:    4058        X@      EORS     r0,r0,r3
        0x0001cf70:    ea413186    A..1    ORR      r1,r1,r6,LSL #14
        0x0001cf74:    ea8a0a01    ....    EOR      r10,r10,r1
        0x0001cf78:    9ba1        ..      LDR      r3,[sp,#0x284]
        0x0001cf7a:    e9dd78a6    ...x    LDRD     r7,r8,[sp,#0x298]
        0x0001cf7e:    05db        ..      LSLS     r3,r3,#23
        0x0001cf80:    99a1        ..      LDR      r1,[sp,#0x284]
        0x0001cf82:    ea432356    C.V#    ORR      r3,r3,r6,LSR #9
        0x0001cf86:    0a49        I.      LSRS     r1,r1,#9
        0x0001cf88:    ea4151c6    A..Q    ORR      r1,r1,r6,LSL #23
        0x0001cf8c:    4048        H@      EORS     r0,r0,r1
        0x0001cf8e:    ea8a0a03    ....    EOR      r10,r10,r3
        0x0001cf92:    f8ddc2a4    ....    LDR      r12,[sp,#0x2a4]
        0x0001cf96:    99a8        ..      LDR      r1,[sp,#0x2a0]
        0x0001cf98:    9ba1        ..      LDR      r3,[sp,#0x284]
        0x0001cf9a:    ea8e0607    ....    EOR      r6,lr,r7
        0x0001cf9e:    ea88080c    ....    EOR      r8,r8,r12
        0x0001cfa2:    400e        .@      ANDS     r6,r6,r1
        0x0001cfa4:    ea080803    ....    AND      r8,r8,r3
        0x0001cfa8:    407e        ~@      EORS     r6,r6,r7
        0x0001cfaa:    1983        ..      ADDS     r3,r0,r6
        0x0001cfac:    48bd        .H      LDR      r0,[pc,#756] ; [0x1d2a4] = 0x1db20
        0x0001cfae:    9ea0        ..      LDR      r6,[sp,#0x280]
        0x0001cfb0:    ea88080c    ....    EOR      r8,r8,r12
        0x0001cfb4:    eb0000c6    ....    ADD      r0,r0,r6,LSL #3
        0x0001cfb8:    9ea4        ..      LDR      r6,[sp,#0x290]
        0x0001cfba:    e9d07000    ...p    LDRD     r7,r0,[r0,#0]
        0x0001cfbe:    eb4a0a08    J...    ADC      r10,r10,r8
        0x0001cfc2:    99ad        ..      LDR      r1,[sp,#0x2b4]
        0x0001cfc4:    19be        ..      ADDS     r6,r7,r6
        0x0001cfc6:    4148        HA      ADCS     r0,r0,r1
        0x0001cfc8:    1999        ..      ADDS     r1,r3,r6
        0x0001cfca:    eb4a0a00    J...    ADC      r10,r10,r0
        0x0001cfce:    9ea0        ..      LDR      r6,[sp,#0x280]
        0x0001cfd0:    4668        hF      MOV      r0,sp
        0x0001cfd2:    eb0000c6    ....    ADD      r0,r0,r6,LSL #3
        0x0001cfd6:    ea020c04    ....    AND      r12,r2,r4
        0x0001cfda:    e9d03000    ...0    LDRD     r3,r0,[r0,#0]
        0x0001cfde:    18ce        ..      ADDS     r6,r1,r3
        0x0001cfe0:    eb4a0a00    J...    ADC      r10,r10,r0
        0x0001cfe4:    96ac        ..      STR      r6,[sp,#0x2b0]
        0x0001cfe6:    98a2        ..      LDR      r0,[sp,#0x288]
        0x0001cfe8:    9fa2        ..      LDR      r7,[sp,#0x288]
        0x0001cfea:    0f13        ..      LSRS     r3,r2,#28
        0x0001cfec:    ea431300    C...    ORR      r3,r3,r0,LSL #4
        0x0001cff0:    0f01        ..      LSRS     r1,r0,#28
        0x0001cff2:    0796        ..      LSLS     r6,r2,#30
        0x0001cff4:    ea460697    F...    ORR      r6,r6,r7,LSR #2
        0x0001cff8:    0890        ..      LSRS     r0,r2,#2
        0x0001cffa:    4073        s@      EORS     r3,r3,r6
        0x0001cffc:    ea411102    A...    ORR      r1,r1,r2,LSL #4
        0x0001d000:    ea407087    @..p    ORR      r0,r0,r7,LSL #30
        0x0001d004:    0656        V.      LSLS     r6,r2,#25
        0x0001d006:    4041        A@      EORS     r1,r1,r0
        0x0001d008:    ea4616d7    F...    ORR      r6,r6,r7,LSR #7
        0x0001d00c:    09d0        ..      LSRS     r0,r2,#7
        0x0001d00e:    ea406047    @.G`    ORR      r0,r0,r7,LSL #25
        0x0001d012:    f8cda294    ....    STR      r10,[sp,#0x294]
        0x0001d016:    46b8        .F      MOV      r8,r7
        0x0001d018:    4041        A@      EORS     r1,r1,r0
        0x0001d01a:    9faa        ..      LDR      r7,[sp,#0x2a8]
        0x0001d01c:    98a2        ..      LDR      r0,[sp,#0x288]
        0x0001d01e:    f8dda2c0    ....    LDR      r10,[sp,#0x2c0]
        0x0001d022:    4073        s@      EORS     r3,r3,r6
        0x0001d024:    4338        8C      ORRS     r0,r0,r7
        0x0001d026:    ea420604    B...    ORR      r6,r2,r4
        0x0001d02a:    ea00000a    ....    AND      r0,r0,r10
        0x0001d02e:    ea080807    ....    AND      r8,r8,r7
        0x0001d032:    402e        .@      ANDS     r6,r6,r5
        0x0001d034:    ea480800    H...    ORR      r8,r8,r0
        0x0001d038:    ea4c0c06    L...    ORR      r12,r12,r6
        0x0001d03c:    eb110008    ....    ADDS     r0,r1,r8
        0x0001d040:    f8dda294    ....    LDR      r10,[sp,#0x294]
        0x0001d044:    eb43030c    C...    ADC      r3,r3,r12
        0x0001d048:    9eac        ..      LDR      r6,[sp,#0x2b0]
        0x0001d04a:    f8dd828c    ....    LDR      r8,[sp,#0x28c]
        0x0001d04e:    eb190906    ....    ADDS     r9,r9,r6
        0x0001d052:    eb48080a    H...    ADC      r8,r8,r10
        0x0001d056:    1830        0.      ADDS     r0,r6,r0
        0x0001d058:    e9cd80a3    ....    STRD     r8,r0,[sp,#0x28c]
        0x0001d05c:    eb4a0103    J...    ADC      r1,r10,r3
        0x0001d060:    9ea0        ..      LDR      r6,[sp,#0x280]
        0x0001d062:    ea4f3c99    O..<    LSR      r12,r9,#14
        0x0001d066:    1c76        v.      ADDS     r6,r6,#1
        0x0001d068:    96a0        ..      STR      r6,[sp,#0x280]
        0x0001d06a:    ea4f4699    O..F    LSR      r6,r9,#18
        0x0001d06e:    ea4c4c88    L..L    ORR      r12,r12,r8,LSL #18
        0x0001d072:    ea463688    F..6    ORR      r6,r6,r8,LSL #14
        0x0001d076:    ea4f3098    O..0    LSR      r0,r8,#14
        0x0001d07a:    ea4f4398    O..C    LSR      r3,r8,#18
        0x0001d07e:    ea404089    @..@    ORR      r0,r0,r9,LSL #18
        0x0001d082:    ea433389    C..3    ORR      r3,r3,r9,LSL #14
        0x0001d086:    ea800803    ....    EOR      r8,r0,r3
        0x0001d08a:    ea8c0c06    ....    EOR      r12,r12,r6
        0x0001d08e:    98a3        ..      LDR      r0,[sp,#0x28c]
        0x0001d090:    9ea3        ..      LDR      r6,[sp,#0x28c]
        0x0001d092:    0a43        C.      LSRS     r3,r0,#9
        0x0001d094:    05f6        ..      LSLS     r6,r6,#23
        0x0001d096:    ea462659    F.Y&    ORR      r6,r6,r9,LSR #9
        0x0001d09a:    ea4353c9    C..S    ORR      r3,r3,r9,LSL #23
        0x0001d09e:    ea880006    ....    EOR      r0,r8,r6
        0x0001d0a2:    ea8c0c03    ....    EOR      r12,r12,r3
        0x0001d0a6:    e9dd83a7    ....    LDRD     r8,r3,[sp,#0x29c]
        0x0001d0aa:    9fa1        ..      LDR      r7,[sp,#0x284]
        0x0001d0ac:    ea83030e    ....    EOR      r3,r3,lr
        0x0001d0b0:    ea870708    ....    EOR      r7,r7,r8
        0x0001d0b4:    f8dd828c    ....    LDR      r8,[sp,#0x28c]
        0x0001d0b8:    ea030309    ....    AND      r3,r3,r9
        0x0001d0bc:    ea070708    ....    AND      r7,r7,r8
        0x0001d0c0:    f8dd829c    ....    LDR      r8,[sp,#0x29c]
        0x0001d0c4:    ea83030e    ....    EOR      r3,r3,lr
        0x0001d0c8:    ea870708    ....    EOR      r7,r7,r8
        0x0001d0cc:    eb1c0803    ....    ADDS     r8,r12,r3
        0x0001d0d0:    4b74        tK      LDR      r3,[pc,#464] ; [0x1d2a4] = 0x1db20
        0x0001d0d2:    9ea0        ..      LDR      r6,[sp,#0x280]
        0x0001d0d4:    4178        xA      ADCS     r0,r0,r7
        0x0001d0d6:    eb0303c6    ....    ADD      r3,r3,r6,LSL #3
        0x0001d0da:    9fa6        ..      LDR      r7,[sp,#0x298]
        0x0001d0dc:    e9d36300    ...c    LDRD     r6,r3,[r3,#0]
        0x0001d0e0:    f8ddc2a4    ....    LDR      r12,[sp,#0x2a4]
        0x0001d0e4:    19f6        ..      ADDS     r6,r6,r7
        0x0001d0e6:    eb43030c    C...    ADC      r3,r3,r12
        0x0001d0ea:    eb180706    ....    ADDS     r7,r8,r6
        0x0001d0ee:    4158        XA      ADCS     r0,r0,r3
        0x0001d0f0:    9ea0        ..      LDR      r6,[sp,#0x280]
        0x0001d0f2:    466b        kF      MOV      r3,sp
        0x0001d0f4:    eb0303c6    ....    ADD      r3,r3,r6,LSL #3
        0x0001d0f8:    f8ddc290    ....    LDR      r12,[sp,#0x290]
        0x0001d0fc:    e9d36300    ...c    LDRD     r6,r3,[r3,#0]
        0x0001d100:    19bf        ..      ADDS     r7,r7,r6
        0x0001d102:    4158        XA      ADCS     r0,r0,r3
        0x0001d104:    90a5        ..      STR      r0,[sp,#0x294]
        0x0001d106:    98a4        ..      LDR      r0,[sp,#0x290]
        0x0001d108:    0f0b        ..      LSRS     r3,r1,#28
        0x0001d10a:    0f06        ..      LSRS     r6,r0,#28
        0x0001d10c:    ea431300    C...    ORR      r3,r3,r0,LSL #4
        0x0001d110:    0888        ..      LSRS     r0,r1,#2
        0x0001d112:    97ac        ..      STR      r7,[sp,#0x2b0]
        0x0001d114:    ea461601    F...    ORR      r6,r6,r1,LSL #4
        0x0001d118:    ea40708c    @..p    ORR      r0,r0,r12,LSL #30
        0x0001d11c:    078f        ..      LSLS     r7,r1,#30
        0x0001d11e:    4046        F@      EORS     r6,r6,r0
        0x0001d120:    ea47079c    G...    ORR      r7,r7,r12,LSR #2
        0x0001d124:    09c8        ..      LSRS     r0,r1,#7
        0x0001d126:    407b        {@      EORS     r3,r3,r7
        0x0001d128:    064f        O.      LSLS     r7,r1,#25
        0x0001d12a:    ea40604c    @.L`    ORR      r0,r0,r12,LSL #25
        0x0001d12e:    ea4717dc    G...    ORR      r7,r7,r12,LSR #7
        0x0001d132:    4046        F@      EORS     r6,r6,r0
        0x0001d134:    98a2        ..      LDR      r0,[sp,#0x288]
        0x0001d136:    407b        {@      EORS     r3,r3,r7
        0x0001d138:    ea0c0c00    ....    AND      r12,r12,r0
        0x0001d13c:    9fa2        ..      LDR      r7,[sp,#0x288]
        0x0001d13e:    98a4        ..      LDR      r0,[sp,#0x290]
        0x0001d140:    f8cdc298    ....    STR      r12,[sp,#0x298]
        0x0001d144:    4338        8C      ORRS     r0,r0,r7
        0x0001d146:    ea410c02    A...    ORR      r12,r1,r2
        0x0001d14a:    9faa        ..      LDR      r7,[sp,#0x2a8]
        0x0001d14c:    ea0c0804    ....    AND      r8,r12,r4
        0x0001d150:    4038        8@      ANDS     r0,r0,r7
        0x0001d152:    f8ddc298    ....    LDR      r12,[sp,#0x298]
        0x0001d156:    ea010a02    ....    AND      r10,r1,r2
        0x0001d15a:    ea4c0c00    L...    ORR      r12,r12,r0
        0x0001d15e:    ea4a0708    J...    ORR      r7,r10,r8
        0x0001d162:    eb16060c    ....    ADDS     r6,r6,r12
        0x0001d166:    417b        {A      ADCS     r3,r3,r7
        0x0001d168:    f8dda2c0    ....    LDR      r10,[sp,#0x2c0]
        0x0001d16c:    9fac        ..      LDR      r7,[sp,#0x2b0]
        0x0001d16e:    98a5        ..      LDR      r0,[sp,#0x294]
        0x0001d170:    eb1a0a07    ....    ADDS     r10,r10,r7
        0x0001d174:    4145        EA      ADCS     r5,r5,r0
        0x0001d176:    95a9        ..      STR      r5,[sp,#0x2a4]
        0x0001d178:    19bd        ..      ADDS     r5,r7,r6
        0x0001d17a:    4158        XA      ADCS     r0,r0,r3
        0x0001d17c:    9ea0        ..      LDR      r6,[sp,#0x280]
        0x0001d17e:    95a6        ..      STR      r5,[sp,#0x298]
        0x0001d180:    1c76        v.      ADDS     r6,r6,#1
        0x0001d182:    96a0        ..      STR      r6,[sp,#0x280]
        0x0001d184:    9ba9        ..      LDR      r3,[sp,#0x2a4]
        0x0001d186:    9ea9        ..      LDR      r6,[sp,#0x2a4]
        0x0001d188:    ea4f359a    O..5    LSR      r5,r10,#14
        0x0001d18c:    ea4f479a    O..G    LSR      r7,r10,#18
        0x0001d190:    ea454583    E..E    ORR      r5,r5,r3,LSL #18
        0x0001d194:    ea473786    G..7    ORR      r7,r7,r6,LSL #14
        0x0001d198:    0b9b        ..      LSRS     r3,r3,#14
        0x0001d19a:    0cb6        ..      LSRS     r6,r6,#18
        0x0001d19c:    ea43438a    C..C    ORR      r3,r3,r10,LSL #18
        0x0001d1a0:    ea46368a    F..6    ORR      r6,r6,r10,LSL #14
        0x0001d1a4:    ea830806    ....    EOR      r8,r3,r6
        0x0001d1a8:    407d        }@      EORS     r5,r5,r7
        0x0001d1aa:    9ba9        ..      LDR      r3,[sp,#0x2a4]
        0x0001d1ac:    9fa9        ..      LDR      r7,[sp,#0x2a4]
        0x0001d1ae:    0a5e        ^.      LSRS     r6,r3,#9
        0x0001d1b0:    ea4656ca    F..V    ORR      r6,r6,r10,LSL #23
        0x0001d1b4:    05ff        ..      LSLS     r7,r7,#23
        0x0001d1b6:    4075        u@      EORS     r5,r5,r6
        0x0001d1b8:    ea47275a    G.Z'    ORR      r7,r7,r10,LSR #9
        0x0001d1bc:    f8ddc284    ....    LDR      r12,[sp,#0x284]
        0x0001d1c0:    9ea3        ..      LDR      r6,[sp,#0x28c]
        0x0001d1c2:    ea880307    ....    EOR      r3,r8,r7
        0x0001d1c6:    f8dd82a0    ....    LDR      r8,[sp,#0x2a0]
        0x0001d1ca:    ea86060c    ....    EOR      r6,r6,r12
        0x0001d1ce:    f8ddc2a4    ....    LDR      r12,[sp,#0x2a4]
        0x0001d1d2:    ea890708    ....    EOR      r7,r9,r8
        0x0001d1d6:    ea06060c    ....    AND      r6,r6,r12
        0x0001d1da:    46c4        .F      MOV      r12,r8
        0x0001d1dc:    ea07070a    ....    AND      r7,r7,r10
        0x0001d1e0:    f8dd8284    ....    LDR      r8,[sp,#0x284]
        0x0001d1e4:    ea87070c    ....    EOR      r7,r7,r12
        0x0001d1e8:    ea860608    ....    EOR      r6,r6,r8
        0x0001d1ec:    19ef        ..      ADDS     r7,r5,r7
        0x0001d1ee:    4173        sA      ADCS     r3,r3,r6
        0x0001d1f0:    4d2c        ,M      LDR      r5,[pc,#176] ; [0x1d2a4] = 0x1db20
        0x0001d1f2:    9ea0        ..      LDR      r6,[sp,#0x280]
        0x0001d1f4:    f8dd829c    ....    LDR      r8,[sp,#0x29c]
        0x0001d1f8:    eb0505c6    ....    ADD      r5,r5,r6,LSL #3
        0x0001d1fc:    e9d5c500    ....    LDRD     r12,r5,[r5,#0]
        0x0001d200:    eb1c060e    ....    ADDS     r6,r12,lr
        0x0001d204:    eb450508    E...    ADC      r5,r5,r8
        0x0001d208:    19bf        ..      ADDS     r7,r7,r6
        0x0001d20a:    416b        kA      ADCS     r3,r3,r5
        0x0001d20c:    9ea0        ..      LDR      r6,[sp,#0x280]
        0x0001d20e:    466d        mF      MOV      r5,sp
        0x0001d210:    eb0505c6    ....    ADD      r5,r5,r6,LSL #3
        0x0001d214:    f8ddc298    ....    LDR      r12,[sp,#0x298]
        0x0001d218:    e9d56500    ...e    LDRD     r6,r5,[r5,#0]
        0x0001d21c:    eb170e06    ....    ADDS     lr,r7,r6
        0x0001d220:    416b        kA      ADCS     r3,r3,r5
        0x0001d222:    93a5        ..      STR      r3,[sp,#0x294]
        0x0001d224:    9ba6        ..      LDR      r3,[sp,#0x298]
        0x0001d226:    0f05        ..      LSRS     r5,r0,#28
        0x0001d228:    ea451503    E...    ORR      r5,r5,r3,LSL #4
        0x0001d22c:    0f1e        ..      LSRS     r6,r3,#28
        0x0001d22e:    0883        ..      LSRS     r3,r0,#2
        0x0001d230:    ea461600    F...    ORR      r6,r6,r0,LSL #4
        0x0001d234:    0787        ..      LSLS     r7,r0,#30
        0x0001d236:    ea43738c    C..s    ORR      r3,r3,r12,LSL #30
        0x0001d23a:    ea47079c    G...    ORR      r7,r7,r12,LSR #2
        0x0001d23e:    405e        ^@      EORS     r6,r6,r3
        0x0001d240:    407d        }@      EORS     r5,r5,r7
        0x0001d242:    09c3        ..      LSRS     r3,r0,#7
        0x0001d244:    0647        G.      LSLS     r7,r0,#25
        0x0001d246:    ea43634c    C.Lc    ORR      r3,r3,r12,LSL #25
        0x0001d24a:    ea4717dc    G...    ORR      r7,r7,r12,LSR #7
        0x0001d24e:    405e        ^@      EORS     r6,r6,r3
        0x0001d250:    9ba4        ..      LDR      r3,[sp,#0x290]
        0x0001d252:    407d        }@      EORS     r5,r5,r7
        0x0001d254:    ea0c0c03    ....    AND      r12,r12,r3
        0x0001d258:    ea000301    ....    AND      r3,r0,r1
        0x0001d25c:    93a7        ..      STR      r3,[sp,#0x29c]
        0x0001d25e:    9fa6        ..      LDR      r7,[sp,#0x298]
        0x0001d260:    9ba4        ..      LDR      r3,[sp,#0x290]
        0x0001d262:    ea400801    @...    ORR      r8,r0,r1
        0x0001d266:    431f        .C      ORRS     r7,r7,r3
        0x0001d268:    9ba2        ..      LDR      r3,[sp,#0x288]
        0x0001d26a:    ea080802    ....    AND      r8,r8,r2
        0x0001d26e:    401f        .@      ANDS     r7,r7,r3
        0x0001d270:    ea4c0c07    L...    ORR      r12,r12,r7
        0x0001d274:    9ba7        ..      LDR      r3,[sp,#0x29c]
        0x0001d276:    eb160c0c    ....    ADDS     r12,r6,r12
        0x0001d27a:    ea430308    C...    ORR      r3,r3,r8
        0x0001d27e:    415d        ]A      ADCS     r5,r5,r3
        0x0001d280:    9faa        ..      LDR      r7,[sp,#0x2a8]
        0x0001d282:    9ba5        ..      LDR      r3,[sp,#0x294]
        0x0001d284:    eb17060e    ....    ADDS     r6,r7,lr
        0x0001d288:    415c        \A      ADCS     r4,r4,r3
        0x0001d28a:    96aa        ..      STR      r6,[sp,#0x2a8]
        0x0001d28c:    eb1e0e0c    ....    ADDS     lr,lr,r12
        0x0001d290:    9ea0        ..      LDR      r6,[sp,#0x280]
        0x0001d292:    416b        kA      ADCS     r3,r3,r5
        0x0001d294:    1c76        v.      ADDS     r6,r6,#1
        0x0001d296:    94a7        ..      STR      r4,[sp,#0x29c]
        0x0001d298:    96a0        ..      STR      r6,[sp,#0x280]
        0x0001d29a:    2e50        P.      CMP      r6,#0x50
        0x0001d29c:    f6ffabcb    ....    BLT      0x1ca36 ; mbedtls_internal_sha512_process + 326
        0x0001d2a0:    9fc0        ..      LDR      r7,[sp,#0x300]
        0x0001d2a2:    e001        ..      B        0x1d2a8 ; mbedtls_internal_sha512_process + 2488
    $d
        0x0001d2a4:    0001db20     ...    DCD    121632
    $t
        0x0001d2a8:    9ebd        ..      LDR      r6,[sp,#0x2f4]
        0x0001d2aa:    eb17040e    ....    ADDS     r4,r7,lr
        0x0001d2ae:    415e        ^A      ADCS     r6,r6,r3
        0x0001d2b0:    9bc1        ..      LDR      r3,[sp,#0x304]
        0x0001d2b2:    e9c34604    ...F    STRD     r4,r6,[r3,#0x10]
        0x0001d2b6:    9ca6        ..      LDR      r4,[sp,#0x298]
        0x0001d2b8:    9bbe        ..      LDR      r3,[sp,#0x2f8]
        0x0001d2ba:    9ebb        ..      LDR      r6,[sp,#0x2ec]
        0x0001d2bc:    191b        ..      ADDS     r3,r3,r4
        0x0001d2be:    4146        FA      ADCS     r6,r6,r0
        0x0001d2c0:    98c1        ..      LDR      r0,[sp,#0x304]
        0x0001d2c2:    e9c03606    ...6    STRD     r3,r6,[r0,#0x18]
        0x0001d2c6:    9cbc        ..      LDR      r4,[sp,#0x2f0]
        0x0001d2c8:    98a4        ..      LDR      r0,[sp,#0x290]
        0x0001d2ca:    9bb9        ..      LDR      r3,[sp,#0x2e4]
        0x0001d2cc:    1824        $.      ADDS     r4,r4,r0
        0x0001d2ce:    98c1        ..      LDR      r0,[sp,#0x304]
        0x0001d2d0:    414b        KA      ADCS     r3,r3,r1
        0x0001d2d2:    e9c04308    ...C    STRD     r4,r3,[r0,#0x20]
        0x0001d2d6:    9bba        ..      LDR      r3,[sp,#0x2e8]
        0x0001d2d8:    98a2        ..      LDR      r0,[sp,#0x288]
        0x0001d2da:    99b7        ..      LDR      r1,[sp,#0x2dc]
        0x0001d2dc:    181b        ..      ADDS     r3,r3,r0
        0x0001d2de:    98c1        ..      LDR      r0,[sp,#0x304]
        0x0001d2e0:    4151        QA      ADCS     r1,r1,r2
        0x0001d2e2:    e9c0310a    ...1    STRD     r3,r1,[r0,#0x28]
        0x0001d2e6:    9ab8        ..      LDR      r2,[sp,#0x2e0]
        0x0001d2e8:    98aa        ..      LDR      r0,[sp,#0x2a8]
        0x0001d2ea:    9bb5        ..      LDR      r3,[sp,#0x2d4]
        0x0001d2ec:    1812        ..      ADDS     r2,r2,r0
        0x0001d2ee:    99a7        ..      LDR      r1,[sp,#0x29c]
        0x0001d2f0:    98c1        ..      LDR      r0,[sp,#0x304]
        0x0001d2f2:    414b        KA      ADCS     r3,r3,r1
        0x0001d2f4:    e9c0230c    ...#    STRD     r2,r3,[r0,#0x30]
        0x0001d2f8:    98b6        ..      LDR      r0,[sp,#0x2d8]
        0x0001d2fa:    9ba9        ..      LDR      r3,[sp,#0x2a4]
        0x0001d2fc:    eb10020a    ....    ADDS     r2,r0,r10
        0x0001d300:    99b3        ..      LDR      r1,[sp,#0x2cc]
        0x0001d302:    98c1        ..      LDR      r0,[sp,#0x304]
        0x0001d304:    4159        YA      ADCS     r1,r1,r3
        0x0001d306:    e9c0210e    ...!    STRD     r2,r1,[r0,#0x38]
        0x0001d30a:    98b4        ..      LDR      r0,[sp,#0x2d0]
        0x0001d30c:    9ab1        ..      LDR      r2,[sp,#0x2c4]
        0x0001d30e:    eb100309    ....    ADDS     r3,r0,r9
        0x0001d312:    99a3        ..      LDR      r1,[sp,#0x28c]
        0x0001d314:    98c1        ..      LDR      r0,[sp,#0x304]
        0x0001d316:    414a        JA      ADCS     r2,r2,r1
        0x0001d318:    e9c03210    ...2    STRD     r3,r2,[r0,#0x40]
        0x0001d31c:    99a8        ..      LDR      r1,[sp,#0x2a0]
        0x0001d31e:    98b2        ..      LDR      r0,[sp,#0x2c8]
        0x0001d320:    9ba1        ..      LDR      r3,[sp,#0x284]
        0x0001d322:    1841        A.      ADDS     r1,r0,r1
        0x0001d324:    9aaf        ..      LDR      r2,[sp,#0x2bc]
        0x0001d326:    98c1        ..      LDR      r0,[sp,#0x304]
        0x0001d328:    415a        ZA      ADCS     r2,r2,r3
        0x0001d32a:    e9c01212    ....    STRD     r1,r2,[r0,#0x48]
        0x0001d32e:    f50d7d43    ..C}    ADD      sp,sp,#0x30c
        0x0001d332:    2000        .       MOVS     r0,#0
        0x0001d334:    e8bd8ff0    ....    POP      {r4-r11,pc}
    i.mbedtls_memory_buffer_alloc_init
    mbedtls_memory_buffer_alloc_init
        0x0001d338:    b570        p.      PUSH     {r4-r6,lr}
        0x0001d33a:    460d        .F      MOV      r5,r1
        0x0001d33c:    4604        .F      MOV      r4,r0
        0x0001d33e:    2114        .!      MOVS     r1,#0x14
        0x0001d340:    4811        .H      LDR      r0,[pc,#68] ; [0x1d388] = 0x10000058
        0x0001d342:    f7fbf8f1    ....    BL       __aeabi_memclr4 ; 0x18528
        0x0001d346:    4911        .I      LDR      r1,[pc,#68] ; [0x1d38c] = 0x1c21d
        0x0001d348:    4811        .H      LDR      r0,[pc,#68] ; [0x1d390] = 0x1c125
        0x0001d34a:    f000f85d    ..].    BL       mbedtls_platform_set_calloc_free ; 0x1d408
        0x0001d34e:    2d24        $-      CMP      r5,#0x24
        0x0001d350:    d319        ..      BCC      0x1d386 ; mbedtls_memory_buffer_alloc_init + 78
        0x0001d352:    07a0        ..      LSLS     r0,r4,#30
        0x0001d354:    d005        ..      BEQ      0x1d362 ; mbedtls_memory_buffer_alloc_init + 42
        0x0001d356:    f0040003    ....    AND      r0,r4,#3
        0x0001d35a:    f1c00004    ....    RSB      r0,r0,#4
        0x0001d35e:    1a2d        -.      SUBS     r5,r5,r0
        0x0001d360:    4404        .D      ADD      r4,r4,r0
        0x0001d362:    4629        )F      MOV      r1,r5
        0x0001d364:    4620         F      MOV      r0,r4
        0x0001d366:    f7fbf8bd    ....    BL       __aeabi_memclr ; 0x184e4
        0x0001d36a:    4807        .H      LDR      r0,[pc,#28] ; [0x1d388] = 0x10000058
        0x0001d36c:    4909        .I      LDR      r1,[pc,#36] ; [0x1d394] = 0xff00aa55
        0x0001d36e:    e9c04500    ...E    STRD     r4,r5,[r0,#0]
        0x0001d372:    3d20         =      SUBS     r5,r5,#0x20
        0x0001d374:    6084        .`      STR      r4,[r0,#8]
        0x0001d376:    6065        e`      STR      r5,[r4,#4]
        0x0001d378:    6882        .h      LDR      r2,[r0,#8]
        0x0001d37a:    6011        .`      STR      r1,[r2,#0]
        0x0001d37c:    6882        .h      LDR      r2,[r0,#8]
        0x0001d37e:    4906        .I      LDR      r1,[pc,#24] ; [0x1d398] = 0xee119966
        0x0001d380:    61d1        .a      STR      r1,[r2,#0x1c]
        0x0001d382:    6881        .h      LDR      r1,[r0,#8]
        0x0001d384:    60c1        .`      STR      r1,[r0,#0xc]
        0x0001d386:    bd70        p.      POP      {r4-r6,pc}
    $d
        0x0001d388:    10000058    X...    DCD    268435544
        0x0001d38c:    0001c21d    ....    DCD    115229
        0x0001d390:    0001c125    %...    DCD    114981
        0x0001d394:    ff00aa55    U...    DCD    4278233685
        0x0001d398:    ee119966    f...    DCD    3994130790
    $t
    i.mbedtls_mng_lcsGet
    mbedtls_mng_lcsGet
        0x0001d39c:    b178        x.      CBZ      r0,0x1d3be ; mbedtls_mng_lcsGet + 34
        0x0001d39e:    4909        .I      LDR      r1,[pc,#36] ; [0x1d3c4] = 0x10000008
        0x0001d3a0:    6809        .h      LDR      r1,[r1,#0]
        0x0001d3a2:    f5015180    ...Q    ADD      r1,r1,#0x1000
        0x0001d3a6:    f8d12f10    .../    LDR      r2,[r1,#0xf10]
        0x0001d3aa:    f0120f01    ....    TST      r2,#1
        0x0001d3ae:    d0fa        ..      BEQ      0x1d3a6 ; mbedtls_mng_lcsGet + 10
        0x0001d3b0:    f8d11f14    ....    LDR      r1,[r1,#0xf14]
        0x0001d3b4:    f0010107    ....    AND      r1,r1,#7
        0x0001d3b8:    6001        .`      STR      r1,[r0,#0]
        0x0001d3ba:    2000        .       MOVS     r0,#0
        0x0001d3bc:    4770        pG      BX       lr
        0x0001d3be:    4802        .H      LDR      r0,[pc,#8] ; [0x1d3c8] = 0xf02900
        0x0001d3c0:    4770        pG      BX       lr
    $d
        0x0001d3c2:    0000        ..      DCW    0
        0x0001d3c4:    10000008    ....    DCD    268435464
        0x0001d3c8:    00f02900    .)..    DCD    15739136
    $t
    i.mbedtls_mng_otpWordRead
    mbedtls_mng_otpWordRead
        0x0001d3cc:    b538        8.      PUSH     {r3-r5,lr}
        0x0001d3ce:    4b0c        .K      LDR      r3,[pc,#48] ; [0x1d400] = 0xf02900
        0x0001d3d0:    000c        ..      MOVS     r4,r1
        0x0001d3d2:    d00b        ..      BEQ      0x1d3ec ; mbedtls_mng_otpWordRead + 32
        0x0001d3d4:    490b        .I      LDR      r1,[pc,#44] ; [0x1d404] = 0x10000008
        0x0001d3d6:    6809        .h      LDR      r1,[r1,#0]
        0x0001d3d8:    f5015180    ...Q    ADD      r1,r1,#0x1000
        0x0001d3dc:    f8d11f2c    ..,.    LDR      r1,[r1,#0xf2c]
        0x0001d3e0:    f001020f    ....    AND      r2,r1,#0xf
        0x0001d3e4:    2101        .!      MOVS     r1,#1
        0x0001d3e6:    4091        .@      LSLS     r1,r1,r2
        0x0001d3e8:    4288        .B      CMP      r0,r1
        0x0001d3ea:    d301        ..      BCC      0x1d3f0 ; mbedtls_mng_otpWordRead + 36
        0x0001d3ec:    4618        .F      MOV      r0,r3
        0x0001d3ee:    bd38        8.      POP      {r3-r5,pc}
        0x0001d3f0:    0080        ..      LSLS     r0,r0,#2
        0x0001d3f2:    4669        iF      MOV      r1,sp
        0x0001d3f4:    f7fbfd1a    ....    BL       am_hal_otp_read_word ; 0x18e2c
        0x0001d3f8:    9800        ..      LDR      r0,[sp,#0]
        0x0001d3fa:    6020         `      STR      r0,[r4,#0]
        0x0001d3fc:    2000        .       MOVS     r0,#0
        0x0001d3fe:    bd38        8.      POP      {r3-r5,pc}
    $d
        0x0001d400:    00f02900    .)..    DCD    15739136
        0x0001d404:    10000008    ....    DCD    268435464
    $t
    i.mbedtls_platform_set_calloc_free
    mbedtls_platform_set_calloc_free
        0x0001d408:    4a02        .J      LDR      r2,[pc,#8] ; [0x1d414] = 0x1000000c
        0x0001d40a:    e9c20100    ....    STRD     r0,r1,[r2,#0]
        0x0001d40e:    2000        .       MOVS     r0,#0
        0x0001d410:    4770        pG      BX       lr
    $d
        0x0001d412:    0000        ..      DCW    0
        0x0001d414:    1000000c    ....    DCD    268435468
    $t
    i.mbedtls_platform_zeroize
    mbedtls_platform_zeroize
        0x0001d418:    4b02        .K      LDR      r3,[pc,#8] ; [0x1d424] = 0x1000001c
        0x0001d41a:    460a        .F      MOV      r2,r1
        0x0001d41c:    2100        .!      MOVS     r1,#0
        0x0001d41e:    681b        .h      LDR      r3,[r3,#0]
        0x0001d420:    4718        .G      BX       r3
    $d
        0x0001d422:    0000        ..      DCW    0
        0x0001d424:    1000001c    ....    DCD    268435484
    $t
    i.mbedtls_sha512_finish_ret
    mbedtls_sha512_finish_ret
        0x0001d428:    e92d41f0    -..A    PUSH     {r4-r8,lr}
        0x0001d42c:    4604        .F      MOV      r4,r0
        0x0001d42e:    7800        .x      LDRB     r0,[r0,#0]
        0x0001d430:    460d        .F      MOV      r5,r1
        0x0001d432:    f000007f    ....    AND      r0,r0,#0x7f
        0x0001d436:    1822        ".      ADDS     r2,r4,r0
        0x0001d438:    2180        .!      MOVS     r1,#0x80
        0x0001d43a:    1c40        @.      ADDS     r0,r0,#1
        0x0001d43c:    f8821050    ..P.    STRB     r1,[r2,#0x50]
        0x0001d440:    f1040650    ..P.    ADD      r6,r4,#0x50
        0x0001d444:    2870        p(      CMP      r0,#0x70
        0x0001d446:    d806        ..      BHI      0x1d456 ; mbedtls_sha512_finish_ret + 46
        0x0001d448:    f1c00170    ..p.    RSB      r1,r0,#0x70
        0x0001d44c:    4420         D      ADD      r0,r0,r4
        0x0001d44e:    3050        P0      ADDS     r0,r0,#0x50
        0x0001d450:    f7fbf848    ..H.    BL       __aeabi_memclr ; 0x184e4
        0x0001d454:    e00f        ..      B        0x1d476 ; mbedtls_sha512_finish_ret + 78
        0x0001d456:    f1c00180    ....    RSB      r1,r0,#0x80
        0x0001d45a:    4420         D      ADD      r0,r0,r4
        0x0001d45c:    3050        P0      ADDS     r0,r0,#0x50
        0x0001d45e:    f7fbf841    ..A.    BL       __aeabi_memclr ; 0x184e4
        0x0001d462:    4631        1F      MOV      r1,r6
        0x0001d464:    4620         F      MOV      r0,r4
        0x0001d466:    f7fffa43    ..C.    BL       mbedtls_internal_sha512_process ; 0x1c8f0
        0x0001d46a:    2800        .(      CMP      r0,#0
        0x0001d46c:    d17d        }.      BNE      0x1d56a ; mbedtls_sha512_finish_ret + 322
        0x0001d46e:    2170        p!      MOVS     r1,#0x70
        0x0001d470:    4630        0F      MOV      r0,r6
        0x0001d472:    f7fbf859    ..Y.    BL       __aeabi_memclr4 ; 0x18528
        0x0001d476:    6860        `h      LDR      r0,[r4,#4]
        0x0001d478:    0f42        B.      LSRS     r2,r0,#29
        0x0001d47a:    e9d40102    ....    LDRD     r0,r1,[r4,#8]
        0x0001d47e:    00c9        ..      LSLS     r1,r1,#3
        0x0001d480:    ea417150    A.Pq    ORR      r1,r1,r0,LSR #29
        0x0001d484:    ea4202c0    B...    ORR      r2,r2,r0,LSL #3
        0x0001d488:    e8f4302c    ..,0    LDRD     r3,r0,[r4],#0xb0
        0x0001d48c:    0e0f        ..      LSRS     r7,r1,#24
        0x0001d48e:    7427        't      STRB     r7,[r4,#0x10]
        0x0001d490:    0c0f        ..      LSRS     r7,r1,#16
        0x0001d492:    7467        gt      STRB     r7,[r4,#0x11]
        0x0001d494:    0a0f        ..      LSRS     r7,r1,#8
        0x0001d496:    74a7        .t      STRB     r7,[r4,#0x12]
        0x0001d498:    0e17        ..      LSRS     r7,r2,#24
        0x0001d49a:    74e1        .t      STRB     r1,[r4,#0x13]
        0x0001d49c:    ea472701    G..'    ORR      r7,r7,r1,LSL #8
        0x0001d4a0:    7527        'u      STRB     r7,[r4,#0x14]
        0x0001d4a2:    0c17        ..      LSRS     r7,r2,#16
        0x0001d4a4:    ea474701    G..G    ORR      r7,r7,r1,LSL #16
        0x0001d4a8:    7567        gu      STRB     r7,[r4,#0x15]
        0x0001d4aa:    060f        ..      LSLS     r7,r1,#24
        0x0001d4ac:    00c0        ..      LSLS     r0,r0,#3
        0x0001d4ae:    ea472112    G..!    ORR      r1,r7,r2,LSR #8
        0x0001d4b2:    ea407053    @.Sp    ORR      r0,r0,r3,LSR #29
        0x0001d4b6:    75a1        .u      STRB     r1,[r4,#0x16]
        0x0001d4b8:    75e2        .u      STRB     r2,[r4,#0x17]
        0x0001d4ba:    0e01        ..      LSRS     r1,r0,#24
        0x0001d4bc:    7621        !v      STRB     r1,[r4,#0x18]
        0x0001d4be:    0c01        ..      LSRS     r1,r0,#16
        0x0001d4c0:    7661        av      STRB     r1,[r4,#0x19]
        0x0001d4c2:    0a01        ..      LSRS     r1,r0,#8
        0x0001d4c4:    76a1        .v      STRB     r1,[r4,#0x1a]
        0x0001d4c6:    00db        ..      LSLS     r3,r3,#3
        0x0001d4c8:    0e19        ..      LSRS     r1,r3,#24
        0x0001d4ca:    76e0        .v      STRB     r0,[r4,#0x1b]
        0x0001d4cc:    ea412100    A..!    ORR      r1,r1,r0,LSL #8
        0x0001d4d0:    7721        !w      STRB     r1,[r4,#0x1c]
        0x0001d4d2:    0c19        ..      LSRS     r1,r3,#16
        0x0001d4d4:    ea414100    A..A    ORR      r1,r1,r0,LSL #16
        0x0001d4d8:    7761        aw      STRB     r1,[r4,#0x1d]
        0x0001d4da:    0601        ..      LSLS     r1,r0,#24
        0x0001d4dc:    ea412013    A..     ORR      r0,r1,r3,LSR #8
        0x0001d4e0:    77a0        .w      STRB     r0,[r4,#0x1e]
        0x0001d4e2:    77e3        .w      STRB     r3,[r4,#0x1f]
        0x0001d4e4:    3cb0        .<      SUBS     r4,r4,#0xb0
        0x0001d4e6:    4631        1F      MOV      r1,r6
        0x0001d4e8:    4620         F      MOV      r0,r4
        0x0001d4ea:    f7fffa01    ....    BL       mbedtls_internal_sha512_process ; 0x1c8f0
        0x0001d4ee:    2800        .(      CMP      r0,#0
        0x0001d4f0:    d13b        ;.      BNE      0x1d56a ; mbedtls_sha512_finish_ret + 322
        0x0001d4f2:    f8540f14    T...    LDR      r0,[r4,#0x14]!
        0x0001d4f6:    0e00        ..      LSRS     r0,r0,#24
        0x0001d4f8:    7028        (p      STRB     r0,[r5,#0]
        0x0001d4fa:    f8540904    T...    LDR      r0,[r4],#-4
        0x0001d4fe:    0c00        ..      LSRS     r0,r0,#16
        0x0001d500:    7068        hp      STRB     r0,[r5,#1]
        0x0001d502:    88a0        ..      LDRH     r0,[r4,#4]
        0x0001d504:    0a00        ..      LSRS     r0,r0,#8
        0x0001d506:    70a8        .p      STRB     r0,[r5,#2]
        0x0001d508:    7920         y      LDRB     r0,[r4,#4]
        0x0001d50a:    70e8        .p      STRB     r0,[r5,#3]
        0x0001d50c:    6820         h      LDR      r0,[r4,#0]
        0x0001d50e:    7921        !y      LDRB     r1,[r4,#4]
        0x0001d510:    0e00        ..      LSRS     r0,r0,#24
        0x0001d512:    ea402001    @..     ORR      r0,r0,r1,LSL #8
        0x0001d516:    7128        (q      STRB     r0,[r5,#4]
        0x0001d518:    6820         h      LDR      r0,[r4,#0]
        0x0001d51a:    7921        !y      LDRB     r1,[r4,#4]
        0x0001d51c:    0c00        ..      LSRS     r0,r0,#16
        0x0001d51e:    ea404001    @..@    ORR      r0,r0,r1,LSL #16
        0x0001d522:    7168        hq      STRB     r0,[r5,#5]
        0x0001d524:    8820         .      LDRH     r0,[r4,#0]
        0x0001d526:    7921        !y      LDRB     r1,[r4,#4]
        0x0001d528:    0a00        ..      LSRS     r0,r0,#8
        0x0001d52a:    ea406001    @..`    ORR      r0,r0,r1,LSL #24
        0x0001d52e:    71a8        .q      STRB     r0,[r5,#6]
        0x0001d530:    7820         x      LDRB     r0,[r4,#0]
        0x0001d532:    71e8        .q      STRB     r0,[r5,#7]
        0x0001d534:    68e0        .h      LDR      r0,[r4,#0xc]
        0x0001d536:    0e00        ..      LSRS     r0,r0,#24
        0x0001d538:    7228        (r      STRB     r0,[r5,#8]
        0x0001d53a:    68e0        .h      LDR      r0,[r4,#0xc]
        0x0001d53c:    0c00        ..      LSRS     r0,r0,#16
        0x0001d53e:    7268        hr      STRB     r0,[r5,#9]
        0x0001d540:    89a0        ..      LDRH     r0,[r4,#0xc]
        0x0001d542:    0a00        ..      LSRS     r0,r0,#8
        0x0001d544:    72a8        .r      STRB     r0,[r5,#0xa]
        0x0001d546:    7b20         {      LDRB     r0,[r4,#0xc]
        0x0001d548:    72e8        .r      STRB     r0,[r5,#0xb]
        0x0001d54a:    68a0        .h      LDR      r0,[r4,#8]
        0x0001d54c:    7b21        !{      LDRB     r1,[r4,#0xc]
        0x0001d54e:    0e00        ..      LSRS     r0,r0,#24
        0x0001d550:    ea402001    @..     ORR      r0,r0,r1,LSL #8
        0x0001d554:    7328        (s      STRB     r0,[r5,#0xc]
        0x0001d556:    68a0        .h      LDR      r0,[r4,#8]
        0x0001d558:    7b21        !{      LDRB     r1,[r4,#0xc]
        0x0001d55a:    0c00        ..      LSRS     r0,r0,#16
        0x0001d55c:    ea404001    @..@    ORR      r0,r0,r1,LSL #16
        0x0001d560:    7368        hs      STRB     r0,[r5,#0xd]
        0x0001d562:    8920         .      LDRH     r0,[r4,#8]
        0x0001d564:    7b21        !{      LDRB     r1,[r4,#0xc]
        0x0001d566:    0a00        ..      LSRS     r0,r0,#8
        0x0001d568:    e000        ..      B        0x1d56c ; mbedtls_sha512_finish_ret + 324
        0x0001d56a:    e0e4        ..      B        0x1d736 ; mbedtls_sha512_finish_ret + 782
        0x0001d56c:    ea406001    @..`    ORR      r0,r0,r1,LSL #24
        0x0001d570:    73a8        .s      STRB     r0,[r5,#0xe]
        0x0001d572:    7a20         z      LDRB     r0,[r4,#8]
        0x0001d574:    73e8        .s      STRB     r0,[r5,#0xf]
        0x0001d576:    6960        `i      LDR      r0,[r4,#0x14]
        0x0001d578:    0e00        ..      LSRS     r0,r0,#24
        0x0001d57a:    7428        (t      STRB     r0,[r5,#0x10]
        0x0001d57c:    6960        `i      LDR      r0,[r4,#0x14]
        0x0001d57e:    0c00        ..      LSRS     r0,r0,#16
        0x0001d580:    7468        ht      STRB     r0,[r5,#0x11]
        0x0001d582:    8aa0        ..      LDRH     r0,[r4,#0x14]
        0x0001d584:    0a00        ..      LSRS     r0,r0,#8
        0x0001d586:    74a8        .t      STRB     r0,[r5,#0x12]
        0x0001d588:    7d20         }      LDRB     r0,[r4,#0x14]
        0x0001d58a:    74e8        .t      STRB     r0,[r5,#0x13]
        0x0001d58c:    6920         i      LDR      r0,[r4,#0x10]
        0x0001d58e:    7d21        !}      LDRB     r1,[r4,#0x14]
        0x0001d590:    0e00        ..      LSRS     r0,r0,#24
        0x0001d592:    ea402001    @..     ORR      r0,r0,r1,LSL #8
        0x0001d596:    7528        (u      STRB     r0,[r5,#0x14]
        0x0001d598:    6920         i      LDR      r0,[r4,#0x10]
        0x0001d59a:    7d21        !}      LDRB     r1,[r4,#0x14]
        0x0001d59c:    0c00        ..      LSRS     r0,r0,#16
        0x0001d59e:    ea404001    @..@    ORR      r0,r0,r1,LSL #16
        0x0001d5a2:    7568        hu      STRB     r0,[r5,#0x15]
        0x0001d5a4:    8a20         .      LDRH     r0,[r4,#0x10]
        0x0001d5a6:    7d21        !}      LDRB     r1,[r4,#0x14]
        0x0001d5a8:    0a00        ..      LSRS     r0,r0,#8
        0x0001d5aa:    ea406001    @..`    ORR      r0,r0,r1,LSL #24
        0x0001d5ae:    75a8        .u      STRB     r0,[r5,#0x16]
        0x0001d5b0:    7c20         |      LDRB     r0,[r4,#0x10]
        0x0001d5b2:    75e8        .u      STRB     r0,[r5,#0x17]
        0x0001d5b4:    69e0        .i      LDR      r0,[r4,#0x1c]
        0x0001d5b6:    0e00        ..      LSRS     r0,r0,#24
        0x0001d5b8:    7628        (v      STRB     r0,[r5,#0x18]
        0x0001d5ba:    69e0        .i      LDR      r0,[r4,#0x1c]
        0x0001d5bc:    0c00        ..      LSRS     r0,r0,#16
        0x0001d5be:    7668        hv      STRB     r0,[r5,#0x19]
        0x0001d5c0:    8ba0        ..      LDRH     r0,[r4,#0x1c]
        0x0001d5c2:    0a00        ..      LSRS     r0,r0,#8
        0x0001d5c4:    76a8        .v      STRB     r0,[r5,#0x1a]
        0x0001d5c6:    7f20         .      LDRB     r0,[r4,#0x1c]
        0x0001d5c8:    76e8        .v      STRB     r0,[r5,#0x1b]
        0x0001d5ca:    69a0        .i      LDR      r0,[r4,#0x18]
        0x0001d5cc:    7f21        !.      LDRB     r1,[r4,#0x1c]
        0x0001d5ce:    0e00        ..      LSRS     r0,r0,#24
        0x0001d5d0:    ea402001    @..     ORR      r0,r0,r1,LSL #8
        0x0001d5d4:    7728        (w      STRB     r0,[r5,#0x1c]
        0x0001d5d6:    69a0        .i      LDR      r0,[r4,#0x18]
        0x0001d5d8:    7f21        !.      LDRB     r1,[r4,#0x1c]
        0x0001d5da:    0c00        ..      LSRS     r0,r0,#16
        0x0001d5dc:    ea404001    @..@    ORR      r0,r0,r1,LSL #16
        0x0001d5e0:    7768        hw      STRB     r0,[r5,#0x1d]
        0x0001d5e2:    7f20         .      LDRB     r0,[r4,#0x1c]
        0x0001d5e4:    8b21        !.      LDRH     r1,[r4,#0x18]
        0x0001d5e6:    0602        ..      LSLS     r2,r0,#24
        0x0001d5e8:    ea422011    B..     ORR      r0,r2,r1,LSR #8
        0x0001d5ec:    77a8        .w      STRB     r0,[r5,#0x1e]
        0x0001d5ee:    7e20         ~      LDRB     r0,[r4,#0x18]
        0x0001d5f0:    77e8        .w      STRB     r0,[r5,#0x1f]
        0x0001d5f2:    f8540f24    T.$.    LDR      r0,[r4,#0x24]!
        0x0001d5f6:    0e00        ..      LSRS     r0,r0,#24
        0x0001d5f8:    f8850020    .. .    STRB     r0,[r5,#0x20]
        0x0001d5fc:    6820         h      LDR      r0,[r4,#0]
        0x0001d5fe:    0c00        ..      LSRS     r0,r0,#16
        0x0001d600:    f8850021    ..!.    STRB     r0,[r5,#0x21]
        0x0001d604:    8820         .      LDRH     r0,[r4,#0]
        0x0001d606:    0a00        ..      LSRS     r0,r0,#8
        0x0001d608:    f8850022    ..".    STRB     r0,[r5,#0x22]
        0x0001d60c:    7820         x      LDRB     r0,[r4,#0]
        0x0001d60e:    f8850023    ..#.    STRB     r0,[r5,#0x23]
        0x0001d612:    7820         x      LDRB     r0,[r4,#0]
        0x0001d614:    f8541c04    T...    LDR      r1,[r4,#-4]
        0x0001d618:    0202        ..      LSLS     r2,r0,#8
        0x0001d61a:    ea426011    B..`    ORR      r0,r2,r1,LSR #24
        0x0001d61e:    f8850024    ..$.    STRB     r0,[r5,#0x24]
        0x0001d622:    f8540c04    T...    LDR      r0,[r4,#-4]
        0x0001d626:    7821        !x      LDRB     r1,[r4,#0]
        0x0001d628:    0c00        ..      LSRS     r0,r0,#16
        0x0001d62a:    ea404001    @..@    ORR      r0,r0,r1,LSL #16
        0x0001d62e:    f8850025    ..%.    STRB     r0,[r5,#0x25]
        0x0001d632:    f8340c04    4...    LDRH     r0,[r4,#-4]
        0x0001d636:    f8141b04    ....    LDRB     r1,[r4],#4
        0x0001d63a:    0a00        ..      LSRS     r0,r0,#8
        0x0001d63c:    ea406001    @..`    ORR      r0,r0,r1,LSL #24
        0x0001d640:    f8850026    ..&.    STRB     r0,[r5,#0x26]
        0x0001d644:    f8140c08    ....    LDRB     r0,[r4,#-8]
        0x0001d648:    f8850027    ..'.    STRB     r0,[r5,#0x27]
        0x0001d64c:    6860        `h      LDR      r0,[r4,#4]
        0x0001d64e:    0e00        ..      LSRS     r0,r0,#24
        0x0001d650:    f8850028    ..(.    STRB     r0,[r5,#0x28]
        0x0001d654:    6860        `h      LDR      r0,[r4,#4]
        0x0001d656:    0c00        ..      LSRS     r0,r0,#16
        0x0001d658:    f8850029    ..).    STRB     r0,[r5,#0x29]
        0x0001d65c:    88a0        ..      LDRH     r0,[r4,#4]
        0x0001d65e:    0a00        ..      LSRS     r0,r0,#8
        0x0001d660:    f885002a    ..*.    STRB     r0,[r5,#0x2a]
        0x0001d664:    7920         y      LDRB     r0,[r4,#4]
        0x0001d666:    f885002b    ..+.    STRB     r0,[r5,#0x2b]
        0x0001d66a:    7920         y      LDRB     r0,[r4,#4]
        0x0001d66c:    6821        !h      LDR      r1,[r4,#0]
        0x0001d66e:    0202        ..      LSLS     r2,r0,#8
        0x0001d670:    ea426011    B..`    ORR      r0,r2,r1,LSR #24
        0x0001d674:    f885002c    ..,.    STRB     r0,[r5,#0x2c]
        0x0001d678:    7920         y      LDRB     r0,[r4,#4]
        0x0001d67a:    6821        !h      LDR      r1,[r4,#0]
        0x0001d67c:    0402        ..      LSLS     r2,r0,#16
        0x0001d67e:    ea424011    B..@    ORR      r0,r2,r1,LSR #16
        0x0001d682:    f885002d    ..-.    STRB     r0,[r5,#0x2d]
        0x0001d686:    8820         .      LDRH     r0,[r4,#0]
        0x0001d688:    7921        !y      LDRB     r1,[r4,#4]
        0x0001d68a:    0a00        ..      LSRS     r0,r0,#8
        0x0001d68c:    ea406001    @..`    ORR      r0,r0,r1,LSL #24
        0x0001d690:    f885002e    ....    STRB     r0,[r5,#0x2e]
        0x0001d694:    f8140b98    ....    LDRB     r0,[r4],#0x98
        0x0001d698:    f885002f    ../.    STRB     r0,[r5,#0x2f]
        0x0001d69c:    f85409d0    T...    LDR      r0,[r4],#-0xd0
        0x0001d6a0:    bbf0        ..      CBNZ     r0,0x1d720 ; mbedtls_sha512_finish_ret + 760
        0x0001d6a2:    f8540f44    T.D.    LDR      r0,[r4,#0x44]!
        0x0001d6a6:    0e00        ..      LSRS     r0,r0,#24
        0x0001d6a8:    f8050f30    ..0.    STRB     r0,[r5,#0x30]!
        0x0001d6ac:    6820         h      LDR      r0,[r4,#0]
        0x0001d6ae:    0c00        ..      LSRS     r0,r0,#16
        0x0001d6b0:    7068        hp      STRB     r0,[r5,#1]
        0x0001d6b2:    8820         .      LDRH     r0,[r4,#0]
        0x0001d6b4:    0a00        ..      LSRS     r0,r0,#8
        0x0001d6b6:    70a8        .p      STRB     r0,[r5,#2]
        0x0001d6b8:    7820         x      LDRB     r0,[r4,#0]
        0x0001d6ba:    70e8        .p      STRB     r0,[r5,#3]
        0x0001d6bc:    f8540c04    T...    LDR      r0,[r4,#-4]
        0x0001d6c0:    f8141b04    ....    LDRB     r1,[r4],#4
        0x0001d6c4:    0e00        ..      LSRS     r0,r0,#24
        0x0001d6c6:    ea402001    @..     ORR      r0,r0,r1,LSL #8
        0x0001d6ca:    7128        (q      STRB     r0,[r5,#4]
        0x0001d6cc:    f8540c08    T...    LDR      r0,[r4,#-8]
        0x0001d6d0:    f8141c04    ....    LDRB     r1,[r4,#-4]
        0x0001d6d4:    0c00        ..      LSRS     r0,r0,#16
        0x0001d6d6:    ea404001    @..@    ORR      r0,r0,r1,LSL #16
        0x0001d6da:    7168        hq      STRB     r0,[r5,#5]
        0x0001d6dc:    f8140c04    ....    LDRB     r0,[r4,#-4]
        0x0001d6e0:    f8341c08    4...    LDRH     r1,[r4,#-8]
        0x0001d6e4:    0602        ..      LSLS     r2,r0,#24
        0x0001d6e6:    ea422011    B..     ORR      r0,r2,r1,LSR #8
        0x0001d6ea:    71a8        .q      STRB     r0,[r5,#6]
        0x0001d6ec:    f8140c08    ....    LDRB     r0,[r4,#-8]
        0x0001d6f0:    71e8        .q      STRB     r0,[r5,#7]
        0x0001d6f2:    6860        `h      LDR      r0,[r4,#4]
        0x0001d6f4:    0e00        ..      LSRS     r0,r0,#24
        0x0001d6f6:    7228        (r      STRB     r0,[r5,#8]
        0x0001d6f8:    6860        `h      LDR      r0,[r4,#4]
        0x0001d6fa:    0c00        ..      LSRS     r0,r0,#16
        0x0001d6fc:    7268        hr      STRB     r0,[r5,#9]
        0x0001d6fe:    88a0        ..      LDRH     r0,[r4,#4]
        0x0001d700:    0a00        ..      LSRS     r0,r0,#8
        0x0001d702:    72a8        .r      STRB     r0,[r5,#0xa]
        0x0001d704:    7920         y      LDRB     r0,[r4,#4]
        0x0001d706:    72e8        .r      STRB     r0,[r5,#0xb]
        0x0001d708:    6820         h      LDR      r0,[r4,#0]
        0x0001d70a:    7921        !y      LDRB     r1,[r4,#4]
        0x0001d70c:    0e00        ..      LSRS     r0,r0,#24
        0x0001d70e:    ea402001    @..     ORR      r0,r0,r1,LSL #8
        0x0001d712:    7328        (s      STRB     r0,[r5,#0xc]
        0x0001d714:    6820         h      LDR      r0,[r4,#0]
        0x0001d716:    7921        !y      LDRB     r1,[r4,#4]
        0x0001d718:    0c00        ..      LSRS     r0,r0,#16
        0x0001d71a:    ea404001    @..@    ORR      r0,r0,r1,LSL #16
        0x0001d71e:    e000        ..      B        0x1d722 ; mbedtls_sha512_finish_ret + 762
        0x0001d720:    e008        ..      B        0x1d734 ; mbedtls_sha512_finish_ret + 780
        0x0001d722:    7368        hs      STRB     r0,[r5,#0xd]
        0x0001d724:    8820         .      LDRH     r0,[r4,#0]
        0x0001d726:    7921        !y      LDRB     r1,[r4,#4]
        0x0001d728:    0a00        ..      LSRS     r0,r0,#8
        0x0001d72a:    ea406001    @..`    ORR      r0,r0,r1,LSL #24
        0x0001d72e:    73a8        .s      STRB     r0,[r5,#0xe]
        0x0001d730:    7820         x      LDRB     r0,[r4,#0]
        0x0001d732:    73e8        .s      STRB     r0,[r5,#0xf]
        0x0001d734:    2000        .       MOVS     r0,#0
        0x0001d736:    e8bd81f0    ....    POP      {r4-r8,pc}
    i.mbedtls_sha512_free
    mbedtls_sha512_free
        0x0001d73a:    2800        .(      CMP      r0,#0
        0x0001d73c:    d002        ..      BEQ      0x1d744 ; mbedtls_sha512_free + 10
        0x0001d73e:    21d8        .!      MOVS     r1,#0xd8
        0x0001d740:    f7ffbe6a    ..j.    B.W      mbedtls_platform_zeroize ; 0x1d418
        0x0001d744:    4770        pG      BX       lr
    i.mbedtls_sha512_init
    mbedtls_sha512_init
        0x0001d746:    21d8        .!      MOVS     r1,#0xd8
        0x0001d748:    f7fabeee    ....    B        __aeabi_memclr4 ; 0x18528
    i.mbedtls_sha512_ret
    mbedtls_sha512_ret
        0x0001d74c:    b5f0        ..      PUSH     {r4-r7,lr}
        0x0001d74e:    b0b7        ..      SUB      sp,sp,#0xdc
        0x0001d750:    4607        .F      MOV      r7,r0
        0x0001d752:    461c        .F      MOV      r4,r3
        0x0001d754:    4615        .F      MOV      r5,r2
        0x0001d756:    460e        .F      MOV      r6,r1
        0x0001d758:    4668        hF      MOV      r0,sp
        0x0001d75a:    f7fffff4    ....    BL       mbedtls_sha512_init ; 0x1d746
        0x0001d75e:    4621        !F      MOV      r1,r4
        0x0001d760:    4668        hF      MOV      r0,sp
        0x0001d762:    f000f815    ....    BL       mbedtls_sha512_starts_ret ; 0x1d790
        0x0001d766:    0004        ..      MOVS     r4,r0
        0x0001d768:    d10b        ..      BNE      0x1d782 ; mbedtls_sha512_ret + 54
        0x0001d76a:    4632        2F      MOV      r2,r6
        0x0001d76c:    4639        9F      MOV      r1,r7
        0x0001d76e:    4668        hF      MOV      r0,sp
        0x0001d770:    f000f898    ....    BL       mbedtls_sha512_update_ret ; 0x1d8a4
        0x0001d774:    0004        ..      MOVS     r4,r0
        0x0001d776:    d104        ..      BNE      0x1d782 ; mbedtls_sha512_ret + 54
        0x0001d778:    4629        )F      MOV      r1,r5
        0x0001d77a:    4668        hF      MOV      r0,sp
        0x0001d77c:    f7fffe54    ..T.    BL       mbedtls_sha512_finish_ret ; 0x1d428
        0x0001d780:    4604        .F      MOV      r4,r0
        0x0001d782:    4668        hF      MOV      r0,sp
        0x0001d784:    f7ffffd9    ....    BL       mbedtls_sha512_free ; 0x1d73a
        0x0001d788:    b037        7.      ADD      sp,sp,#0xdc
        0x0001d78a:    4620         F      MOV      r0,r4
        0x0001d78c:    bdf0        ..      POP      {r4-r7,pc}
        0x0001d78e:    0000        ..      MOVS     r0,r0
    i.mbedtls_sha512_starts_ret
    mbedtls_sha512_starts_ret
        0x0001d790:    2200        ."      MOVS     r2,#0
        0x0001d792:    e9c02200    ..."    STRD     r2,r2,[r0,#0]
        0x0001d796:    e9c02202    ..."    STRD     r2,r2,[r0,#8]
        0x0001d79a:    b319        ..      CBZ      r1,0x1d7e4 ; mbedtls_sha512_starts_ret + 84
        0x0001d79c:    4b22        "K      LDR      r3,[pc,#136] ; [0x1d828] = 0xcbbb9d5d
        0x0001d79e:    4a21        !J      LDR      r2,[pc,#132] ; [0x1d824] = 0xc1059ed8
        0x0001d7a0:    e9c02304    ...#    STRD     r2,r3,[r0,#0x10]
        0x0001d7a4:    4b22        "K      LDR      r3,[pc,#136] ; [0x1d830] = 0x629a292a
        0x0001d7a6:    4a21        !J      LDR      r2,[pc,#132] ; [0x1d82c] = 0x367cd507
        0x0001d7a8:    e9c02306    ...#    STRD     r2,r3,[r0,#0x18]
        0x0001d7ac:    4b22        "K      LDR      r3,[pc,#136] ; [0x1d838] = 0x9159015a
        0x0001d7ae:    4a21        !J      LDR      r2,[pc,#132] ; [0x1d834] = 0x3070dd17
        0x0001d7b0:    e9c02308    ...#    STRD     r2,r3,[r0,#0x20]
        0x0001d7b4:    4b22        "K      LDR      r3,[pc,#136] ; [0x1d840] = 0x152fecd8
        0x0001d7b6:    4a21        !J      LDR      r2,[pc,#132] ; [0x1d83c] = 0xf70e5939
        0x0001d7b8:    e9c0230a    ...#    STRD     r2,r3,[r0,#0x28]
        0x0001d7bc:    4b22        "K      LDR      r3,[pc,#136] ; [0x1d848] = 0x67332667
        0x0001d7be:    4a21        !J      LDR      r2,[pc,#132] ; [0x1d844] = 0xffc00b31
        0x0001d7c0:    e9c0230c    ...#    STRD     r2,r3,[r0,#0x30]
        0x0001d7c4:    4b22        "K      LDR      r3,[pc,#136] ; [0x1d850] = 0x8eb44a87
        0x0001d7c6:    4a21        !J      LDR      r2,[pc,#132] ; [0x1d84c] = 0x68581511
        0x0001d7c8:    e9c0230e    ...#    STRD     r2,r3,[r0,#0x38]
        0x0001d7cc:    4b22        "K      LDR      r3,[pc,#136] ; [0x1d858] = 0xdb0c2e0d
        0x0001d7ce:    4a21        !J      LDR      r2,[pc,#132] ; [0x1d854] = 0x64f98fa7
        0x0001d7d0:    e9c02310    ...#    STRD     r2,r3,[r0,#0x40]
        0x0001d7d4:    4a21        !J      LDR      r2,[pc,#132] ; [0x1d85c] = 0xbefa4fa4
        0x0001d7d6:    4b22        "K      LDR      r3,[pc,#136] ; [0x1d860] = 0x47b5481d
        0x0001d7d8:    e9c02312    ...#    STRD     r2,r3,[r0,#0x48]
        0x0001d7dc:    f8c010d0    ....    STR      r1,[r0,#0xd0]
        0x0001d7e0:    2000        .       MOVS     r0,#0
        0x0001d7e2:    4770        pG      BX       lr
        0x0001d7e4:    4b20         K      LDR      r3,[pc,#128] ; [0x1d868] = 0x6a09e667
        0x0001d7e6:    4a1f        .J      LDR      r2,[pc,#124] ; [0x1d864] = 0xf3bcc908
        0x0001d7e8:    e9c02304    ...#    STRD     r2,r3,[r0,#0x10]
        0x0001d7ec:    4b20         K      LDR      r3,[pc,#128] ; [0x1d870] = 0xbb67ae85
        0x0001d7ee:    4a1f        .J      LDR      r2,[pc,#124] ; [0x1d86c] = 0x84caa73b
        0x0001d7f0:    e9c02306    ...#    STRD     r2,r3,[r0,#0x18]
        0x0001d7f4:    4b20         K      LDR      r3,[pc,#128] ; [0x1d878] = 0x3c6ef372
        0x0001d7f6:    4a1f        .J      LDR      r2,[pc,#124] ; [0x1d874] = 0xfe94f82b
        0x0001d7f8:    e9c02308    ...#    STRD     r2,r3,[r0,#0x20]
        0x0001d7fc:    4b20         K      LDR      r3,[pc,#128] ; [0x1d880] = 0xa54ff53a
        0x0001d7fe:    4a1f        .J      LDR      r2,[pc,#124] ; [0x1d87c] = 0x5f1d36f1
        0x0001d800:    e9c0230a    ...#    STRD     r2,r3,[r0,#0x28]
        0x0001d804:    4b20         K      LDR      r3,[pc,#128] ; [0x1d888] = 0x510e527f
        0x0001d806:    4a1f        .J      LDR      r2,[pc,#124] ; [0x1d884] = 0xade682d1
        0x0001d808:    e9c0230c    ...#    STRD     r2,r3,[r0,#0x30]
        0x0001d80c:    4b20         K      LDR      r3,[pc,#128] ; [0x1d890] = 0x9b05688c
        0x0001d80e:    4a1f        .J      LDR      r2,[pc,#124] ; [0x1d88c] = 0x2b3e6c1f
        0x0001d810:    e9c0230e    ...#    STRD     r2,r3,[r0,#0x38]
        0x0001d814:    4b20         K      LDR      r3,[pc,#128] ; [0x1d898] = 0x1f83d9ab
        0x0001d816:    4a1f        .J      LDR      r2,[pc,#124] ; [0x1d894] = 0xfb41bd6b
        0x0001d818:    e9c02310    ...#    STRD     r2,r3,[r0,#0x40]
        0x0001d81c:    4a1f        .J      LDR      r2,[pc,#124] ; [0x1d89c] = 0x137e2179
        0x0001d81e:    4b20         K      LDR      r3,[pc,#128] ; [0x1d8a0] = 0x5be0cd19
        0x0001d820:    e7da        ..      B        0x1d7d8 ; mbedtls_sha512_starts_ret + 72
    $d
        0x0001d822:    0000        ..      DCW    0
        0x0001d824:    c1059ed8    ....    DCD    3238371032
        0x0001d828:    cbbb9d5d    ]...    DCD    3418070365
        0x0001d82c:    367cd507    ..|6    DCD    914150663
        0x0001d830:    629a292a    *).b    DCD    1654270250
        0x0001d834:    3070dd17    ..p0    DCD    812702999
        0x0001d838:    9159015a    Z.Y.    DCD    2438529370
        0x0001d83c:    f70e5939    9Y..    DCD    4144912697
        0x0001d840:    152fecd8    ../.    DCD    355462360
        0x0001d844:    ffc00b31    1...    DCD    4290775857
        0x0001d848:    67332667    g&3g    DCD    1731405415
        0x0001d84c:    68581511    ..Xh    DCD    1750603025
        0x0001d850:    8eb44a87    .J..    DCD    2394180231
        0x0001d854:    64f98fa7    ...d    DCD    1694076839
        0x0001d858:    db0c2e0d    ....    DCD    3675008525
        0x0001d85c:    befa4fa4    .O..    DCD    3204075428
        0x0001d860:    47b5481d    .H.G    DCD    1203062813
        0x0001d864:    f3bcc908    ....    DCD    4089235720
        0x0001d868:    6a09e667    g..j    DCD    1779033703
        0x0001d86c:    84caa73b    ;...    DCD    2227873595
        0x0001d870:    bb67ae85    ..g.    DCD    3144134277
        0x0001d874:    fe94f82b    +...    DCD    4271175723
        0x0001d878:    3c6ef372    r.n<    DCD    1013904242
        0x0001d87c:    5f1d36f1    .6._    DCD    1595750129
        0x0001d880:    a54ff53a    :.O.    DCD    2773480762
        0x0001d884:    ade682d1    ....    DCD    2917565137
        0x0001d888:    510e527f    .R.Q    DCD    1359893119
        0x0001d88c:    2b3e6c1f    .l>+    DCD    725511199
        0x0001d890:    9b05688c    .h..    DCD    2600822924
        0x0001d894:    fb41bd6b    k.A.    DCD    4215389547
        0x0001d898:    1f83d9ab    ....    DCD    528734635
        0x0001d89c:    137e2179    y!~.    DCD    327033209
        0x0001d8a0:    5be0cd19    ...[    DCD    1541459225
    $t
    i.mbedtls_sha512_update_ret
    mbedtls_sha512_update_ret
        0x0001d8a4:    e92d41f0    -..A    PUSH     {r4-r8,lr}
        0x0001d8a8:    0014        ..      MOVS     r4,r2
        0x0001d8aa:    460f        .F      MOV      r7,r1
        0x0001d8ac:    4605        .F      MOV      r5,r0
        0x0001d8ae:    d03b        ;.      BEQ      0x1d928 ; mbedtls_sha512_update_ret + 132
        0x0001d8b0:    7828        (x      LDRB     r0,[r5,#0]
        0x0001d8b2:    2200        ."      MOVS     r2,#0
        0x0001d8b4:    f000067f    ....    AND      r6,r0,#0x7f
        0x0001d8b8:    e9d51000    ....    LDRD     r1,r0,[r5,#0]
        0x0001d8bc:    1909        ..      ADDS     r1,r1,r4
        0x0001d8be:    4150        PA      ADCS     r0,r0,r2
        0x0001d8c0:    e9c51000    ....    STRD     r1,r0,[r5,#0]
        0x0001d8c4:    1b09        ..      SUBS     r1,r1,r4
        0x0001d8c6:    f1c60880    ....    RSB      r8,r6,#0x80
        0x0001d8ca:    4190        .A      SBCS     r0,r0,r2
        0x0001d8cc:    d206        ..      BCS      0x1d8dc ; mbedtls_sha512_update_ret + 56
        0x0001d8ce:    e9d50102    ....    LDRD     r0,r1,[r5,#8]
        0x0001d8d2:    1c40        @.      ADDS     r0,r0,#1
        0x0001d8d4:    f1410100    A...    ADC      r1,r1,#0
        0x0001d8d8:    e9c50102    ....    STRD     r0,r1,[r5,#8]
        0x0001d8dc:    b1de        ..      CBZ      r6,0x1d916 ; mbedtls_sha512_update_ret + 114
        0x0001d8de:    4544        DE      CMP      r4,r8
        0x0001d8e0:    d319        ..      BCC      0x1d916 ; mbedtls_sha512_update_ret + 114
        0x0001d8e2:    19a8        ..      ADDS     r0,r5,r6
        0x0001d8e4:    4642        BF      MOV      r2,r8
        0x0001d8e6:    4639        9F      MOV      r1,r7
        0x0001d8e8:    3050        P0      ADDS     r0,r0,#0x50
        0x0001d8ea:    f7fafd2b    ..+.    BL       __aeabi_memcpy ; 0x18344
        0x0001d8ee:    f1050150    ..P.    ADD      r1,r5,#0x50
        0x0001d8f2:    4628        (F      MOV      r0,r5
        0x0001d8f4:    f7fefffc    ....    BL       mbedtls_internal_sha512_process ; 0x1c8f0
        0x0001d8f8:    2800        .(      CMP      r0,#0
        0x0001d8fa:    d116        ..      BNE      0x1d92a ; mbedtls_sha512_update_ret + 134
        0x0001d8fc:    4447        GD      ADD      r7,r7,r8
        0x0001d8fe:    eba40408    ....    SUB      r4,r4,r8
        0x0001d902:    2600        .&      MOVS     r6,#0
        0x0001d904:    e007        ..      B        0x1d916 ; mbedtls_sha512_update_ret + 114
        0x0001d906:    4639        9F      MOV      r1,r7
        0x0001d908:    4628        (F      MOV      r0,r5
        0x0001d90a:    f7fefff1    ....    BL       mbedtls_internal_sha512_process ; 0x1c8f0
        0x0001d90e:    2800        .(      CMP      r0,#0
        0x0001d910:    d10b        ..      BNE      0x1d92a ; mbedtls_sha512_update_ret + 134
        0x0001d912:    3c80        .<      SUBS     r4,r4,#0x80
        0x0001d914:    3780        .7      ADDS     r7,r7,#0x80
        0x0001d916:    2c80        .,      CMP      r4,#0x80
        0x0001d918:    d2f5        ..      BCS      0x1d906 ; mbedtls_sha512_update_ret + 98
        0x0001d91a:    b12c        ,.      CBZ      r4,0x1d928 ; mbedtls_sha512_update_ret + 132
        0x0001d91c:    19a8        ..      ADDS     r0,r5,r6
        0x0001d91e:    4622        "F      MOV      r2,r4
        0x0001d920:    4639        9F      MOV      r1,r7
        0x0001d922:    3050        P0      ADDS     r0,r0,#0x50
        0x0001d924:    f7fafd0e    ....    BL       __aeabi_memcpy ; 0x18344
        0x0001d928:    2000        .       MOVS     r0,#0
        0x0001d92a:    e8bd81f0    ....    POP      {r4-r8,pc}
    i.mbedtls_zeroize_internal
    mbedtls_zeroize_internal
        0x0001d92e:    2800        .(      CMP      r0,#0
        0x0001d930:    d005        ..      BEQ      0x1d93e ; mbedtls_zeroize_internal + 16
        0x0001d932:    2200        ."      MOVS     r2,#0
        0x0001d934:    e001        ..      B        0x1d93a ; mbedtls_zeroize_internal + 12
        0x0001d936:    f8002b01    ...+    STRB     r2,[r0],#1
        0x0001d93a:    1e49        I.      SUBS     r1,r1,#1
        0x0001d93c:    d2fb        ..      BCS      0x1d936 ; mbedtls_zeroize_internal + 8
        0x0001d93e:    4770        pG      BX       lr
    i.platform_calloc_uninit
    platform_calloc_uninit
        0x0001d940:    2000        .       MOVS     r0,#0
        0x0001d942:    4770        pG      BX       lr
    i.platform_exit_uninit
    platform_exit_uninit
        0x0001d944:    4770        pG      BX       lr
    i.platform_free_uninit
    platform_free_uninit
        0x0001d946:    4770        pG      BX       lr
    i.platform_snprintf_uninit
    platform_snprintf_uninit
        0x0001d948:    2000        .       MOVS     r0,#0
        0x0001d94a:    4770        pG      BX       lr
    i.verify_chain
    verify_chain
        0x0001d94c:    b570        p.      PUSH     {r4-r6,lr}
        0x0001d94e:    4c0d        .L      LDR      r4,[pc,#52] ; [0x1d984] = 0x10000058
        0x0001d950:    68a5        .h      LDR      r5,[r4,#8]
        0x0001d952:    b17d        }.      CBZ      r5,0x1d974 ; verify_chain + 40
        0x0001d954:    4628        (F      MOV      r0,r5
        0x0001d956:    f000f817    ....    BL       verify_header ; 0x1d988
        0x0001d95a:    b958        X.      CBNZ     r0,0x1d974 ; verify_chain + 40
        0x0001d95c:    68a0        .h      LDR      r0,[r4,#8]
        0x0001d95e:    68c1        .h      LDR      r1,[r0,#0xc]
        0x0001d960:    b941        A.      CBNZ     r1,0x1d974 ; verify_chain + 40
        0x0001d962:    6904        .i      LDR      r4,[r0,#0x10]
        0x0001d964:    e00a        ..      B        0x1d97c ; verify_chain + 48
        0x0001d966:    4620         F      MOV      r0,r4
        0x0001d968:    f000f80e    ....    BL       verify_header ; 0x1d988
        0x0001d96c:    b910        ..      CBNZ     r0,0x1d974 ; verify_chain + 40
        0x0001d96e:    68e0        .h      LDR      r0,[r4,#0xc]
        0x0001d970:    42a8        .B      CMP      r0,r5
        0x0001d972:    d001        ..      BEQ      0x1d978 ; verify_chain + 44
        0x0001d974:    2001        .       MOVS     r0,#1
        0x0001d976:    bd70        p.      POP      {r4-r6,pc}
        0x0001d978:    4625        %F      MOV      r5,r4
        0x0001d97a:    6924        $i      LDR      r4,[r4,#0x10]
        0x0001d97c:    2c00        .,      CMP      r4,#0
        0x0001d97e:    d1f2        ..      BNE      0x1d966 ; verify_chain + 26
        0x0001d980:    2000        .       MOVS     r0,#0
        0x0001d982:    bd70        p.      POP      {r4-r6,pc}
    $d
        0x0001d984:    10000058    X...    DCD    268435544
    $t
    i.verify_header
    verify_header
        0x0001d988:    4a0c        .J      LDR      r2,[pc,#48] ; [0x1d9bc] = 0xff00aa55
        0x0001d98a:    6801        .h      LDR      r1,[r0,#0]
        0x0001d98c:    4291        .B      CMP      r1,r2
        0x0001d98e:    d110        ..      BNE      0x1d9b2 ; verify_header + 42
        0x0001d990:    4a0b        .J      LDR      r2,[pc,#44] ; [0x1d9c0] = 0xee119966
        0x0001d992:    69c1        .i      LDR      r1,[r0,#0x1c]
        0x0001d994:    4291        .B      CMP      r1,r2
        0x0001d996:    d10c        ..      BNE      0x1d9b2 ; verify_header + 42
        0x0001d998:    6881        .h      LDR      r1,[r0,#8]
        0x0001d99a:    2901        .)      CMP      r1,#1
        0x0001d99c:    d809        ..      BHI      0x1d9b2 ; verify_header + 42
        0x0001d99e:    68c1        .h      LDR      r1,[r0,#0xc]
        0x0001d9a0:    b111        ..      CBZ      r1,0x1d9a8 ; verify_header + 32
        0x0001d9a2:    6902        .i      LDR      r2,[r0,#0x10]
        0x0001d9a4:    4291        .B      CMP      r1,r2
        0x0001d9a6:    d004        ..      BEQ      0x1d9b2 ; verify_header + 42
        0x0001d9a8:    6941        Ai      LDR      r1,[r0,#0x14]
        0x0001d9aa:    b121        !.      CBZ      r1,0x1d9b6 ; verify_header + 46
        0x0001d9ac:    6980        .i      LDR      r0,[r0,#0x18]
        0x0001d9ae:    4281        .B      CMP      r1,r0
        0x0001d9b0:    d101        ..      BNE      0x1d9b6 ; verify_header + 46
        0x0001d9b2:    2001        .       MOVS     r0,#1
        0x0001d9b4:    4770        pG      BX       lr
        0x0001d9b6:    2000        .       MOVS     r0,#0
        0x0001d9b8:    4770        pG      BX       lr
    $d
        0x0001d9ba:    0000        ..      DCW    0
        0x0001d9bc:    ff00aa55    U...    DCD    4278233685
        0x0001d9c0:    ee119966    f...    DCD    3994130790
    $t
    x$fpl$d2f
    $v0
    __aeabi_d2f
    _d2f
        0x0001d9c4:    f0214200    !..B    BIC      r2,r1,#0x80000000
        0x0001d9c8:    f0014300    ...C    AND      r3,r1,#0x80000000
        0x0001d9cc:    f1a25260    ..`R    SUB      r2,r2,#0x38000000
        0x0001d9d0:    f5b21f80    ....    CMP      r2,#0x100000
        0x0001d9d4:    bf28        (.      IT       CS
        0x0001d9d6:    f1d26c7f    ...l    RSBSCS   r12,r2,#0xff00000
        0x0001d9da:    d90b        ..      BLS      0x1d9f4 ; __aeabi_d2f + 48
        0x0001d9dc:    ea5f1c00    _...    LSLS     r12,r0,#4
        0x0001d9e0:    ea4302c2    C...    ORR      r2,r3,r2,LSL #3
        0x0001d9e4:    eb427050    B.Pp    ADC      r0,r2,r0,LSR #29
        0x0001d9e8:    bf18        ..      IT       NE
        0x0001d9ea:    4770        pG      BXNE     lr
        0x0001d9ec:    bf28        (.      IT       CS
        0x0001d9ee:    f0200001     ...    BICCS    r0,r0,#1
        0x0001d9f2:    4770        pG      BX       lr
        0x0001d9f4:    f5b21f80    ....    CMP      r2,#0x100000
        0x0001d9f8:    bfbc        ..      ITT      LT
        0x0001d9fa:    4618        .F      MOVLT    r0,r3
        0x0001d9fc:    4770        pG      BXLT     lr
        0x0001d9fe:    ea4f0c41    O.A.    LSL      r12,r1,#1
        0x0001da02:    f51c1f00    ....    CMN      r12,#0x200000
        0x0001da06:    d202        ..      BCS      0x1da0e ; __aeabi_d2f + 74
        0x0001da08:    4608        .F      MOV      r0,r1
        0x0001da0a:    f000b867    ..g.    B.W      __fpl_fretinf ; 0x1dadc
        0x0001da0e:    b570        p.      PUSH     {r4-r6,lr}
        0x0001da10:    f000f809    ....    BL       __fpl_dnaninf ; 0x1da26
    $d
        0x0001da14:    89000000    ....    DCD    2298478592
    $t
        0x0001da18:    f7ffbff6    ....    B.W      0x1da08 ; __aeabi_d2f + 68
        0x0001da1c:    f04f4000    O..@    MOV      r0,#0x80000000
        0x0001da20:    f5a00080    ....    SUB      r0,r0,#0x400000
        0x0001da24:    4770        pG      BX       lr
    x$fpl$dnaninf
    $v0
    __fpl_dnaninf
        0x0001da26:    f10e0e02    ....    ADD      lr,lr,#2
        0x0001da2a:    f02e0e03    ....    BIC      lr,lr,#3
        0x0001da2e:    f85e6b04    ^..k    LDR      r6,[lr],#4
        0x0001da32:    4236        6B      TST      r6,r6
        0x0001da34:    d405        ..      BMI      0x1da42 ; __fpl_dnaninf + 28
        0x0001da36:    2a01        .*      CMP      r2,#1
        0x0001da38:    eb430503    C...    ADC      r5,r3,r3
        0x0001da3c:    f5151f00    ....    CMN      r5,#0x200000
        0x0001da40:    d812        ..      BHI      0x1da68 ; __fpl_dnaninf + 66
        0x0001da42:    2801        .(      CMP      r0,#1
        0x0001da44:    eb410c01    A...    ADC      r12,r1,r1
        0x0001da48:    f51c1f00    ....    CMN      r12,#0x200000
        0x0001da4c:    d80c        ..      BHI      0x1da68 ; __fpl_dnaninf + 66
        0x0001da4e:    d10e        ..      BNE      0x1da6e ; __fpl_dnaninf + 72
        0x0001da50:    ea4f7cd1    O..|    LSR      r12,r1,#31
        0x0001da54:    eb0c0c4c    ..L.    ADD      r12,r12,r12,LSL #1
        0x0001da58:    f10c0c02    ....    ADD      r12,r12,#2
        0x0001da5c:    f5151f00    ....    CMN      r5,#0x200000
        0x0001da60:    bf08        ..      IT       EQ
        0x0001da62:    eb4c7cd3    L..|    ADCEQ    r12,r12,r3,LSR #31
        0x0001da66:    e004        ..      B        0x1da72 ; __fpl_dnaninf + 76
        0x0001da68:    f04f0c08    O...    MOV      r12,#8
        0x0001da6c:    e001        ..      B        0x1da72 ; __fpl_dnaninf + 76
        0x0001da6e:    ea4f7cd3    O..|    LSR      r12,r3,#31
        0x0001da72:    eb0c054c    ..L.    ADD      r5,r12,r12,LSL #1
        0x0001da76:    fa26f605    &...    LSR      r6,r6,r5
        0x0001da7a:    f0060607    ....    AND      r6,r6,#7
        0x0001da7e:    f1b60c04    ....    SUBS     r12,r6,#4
        0x0001da82:    d206        ..      BCS      0x1da92 ; __fpl_dnaninf + 108
        0x0001da84:    eb0e0c86    ....    ADD      r12,lr,r6,LSL #2
        0x0001da88:    e8bd4070    ..p@    POP      {r4-r6,lr}
        0x0001da8c:    f04c0c01    L...    ORR      r12,r12,#1
        0x0001da90:    4760        `G      BX       r12
        0x0001da92:    e8dff00c    ....    TBB      [pc,r12]
    $d
        0x0001da96:    0b09        ..      DCW    2825
        0x0001da98:    0202        ..      DCW    514
    $t
        0x0001da9a:    f04f4100    O..A    MOV      r1,#0x80000000
        0x0001da9e:    f5a12100    ...!    SUB      r1,r1,#0x80000
        0x0001daa2:    f04f0000    O...    MOV      r0,#0
        0x0001daa6:    bd70        p.      POP      {r4-r6,pc}
        0x0001daa8:    4619        .F      MOV      r1,r3
        0x0001daaa:    4610        .F      MOV      r0,r2
        0x0001daac:    2801        .(      CMP      r0,#1
        0x0001daae:    eb510401    Q...    ADCS     r4,r1,r1
        0x0001dab2:    bf18        ..      IT       NE
        0x0001dab4:    f5d41400    ....    RSBSNE   r4,r4,#0x200000
        0x0001dab8:    bf84        ..      ITT      HI
        0x0001daba:    2000        .       MOVHI    r0,#0
        0x0001dabc:    f0014100    ...A    ANDHI    r1,r1,#0x80000000
        0x0001dac0:    bd70        p.      POP      {r4-r6,pc}
    x$fpl$fpinit
    $v0
    _fp_init
        0x0001dac2:    eef10a10    ....    VMRS     r0,FPSCR
        0x0001dac6:    f64f71ff    O..q    MOV      r1,#0xffff
        0x0001daca:    f2c031c0    ...1    MOVT     r1,#0x3c0
        0x0001dace:    ea200001     ...    BIC      r0,r0,r1
        0x0001dad2:    f0407040    @.@p    ORR      r0,r0,#0x3000000
        0x0001dad6:    eee10a10    ....    VMSR     FPSCR,r0
    __fplib_config_fpu_vfp
    __fplib_config_pureend_doubles
        0x0001dada:    4770        pG      BX       lr
    x$fpl$fretinf
    $v0
    __fpl_fretinf
        0x0001dadc:    21ff        .!      MOVS     r1,#0xff
        0x0001dade:    ea4150d0    A..P    ORR      r0,r1,r0,LSR #23
        0x0001dae2:    05c0        ..      LSLS     r0,r0,#23
        0x0001dae4:    4770        pG      BX       lr
    x$fpl$usenofp
    __I$use$fp
        0x0001dae6:    0000        ..      MOVS     r0,r0
    $d.realdata
    .constdata
        0x0001dae8:    000000c0    ....    DCD    192
        0x0001daec:    000000b0    ....    DCD    176
        0x0001daf0:    0000000b    ....    DCD    11
        0x0001daf4:    00000000    ....    DCD    0
        0x0001daf8:    00000004    ....    DCD    4
        0x0001dafc:    000000c0    ....    DCD    192
        0x0001db00:    000000b0    ....    DCD    176
        0x0001db04:    0000002b    +...    DCD    43
        0x0001db08:    00000000    ....    DCD    0
        0x0001db0c:    00000004    ....    DCD    4
        0x0001db10:    0000000d    ....    DCD    13
        0x0001db14:    000000f0    ....    DCD    240
        0x0001db18:    00000005    ....    DCD    5
        0x0001db1c:    000000b1    ....    DCD    177
    .constdata
    K
        0x0001db20:    d728ae22    ".(.    DCD    3609767458
        0x0001db24:    428a2f98    ./.B    DCD    1116352408
        0x0001db28:    23ef65cd    .e.#    DCD    602891725
        0x0001db2c:    71374491    .D7q    DCD    1899447441
        0x0001db30:    ec4d3b2f    /;M.    DCD    3964484399
        0x0001db34:    b5c0fbcf    ....    DCD    3049323471
        0x0001db38:    8189dbbc    ....    DCD    2173295548
        0x0001db3c:    e9b5dba5    ....    DCD    3921009573
        0x0001db40:    f348b538    8.H.    DCD    4081628472
        0x0001db44:    3956c25b    [.V9    DCD    961987163
        0x0001db48:    b605d019    ....    DCD    3053834265
        0x0001db4c:    59f111f1    ...Y    DCD    1508970993
        0x0001db50:    af194f9b    .O..    DCD    2937671579
        0x0001db54:    923f82a4    ..?.    DCD    2453635748
        0x0001db58:    da6d8118    ..m.    DCD    3664609560
        0x0001db5c:    ab1c5ed5    .^..    DCD    2870763221
        0x0001db60:    a3030242    B...    DCD    2734883394
        0x0001db64:    d807aa98    ....    DCD    3624381080
        0x0001db68:    45706fbe    .opE    DCD    1164996542
        0x0001db6c:    12835b01    .[..    DCD    310598401
        0x0001db70:    4ee4b28c    ...N    DCD    1323610764
        0x0001db74:    243185be    ..1$    DCD    607225278
        0x0001db78:    d5ffb4e2    ....    DCD    3590304994
        0x0001db7c:    550c7dc3    .}.U    DCD    1426881987
        0x0001db80:    f27b896f    o.{.    DCD    4068182383
        0x0001db84:    72be5d74    t].r    DCD    1925078388
        0x0001db88:    3b1696b1    ...;    DCD    991336113
        0x0001db8c:    80deb1fe    ....    DCD    2162078206
        0x0001db90:    25c71235    5..%    DCD    633803317
        0x0001db94:    9bdc06a7    ....    DCD    2614888103
        0x0001db98:    cf692694    .&i.    DCD    3479774868
        0x0001db9c:    c19bf174    t...    DCD    3248222580
        0x0001dba0:    9ef14ad2    .J..    DCD    2666613458
        0x0001dba4:    e49b69c1    .i..    DCD    3835390401
        0x0001dba8:    384f25e3    .%O8    DCD    944711139
        0x0001dbac:    efbe4786    .G..    DCD    4022224774
        0x0001dbb0:    8b8cd5b5    ....    DCD    2341262773
        0x0001dbb4:    0fc19dc6    ....    DCD    264347078
        0x0001dbb8:    77ac9c65    e..w    DCD    2007800933
        0x0001dbbc:    240ca1cc    ...$    DCD    604807628
        0x0001dbc0:    592b0275    u.+Y    DCD    1495990901
        0x0001dbc4:    2de92c6f    o,.-    DCD    770255983
        0x0001dbc8:    6ea6e483    ...n    DCD    1856431235
        0x0001dbcc:    4a7484aa    ..tJ    DCD    1249150122
        0x0001dbd0:    bd41fbd4    ..A.    DCD    3175218132
        0x0001dbd4:    5cb0a9dc    ...\    DCD    1555081692
        0x0001dbd8:    831153b5    .S..    DCD    2198950837
        0x0001dbdc:    76f988da    ...v    DCD    1996064986
        0x0001dbe0:    ee66dfab    ..f.    DCD    3999719339
        0x0001dbe4:    983e5152    RQ>.    DCD    2554220882
        0x0001dbe8:    2db43210    .2.-    DCD    766784016
        0x0001dbec:    a831c66d    m.1.    DCD    2821834349
        0x0001dbf0:    98fb213f    ?!..    DCD    2566594879
        0x0001dbf4:    b00327c8    .'..    DCD    2952996808
        0x0001dbf8:    beef0ee4    ....    DCD    3203337956
        0x0001dbfc:    bf597fc7    ..Y.    DCD    3210313671
        0x0001dc00:    3da88fc2    ...=    DCD    1034457026
        0x0001dc04:    c6e00bf3    ....    DCD    3336571891
        0x0001dc08:    930aa725    %...    DCD    2466948901
        0x0001dc0c:    d5a79147    G...    DCD    3584528711
        0x0001dc10:    e003826f    o...    DCD    3758326383
        0x0001dc14:    06ca6351    Qc..    DCD    113926993
        0x0001dc18:    0a0e6e70    pn..    DCD    168717936
        0x0001dc1c:    14292967    g)).    DCD    338241895
        0x0001dc20:    46d22ffc    ./.F    DCD    1188179964
        0x0001dc24:    27b70a85    ...'    DCD    666307205
        0x0001dc28:    5c26c926    &.&\    DCD    1546045734
        0x0001dc2c:    2e1b2138    8!..    DCD    773529912
        0x0001dc30:    5ac42aed    .*.Z    DCD    1522805485
        0x0001dc34:    4d2c6dfc    .m,M    DCD    1294757372
        0x0001dc38:    9d95b3df    ....    DCD    2643833823
        0x0001dc3c:    53380d13    ..8S    DCD    1396182291
        0x0001dc40:    8baf63de    .c..    DCD    2343527390
        0x0001dc44:    650a7354    Ts.e    DCD    1695183700
        0x0001dc48:    3c77b2a8    ..w<    DCD    1014477480
        0x0001dc4c:    766a0abb    ..jv    DCD    1986661051
        0x0001dc50:    47edaee6    ...G    DCD    1206759142
        0x0001dc54:    81c2c92e    ....    DCD    2177026350
        0x0001dc58:    1482353b    ;5..    DCD    344077627
        0x0001dc5c:    92722c85    .,r.    DCD    2456956037
        0x0001dc60:    4cf10364    d..L    DCD    1290863460
        0x0001dc64:    a2bfe8a1    ....    DCD    2730485921
        0x0001dc68:    bc423001    .0B.    DCD    3158454273
        0x0001dc6c:    a81a664b    Kf..    DCD    2820302411
        0x0001dc70:    d0f89791    ....    DCD    3505952657
        0x0001dc74:    c24b8b70    p.K.    DCD    3259730800
        0x0001dc78:    0654be30    0.T.    DCD    106217008
        0x0001dc7c:    c76c51a3    .Ql.    DCD    3345764771
        0x0001dc80:    d6ef5218    .R..    DCD    3606008344
        0x0001dc84:    d192e819    ....    DCD    3516065817
        0x0001dc88:    5565a910    ..eU    DCD    1432725776
        0x0001dc8c:    d6990624    $...    DCD    3600352804
        0x0001dc90:    5771202a    * qW    DCD    1467031594
        0x0001dc94:    f40e3585    .5..    DCD    4094571909
        0x0001dc98:    32bbd1b8    ...2    DCD    851169720
        0x0001dc9c:    106aa070    p.j.    DCD    275423344
        0x0001dca0:    b8d2d0c8    ....    DCD    3100823752
        0x0001dca4:    19a4c116    ....    DCD    430227734
        0x0001dca8:    5141ab53    S.AQ    DCD    1363258195
        0x0001dcac:    1e376c08    .l7.    DCD    506948616
        0x0001dcb0:    df8eeb99    ....    DCD    3750685593
        0x0001dcb4:    2748774c    LwH'    DCD    659060556
        0x0001dcb8:    e19b48a8    .H..    DCD    3785050280
        0x0001dcbc:    34b0bcb5    ...4    DCD    883997877
        0x0001dcc0:    c5c95a63    cZ..    DCD    3318307427
        0x0001dcc4:    391c0cb3    ...9    DCD    958139571
        0x0001dcc8:    e3418acb    ..A.    DCD    3812723403
        0x0001dccc:    4ed8aa4a    J..N    DCD    1322822218
        0x0001dcd0:    7763e373    s.cw    DCD    2003034995
        0x0001dcd4:    5b9cca4f    O..[    DCD    1537002063
        0x0001dcd8:    d6b2b8a3    ....    DCD    3602036899
        0x0001dcdc:    682e6ff3    .o.h    DCD    1747873779
        0x0001dce0:    5defb2fc    ...]    DCD    1575990012
        0x0001dce4:    748f82ee    ...t    DCD    1955562222
        0x0001dce8:    43172f60    `/.C    DCD    1125592928
        0x0001dcec:    78a5636f    oc.x    DCD    2024104815
        0x0001dcf0:    a1f0ab72    r...    DCD    2716904306
        0x0001dcf4:    84c87814    .x..    DCD    2227730452
        0x0001dcf8:    1a6439ec    .9d.    DCD    442776044
        0x0001dcfc:    8cc70208    ....    DCD    2361852424
        0x0001dd00:    23631e28    (.c#    DCD    593698344
        0x0001dd04:    90befffa    ....    DCD    2428436474
        0x0001dd08:    de82bde9    ....    DCD    3733110249
        0x0001dd0c:    a4506ceb    .lP.    DCD    2756734187
        0x0001dd10:    b2c67915    .y..    DCD    2999351573
        0x0001dd14:    bef9a3f7    ....    DCD    3204031479
        0x0001dd18:    e372532b    +Sr.    DCD    3815920427
        0x0001dd1c:    c67178f2    .xq.    DCD    3329325298
        0x0001dd20:    ea26619c    .a&.    DCD    3928383900
        0x0001dd24:    ca273ece    .>'.    DCD    3391569614
        0x0001dd28:    21c0c207    ...!    DCD    566280711
        0x0001dd2c:    d186b8c7    ....    DCD    3515267271
        0x0001dd30:    cde0eb1e    ....    DCD    3454069534
        0x0001dd34:    eada7dd6    .}..    DCD    3940187606
        0x0001dd38:    ee6ed178    x.n.    DCD    4000239992
        0x0001dd3c:    f57d4f7f    .O}.    DCD    4118630271
        0x0001dd40:    72176fba    .o.r    DCD    1914138554
        0x0001dd44:    06f067aa    .g..    DCD    116418474
        0x0001dd48:    a2c898a6    ....    DCD    2731055270
        0x0001dd4c:    0a637dc5    .}c.    DCD    174292421
        0x0001dd50:    bef90dae    ....    DCD    3203993006
        0x0001dd54:    113f9804    ..?.    DCD    289380356
        0x0001dd58:    131c471b    .G..    DCD    320620315
        0x0001dd5c:    1b710b35    5.q.    DCD    460393269
        0x0001dd60:    23047d84    .}.#    DCD    587496836
        0x0001dd64:    28db77f5    .w.(    DCD    685471733
        0x0001dd68:    40c72493    .$.@    DCD    1086792851
        0x0001dd6c:    32caab7b    {..2    DCD    852142971
        0x0001dd70:    15c9bebc    ....    DCD    365543100
        0x0001dd74:    3c9ebe0a    ...<    DCD    1017036298
        0x0001dd78:    9c100d4c    L...    DCD    2618297676
        0x0001dd7c:    431d67c4    .g.C    DCD    1126000580
        0x0001dd80:    cb3e42b6    .B>.    DCD    3409855158
        0x0001dd84:    4cc5d4be    ...L    DCD    1288033470
        0x0001dd88:    fc657e2a    *~e.    DCD    4234509866
        0x0001dd8c:    597f299c    .).Y    DCD    1501505948
        0x0001dd90:    3ad6faec    ...:    DCD    987167468
        0x0001dd94:    5fcb6fab    .o._    DCD    1607167915
        0x0001dd98:    4a475817    .XGJ    DCD    1246189591
        0x0001dd9c:    6c44198c    ..Dl    DCD    1816402316
    sha512_test_buf
        0x0001dda0:    00636261    abc.    DCD    6513249
        0x0001dda4:    00000000    ....    DCD    0
        0x0001dda8:    00000000    ....    DCD    0
        0x0001ddac:    00000000    ....    DCD    0
        0x0001ddb0:    00000000    ....    DCD    0
        0x0001ddb4:    00000000    ....    DCD    0
        0x0001ddb8:    00000000    ....    DCD    0
        0x0001ddbc:    00000000    ....    DCD    0
        0x0001ddc0:    00000000    ....    DCD    0
        0x0001ddc4:    00000000    ....    DCD    0
        0x0001ddc8:    00000000    ....    DCD    0
        0x0001ddcc:    00000000    ....    DCD    0
        0x0001ddd0:    00000000    ....    DCD    0
        0x0001ddd4:    00000000    ....    DCD    0
        0x0001ddd8:    00000000    ....    DCD    0
        0x0001dddc:    00000000    ....    DCD    0
        0x0001dde0:    00000000    ....    DCD    0
        0x0001dde4:    00000000    ....    DCD    0
        0x0001dde8:    00000000    ....    DCD    0
        0x0001ddec:    00000000    ....    DCD    0
        0x0001ddf0:    00000000    ....    DCD    0
        0x0001ddf4:    00000000    ....    DCD    0
        0x0001ddf8:    00000000    ....    DCD    0
        0x0001ddfc:    00000000    ....    DCD    0
        0x0001de00:    00000000    ....    DCD    0
        0x0001de04:    00000000    ....    DCD    0
        0x0001de08:    00000000    ....    DCD    0
        0x0001de0c:    00000000    ....    DCD    0
        0x0001de10:    63626100    .abc    DCD    1667391744
        0x0001de14:    67666564    defg    DCD    1734763876
        0x0001de18:    64636268    hbcd    DCD    1684234856
        0x0001de1c:    68676665    efgh    DCD    1751606885
        0x0001de20:    65646369    icde    DCD    1701077865
        0x0001de24:    69686766    fghi    DCD    1768449894
        0x0001de28:    6665646a    jdef    DCD    1717920874
        0x0001de2c:    6a696867    ghij    DCD    1785292903
        0x0001de30:    6766656b    kefg    DCD    1734763883
        0x0001de34:    6b6a6968    hijk    DCD    1802135912
        0x0001de38:    6867666c    lfgh    DCD    1751606892
        0x0001de3c:    6c6b6a69    ijkl    DCD    1818978921
        0x0001de40:    6968676d    mghi    DCD    1768449901
        0x0001de44:    6d6c6b6a    jklm    DCD    1835821930
        0x0001de48:    6a69686e    nhij    DCD    1785292910
        0x0001de4c:    6e6d6c6b    klmn    DCD    1852664939
        0x0001de50:    6b6a696f    oijk    DCD    1802135919
        0x0001de54:    6f6e6d6c    lmno    DCD    1869507948
        0x0001de58:    6c6b6a70    pjkl    DCD    1818978928
        0x0001de5c:    706f6e6d    mnop    DCD    1886350957
        0x0001de60:    6d6c6b71    qklm    DCD    1835821937
        0x0001de64:    71706f6e    nopq    DCD    1903193966
        0x0001de68:    6e6d6c72    rlmn    DCD    1852664946
        0x0001de6c:    7271706f    opqr    DCD    1920036975
        0x0001de70:    6f6e6d73    smno    DCD    1869507955
        0x0001de74:    73727170    pqrs    DCD    1936879984
        0x0001de78:    706f6e74    tnop    DCD    1886350964
        0x0001de7c:    74737271    qrst    DCD    1953722993
        0x0001de80:    00000075    u...    DCD    117
        0x0001de84:    00000000    ....    DCD    0
        0x0001de88:    00000000    ....    DCD    0
        0x0001de8c:    00000000    ....    DCD    0
        0x0001de90:    00000000    ....    DCD    0
        0x0001de94:    00000000    ....    DCD    0
        0x0001de98:    00000000    ....    DCD    0
        0x0001de9c:    00000000    ....    DCD    0
        0x0001dea0:    00000000    ....    DCD    0
        0x0001dea4:    00000000    ....    DCD    0
        0x0001dea8:    00000000    ....    DCD    0
        0x0001deac:    00000000    ....    DCD    0
        0x0001deb0:    00000000    ....    DCD    0
        0x0001deb4:    00000000    ....    DCD    0
        0x0001deb8:    00000000    ....    DCD    0
        0x0001debc:    00000000    ....    DCD    0
        0x0001dec0:    00000000    ....    DCD    0
        0x0001dec4:    00000000    ....    DCD    0
        0x0001dec8:    00000000    ....    DCD    0
        0x0001decc:    00000000    ....    DCD    0
        0x0001ded0:    00000000    ....    DCD    0
        0x0001ded4:    00000000    ....    DCD    0
        0x0001ded8:    00000000    ....    DCD    0
        0x0001dedc:    00000000    ....    DCD    0
        0x0001dee0:    00000000    ....    DCD    0
        0x0001dee4:    00000000    ....    DCD    0
        0x0001dee8:    00000000    ....    DCD    0
        0x0001deec:    00000000    ....    DCD    0
        0x0001def0:    00000000    ....    DCD    0
    sha512_test_buflen
        0x0001def4:    00000003    ....    DCD    3
        0x0001def8:    00000070    p...    DCD    112
        0x0001defc:    000003e8    ....    DCD    1000
    sha512_test_sum
        0x0001df00:    3f7500cb    ..u?    DCD    1064632523
        0x0001df04:    8b5ea345    E.^.    DCD    2338235205
        0x0001df08:    693da0b5    ..=i    DCD    1765646517
        0x0001df0c:    0750c69a    ..P.    DCD    122734234
        0x0001df10:    ab322c27    ',2.    DCD    2872192039
        0x0001df14:    63d1de0e    ...c    DCD    1674698254
        0x0001df18:    5a608b1a    ..`Z    DCD    1516276506
        0x0001df1c:    ed5bff43    C.[.    DCD    3982229315
        0x0001df20:    2b078680    ...+    DCD    721913472
        0x0001df24:    23cce7a1    ...#    DCD    600631201
        0x0001df28:    a1ecba58    X...    DCD    2716645976
        0x0001df2c:    a725c834    4.%.    DCD    2804271156
        0x0001df30:    00000000    ....    DCD    0
        0x0001df34:    00000000    ....    DCD    0
        0x0001df38:    00000000    ....    DCD    0
        0x0001df3c:    00000000    ....    DCD    0
        0x0001df40:    330c3309    .3.3    DCD    856437513
        0x0001df44:    e84711f7    ..G.    DCD    3896971767
        0x0001df48:    c72f193d    =./.    DCD    3341752637
        0x0001df4c:    471bcd82    ...G    DCD    1193004418
        0x0001df50:    171b1153    S...    DCD    387649875
        0x0001df54:    d2053b3b    ;;..    DCD    3523558203
        0x0001df58:    8680a02f    /...    DCD    2256576559
        0x0001df5c:    12f7b0e3    ....    DCD    318222563
        0x0001df60:    1ac7c7fc    ....    DCD    449300476
        0x0001df64:    b92d7e55    U~-.    DCD    3106766421
        0x0001df68:    fae9c366    f...    DCD    4209623910
        0x0001df6c:    39607491    .t`9    DCD    962622609
        0x0001df70:    00000000    ....    DCD    0
        0x0001df74:    00000000    ....    DCD    0
        0x0001df78:    00000000    ....    DCD    0
        0x0001df7c:    00000000    ....    DCD    0
        0x0001df80:    09180e9d    ....    DCD    152571549
        0x0001df84:    cb746471    qdt.    DCD    3413402737
        0x0001df88:    4e836e08    .n.N    DCD    1317236232
        0x0001df8c:    1c4a0a31    1.J.    DCD    474614321
        0x0001df90:    9c9e14ed    ....    DCD    2627605741
        0x0001df94:    5248f200    ..HR    DCD    1380512256
        0x0001df98:    c5ce7279    yr..    DCD    3318641273
        0x0001df9c:    5b2a4c70    pL*[    DCD    1529498736
        0x0001dfa0:    dcb3b807    ....    DCD    3702765575
        0x0001dfa4:    ebc4ec38    8...    DCD    3955551288
        0x0001dfa8:    d8dd97ae    ....    DCD    3638400942
        0x0001dfac:    85893d7f    .=..    DCD    2240363903
        0x0001dfb0:    00000000    ....    DCD    0
        0x0001dfb4:    00000000    ....    DCD    0
        0x0001dfb8:    00000000    ....    DCD    0
        0x0001dfbc:    00000000    ....    DCD    0
        0x0001dfc0:    a135afdd    ..5.    DCD    2704650205
        0x0001dfc4:    ba7a6193    .az.    DCD    3128582547
        0x0001dfc8:    497341cc    .AsI    DCD    1232290252
        0x0001dfcc:    314120ae    . A1    DCD    826351790
        0x0001dfd0:    4efae612    ...N    DCD    1325065746
        0x0001dfd4:    a27ea989    ..~.    DCD    2726209929
        0x0001dfd8:    e6ee9e0a    ....    DCD    3874397706
        0x0001dfdc:    9ad3554b    KU..    DCD    2597541195
        0x0001dfe0:    2a999221    !..*    DCD    714707489
        0x0001dfe4:    a8c14f27    'O..    DCD    2831240999
        0x0001dfe8:    233cba36    6.<#    DCD    591182390
        0x0001dfec:    bdebfea3    ....    DCD    3186359971
        0x0001dff0:    23444d45    EMD#    DCD    591678789
        0x0001dff4:    0ee83c64    d<..    DCD    250100836
        0x0001dff8:    4fc99a2a    *..O    DCD    1338612266
        0x0001dffc:    9fa44ca5    .L..    DCD    2678344869
        0x0001e000:    759b958e    ...u    DCD    1973130638
        0x0001e004:    da13e3da    ....    DCD    3658736602
        0x0001e008:    28f7f48c    ...(    DCD    687338636
        0x0001e00c:    3f14fc14    ...?    DCD    1058339860
        0x0001e010:    c679778f    .wy.    DCD    3329849231
        0x0001e014:    a17f9feb    ....    DCD    2709495787
        0x0001e018:    adae9972    r...    DCD    2913900914
        0x0001e01c:    189088b6    ....    DCD    412125366
        0x0001e020:    9e281d50    P.(.    DCD    2653429072
        0x0001e024:    e4f70049    I...    DCD    3841392713
        0x0001e028:    de991b33    3...    DCD    3734575923
        0x0001e02c:    3a43b5c4    ..C:    DCD    977515972
        0x0001e030:    ee29d3c7    ..).    DCD    3995718599
        0x0001e034:    5426ddb6    ..&T    DCD    1411833270
        0x0001e038:    5be5965e    ^..[    DCD    1541772894
        0x0001e03c:    09e94b87    .K..    DCD    166284167
        0x0001e040:    3d4818e7    ..H=    DCD    1028135143
        0x0001e044:    6469e70c    ..id    DCD    1684662028
        0x0001e048:    c7422e4e    N.B.    DCD    3343003214
        0x0001e04c:    63b415bc    ...c    DCD    1672746428
        0x0001e050:    b1981f8e    ....    DCD    2979536782
        0x0001e054:    2844203b    ; D(    DCD    675553339
        0x0001e058:    03a83256    V2..    DCD    61354582
        0x0001e05c:    eb73a9af    ..s.    DCD    3950225839
        0x0001e060:    44f20fde    ...D    DCD    1156714462
        0x0001e064:    0aa67e87    .~..    DCD    178683527
        0x0001e068:    2c43b04c    L.C,    DCD    742633548
        0x0001e06c:    1bc377e5    .w..    DCD    465795045
        0x0001e070:    5c9c00eb    ...\    DCD    1553727723
        0x0001e074:    2eaa492c    ,I..    DCD    782911788
        0x0001e078:    17b2ad4e    N...    DCD    397585742
        0x0001e07c:    9bc08cad    ....    DCD    2613087405
    am_hal_daxi_defaults
        0x0001e080:    00020100    ....    DCD    131328
        0x0001e084:    00000001    ....    DCD    1
    am_hal_pwrctrl_peripheral_control
        0x0001e088:    40021004    ...@    DCD    1073876996
        0x0001e08c:    00000001    ....    DCD    1
        0x0001e090:    40021008    ...@    DCD    1073877000
        0x0001e094:    00000001    ....    DCD    1
        0x0001e098:    40021004    ...@    DCD    1073876996
        0x0001e09c:    00000002    ....    DCD    2
        0x0001e0a0:    40021008    ...@    DCD    1073877000
        0x0001e0a4:    0000001e    ....    DCD    30
        0x0001e0a8:    40021004    ...@    DCD    1073876996
        0x0001e0ac:    00000004    ....    DCD    4
        0x0001e0b0:    40021008    ...@    DCD    1073877000
        0x0001e0b4:    0000001e    ....    DCD    30
        0x0001e0b8:    40021004    ...@    DCD    1073876996
        0x0001e0bc:    00000008    ....    DCD    8
        0x0001e0c0:    40021008    ...@    DCD    1073877000
        0x0001e0c4:    0000001e    ....    DCD    30
        0x0001e0c8:    40021004    ...@    DCD    1073876996
        0x0001e0cc:    00000010    ....    DCD    16
        0x0001e0d0:    40021008    ...@    DCD    1073877000
        0x0001e0d4:    0000001e    ....    DCD    30
        0x0001e0d8:    40021004    ...@    DCD    1073876996
        0x0001e0dc:    00000020     ...    DCD    32
        0x0001e0e0:    40021008    ...@    DCD    1073877000
        0x0001e0e4:    000001e0    ....    DCD    480
        0x0001e0e8:    40021004    ...@    DCD    1073876996
        0x0001e0ec:    00000040    @...    DCD    64
        0x0001e0f0:    40021008    ...@    DCD    1073877000
        0x0001e0f4:    000001e0    ....    DCD    480
        0x0001e0f8:    40021004    ...@    DCD    1073876996
        0x0001e0fc:    00000080    ....    DCD    128
        0x0001e100:    40021008    ...@    DCD    1073877000
        0x0001e104:    000001e0    ....    DCD    480
        0x0001e108:    40021004    ...@    DCD    1073876996
        0x0001e10c:    00000100    ....    DCD    256
        0x0001e110:    40021008    ...@    DCD    1073877000
        0x0001e114:    000001e0    ....    DCD    480
        0x0001e118:    40021004    ...@    DCD    1073876996
        0x0001e11c:    00000200    ....    DCD    512
        0x0001e120:    40021008    ...@    DCD    1073877000
        0x0001e124:    00001e00    ....    DCD    7680
        0x0001e128:    40021004    ...@    DCD    1073876996
        0x0001e12c:    00000400    ....    DCD    1024
        0x0001e130:    40021008    ...@    DCD    1073877000
        0x0001e134:    00001e00    ....    DCD    7680
        0x0001e138:    40021004    ...@    DCD    1073876996
        0x0001e13c:    00000800    ....    DCD    2048
        0x0001e140:    40021008    ...@    DCD    1073877000
        0x0001e144:    00001e00    ....    DCD    7680
        0x0001e148:    40021004    ...@    DCD    1073876996
        0x0001e14c:    00001000    ....    DCD    4096
        0x0001e150:    40021008    ...@    DCD    1073877000
        0x0001e154:    00001e00    ....    DCD    7680
        0x0001e158:    40021004    ...@    DCD    1073876996
        0x0001e15c:    00002000    . ..    DCD    8192
        0x0001e160:    40021008    ...@    DCD    1073877000
        0x0001e164:    00002000    . ..    DCD    8192
        0x0001e168:    40021004    ...@    DCD    1073876996
        0x0001e16c:    00004000    .@..    DCD    16384
        0x0001e170:    40021008    ...@    DCD    1073877000
        0x0001e174:    0001c000    ....    DCD    114688
        0x0001e178:    40021004    ...@    DCD    1073876996
        0x0001e17c:    00008000    ....    DCD    32768
        0x0001e180:    40021008    ...@    DCD    1073877000
        0x0001e184:    0001c000    ....    DCD    114688
        0x0001e188:    40021004    ...@    DCD    1073876996
        0x0001e18c:    00010000    ....    DCD    65536
        0x0001e190:    40021008    ...@    DCD    1073877000
        0x0001e194:    0001c000    ....    DCD    114688
        0x0001e198:    40021004    ...@    DCD    1073876996
        0x0001e19c:    00020000    ....    DCD    131072
        0x0001e1a0:    40021008    ...@    DCD    1073877000
        0x0001e1a4:    00020000    ....    DCD    131072
        0x0001e1a8:    40021004    ...@    DCD    1073876996
        0x0001e1ac:    00100000    ....    DCD    1048576
        0x0001e1b0:    40021008    ...@    DCD    1073877000
        0x0001e1b4:    00100000    ....    DCD    1048576
        0x0001e1b8:    40021004    ...@    DCD    1073876996
        0x0001e1bc:    00200000    .. .    DCD    2097152
        0x0001e1c0:    40021008    ...@    DCD    1073877000
        0x0001e1c4:    00200000    .. .    DCD    2097152
        0x0001e1c8:    40021004    ...@    DCD    1073876996
        0x0001e1cc:    01000000    ....    DCD    16777216
        0x0001e1d0:    40021008    ...@    DCD    1073877000
        0x0001e1d4:    01000000    ....    DCD    16777216
        0x0001e1d8:    4002100c    ...@    DCD    1073877004
        0x0001e1dc:    00000001    ....    DCD    1
        0x0001e1e0:    40021010    ...@    DCD    1073877008
        0x0001e1e4:    00000047    G...    DCD    71
        0x0001e1e8:    4002100c    ...@    DCD    1073877004
        0x0001e1ec:    00000002    ....    DCD    2
        0x0001e1f0:    40021010    ...@    DCD    1073877008
        0x0001e1f4:    00000047    G...    DCD    71
        0x0001e1f8:    4002100c    ...@    DCD    1073877004
        0x0001e1fc:    00000004    ....    DCD    4
        0x0001e200:    40021010    ...@    DCD    1073877008
        0x0001e204:    00000047    G...    DCD    71
        0x0001e208:    4002100c    ...@    DCD    1073877004
        0x0001e20c:    00000040    @...    DCD    64
        0x0001e210:    40021010    ...@    DCD    1073877008
        0x0001e214:    00000047    G...    DCD    71
    g_ui32RMpintbl
        0x0001e218:    00000000    ....    DCD    0
        0x0001e21c:    00000000    ....    DCD    0
        0x0001e220:    00000000    ....    DCD    0
        0x0001e224:    00000000    ....    DCD    0
    g_DefaultMcuMemCfg
        0x0001e228:    07070102    ....    DCD    117899522
        0x0001e22c:    0001        ..      DCW    1
    g_DefaultSRAMCfg
        0x0001e22e:    0003        ..      DCW    3
        0x0001e230:    03000000    ....    DCD    50331648
    g_am_hal_bootrom_helper
        0x0001e234:    0800004d    M...    DCD    134217805
        0x0001e238:    08000051    Q...    DCD    134217809
        0x0001e23c:    08000055    U...    DCD    134217813
        0x0001e240:    08000059    Y...    DCD    134217817
        0x0001e244:    0800006d    m...    DCD    134217837
        0x0001e248:    08000075    u...    DCD    134217845
        0x0001e24c:    08000079    y...    DCD    134217849
        0x0001e250:    08000081    ....    DCD    134217857
        0x0001e254:    08000099    ....    DCD    134217881
        0x0001e258:    0800009d    ....    DCD    134217885
    g_sBspUartConfig
        0x0001e25c:    0001c200    ....    DCD    115200
        0x0001e260:    00000203    ....    DCD    515
        0x0001e264:    02020000    ....    DCD    33685504
    __tagsym$$used.7
    sGlobalAccess
        0x0001e268:    0001e6b0    ....    DCD    124592
        0x0001e26c:    0001e69c    ....    DCD    124572
        0x0001e270:    0001e674    t...    DCD    124532
        0x0001e274:    0001e688    ....    DCD    124552
        0x0001e278:    10060004    ....    DCD    268828676
        0x0001e27c:    10060018    ....    DCD    268828696
        0x0001e280:    1006002c    ,...    DCD    268828716
    .L.str
        0x0001e284:    20474e52    RNG     DCD    541544018
        0x0001e288:    6f6d6544    Demo    DCD    1869440324
        0x0001e28c:    61784520     Exa    DCD    1635271968
        0x0001e290:    656c706d    mple    DCD    1701605485
        0x0001e294:    000a0a21    !...    DCD    657953
    .L.str.5
        0x0001e298:    6d617845    Exam    DCD    1835104325
        0x0001e29c:    20656c70    ple     DCD    543517808
        0x0001e2a0:    656e6f44    Done    DCD    1701736260
        0x0001e2a4:    0a2e        ..      DCW    2606
        0x0001e2a6:    00          .       DCB    0
    .L.str.3
        0x0001e2a7:    52          R       DCB    82
        0x0001e2a8:    69727465    etri    DCD    1769108581
        0x0001e2ac:    64657665    eved    DCD    1684371045
        0x0001e2b0:    6e617220     ran    DCD    1851879968
        0x0001e2b4:    206d6f64    dom     DCD    544042852
        0x0001e2b8:    65747962    byte    DCD    1702132066
        0x0001e2bc:    000a3a73    s:..    DCD    670323
    .L.str.2
        0x0001e2c0:    6465626d    mbed    DCD    1684365933
        0x0001e2c4:    20534c54    TLS     DCD    542329940
        0x0001e2c8:    6f727265    erro    DCD    1869771365
        0x0001e2cc:    30203a72    r: 0    DCD    807418482
        0x0001e2d0:    38302578    x%08    DCD    942679416
        0x0001e2d4:    0a58        X.      DCW    2648
        0x0001e2d6:    00          .       DCB    0
    .L.str.1
        0x0001e2d7:    50          P       DCB    80
        0x0001e2d8:    7265776f    ower    DCD    1919252335
        0x0001e2dc:    20676e69    ing     DCD    543649385
        0x0001e2e0:    43206e4f    On C    DCD    1126198863
        0x0001e2e4:    74707972    rypt    DCD    1953528178
        0x0001e2e8:    0a6f        o.      DCW    2671
        0x0001e2ea:    00          .       DCB    0
    .L.str.1
        0x0001e2eb:    20                  DCB    32
        0x0001e2ec:    49202020       I    DCD    1226842144
        0x0001e2f0:    6c61766e    nval    DCD    1818326638
        0x0001e2f4:    53206469    id S    DCD    1394631785
        0x0001e2f8:    68772050    P wh    DCD    1752637520
        0x0001e2fc:    48206e65    en H    DCD    1210084965
        0x0001e300:    20647261    ard     DCD    543453793
        0x0001e304:    6c756146    Faul    DCD    1819631942
        0x0001e308:    636f2074    t oc    DCD    1668227188
        0x0001e30c:    65727563    cure    DCD    1701999971
        0x0001e310:    30203a64    d: 0    DCD    807418468
        0x0001e314:    38302578    x%08    DCD    942679416
        0x0001e318:    6e282058    X (n    DCD    1848123480
        0x0001e31c:    7453206f    o St    DCD    1951604847
        0x0001e320:    656b6361    acke    DCD    1701536609
        0x0001e324:    61642064    d da    DCD    1633951844
        0x0001e328:    0a296174    ta).    DCD    170484084
        0x0001e32c:    000a        ..      DCW    10
    .L.str.29
        0x0001e32e:    0a0a        ..      DCW    2570
        0x0001e330:    656e6f44    Done    DCD    1701736260
        0x0001e334:    74697720     wit    DCD    1953068832
        0x0001e338:    756f2068    h ou    DCD    1970217064
        0x0001e33c:    74757074    tput    DCD    1953853556
        0x0001e340:    6e45202e    . En    DCD    1850023982
        0x0001e344:    69726574    teri    DCD    1769104756
        0x0001e348:    6920676e    ng i    DCD    1763731310
        0x0001e34c:    6e69666e    nfin    DCD    1852401262
        0x0001e350:    20657469    ite     DCD    543519849
        0x0001e354:    706f6f6c    loop    DCD    1886351212
        0x0001e358:    000a0a2e    ....    DCD    657966
    .L.str
        0x0001e35c:    48202a2a    ** H    DCD    1210067498
        0x0001e360:    20647261    ard     DCD    543453793
        0x0001e364:    6c756146    Faul    DCD    1819631942
        0x0001e368:    634f2074    t Oc    DCD    1666130036
        0x0001e36c:    72727563    curr    DCD    1920103779
        0x0001e370:    0a3a6465    ed:.    DCD    171598949
        0x0001e374:    000a        ..      DCW    10
    .L.str.10
        0x0001e376:    2020                DCW    8224
        0x0001e378:    53502020      PS    DCD    1397760032
        0x0001e37c:    203d2052    R =     DCD    540876882
        0x0001e380:    30257830    0x%0    DCD    807761968
        0x0001e384:    0a0a5838    8X..    DCD    168450104
        0x0001e388:    00          .       DCB    0
    .L.str.2
        0x0001e389:    486172      Har     DCB    72,97,114
        0x0001e38c:    61462064    d Fa    DCD    1631985764
        0x0001e390:    20746c75    ult     DCD    544500853
        0x0001e394:    63617473    stac    DCD    1667331187
        0x0001e398:    2064656b    ked     DCD    543450475
        0x0001e39c:    61746164    data    DCD    1635017060
        0x0001e3a0:    0a3a        :.      DCW    2618
        0x0001e3a2:    00          .       DCB    0
    .L.str.25
        0x0001e3a3:    0a          .       DCB    10
        0x0001e3a4:    2055434d    MCU     DCD    542458701
        0x0001e3a8:    6c756146    Faul    DCD    1819631942
        0x0001e3ac:    61642074    t da    DCD    1633951860
        0x0001e3b0:    0a3a6174    ta:.    DCD    171598196
        0x0001e3b4:    00          .       DCB    0
    .L.str.11
        0x0001e3b5:    4f7468      Oth     DCB    79,116,104
        0x0001e3b8:    48207265    er H    DCD    1210085989
        0x0001e3bc:    20647261    ard     DCD    543453793
        0x0001e3c0:    6c756146    Faul    DCD    1819631942
        0x0001e3c4:    61642074    t da    DCD    1633951860
        0x0001e3c8:    0a3a6174    ta:.    DCD    171598196
        0x0001e3cc:    00          .       DCB    0
    .L.str.18
        0x0001e3cd:    202020              DCB    32,32,32
        0x0001e3d0:    20202020            DCD    538976288
        0x0001e3d4:    53464220     BFS    DCD    1397113376
        0x0001e3d8:    69622052    R bi    DCD    1768038482
        0x0001e3dc:    203a3674    t6:     DCD    540685940
        0x0001e3e0:    45534552    RESE    DCD    1163085138
        0x0001e3e4:    44455652    RVED    DCD    1145394770
        0x0001e3e8:    000a        ..      DCW    10
    .L.str.17
        0x0001e3ea:    2020                DCW    8224
        0x0001e3ec:    20202020            DCD    538976288
        0x0001e3f0:    46422020      BF    DCD    1178738720
        0x0001e3f4:    62205253    SR b    DCD    1646285395
        0x0001e3f8:    3a377469    it7:    DCD    976712809
        0x0001e3fc:    41464220     BFA    DCD    1095123488
        0x0001e400:    4c415652    RVAL    DCD    1279350354
        0x0001e404:    000a4449    ID..    DCD    672841
    .L.str.23
        0x0001e408:    20202020            DCD    538976288
        0x0001e40c:    20202020            DCD    538976288
        0x0001e410:    52534642    BFSR    DCD    1381189186
        0x0001e414:    74696220     bit    DCD    1953063456
        0x0001e418:    50203a31    1: P    DCD    1344289329
        0x0001e41c:    49434552    RECI    DCD    1229145426
        0x0001e420:    52454553    SEER    DCD    1380271443
        0x0001e424:    0a52        R.      DCW    2642
        0x0001e426:    00          .       DCB    0
    .L.str.20
        0x0001e427:    20                  DCB    32
        0x0001e428:    20202020            DCD    538976288
        0x0001e42c:    42202020       B    DCD    1109401632
        0x0001e430:    20525346    FSR     DCD    542266182
        0x0001e434:    34746962    bit4    DCD    880044386
        0x0001e438:    5453203a    : ST    DCD    1414733882
        0x0001e43c:    5252454b    KERR    DCD    1381123403
        0x0001e440:    000a        ..      DCW    10
    .L.str.21
        0x0001e442:    2020                DCW    8224
        0x0001e444:    20202020            DCD    538976288
        0x0001e448:    46422020      BF    DCD    1178738720
        0x0001e44c:    62205253    SR b    DCD    1646285395
        0x0001e450:    3a337469    it3:    DCD    976450665
        0x0001e454:    534e5520     UNS    DCD    1397642528
        0x0001e458:    52454b54    TKER    DCD    1380272980
        0x0001e45c:    0a52        R.      DCW    2642
        0x0001e45e:    00          .       DCB    0
    .L.str.19
        0x0001e45f:    20                  DCB    32
        0x0001e460:    20202020            DCD    538976288
        0x0001e464:    42202020       B    DCD    1109401632
        0x0001e468:    20525346    FSR     DCD    542266182
        0x0001e46c:    35746962    bit5    DCD    896821602
        0x0001e470:    534c203a    : LS    DCD    1397497914
        0x0001e474:    52524550    PERR    DCD    1381123408
        0x0001e478:    000a        ..      DCW    10
    .L.str.22
        0x0001e47a:    2020                DCW    8224
        0x0001e47c:    20202020            DCD    538976288
        0x0001e480:    46422020      BF    DCD    1178738720
        0x0001e484:    62205253    SR b    DCD    1646285395
        0x0001e488:    3a327469    it2:    DCD    976385129
        0x0001e48c:    504d4920     IMP    DCD    1347242272
        0x0001e490:    49434552    RECI    DCD    1229145426
        0x0001e494:    52524553    SERR    DCD    1381123411
        0x0001e498:    000a        ..      DCW    10
    .L.str.24
        0x0001e49a:    2020                DCW    8224
        0x0001e49c:    20202020            DCD    538976288
        0x0001e4a0:    46422020      BF    DCD    1178738720
        0x0001e4a4:    62205253    SR b    DCD    1646285395
        0x0001e4a8:    3a307469    it0:    DCD    976254057
        0x0001e4ac:    55424920     IBU    DCD    1430407456
        0x0001e4b0:    52524553    SERR    DCD    1381123411
        0x0001e4b4:    000a        ..      DCW    10
    .L.str.16
        0x0001e4b6:    2020                DCW    8224
        0x0001e4b8:    46422020      BF    DCD    1178738720
        0x0001e4bc:    28205253    SR (    DCD    673206867
        0x0001e4c0:    20737542    Bus     DCD    544437570
        0x0001e4c4:    6c756146    Faul    DCD    1819631942
        0x0001e4c8:    74532074    t St    DCD    1951604852
        0x0001e4cc:    73757461    atus    DCD    1937077345
        0x0001e4d0:    67655220     Reg    DCD    1734693408
        0x0001e4d4:    203d2029    ) =     DCD    540876841
        0x0001e4d8:    30257830    0x%0    DCD    807761968
        0x0001e4dc:    000a5832    2X..    DCD    677938
    .L.str.14
        0x0001e4e0:    20202020            DCD    538976288
        0x0001e4e4:    52534d4d    MMSR    DCD    1381190989
        0x0001e4e8:    654d2820     (Me    DCD    1699555360
        0x0001e4ec:    674d206d    m Mg    DCD    1733107821
        0x0001e4f0:    4620746d    mt F    DCD    1176532077
        0x0001e4f4:    746c7561    ault    DCD    1953264993
        0x0001e4f8:    61745320     Sta    DCD    1635013408
        0x0001e4fc:    20737574    tus     DCD    544437620
        0x0001e500:    29676552    Reg)    DCD    694642002
        0x0001e504:    3d20         =      DCW    15648
        0x0001e506:    20                  DCB    32
    .L.str.4
        0x0001e507:    30          0       DCB    48
        0x0001e508:    32302578    x%02    DCD    842016120
        0x0001e50c:    0a58        X.      DCW    2648
        0x0001e50e:    00          .       DCB    0
    .L.str.15
        0x0001e50f:    20                  DCB    32
        0x0001e510:    55202020       U    DCD    1428168736
        0x0001e514:    20525346    FSR     DCD    542266182
        0x0001e518:    61735528    (Usa    DCD    1634948392
        0x0001e51c:    46206567    ge F    DCD    1176528231
        0x0001e520:    746c7561    ault    DCD    1953264993
        0x0001e524:    61745320     Sta    DCD    1635013408
        0x0001e528:    20737574    tus     DCD    544437620
        0x0001e52c:    29676552    Reg)    DCD    694642002
        0x0001e530:    30203d20     = 0    DCD    807419168
        0x0001e534:    34302578    x%04    DCD    875570552
        0x0001e538:    0a58        X.      DCW    2648
        0x0001e53a:    00          .       DCB    0
    .L.str.27
        0x0001e53b:    20                  DCB    32
        0x0001e53c:    44202020       D    DCD    1142956064
        0x0001e540:    45444f43    CODE    DCD    1162104643
        0x0001e544:    75614620     Fau    DCD    1969309216
        0x0001e548:    4120746c    lt A    DCD    1092645996
        0x0001e54c:    65726464    ddre    DCD    1701995620
        0x0001e550:    203a7373    ss:     DCD    540701555
        0x0001e554:    30257830    0x%0    DCD    807761968
        0x0001e558:    000a5838    8X..    DCD    677944
    .L.str.26
        0x0001e55c:    20202020            DCD    538976288
        0x0001e560:    444f4349    ICOD    DCD    1146045257
        0x0001e564:    61462045    E Fa    DCD    1631985733
        0x0001e568:    20746c75    ult     DCD    544500853
        0x0001e56c:    72646441    Addr    DCD    1919181889
        0x0001e570:    3a737365    ess:    DCD    980644709
        0x0001e574:    25783020     0x%    DCD    628633632
        0x0001e578:    0a583830    08X.    DCD    173553712
        0x0001e57c:    00          .       DCB    0
    .L.str.28
        0x0001e57d:    202020              DCB    32,32,32
        0x0001e580:    53595320     SYS    DCD    1398362912
        0x0001e584:    75614620     Fau    DCD    1969309216
        0x0001e588:    4120746c    lt A    DCD    1092645996
        0x0001e58c:    65726464    ddre    DCD    1701995620
        0x0001e590:    203a7373    ss:     DCD    540701555
        0x0001e594:    30257830    0x%0    DCD    807761968
        0x0001e598:    000a5838    8X..    DCD    677944
    .L.str.3
        0x0001e59c:    20202020            DCD    538976288
        0x0001e5a0:    20203052    R0      DCD    538980434
        0x0001e5a4:    7830203d    = 0x    DCD    2016419901
        0x0001e5a8:    58383025    %08X    DCD    1480077349
        0x0001e5ac:    000a        ..      DCW    10
    .L.str.4
        0x0001e5ae:    2020                DCW    8224
        0x0001e5b0:    31522020      R1    DCD    827465760
        0x0001e5b4:    203d2020      =     DCD    540876832
        0x0001e5b8:    30257830    0x%0    DCD    807761968
        0x0001e5bc:    000a5838    8X..    DCD    677944
    .L.str.5
        0x0001e5c0:    20202020            DCD    538976288
        0x0001e5c4:    20203252    R2      DCD    538980946
        0x0001e5c8:    7830203d    = 0x    DCD    2016419901
        0x0001e5cc:    58383025    %08X    DCD    1480077349
        0x0001e5d0:    000a        ..      DCW    10
    .L.str.6
        0x0001e5d2:    2020                DCW    8224
        0x0001e5d4:    33522020      R3    DCD    861020192
        0x0001e5d8:    203d2020      =     DCD    540876832
        0x0001e5dc:    30257830    0x%0    DCD    807761968
        0x0001e5e0:    000a5838    8X..    DCD    677944
    .L.str.9
        0x0001e5e4:    20202020            DCD    538976288
        0x0001e5e8:    20204350    PC      DCD    538985296
        0x0001e5ec:    7830203d    = 0x    DCD    2016419901
        0x0001e5f0:    58383025    %08X    DCD    1480077349
        0x0001e5f4:    000a        ..      DCW    10
    .L.str.8
        0x0001e5f6:    2020                DCW    8224
        0x0001e5f8:    524c2020      LR    DCD    1380720672
        0x0001e5fc:    203d2020      =     DCD    540876832
        0x0001e600:    30257830    0x%0    DCD    807761968
        0x0001e604:    000a5838    8X..    DCD    677944
    .L.str.13
        0x0001e608:    20202020            DCD    538976288
        0x0001e60c:    52414642    BFAR    DCD    1380009538
        0x0001e610:    75422820     (Bu    DCD    1967269920
        0x0001e614:    61462073    s Fa    DCD    1631985779
        0x0001e618:    20746c75    ult     DCD    544500853
        0x0001e61c:    72646441    Addr    DCD    1919181889
        0x0001e620:    67655220     Reg    DCD    1734693408
        0x0001e624:    203d2029    ) =     DCD    540876841
        0x0001e628:    30257830    0x%0    DCD    807761968
        0x0001e62c:    000a5838    8X..    DCD    677944
    .L.str.7
        0x0001e630:    20202020            DCD    538976288
        0x0001e634:    20323152    R12     DCD    540160338
        0x0001e638:    7830203d    = 0x    DCD    2016419901
        0x0001e63c:    58383025    %08X    DCD    1480077349
        0x0001e640:    000a        ..      DCW    10
    .L.str.12
        0x0001e642:    2020                DCW    8224
        0x0001e644:    61462020      Fa    DCD    1631985696
        0x0001e648:    20746c75    ult     DCD    544500853
        0x0001e64c:    72646461    addr    DCD    1919181921
        0x0001e650:    20737365    ess     DCD    544437093
        0x0001e654:    7830203d    = 0x    DCD    2016419901
        0x0001e658:    58383025    %08X    DCD    1480077349
        0x0001e65c:    000a        ..      DCW    10
    .L.str
        0x0001e65e:    0a0a        ..      DCW    2570
        0x0001e660:    0a0a0a0a    ....    DCD    168430090
        0x0001e664:    0a0a0a0a    ....    DCD    168430090
        0x0001e668:    0a0a0a0a    ....    DCD    168430090
        0x0001e66c:    0a0a0a0a    ....    DCD    168430090
        0x0001e670:    00000000    ....    DCD    0
    __tagsym$$used.1
    ui32DSP0Allowed
        0x0001e674:    00000000    ....    DCD    0
        0x0001e678:    00000000    ....    DCD    0
        0x0001e67c:    00000000    ....    DCD    0
        0x0001e680:    00000000    ....    DCD    0
        0x0001e684:    00000000    ....    DCD    0
    __tagsym$$used.2
    ui32DSP1Allowed
        0x0001e688:    00000000    ....    DCD    0
        0x0001e68c:    00000000    ....    DCD    0
        0x0001e690:    00000000    ....    DCD    0
        0x0001e694:    00000000    ....    DCD    0
        0x0001e698:    00000000    ....    DCD    0
    __tagsym$$used.0
    ui32MCUAllowed
        0x0001e69c:    00000000    ....    DCD    0
        0x0001e6a0:    00000000    ....    DCD    0
        0x0001e6a4:    00000000    ....    DCD    0
        0x0001e6a8:    00000000    ....    DCD    0
        0x0001e6ac:    00000000    ....    DCD    0
    __tagsym$$used.3
    ui32SharedAccess
        0x0001e6b0:    00000000    ....    DCD    0
        0x0001e6b4:    00000000    ....    DCD    0
        0x0001e6b8:    00000000    ....    DCD    0
        0x0001e6bc:    00000000    ....    DCD    0
        0x0001e6c0:    00000000    ....    DCD    0
    Region$$Table$$Base
        0x0001e6c4:    0001e6f8    ....    DCD    124664
        0x0001e6c8:    10000000    ....    DCD    268435456
        0x0001e6cc:    00000058    X...    DCD    88
        0x0001e6d0:    00018270    p...    DCD    98928
        0x0001e6d4:    0001e750    P...    DCD    124752
        0x0001e6d8:    10060000    ....    DCD    268828672
        0x0001e6dc:    00000040    @...    DCD    64
        0x0001e6e0:    00018270    p...    DCD    98928
        0x0001e6e4:    0001e750    P...    DCD    124752
        0x0001e6e8:    10000058    X...    DCD    268435544
        0x0001e6ec:    00035738    8W..    DCD    218936
        0x0001e6f0:    0001828c    ....    DCD    98956
    Region$$Table$$Limit

** Section #2 'MCU_TCM' (SHT_PROGBITS) [SHF_ALLOC + SHF_WRITE]
    Size   : 88 bytes (alignment 8)
    Address: 0x10000000

    0x10000000:   00 00 00 00 00 00 00 00 00 00 00 00 41 d9 01 00    ............A...
    0x10000010:   47 d9 01 00 49 d9 01 00 45 d9 01 00 bf 84 01 00    G...I...E.......
    0x10000020:   00 01 02 00 01 00 00 00 92 24 01 80 20 01 00 00    .........$.. ...
    0x10000030:   6d db 02 40 d1 02 00 00 04 00 00 00 04 04 00 00    m..@............
    0x10000040:   02 04 00 00 01 00 00 00 ff ff ff ff ff ff ff ff    ................
    0x10000050:   08 1e 0c 40 18 1e 0c 40                            ...@...@


** Section #3 'MCU_TCM' (SHT_NOBITS) [SHF_ALLOC + SHF_WRITE]
    Size   : 218936 bytes (alignment 8)
    Address: 0x10000058


** Section #4 'SHARED_SRAM' (SHT_PROGBITS) [SHF_ALLOC + SHF_WRITE]
    Size   : 64 bytes (alignment 4)
    Address: 0x10060000

    0x10060000:   68 e2 01 00 00 00 00 00 00 00 00 00 00 00 00 00    h...............
    0x10060010:   00 00 00 00 00 00 00 00 00 00 00 00 00 00 00 00    ................
    0x10060020:   00 00 00 00 00 00 00 00 00 00 00 00 00 00 00 00    ................
    0x10060030:   00 00 00 00 00 00 00 00 00 00 00 00 00 00 00 00    ................


** Section #5 '.debug_abbrev' (SHT_PROGBITS)
    Size   : 2511 bytes


** Section #6 '.debug_frame' (SHT_PROGBITS)
    Size   : 8016 bytes


** Section #7 '.debug_info' (SHT_PROGBITS)
    Size   : 56808 bytes


** Section #8 '.debug_line' (SHT_PROGBITS)
    Size   : 32434 bytes


** Section #9 '.debug_loc' (SHT_PROGBITS)
    Size   : 10284 bytes


** Section #10 '.debug_macinfo' (SHT_PROGBITS)
    Size   : 22248 bytes


** Section #11 '.debug_pubnames' (SHT_PROGBITS)
    Size   : 3504 bytes


** Section #12 '.debug_str' (SHT_PROGBITS)
    Size   : 4005 bytes


** Section #13 '.debug_ranges' (SHT_PROGBITS)
    Size   : 208 bytes


** Section #14 '.symtab' (SHT_SYMTAB)
    Size   : 14096 bytes (alignment 4)
    String table #15 '.strtab'
    Last local symbol no. 538

    Symbol table .symtab (880 symbols, 538 local)

      #  Symbol Name                Value      Bind  Sec  Type  Vis  Size
    ========================================================================

      1  $d                         0x00018000   Lc    1   --   De 
      2  $t                         0x00018200   Lc    1   --   De 
      3  $d                         0x00018230   Lc    1   --   De 
      4  $t                         0x00018234   Lc    1   --   De 
      5  $d                         0x00018268   Lc    1   --   De 
      6  $t                         0x00018270   Lc    1   --   De 
      7  $d                         0x000182de   Lc    1   --   De 
      8  $t                         0x000182ec   Lc    1   --   De 
      9  $d                         0x00018658   Lc    1   --   De 
     10  $t                         0x0001865c   Lc    1   --   De 
     11  $d                         0x00018664   Lc    1   --   De 
     12  $t                         0x00018668   Lc    1   --   De 
     13  $t.0                       0x0001866c   Lc    1   --   De 
     14  $d.4                       0x0001868c   Lc    1   --   De 
     15  $t.17                      0x00018690   Lc    1   --   De 
     16  $d.9                       0x0001897c   Lc    1   --   De 
     17  $t.10                      0x00018980   Lc    1   --   De 
     18  $d.2                       0x00018d38   Lc    1   --   De 
     19  $t.1                       0x00018d48   Lc    1   --   De 
     20  $d.20                      0x00018e8a   Lc    1   --   De 
     21  $t.21                      0x00018e8e   Lc    1   --   De 
     22  $d.3                       0x00019260   Lc    1   --   De 
     23  $t.4                       0x00019268   Lc    1   --   De 
     24  $d.7                       0x0001956e   Lc    1   --   De 
     25  $t.8                       0x00019572   Lc    1   --   De 
     26  $d.8                       0x00019a24   Lc    1   --   De 
     27  $t.0                       0x00019a38   Lc    1   --   De 
     28  $d.12                      0x00019b74   Lc    1   --   De 
     29  $t.13                      0x00019b78   Lc    1   --   De 
     30  $d.4                       0x0001a0fa   Lc    1   --   De 
     31  $t.5                       0x0001a160   Lc    1   --   De 
     32  $t                         0x0001b240   Lc    1   --   De 
     33  $d                         0x0001b24a   Lc    1   --   De 
     34  $t                         0x0001b250   Lc    1   --   De 
     35  $d                         0x0001b26c   Lc    1   --   De 
     36  $t                         0x0001b274   Lc    1   --   De 
     37  $d                         0x0001b27e   Lc    1   --   De 
     38  $t                         0x0001b284   Lc    1   --   De 
     39  $d                         0x0001b298   Lc    1   --   De 
     40  $t                         0x0001b29c   Lc    1   --   De 
     41  $d                         0x0001b2d6   Lc    1   --   De 
     42  $t                         0x0001b2dc   Lc    1   --   De 
     43  $d                         0x0001b3dc   Lc    1   --   De 
     44  $t                         0x0001b3e8   Lc    1   --   De 
     45  $d                         0x0001b488   Lc    1   --   De 
     46  $t                         0x0001b48c   Lc    1   --   De 
     47  $d                         0x0001b4a0   Lc    1   --   De 
     48  $t                         0x0001b4a4   Lc    1   --   De 
     49  $d                         0x0001b4b8   Lc    1   --   De 
     50  $t                         0x0001b4c0   Lc    1   --   De 
     51  $d                         0x0001b566   Lc    1   --   De 
     52  $t                         0x0001b570   Lc    1   --   De 
     53  $d                         0x0001b588   Lc    1   --   De 
     54  $t                         0x0001b58c   Lc    1   --   De 
     55  $d                         0x0001b5b4   Lc    1   --   De 
     56  $t                         0x0001b5b8   Lc    1   --   De 
     57  $d                         0x0001b70c   Lc    1   --   De 
     58  $t                         0x0001b788   Lc    1   --   De 
     59  $d                         0x0001b86a   Lc    1   --   De 
     60  $t                         0x0001b874   Lc    1   --   De 
     61  $d                         0x0001b88e   Lc    1   --   De 
     62  $t                         0x0001b894   Lc    1   --   De 
     63  $d                         0x0001b8e8   Lc    1   --   De 
     64  $t                         0x0001b8f0   Lc    1   --   De 
     65  $d                         0x0001b910   Lc    1   --   De 
     66  $t                         0x0001b914   Lc    1   --   De 
     67  $d                         0x0001b952   Lc    1   --   De 
     68  $t                         0x0001b958   Lc    1   --   De 
     69  $d                         0x0001b97c   Lc    1   --   De 
     70  $t                         0x0001b984   Lc    1   --   De 
     71  $d                         0x0001baae   Lc    1   --   De 
     72  $t                         0x0001bab8   Lc    1   --   De 
     73  $d                         0x0001bac8   Lc    1   --   De 
     74  $t                         0x0001bad0   Lc    1   --   De 
     75  $d                         0x0001bb10   Lc    1   --   De 
     76  $t                         0x0001bb18   Lc    1   --   De 
     77  $d                         0x0001bc4a   Lc    1   --   De 
     78  $t                         0x0001bcc8   Lc    1   --   De 
     79  $d                         0x0001bd26   Lc    1   --   De 
     80  $t                         0x0001bd2c   Lc    1   --   De 
     81  $d                         0x0001bda4   Lc    1   --   De 
     82  $t                         0x0001be1c   Lc    1   --   De 
     83  $d                         0x0001be82   Lc    1   --   De 
     84  $t                         0x0001be8a   Lc    1   --   De 
     85  $d                         0x0001becc   Lc    1   --   De 
     86  $t                         0x0001bed4   Lc    1   --   De 
     87  $d                         0x0001bf1c   Lc    1   --   De 
     88  $t                         0x0001bf24   Lc    1   --   De 
     89  $d                         0x0001bf8a   Lc    1   --   De 
     90  $t                         0x0001bf94   Lc    1   --   De 
     91  $d                         0x0001c20a   Lc    1   --   De 
     92  $t                         0x0001c21c   Lc    1   --   De 
     93  $d                         0x0001c310   Lc    1   --   De 
     94  $t                         0x0001c318   Lc    1   --   De 
     95  $d                         0x0001c516   Lc    1   --   De 
     96  $t                         0x0001c52c   Lc    1   --   De 
     97  $d                         0x0001c53a   Lc    1   --   De 
     98  $t                         0x0001c540   Lc    1   --   De 
     99  $d                         0x0001c848   Lc    1   --   De 
    100  $t                         0x0001c84c   Lc    1   --   De 
    101  $d                         0x0001c852   Lc    1   --   De 
    102  $t                         0x0001c858   Lc    1   --   De 
    103  $d                         0x0001ce98   Lc    1   --   De 
    104  $t                         0x0001ce9c   Lc    1   --   De 
    105  $d                         0x0001d2a4   Lc    1   --   De 
    106  $t                         0x0001d2a8   Lc    1   --   De 
    107  $d                         0x0001d388   Lc    1   --   De 
    108  $t                         0x0001d39c   Lc    1   --   De 
    109  $d                         0x0001d3c2   Lc    1   --   De 
    110  $t                         0x0001d3cc   Lc    1   --   De 
    111  $d                         0x0001d400   Lc    1   --   De 
    112  $t                         0x0001d408   Lc    1   --   De 
    113  $d                         0x0001d412   Lc    1   --   De 
    114  $t                         0x0001d418   Lc    1   --   De 
    115  $d                         0x0001d422   Lc    1   --   De 
    116  $t                         0x0001d428   Lc    1   --   De 
    117  $d                         0x0001d822   Lc    1   --   De 
    118  $t                         0x0001d8a4   Lc    1   --   De 
    119  $d                         0x0001d984   Lc    1   --   De 
    120  $t                         0x0001d988   Lc    1   --   De 
    121  $d                         0x0001d9ba   Lc    1   --   De 
    122  $t                         0x0001d9c4   Lc    1   --   De 
    123  $d                         0x0001da14   Lc    1   --   De 
    124  $t                         0x0001da18   Lc    1   --   De 
    125  $d                         0x0001da96   Lc    1   --   De 
    126  $t                         0x0001da9a   Lc    1   --   De 
    127  $d.realdata                0x0001dae8   Lc    1   --   De 
    128  $d.realdata                0x10000000   Lc    2   --   De 
    129  $d.realdata                0x10060000   Lc    4   --   De 
    130  am_resources.c             0x00000000   Lc  Abs  File  De 
    131  __tagsym$$used.0           0x0001e69c   Lc    1   --   De 
    132  __tagsym$$used.1           0x0001e674   Lc    1   --   De 
    133  __tagsym$$used.2           0x0001e688   Lc    1   --   De 
    134  __tagsym$$used.3           0x0001e6b0   Lc    1   --   De 
    135  __tagsym$$used.4           0x10060004   Lc    4   --   De 
    136  __tagsym$$used.5           0x10060018   Lc    4   --   De 
    137  __tagsym$$used.6           0x1006002c   Lc    4   --   De 
    138  __tagsym$$used.7           0x0001e268   Lc    1   --   De 
    139  __tagsym$$used.8           0x10060000   Lc    4   --   De 
    140  rng_test.c                 0x00000000   Lc  Abs  File  De 
    141  .L.str                     0x0001e284   Lc    1  Data  De   0x14
    142  .L.str.5                   0x0001e298   Lc    1  Data  De   0xf
    143  .L.str.3                   0x0001e2a7   Lc    1  Data  De   0x19
    144  .L.str.2                   0x0001e2c0   Lc    1  Data  De   0x17
    145  .L.str.1                   0x0001e2d7   Lc    1  Data  De   0x14
    146  .L.str.4                   0x0001e507   Lc    1  Data  De   0x8
    147  am_util_delay.c            0x00000000   Lc  Abs  File  De 
    148  am_util_faultisr.c         0x00000000   Lc  Abs  File  De 
    149  .L.str.1                   0x0001e2eb   Lc    1  Data  De   0x43
    150  .L.str.29                  0x0001e32e   Lc    1  Data  De   0x2e
    151  .L.str                     0x0001e35c   Lc    1  Data  De   0x1a
    152  .L.str.10                  0x0001e376   Lc    1  Data  De   0x13
    153  .L.str.2                   0x0001e389   Lc    1  Data  De   0x1a
    154  .L.str.25                  0x0001e3a3   Lc    1  Data  De   0x12
    155  .L.str.11                  0x0001e3b5   Lc    1  Data  De   0x18
    156  .L.str.18                  0x0001e3cd   Lc    1  Data  De   0x1d
    157  .L.str.17                  0x0001e3ea   Lc    1  Data  De   0x1e
    158  .L.str.23                  0x0001e408   Lc    1  Data  De   0x1f
    159  .L.str.20                  0x0001e427   Lc    1  Data  De   0x1b
    160  .L.str.21                  0x0001e442   Lc    1  Data  De   0x1d
    161  .L.str.19                  0x0001e45f   Lc    1  Data  De   0x1b
    162  .L.str.22                  0x0001e47a   Lc    1  Data  De   0x20
    163  .L.str.24                  0x0001e49a   Lc    1  Data  De   0x1c
    164  .L.str.16                  0x0001e4b6   Lc    1  Data  De   0x2a
    165  .L.str.14                  0x0001e4e0   Lc    1  Data  De   0x2f
    166  .L.str.15                  0x0001e50f   Lc    1  Data  De   0x2c
    167  .L.str.27                  0x0001e53b   Lc    1  Data  De   0x21
    168  .L.str.26                  0x0001e55c   Lc    1  Data  De   0x21
    169  .L.str.28                  0x0001e57d   Lc    1  Data  De   0x1f
    170  .L.str.3                   0x0001e59c   Lc    1  Data  De   0x12
    171  .L.str.4                   0x0001e5ae   Lc    1  Data  De   0x12
    172  .L.str.5                   0x0001e5c0   Lc    1  Data  De   0x12
    173  .L.str.6                   0x0001e5d2   Lc    1  Data  De   0x12
    174  .L.str.9                   0x0001e5e4   Lc    1  Data  De   0x12
    175  .L.str.8                   0x0001e5f6   Lc    1  Data  De   0x12
    176  .L.str.13                  0x0001e608   Lc    1  Data  De   0x28
    177  .L.str.7                   0x0001e630   Lc    1  Data  De   0x12
    178  .L.str.12                  0x0001e642   Lc    1  Data  De   0x1c
    179  am_util_stdio.c            0x00000000   Lc  Abs  File  De 
    180  decstr_to_int              0x0001a7c9   Lc    1  Code  De   0xa6
    181  simple_strlen              0x0001b069   Lc    1  Code  De   0x36
    182  padbuffer                  0x0001afc5   Lc    1  Code  De   0x50
    183  ndigits_in_hex             0x0001acad   Lc    1  Code  De   0x3e
    184  uint64_to_hexstr           0x0001b0a1   Lc    1  Code  De   0xc0
    185  ndigits_in_u64             0x0001ad1d   Lc    1  Code  De   0x3c
    186  uint64_to_str              0x0001b161   Lc    1  Code  De   0x88
    187  ndigits_in_i64             0x0001aced   Lc    1  Code  De   0x30
    188  ftoa                       0x0001a989   Lc    1  Code  De   0x230
    189  divu64_10                  0x0001a871   Lc    1  Code  De   0x118
    190  g_bTxtXlate                0x10000ae2   Lc    3  Data  De   0x1
    191  g_prfbuf                   0x10000b04   Lc    3  Data  De   0x400
    192  .L.str                     0x0001e65e   Lc    1  Data  De   0x13
    193  ../keil6/startup_keil6.s   0x00000000   Lc  Abs  File  De 
    194  STACK                      0x10021790   Lc    3  Sect  De   0x14000
    195  StackMem                   0x10021790   Lc    3  Data  De 
    196  HEAP                       0x10021790   Lc    3  Sect  De 
    197  HeapMem                    0x10021790   Lc    3  Data  De 
    198  RESET                      0x00018000   Lc    1  Sect  De   0x234
    199  $v0                        0x00018200   Lc    1   --   De 
    200  am_cryptosec_isr           0x0001822f   Lc    1  Code  De 
    201  am_default_isr             0x0001822f   Lc    1  Code  De   0x2
    202  .text                      0x000182d4   Lc    1  Sect  De   0x18
    203  $v0                        0x000182d4   Lc    1   --   De 
    204  am_hal_fault.c             0x00000000   Lc  Abs  File  De 
    205  am_hal_sysctrl.c           0x00000000   Lc  Abs  File  De 
    206  am_hal_utils.c             0x00000000   Lc  Abs  File  De 
    207  am_hal_pwrctrl.c           0x00000000   Lc  Abs  File  De 
    208  TrimVersionGet             0x00018691   Lc    1  Code  De   0x32
    209  g_bBoostForCryptoApplied   0x10000ae0   Lc    3  Data  De   0x1
    210  g_i32LatestVddfActTrim     0x10000ae8   Lc    3  Data  De   0x4
    211  g_i32LatestLDOActTrim      0x10000ae4   Lc    3  Data  De   0x4
    212  g_ui32VDDFAdjustCodes      0x10020f08   Lc    3  Data  De   0x4
    213  g_bOrigTrimsStored         0x10000ae1   Lc    3  Data  De   0x1
    214  g_orig_ACTTRIMVDDF         0x10000aec   Lc    3  Data  De   0x4
    215  g_orig_MEMLDOACTIVETRIM    0x10000af4   Lc    3  Data  De   0x4
    216  g_orig_LPTRIMVDDF          0x10000af0   Lc    3  Data  De   0x4
    217  g_orig_MEMLPLDOTRIM        0x10000af8   Lc    3  Data  De   0x4
    218  g_orig_TVRGVREFTRIM        0x10000afc   Lc    3  Data  De   0x4
    219  am_bsp.c                   0x00000000   Lc  Abs  File  De 
    220  g_ePrintInterface          0x10000ae3   Lc    3  Data  De   0x1
    221  g_sCOMUART                 0x10000f04   Lc    3  Data  De   0x4
    222  g_sBspUartConfig           0x0001e25c   Lc    1  Data  De   0xc
    223  pui8UartTxBuffer           0x1002138c   Lc    3  Data  De   0x400
    224  pui8UartRxBuffer           0x10020f8c   Lc    3  Data  De   0x400
    225  ..\..\host\src\cc3x_lib\cc_lib.c
                                    0x00000000   Lc  Abs  File  De 
    226  i.CC_LibInit               0x0001b2dc   Lc    1  Sect  De 
    227  i.RndStartupTest           0x0001bd2c   Lc    1  Sect  De 
    228  RndStartupTest             0x0001bd2d   Lc    1  Code  De   0x78
    229  i.VerifyCidVal             0x0001bed4   Lc    1  Sect  De 
    230  VerifyCidVal               0x0001bed5   Lc    1  Code  De   0x48
    231  i.VerifyPidVal             0x0001bf24   Lc    1  Sect  De 
    232  VerifyPidVal               0x0001bf25   Lc    1  Code  De   0x66
    233  .constdata                 0x0001dae8   Lc    1  Sect  De   0x38
    234  .data                      0x10000000   Lc    2  Sect  De   0x4
    235  .data                      0x10000004   Lc    2  Sect  De   0x4
    236  ..\..\mbedtls\library\ctr_drbg.c
                                    0x00000000   Lc  Abs  File  De 
    237  i.block_cipher_df          0x0001bfd0   Lc    1  Sect  De 
    238  block_cipher_df            0x0001bfd1   Lc    1  Code  De   0x154
    239  i.ctr_drbg_update_internal 0x0001c318   Lc    1  Sect  De 
    240  ctr_drbg_update_internal   0x0001c319   Lc    1  Code  De   0x88
    241  i.mbedtls_ctr_drbg_init    0x0001c540   Lc    1  Sect  De 
    242  i.mbedtls_ctr_drbg_random  0x0001c546   Lc    1  Sect  De 
    243  i.mbedtls_ctr_drbg_random_with_add
                                    0x0001c552   Lc    1  Sect  De 
    244  i.mbedtls_ctr_drbg_reseed  0x0001c628   Lc    1  Sect  De 
    245  i.mbedtls_ctr_drbg_seed    0x0001c6a8   Lc    1  Sect  De 
    246  i.mbedtls_ctr_drbg_seed_entropy_len
                                    0x0001c6b8   Lc    1  Sect  De 
    247  ..\..\mbedtls\library\memory_buffer_alloc.c
                                    0x00000000   Lc  Abs  File  De 
    248  i.buffer_alloc_calloc      0x0001c124   Lc    1  Sect  De 
    249  buffer_alloc_calloc        0x0001c125   Lc    1  Code  De   0xe6
    250  i.buffer_alloc_free        0x0001c21c   Lc    1  Sect  De 
    251  buffer_alloc_free          0x0001c21d   Lc    1  Code  De   0xf4
    252  i.mbedtls_memory_buffer_alloc_init
                                    0x0001d338   Lc    1  Sect  De 
    253  i.verify_chain             0x0001d94c   Lc    1  Sect  De 
    254  verify_chain               0x0001d94d   Lc    1  Code  De   0x38
    255  i.verify_header            0x0001d988   Lc    1  Sect  De 
    256  verify_header              0x0001d989   Lc    1  Code  De   0x32
    257  .bss                       0x10000058   Lc    3  Sect  De   0x14
    258  heap                       0x10000058   Lc    3  Data  De   0x14
    259  ..\..\host\src\pal\no_os\cc_pal.c
                                    0x00000000   Lc  Abs  File  De 
    260  i.CC_PalInit               0x0001b3f6   Lc    1  Sect  De 
    261  i.CC_PalTerminate          0x0001b43a   Lc    1  Sect  De 
    262  ..\..\host\src\pal\no_os\cc_pal_mem.c
                                    0x00000000   Lc  Abs  File  De 
    263  i.CC_PalMemCmpPlat         0x0001b40c   Lc    1  Sect  De 
    264  i.CC_PalMemCopyPlat        0x0001b410   Lc    1  Sect  De 
    265  i.CC_PalMemSetPlat         0x0001b41a   Lc    1  Sect  De 
    266  i.CC_PalMemSetZeroPlat     0x0001b424   Lc    1  Sect  De 
    267  ..\..\host\src\pal\no_os\cc_pal_mutex.c
                                    0x00000000   Lc  Abs  File  De 
    268  i.CC_PalMutexLock          0x0001b42c   Lc    1  Sect  De 
    269  i.CC_PalMutexUnlock        0x0001b430   Lc    1  Sect  De 
    270  ..\..\host\src\pal\no_os\cc_pal_pm.c
                                    0x00000000   Lc  Abs  File  De 
    271  i.CC_PalPowerSaveModeInit  0x0001b434   Lc    1  Sect  De 
    272  i.CC_PalPowerSaveModeSelect
                                    0x0001b436   Lc    1  Sect  De 
    273  ..\..\host\src\pal\no_os\cc_pal_abort_plat.c
                                    0x00000000   Lc  Abs  File  De 
    274  i.CC_PalAbort              0x0001b3e8   Lc    1  Sect  De 
    275  am_hal_bootrom_helper.c    0x00000000   Lc  Abs  File  De 
    276  am_hal_cachectrl.c         0x00000000   Lc  Abs  File  De 
    277  am_hal_interrupt.c         0x00000000   Lc  Abs  File  De 
    278  am_hal_itm.c               0x00000000   Lc  Abs  File  De 
    279  am_hal_mram.c              0x00000000   Lc  Abs  File  De 
    280  am_hal_rtc.c               0x00000000   Lc  Abs  File  De 
    281  am_hal_tpiu.c              0x00000000   Lc  Abs  File  De 
    282  am_hal_uart.c              0x00000000   Lc  Abs  File  De 
    283  nonblocking_write          0x0001ae83   Lc    1  Code  De   0x38
    284  nonblocking_read           0x0001ad59   Lc    1  Code  De   0x38
    285  nonblocking_read_sm        0x0001ad91   Lc    1  Code  De   0xf2
    286  nonblocking_write_sm       0x0001aebd   Lc    1  Code  De   0x108
    287  am_hal_dcu.c               0x00000000   Lc  Abs  File  De 
    288  am_hal_gpio.c              0x00000000   Lc  Abs  File  De 
    289  g_ui32DSpintbl             0x00018d38   Lc    1   --   De 
    290  g_ui32RMpintbl             0x0001e218   Lc    1  Data  De   0x10
    291  am_bsp_pins.c              0x00000000   Lc  Abs  File  De 
    292  ..\..\host\src\hal\cc3x\cc_hal.c
                                    0x00000000   Lc  Abs  File  De 
    293  i.CC_HalClearInterruptBit  0x0001b240   Lc    1  Sect  De 
    294  i.CC_HalInit               0x0001b250   Lc    1  Sect  De 
    295  i.CC_HalMaskInterrupt      0x0001b274   Lc    1  Sect  De 
    296  i.CC_HalTerminate          0x0001b284   Lc    1  Sect  De 
    297  i.CC_HalWaitInterrupt      0x0001b29c   Lc    1  Sect  De 
    298  i.CC_HalWaitInterruptRND   0x0001b2a8   Lc    1  Sect  De 
    299  .data                      0x10000008   Lc    2  Sect  De   0x4
    300  ..\..\codesafe\src\mbedtls_api\aes_alt.c
                                    0x00000000   Lc  Abs  File  De 
    301  i.aes_setkey               0x0001bf94   Lc    1  Sect  De 
    302  aes_setkey                 0x0001bf95   Lc    1  Code  De   0x3c
    303  i.mbedtls_aes_crypt_ecb    0x0001c492   Lc    1  Sect  De 
    304  i.mbedtls_aes_free         0x0001c4ec   Lc    1  Sect  De 
    305  i.mbedtls_aes_init         0x0001c4fc   Lc    1  Sect  De 
    306  i.mbedtls_aes_setkey_enc   0x0001c52c   Lc    1  Sect  De 
    307  ..\..\mbedtls\library\entropy.c
                                    0x00000000   Lc  Abs  File  De 
    308  i.entropy_gather_internal  0x0001c3a0   Lc    1  Sect  De 
    309  entropy_gather_internal    0x0001c3a1   Lc    1  Code  De   0x82
    310  i.entropy_update           0x0001c422   Lc    1  Sect  De 
    311  entropy_update             0x0001c423   Lc    1  Code  De   0x70
    312  i.mbedtls_entropy_add_source
                                    0x0001c708   Lc    1  Sect  De 
    313  i.mbedtls_entropy_func     0x0001c738   Lc    1  Sect  De 
    314  i.mbedtls_entropy_init     0x0001c818   Lc    1  Sect  De 
    315  ..\..\mbedtls\library\platform.c
                                    0x00000000   Lc  Abs  File  De 
    316  i.mbedtls_calloc           0x0001c534   Lc    1  Sect  De 
    317  i.mbedtls_free             0x0001c84c   Lc    1  Sect  De 
    318  i.mbedtls_platform_set_calloc_free
                                    0x0001d408   Lc    1  Sect  De 
    319  i.platform_calloc_uninit   0x0001d940   Lc    1  Sect  De 
    320  platform_calloc_uninit     0x0001d941   Lc    1  Code  De   0x4
    321  i.platform_exit_uninit     0x0001d944   Lc    1  Sect  De 
    322  platform_exit_uninit       0x0001d945   Lc    1  Code  De   0x2
    323  i.platform_free_uninit     0x0001d946   Lc    1  Sect  De 
    324  platform_free_uninit       0x0001d947   Lc    1  Code  De   0x2
    325  i.platform_snprintf_uninit 0x0001d948   Lc    1  Sect  De 
    326  platform_snprintf_uninit   0x0001d949   Lc    1  Code  De   0x4
    327  .data                      0x1000000c   Lc    2  Sect  De   0x10
    328  mbedtls_calloc_func        0x1000000c   Lc    2  Data  De   0x4
    329  mbedtls_free_func          0x10000010   Lc    2  Data  De   0x4
    330  ..\..\mbedtls\library\platform_util.c
                                    0x00000000   Lc  Abs  File  De 
    331  i.mbedtls_platform_zeroize 0x0001d418   Lc    1  Sect  De 
    332  .data                      0x1000001c   Lc    2  Sect  De   0x4
    333  memset_func                0x1000001c   Lc    2  Data  De   0x4
    334  ..\..\host\src\cc_mng\mbedtls_cc_mng_int.c
                                    0x00000000   Lc  Abs  File  De 
    335  i.mbedtls_mng_lcsGet       0x0001d39c   Lc    1  Sect  De 
    336  i.mbedtls_mng_otpWordRead  0x0001d3cc   Lc    1  Sect  De 
    337  ..\..\host\src\cc3x_lib\cc_rng_plat.c
                                    0x00000000   Lc  Abs  File  De 
    338  i.RNG_PLAT_SetUserRngParameters
                                    0x0001bcc8   Lc    1  Sect  De 
    339  ..\..\codesafe\src\crypto_api\rnd_dma\cc_rnd_common.c
                                    0x00000000   Lc  Abs  File  De 
    340  i.CC_RndSetGenerateVectorFunc
                                    0x0001b48c   Lc    1  Sect  De 
    341  ..\..\codesafe\src\crypto_api\rnd_dma\llf_rnd_fetrng.c
                                    0x00000000   Lc  Abs  File  De 
    342  i.LLF_RND_GetTrngSource    0x0001b5b8   Lc    1  Sect  De 
    343  i.LLF_RND_RunTrngStartupTest
                                    0x0001b788   Lc    1  Sect  De 
    344  i.LLF_RND_StartTrngHW      0x0001b78c   Lc    1  Sect  De 
    345  i.LLF_RND_TRNG_EnableRngSourceAndWatchdog
                                    0x0001b874   Lc    1  Sect  De 
    346  LLF_RND_TRNG_EnableRngSourceAndWatchdog
                                    0x0001b875   Lc    1  Code  De   0x1a
    347  i.LLF_RND_TRNG_ReadEhrData 0x0001b894   Lc    1  Sect  De 
    348  LLF_RND_TRNG_ReadEhrData   0x0001b895   Lc    1  Code  De   0x54
    349  ..\..\host\src\pal\no_os\cc_pal_dma.c
                                    0x00000000   Lc  Abs  File  De 
    350  i.CC_PalDmaInit            0x0001b3f0   Lc    1  Sect  De 
    351  i.CC_PalDmaTerminate       0x0001b3f4   Lc    1  Sect  De 
    352  ..\..\host\src\pal\no_os\cc_pal_interrupt_ctrl.c
                                    0x00000000   Lc  Abs  File  De 
    353  i.CC_PalWaitInterrupt      0x0001b464   Lc    1  Sect  De 
    354  ..\..\host\src\pal\no_os\cc_pal_memmap.c
                                    0x00000000   Lc  Abs  File  De 
    355  i.CC_PalMemMap             0x0001b414   Lc    1  Sect  De 
    356  i.CC_PalMemUnMap           0x0001b428   Lc    1  Sect  De 
    357  ..\..\host\src\pal\cc_pal_trng.c
                                    0x00000000   Lc  Abs  File  De 
    358  i.CC_PalTrngParamGet       0x0001b43e   Lc    1  Sect  De 
    359  am_hal_otp.c               0x00000000   Lc  Abs  File  De 
    360  am_hal_pin.c               0x00000000   Lc  Abs  File  De 
    361  am_hal_queue.c             0x00000000   Lc  Abs  File  De 
    362  ..\..\mbedtls\library\sha512.c
                                    0x00000000   Lc  Abs  File  De 
    363  i.mbedtls_internal_sha512_process
                                    0x0001c8f0   Lc    1  Sect  De 
    364  i.mbedtls_sha512_finish_ret
                                    0x0001d428   Lc    1  Sect  De 
    365  i.mbedtls_sha512_free      0x0001d73a   Lc    1  Sect  De 
    366  i.mbedtls_sha512_init      0x0001d746   Lc    1  Sect  De 
    367  i.mbedtls_sha512_ret       0x0001d74c   Lc    1  Sect  De 
    368  i.mbedtls_sha512_starts_ret
                                    0x0001d790   Lc    1  Sect  De 
    369  i.mbedtls_sha512_update_ret
                                    0x0001d8a4   Lc    1  Sect  De 
    370  .constdata                 0x0001db20   Lc    1  Sect  De   0x560
    371  K                          0x0001db20   Lc    1  Data  De   0x280
    372  sha512_test_buf            0x0001dda0   Lc    1  Data  De   0x153
    373  sha512_test_buflen         0x0001def4   Lc    1  Data  De   0xc
    374  sha512_test_sum            0x0001df00   Lc    1  Data  De   0x180
    375  ..\..\codesafe\src\crypto_api\cc3x_sym\driver\aes_driver.c
                                    0x00000000   Lc  Abs  File  De 
    376  i.InitAes                  0x0001b4a4   Lc    1  Sect  De 
    377  InitAes                    0x0001b4a5   Lc    1  Code  De   0xc2
    378  i.LoadAesKey               0x0001b958   Lc    1  Sect  De 
    379  LoadAesKey                 0x0001b959   Lc    1  Code  De   0x156
    380  i.LoadIVState              0x0001bab8   Lc    1  Sect  De 
    381  LoadIVState                0x0001bab9   Lc    1  Code  De   0x58
    382  i.ProcessAesDrv            0x0001bb18   Lc    1  Sect  De 
    383  i.StoreIVState             0x0001be70   Lc    1  Sect  De 
    384  StoreIVState               0x0001be71   Lc    1  Code  De   0x5c
    385  ..\..\codesafe\src\crypto_api\cc3x_sym\driver\driver_common.c
                                    0x00000000   Lc  Abs  File  De 
    386  i.SetDataBuffersInfo       0x0001be1c   Lc    1  Sect  De 
    387  ..\..\codesafe\src\mbedtls_api\trng_api.c
                                    0x00000000   Lc  Abs  File  De 
    388  i.mbedtls_hardware_poll    0x0001c858   Lc    1  Sect  De 
    389  ..\..\codesafe\src\crypto_api\common\cc_common_conv_endian.c
                                    0x00000000   Lc  Abs  File  De 
    390  ..\..\codesafe\src\crypto_api\common\cc_common_math.c
                                    0x00000000   Lc  Abs  File  De 
    391  ..\..\codesafe\src\crypto_api\rnd_dma\llf_rnd.c
                                    0x00000000   Lc  Abs  File  De 
    392  i.LLF_RND_GetFastestRosc   0x0001b570   Lc    1  Sect  De 
    393  i.LLF_RND_GetRoscSampleCnt 0x0001b58c   Lc    1  Sect  De 
    394  i.LLF_RND_TurnOffTrng      0x0001b8f0   Lc    1  Sect  De 
    395  i.LLF_RND_WaitRngInterrupt 0x0001b914   Lc    1  Sect  De 
    396  ..\..\host\src\pal\no_os\cc_pal_buff_attr.c
                                    0x00000000   Lc  Abs  File  De 
    397  i.CC_PalDataBufferAttrGet  0x0001b3ea   Lc    1  Sect  De 
    398  ..\..\codesafe\src\mbedtls_api\mbedtls_common.c
                                    0x00000000   Lc  Abs  File  De 
    399  i.mbedtls_zeroize_internal 0x0001d92e   Lc    1  Sect  De 
    400  dc.s                       0x00000000   Lc  Abs  File  De 
    401  ../clib/string.c           0x00000000   Lc  Abs  File  De 
    402  .text                      0x000182ec   Lc    1  Sect  De 
    403  ../clib/memcpset.s         0x00000000   Lc  Abs  File  De 
    404  .text                      0x00018344   Lc    1  Sect  De   0x8a
    405  ../clib/memcpset.s         0x00000000   Lc  Abs  File  De 
    406  .text                      0x000183ce   Lc    1  Sect  De   0x84
    407  ../clib/memcpset.s         0x00000000   Lc  Abs  File  De 
    408  .text                      0x00018452   Lc    1  Sect  De   0x8
    409  ../clib/memcpset.s         0x00000000   Lc  Abs  File  De 
    410  .text                      0x0001845a   Lc    1  Sect  De   0x64
    411  ../clib/memcpset.s         0x00000000   Lc  Abs  File  De 
    412  .text                      0x000184be   Lc    1  Sect  De   0x16
    413  ../clib/memcpset.s         0x00000000   Lc  Abs  File  De 
    414  .text                      0x000184d4   Lc    1  Sect  De   0x10
    415  ../clib/memcpset.s         0x00000000   Lc  Abs  File  De 
    416  .text                      0x000184e4   Lc    1  Sect  De   0x44
    417  ../clib/memcpset.s         0x00000000   Lc  Abs  File  De 
    418  .text                      0x00018528   Lc    1  Sect  De   0x4e
    419  ../clib/time.c             0x00000000   Lc  Abs  File  De 
    420  ../clib/heapaux.c          0x00000000   Lc  Abs  File  De 
    421  .text                      0x00018576   Lc    1  Sect  De 
    422  ../clib/angel/startup.s    0x00000000   Lc  Abs  File  De 
    423  !!!main                    0x00018234   Lc    1  Sect  De   0x8
    424  ../clib/angel/handlers.s   0x00000000   Lc  Abs  File  De 
    425  !!handler_copy             0x00018270   Lc    1  Sect  De   0x1a
    426  ../fplib/d2f.s             0x00000000   Lc  Abs  File  De 
    427  x$fpl$d2f                  0x0001d9c4   Lc    1  Sect  De   0x62
    428  $v0                        0x0001d9c4   Lc    1   --   De 
    429  ../clib/angel/kernel.s     0x00000000   Lc  Abs  File  De 
    430  .ARM.Collect$$rtentry$$00000000
                                    0x000182b4   Lc    1  Sect  De 
    431  ../clib/memcpset.s         0x00000000   Lc  Abs  File  De 
    432  .text                      0x0001857c   Lc    1  Sect  De   0x7a
    433  ../fplib/dnaninf.s         0x00000000   Lc  Abs  File  De 
    434  x$fpl$dnaninf              0x0001da26   Lc    1  Sect  De   0x9c
    435  $v0                        0x0001da26   Lc    1   --   De 
    436  ../fplib/fretinf.s         0x00000000   Lc  Abs  File  De 
    437  x$fpl$fretinf              0x0001dadc   Lc    1  Sect  De   0xa
    438  $v0                        0x0001dadc   Lc    1   --   De 
    439  ../fplib/usenofp.s         0x00000000   Lc  Abs  File  De 
    440  x$fpl$usenofp              0x0001dae6   Lc    1  Sect  De 
    441  ../clib/angel/kernel.s     0x00000000   Lc  Abs  File  De 
    442  .ARM.Collect$$rtentry$$00000002
                                    0x000182b4   Lc    1  Sect  De 
    443  .ARM.Collect$$rtentry$$00000009
                                    0x000182ba   Lc    1  Sect  De 
    444  .ARM.Collect$$rtentry$$0000000A
                                    0x000182ba   Lc    1  Sect  De   0x4
    445  .ARM.Collect$$rtentry$$0000000C
                                    0x000182be   Lc    1  Sect  De 
    446  .ARM.Collect$$rtentry$$0000000D
                                    0x000182be   Lc    1  Sect  De   0x8
    447  ../clib/angel/kernel.s     0x00000000   Lc  Abs  File  De 
    448  .ARM.Collect$$rtentry$$00000004
                                    0x000182b4   Lc    1  Sect  De   0x6
    449  ../clib/angel/sys.s        0x00000000   Lc  Abs  File  De 
    450  .text                      0x000185f6   Lc    1  Sect  De   0x4a
    451  ../clib/stdlib.c           0x00000000   Lc  Abs  File  De 
    452  .text                      0x00018640   Lc    1  Sect  De 
    453  ../clib/angel/boardlib.s   0x00000000   Lc  Abs  File  De 
    454  ../clib/angel/boardlib.s   0x00000000   Lc  Abs  File  De 
    455  ../clib/angel/boardlib.s   0x00000000   Lc  Abs  File  De 
    456  ../clib/libinit.s          0x00000000   Lc  Abs  File  De 
    457  .ARM.Collect$$libinit$$00000000
                                    0x000182a8   Lc    1  Sect  De   0x2
    458  ../clib/angel/sys.s        0x00000000   Lc  Abs  File  De 
    459  .text                      0x00018654   Lc    1  Sect  De   0x8
    460  .bss                       0x1000006c   Lc    3  Sect  De   0x60
    461  ../clib/angel/kernel.s     0x00000000   Lc  Abs  File  De 
    462  .ARM.Collect$$rtexit$$00000000
                                    0x000182c6   Lc    1  Sect  De   0x2
    463  ../clib/libinit.s          0x00000000   Lc  Abs  File  De 
    464  .ARM.Collect$$libinit$$00000001
                                    0x000182aa   Lc    1  Sect  De   0x4
    465  .ARM.Collect$$libinit$$00000004
                                    0x000182ae   Lc    1  Sect  De 
    466  .ARM.Collect$$libinit$$0000000A
                                    0x000182ae   Lc    1  Sect  De 
    467  .ARM.Collect$$libinit$$0000000C
                                    0x000182ae   Lc    1  Sect  De 
    468  .ARM.Collect$$libinit$$0000000E
                                    0x000182ae   Lc    1  Sect  De 
    469  .ARM.Collect$$libinit$$00000011
                                    0x000182ae   Lc    1  Sect  De 
    470  .ARM.Collect$$libinit$$00000013
                                    0x000182ae   Lc    1  Sect  De 
    471  .ARM.Collect$$libinit$$00000015
                                    0x000182ae   Lc    1  Sect  De 
    472  .ARM.Collect$$libinit$$00000017
                                    0x000182ae   Lc    1  Sect  De 
    473  .ARM.Collect$$libinit$$00000019
                                    0x000182ae   Lc    1  Sect  De 
    474  .ARM.Collect$$libinit$$0000001B
                                    0x000182ae   Lc    1  Sect  De 
    475  .ARM.Collect$$libinit$$0000001D
                                    0x000182ae   Lc    1  Sect  De 
    476  .ARM.Collect$$libinit$$0000001F
                                    0x000182ae   Lc    1  Sect  De 
    477  .ARM.Collect$$libinit$$00000021
                                    0x000182ae   Lc    1  Sect  De 
    478  .ARM.Collect$$libinit$$00000023
                                    0x000182ae   Lc    1  Sect  De 
    479  .ARM.Collect$$libinit$$00000025
                                    0x000182ae   Lc    1  Sect  De 
    480  .ARM.Collect$$libinit$$0000002C
                                    0x000182ae   Lc    1  Sect  De 
    481  .ARM.Collect$$libinit$$0000002E
                                    0x000182ae   Lc    1  Sect  De 
    482  .ARM.Collect$$libinit$$00000030
                                    0x000182ae   Lc    1  Sect  De 
    483  .ARM.Collect$$libinit$$00000032
                                    0x000182ae   Lc    1  Sect  De 
    484  .ARM.Collect$$libinit$$00000033
                                    0x000182ae   Lc    1  Sect  De   0x2
    485  ../clib/angel/kernel.s     0x00000000   Lc  Abs  File  De 
    486  .ARM.Collect$$rtexit$$00000002
                                    0x000182c8   Lc    1  Sect  De 
    487  .ARM.Collect$$rtexit$$00000003
                                    0x000182c8   Lc    1  Sect  De   0x4
    488  .ARM.Collect$$rtexit$$00000004
                                    0x000182cc   Lc    1  Sect  De   0x6
    489  ../clib/armsys.c           0x00000000   Lc  Abs  File  De 
    490  ../clib/armsys.c           0x00000000   Lc  Abs  File  De 
    491  ../fplib/fpinit.s          0x00000000   Lc  Abs  File  De 
    492  x$fpl$fpinit               0x0001dac2   Lc    1  Sect  De   0x1a
    493  $v0                        0x0001dac2   Lc    1   --   De 
    494  ../clib/angel/sysapp.c     0x00000000   Lc  Abs  File  De 
    495  .text                      0x0001865c   Lc    1  Sect  De 
    496  ../clib/angel/sysapp.c     0x00000000   Lc  Abs  File  De 
    497  ../clib/angel/boardlib.s   0x00000000   Lc  Abs  File  De 
    498  ../clib/armsys.c           0x00000000   Lc  Abs  File  De 
    499  ../clib/armsys.c           0x00000000   Lc  Abs  File  De 
    500  ../clib/libinit.s          0x00000000   Lc  Abs  File  De 
    501  .ARM.Collect$$libshutdown$$00000000
                                    0x000182b0   Lc    1  Sect  De   0x2
    502  ../clib/angel/sysapp.c     0x00000000   Lc  Abs  File  De 
    503  ../clib/angel/sysapp.c     0x00000000   Lc  Abs  File  De 
    504  ../clib/angel/sys.s        0x00000000   Lc  Abs  File  De 
    505  .text                      0x00018668   Lc    1  Sect  De   0x2
    506  ../clib/angel/sys.s        0x00000000   Lc  Abs  File  De 
    507  .text                      0x0001866a   Lc    1  Sect  De 
    508  ../clib/heapalloc.c        0x00000000   Lc  Abs  File  De 
    509  ../clib/signal.c           0x00000000   Lc  Abs  File  De 
    510  ../clib/signal.c           0x00000000   Lc  Abs  File  De 
    511  ../clib/libinit.s          0x00000000   Lc  Abs  File  De 
    512  .ARM.Collect$$libshutdown$$00000002
                                    0x000182b2   Lc    1  Sect  De 
    513  .ARM.Collect$$libshutdown$$00000004
                                    0x000182b2   Lc    1  Sect  De 
    514  .ARM.Collect$$libshutdown$$00000007
                                    0x000182b2   Lc    1  Sect  De 
    515  .ARM.Collect$$libshutdown$$0000000A
                                    0x000182b2   Lc    1  Sect  De 
    516  .ARM.Collect$$libshutdown$$0000000C
                                    0x000182b2   Lc    1  Sect  De 
    517  .ARM.Collect$$libshutdown$$0000000F
                                    0x000182b2   Lc    1  Sect  De 
    518  .ARM.Collect$$libshutdown$$00000010
                                    0x000182b2   Lc    1  Sect  De   0x2
    519  ../clib/angel/rt.s         0x00000000   Lc  Abs  File  De 
    520  ../clib/signal.c           0x00000000   Lc  Abs  File  De 
    521  ../clib/signal.c           0x00000000   Lc  Abs  File  De 
    522  ../clib/signal.c           0x00000000   Lc  Abs  File  De 
    523  ../clib/signal.c           0x00000000   Lc  Abs  File  De 
    524  ../clib/angel/sysapp.c     0x00000000   Lc  Abs  File  De 
    525  ../clib/angel/sysapp.c     0x00000000   Lc  Abs  File  De 
    526  ../clib/signal.s           0x00000000   Lc  Abs  File  De 
    527  ../clib/signal.c           0x00000000   Lc  Abs  File  De 
    528  ../clib/signal.c           0x00000000   Lc  Abs  File  De 
    529  ../clib/signal.c           0x00000000   Lc  Abs  File  De 
    530  ../clib/signal.c           0x00000000   Lc  Abs  File  De 
    531  ../clib/signal.c           0x00000000   Lc  Abs  File  De 
    532  ../clib/signal.c           0x00000000   Lc  Abs  File  De 
    533  ../clib/signal.c           0x00000000   Lc  Abs  File  De 
    534  ../clib/signal.c           0x00000000   Lc  Abs  File  De 
    535  ../clib/angel/scatter.s    0x00000000   Lc  Abs  File  De 
    536  !!!scatter                 0x0001823c   Lc    1  Sect  De   0x34
    537  ../clib/angel/handlers.s   0x00000000   Lc  Abs  File  De 
    538  !!handler_zi               0x0001828c   Lc    1  Sect  De   0x1c
    539  BuildAttributes$$THM_ISAv4$E$P$D$K$B$S$7EM$VFPi3$EXTD16$VFPS$VFMA$PE$A:L22UL41UL21$X:L11$S22US41US21$IEEE1$IW$~IW$USESV6$~STKCKD$USESV7$~SHL$OSPACE$ROPI$EBA8$UX$STANDARDLIB$REQ8$PRES8$EABIv2
                                    0x00000000   Gb  Abs   --   Hi 
    540  __Vectors                  0x00018000   Gb    1  Data  Hi 
    541  __Patchable                0x00018190   Gb    1  Data  Hi 
    542  Reset_Handler              0x00018201   Wk    1  Code  Hi   0x1c
    543  NMI_Handler                0x0001821f   Wk    1  Code  Hi   0x2
    544  MemManage_Handler          0x00018221   Wk    1  Code  Hi   0x2
    545  BusFault_Handler           0x00018223   Wk    1  Code  Hi   0x2
    546  UsageFault_Handler         0x00018225   Wk    1  Code  Hi   0x2
    547  SVC_Handler                0x00018227   Wk    1  Code  Hi   0x2
    548  DebugMon_Handler           0x00018229   Wk    1  Code  Hi   0x2
    549  PendSV_Handler             0x0001822b   Wk    1  Code  Hi   0x2
    550  SysTick_Handler            0x0001822d   Wk    1  Code  Hi   0x2
    551  am_adc_isr                 0x0001822f   Wk    1  Code  Hi 
    552  am_audadc0_isr             0x0001822f   Wk    1  Code  Hi 
    553  am_brownout_isr            0x0001822f   Wk    1  Code  Hi 
    554  am_cachecpu_isr            0x0001822f   Wk    1  Code  Hi 
    555  am_clkgen_isr              0x0001822f   Wk    1  Code  Hi 
    556  am_ctimer_isr              0x0001822f   Wk    1  Code  Hi 
    557  am_disp_isr                0x0001822f   Wk    1  Code  Hi 
    558  am_dsi_isr                 0x0001822f   Wk    1  Code  Hi 
    559  am_dspi2s0_isr             0x0001822f   Wk    1  Code  Hi 
    560  am_dspi2s1_isr             0x0001822f   Wk    1  Code  Hi 
    561  am_dspi2s2_isr             0x0001822f   Wk    1  Code  Hi 
    562  am_dspi2s3_isr             0x0001822f   Wk    1  Code  Hi 
    563  am_gpio0_001f_isr          0x0001822f   Wk    1  Code  Hi 
    564  am_gpio0_203f_isr          0x0001822f   Wk    1  Code  Hi 
    565  am_gpio0_405f_isr          0x0001822f   Wk    1  Code  Hi 
    566  am_gpio0_607f_isr          0x0001822f   Wk    1  Code  Hi 
    567  am_gpio1_001f_isr          0x0001822f   Wk    1  Code  Hi 
    568  am_gpio1_203f_isr          0x0001822f   Wk    1  Code  Hi 
    569  am_gpio1_405f_isr          0x0001822f   Wk    1  Code  Hi 
    570  am_gpio1_607f_isr          0x0001822f   Wk    1  Code  Hi 
    571  am_gpu_isr                 0x0001822f   Wk    1  Code  Hi 
    572  am_iomaster0_isr           0x0001822f   Wk    1  Code  Hi 
    573  am_iomaster1_isr           0x0001822f   Wk    1  Code  Hi 
    574  am_iomaster2_isr           0x0001822f   Wk    1  Code  Hi 
    575  am_iomaster3_isr           0x0001822f   Wk    1  Code  Hi 
    576  am_iomaster4_isr           0x0001822f   Wk    1  Code  Hi 
    577  am_iomaster5_isr           0x0001822f   Wk    1  Code  Hi 
    578  am_iomaster6_isr           0x0001822f   Wk    1  Code  Hi 
    579  am_iomaster7_isr           0x0001822f   Wk    1  Code  Hi 
    580  am_ioslave_acc_isr         0x0001822f   Wk    1  Code  Hi 
    581  am_ioslave_ios_isr         0x0001822f   Wk    1  Code  Hi 
    582  am_mspi0_isr               0x0001822f   Wk    1  Code  Hi 
    583  am_mspi1_isr               0x0001822f   Wk    1  Code  Hi 
    584  am_mspi2_isr               0x0001822f   Wk    1  Code  Hi 
    585  am_pdm0_isr                0x0001822f   Wk    1  Code  Hi 
    586  am_pdm1_isr                0x0001822f   Wk    1  Code  Hi 
    587  am_pdm2_isr                0x0001822f   Wk    1  Code  Hi 
    588  am_pdm3_isr                0x0001822f   Wk    1  Code  Hi 
    589  am_rtc_isr                 0x0001822f   Wk    1  Code  Hi 
    590  am_sdio_isr                0x0001822f   Wk    1  Code  Hi 
    591  am_stimer_cmpr0_isr        0x0001822f   Wk    1  Code  Hi 
    592  am_stimer_cmpr1_isr        0x0001822f   Wk    1  Code  Hi 
    593  am_stimer_cmpr2_isr        0x0001822f   Wk    1  Code  Hi 
    594  am_stimer_cmpr3_isr        0x0001822f   Wk    1  Code  Hi 
    595  am_stimer_cmpr4_isr        0x0001822f   Wk    1  Code  Hi 
    596  am_stimer_cmpr5_isr        0x0001822f   Wk    1  Code  Hi 
    597  am_stimer_cmpr6_isr        0x0001822f   Wk    1  Code  Hi 
    598  am_stimer_cmpr7_isr        0x0001822f   Wk    1  Code  Hi 
    599  am_stimerof_isr            0x0001822f   Wk    1  Code  Hi 
    600  am_timer00_isr             0x0001822f   Wk    1  Code  Hi 
    601  am_timer01_isr             0x0001822f   Wk    1  Code  Hi 
    602  am_timer02_isr             0x0001822f   Wk    1  Code  Hi 
    603  am_timer03_isr             0x0001822f   Wk    1  Code  Hi 
    604  am_timer04_isr             0x0001822f   Wk    1  Code  Hi 
    605  am_timer05_isr             0x0001822f   Wk    1  Code  Hi 
    606  am_timer06_isr             0x0001822f   Wk    1  Code  Hi 
    607  am_timer07_isr             0x0001822f   Wk    1  Code  Hi 
    608  am_timer08_isr             0x0001822f   Wk    1  Code  Hi 
    609  am_timer09_isr             0x0001822f   Wk    1  Code  Hi 
    610  am_timer10_isr             0x0001822f   Wk    1  Code  Hi 
    611  am_timer11_isr             0x0001822f   Wk    1  Code  Hi 
    612  am_timer12_isr             0x0001822f   Wk    1  Code  Hi 
    613  am_timer13_isr             0x0001822f   Wk    1  Code  Hi 
    614  am_timer14_isr             0x0001822f   Wk    1  Code  Hi 
    615  am_timer15_isr             0x0001822f   Wk    1  Code  Hi 
    616  am_uart1_isr               0x0001822f   Wk    1  Code  Hi 
    617  am_uart2_isr               0x0001822f   Wk    1  Code  Hi 
    618  am_uart3_isr               0x0001822f   Wk    1  Code  Hi 
    619  am_uart_isr                0x0001822f   Wk    1  Code  Hi 
    620  am_usb_isr                 0x0001822f   Wk    1  Code  Hi 
    621  am_vcomp_isr               0x0001822f   Wk    1  Code  Hi 
    622  am_watchdog_isr            0x0001822f   Wk    1  Code  Hi 
    623  __main                     0x00018235   Gb    1  Code  Hi   0x8
    624  __scatterload              0x0001823d   Gb    1  Code  Hi 
    625  __scatterload_rt2          0x0001823d   Gb    1  Code  Hi   0x2c
    626  __scatterload_rt2_thumb_only
                                    0x0001823d   Gb    1  Code  Hi 
    627  __scatterload_null         0x0001824b   Gb    1  Code  Hi 
    628  __scatterload_copy         0x00018271   Gb    1  Code  Hi   0x1a
    629  __scatterload_zeroinit     0x0001828d   Gb    1  Code  Hi   0x1c
    630  __rt_lib_init              0x000182a9   Gb    1  Code  De 
    631  __rt_lib_init_fp_1         0x000182ab   Gb    1  Code  Hi 
    632  __rt_lib_init_alloca_1     0x000182af   Gb    1  Code  Hi 
    633  __rt_lib_init_argv_1       0x000182af   Gb    1  Code  Hi 
    634  __rt_lib_init_atexit_1     0x000182af   Gb    1  Code  Hi 
    635  __rt_lib_init_clock_1      0x000182af   Gb    1  Code  Hi 
    636  __rt_lib_init_cpp_1        0x000182af   Gb    1  Code  Hi 
    637  __rt_lib_init_exceptions_1 0x000182af   Gb    1  Code  Hi 
    638  __rt_lib_init_fp_trap_1    0x000182af   Gb    1  Code  Hi 
    639  __rt_lib_init_getenv_1     0x000182af   Gb    1  Code  Hi 
    640  __rt_lib_init_heap_1       0x000182af   Gb    1  Code  Hi 
    641  __rt_lib_init_lc_collate_1 0x000182af   Gb    1  Code  Hi 
    642  __rt_lib_init_lc_ctype_1   0x000182af   Gb    1  Code  Hi 
    643  __rt_lib_init_lc_monetary_1
                                    0x000182af   Gb    1  Code  Hi 
    644  __rt_lib_init_lc_numeric_1 0x000182af   Gb    1  Code  Hi 
    645  __rt_lib_init_lc_time_1    0x000182af   Gb    1  Code  Hi 
    646  __rt_lib_init_preinit_1    0x000182af   Gb    1  Code  Hi 
    647  __rt_lib_init_rand_1       0x000182af   Gb    1  Code  Hi 
    648  __rt_lib_init_return       0x000182af   Gb    1  Code  Hi 
    649  __rt_lib_init_signal_1     0x000182af   Gb    1  Code  Hi 
    650  __rt_lib_init_stdio_1      0x000182af   Gb    1  Code  Hi 
    651  __rt_lib_init_user_alloc_1 0x000182af   Gb    1  Code  Hi 
    652  __rt_lib_shutdown          0x000182b1   Gb    1  Code  De 
    653  __rt_lib_shutdown_cpp_1    0x000182b3   Gb    1  Code  Hi 
    654  __rt_lib_shutdown_fp_trap_1
                                    0x000182b3   Gb    1  Code  Hi 
    655  __rt_lib_shutdown_heap_1   0x000182b3   Gb    1  Code  Hi 
    656  __rt_lib_shutdown_return   0x000182b3   Gb    1  Code  Hi 
    657  __rt_lib_shutdown_signal_1 0x000182b3   Gb    1  Code  Hi 
    658  __rt_lib_shutdown_stdio_1  0x000182b3   Gb    1  Code  Hi 
    659  __rt_lib_shutdown_user_alloc_1
                                    0x000182b3   Gb    1  Code  Hi 
    660  __rt_entry                 0x000182b5   Gb    1  Code  Hi 
    661  __rt_entry_presh_1         0x000182b5   Gb    1  Code  Hi 
    662  __rt_entry_sh              0x000182b5   Gb    1  Code  Hi 
    663  __rt_entry_li              0x000182bb   Gb    1  Code  Hi 
    664  __rt_entry_postsh_1        0x000182bb   Gb    1  Code  Hi 
    665  __rt_entry_main            0x000182bf   Gb    1  Code  Hi 
    666  __rt_entry_postli_1        0x000182bf   Gb    1  Code  Hi 
    667  __rt_exit                  0x000182c7   Gb    1  Code  De 
    668  __rt_exit_ls               0x000182c9   Gb    1  Code  Hi 
    669  __rt_exit_prels_1          0x000182c9   Gb    1  Code  Hi 
    670  __rt_exit_exit             0x000182cd   Gb    1  Code  Hi 
    671  __user_initial_stackheap   0x000182d5   Gb    1  Code  Hi   0xa
    672  memcmp                     0x000182ed   Gb    1  Code  Hi   0x58
    673  __aeabi_memcpy             0x00018345   Gb    1  Code  Hi 
    674  __rt_memcpy                0x00018345   Gb    1  Code  De   0x8a
    675  _memcpy_lastbytes          0x000183ab   Gb    1  Code  De 
    676  __aeabi_memmove            0x000183cf   Gb    1  Code  Hi 
    677  __rt_memmove               0x000183cf   Gb    1  Code  De   0x84
    678  __memmove_lastfew          0x0001842f   Gb    1  Code  De 
    679  memmove                    0x00018453   Gb    1  Code  Hi   0x8
    680  __aeabi_memcpy4            0x0001845b   Gb    1  Code  Hi 
    681  __aeabi_memcpy8            0x0001845b   Gb    1  Code  De 
    682  __rt_memcpy_w              0x0001845b   Gb    1  Code  De   0x64
    683  _memcpy_lastbytes_aligned  0x000184a3   Gb    1  Code  De 
    684  memset                     0x000184bf   Gb    1  Code  Hi   0x16
    685  __aeabi_memset             0x000184d5   Gb    1  Code  Hi   0x10
    686  __aeabi_memclr             0x000184e5   Gb    1  Code  Hi 
    687  __rt_memclr                0x000184e5   Gb    1  Code  De 
    688  _memset                    0x000184e9   Gb    1  Code  De   0x40
    689  __aeabi_memclr4            0x00018529   Gb    1  Code  Hi 
    690  __aeabi_memclr8            0x00018529   Gb    1  Code  De 
    691  __rt_memclr_w              0x00018529   Gb    1  Code  De 
    692  _memset_w                  0x0001852d   Gb    1  Code  De   0x4a
    693  __use_two_region_memory    0x00018577   Gb    1  Code  Hi   0x2
    694  __rt_heap_escrow$2region   0x00018579   Gb    1  Code  De   0x2
    695  __rt_heap_expand$2region   0x0001857b   Gb    1  Code  De   0x2
    696  __aeabi_memmove4           0x0001857d   Gb    1  Code  De 
    697  __aeabi_memmove8           0x0001857d   Gb    1  Code  De 
    698  __rt_memmove_w             0x0001857d   Gb    1  Code  De   0x7a
    699  __memmove_aligned          0x000185a3   Gb    1  Code  De 
    700  __memmove_lastfew_aligned  0x000185db   Gb    1  Code  De 
    701  __user_setup_stackheap     0x000185f7   Gb    1  Code  De   0x4a
    702  exit                       0x00018641   Gb    1  Code  De   0x12
    703  __user_libspace            0x00018655   Wk    1  Code  De   0x8
    704  __user_perproc_libspace    0x00018655   Wk    1  Code  De 
    705  __user_perthread_libspace  0x00018655   Wk    1  Code  De 
    706  _sys_exit                  0x0001865d   Gb    1  Code  De   0x8
    707  __I$use$semihosting        0x00018669   Gb    1  Code  Hi 
    708  __use_no_semihosting_swi   0x00018669   Gb    1  Code  Hi   0x2
    709  __semihosting_library_function
                                    0x0001866b   Gb    1  Code  Hi 
    710  HardFault_Handler          0x0001866d   Gb    1  Code  Hi   0x1e
    711  am_bsp_buffered_uart_printf_enable
                                    0x000186c3   Gb    1  Code  Hi   0xb6
    712  am_bsp_debug_printf_enable 0x00018779   Gb    1  Code  Hi   0x26
    713  am_bsp_itm_printf_enable   0x0001879f   Gb    1  Code  Hi   0x94
    714  am_bsp_low_power_init      0x00018833   Gb    1  Code  Hi   0x16
    715  am_bsp_uart_printf_enable  0x00018849   Gb    1  Code  Hi   0x76
    716  am_bsp_uart_string_print   0x000188c1   Gb    1  Code  Hi   0x4a
    717  am_hal_daxi_config         0x0001890b   Gb    1  Code  Hi   0x66
    718  am_hal_daxi_control        0x00018971   Gb    1  Code  Hi   0x98
    719  am_hal_dcu_get             0x00018a09   Gb    1  Code  Hi   0x9a
    720  am_hal_dcu_update          0x00018aa5   Gb    1  Code  Hi   0xec
    721  am_hal_delay_us            0x00018b91   Gb    1  Code  Hi   0x36
    722  am_hal_delay_us_status_change
                                    0x00018bc9   Gb    1  Code  Hi   0x54
    723  am_hal_delay_us_status_check
                                    0x00018c1d   Gb    1  Code  Hi   0x62
    724  am_hal_fault_status_get    0x00018c7f   Gb    1  Code  Hi   0x3a
    725  am_hal_gpio_pinconfig      0x00018cb9   Gb    1  Code  Hi   0x80
    726  am_hal_interrupt_master_disable
                                    0x00018d49   Gb    1  Code  Hi   0x8
    727  am_hal_interrupt_master_set
                                    0x00018d51   Gb    1  Code  Hi   0x6
    728  am_hal_itm_enable          0x00018d59   Gb    1  Code  Hi   0x42
    729  am_hal_itm_print           0x00018d9d   Gb    1  Code  Hi   0x2e
    730  am_hal_mram_info_read      0x00018dcd   Gb    1  Code  Hi   0x60
    731  am_hal_otp_read_word       0x00018e2d   Gb    1  Code  Hi   0x4a
    732  am_hal_pwrctrl_control     0x00018e79   Gb    1  Code  Hi   0x1c0
    733  am_hal_pwrctrl_low_power_init
                                    0x00019039   Gb    1  Code  Hi   0x160
    734  am_hal_pwrctrl_mcu_memory_config
                                    0x00019199   Gb    1  Code  Hi   0xfa
    735  am_hal_pwrctrl_mcu_mode_select
                                    0x00019295   Gb    1  Code  Hi   0x72
    736  am_hal_pwrctrl_mcu_mode_status
                                    0x00019307   Gb    1  Code  Hi   0x16
    737  am_hal_pwrctrl_periph_disable
                                    0x0001931d   Gb    1  Code  Hi   0x120
    738  am_hal_pwrctrl_periph_enable
                                    0x0001943d   Gb    1  Code  Hi   0xb2
    739  am_hal_pwrctrl_sram_config 0x000194f1   Gb    1  Code  Hi   0xb0
    740  am_hal_queue_init          0x000195a1   Gb    1  Code  Hi   0x18
    741  am_hal_queue_item_add      0x000195b9   Gb    1  Code  Hi   0x66
    742  am_hal_queue_item_get      0x00019621   Gb    1  Code  Hi   0x60
    743  am_hal_rtc_osc_disable     0x00019681   Gb    1  Code  Hi   0x14
    744  am_hal_sysctrl_sleep       0x00019695   Gb    1  Code  Hi   0x130
    745  am_hal_tpiu_enable         0x000197c5   Gb    1  Code  Hi   0x6c
    746  am_hal_uart_buffer_configure
                                    0x00019831   Gb    1  Code  Hi   0x60
    747  am_hal_uart_configure      0x00019891   Gb    1  Code  Hi   0x194
    748  am_hal_uart_initialize     0x00019a39   Gb    1  Code  Hi   0x70
    749  am_hal_uart_power_control  0x00019aa9   Gb    1  Code  Hi   0xba
    750  am_hal_uart_transfer       0x00019b65   Gb    1  Code  Hi   0xb4
    751  am_util_faultisr_collect_data
                                    0x00019c19   Gb    1  Code  Hi   0x328
    752  am_util_stdio_printf       0x00019f41   Gb    1  Code  Hi   0x5c
    753  am_util_stdio_printf_init  0x00019f9d   Gb    1  Code  Hi   0x14
    754  am_util_stdio_terminal_clear
                                    0x00019fb1   Gb    1  Code  Hi   0x10
    755  am_util_stdio_vsprintf     0x00019fc1   Gb    1  Code  Hi   0x654
    756  am_valid_sp                0x0001a615   Gb    1  Code  Hi   0x30
    757  buck_ldo_override_init     0x0001a645   Gb    1  Code  Hi   0x86
    758  buck_ldo_update_override   0x0001a6cb   Gb    1  Code  Hi   0x2a
    759  crypto_boost_trims         0x0001a6f5   Gb    1  Code  Hi   0xd4
    760  getStackedReg              0x0001abb9   Gb    1  Code  Hi   0x8
    761  main                       0x0001abc1   Gb    1  Code  Hi   0xec
    762  read_transaction_save      0x0001b015   Gb    1  Code  Hi   0x54
    763  write_transaction_save     0x0001b1e9   Gb    1  Code  Hi   0x58
    764  CC_HalClearInterruptBit    0x0001b241   Gb    1  Code  Hi   0xa
    765  CC_HalInit                 0x0001b251   Gb    1  Code  Hi   0x1c
    766  CC_HalMaskInterrupt        0x0001b275   Gb    1  Code  Hi   0xa
    767  CC_HalTerminate            0x0001b285   Gb    1  Code  Hi   0x14
    768  CC_HalWaitInterrupt        0x0001b29d   Gb    1  Code  Hi   0xc
    769  CC_HalWaitInterruptRND     0x0001b2a9   Gb    1  Code  Hi   0x2e
    770  CC_LibInit                 0x0001b2dd   Gb    1  Code  Hi   0x100
    771  CC_PalAbort                0x0001b3e9   Gb    1  Code  Hi   0x2
    772  CC_PalDataBufferAttrGet    0x0001b3eb   Gb    1  Code  Hi   0x6
    773  CC_PalDmaInit              0x0001b3f1   Gb    1  Code  Hi   0x4
    774  CC_PalDmaTerminate         0x0001b3f5   Gb    1  Code  Hi   0x2
    775  CC_PalInit                 0x0001b3f7   Gb    1  Code  Hi   0x16
    776  CC_PalMemCmpPlat           0x0001b40d   Gb    1  Code  Hi   0x4
    777  CC_PalMemCopyPlat          0x0001b411   Gb    1  Code  Hi   0x4
    778  CC_PalMemMap               0x0001b415   Gb    1  Code  Hi   0x6
    779  CC_PalMemSetPlat           0x0001b41b   Gb    1  Code  Hi   0xa
    780  CC_PalMemSetZeroPlat       0x0001b425   Gb    1  Code  Hi   0x4
    781  CC_PalMemUnMap             0x0001b429   Gb    1  Code  Hi   0x4
    782  CC_PalMutexLock            0x0001b42d   Gb    1  Code  Hi   0x4
    783  CC_PalMutexUnlock          0x0001b431   Gb    1  Code  Hi   0x4
    784  CC_PalPowerSaveModeInit    0x0001b435   Gb    1  Code  Hi   0x2
    785  CC_PalPowerSaveModeSelect  0x0001b437   Gb    1  Code  Hi   0x4
    786  CC_PalTerminate            0x0001b43b   Gb    1  Code  Hi   0x4
    787  CC_PalTrngParamGet         0x0001b43f   Gb    1  Code  Hi   0x26
    788  CC_PalWaitInterrupt        0x0001b465   Gb    1  Code  Hi   0x24
    789  CC_RndSetGenerateVectorFunc
                                    0x0001b48d   Gb    1  Code  Hi   0x14
    790  LLF_RND_GetFastestRosc     0x0001b571   Gb    1  Code  Hi   0x18
    791  LLF_RND_GetRoscSampleCnt   0x0001b58d   Gb    1  Code  Hi   0x28
    792  LLF_RND_GetTrngSource      0x0001b5b9   Gb    1  Code  Hi   0x154
    793  LLF_RND_RunTrngStartupTest 0x0001b789   Gb    1  Code  Hi   0x4
    794  LLF_RND_StartTrngHW        0x0001b78d   Gb    1  Code  Hi   0xde
    795  LLF_RND_TurnOffTrng        0x0001b8f1   Gb    1  Code  Hi   0x20
    796  LLF_RND_WaitRngInterrupt   0x0001b915   Gb    1  Code  Hi   0x3e
    797  ProcessAesDrv              0x0001bb19   Gb    1  Code  Hi   0x132
    798  RNG_PLAT_SetUserRngParameters
                                    0x0001bcc9   Gb    1  Code  Hi   0x5e
    799  SetDataBuffersInfo         0x0001be1d   Gb    1  Code  Hi   0x52
    800  mbedtls_aes_crypt_ecb      0x0001c493   Gb    1  Code  Hi   0x5a
    801  mbedtls_aes_free           0x0001c4ed   Gb    1  Code  Hi   0xe
    802  mbedtls_aes_init           0x0001c4fd   Gb    1  Code  Hi   0x1a
    803  mbedtls_aes_setkey_enc     0x0001c52d   Gb    1  Code  Hi   0x6
    804  mbedtls_calloc             0x0001c535   Gb    1  Code  Hi   0x6
    805  mbedtls_ctr_drbg_init      0x0001c541   Gb    1  Code  Hi   0x6
    806  mbedtls_ctr_drbg_random    0x0001c547   Gb    1  Code  Hi   0xc
    807  mbedtls_ctr_drbg_random_with_add
                                    0x0001c553   Gb    1  Code  Hi   0xd6
    808  mbedtls_ctr_drbg_reseed    0x0001c629   Gb    1  Code  Hi   0x80
    809  mbedtls_ctr_drbg_seed      0x0001c6a9   Gb    1  Code  Hi   0x10
    810  mbedtls_ctr_drbg_seed_entropy_len
                                    0x0001c6b9   Gb    1  Code  Hi   0x50
    811  mbedtls_entropy_add_source 0x0001c709   Gb    1  Code  Hi   0x30
    812  mbedtls_entropy_func       0x0001c739   Gb    1  Code  Hi   0xde
    813  mbedtls_entropy_init       0x0001c819   Gb    1  Code  Hi   0x30
    814  mbedtls_free               0x0001c84d   Gb    1  Code  Hi   0x6
    815  mbedtls_hardware_poll      0x0001c859   Gb    1  Code  Hi   0x98
    816  mbedtls_internal_sha512_process
                                    0x0001c8f1   Gb    1  Code  Hi   0xa48
    817  mbedtls_memory_buffer_alloc_init
                                    0x0001d339   Gb    1  Code  Hi   0x50
    818  mbedtls_mng_lcsGet         0x0001d39d   Gb    1  Code  Hi   0x26
    819  mbedtls_mng_otpWordRead    0x0001d3cd   Gb    1  Code  Hi   0x34
    820  mbedtls_platform_set_calloc_free
                                    0x0001d409   Gb    1  Code  Hi   0xa
    821  mbedtls_platform_zeroize   0x0001d419   Gb    1  Code  Hi   0xa
    822  mbedtls_sha512_finish_ret  0x0001d429   Gb    1  Code  Hi   0x312
    823  mbedtls_sha512_free        0x0001d73b   Gb    1  Code  Hi   0xc
    824  mbedtls_sha512_init        0x0001d747   Gb    1  Code  Hi   0x6
    825  mbedtls_sha512_ret         0x0001d74d   Gb    1  Code  Hi   0x42
    826  mbedtls_sha512_starts_ret  0x0001d791   Gb    1  Code  Hi   0x92
    827  mbedtls_sha512_update_ret  0x0001d8a5   Gb    1  Code  Hi   0x8a
    828  mbedtls_zeroize_internal   0x0001d92f   Gb    1  Code  Hi   0x12
    829  __aeabi_d2f                0x0001d9c5   Gb    1  Code  De 
    830  _d2f                       0x0001d9c5   Gb    1  Code  De   0x62
    831  __fpl_dnaninf              0x0001da27   Gb    1  Code  De   0x9c
    832  _fp_init                   0x0001dac3   Gb    1  Code  De   0x1a
    833  __fplib_config_fpu_vfp     0x0001dadb   Gb    1  Code  De 
    834  __fplib_config_pureend_doubles
                                    0x0001dadb   Gb    1  Code  De 
    835  __fpl_fretinf              0x0001dadd   Gb    1  Code  De   0xa
    836  __I$use$fp                 0x0001dae6   Gb    1   --   De 
    837  am_hal_daxi_defaults       0x0001e080   Gb    1  Data  Hi   0x5
    838  am_hal_pwrctrl_peripheral_control
                                    0x0001e088   Gb    1  Data  Hi   0x190
    839  g_DefaultMcuMemCfg         0x0001e228   Gb    1  Data  Hi   0x6
    840  g_DefaultSRAMCfg           0x0001e22e   Gb    1  Data  Hi   0x6
    841  g_am_hal_bootrom_helper    0x0001e234   Gb    1  Data  Hi   0x28
    842  sGlobalAccess              0x0001e268   Gb    1  Data  Hi   0x1c
    843  ui32DSP0Allowed            0x0001e674   Gb    1  Data  Hi   0x14
    844  ui32DSP1Allowed            0x0001e688   Gb    1  Data  Hi   0x14
    845  ui32MCUAllowed             0x0001e69c   Gb    1  Data  Hi   0x14
    846  ui32SharedAccess           0x0001e6b0   Gb    1  Data  Hi   0x14
    847  Region$$Table$$Base        0x0001e6c4   Gb    1   --   Hi 
    848  Region$$Table$$Limit       0x0001e6f4   Gb    1   --   Hi 
    849  CCSymCryptoMutex           0x10000000   Gb    2  Data  Hi   0x4
    850  pCCRndCryptoMutex          0x10000004   Gb    2  Data  Hi   0x4
    851  gCcRegBase                 0x10000008   Gb    2  Data  Hi   0x4
    852  mbedtls_snprintf           0x10000014   Gb    2  Data  Hi   0x4
    853  mbedtls_exit               0x10000018   Gb    2  Data  Hi   0x4
    854  gDaxiConfig                0x10000020   Gb    2  Data  Hi   0x5
    855  gDcuDisable                0x10000028   Gb    2  Data  Hi   0x8
    856  gDcuEnable                 0x10000030   Gb    2  Data  Hi   0x8
    857  g_AM_BSP_GPIO_COM_UART_RX  0x10000038   Gb    2  Data  Hi   0x4
    858  g_AM_BSP_GPIO_COM_UART_TX  0x1000003c   Gb    2  Data  Hi   0x4
    859  g_AM_BSP_GPIO_ITM_SWO      0x10000040   Gb    2  Data  Hi   0x4
    860  g_eCurrPwrMode             0x10000044   Gb    2  Data  Hi   0x1
    861  g_ui32TrimVer              0x10000048   Gb    2  Data  Hi   0x4
    862  g_ui32origSimobuckVDDStrim 0x1000004c   Gb    2  Data  Hi   0x4
    863  gpDcuEnable                0x10000050   Gb    2  Data  Hi   0x4
    864  gpDcuLock                  0x10000054   Gb    2  Data  Hi   0x4
    865  __libspace_start           0x1000006c   Gb    3  Data  De   0x60
    866  __temporary_stack_top$libspace
                                    0x100000cc   Gb    3  Data  De 
    867  MbedtlsEntropy             0x100000d0   Gb    3  Data  Hi   0x278
    868  RndContext                 0x10000348   Gb    3  Data  Hi   0xc
    869  RndState                   0x10000354   Gb    3  Data  Hi   0x88
    870  RndWorkBuff                0x100003dc   Gb    3  Data  Hi   0x220
    871  gFaultStack                0x100005fc   Gb    3  Data  Hi   0x200
    872  gStartOff                  0x100007fc   Gb    3  Data  Hi   0x4
    873  g_am_hal_uart_states       0x10000800   Gb    3  Data  Hi   0x2e0
    874  g_pfnCharPrint             0x10000b00   Gb    3  Data  Hi   0x4
    875  g_ui32MbedTLSHeap          0x10000f08   Gb    3  Data  Hi   0x20000
    876  pui8RandomBytes            0x10020f0c   Gb    3  Data  Hi   0x80
    877  psGlobalAccessPtr          0x10060000   Gb    4  Data  Hi   0x4
    878  ui32MCUClaimed             0x10060004   Gb    4  Data  Hi   0x14
    879  ui32DSP0Claimed            0x10060018   Gb    4  Data  Hi   0x14
    880  ui32DSP1Claimed            0x1006002c   Gb    4  Data  Hi   0x14


** Section #15 '.strtab' (SHT_STRTAB)
    Size   : 13896 bytes

            #  Offset String
        ====================================

            1      1: $d
            2      4: $t
            3      7: $t.0
            4     12: $d.4
            5     17: $t.17
            6     23: $d.9
            7     28: $t.10
            8     34: $d.2
            9     39: $t.1
           10     44: $d.20
           11     50: $t.21
           12     56: $d.3
           13     61: $t.4
           14     66: $d.7
           15     71: $t.8
           16     76: $d.8
           17     81: $d.12
           18     87: $t.13
           19     93: $t.5
           20     98: $d.realdata
           21    110: am_resources.c
           22    125: __tagsym$$used.0
           23    142: __tagsym$$used.1
           24    159: __tagsym$$used.2
           25    176: __tagsym$$used.3
           26    193: __tagsym$$used.4
           27    210: __tagsym$$used.5
           28    227: __tagsym$$used.6
           29    244: __tagsym$$used.7
           30    261: __tagsym$$used.8
           31    278: rng_test.c
           32    289: .L.str
           33    296: .L.str.5
           34    305: .L.str.3
           35    314: .L.str.2
           36    323: .L.str.1
           37    332: .L.str.4
           38    341: am_util_delay.c
           39    357: am_util_faultisr.c
           40    376: .L.str.29
           41    386: .L.str.10
           42    396: .L.str.25
           43    406: .L.str.11
           44    416: .L.str.18
           45    426: .L.str.17
           46    436: .L.str.23
           47    446: .L.str.20
           48    456: .L.str.21
           49    466: .L.str.19
           50    476: .L.str.22
           51    486: .L.str.24
           52    496: .L.str.16
           53    506: .L.str.14
           54    516: .L.str.15
           55    526: .L.str.27
           56    536: .L.str.26
           57    546: .L.str.28
           58    556: .L.str.6
           59    565: .L.str.9
           60    574: .L.str.8
           61    583: .L.str.13
           62    593: .L.str.7
           63    602: .L.str.12
           64    612: am_util_stdio.c
           65    628: decstr_to_int
           66    642: simple_strlen
           67    656: padbuffer
           68    666: ndigits_in_hex
           69    681: uint64_to_hexstr
           70    698: ndigits_in_u64
           71    713: uint64_to_str
           72    727: ndigits_in_i64
           73    742: ftoa
           74    747: divu64_10
           75    757: g_bTxtXlate
           76    769: g_prfbuf
           77    778: ../keil6/startup_keil6.s
           78    803: STACK
           79    809: StackMem
           80    818: HEAP
           81    823: HeapMem
           82    831: RESET
           83    837: $v0
           84    841: am_cryptosec_isr
           85    858: am_default_isr
           86    873: .text
           87    879: am_hal_fault.c
           88    894: am_hal_sysctrl.c
           89    911: am_hal_utils.c
           90    926: am_hal_pwrctrl.c
           91    943: TrimVersionGet
           92    958: g_bBoostForCryptoApplied
           93    983: g_i32LatestVddfActTrim
           94   1006: g_i32LatestLDOActTrim
           95   1028: g_ui32VDDFAdjustCodes
           96   1050: g_bOrigTrimsStored
           97   1069: g_orig_ACTTRIMVDDF
           98   1088: g_orig_MEMLDOACTIVETRIM
           99   1112: g_orig_LPTRIMVDDF
          100   1130: g_orig_MEMLPLDOTRIM
          101   1150: g_orig_TVRGVREFTRIM
          102   1170: am_bsp.c
          103   1179: g_ePrintInterface
          104   1197: g_sCOMUART
          105   1208: g_sBspUartConfig
          106   1225: pui8UartTxBuffer
          107   1242: pui8UartRxBuffer
          108   1259: ..\..\host\src\cc3x_lib\cc_lib.c
          109   1292: i.CC_LibInit
          110   1305: i.RndStartupTest
          111   1322: RndStartupTest
          112   1337: i.VerifyCidVal
          113   1352: VerifyCidVal
          114   1365: i.VerifyPidVal
          115   1380: VerifyPidVal
          116   1393: .constdata
          117   1404: .data
          118   1410: ..\..\mbedtls\library\ctr_drbg.c
          119   1443: i.block_cipher_df
          120   1461: block_cipher_df
          121   1477: i.ctr_drbg_update_internal
          122   1504: ctr_drbg_update_internal
          123   1529: i.mbedtls_ctr_drbg_init
          124   1553: i.mbedtls_ctr_drbg_random
          125   1579: i.mbedtls_ctr_drbg_random_with_add
          126   1614: i.mbedtls_ctr_drbg_reseed
          127   1640: i.mbedtls_ctr_drbg_seed
          128   1664: i.mbedtls_ctr_drbg_seed_entropy_len
          129   1700: ..\..\mbedtls\library\memory_buffer_alloc.c
          130   1744: i.buffer_alloc_calloc
          131   1766: buffer_alloc_calloc
          132   1786: i.buffer_alloc_free
          133   1806: buffer_alloc_free
          134   1824: i.mbedtls_memory_buffer_alloc_init
          135   1859: i.verify_chain
          136   1874: verify_chain
          137   1887: i.verify_header
          138   1903: verify_header
          139   1917: .bss
          140   1922: heap
          141   1927: ..\..\host\src\pal\no_os\cc_pal.c
          142   1961: i.CC_PalInit
          143   1974: i.CC_PalTerminate
          144   1992: ..\..\host\src\pal\no_os\cc_pal_mem.c
          145   2030: i.CC_PalMemCmpPlat
          146   2049: i.CC_PalMemCopyPlat
          147   2069: i.CC_PalMemSetPlat
          148   2088: i.CC_PalMemSetZeroPlat
          149   2111: ..\..\host\src\pal\no_os\cc_pal_mutex.c
          150   2151: i.CC_PalMutexLock
          151   2169: i.CC_PalMutexUnlock
          152   2189: ..\..\host\src\pal\no_os\cc_pal_pm.c
          153   2226: i.CC_PalPowerSaveModeInit
          154   2252: i.CC_PalPowerSaveModeSelect
          155   2280: ..\..\host\src\pal\no_os\cc_pal_abort_plat.c
          156   2325: i.CC_PalAbort
          157   2339: am_hal_bootrom_helper.c
          158   2363: am_hal_cachectrl.c
          159   2382: am_hal_interrupt.c
          160   2401: am_hal_itm.c
          161   2414: am_hal_mram.c
          162   2428: am_hal_rtc.c
          163   2441: am_hal_tpiu.c
          164   2455: am_hal_uart.c
          165   2469: nonblocking_write
          166   2487: nonblocking_read
          167   2504: nonblocking_read_sm
          168   2524: nonblocking_write_sm
          169   2545: am_hal_dcu.c
          170   2558: am_hal_gpio.c
          171   2572: g_ui32DSpintbl
          172   2587: g_ui32RMpintbl
          173   2602: am_bsp_pins.c
          174   2616: ..\..\host\src\hal\cc3x\cc_hal.c
          175   2649: i.CC_HalClearInterruptBit
          176   2675: i.CC_HalInit
          177   2688: i.CC_HalMaskInterrupt
          178   2710: i.CC_HalTerminate
          179   2728: i.CC_HalWaitInterrupt
          180   2750: i.CC_HalWaitInterruptRND
          181   2775: ..\..\codesafe\src\mbedtls_api\aes_alt.c
          182   2816: i.aes_setkey
          183   2829: aes_setkey
          184   2840: i.mbedtls_aes_crypt_ecb
          185   2864: i.mbedtls_aes_free
          186   2883: i.mbedtls_aes_init
          187   2902: i.mbedtls_aes_setkey_enc
          188   2927: ..\..\mbedtls\library\entropy.c
          189   2959: i.entropy_gather_internal
          190   2985: entropy_gather_internal
          191   3009: i.entropy_update
          192   3026: entropy_update
          193   3041: i.mbedtls_entropy_add_source
          194   3070: i.mbedtls_entropy_func
          195   3093: i.mbedtls_entropy_init
          196   3116: ..\..\mbedtls\library\platform.c
          197   3149: i.mbedtls_calloc
          198   3166: i.mbedtls_free
          199   3181: i.mbedtls_platform_set_calloc_free
          200   3216: i.platform_calloc_uninit
          201   3241: platform_calloc_uninit
          202   3264: i.platform_exit_uninit
          203   3287: platform_exit_uninit
          204   3308: i.platform_free_uninit
          205   3331: platform_free_uninit
          206   3352: i.platform_snprintf_uninit
          207   3379: platform_snprintf_uninit
          208   3404: mbedtls_calloc_func
          209   3424: mbedtls_free_func
          210   3442: ..\..\mbedtls\library\platform_util.c
          211   3480: i.mbedtls_platform_zeroize
          212   3507: memset_func
          213   3519: ..\..\host\src\cc_mng\mbedtls_cc_mng_int.c
          214   3562: i.mbedtls_mng_lcsGet
          215   3583: i.mbedtls_mng_otpWordRead
          216   3609: ..\..\host\src\cc3x_lib\cc_rng_plat.c
          217   3647: i.RNG_PLAT_SetUserRngParameters
          218   3679: ..\..\codesafe\src\crypto_api\rnd_dma\cc_rnd_common.c
          219   3733: i.CC_RndSetGenerateVectorFunc
          220   3763: ..\..\codesafe\src\crypto_api\rnd_dma\llf_rnd_fetrng.c
          221   3818: i.LLF_RND_GetTrngSource
          222   3842: i.LLF_RND_RunTrngStartupTest
          223   3871: i.LLF_RND_StartTrngHW
          224   3893: i.LLF_RND_TRNG_EnableRngSourceAndWatchdog
          225   3935: LLF_RND_TRNG_EnableRngSourceAndWatchdog
          226   3975: i.LLF_RND_TRNG_ReadEhrData
          227   4002: LLF_RND_TRNG_ReadEhrData
          228   4027: ..\..\host\src\pal\no_os\cc_pal_dma.c
          229   4065: i.CC_PalDmaInit
          230   4081: i.CC_PalDmaTerminate
          231   4102: ..\..\host\src\pal\no_os\cc_pal_interrupt_ctrl.c
          232   4151: i.CC_PalWaitInterrupt
          233   4173: ..\..\host\src\pal\no_os\cc_pal_memmap.c
          234   4214: i.CC_PalMemMap
          235   4229: i.CC_PalMemUnMap
          236   4246: ..\..\host\src\pal\cc_pal_trng.c
          237   4279: i.CC_PalTrngParamGet
          238   4300: am_hal_otp.c
          239   4313: am_hal_pin.c
          240   4326: am_hal_queue.c
          241   4341: ..\..\mbedtls\library\sha512.c
          242   4372: i.mbedtls_internal_sha512_process
          243   4406: i.mbedtls_sha512_finish_ret
          244   4434: i.mbedtls_sha512_free
          245   4456: i.mbedtls_sha512_init
          246   4478: i.mbedtls_sha512_ret
          247   4499: i.mbedtls_sha512_starts_ret
          248   4527: i.mbedtls_sha512_update_ret
          249   4555: K
          250   4557: sha512_test_buf
          251   4573: sha512_test_buflen
          252   4592: sha512_test_sum
          253   4608: ..\..\codesafe\src\crypto_api\cc3x_sym\driver\aes_driver.c
          254   4667: i.InitAes
          255   4677: InitAes
          256   4685: i.LoadAesKey
          257   4698: LoadAesKey
          258   4709: i.LoadIVState
          259   4723: LoadIVState
          260   4735: i.ProcessAesDrv
          261   4751: i.StoreIVState
          262   4766: StoreIVState
          263   4779: ..\..\codesafe\src\crypto_api\cc3x_sym\driver\driver_common.c
          264   4841: i.SetDataBuffersInfo
          265   4862: ..\..\codesafe\src\mbedtls_api\trng_api.c
          266   4904: i.mbedtls_hardware_poll
          267   4928: ..\..\codesafe\src\crypto_api\common\cc_common_conv_endian.c
          268   4989: ..\..\codesafe\src\crypto_api\common\cc_common_math.c
          269   5043: ..\..\codesafe\src\crypto_api\rnd_dma\llf_rnd.c
          270   5091: i.LLF_RND_GetFastestRosc
          271   5116: i.LLF_RND_GetRoscSampleCnt
          272   5143: i.LLF_RND_TurnOffTrng
          273   5165: i.LLF_RND_WaitRngInterrupt
          274   5192: ..\..\host\src\pal\no_os\cc_pal_buff_attr.c
          275   5236: i.CC_PalDataBufferAttrGet
          276   5262: ..\..\codesafe\src\mbedtls_api\mbedtls_common.c
          277   5310: i.mbedtls_zeroize_internal
          278   5337: dc.s
          279   5342: ../clib/string.c
          280   5359: ../clib/memcpset.s
          281   5378: ../clib/time.c
          282   5393: ../clib/heapaux.c
          283   5411: ../clib/angel/startup.s
          284   5435: !!!main
          285   5443: ../clib/angel/handlers.s
          286   5468: !!handler_copy
          287   5483: ../fplib/d2f.s
          288   5498: x$fpl$d2f
          289   5508: ../clib/angel/kernel.s
          290   5531: .ARM.Collect$$rtentry$$00000000
          291   5563: ../fplib/dnaninf.s
          292   5582: x$fpl$dnaninf
          293   5596: ../fplib/fretinf.s
          294   5615: x$fpl$fretinf
          295   5629: ../fplib/usenofp.s
          296   5648: x$fpl$usenofp
          297   5662: .ARM.Collect$$rtentry$$00000002
          298   5694: .ARM.Collect$$rtentry$$00000009
          299   5726: .ARM.Collect$$rtentry$$0000000A
          300   5758: .ARM.Collect$$rtentry$$0000000C
          301   5790: .ARM.Collect$$rtentry$$0000000D
          302   5822: .ARM.Collect$$rtentry$$00000004
          303   5854: ../clib/angel/sys.s
          304   5874: ../clib/stdlib.c
          305   5891: ../clib/angel/boardlib.s
          306   5916: ../clib/libinit.s
          307   5934: .ARM.Collect$$libinit$$00000000
          308   5966: .ARM.Collect$$rtexit$$00000000
          309   5997: .ARM.Collect$$libinit$$00000001
          310   6029: .ARM.Collect$$libinit$$00000004
          311   6061: .ARM.Collect$$libinit$$0000000A
          312   6093: .ARM.Collect$$libinit$$0000000C
          313   6125: .ARM.Collect$$libinit$$0000000E
          314   6157: .ARM.Collect$$libinit$$00000011
          315   6189: .ARM.Collect$$libinit$$00000013
          316   6221: .ARM.Collect$$libinit$$00000015
          317   6253: .ARM.Collect$$libinit$$00000017
          318   6285: .ARM.Collect$$libinit$$00000019
          319   6317: .ARM.Collect$$libinit$$0000001B
          320   6349: .ARM.Collect$$libinit$$0000001D
          321   6381: .ARM.Collect$$libinit$$0000001F
          322   6413: .ARM.Collect$$libinit$$00000021
          323   6445: .ARM.Collect$$libinit$$00000023
          324   6477: .ARM.Collect$$libinit$$00000025
          325   6509: .ARM.Collect$$libinit$$0000002C
          326   6541: .ARM.Collect$$libinit$$0000002E
          327   6573: .ARM.Collect$$libinit$$00000030
          328   6605: .ARM.Collect$$libinit$$00000032
          329   6637: .ARM.Collect$$libinit$$00000033
          330   6669: .ARM.Collect$$rtexit$$00000002
          331   6700: .ARM.Collect$$rtexit$$00000003
          332   6731: .ARM.Collect$$rtexit$$00000004
          333   6762: ../clib/armsys.c
          334   6779: ../fplib/fpinit.s
          335   6797: x$fpl$fpinit
          336   6810: ../clib/angel/sysapp.c
          337   6833: .ARM.Collect$$libshutdown$$00000000
          338   6869: ../clib/heapalloc.c
          339   6889: ../clib/signal.c
          340   6906: .ARM.Collect$$libshutdown$$00000002
          341   6942: .ARM.Collect$$libshutdown$$00000004
          342   6978: .ARM.Collect$$libshutdown$$00000007
          343   7014: .ARM.Collect$$libshutdown$$0000000A
          344   7050: .ARM.Collect$$libshutdown$$0000000C
          345   7086: .ARM.Collect$$libshutdown$$0000000F
          346   7122: .ARM.Collect$$libshutdown$$00000010
          347   7158: ../clib/angel/rt.s
          348   7177: ../clib/signal.s
          349   7194: ../clib/angel/scatter.s
          350   7218: !!!scatter
          351   7229: !!handler_zi
          352   7242: BuildAttributes$$THM_ISAv4$E$P$D$K$B$S$7EM$VFPi3$EXTD16$VFPS$VFMA$PE$A:L22UL41UL21$X:L11$S22US41US21$IEEE1$IW$~IW$USESV6$~STKCKD$USESV7$~SHL$OSPACE$ROPI$EBA8$UX$STANDARDLIB$REQ8$PRES8$EABIv2
          353   7433: __Vectors
          354   7443: __Patchable
          355   7455: Reset_Handler
          356   7469: NMI_Handler
          357   7481: MemManage_Handler
          358   7499: BusFault_Handler
          359   7516: UsageFault_Handler
          360   7535: SVC_Handler
          361   7547: DebugMon_Handler
          362   7564: PendSV_Handler
          363   7579: SysTick_Handler
          364   7595: am_adc_isr
          365   7606: am_audadc0_isr
          366   7621: am_brownout_isr
          367   7637: am_cachecpu_isr
          368   7653: am_clkgen_isr
          369   7667: am_ctimer_isr
          370   7681: am_disp_isr
          371   7693: am_dsi_isr
          372   7704: am_dspi2s0_isr
          373   7719: am_dspi2s1_isr
          374   7734: am_dspi2s2_isr
          375   7749: am_dspi2s3_isr
          376   7764: am_gpio0_001f_isr
          377   7782: am_gpio0_203f_isr
          378   7800: am_gpio0_405f_isr
          379   7818: am_gpio0_607f_isr
          380   7836: am_gpio1_001f_isr
          381   7854: am_gpio1_203f_isr
          382   7872: am_gpio1_405f_isr
          383   7890: am_gpio1_607f_isr
          384   7908: am_gpu_isr
          385   7919: am_iomaster0_isr
          386   7936: am_iomaster1_isr
          387   7953: am_iomaster2_isr
          388   7970: am_iomaster3_isr
          389   7987: am_iomaster4_isr
          390   8004: am_iomaster5_isr
          391   8021: am_iomaster6_isr
          392   8038: am_iomaster7_isr
          393   8055: am_ioslave_acc_isr
          394   8074: am_ioslave_ios_isr
          395   8093: am_mspi0_isr
          396   8106: am_mspi1_isr
          397   8119: am_mspi2_isr
          398   8132: am_pdm0_isr
          399   8144: am_pdm1_isr
          400   8156: am_pdm2_isr
          401   8168: am_pdm3_isr
          402   8180: am_rtc_isr
          403   8191: am_sdio_isr
          404   8203: am_stimer_cmpr0_isr
          405   8223: am_stimer_cmpr1_isr
          406   8243: am_stimer_cmpr2_isr
          407   8263: am_stimer_cmpr3_isr
          408   8283: am_stimer_cmpr4_isr
          409   8303: am_stimer_cmpr5_isr
          410   8323: am_stimer_cmpr6_isr
          411   8343: am_stimer_cmpr7_isr
          412   8363: am_stimerof_isr
          413   8379: am_timer00_isr
          414   8394: am_timer01_isr
          415   8409: am_timer02_isr
          416   8424: am_timer03_isr
          417   8439: am_timer04_isr
          418   8454: am_timer05_isr
          419   8469: am_timer06_isr
          420   8484: am_timer07_isr
          421   8499: am_timer08_isr
          422   8514: am_timer09_isr
          423   8529: am_timer10_isr
          424   8544: am_timer11_isr
          425   8559: am_timer12_isr
          426   8574: am_timer13_isr
          427   8589: am_timer14_isr
          428   8604: am_timer15_isr
          429   8619: am_uart1_isr
          430   8632: am_uart2_isr
          431   8645: am_uart3_isr
          432   8658: am_uart_isr
          433   8670: am_usb_isr
          434   8681: am_vcomp_isr
          435   8694: am_watchdog_isr
          436   8710: __main
          437   8717: __scatterload
          438   8731: __scatterload_rt2
          439   8749: __scatterload_rt2_thumb_only
          440   8778: __scatterload_null
          441   8797: __scatterload_copy
          442   8816: __scatterload_zeroinit
          443   8839: __rt_lib_init
          444   8853: __rt_lib_init_fp_1
          445   8872: __rt_lib_init_alloca_1
          446   8895: __rt_lib_init_argv_1
          447   8916: __rt_lib_init_atexit_1
          448   8939: __rt_lib_init_clock_1
          449   8961: __rt_lib_init_cpp_1
          450   8981: __rt_lib_init_exceptions_1
          451   9008: __rt_lib_init_fp_trap_1
          452   9032: __rt_lib_init_getenv_1
          453   9055: __rt_lib_init_heap_1
          454   9076: __rt_lib_init_lc_collate_1
          455   9103: __rt_lib_init_lc_ctype_1
          456   9128: __rt_lib_init_lc_monetary_1
          457   9156: __rt_lib_init_lc_numeric_1
          458   9183: __rt_lib_init_lc_time_1
          459   9207: __rt_lib_init_preinit_1
          460   9231: __rt_lib_init_rand_1
          461   9252: __rt_lib_init_return
          462   9273: __rt_lib_init_signal_1
          463   9296: __rt_lib_init_stdio_1
          464   9318: __rt_lib_init_user_alloc_1
          465   9345: __rt_lib_shutdown
          466   9363: __rt_lib_shutdown_cpp_1
          467   9387: __rt_lib_shutdown_fp_trap_1
          468   9415: __rt_lib_shutdown_heap_1
          469   9440: __rt_lib_shutdown_return
          470   9465: __rt_lib_shutdown_signal_1
          471   9492: __rt_lib_shutdown_stdio_1
          472   9518: __rt_lib_shutdown_user_alloc_1
          473   9549: __rt_entry
          474   9560: __rt_entry_presh_1
          475   9579: __rt_entry_sh
          476   9593: __rt_entry_li
          477   9607: __rt_entry_postsh_1
          478   9627: __rt_entry_main
          479   9643: __rt_entry_postli_1
          480   9663: __rt_exit
          481   9673: __rt_exit_ls
          482   9686: __rt_exit_prels_1
          483   9704: __rt_exit_exit
          484   9719: __user_initial_stackheap
          485   9744: memcmp
          486   9751: __aeabi_memcpy
          487   9766: __rt_memcpy
          488   9778: _memcpy_lastbytes
          489   9796: __aeabi_memmove
          490   9812: __rt_memmove
          491   9825: __memmove_lastfew
          492   9843: memmove
          493   9851: __aeabi_memcpy4
          494   9867: __aeabi_memcpy8
          495   9883: __rt_memcpy_w
          496   9897: _memcpy_lastbytes_aligned
          497   9923: memset
          498   9930: __aeabi_memset
          499   9945: __aeabi_memclr
          500   9960: __rt_memclr
          501   9972: _memset
          502   9980: __aeabi_memclr4
          503   9996: __aeabi_memclr8
          504  10012: __rt_memclr_w
          505  10026: _memset_w
          506  10036: __use_two_region_memory
          507  10060: __rt_heap_escrow$2region
          508  10085: __rt_heap_expand$2region
          509  10110: __aeabi_memmove4
          510  10127: __aeabi_memmove8
          511  10144: __rt_memmove_w
          512  10159: __memmove_aligned
          513  10177: __memmove_lastfew_aligned
          514  10203: __user_setup_stackheap
          515  10226: exit
          516  10231: __user_libspace
          517  10247: __user_perproc_libspace
          518  10271: __user_perthread_libspace
          519  10297: _sys_exit
          520  10307: __I$use$semihosting
          521  10327: __use_no_semihosting_swi
          522  10352: __semihosting_library_function
          523  10383: HardFault_Handler
          524  10401: am_bsp_buffered_uart_printf_enable
          525  10436: am_bsp_debug_printf_enable
          526  10463: am_bsp_itm_printf_enable
          527  10488: am_bsp_low_power_init
          528  10510: am_bsp_uart_printf_enable
          529  10536: am_bsp_uart_string_print
          530  10561: am_hal_daxi_config
          531  10580: am_hal_daxi_control
          532  10600: am_hal_dcu_get
          533  10615: am_hal_dcu_update
          534  10633: am_hal_delay_us
          535  10649: am_hal_delay_us_status_change
          536  10679: am_hal_delay_us_status_check
          537  10708: am_hal_fault_status_get
          538  10732: am_hal_gpio_pinconfig
          539  10754: am_hal_interrupt_master_disable
          540  10786: am_hal_interrupt_master_set
          541  10814: am_hal_itm_enable
          542  10832: am_hal_itm_print
          543  10849: am_hal_mram_info_read
          544  10871: am_hal_otp_read_word
          545  10892: am_hal_pwrctrl_control
          546  10915: am_hal_pwrctrl_low_power_init
          547  10945: am_hal_pwrctrl_mcu_memory_config
          548  10978: am_hal_pwrctrl_mcu_mode_select
          549  11009: am_hal_pwrctrl_mcu_mode_status
          550  11040: am_hal_pwrctrl_periph_disable
          551  11070: am_hal_pwrctrl_periph_enable
          552  11099: am_hal_pwrctrl_sram_config
          553  11126: am_hal_queue_init
          554  11144: am_hal_queue_item_add
          555  11166: am_hal_queue_item_get
          556  11188: am_hal_rtc_osc_disable
          557  11211: am_hal_sysctrl_sleep
          558  11232: am_hal_tpiu_enable
          559  11251: am_hal_uart_buffer_configure
          560  11280: am_hal_uart_configure
          561  11302: am_hal_uart_initialize
          562  11325: am_hal_uart_power_control
          563  11351: am_hal_uart_transfer
          564  11372: am_util_faultisr_collect_data
          565  11402: am_util_stdio_printf
          566  11423: am_util_stdio_printf_init
          567  11449: am_util_stdio_terminal_clear
          568  11478: am_util_stdio_vsprintf
          569  11501: am_valid_sp
          570  11513: buck_ldo_override_init
          571  11536: buck_ldo_update_override
          572  11561: crypto_boost_trims
          573  11580: getStackedReg
          574  11594: main
          575  11599: read_transaction_save
          576  11621: write_transaction_save
          577  11644: CC_HalClearInterruptBit
          578  11668: CC_HalInit
          579  11679: CC_HalMaskInterrupt
          580  11699: CC_HalTerminate
          581  11715: CC_HalWaitInterrupt
          582  11735: CC_HalWaitInterruptRND
          583  11758: CC_LibInit
          584  11769: CC_PalAbort
          585  11781: CC_PalDataBufferAttrGet
          586  11805: CC_PalDmaInit
          587  11819: CC_PalDmaTerminate
          588  11838: CC_PalInit
          589  11849: CC_PalMemCmpPlat
          590  11866: CC_PalMemCopyPlat
          591  11884: CC_PalMemMap
          592  11897: CC_PalMemSetPlat
          593  11914: CC_PalMemSetZeroPlat
          594  11935: CC_PalMemUnMap
          595  11950: CC_PalMutexLock
          596  11966: CC_PalMutexUnlock
          597  11984: CC_PalPowerSaveModeInit
          598  12008: CC_PalPowerSaveModeSelect
          599  12034: CC_PalTerminate
          600  12050: CC_PalTrngParamGet
          601  12069: CC_PalWaitInterrupt
          602  12089: CC_RndSetGenerateVectorFunc
          603  12117: LLF_RND_GetFastestRosc
          604  12140: LLF_RND_GetRoscSampleCnt
          605  12165: LLF_RND_GetTrngSource
          606  12187: LLF_RND_RunTrngStartupTest
          607  12214: LLF_RND_StartTrngHW
          608  12234: LLF_RND_TurnOffTrng
          609  12254: LLF_RND_WaitRngInterrupt
          610  12279: ProcessAesDrv
          611  12293: RNG_PLAT_SetUserRngParameters
          612  12323: SetDataBuffersInfo
          613  12342: mbedtls_aes_crypt_ecb
          614  12364: mbedtls_aes_free
          615  12381: mbedtls_aes_init
          616  12398: mbedtls_aes_setkey_enc
          617  12421: mbedtls_calloc
          618  12436: mbedtls_ctr_drbg_init
          619  12458: mbedtls_ctr_drbg_random
          620  12482: mbedtls_ctr_drbg_random_with_add
          621  12515: mbedtls_ctr_drbg_reseed
          622  12539: mbedtls_ctr_drbg_seed
          623  12561: mbedtls_ctr_drbg_seed_entropy_len
          624  12595: mbedtls_entropy_add_source
          625  12622: mbedtls_entropy_func
          626  12643: mbedtls_entropy_init
          627  12664: mbedtls_free
          628  12677: mbedtls_hardware_poll
          629  12699: mbedtls_internal_sha512_process
          630  12731: mbedtls_memory_buffer_alloc_init
          631  12764: mbedtls_mng_lcsGet
          632  12783: mbedtls_mng_otpWordRead
          633  12807: mbedtls_platform_set_calloc_free
          634  12840: mbedtls_platform_zeroize
          635  12865: mbedtls_sha512_finish_ret
          636  12891: mbedtls_sha512_free
          637  12911: mbedtls_sha512_init
          638  12931: mbedtls_sha512_ret
          639  12950: mbedtls_sha512_starts_ret
          640  12976: mbedtls_sha512_update_ret
          641  13002: mbedtls_zeroize_internal
          642  13027: __aeabi_d2f
          643  13039: _d2f
          644  13044: __fpl_dnaninf
          645  13058: _fp_init
          646  13067: __fplib_config_fpu_vfp
          647  13090: __fplib_config_pureend_doubles
          648  13121: __fpl_fretinf
          649  13135: __I$use$fp
          650  13146: am_hal_daxi_defaults
          651  13167: am_hal_pwrctrl_peripheral_control
          652  13201: g_DefaultMcuMemCfg
          653  13220: g_DefaultSRAMCfg
          654  13237: g_am_hal_bootrom_helper
          655  13261: sGlobalAccess
          656  13275: ui32DSP0Allowed
          657  13291: ui32DSP1Allowed
          658  13307: ui32MCUAllowed
          659  13322: ui32SharedAccess
          660  13339: Region$$Table$$Base
          661  13359: Region$$Table$$Limit
          662  13380: CCSymCryptoMutex
          663  13397: pCCRndCryptoMutex
          664  13415: gCcRegBase
          665  13426: mbedtls_snprintf
          666  13443: mbedtls_exit
          667  13456: gDaxiConfig
          668  13468: gDcuDisable
          669  13480: gDcuEnable
          670  13491: g_AM_BSP_GPIO_COM_UART_RX
          671  13517: g_AM_BSP_GPIO_COM_UART_TX
          672  13543: g_AM_BSP_GPIO_ITM_SWO
          673  13565: g_eCurrPwrMode
          674  13580: g_ui32TrimVer
          675  13594: g_ui32origSimobuckVDDStrim
          676  13621: gpDcuEnable
          677  13633: gpDcuLock
          678  13643: __libspace_start
          679  13660: __temporary_stack_top$libspace
          680  13691: MbedtlsEntropy
          681  13706: RndContext
          682  13717: RndState
          683  13726: RndWorkBuff
          684  13738: gFaultStack
          685  13750: gStartOff
          686  13760: g_am_hal_uart_states
          687  13781: g_pfnCharPrint
          688  13796: g_ui32MbedTLSHeap
          689  13814: pui8RandomBytes
          690  13830: psGlobalAccessPtr
          691  13848: ui32MCUClaimed
          692  13863: ui32DSP0Claimed
          693  13879: ui32DSP1Claimed
          694  13895: 


** Section #16 '.note' (SHT_NOTE)
    Size   : 32 bytes (alignment 4)


** Section #17 '.comment' (SHT_PROGBITS)
    Size   : 72260 bytes


** Section #18 '.shstrtab' (SHT_STRTAB)
    Size   : 192 bytes

            #  Offset String
        ====================================

            1      1: MCU_MRAM
            2     10: MCU_TCM
            3     18: SHARED_SRAM
            4     30: .debug_abbrev
            5     44: .debug_frame
            6     57: .debug_info
            7     69: .debug_line
            8     81: .debug_loc
            9     92: .debug_macinfo
           10    107: .debug_pubnames
           11    123: .debug_str
           12    134: .debug_ranges
           13    148: .symtab
           14    156: .strtab
           15    164: .note
           16    170: .comment
           17    179: .shstrtab
           18    189: 
           19    190: 
           20    191: 


