
========================================================================

** ELF Header Information

    File Name: bin\ios_fifo_host.axf

    Machine class: ELFCLASS32 (32-bit)
    Data encoding: ELFDATA2LSB (Little endian)
    Header version: EV_CURRENT (Current version)
    Operating System ABI: none
    ABI Version: 0
    File Type: ET_EXEC (Executable) (2)
    Machine: EM_ARM (ARM)

    Image Entry point: 0x00018235
    Flags: EF_ARM_HASENTRY + EF_ARM_ABI_FLOAT_HARD (0x05000402)

    ARM ELF revision: 5 (ABI version 2)

    Conforms to Hard float procedure-call standard

    Built with
    Component: ARM Compiler 5.06 update 6 (build 750) Tool: armasm [4d35ec]
    Component: ARM Compiler 5.06 update 6 (build 750) Tool: armlink [4d35ed]

    Header size: 52 bytes (0x34)
    Program header entry size: 32 bytes (0x20)
    Section header entry size: 40 bytes (0x28)

    Program header entries: 1
    Section header entries: 17

    Program header offset: 1818556 (0x001bbfbc)
    Section header offset: 1818588 (0x001bbfdc)

    Section header string table index: 16

========================================================================

** Program header #0 (PT_LOAD) [PF_X + PF_W + PF_R + PF_ARM_ENTRY]
    Size : 40816 bytes (14064 bytes in file)
    Virtual address: 0x00018000 (Alignment 8)


========================================================================

** Section #1 'MCU_MRAM' (SHT_PROGBITS) [SHF_ALLOC + SHF_EXECINSTR]
    Size   : 13896 bytes (alignment 4)
    Address: 0x00018000

    $d
    RESET
    __Vectors
        0x00018000:    100068e8    .h..    DCD    268462312
        0x00018004:    00018201    ....    DCD    98817
        0x00018008:    0001821f    ....    DCD    98847
        0x0001800c:    0001821d    ....    DCD    98845
        0x00018010:    00018221    !...    DCD    98849
        0x00018014:    00018223    #...    DCD    98851
        0x00018018:    00018225    %...    DCD    98853
        0x0001801c:    00000000    ....    DCD    0
        0x00018020:    00000000    ....    DCD    0
        0x00018024:    00000000    ....    DCD    0
        0x00018028:    00000000    ....    DCD    0
        0x0001802c:    00018227    '...    DCD    98855
        0x00018030:    00018229    )...    DCD    98857
        0x00018034:    00000000    ....    DCD    0
        0x00018038:    0001822b    +...    DCD    98859
        0x0001803c:    0001822d    -...    DCD    98861
        0x00018040:    0001822f    /...    DCD    98863
        0x00018044:    0001822f    /...    DCD    98863
        0x00018048:    0001822f    /...    DCD    98863
        0x0001804c:    0001822f    /...    DCD    98863
        0x00018050:    0001822f    /...    DCD    98863
        0x00018054:    0001822f    /...    DCD    98863
        0x00018058:    0001822f    /...    DCD    98863
        0x0001805c:    0001822f    /...    DCD    98863
        0x00018060:    0001822f    /...    DCD    98863
        0x00018064:    0001822f    /...    DCD    98863
        0x00018068:    0001822f    /...    DCD    98863
        0x0001806c:    0001822f    /...    DCD    98863
        0x00018070:    0001822f    /...    DCD    98863
        0x00018074:    0001822f    /...    DCD    98863
        0x00018078:    0001822f    /...    DCD    98863
        0x0001807c:    0001822f    /...    DCD    98863
        0x00018080:    0001822f    /...    DCD    98863
        0x00018084:    0001822f    /...    DCD    98863
        0x00018088:    0001822f    /...    DCD    98863
        0x0001808c:    0001822f    /...    DCD    98863
        0x00018090:    0001822f    /...    DCD    98863
        0x00018094:    0001822f    /...    DCD    98863
        0x00018098:    0001822f    /...    DCD    98863
        0x0001809c:    0001822f    /...    DCD    98863
        0x000180a0:    0001822f    /...    DCD    98863
        0x000180a4:    0001822f    /...    DCD    98863
        0x000180a8:    0001822f    /...    DCD    98863
        0x000180ac:    0001822f    /...    DCD    98863
        0x000180b0:    0001822f    /...    DCD    98863
        0x000180b4:    0001822f    /...    DCD    98863
        0x000180b8:    0001822f    /...    DCD    98863
        0x000180bc:    0001822f    /...    DCD    98863
        0x000180c0:    0001822f    /...    DCD    98863
        0x000180c4:    0001822f    /...    DCD    98863
        0x000180c8:    0001822f    /...    DCD    98863
        0x000180cc:    0001822f    /...    DCD    98863
        0x000180d0:    0001822f    /...    DCD    98863
        0x000180d4:    0001822f    /...    DCD    98863
        0x000180d8:    0001822f    /...    DCD    98863
        0x000180dc:    0001822f    /...    DCD    98863
        0x000180e0:    0001822f    /...    DCD    98863
        0x000180e4:    0001822f    /...    DCD    98863
        0x000180e8:    0001822f    /...    DCD    98863
        0x000180ec:    0001822f    /...    DCD    98863
        0x000180f0:    0001822f    /...    DCD    98863
        0x000180f4:    0001822f    /...    DCD    98863
        0x000180f8:    0001822f    /...    DCD    98863
        0x000180fc:    0001822f    /...    DCD    98863
        0x00018100:    0001822f    /...    DCD    98863
        0x00018104:    0001822f    /...    DCD    98863
        0x00018108:    0001822f    /...    DCD    98863
        0x0001810c:    0001822f    /...    DCD    98863
        0x00018110:    0001822f    /...    DCD    98863
        0x00018114:    0001822f    /...    DCD    98863
        0x00018118:    0001822f    /...    DCD    98863
        0x0001811c:    0001822f    /...    DCD    98863
        0x00018120:    0001884d    M...    DCD    100429
        0x00018124:    0001822f    /...    DCD    98863
        0x00018128:    0001822f    /...    DCD    98863
        0x0001812c:    0001822f    /...    DCD    98863
        0x00018130:    0001822f    /...    DCD    98863
        0x00018134:    0001822f    /...    DCD    98863
        0x00018138:    0001822f    /...    DCD    98863
        0x0001813c:    0001822f    /...    DCD    98863
        0x00018140:    0001822f    /...    DCD    98863
        0x00018144:    0001822f    /...    DCD    98863
        0x00018148:    0001822f    /...    DCD    98863
        0x0001814c:    0001822f    /...    DCD    98863
        0x00018150:    0001822f    /...    DCD    98863
        0x00018154:    0001822f    /...    DCD    98863
        0x00018158:    0001822f    /...    DCD    98863
        0x0001815c:    0001822f    /...    DCD    98863
        0x00018160:    0001822f    /...    DCD    98863
        0x00018164:    0001822f    /...    DCD    98863
        0x00018168:    0001822f    /...    DCD    98863
        0x0001816c:    0001822f    /...    DCD    98863
        0x00018170:    0001822f    /...    DCD    98863
        0x00018174:    0001822f    /...    DCD    98863
        0x00018178:    0001822f    /...    DCD    98863
        0x0001817c:    0001822f    /...    DCD    98863
        0x00018180:    0001822f    /...    DCD    98863
        0x00018184:    0001822f    /...    DCD    98863
        0x00018188:    0001822f    /...    DCD    98863
        0x0001818c:    0001822f    /...    DCD    98863
    __Patchable
        0x00018190:    00000000    ....    DCD    0
        0x00018194:    00000000    ....    DCD    0
        0x00018198:    00000000    ....    DCD    0
        0x0001819c:    00000000    ....    DCD    0
        0x000181a0:    00000000    ....    DCD    0
        0x000181a4:    00000000    ....    DCD    0
        0x000181a8:    00000000    ....    DCD    0
        0x000181ac:    00000000    ....    DCD    0
        0x000181b0:    00000000    ....    DCD    0
        0x000181b4:    00000000    ....    DCD    0
        0x000181b8:    00000000    ....    DCD    0
        0x000181bc:    00000000    ....    DCD    0
        0x000181c0:    00000000    ....    DCD    0
        0x000181c4:    00000000    ....    DCD    0
        0x000181c8:    00000000    ....    DCD    0
        0x000181cc:    00000000    ....    DCD    0
        0x000181d0:    00000000    ....    DCD    0
        0x000181d4:    00000000    ....    DCD    0
        0x000181d8:    00000000    ....    DCD    0
        0x000181dc:    00000000    ....    DCD    0
        0x000181e0:    00000000    ....    DCD    0
        0x000181e4:    00000000    ....    DCD    0
        0x000181e8:    00000000    ....    DCD    0
        0x000181ec:    00000000    ....    DCD    0
        0x000181f0:    00000000    ....    DCD    0
        0x000181f4:    00000000    ....    DCD    0
        0x000181f8:    00000000    ....    DCD    0
        0x000181fc:    00000000    ....    DCD    0
    $t
    $v0
    Reset_Handler
        0x00018200:    f64e5088    N..P    MOV      r0,#0xed88
        0x00018204:    f2ce0000    ....    MOVT     r0,#0xe000
        0x00018208:    6801        .h      LDR      r1,[r0,#0]
        0x0001820a:    f4410170    A.p.    ORR      r1,r1,#0xf00000
        0x0001820e:    6001        .`      STR      r1,[r0,#0]
        0x00018210:    f3bf8f4f    ..O.    DSB      
        0x00018214:    f3bf8f6f    ..o.    ISB      
        0x00018218:    4805        .H      LDR      r0,[pc,#20] ; [0x18230] = 0x18235
        0x0001821a:    4700        .G      BX       r0
    HardFault_Handler
        0x0001821c:    e7fe        ..      B        HardFault_Handler ; 0x1821c
    NMI_Handler
        0x0001821e:    e7fe        ..      B        NMI_Handler ; 0x1821e
    MemManage_Handler
        0x00018220:    e7fe        ..      B        MemManage_Handler ; 0x18220
    BusFault_Handler
        0x00018222:    e7fe        ..      B        BusFault_Handler ; 0x18222
    UsageFault_Handler
        0x00018224:    e7fe        ..      B        UsageFault_Handler ; 0x18224
    SVC_Handler
        0x00018226:    e7fe        ..      B        SVC_Handler ; 0x18226
    DebugMon_Handler
        0x00018228:    e7fe        ..      B        DebugMon_Handler ; 0x18228
    PendSV_Handler
        0x0001822a:    e7fe        ..      B        PendSV_Handler ; 0x1822a
    SysTick_Handler
        0x0001822c:    e7fe        ..      B        SysTick_Handler ; 0x1822c
    am_cryptosec_isr
    am_default_isr
    am_adc_isr
    am_audadc0_isr
    am_brownout_isr
    am_cachecpu_isr
    am_clkgen_isr
    am_ctimer_isr
    am_disp_isr
    am_dsi_isr
    am_dspi2s0_isr
    am_dspi2s1_isr
    am_dspi2s2_isr
    am_dspi2s3_isr
    am_gpio0_203f_isr
    am_gpio0_405f_isr
    am_gpio0_607f_isr
    am_gpio1_001f_isr
    am_gpio1_203f_isr
    am_gpio1_405f_isr
    am_gpio1_607f_isr
    am_gpu_isr
    am_iomaster0_isr
    am_iomaster1_isr
    am_iomaster2_isr
    am_iomaster3_isr
    am_iomaster4_isr
    am_iomaster5_isr
    am_iomaster6_isr
    am_iomaster7_isr
    am_ioslave_acc_isr
    am_ioslave_ios_isr
    am_mspi0_isr
    am_mspi1_isr
    am_mspi2_isr
    am_pdm0_isr
    am_pdm1_isr
    am_pdm2_isr
    am_pdm3_isr
    am_rtc_isr
    am_sdio_isr
    am_stimer_cmpr0_isr
    am_stimer_cmpr1_isr
    am_stimer_cmpr2_isr
    am_stimer_cmpr3_isr
    am_stimer_cmpr4_isr
    am_stimer_cmpr5_isr
    am_stimer_cmpr6_isr
    am_stimer_cmpr7_isr
    am_stimerof_isr
    am_timer00_isr
    am_timer01_isr
    am_timer02_isr
    am_timer03_isr
    am_timer04_isr
    am_timer05_isr
    am_timer06_isr
    am_timer07_isr
    am_timer08_isr
    am_timer09_isr
    am_timer10_isr
    am_timer11_isr
    am_timer12_isr
    am_timer13_isr
    am_timer14_isr
    am_timer15_isr
    am_uart1_isr
    am_uart2_isr
    am_uart3_isr
    am_uart_isr
    am_usb_isr
    am_vcomp_isr
    am_watchdog_isr
        0x0001822e:    e7fe        ..      B        am_cryptosec_isr ; 0x1822e
    $d
        0x00018230:    00018235    5...    DCD    98869
    $t
    !!!main
    __main
        0x00018234:    f000f802    ....    BL       __scatterload ; 0x1823c
        0x00018238:    f000f86a    ..j.    BL       __rt_entry ; 0x18310
    !!!scatter
    __scatterload
    __scatterload_rt2
    __scatterload_rt2_thumb_only
        0x0001823c:    a00a        ..      ADR      r0,{pc}+0x2c ; 0x18268
        0x0001823e:    e8900c00    ....    LDM      r0,{r10,r11}
        0x00018242:    4482        .D      ADD      r10,r10,r0
        0x00018244:    4483        .D      ADD      r11,r11,r0
        0x00018246:    f1aa0701    ....    SUB      r7,r10,#1
    __scatterload_null
        0x0001824a:    45da        .E      CMP      r10,r11
        0x0001824c:    d101        ..      BNE      0x18252 ; __scatterload_null + 8
        0x0001824e:    f000f85f    .._.    BL       __rt_entry ; 0x18310
        0x00018252:    f2af0e09    ....    ADR      lr,{pc}-7 ; 0x1824b
        0x00018256:    e8ba000f    ....    LDM      r10!,{r0-r3}
        0x0001825a:    f0130f01    ....    TST      r3,#1
        0x0001825e:    bf18        ..      IT       NE
        0x00018260:    1afb        ..      SUBNE    r3,r7,r3
        0x00018262:    f0430301    C...    ORR      r3,r3,#1
        0x00018266:    4718        .G      BX       r3
    $d
        0x00018268:    000033b0    .3..    DCD    13232
        0x0001826c:    000033e0    .3..    DCD    13280
    $t
    !!dczerorl2
    __decompress
    __decompress1
        0x00018270:    440a        .D      ADD      r2,r2,r1
        0x00018272:    f04f0c00    O...    MOV      r12,#0
        0x00018276:    f8103b01    ...;    LDRB     r3,[r0],#1
        0x0001827a:    f0130407    ....    ANDS     r4,r3,#7
        0x0001827e:    bf08        ..      IT       EQ
        0x00018280:    f8104b01    ...K    LDRBEQ   r4,[r0],#1
        0x00018284:    111d        ..      ASRS     r5,r3,#4
        0x00018286:    bf08        ..      IT       EQ
        0x00018288:    f8105b01    ...[    LDRBEQ   r5,[r0],#1
        0x0001828c:    1e64        d.      SUBS     r4,r4,#1
        0x0001828e:    d005        ..      BEQ      0x1829c ; __decompress + 44
        0x00018290:    f8106b01    ...k    LDRB     r6,[r0],#1
        0x00018294:    1e64        d.      SUBS     r4,r4,#1
        0x00018296:    f8016b01    ...k    STRB     r6,[r1],#1
        0x0001829a:    d1f9        ..      BNE      0x18290 ; __decompress + 32
        0x0001829c:    f0130f08    ....    TST      r3,#8
        0x000182a0:    bf1e        ..      ITTT     NE
        0x000182a2:    f8104b01    ...K    LDRBNE   r4,[r0],#1
        0x000182a6:    1cad        ..      ADDNE    r5,r5,#2
        0x000182a8:    1b0c        ..      SUBNE    r4,r1,r4
        0x000182aa:    d109        ..      BNE      0x182c0 ; __decompress + 80
        0x000182ac:    1e6d        m.      SUBS     r5,r5,#1
        0x000182ae:    bf58        X.      IT       PL
        0x000182b0:    f801cb01    ....    STRBPL   r12,[r1],#1
        0x000182b4:    d5fa        ..      BPL      0x182ac ; __decompress + 60
        0x000182b6:    e005        ..      B        0x182c4 ; __decompress + 84
        0x000182b8:    f8146b01    ...k    LDRB     r6,[r4],#1
        0x000182bc:    f8016b01    ...k    STRB     r6,[r1],#1
        0x000182c0:    1e6d        m.      SUBS     r5,r5,#1
        0x000182c2:    d5f9        ..      BPL      0x182b8 ; __decompress + 72
        0x000182c4:    4291        .B      CMP      r1,r2
        0x000182c6:    d3d6        ..      BCC      0x18276 ; __decompress + 6
        0x000182c8:    4770        pG      BX       lr
        0x000182ca:    0000        ..      MOVS     r0,r0
    !!handler_copy
    __scatterload_copy
        0x000182cc:    3a10        .:      SUBS     r2,r2,#0x10
        0x000182ce:    bf24        $.      ITT      CS
        0x000182d0:    c878        x.      LDMCS    r0!,{r3-r6}
        0x000182d2:    c178        x.      STMCS    r1!,{r3-r6}
        0x000182d4:    d8fa        ..      BHI      __scatterload_copy ; 0x182cc
        0x000182d6:    0752        R.      LSLS     r2,r2,#29
        0x000182d8:    bf24        $.      ITT      CS
        0x000182da:    c830        0.      LDMCS    r0!,{r4,r5}
        0x000182dc:    c130        0.      STMCS    r1!,{r4,r5}
        0x000182de:    bf44        D.      ITT      MI
        0x000182e0:    6804        .h      LDRMI    r4,[r0,#0]
        0x000182e2:    600c        .`      STRMI    r4,[r1,#0]
        0x000182e4:    4770        pG      BX       lr
        0x000182e6:    0000        ..      MOVS     r0,r0
    !!handler_zi
    __scatterload_zeroinit
        0x000182e8:    2300        .#      MOVS     r3,#0
        0x000182ea:    2400        .$      MOVS     r4,#0
        0x000182ec:    2500        .%      MOVS     r5,#0
        0x000182ee:    2600        .&      MOVS     r6,#0
        0x000182f0:    3a10        .:      SUBS     r2,r2,#0x10
        0x000182f2:    bf28        (.      IT       CS
        0x000182f4:    c178        x.      STMCS    r1!,{r3-r6}
        0x000182f6:    d8fb        ..      BHI      0x182f0 ; __scatterload_zeroinit + 8
        0x000182f8:    0752        R.      LSLS     r2,r2,#29
        0x000182fa:    bf28        (.      IT       CS
        0x000182fc:    c130        0.      STMCS    r1!,{r4,r5}
        0x000182fe:    bf48        H.      IT       MI
        0x00018300:    600b        .`      STRMI    r3,[r1,#0]
        0x00018302:    4770        pG      BX       lr
    .ARM.Collect$$libinit$$00000000
    __rt_lib_init
        0x00018304:    b51f        ..      PUSH     {r0-r4,lr}
    .ARM.Collect$$libinit$$00000001
    __rt_lib_init_fp_1
        0x00018306:    f002ff5e    ..^.    BL       _fp_init ; 0x1b1c6
    .ARM.Collect$$libinit$$00000004
    .ARM.Collect$$libinit$$0000000A
    .ARM.Collect$$libinit$$0000000C
    .ARM.Collect$$libinit$$0000000E
    .ARM.Collect$$libinit$$00000011
    .ARM.Collect$$libinit$$00000013
    .ARM.Collect$$libinit$$00000015
    .ARM.Collect$$libinit$$00000017
    .ARM.Collect$$libinit$$00000019
    .ARM.Collect$$libinit$$0000001B
    .ARM.Collect$$libinit$$0000001D
    .ARM.Collect$$libinit$$0000001F
    .ARM.Collect$$libinit$$00000021
    .ARM.Collect$$libinit$$00000023
    .ARM.Collect$$libinit$$00000025
    .ARM.Collect$$libinit$$0000002C
    .ARM.Collect$$libinit$$0000002E
    .ARM.Collect$$libinit$$00000030
    .ARM.Collect$$libinit$$00000032
    .ARM.Collect$$libinit$$00000033
    __rt_lib_init_alloca_1
    __rt_lib_init_argv_1
    __rt_lib_init_atexit_1
    __rt_lib_init_clock_1
    __rt_lib_init_cpp_1
    __rt_lib_init_exceptions_1
    __rt_lib_init_fp_trap_1
    __rt_lib_init_getenv_1
    __rt_lib_init_heap_1
    __rt_lib_init_lc_collate_1
    __rt_lib_init_lc_ctype_1
    __rt_lib_init_lc_monetary_1
    __rt_lib_init_lc_numeric_1
    __rt_lib_init_lc_time_1
    __rt_lib_init_preinit_1
    __rt_lib_init_rand_1
    __rt_lib_init_return
    __rt_lib_init_signal_1
    __rt_lib_init_stdio_1
    __rt_lib_init_user_alloc_1
        0x0001830a:    bd1f        ..      POP      {r0-r4,pc}
    .ARM.Collect$$libshutdown$$00000000
    __rt_lib_shutdown
        0x0001830c:    b510        ..      PUSH     {r4,lr}
    .ARM.Collect$$libshutdown$$00000002
    .ARM.Collect$$libshutdown$$00000004
    .ARM.Collect$$libshutdown$$00000007
    .ARM.Collect$$libshutdown$$0000000A
    .ARM.Collect$$libshutdown$$0000000C
    .ARM.Collect$$libshutdown$$0000000F
    .ARM.Collect$$libshutdown$$00000010
    __rt_lib_shutdown_cpp_1
    __rt_lib_shutdown_fp_trap_1
    __rt_lib_shutdown_heap_1
    __rt_lib_shutdown_return
    __rt_lib_shutdown_signal_1
    __rt_lib_shutdown_stdio_1
    __rt_lib_shutdown_user_alloc_1
        0x0001830e:    bd10        ..      POP      {r4,pc}
    .ARM.Collect$$rtentry$$00000000
    .ARM.Collect$$rtentry$$00000002
    .ARM.Collect$$rtentry$$00000004
    __rt_entry
    __rt_entry_presh_1
    __rt_entry_sh
        0x00018310:    f000f84f    ..O.    BL       __user_setup_stackheap ; 0x183b2
        0x00018314:    4611        .F      MOV      r1,r2
    .ARM.Collect$$rtentry$$00000009
    .ARM.Collect$$rtentry$$0000000A
    __rt_entry_li
    __rt_entry_postsh_1
        0x00018316:    f7fffff5    ....    BL       __rt_lib_init ; 0x18304
    .ARM.Collect$$rtentry$$0000000C
    .ARM.Collect$$rtentry$$0000000D
    __rt_entry_main
    __rt_entry_postli_1
        0x0001831a:    f002fc7b    ..{.    BL       main ; 0x1ac14
        0x0001831e:    f000f86d    ..m.    BL       exit ; 0x183fc
    .ARM.Collect$$rtexit$$00000000
    __rt_exit
        0x00018322:    b403        ..      PUSH     {r0,r1}
    .ARM.Collect$$rtexit$$00000002
    .ARM.Collect$$rtexit$$00000003
    __rt_exit_ls
    __rt_exit_prels_1
        0x00018324:    f7fffff2    ....    BL       __rt_lib_shutdown ; 0x1830c
    .ARM.Collect$$rtexit$$00000004
    __rt_exit_exit
        0x00018328:    bc03        ..      POP      {r0,r1}
        0x0001832a:    f000f875    ..u.    BL       _sys_exit ; 0x18418
        0x0001832e:    0000        ..      MOVS     r0,r0
    .emb_text
    $v0
    am_hal_interrupt_master_enable
        0x00018330:    f3ef8010    ....    MRS      r0,PRIMASK
        0x00018334:    b662        b.      CPSIE    i
        0x00018336:    4770        pG      BX       lr
    am_hal_interrupt_master_disable
        0x00018338:    f3ef8010    ....    MRS      r0,PRIMASK
        0x0001833c:    b672        r.      CPSID    i
        0x0001833e:    4770        pG      BX       lr
    am_hal_interrupt_master_set
        0x00018340:    f3808810    ....    MSR      PRIMASK,r0
        0x00018344:    4770        pG      BX       lr
        0x00018346:    0000        ..      MOVS     r0,r0
    .text
    $v0
    __user_initial_stackheap
        0x00018348:    4802        .H      LDR      r0,[pc,#8] ; [0x18354] = 0x100058e8
        0x0001834a:    4903        .I      LDR      r1,[pc,#12] ; [0x18358] = 0x100068e8
        0x0001834c:    4a01        .J      LDR      r2,[pc,#4] ; [0x18354] = 0x100058e8
        0x0001834e:    4b03        .K      LDR      r3,[pc,#12] ; [0x1835c] = 0x100058e8
        0x00018350:    4770        pG      BX       lr
    $d
        0x00018352:    0000        ..      DCW    0
        0x00018354:    100058e8    .X..    DCD    268458216
        0x00018358:    100068e8    .h..    DCD    268462312
        0x0001835c:    100058e8    .X..    DCD    268458216
    $t
    .text
    __aeabi_llsl
    _ll_shift_l
        0x00018360:    f1b20320    .. .    SUBS     r3,r2,#0x20
        0x00018364:    d50a        ..      BPL      0x1837c ; __aeabi_llsl + 28
        0x00018366:    f1c20320    .. .    RSB      r3,r2,#0x20
        0x0001836a:    fa01f102    ....    LSL      r1,r1,r2
        0x0001836e:    fa20f303     ...    LSR      r3,r0,r3
        0x00018372:    fa00f002    ....    LSL      r0,r0,r2
        0x00018376:    ea410103    A...    ORR      r1,r1,r3
        0x0001837a:    4770        pG      BX       lr
        0x0001837c:    fa00f103    ....    LSL      r1,r0,r3
        0x00018380:    f04f0000    O...    MOV      r0,#0
        0x00018384:    4770        pG      BX       lr
    .text
    __aeabi_llsr
    _ll_ushift_r
        0x00018386:    f1b20320    .. .    SUBS     r3,r2,#0x20
        0x0001838a:    d50a        ..      BPL      0x183a2 ; __aeabi_llsr + 28
        0x0001838c:    f1c20320    .. .    RSB      r3,r2,#0x20
        0x00018390:    fa20f002     ...    LSR      r0,r0,r2
        0x00018394:    fa01f303    ....    LSL      r3,r1,r3
        0x00018398:    fa21f102    !...    LSR      r1,r1,r2
        0x0001839c:    ea400003    @...    ORR      r0,r0,r3
        0x000183a0:    4770        pG      BX       lr
        0x000183a2:    fa21f003    !...    LSR      r0,r1,r3
        0x000183a6:    f04f0100    O...    MOV      r1,#0
        0x000183aa:    4770        pG      BX       lr
    .text
    __use_two_region_memory
        0x000183ac:    4770        pG      BX       lr
    __rt_heap_escrow$2region
        0x000183ae:    4770        pG      BX       lr
    __rt_heap_expand$2region
        0x000183b0:    4770        pG      BX       lr
    .text
    __user_setup_stackheap
        0x000183b2:    4675        uF      MOV      r5,lr
        0x000183b4:    f000f82c    ..,.    BL       __user_libspace ; 0x18410
        0x000183b8:    46ae        .F      MOV      lr,r5
        0x000183ba:    0005        ..      MOVS     r5,r0
        0x000183bc:    4669        iF      MOV      r1,sp
        0x000183be:    4653        SF      MOV      r3,r10
        0x000183c0:    f0200007     ...    BIC      r0,r0,#7
        0x000183c4:    4685        .F      MOV      sp,r0
        0x000183c6:    b018        ..      ADD      sp,sp,#0x60
        0x000183c8:    b520         .      PUSH     {r5,lr}
        0x000183ca:    f7ffffbd    ....    BL       __user_initial_stackheap ; 0x18348
        0x000183ce:    e8bd4020    .. @    POP      {r5,lr}
        0x000183d2:    f04f0600    O...    MOV      r6,#0
        0x000183d6:    f04f0700    O...    MOV      r7,#0
        0x000183da:    f04f0800    O...    MOV      r8,#0
        0x000183de:    f04f0b00    O...    MOV      r11,#0
        0x000183e2:    f0210107    !...    BIC      r1,r1,#7
        0x000183e6:    46ac        .F      MOV      r12,r5
        0x000183e8:    e8ac09c0    ....    STM      r12!,{r6-r8,r11}
        0x000183ec:    e8ac09c0    ....    STM      r12!,{r6-r8,r11}
        0x000183f0:    e8ac09c0    ....    STM      r12!,{r6-r8,r11}
        0x000183f4:    e8ac09c0    ....    STM      r12!,{r6-r8,r11}
        0x000183f8:    468d        .F      MOV      sp,r1
        0x000183fa:    4770        pG      BX       lr
    .text
    exit
        0x000183fc:    b510        ..      PUSH     {r4,lr}
        0x000183fe:    4604        .F      MOV      r4,r0
        0x00018400:    f3af8000    ....    NOP.W    
        0x00018404:    4620         F      MOV      r0,r4
        0x00018406:    e8bd4010    ...@    POP      {r4,lr}
        0x0001840a:    f7ffbf8a    ....    B.W      __rt_exit ; 0x18322
        0x0001840e:    0000        ..      MOVS     r0,r0
    .text
    __user_libspace
    __user_perproc_libspace
    __user_perthread_libspace
        0x00018410:    4800        .H      LDR      r0,[pc,#0] ; [0x18414] = 0x10005888
        0x00018412:    4770        pG      BX       lr
    $d
        0x00018414:    10005888    .X..    DCD    268458120
    $t
    .text
    _sys_exit
        0x00018418:    4901        .I      LDR      r1,[pc,#4] ; [0x18420] = 0x20026
        0x0001841a:    2018        .       MOVS     r0,#0x18
        0x0001841c:    beab        ..      BKPT     #0xab
        0x0001841e:    e7fe        ..      B        0x1841e ; _sys_exit + 6
    $d
        0x00018420:    00020026    &...    DCD    131110
    $t
    .text
    __I$use$semihosting
    __use_no_semihosting_swi
        0x00018424:    4770        pG      BX       lr
    i.__ARM_common_memcpy4_5
    .text
    __ARM_common_memcpy4_5
    __semihosting_library_function
        0x00018426:    680a        .h      LDR      r2,[r1,#0]
        0x00018428:    6002        .`      STR      r2,[r0,#0]
        0x0001842a:    790b        .y      LDRB     r3,[r1,#4]
        0x0001842c:    7103        .q      STRB     r3,[r0,#4]
        0x0001842e:    4770        pG      BX       lr
    i.am_bsp_iom_pins_enable
    am_bsp_iom_pins_enable
        0x00018430:    2808        .(      CMP      r0,#8
        0x00018432:    bf28        (.      IT       CS
        0x00018434:    4770        pG      BXCS     lr
        0x00018436:    b508        ..      PUSH     {r3,lr}
        0x00018438:    ea410080    A...    ORR      r0,r1,r0,LSL #2
        0x0001843c:    281e        .(      CMP      r0,#0x1e
        0x0001843e:    bf28        (.      IT       CS
        0x00018440:    bd08        ..      POPCS    {r3,pc}
        0x00018442:    e8dff000    ....    TBB      [pc,r0]
    $d
        0x00018446:    df0f        ..      DCW    57103
        0x00018448:    ed29fdfd    ..).    DCD    3978952189
        0x0001844c:    fc43fdfd    ..C.    DCD    4232314365
        0x00018450:    fb5dfdfd    ..].    DCD    4217241085
        0x00018454:    fa77fdfd    ..w.    DCD    4202167805
        0x00018458:    f991fdfd    ....    DCD    4187094525
        0x0001845c:    f8abfdfd    ....    DCD    4172021245
        0x00018460:    f7c5fdfd    ....    DCD    4156947965
    $t
        0x00018464:    48a4        .H      LDR      r0,[pc,#656] ; [0x186f8] = 0x10000054
        0x00018466:    6801        .h      LDR      r1,[r0,#0]
        0x00018468:    9100        ..      STR      r1,[sp,#0]
        0x0001846a:    2005        .       MOVS     r0,#5
        0x0001846c:    f000fe4c    ..L.    BL       am_hal_gpio_pinconfig ; 0x19108
        0x00018470:    48a2        .H      LDR      r0,[pc,#648] ; [0x186fc] = 0x1000004c
        0x00018472:    6801        .h      LDR      r1,[r0,#0]
        0x00018474:    9100        ..      STR      r1,[sp,#0]
        0x00018476:    2007        .       MOVS     r0,#7
        0x00018478:    f000fe46    ..F.    BL       am_hal_gpio_pinconfig ; 0x19108
        0x0001847c:    48a0        .H      LDR      r0,[pc,#640] ; [0x18700] = 0x10000050
        0x0001847e:    6801        .h      LDR      r1,[r0,#0]
        0x00018480:    9100        ..      STR      r1,[sp,#0]
        0x00018482:    2006        .       MOVS     r0,#6
        0x00018484:    f000fe40    ..@.    BL       am_hal_gpio_pinconfig ; 0x19108
        0x00018488:    489e        .H      LDR      r0,[pc,#632] ; [0x18704] = 0x10000048
        0x0001848a:    6801        .h      LDR      r1,[r0,#0]
        0x0001848c:    9100        ..      STR      r1,[sp,#0]
        0x0001848e:    e8bd4008    ...@    POP      {r3,lr}
        0x00018492:    2048        H       MOVS     r0,#0x48
        0x00018494:    f000be38    ..8.    B.W      am_hal_gpio_pinconfig ; 0x19108
        0x00018498:    489b        .H      LDR      r0,[pc,#620] ; [0x18708] = 0x1000006c
        0x0001849a:    6801        .h      LDR      r1,[r0,#0]
        0x0001849c:    9100        ..      STR      r1,[sp,#0]
        0x0001849e:    2008        .       MOVS     r0,#8
        0x000184a0:    f000fe32    ..2.    BL       am_hal_gpio_pinconfig ; 0x19108
        0x000184a4:    4899        .H      LDR      r0,[pc,#612] ; [0x1870c] = 0x10000064
        0x000184a6:    6801        .h      LDR      r1,[r0,#0]
        0x000184a8:    9100        ..      STR      r1,[sp,#0]
        0x000184aa:    200a        .       MOVS     r0,#0xa
        0x000184ac:    f000fe2c    ..,.    BL       am_hal_gpio_pinconfig ; 0x19108
        0x000184b0:    4897        .H      LDR      r0,[pc,#604] ; [0x18710] = 0x10000068
        0x000184b2:    6801        .h      LDR      r1,[r0,#0]
        0x000184b4:    9100        ..      STR      r1,[sp,#0]
        0x000184b6:    2009        .       MOVS     r0,#9
        0x000184b8:    f000fe26    ..&.    BL       am_hal_gpio_pinconfig ; 0x19108
        0x000184bc:    4895        .H      LDR      r0,[pc,#596] ; [0x18714] = 0x10000060
        0x000184be:    6801        .h      LDR      r1,[r0,#0]
        0x000184c0:    9100        ..      STR      r1,[sp,#0]
        0x000184c2:    e8bd4008    ...@    POP      {r3,lr}
        0x000184c6:    200b        .       MOVS     r0,#0xb
        0x000184c8:    f000be1e    ....    B.W      am_hal_gpio_pinconfig ; 0x19108
        0x000184cc:    4892        .H      LDR      r0,[pc,#584] ; [0x18718] = 0x10000084
        0x000184ce:    6801        .h      LDR      r1,[r0,#0]
        0x000184d0:    9100        ..      STR      r1,[sp,#0]
        0x000184d2:    2019        .       MOVS     r0,#0x19
        0x000184d4:    f000fe18    ....    BL       am_hal_gpio_pinconfig ; 0x19108
        0x000184d8:    4890        .H      LDR      r0,[pc,#576] ; [0x1871c] = 0x1000007c
        0x000184da:    6801        .h      LDR      r1,[r0,#0]
        0x000184dc:    9100        ..      STR      r1,[sp,#0]
        0x000184de:    201b        .       MOVS     r0,#0x1b
        0x000184e0:    f000fe12    ....    BL       am_hal_gpio_pinconfig ; 0x19108
        0x000184e4:    488e        .H      LDR      r0,[pc,#568] ; [0x18720] = 0x10000080
        0x000184e6:    6801        .h      LDR      r1,[r0,#0]
        0x000184e8:    9100        ..      STR      r1,[sp,#0]
        0x000184ea:    201a        .       MOVS     r0,#0x1a
        0x000184ec:    f000fe0c    ....    BL       am_hal_gpio_pinconfig ; 0x19108
        0x000184f0:    488c        .H      LDR      r0,[pc,#560] ; [0x18724] = 0x10000078
        0x000184f2:    6801        .h      LDR      r1,[r0,#0]
        0x000184f4:    9100        ..      STR      r1,[sp,#0]
        0x000184f6:    e8bd4008    ...@    POP      {r3,lr}
        0x000184fa:    2025        %       MOVS     r0,#0x25
        0x000184fc:    f000be04    ....    B.W      am_hal_gpio_pinconfig ; 0x19108
        0x00018500:    4889        .H      LDR      r0,[pc,#548] ; [0x18728] = 0x1000009c
        0x00018502:    6801        .h      LDR      r1,[r0,#0]
        0x00018504:    9100        ..      STR      r1,[sp,#0]
        0x00018506:    201f        .       MOVS     r0,#0x1f
        0x00018508:    f000fdfe    ....    BL       am_hal_gpio_pinconfig ; 0x19108
        0x0001850c:    4887        .H      LDR      r0,[pc,#540] ; [0x1872c] = 0x10000094
        0x0001850e:    6801        .h      LDR      r1,[r0,#0]
        0x00018510:    9100        ..      STR      r1,[sp,#0]
        0x00018512:    2021        !       MOVS     r0,#0x21
        0x00018514:    f000fdf8    ....    BL       am_hal_gpio_pinconfig ; 0x19108
        0x00018518:    4885        .H      LDR      r0,[pc,#532] ; [0x18730] = 0x10000098
        0x0001851a:    6801        .h      LDR      r1,[r0,#0]
        0x0001851c:    9100        ..      STR      r1,[sp,#0]
        0x0001851e:    2020                MOVS     r0,#0x20
        0x00018520:    f000fdf2    ....    BL       am_hal_gpio_pinconfig ; 0x19108
        0x00018524:    4883        .H      LDR      r0,[pc,#524] ; [0x18734] = 0x10000090
        0x00018526:    6801        .h      LDR      r1,[r0,#0]
        0x00018528:    9100        ..      STR      r1,[sp,#0]
        0x0001852a:    e8bd4008    ...@    POP      {r3,lr}
        0x0001852e:    2055        U       MOVS     r0,#0x55
        0x00018530:    f000bdea    ....    B.W      am_hal_gpio_pinconfig ; 0x19108
        0x00018534:    4880        .H      LDR      r0,[pc,#512] ; [0x18738] = 0x100000b4
        0x00018536:    6801        .h      LDR      r1,[r0,#0]
        0x00018538:    9100        ..      STR      r1,[sp,#0]
        0x0001853a:    2022        "       MOVS     r0,#0x22
        0x0001853c:    f000fde4    ....    BL       am_hal_gpio_pinconfig ; 0x19108
        0x00018540:    487e        ~H      LDR      r0,[pc,#504] ; [0x1873c] = 0x100000ac
        0x00018542:    6801        .h      LDR      r1,[r0,#0]
        0x00018544:    9100        ..      STR      r1,[sp,#0]
        0x00018546:    2024        $       MOVS     r0,#0x24
        0x00018548:    f000fdde    ....    BL       am_hal_gpio_pinconfig ; 0x19108
        0x0001854c:    487c        |H      LDR      r0,[pc,#496] ; [0x18740] = 0x100000b0
        0x0001854e:    6801        .h      LDR      r1,[r0,#0]
        0x00018550:    9100        ..      STR      r1,[sp,#0]
        0x00018552:    2023        #       MOVS     r0,#0x23
        0x00018554:    f000fdd8    ....    BL       am_hal_gpio_pinconfig ; 0x19108
        0x00018558:    487a        zH      LDR      r0,[pc,#488] ; [0x18744] = 0x100000a8
        0x0001855a:    6801        .h      LDR      r1,[r0,#0]
        0x0001855c:    9100        ..      STR      r1,[sp,#0]
        0x0001855e:    e8bd4008    ...@    POP      {r3,lr}
        0x00018562:    204f        O       MOVS     r0,#0x4f
        0x00018564:    f000bdd0    ....    B.W      am_hal_gpio_pinconfig ; 0x19108
        0x00018568:    4877        wH      LDR      r0,[pc,#476] ; [0x18748] = 0x100000cc
        0x0001856a:    6801        .h      LDR      r1,[r0,#0]
        0x0001856c:    9100        ..      STR      r1,[sp,#0]
        0x0001856e:    202f        /       MOVS     r0,#0x2f
        0x00018570:    f000fdca    ....    BL       am_hal_gpio_pinconfig ; 0x19108
        0x00018574:    4875        uH      LDR      r0,[pc,#468] ; [0x1874c] = 0x100000c4
        0x00018576:    6801        .h      LDR      r1,[r0,#0]
        0x00018578:    9100        ..      STR      r1,[sp,#0]
        0x0001857a:    2031        1       MOVS     r0,#0x31
        0x0001857c:    f000fdc4    ....    BL       am_hal_gpio_pinconfig ; 0x19108
        0x00018580:    4873        sH      LDR      r0,[pc,#460] ; [0x18750] = 0x100000c8
        0x00018582:    6801        .h      LDR      r1,[r0,#0]
        0x00018584:    9100        ..      STR      r1,[sp,#0]
        0x00018586:    2030        0       MOVS     r0,#0x30
        0x00018588:    f000fdbe    ....    BL       am_hal_gpio_pinconfig ; 0x19108
        0x0001858c:    4871        qH      LDR      r0,[pc,#452] ; [0x18754] = 0x100000c0
        0x0001858e:    6801        .h      LDR      r1,[r0,#0]
        0x00018590:    9100        ..      STR      r1,[sp,#0]
        0x00018592:    e8bd4008    ...@    POP      {r3,lr}
        0x00018596:    2049        I       MOVS     r0,#0x49
        0x00018598:    f000bdb6    ....    B.W      am_hal_gpio_pinconfig ; 0x19108
        0x0001859c:    486e        nH      LDR      r0,[pc,#440] ; [0x18758] = 0x100000e4
        0x0001859e:    6801        .h      LDR      r1,[r0,#0]
        0x000185a0:    9100        ..      STR      r1,[sp,#0]
        0x000185a2:    203d        =       MOVS     r0,#0x3d
        0x000185a4:    f000fdb0    ....    BL       am_hal_gpio_pinconfig ; 0x19108
        0x000185a8:    486c        lH      LDR      r0,[pc,#432] ; [0x1875c] = 0x100000dc
        0x000185aa:    6801        .h      LDR      r1,[r0,#0]
        0x000185ac:    9100        ..      STR      r1,[sp,#0]
        0x000185ae:    203f        ?       MOVS     r0,#0x3f
        0x000185b0:    f000fdaa    ....    BL       am_hal_gpio_pinconfig ; 0x19108
        0x000185b4:    486a        jH      LDR      r0,[pc,#424] ; [0x18760] = 0x100000e0
        0x000185b6:    6801        .h      LDR      r1,[r0,#0]
        0x000185b8:    9100        ..      STR      r1,[sp,#0]
        0x000185ba:    203e        >       MOVS     r0,#0x3e
        0x000185bc:    f000fda4    ....    BL       am_hal_gpio_pinconfig ; 0x19108
        0x000185c0:    4868        hH      LDR      r0,[pc,#416] ; [0x18764] = 0x100000d8
        0x000185c2:    6801        .h      LDR      r1,[r0,#0]
        0x000185c4:    9100        ..      STR      r1,[sp,#0]
        0x000185c6:    e8bd4008    ...@    POP      {r3,lr}
        0x000185ca:    2027        '       MOVS     r0,#0x27
        0x000185cc:    f000bd9c    ....    B.W      am_hal_gpio_pinconfig ; 0x19108
        0x000185d0:    4865        eH      LDR      r0,[pc,#404] ; [0x18768] = 0x100000fc
        0x000185d2:    6801        .h      LDR      r1,[r0,#0]
        0x000185d4:    9100        ..      STR      r1,[sp,#0]
        0x000185d6:    2016        .       MOVS     r0,#0x16
        0x000185d8:    f000fd96    ....    BL       am_hal_gpio_pinconfig ; 0x19108
        0x000185dc:    4863        cH      LDR      r0,[pc,#396] ; [0x1876c] = 0x100000f4
        0x000185de:    6801        .h      LDR      r1,[r0,#0]
        0x000185e0:    9100        ..      STR      r1,[sp,#0]
        0x000185e2:    2018        .       MOVS     r0,#0x18
        0x000185e4:    f000fd90    ....    BL       am_hal_gpio_pinconfig ; 0x19108
        0x000185e8:    4861        aH      LDR      r0,[pc,#388] ; [0x18770] = 0x100000f8
        0x000185ea:    6801        .h      LDR      r1,[r0,#0]
        0x000185ec:    9100        ..      STR      r1,[sp,#0]
        0x000185ee:    2017        .       MOVS     r0,#0x17
        0x000185f0:    f000fd8a    ....    BL       am_hal_gpio_pinconfig ; 0x19108
        0x000185f4:    485f        _H      LDR      r0,[pc,#380] ; [0x18774] = 0x100000f0
        0x000185f6:    6801        .h      LDR      r1,[r0,#0]
        0x000185f8:    9100        ..      STR      r1,[sp,#0]
        0x000185fa:    e8bd4008    ...@    POP      {r3,lr}
        0x000185fe:    2058        X       MOVS     r0,#0x58
        0x00018600:    f000bd82    ....    B.W      am_hal_gpio_pinconfig ; 0x19108
        0x00018604:    485c        \H      LDR      r0,[pc,#368] ; [0x18778] = 0x10000058
        0x00018606:    6801        .h      LDR      r1,[r0,#0]
        0x00018608:    9100        ..      STR      r1,[sp,#0]
        0x0001860a:    2005        .       MOVS     r0,#5
        0x0001860c:    f000fd7c    ..|.    BL       am_hal_gpio_pinconfig ; 0x19108
        0x00018610:    485a        ZH      LDR      r0,[pc,#360] ; [0x1877c] = 0x1000005c
        0x00018612:    6801        .h      LDR      r1,[r0,#0]
        0x00018614:    9100        ..      STR      r1,[sp,#0]
        0x00018616:    e8bd4008    ...@    POP      {r3,lr}
        0x0001861a:    2006        .       MOVS     r0,#6
        0x0001861c:    f000bd74    ..t.    B.W      am_hal_gpio_pinconfig ; 0x19108
        0x00018620:    4857        WH      LDR      r0,[pc,#348] ; [0x18780] = 0x10000070
        0x00018622:    6801        .h      LDR      r1,[r0,#0]
        0x00018624:    9100        ..      STR      r1,[sp,#0]
        0x00018626:    2008        .       MOVS     r0,#8
        0x00018628:    f000fd6e    ..n.    BL       am_hal_gpio_pinconfig ; 0x19108
        0x0001862c:    4855        UH      LDR      r0,[pc,#340] ; [0x18784] = 0x10000074
        0x0001862e:    6801        .h      LDR      r1,[r0,#0]
        0x00018630:    9100        ..      STR      r1,[sp,#0]
        0x00018632:    e006        ..      B        0x18642 ; am_bsp_iom_pins_enable + 530
        0x00018634:    e050        P.      B        0x186d8 ; am_bsp_iom_pins_enable + 680
        0x00018636:    e041        A.      B        0x186bc ; am_bsp_iom_pins_enable + 652
        0x00018638:    e032        2.      B        0x186a0 ; am_bsp_iom_pins_enable + 624
        0x0001863a:    e023        #.      B        0x18684 ; am_bsp_iom_pins_enable + 596
        0x0001863c:    e014        ..      B        0x18668 ; am_bsp_iom_pins_enable + 568
        0x0001863e:    e005        ..      B        0x1864c ; am_bsp_iom_pins_enable + 540
        0x00018640:    e058        X.      B        0x186f4 ; am_bsp_iom_pins_enable + 708
        0x00018642:    e8bd4008    ...@    POP      {r3,lr}
        0x00018646:    2009        .       MOVS     r0,#9
        0x00018648:    f000bd5e    ..^.    B.W      am_hal_gpio_pinconfig ; 0x19108
        0x0001864c:    484e        NH      LDR      r0,[pc,#312] ; [0x18788] = 0x10000088
        0x0001864e:    6801        .h      LDR      r1,[r0,#0]
        0x00018650:    9100        ..      STR      r1,[sp,#0]
        0x00018652:    2019        .       MOVS     r0,#0x19
        0x00018654:    f000fd58    ..X.    BL       am_hal_gpio_pinconfig ; 0x19108
        0x00018658:    484c        LH      LDR      r0,[pc,#304] ; [0x1878c] = 0x1000008c
        0x0001865a:    6801        .h      LDR      r1,[r0,#0]
        0x0001865c:    9100        ..      STR      r1,[sp,#0]
        0x0001865e:    e8bd4008    ...@    POP      {r3,lr}
        0x00018662:    201a        .       MOVS     r0,#0x1a
        0x00018664:    f000bd50    ..P.    B.W      am_hal_gpio_pinconfig ; 0x19108
        0x00018668:    4849        IH      LDR      r0,[pc,#292] ; [0x18790] = 0x100000a0
        0x0001866a:    6801        .h      LDR      r1,[r0,#0]
        0x0001866c:    9100        ..      STR      r1,[sp,#0]
        0x0001866e:    201f        .       MOVS     r0,#0x1f
        0x00018670:    f000fd4a    ..J.    BL       am_hal_gpio_pinconfig ; 0x19108
        0x00018674:    4847        GH      LDR      r0,[pc,#284] ; [0x18794] = 0x100000a4
        0x00018676:    6801        .h      LDR      r1,[r0,#0]
        0x00018678:    9100        ..      STR      r1,[sp,#0]
        0x0001867a:    e8bd4008    ...@    POP      {r3,lr}
        0x0001867e:    2020                MOVS     r0,#0x20
        0x00018680:    f000bd42    ..B.    B.W      am_hal_gpio_pinconfig ; 0x19108
        0x00018684:    4844        DH      LDR      r0,[pc,#272] ; [0x18798] = 0x100000b8
        0x00018686:    6801        .h      LDR      r1,[r0,#0]
        0x00018688:    9100        ..      STR      r1,[sp,#0]
        0x0001868a:    2022        "       MOVS     r0,#0x22
        0x0001868c:    f000fd3c    ..<.    BL       am_hal_gpio_pinconfig ; 0x19108
        0x00018690:    4842        BH      LDR      r0,[pc,#264] ; [0x1879c] = 0x100000bc
        0x00018692:    6801        .h      LDR      r1,[r0,#0]
        0x00018694:    9100        ..      STR      r1,[sp,#0]
        0x00018696:    e8bd4008    ...@    POP      {r3,lr}
        0x0001869a:    2023        #       MOVS     r0,#0x23
        0x0001869c:    f000bd34    ..4.    B.W      am_hal_gpio_pinconfig ; 0x19108
        0x000186a0:    483f        ?H      LDR      r0,[pc,#252] ; [0x187a0] = 0x100000d0
        0x000186a2:    6801        .h      LDR      r1,[r0,#0]
        0x000186a4:    9100        ..      STR      r1,[sp,#0]
        0x000186a6:    202f        /       MOVS     r0,#0x2f
        0x000186a8:    f000fd2e    ....    BL       am_hal_gpio_pinconfig ; 0x19108
        0x000186ac:    483d        =H      LDR      r0,[pc,#244] ; [0x187a4] = 0x100000d4
        0x000186ae:    6801        .h      LDR      r1,[r0,#0]
        0x000186b0:    9100        ..      STR      r1,[sp,#0]
        0x000186b2:    e8bd4008    ...@    POP      {r3,lr}
        0x000186b6:    2030        0       MOVS     r0,#0x30
        0x000186b8:    f000bd26    ..&.    B.W      am_hal_gpio_pinconfig ; 0x19108
        0x000186bc:    483a        :H      LDR      r0,[pc,#232] ; [0x187a8] = 0x100000e8
        0x000186be:    6801        .h      LDR      r1,[r0,#0]
        0x000186c0:    9100        ..      STR      r1,[sp,#0]
        0x000186c2:    203d        =       MOVS     r0,#0x3d
        0x000186c4:    f000fd20    .. .    BL       am_hal_gpio_pinconfig ; 0x19108
        0x000186c8:    4838        8H      LDR      r0,[pc,#224] ; [0x187ac] = 0x100000ec
        0x000186ca:    6801        .h      LDR      r1,[r0,#0]
        0x000186cc:    9100        ..      STR      r1,[sp,#0]
        0x000186ce:    e8bd4008    ...@    POP      {r3,lr}
        0x000186d2:    203e        >       MOVS     r0,#0x3e
        0x000186d4:    f000bd18    ....    B.W      am_hal_gpio_pinconfig ; 0x19108
        0x000186d8:    4835        5H      LDR      r0,[pc,#212] ; [0x187b0] = 0x10000100
        0x000186da:    6801        .h      LDR      r1,[r0,#0]
        0x000186dc:    9100        ..      STR      r1,[sp,#0]
        0x000186de:    2016        .       MOVS     r0,#0x16
        0x000186e0:    f000fd12    ....    BL       am_hal_gpio_pinconfig ; 0x19108
        0x000186e4:    4833        3H      LDR      r0,[pc,#204] ; [0x187b4] = 0x10000104
        0x000186e6:    6801        .h      LDR      r1,[r0,#0]
        0x000186e8:    9100        ..      STR      r1,[sp,#0]
        0x000186ea:    e8bd4008    ...@    POP      {r3,lr}
        0x000186ee:    2017        .       MOVS     r0,#0x17
        0x000186f0:    f000bd0a    ....    B.W      am_hal_gpio_pinconfig ; 0x19108
        0x000186f4:    bd08        ..      POP      {r3,pc}
    $d
        0x000186f6:    0000        ..      DCW    0
        0x000186f8:    10000054    T...    DCD    268435540
        0x000186fc:    1000004c    L...    DCD    268435532
        0x00018700:    10000050    P...    DCD    268435536
        0x00018704:    10000048    H...    DCD    268435528
        0x00018708:    1000006c    l...    DCD    268435564
        0x0001870c:    10000064    d...    DCD    268435556
        0x00018710:    10000068    h...    DCD    268435560
        0x00018714:    10000060    `...    DCD    268435552
        0x00018718:    10000084    ....    DCD    268435588
        0x0001871c:    1000007c    |...    DCD    268435580
        0x00018720:    10000080    ....    DCD    268435584
        0x00018724:    10000078    x...    DCD    268435576
        0x00018728:    1000009c    ....    DCD    268435612
        0x0001872c:    10000094    ....    DCD    268435604
        0x00018730:    10000098    ....    DCD    268435608
        0x00018734:    10000090    ....    DCD    268435600
        0x00018738:    100000b4    ....    DCD    268435636
        0x0001873c:    100000ac    ....    DCD    268435628
        0x00018740:    100000b0    ....    DCD    268435632
        0x00018744:    100000a8    ....    DCD    268435624
        0x00018748:    100000cc    ....    DCD    268435660
        0x0001874c:    100000c4    ....    DCD    268435652
        0x00018750:    100000c8    ....    DCD    268435656
        0x00018754:    100000c0    ....    DCD    268435648
        0x00018758:    100000e4    ....    DCD    268435684
        0x0001875c:    100000dc    ....    DCD    268435676
        0x00018760:    100000e0    ....    DCD    268435680
        0x00018764:    100000d8    ....    DCD    268435672
        0x00018768:    100000fc    ....    DCD    268435708
        0x0001876c:    100000f4    ....    DCD    268435700
        0x00018770:    100000f8    ....    DCD    268435704
        0x00018774:    100000f0    ....    DCD    268435696
        0x00018778:    10000058    X...    DCD    268435544
        0x0001877c:    1000005c    \...    DCD    268435548
        0x00018780:    10000070    p...    DCD    268435568
        0x00018784:    10000074    t...    DCD    268435572
        0x00018788:    10000088    ....    DCD    268435592
        0x0001878c:    1000008c    ....    DCD    268435596
        0x00018790:    100000a0    ....    DCD    268435616
        0x00018794:    100000a4    ....    DCD    268435620
        0x00018798:    100000b8    ....    DCD    268435640
        0x0001879c:    100000bc    ....    DCD    268435644
        0x000187a0:    100000d0    ....    DCD    268435664
        0x000187a4:    100000d4    ....    DCD    268435668
        0x000187a8:    100000e8    ....    DCD    268435688
        0x000187ac:    100000ec    ....    DCD    268435692
        0x000187b0:    10000100    ....    DCD    268435712
        0x000187b4:    10000104    ....    DCD    268435716
    $t
    i.am_bsp_itm_printf_enable
    am_bsp_itm_printf_enable
        0x000187b8:    b570        p.      PUSH     {r4-r6,lr}
        0x000187ba:    4e1e        .N      LDR      r6,[pc,#120] ; [0x18834] = 0x40021000
        0x000187bc:    2400        .$      MOVS     r4,#0
        0x000187be:    b082        ..      SUB      sp,sp,#8
        0x000187c0:    68b0        .h      LDR      r0,[r6,#8]
        0x000187c2:    4625        %F      MOV      r5,r4
        0x000187c4:    f4101f80    ....    TST      r0,#0x100000
        0x000187c8:    d103        ..      BNE      0x187d2 ; am_bsp_itm_printf_enable + 26
        0x000187ca:    2501        .%      MOVS     r5,#1
        0x000187cc:    2012        .       MOVS     r0,#0x12
        0x000187ce:    f001fba9    ....    BL       am_hal_pwrctrl_periph_enable ; 0x19f24
        0x000187d2:    68b0        .h      LDR      r0,[r6,#8]
        0x000187d4:    f4101f80    ....    TST      r0,#0x100000
        0x000187d8:    d010        ..      BEQ      0x187fc ; am_bsp_itm_printf_enable + 68
        0x000187da:    4817        .H      LDR      r0,[pc,#92] ; [0x18838] = 0x400c0a7c
        0x000187dc:    6800        .h      LDR      r0,[r0,#0]
        0x000187de:    f0100f01    ....    TST      r0,#1
        0x000187e2:    d00b        ..      BEQ      0x187fc ; am_bsp_itm_printf_enable + 68
        0x000187e4:    4668        hF      MOV      r0,sp
        0x000187e6:    f000f999    ....    BL       am_hal_dcu_get ; 0x18b1c
        0x000187ea:    9800        ..      LDR      r0,[sp,#0]
        0x000187ec:    f0100f10    ....    TST      r0,#0x10
        0x000187f0:    d107        ..      BNE      0x18802 ; am_bsp_itm_printf_enable + 74
        0x000187f2:    2110        .!      MOVS     r1,#0x10
        0x000187f4:    2001        .       MOVS     r0,#1
        0x000187f6:    f000f9d9    ....    BL       am_hal_dcu_update ; 0x18bac
        0x000187fa:    b110        ..      CBZ      r0,0x18802 ; am_bsp_itm_printf_enable + 74
        0x000187fc:    f04f34ff    O..4    MOV      r4,#0xffffffff
        0x00018800:    e010        ..      B        0x18824 ; am_bsp_itm_printf_enable + 108
        0x00018802:    490e        .I      LDR      r1,[pc,#56] ; [0x1883c] = 0x10000040
        0x00018804:    2001        .       MOVS     r0,#1
        0x00018806:    7008        .p      STRB     r0,[r1,#0]
        0x00018808:    f001fa72    ..r.    BL       am_hal_itm_enable ; 0x19cf0
        0x0001880c:    480c        .H      LDR      r0,[pc,#48] ; [0x18840] = 0xf4240
        0x0001880e:    f001fc79    ..y.    BL       am_hal_tpiu_enable ; 0x1a104
        0x00018812:    480c        .H      LDR      r0,[pc,#48] ; [0x18844] = 0x10000108
        0x00018814:    6801        .h      LDR      r1,[r0,#0]
        0x00018816:    9101        ..      STR      r1,[sp,#4]
        0x00018818:    2016        .       MOVS     r0,#0x16
        0x0001881a:    f000fc75    ..u.    BL       am_hal_gpio_pinconfig ; 0x19108
        0x0001881e:    480a        .H      LDR      r0,[pc,#40] ; [0x18848] = 0x19d39
        0x00018820:    f001fcce    ....    BL       am_util_stdio_printf_init ; 0x1a1c0
        0x00018824:    2d00        .-      CMP      r5,#0
        0x00018826:    bf1c        ..      ITT      NE
        0x00018828:    2012        .       MOVNE    r0,#0x12
        0x0001882a:    f001fae5    ....    BLNE     am_hal_pwrctrl_periph_disable ; 0x19df8
        0x0001882e:    4620         F      MOV      r0,r4
        0x00018830:    b002        ..      ADD      sp,sp,#8
        0x00018832:    bd70        p.      POP      {r4-r6,pc}
    $d
        0x00018834:    40021000    ...@    DCD    1073876992
        0x00018838:    400c0a7c    |..@    DCD    1074530940
        0x0001883c:    10000040    @...    DCD    268435520
        0x00018840:    000f4240    @B..    DCD    1000000
        0x00018844:    10000108    ....    DCD    268435720
        0x00018848:    00019d39    9...    DCD    105785
    $t
    i.am_gpio0_001f_isr
    am_gpio0_001f_isr
        0x0001884c:    b51c        ..      PUSH     {r2-r4,lr}
        0x0001884e:    f7fffd73    ..s.    BL       am_hal_interrupt_master_disable ; 0x18338
        0x00018852:    9000        ..      STR      r0,[sp,#0]
        0x00018854:    aa01        ..      ADD      r2,sp,#4
        0x00018856:    2100        .!      MOVS     r1,#0
        0x00018858:    2038        8       MOVS     r0,#0x38
        0x0001885a:    f000fbbf    ....    BL       am_hal_gpio_interrupt_irq_status_get ; 0x18fdc
        0x0001885e:    2038        8       MOVS     r0,#0x38
        0x00018860:    9901        ..      LDR      r1,[sp,#4]
        0x00018862:    f000fba3    ....    BL       am_hal_gpio_interrupt_irq_clear ; 0x18fac
        0x00018866:    9800        ..      LDR      r0,[sp,#0]
        0x00018868:    f7fffd6a    ..j.    BL       am_hal_interrupt_master_set ; 0x18340
        0x0001886c:    2038        8       MOVS     r0,#0x38
        0x0001886e:    9901        ..      LDR      r1,[sp,#4]
        0x00018870:    f000fc1e    ....    BL       am_hal_gpio_interrupt_service ; 0x190b0
        0x00018874:    bd1c        ..      POP      {r2-r4,pc}
    i.am_gpu_power_disable
    am_gpu_power_disable
        0x00018876:    4770        pG      BX       lr
    i.am_gpu_power_enable
    am_gpu_power_enable
        0x00018878:    4770        pG      BX       lr
        0x0001887a:    0000        ..      MOVS     r0,r0
    i.am_hal_cmdq_disable
    am_hal_cmdq_disable
        0x0001887c:    2800        .(      CMP      r0,#0
        0x0001887e:    bf1c        ..      ITT      NE
        0x00018880:    6801        .h      LDRNE    r1,[r0,#0]
        0x00018882:    f0117f80    ....    TSTNE    r1,#0x1000000
        0x00018886:    d004        ..      BEQ      0x18892 ; am_hal_cmdq_disable + 22
        0x00018888:    4b0b        .K      LDR      r3,[pc,#44] ; [0x188b8] = 0xcdcdcd
        0x0001888a:    f021427f    !..B    BIC      r2,r1,#0xff000000
        0x0001888e:    429a        .B      CMP      r2,r3
        0x00018890:    d001        ..      BEQ      0x18896 ; am_hal_cmdq_disable + 26
        0x00018892:    2002        .       MOVS     r0,#2
        0x00018894:    4770        pG      BX       lr
        0x00018896:    f0117f00    ....    TST      r1,#0x2000000
        0x0001889a:    bf04        ..      ITT      EQ
        0x0001889c:    2000        .       MOVEQ    r0,#0
        0x0001889e:    4770        pG      BXEQ     lr
        0x000188a0:    6a41        Aj      LDR      r1,[r0,#0x24]
        0x000188a2:    6809        .h      LDR      r1,[r1,#0]
        0x000188a4:    680a        .h      LDR      r2,[r1,#0]
        0x000188a6:    f0220201    "...    BIC      r2,r2,#1
        0x000188aa:    600a        .`      STR      r2,[r1,#0]
        0x000188ac:    6801        .h      LDR      r1,[r0,#0]
        0x000188ae:    f0217100    !..q    BIC      r1,r1,#0x2000000
        0x000188b2:    6001        .`      STR      r1,[r0,#0]
        0x000188b4:    2000        .       MOVS     r0,#0
        0x000188b6:    4770        pG      BX       lr
    $d
        0x000188b8:    00cdcdcd    ....    DCD    13487565
    $t
    i.am_hal_cmdq_enable
    am_hal_cmdq_enable
        0x000188bc:    b510        ..      PUSH     {r4,lr}
        0x000188be:    1e04        ..      SUBS     r4,r0,#0
        0x000188c0:    bf1c        ..      ITT      NE
        0x000188c2:    6820         h      LDRNE    r0,[r4,#0]
        0x000188c4:    f0107f80    ....    TSTNE    r0,#0x1000000
        0x000188c8:    d004        ..      BEQ      0x188d4 ; am_hal_cmdq_enable + 24
        0x000188ca:    4a10        .J      LDR      r2,[pc,#64] ; [0x1890c] = 0xcdcdcd
        0x000188cc:    f020417f     ..A    BIC      r1,r0,#0xff000000
        0x000188d0:    4291        .B      CMP      r1,r2
        0x000188d2:    d001        ..      BEQ      0x188d8 ; am_hal_cmdq_enable + 28
        0x000188d4:    2002        .       MOVS     r0,#2
        0x000188d6:    bd10        ..      POP      {r4,pc}
        0x000188d8:    f0107f00    ....    TST      r0,#0x2000000
        0x000188dc:    bf1c        ..      ITT      NE
        0x000188de:    2000        .       MOVNE    r0,#0
        0x000188e0:    bd10        ..      POPNE    {r4,pc}
        0x000188e2:    490b        .I      LDR      r1,[pc,#44] ; [0x18910] = 0x10060000
        0x000188e4:    68a0        .h      LDR      r0,[r4,#8]
        0x000188e6:    4288        .B      CMP      r0,r1
        0x000188e8:    d303        ..      BCC      0x188f2 ; am_hal_cmdq_enable + 54
        0x000188ea:    2100        .!      MOVS     r1,#0
        0x000188ec:    2001        .       MOVS     r0,#1
        0x000188ee:    f000f8d5    ....    BL       am_hal_daxi_control ; 0x18a9c
        0x000188f2:    6a60        `j      LDR      r0,[r4,#0x24]
        0x000188f4:    6800        .h      LDR      r0,[r0,#0]
        0x000188f6:    6801        .h      LDR      r1,[r0,#0]
        0x000188f8:    f0410101    A...    ORR      r1,r1,#1
        0x000188fc:    6001        .`      STR      r1,[r0,#0]
        0x000188fe:    6820         h      LDR      r0,[r4,#0]
        0x00018900:    f0407000    @..p    ORR      r0,r0,#0x2000000
        0x00018904:    6020         `      STR      r0,[r4,#0]
        0x00018906:    2000        .       MOVS     r0,#0
        0x00018908:    bd10        ..      POP      {r4,pc}
    $d
        0x0001890a:    0000        ..      DCW    0
        0x0001890c:    00cdcdcd    ....    DCD    13487565
        0x00018910:    10060000    ....    DCD    268828672
    $t
    i.am_hal_cmdq_init
    am_hal_cmdq_init
        0x00018914:    280b        .(      CMP      r0,#0xb
        0x00018916:    bf24        $.      ITT      CS
        0x00018918:    2005        .       MOVCS    r0,#5
        0x0001891a:    4770        pG      BXCS     lr
        0x0001891c:    2900        .)      CMP      r1,#0
        0x0001891e:    bf1e        ..      ITTT     NE
        0x00018920:    684b        Kh      LDRNE    r3,[r1,#4]
        0x00018922:    2b00        .+      CMPNE    r3,#0
        0x00018924:    2a00        .*      CMPNE    r2,#0
        0x00018926:    d004        ..      BEQ      0x18932 ; am_hal_cmdq_init + 30
        0x00018928:    f8d1c000    ....    LDR      r12,[r1,#0]
        0x0001892c:    f1bc0f02    ....    CMP      r12,#2
        0x00018930:    d201        ..      BCS      0x18936 ; am_hal_cmdq_init + 34
        0x00018932:    2006        .       MOVS     r0,#6
        0x00018934:    4770        pG      BX       lr
        0x00018936:    b430        0.      PUSH     {r4,r5}
        0x00018938:    eb000340    ..@.    ADD      r3,r0,r0,LSL #1
        0x0001893c:    4c2e        .L      LDR      r4,[pc,#184] ; [0x189f8] = 0x100056a4
        0x0001893e:    eb0303c0    ....    ADD      r3,r3,r0,LSL #3
        0x00018942:    f8545023    T.#P    LDR      r5,[r4,r3,LSL #2]
        0x00018946:    f0157f80    ....    TST      r5,#0x1000000
        0x0001894a:    bf1e        ..      ITTT     NE
        0x0001894c:    2007        .       MOVNE    r0,#7
        0x0001894e:    bc30        0.      POPNE    {r4,r5}
        0x00018950:    4770        pG      BXNE     lr
        0x00018952:    eb040383    ....    ADD      r3,r4,r3,LSL #2
        0x00018956:    ea4f0ccc    O...    LSL      r12,r12,#3
        0x0001895a:    f8c3c018    ....    STR      r12,[r3,#0x18]
        0x0001895e:    f8d1c004    ....    LDR      r12,[r1,#4]
        0x00018962:    f8c3c004    ....    STR      r12,[r3,#4]
        0x00018966:    f8c3c00c    ....    STR      r12,[r3,#0xc]
        0x0001896a:    f8c3c014    ....    STR      r12,[r3,#0x14]
        0x0001896e:    f8c3c010    ....    STR      r12,[r3,#0x10]
        0x00018972:    e9d14c00    ...L    LDRD     r4,r12,[r1,#0]
        0x00018976:    eb0c0cc4    ....    ADD      r12,r12,r4,LSL #3
        0x0001897a:    f8c3c008    ....    STR      r12,[r3,#8]
        0x0001897e:    f8d3c000    ....    LDR      r12,[r3,#0]
        0x00018982:    4c1e        .L      LDR      r4,[pc,#120] ; [0x189fc] = 0xcdcdcd
        0x00018984:    f02c7c00    ,..|    BIC      r12,r12,#0x2000000
        0x00018988:    f04c7c80    L..|    ORR      r12,r12,#0x1000000
        0x0001898c:    f3640c17    d...    BFI      r12,r4,#0,#24
        0x00018990:    f8c3c000    ....    STR      r12,[r3,#0]
        0x00018994:    f8dfc068    ..h.    LDR      r12,[pc,#104] ; [0x18a00] = 0x1b2c4
        0x00018998:    eb000080    ....    ADD      r0,r0,r0,LSL #2
        0x0001899c:    eb0c00c0    ....    ADD      r0,r12,r0,LSL #3
        0x000189a0:    6258        Xb      STR      r0,[r3,#0x24]
        0x000189a2:    2000        .       MOVS     r0,#0
        0x000189a4:    61d8        .a      STR      r0,[r3,#0x1c]
        0x000189a6:    6218        .b      STR      r0,[r3,#0x20]
        0x000189a8:    f8d3c024    ..$.    LDR      r12,[r3,#0x24]
        0x000189ac:    f8dcc008    ....    LDR      r12,[r12,#8]
        0x000189b0:    f8cc0000    ....    STR      r0,[r12,#0]
        0x000189b4:    f8d3c024    ..$.    LDR      r12,[r3,#0x24]
        0x000189b8:    f8dcc00c    ....    LDR      r12,[r12,#0xc]
        0x000189bc:    f8cc0000    ....    STR      r0,[r12,#0]
        0x000189c0:    6a58        Xj      LDR      r0,[r3,#0x24]
        0x000189c2:    f8d0c010    ....    LDR      r12,[r0,#0x10]
        0x000189c6:    f8dc4000    ...@    LDR      r4,[r12,#0]
        0x000189ca:    6940        @i      LDR      r0,[r0,#0x14]
        0x000189cc:    4320         C      ORRS     r0,r0,r4
        0x000189ce:    f8cc0000    ....    STR      r0,[r12,#0]
        0x000189d2:    f8d3c024    ..$.    LDR      r12,[r3,#0x24]
        0x000189d6:    6848        Hh      LDR      r0,[r1,#4]
        0x000189d8:    f8dcc004    ....    LDR      r12,[r12,#4]
        0x000189dc:    f8cc0000    ....    STR      r0,[r12,#0]
        0x000189e0:    7a08        .z      LDRB     r0,[r1,#8]
        0x000189e2:    2102        .!      MOVS     r1,#2
        0x000189e4:    ea010040    ..@.    AND      r0,r1,r0,LSL #1
        0x000189e8:    6a59        Yj      LDR      r1,[r3,#0x24]
        0x000189ea:    6809        .h      LDR      r1,[r1,#0]
        0x000189ec:    6008        .`      STR      r0,[r1,#0]
        0x000189ee:    6013        .`      STR      r3,[r2,#0]
        0x000189f0:    bc30        0.      POP      {r4,r5}
        0x000189f2:    2000        .       MOVS     r0,#0
        0x000189f4:    4770        pG      BX       lr
    $d
        0x000189f6:    0000        ..      DCW    0
        0x000189f8:    100056a4    .V..    DCD    268457636
        0x000189fc:    00cdcdcd    ....    DCD    13487565
        0x00018a00:    0001b2c4    ....    DCD    111300
    $t
    i.am_hal_daxi_config
    am_hal_daxi_config
        0x00018a04:    b570        p.      PUSH     {r4-r6,lr}
        0x00018a06:    b082        ..      SUB      sp,sp,#8
        0x00018a08:    4605        .F      MOV      r5,r0
        0x00018a0a:    f7fffc95    ....    BL       am_hal_interrupt_master_disable ; 0x18338
        0x00018a0e:    9000        ..      STR      r0,[sp,#0]
        0x00018a10:    f7fffc92    ....    BL       am_hal_interrupt_master_disable ; 0x18338
        0x00018a14:    f04f4490    O..D    MOV      r4,#0x48000000
        0x00018a18:    9001        ..      STR      r0,[sp,#4]
        0x00018a1a:    6d20         m      LDR      r0,[r4,#0x50]
        0x00018a1c:    4e1d        .N      LDR      r6,[pc,#116] ; [0x18a94] = 0x47ff0000
        0x00018a1e:    f0100f04    ....    TST      r0,#4
        0x00018a22:    d10b        ..      BNE      0x18a3c ; am_hal_daxi_config + 56
        0x00018a24:    f3bf8f4f    ..O.    DSB      
        0x00018a28:    6d60        `m      LDR      r0,[r4,#0x54]
        0x00018a2a:    f0400001    @...    ORR      r0,r0,#1
        0x00018a2e:    6560        `e      STR      r0,[r4,#0x54]
        0x00018a30:    6830        0h      LDR      r0,[r6,#0]
        0x00018a32:    6d60        `m      LDR      r0,[r4,#0x54]
        0x00018a34:    f0400002    @...    ORR      r0,r0,#2
        0x00018a38:    6560        `e      STR      r0,[r4,#0x54]
        0x00018a3a:    6830        0h      LDR      r0,[r6,#0]
        0x00018a3c:    6d60        `m      LDR      r0,[r4,#0x54]
        0x00018a3e:    f0100f04    ....    TST      r0,#4
        0x00018a42:    d0fb        ..      BEQ      0x18a3c ; am_hal_daxi_config + 56
        0x00018a44:    9801        ..      LDR      r0,[sp,#4]
        0x00018a46:    f7fffc7b    ..{.    BL       am_hal_interrupt_master_set ; 0x18340
        0x00018a4a:    2d00        .-      CMP      r5,#0
        0x00018a4c:    bf04        ..      ITT      EQ
        0x00018a4e:    2006        .       MOVEQ    r0,#6
        0x00018a50:    6520         e      STREQ    r0,[r4,#0x50]
        0x00018a52:    d018        ..      BEQ      0x18a86 ; am_hal_daxi_config + 130
        0x00018a54:    7928        (y      LDRB     r0,[r5,#4]
        0x00018a56:    7869        ix      LDRB     r1,[r5,#1]
        0x00018a58:    2202        ."      MOVS     r2,#2
        0x00018a5a:    f0000001    ....    AND      r0,r0,#1
        0x00018a5e:    ea020141    ..A.    AND      r1,r2,r1,LSL #1
        0x00018a62:    4308        .C      ORRS     r0,r0,r1
        0x00018a64:    78e9        .x      LDRB     r1,[r5,#3]
        0x00018a66:    f44f6270    O.pb    MOV      r2,#0xf00
        0x00018a6a:    ea022101    ...!    AND      r1,r2,r1,LSL #8
        0x00018a6e:    4308        .C      ORRS     r0,r0,r1
        0x00018a70:    78a9        .x      LDRB     r1,[r5,#2]
        0x00018a72:    f44f12f8    O...    MOV      r2,#0x1f0000
        0x00018a76:    ea024101    ...A    AND      r1,r2,r1,LSL #16
        0x00018a7a:    4308        .C      ORRS     r0,r0,r1
        0x00018a7c:    6520         e      STR      r0,[r4,#0x50]
        0x00018a7e:    4629        )F      MOV      r1,r5
        0x00018a80:    4805        .H      LDR      r0,[pc,#20] ; [0x18a98] = 0x1000010c
        0x00018a82:    f7fffcd0    ....    BL       __ARM_common_memcpy4_5 ; 0x18426
        0x00018a86:    6830        0h      LDR      r0,[r6,#0]
        0x00018a88:    9800        ..      LDR      r0,[sp,#0]
        0x00018a8a:    f7fffc59    ..Y.    BL       am_hal_interrupt_master_set ; 0x18340
        0x00018a8e:    b002        ..      ADD      sp,sp,#8
        0x00018a90:    2000        .       MOVS     r0,#0
        0x00018a92:    bd70        p.      POP      {r4-r6,pc}
    $d
        0x00018a94:    47ff0000    ...G    DCD    1207894016
        0x00018a98:    1000010c    ....    DCD    268435724
    $t
    i.am_hal_daxi_control
    am_hal_daxi_control
        0x00018a9c:    b538        8.      PUSH     {r3-r5,lr}
        0x00018a9e:    4d1d        .M      LDR      r5,[pc,#116] ; [0x18b14] = 0x47ff0000
        0x00018aa0:    f04f4490    O..D    MOV      r4,#0x48000000
        0x00018aa4:    b348        H.      CBZ      r0,0x18afa ; am_hal_daxi_control + 94
        0x00018aa6:    2801        .(      CMP      r0,#1
        0x00018aa8:    d00c        ..      BEQ      0x18ac4 ; am_hal_daxi_control + 40
        0x00018aaa:    2802        .(      CMP      r0,#2
        0x00018aac:    bf08        ..      IT       EQ
        0x00018aae:    2000        .       MOVEQ    r0,#0
        0x00018ab0:    d004        ..      BEQ      0x18abc ; am_hal_daxi_control + 32
        0x00018ab2:    2803        .(      CMP      r0,#3
        0x00018ab4:    bf16        ..      ITET     NE
        0x00018ab6:    2006        .       MOVNE    r0,#6
        0x00018ab8:    4817        .H      LDREQ    r0,[pc,#92] ; [0x18b18] = 0x1000010c
        0x00018aba:    bd38        8.      POPNE    {r3-r5,pc}
        0x00018abc:    f7ffffa2    ....    BL       am_hal_daxi_config ; 0x18a04
        0x00018ac0:    2000        .       MOVS     r0,#0
        0x00018ac2:    bd38        8.      POP      {r3-r5,pc}
        0x00018ac4:    f7fffc38    ..8.    BL       am_hal_interrupt_master_disable ; 0x18338
        0x00018ac8:    9000        ..      STR      r0,[sp,#0]
        0x00018aca:    6d20         m      LDR      r0,[r4,#0x50]
        0x00018acc:    f0100f04    ....    TST      r0,#4
        0x00018ad0:    d10b        ..      BNE      0x18aea ; am_hal_daxi_control + 78
        0x00018ad2:    f3bf8f4f    ..O.    DSB      
        0x00018ad6:    6d60        `m      LDR      r0,[r4,#0x54]
        0x00018ad8:    f0400001    @...    ORR      r0,r0,#1
        0x00018adc:    6560        `e      STR      r0,[r4,#0x54]
        0x00018ade:    6828        (h      LDR      r0,[r5,#0]
        0x00018ae0:    6d60        `m      LDR      r0,[r4,#0x54]
        0x00018ae2:    f0400002    @...    ORR      r0,r0,#2
        0x00018ae6:    6560        `e      STR      r0,[r4,#0x54]
        0x00018ae8:    6828        (h      LDR      r0,[r5,#0]
        0x00018aea:    6d60        `m      LDR      r0,[r4,#0x54]
        0x00018aec:    f0100f04    ....    TST      r0,#4
        0x00018af0:    d0fb        ..      BEQ      0x18aea ; am_hal_daxi_control + 78
        0x00018af2:    9800        ..      LDR      r0,[sp,#0]
        0x00018af4:    f7fffc24    ..$.    BL       am_hal_interrupt_master_set ; 0x18340
        0x00018af8:    e7e2        ..      B        0x18ac0 ; am_hal_daxi_control + 36
        0x00018afa:    6d20         m      LDR      r0,[r4,#0x50]
        0x00018afc:    f0100f04    ....    TST      r0,#4
        0x00018b00:    d1de        ..      BNE      0x18ac0 ; am_hal_daxi_control + 36
        0x00018b02:    f3bf8f4f    ..O.    DSB      
        0x00018b06:    6d60        `m      LDR      r0,[r4,#0x54]
        0x00018b08:    f0400002    @...    ORR      r0,r0,#2
        0x00018b0c:    6560        `e      STR      r0,[r4,#0x54]
        0x00018b0e:    6828        (h      LDR      r0,[r5,#0]
        0x00018b10:    e7d6        ..      B        0x18ac0 ; am_hal_daxi_control + 36
    $d
        0x00018b12:    0000        ..      DCW    0
        0x00018b14:    47ff0000    ...G    DCD    1207894016
        0x00018b18:    1000010c    ....    DCD    268435724
    $t
    i.am_hal_dcu_get
    am_hal_dcu_get
        0x00018b1c:    e92d43f0    -..C    PUSH     {r4-r9,lr}
        0x00018b20:    4680        .F      MOV      r8,r0
        0x00018b22:    481f        .H      LDR      r0,[pc,#124] ; [0x18ba0] = 0x40021000
        0x00018b24:    b083        ..      SUB      sp,sp,#0xc
        0x00018b26:    6880        .h      LDR      r0,[r0,#8]
        0x00018b28:    f4101f80    ....    TST      r0,#0x100000
        0x00018b2c:    d023        #.      BEQ      0x18b76 ; am_hal_dcu_get + 90
        0x00018b2e:    481d        .H      LDR      r0,[pc,#116] ; [0x18ba4] = 0x400c0a7c
        0x00018b30:    6800        .h      LDR      r0,[r0,#0]
        0x00018b32:    f0100f01    ....    TST      r0,#1
        0x00018b36:    d01e        ..      BEQ      0x18b76 ; am_hal_dcu_get + 90
        0x00018b38:    f8df906c    ..l.    LDR      r9,[pc,#108] ; [0x18ba8] = 0x10000118
        0x00018b3c:    4668        hF      MOV      r0,sp
        0x00018b3e:    2202        ."      MOVS     r2,#2
        0x00018b40:    f8d91004    ....    LDR      r1,[r9,#4]
        0x00018b44:    f001fd48    ..H.    BL       copy_words ; 0x1a5d8
        0x00018b48:    e9dd0100    ....    LDRD     r0,r1,[sp,#0]
        0x00018b4c:    2400        .$      MOVS     r4,#0
        0x00018b4e:    4627        'F      MOV      r7,r4
        0x00018b50:    2605        .&      MOVS     r6,#5
        0x00018b52:    4625        %F      MOV      r5,r4
        0x00018b54:    f8d92000    ...     LDR      r2,[r9,#0]
        0x00018b58:    f7fffc15    ....    BL       __aeabi_llsr ; 0x18386
        0x00018b5c:    2214        ."      MOVS     r2,#0x14
        0x00018b5e:    f04f0c01    O...    MOV      r12,#1
        0x00018b62:    bf00        ..      NOP      
        0x00018b64:    f0000307    ....    AND      r3,r0,#7
        0x00018b68:    4073        s@      EORS     r3,r3,r6
        0x00018b6a:    ea840904    ....    EOR      r9,r4,r4
        0x00018b6e:    ea530309    S...    ORRS     r3,r3,r9
        0x00018b72:    d109        ..      BNE      0x18b88 ; am_hal_dcu_get + 108
        0x00018b74:    e003        ..      B        0x18b7e ; am_hal_dcu_get + 98
        0x00018b76:    b003        ..      ADD      sp,sp,#0xc
        0x00018b78:    2007        .       MOVS     r0,#7
        0x00018b7a:    e8bd83f0    ....    POP      {r4-r9,pc}
        0x00018b7e:    f1c20314    ....    RSB      r3,r2,#0x14
        0x00018b82:    fa0cf303    ....    LSL      r3,r12,r3
        0x00018b86:    431d        .C      ORRS     r5,r5,r3
        0x00018b88:    08c0        ..      LSRS     r0,r0,#3
        0x00018b8a:    ea407041    @.Ap    ORR      r0,r0,r1,LSL #29
        0x00018b8e:    08c9        ..      LSRS     r1,r1,#3
        0x00018b90:    1e52        R.      SUBS     r2,r2,#1
        0x00018b92:    d1e7        ..      BNE      0x18b64 ; am_hal_dcu_get + 72
        0x00018b94:    f8c85000    ...P    STR      r5,[r8,#0]
        0x00018b98:    b003        ..      ADD      sp,sp,#0xc
        0x00018b9a:    4638        8F      MOV      r0,r7
        0x00018b9c:    e8bd83f0    ....    POP      {r4-r9,pc}
    $d
        0x00018ba0:    40021000    ...@    DCD    1073876992
        0x00018ba4:    400c0a7c    |..@    DCD    1074530940
        0x00018ba8:    10000118    ....    DCD    268435736
    $t
    i.am_hal_dcu_update
    am_hal_dcu_update
        0x00018bac:    e92d4ff0    -..O    PUSH     {r4-r11,lr}
        0x00018bb0:    4681        .F      MOV      r9,r0
        0x00018bb2:    4834        4H      LDR      r0,[pc,#208] ; [0x18c84] = 0x40021000
        0x00018bb4:    b085        ..      SUB      sp,sp,#0x14
        0x00018bb6:    6880        .h      LDR      r0,[r0,#8]
        0x00018bb8:    f4101f80    ....    TST      r0,#0x100000
        0x00018bbc:    d02a        *.      BEQ      0x18c14 ; am_hal_dcu_update + 104
        0x00018bbe:    f8dfa0c8    ....    LDR      r10,[pc,#200] ; [0x18c88] = 0x400c0a7c
        0x00018bc2:    f8da0000    ....    LDR      r0,[r10,#0]
        0x00018bc6:    f0100f01    ....    TST      r0,#1
        0x00018bca:    d023        #.      BEQ      0x18c14 ; am_hal_dcu_update + 104
        0x00018bcc:    f8df80bc    ....    LDR      r8,[pc,#188] ; [0x18c8c] = 0x10000118
        0x00018bd0:    2700        .'      MOVS     r7,#0
        0x00018bd2:    084d        M.      LSRS     r5,r1,#1
        0x00018bd4:    f8d8b000    ....    LDR      r11,[r8,#0]
        0x00018bd8:    463e        >F      MOV      r6,r7
        0x00018bda:    2414        .$      MOVS     r4,#0x14
        0x00018bdc:    f0150f01    ....    TST      r5,#1
        0x00018be0:    d006        ..      BEQ      0x18bf0 ; am_hal_dcu_update + 68
        0x00018be2:    465a        ZF      MOV      r2,r11
        0x00018be4:    2007        .       MOVS     r0,#7
        0x00018be6:    2100        .!      MOVS     r1,#0
        0x00018be8:    f7fffbba    ....    BL       __aeabi_llsl ; 0x18360
        0x00018bec:    4307        .C      ORRS     r7,r7,r0
        0x00018bee:    430e        .C      ORRS     r6,r6,r1
        0x00018bf0:    086d        m.      LSRS     r5,r5,#1
        0x00018bf2:    1e64        d.      SUBS     r4,r4,#1
        0x00018bf4:    f10b0b03    ....    ADD      r11,r11,#3
        0x00018bf8:    2c00        .,      CMP      r4,#0
        0x00018bfa:    dcef        ..      BGT      0x18bdc ; am_hal_dcu_update + 48
        0x00018bfc:    2202        ."      MOVS     r2,#2
        0x00018bfe:    a802        ..      ADD      r0,sp,#8
        0x00018c00:    f8d81008    ....    LDR      r1,[r8,#8]
        0x00018c04:    f001fce8    ....    BL       copy_words ; 0x1a5d8
        0x00018c08:    e9dd1002    ....    LDRD     r1,r0,[sp,#8]
        0x00018c0c:    4039        9@      ANDS     r1,r1,r7
        0x00018c0e:    4030        0@      ANDS     r0,r0,r6
        0x00018c10:    4308        .C      ORRS     r0,r0,r1
        0x00018c12:    d003        ..      BEQ      0x18c1c ; am_hal_dcu_update + 112
        0x00018c14:    b005        ..      ADD      sp,sp,#0x14
        0x00018c16:    2007        .       MOVS     r0,#7
        0x00018c18:    e8bd8ff0    ....    POP      {r4-r11,pc}
        0x00018c1c:    2202        ."      MOVS     r2,#2
        0x00018c1e:    4668        hF      MOV      r0,sp
        0x00018c20:    f8d81004    ....    LDR      r1,[r8,#4]
        0x00018c24:    f001fcd8    ....    BL       copy_words ; 0x1a5d8
        0x00018c28:    f1b90f00    ....    CMP      r9,#0
        0x00018c2c:    d00d        ..      BEQ      0x18c4a ; am_hal_dcu_update + 158
        0x00018c2e:    e9dd1000    ....    LDRD     r1,r0,[sp,#0]
        0x00018c32:    ea210207    !...    BIC      r2,r1,r7
        0x00018c36:    e9d83104    ...1    LDRD     r3,r1,[r8,#0x10]
        0x00018c3a:    403b        ;@      ANDS     r3,r3,r7
        0x00018c3c:    43b0        .C      BICS     r0,r0,r6
        0x00018c3e:    4031        1@      ANDS     r1,r1,r6
        0x00018c40:    431a        .C      ORRS     r2,r2,r3
        0x00018c42:    4308        .C      ORRS     r0,r0,r1
        0x00018c44:    e9cd2000    ...     STRD     r2,r0,[sp,#0]
        0x00018c48:    e00c        ..      B        0x18c64 ; am_hal_dcu_update + 184
        0x00018c4a:    e9dd0100    ....    LDRD     r0,r1,[sp,#0]
        0x00018c4e:    ea210206    !...    BIC      r2,r1,r6
        0x00018c52:    e9d83106    ...1    LDRD     r3,r1,[r8,#0x18]
        0x00018c56:    43b8        .C      BICS     r0,r0,r7
        0x00018c58:    403b        ;@      ANDS     r3,r3,r7
        0x00018c5a:    4031        1@      ANDS     r1,r1,r6
        0x00018c5c:    4318        .C      ORRS     r0,r0,r3
        0x00018c5e:    4311        .C      ORRS     r1,r1,r2
        0x00018c60:    e9cd0100    ....    STRD     r0,r1,[sp,#0]
        0x00018c64:    2202        ."      MOVS     r2,#2
        0x00018c66:    4669        iF      MOV      r1,sp
        0x00018c68:    f8d80004    ....    LDR      r0,[r8,#4]
        0x00018c6c:    f001fcb4    ....    BL       copy_words ; 0x1a5d8
        0x00018c70:    f8da0000    ....    LDR      r0,[r10,#0]
        0x00018c74:    f0100f01    ....    TST      r0,#1
        0x00018c78:    d0fa        ..      BEQ      0x18c70 ; am_hal_dcu_update + 196
        0x00018c7a:    b005        ..      ADD      sp,sp,#0x14
        0x00018c7c:    2000        .       MOVS     r0,#0
        0x00018c7e:    e8bd8ff0    ....    POP      {r4-r11,pc}
    $d
        0x00018c82:    0000        ..      DCW    0
        0x00018c84:    40021000    ...@    DCD    1073876992
        0x00018c88:    400c0a7c    |..@    DCD    1074530940
        0x00018c8c:    10000118    ....    DCD    268435736
    $t
    i.am_hal_delay_us
    am_hal_delay_us
        0x00018c90:    4908        .I      LDR      r1,[pc,#32] ; [0x18cb4] = 0x40021000
        0x00018c92:    0140        @.      LSLS     r0,r0,#5
        0x00018c94:    6809        .h      LDR      r1,[r1,#0]
        0x00018c96:    f3c101c1    ....    UBFX     r1,r1,#3,#2
        0x00018c9a:    2902        .)      CMP      r1,#2
        0x00018c9c:    bf06        ..      ITTE     EQ
        0x00018c9e:    0040        @.      LSLEQ    r0,r0,#1
        0x00018ca0:    2115        .!      MOVEQ    r1,#0x15
        0x00018ca2:    210f        .!      MOVNE    r1,#0xf
        0x00018ca4:    4288        .B      CMP      r0,r1
        0x00018ca6:    bf98        ..      IT       LS
        0x00018ca8:    4770        pG      BXLS     lr
        0x00018caa:    1a40        @.      SUBS     r0,r0,r1
        0x00018cac:    4902        .I      LDR      r1,[pc,#8] ; [0x18cb8] = 0x1b29c
        0x00018cae:    6a49        Ij      LDR      r1,[r1,#0x24]
        0x00018cb0:    4708        .G      BX       r1
    $d
        0x00018cb2:    0000        ..      DCW    0
        0x00018cb4:    40021000    ...@    DCD    1073876992
        0x00018cb8:    0001b29c    ....    DCD    111260
    $t
    i.am_hal_delay_us_status_change
    am_hal_delay_us_status_change
        0x00018cbc:    e92d47f0    -..G    PUSH     {r4-r10,lr}
        0x00018cc0:    f8df8048    ..H.    LDR      r8,[pc,#72] ; [0x18d0c] = 0x40021000
        0x00018cc4:    f8df9048    ..H.    LDR      r9,[pc,#72] ; [0x18d10] = 0x1b29c
        0x00018cc8:    461d        .F      MOV      r5,r3
        0x00018cca:    4616        .F      MOV      r6,r2
        0x00018ccc:    460f        .F      MOV      r7,r1
        0x00018cce:    4604        .F      MOV      r4,r0
        0x00018cd0:    6838        8h      LDR      r0,[r7,#0]
        0x00018cd2:    4030        0@      ANDS     r0,r0,r6
        0x00018cd4:    42a8        .B      CMP      r0,r5
        0x00018cd6:    d102        ..      BNE      0x18cde ; am_hal_delay_us_status_change + 34
        0x00018cd8:    2000        .       MOVS     r0,#0
        0x00018cda:    e8bd87f0    ....    POP      {r4-r10,pc}
        0x00018cde:    1e64        d.      SUBS     r4,r4,#1
        0x00018ce0:    d311        ..      BCC      0x18d06 ; am_hal_delay_us_status_change + 74
        0x00018ce2:    f8d81000    ....    LDR      r1,[r8,#0]
        0x00018ce6:    2020                MOVS     r0,#0x20
        0x00018ce8:    f3c101c1    ....    UBFX     r1,r1,#3,#2
        0x00018cec:    2902        .)      CMP      r1,#2
        0x00018cee:    bf06        ..      ITTE     EQ
        0x00018cf0:    2040        @       MOVEQ    r0,#0x40
        0x00018cf2:    f04f0c15    O...    MOVEQ    r12,#0x15
        0x00018cf6:    f04f0c0f    O...    MOVNE    r12,#0xf
        0x00018cfa:    eba0000c    ....    SUB      r0,r0,r12
        0x00018cfe:    f8d91024    ..$.    LDR      r1,[r9,#0x24]
        0x00018d02:    4788        .G      BLX      r1
        0x00018d04:    e7e4        ..      B        0x18cd0 ; am_hal_delay_us_status_change + 20
        0x00018d06:    2004        .       MOVS     r0,#4
        0x00018d08:    e8bd87f0    ....    POP      {r4-r10,pc}
    $d
        0x00018d0c:    40021000    ...@    DCD    1073876992
        0x00018d10:    0001b29c    ....    DCD    111260
    $t
    i.am_hal_delay_us_status_check
    am_hal_delay_us_status_check
        0x00018d14:    e92d47f0    -..G    PUSH     {r4-r10,lr}
        0x00018d18:    f8df9054    ..T.    LDR      r9,[pc,#84] ; [0x18d70] = 0x40021000
        0x00018d1c:    f8dfa054    ..T.    LDR      r10,[pc,#84] ; [0x18d74] = 0x1b29c
        0x00018d20:    f8dd8020    .. .    LDR      r8,[sp,#0x20]
        0x00018d24:    461c        .F      MOV      r4,r3
        0x00018d26:    4615        .F      MOV      r5,r2
        0x00018d28:    460e        .F      MOV      r6,r1
        0x00018d2a:    4607        .F      MOV      r7,r0
        0x00018d2c:    6830        0h      LDR      r0,[r6,#0]
        0x00018d2e:    f1b80f00    ....    CMP      r8,#0
        0x00018d32:    ea000005    ....    AND      r0,r0,r5
        0x00018d36:    d002        ..      BEQ      0x18d3e ; am_hal_delay_us_status_check + 42
        0x00018d38:    42a0        .B      CMP      r0,r4
        0x00018d3a:    d002        ..      BEQ      0x18d42 ; am_hal_delay_us_status_check + 46
        0x00018d3c:    e004        ..      B        0x18d48 ; am_hal_delay_us_status_check + 52
        0x00018d3e:    42a0        .B      CMP      r0,r4
        0x00018d40:    d002        ..      BEQ      0x18d48 ; am_hal_delay_us_status_check + 52
        0x00018d42:    2000        .       MOVS     r0,#0
        0x00018d44:    e8bd87f0    ....    POP      {r4-r10,pc}
        0x00018d48:    1e7f        ..      SUBS     r7,r7,#1
        0x00018d4a:    d30e        ..      BCC      0x18d6a ; am_hal_delay_us_status_check + 86
        0x00018d4c:    f8d91000    ....    LDR      r1,[r9,#0]
        0x00018d50:    2020                MOVS     r0,#0x20
        0x00018d52:    f3c101c1    ....    UBFX     r1,r1,#3,#2
        0x00018d56:    2902        .)      CMP      r1,#2
        0x00018d58:    bf06        ..      ITTE     EQ
        0x00018d5a:    2040        @       MOVEQ    r0,#0x40
        0x00018d5c:    2115        .!      MOVEQ    r1,#0x15
        0x00018d5e:    210f        .!      MOVNE    r1,#0xf
        0x00018d60:    1a40        @.      SUBS     r0,r0,r1
        0x00018d62:    f8da1024    ..$.    LDR      r1,[r10,#0x24]
        0x00018d66:    4788        .G      BLX      r1
        0x00018d68:    e7e0        ..      B        0x18d2c ; am_hal_delay_us_status_check + 24
        0x00018d6a:    2004        .       MOVS     r0,#4
        0x00018d6c:    e8bd87f0    ....    POP      {r4-r10,pc}
    $d
        0x00018d70:    40021000    ...@    DCD    1073876992
        0x00018d74:    0001b29c    ....    DCD    111260
    $t
    i.am_hal_gpio_interrupt_clear
    am_hal_gpio_interrupt_clear
        0x00018d78:    2900        .)      CMP      r1,#0
        0x00018d7a:    bf04        ..      ITT      EQ
        0x00018d7c:    2006        .       MOVEQ    r0,#6
        0x00018d7e:    4770        pG      BXEQ     lr
        0x00018d80:    b538        8.      PUSH     {r3-r5,lr}
        0x00018d82:    460c        .F      MOV      r4,r1
        0x00018d84:    68c9        .h      LDR      r1,[r1,#0xc]
        0x00018d86:    f0114f00    ...O    TST      r1,#0x80000000
        0x00018d8a:    bf1c        ..      ITT      NE
        0x00018d8c:    2005        .       MOVNE    r0,#5
        0x00018d8e:    bd38        8.      POPNE    {r3-r5,pc}
        0x00018d90:    4d26        &M      LDR      r5,[pc,#152] ; [0x18e2c] = 0x40010000
        0x00018d92:    2802        .(      CMP      r0,#2
        0x00018d94:    d003        ..      BEQ      0x18d9e ; am_hal_gpio_interrupt_clear + 38
        0x00018d96:    b308        ..      CBZ      r0,0x18ddc ; am_hal_gpio_interrupt_clear + 100
        0x00018d98:    2801        .(      CMP      r0,#1
        0x00018d9a:    d032        2.      BEQ      0x18e02 ; am_hal_gpio_interrupt_clear + 138
        0x00018d9c:    e043        C.      B        0x18e26 ; am_hal_gpio_interrupt_clear + 174
        0x00018d9e:    f7fffacb    ....    BL       am_hal_interrupt_master_disable ; 0x18338
        0x00018da2:    9000        ..      STR      r0,[sp,#0]
        0x00018da4:    6820         h      LDR      r0,[r4,#0]
        0x00018da6:    f8c502c8    ....    STR      r0,[r5,#0x2c8]
        0x00018daa:    6860        `h      LDR      r0,[r4,#4]
        0x00018dac:    f8c502d8    ....    STR      r0,[r5,#0x2d8]
        0x00018db0:    68a0        .h      LDR      r0,[r4,#8]
        0x00018db2:    f8c502e8    ....    STR      r0,[r5,#0x2e8]
        0x00018db6:    68e0        .h      LDR      r0,[r4,#0xc]
        0x00018db8:    f8c502f8    ....    STR      r0,[r5,#0x2f8]
        0x00018dbc:    6820         h      LDR      r0,[r4,#0]
        0x00018dbe:    f8c50308    ....    STR      r0,[r5,#0x308]
        0x00018dc2:    6860        `h      LDR      r0,[r4,#4]
        0x00018dc4:    f8c50318    ....    STR      r0,[r5,#0x318]
        0x00018dc8:    68a0        .h      LDR      r0,[r4,#8]
        0x00018dca:    f8c50328    ..(.    STR      r0,[r5,#0x328]
        0x00018dce:    68e0        .h      LDR      r0,[r4,#0xc]
        0x00018dd0:    f8c50338    ..8.    STR      r0,[r5,#0x338]
        0x00018dd4:    9800        ..      LDR      r0,[sp,#0]
        0x00018dd6:    f7fffab3    ....    BL       am_hal_interrupt_master_set ; 0x18340
        0x00018dda:    e024        $.      B        0x18e26 ; am_hal_gpio_interrupt_clear + 174
        0x00018ddc:    f7fffaac    ....    BL       am_hal_interrupt_master_disable ; 0x18338
        0x00018de0:    9000        ..      STR      r0,[sp,#0]
        0x00018de2:    6820         h      LDR      r0,[r4,#0]
        0x00018de4:    f8c502c8    ....    STR      r0,[r5,#0x2c8]
        0x00018de8:    6860        `h      LDR      r0,[r4,#4]
        0x00018dea:    f8c502d8    ....    STR      r0,[r5,#0x2d8]
        0x00018dee:    68a0        .h      LDR      r0,[r4,#8]
        0x00018df0:    f8c502e8    ....    STR      r0,[r5,#0x2e8]
        0x00018df4:    68e0        .h      LDR      r0,[r4,#0xc]
        0x00018df6:    f8c502f8    ....    STR      r0,[r5,#0x2f8]
        0x00018dfa:    9800        ..      LDR      r0,[sp,#0]
        0x00018dfc:    f7fffaa0    ....    BL       am_hal_interrupt_master_set ; 0x18340
        0x00018e00:    e011        ..      B        0x18e26 ; am_hal_gpio_interrupt_clear + 174
        0x00018e02:    f7fffa99    ....    BL       am_hal_interrupt_master_disable ; 0x18338
        0x00018e06:    9000        ..      STR      r0,[sp,#0]
        0x00018e08:    6820         h      LDR      r0,[r4,#0]
        0x00018e0a:    f8c50308    ....    STR      r0,[r5,#0x308]
        0x00018e0e:    6860        `h      LDR      r0,[r4,#4]
        0x00018e10:    f8c50318    ....    STR      r0,[r5,#0x318]
        0x00018e14:    68a0        .h      LDR      r0,[r4,#8]
        0x00018e16:    f8c50328    ..(.    STR      r0,[r5,#0x328]
        0x00018e1a:    68e0        .h      LDR      r0,[r4,#0xc]
        0x00018e1c:    f8c50338    ..8.    STR      r0,[r5,#0x338]
        0x00018e20:    9800        ..      LDR      r0,[sp,#0]
        0x00018e22:    f7fffa8d    ....    BL       am_hal_interrupt_master_set ; 0x18340
        0x00018e26:    2000        .       MOVS     r0,#0
        0x00018e28:    bd38        8.      POP      {r3-r5,pc}
    $d
        0x00018e2a:    0000        ..      DCW    0
        0x00018e2c:    40010000    ...@    DCD    1073807360
    $t
    i.am_hal_gpio_interrupt_control
    am_hal_gpio_interrupt_control
        0x00018e30:    e92d43f8    -..C    PUSH     {r3-r9,lr}
        0x00018e34:    460f        .F      MOV      r7,r1
        0x00018e36:    4606        .F      MOV      r6,r0
        0x00018e38:    f04f0800    O...    MOV      r8,#0
        0x00018e3c:    1e14        ..      SUBS     r4,r2,#0
        0x00018e3e:    d001        ..      BEQ      0x18e44 ; am_hal_gpio_interrupt_control + 20
        0x00018e40:    2f03        ./      CMP      r7,#3
        0x00018e42:    d902        ..      BLS      0x18e4a ; am_hal_gpio_interrupt_control + 26
        0x00018e44:    2006        .       MOVS     r0,#6
        0x00018e46:    e8bd83f8    ....    POP      {r3-r9,pc}
        0x00018e4a:    2f01        ./      CMP      r7,#1
        0x00018e4c:    d817        ..      BHI      0x18e7e ; am_hal_gpio_interrupt_control + 78
        0x00018e4e:    6821        !h      LDR      r1,[r4,#0]
        0x00018e50:    2980        .)      CMP      r1,#0x80
        0x00018e52:    d20b        ..      BCS      0x18e6c ; am_hal_gpio_interrupt_control + 60
        0x00018e54:    4a52        RJ      LDR      r2,[pc,#328] ; [0x18fa0] = 0x1b27c
        0x00018e56:    0948        H.      LSRS     r0,r1,#5
        0x00018e58:    f001031f    ....    AND      r3,r1,#0x1f
        0x00018e5c:    f8522020    R.      LDR      r2,[r2,r0,LSL #2]
        0x00018e60:    2101        .!      MOVS     r1,#1
        0x00018e62:    fa01f903    ....    LSL      r9,r1,r3
        0x00018e66:    ea120f09    ....    TST      r2,r9
        0x00018e6a:    d002        ..      BEQ      0x18e72 ; am_hal_gpio_interrupt_control + 66
        0x00018e6c:    2005        .       MOVS     r0,#5
        0x00018e6e:    e8bd83f8    ....    POP      {r3-r9,pc}
        0x00018e72:    494c        LI      LDR      r1,[pc,#304] ; [0x18fa4] = 0x400102c0
        0x00018e74:    2e01        ..      CMP      r6,#1
        0x00018e76:    eb011500    ....    ADD      r5,r1,r0,LSL #4
        0x00018e7a:    bf08        ..      IT       EQ
        0x00018e7c:    3540        @5      ADDEQ    r5,r5,#0x40
        0x00018e7e:    f7fffa5b    ..[.    BL       am_hal_interrupt_master_disable ; 0x18338
        0x00018e82:    9000        ..      STR      r0,[sp,#0]
        0x00018e84:    b13f        ?.      CBZ      r7,0x18e96 ; am_hal_gpio_interrupt_control + 102
        0x00018e86:    2f01        ./      CMP      r7,#1
        0x00018e88:    d010        ..      BEQ      0x18eac ; am_hal_gpio_interrupt_control + 124
        0x00018e8a:    4a47        GJ      LDR      r2,[pc,#284] ; [0x18fa8] = 0x40010000
        0x00018e8c:    2f02        ./      CMP      r7,#2
        0x00018e8e:    d019        ..      BEQ      0x18ec4 ; am_hal_gpio_interrupt_control + 148
        0x00018e90:    2f03        ./      CMP      r7,#3
        0x00018e92:    d049        I.      BEQ      0x18f28 ; am_hal_gpio_interrupt_control + 248
        0x00018e94:    e07d        }.      B        0x18f92 ; am_hal_gpio_interrupt_control + 354
        0x00018e96:    6828        (h      LDR      r0,[r5,#0]
        0x00018e98:    2e02        ..      CMP      r6,#2
        0x00018e9a:    ea200009     ...    BIC      r0,r0,r9
        0x00018e9e:    6028        (`      STR      r0,[r5,#0]
        0x00018ea0:    bf04        ..      ITT      EQ
        0x00018ea2:    6c28        (l      LDREQ    r0,[r5,#0x40]
        0x00018ea4:    ea200009     ...    BICEQ    r0,r0,r9
        0x00018ea8:    d173        s.      BNE      0x18f92 ; am_hal_gpio_interrupt_control + 354
        0x00018eaa:    e009        ..      B        0x18ec0 ; am_hal_gpio_interrupt_control + 144
        0x00018eac:    6828        (h      LDR      r0,[r5,#0]
        0x00018eae:    2e02        ..      CMP      r6,#2
        0x00018eb0:    ea400009    @...    ORR      r0,r0,r9
        0x00018eb4:    6028        (`      STR      r0,[r5,#0]
        0x00018eb6:    bf04        ..      ITT      EQ
        0x00018eb8:    6c28        (l      LDREQ    r0,[r5,#0x40]
        0x00018eba:    ea400009    @...    ORREQ    r0,r0,r9
        0x00018ebe:    d168        h.      BNE      0x18f92 ; am_hal_gpio_interrupt_control + 354
        0x00018ec0:    6428        (d      STR      r0,[r5,#0x40]
        0x00018ec2:    e066        f.      B        0x18f92 ; am_hal_gpio_interrupt_control + 354
        0x00018ec4:    2e01        ..      CMP      r6,#1
        0x00018ec6:    d018        ..      BEQ      0x18efa ; am_hal_gpio_interrupt_control + 202
        0x00018ec8:    f8d202c0    ....    LDR      r0,[r2,#0x2c0]
        0x00018ecc:    6821        !h      LDR      r1,[r4,#0]
        0x00018ece:    4388        .C      BICS     r0,r0,r1
        0x00018ed0:    f8c202c0    ....    STR      r0,[r2,#0x2c0]
        0x00018ed4:    f8d202d0    ....    LDR      r0,[r2,#0x2d0]
        0x00018ed8:    6861        ah      LDR      r1,[r4,#4]
        0x00018eda:    4388        .C      BICS     r0,r0,r1
        0x00018edc:    f8c202d0    ....    STR      r0,[r2,#0x2d0]
        0x00018ee0:    f8d202e0    ....    LDR      r0,[r2,#0x2e0]
        0x00018ee4:    68a1        .h      LDR      r1,[r4,#8]
        0x00018ee6:    4388        .C      BICS     r0,r0,r1
        0x00018ee8:    f8c202e0    ....    STR      r0,[r2,#0x2e0]
        0x00018eec:    f8d202f0    ....    LDR      r0,[r2,#0x2f0]
        0x00018ef0:    68e1        .h      LDR      r1,[r4,#0xc]
        0x00018ef2:    4388        .C      BICS     r0,r0,r1
        0x00018ef4:    f8c202f0    ....    STR      r0,[r2,#0x2f0]
        0x00018ef8:    b3f6        ..      CBZ      r6,0x18f78 ; am_hal_gpio_interrupt_control + 328
        0x00018efa:    f8d20300    ....    LDR      r0,[r2,#0x300]
        0x00018efe:    6821        !h      LDR      r1,[r4,#0]
        0x00018f00:    4388        .C      BICS     r0,r0,r1
        0x00018f02:    f8c20300    ....    STR      r0,[r2,#0x300]
        0x00018f06:    f8d20310    ....    LDR      r0,[r2,#0x310]
        0x00018f0a:    6861        ah      LDR      r1,[r4,#4]
        0x00018f0c:    4388        .C      BICS     r0,r0,r1
        0x00018f0e:    f8c20310    ....    STR      r0,[r2,#0x310]
        0x00018f12:    f8d20320    .. .    LDR      r0,[r2,#0x320]
        0x00018f16:    68a1        .h      LDR      r1,[r4,#8]
        0x00018f18:    4388        .C      BICS     r0,r0,r1
        0x00018f1a:    f8c20320    .. .    STR      r0,[r2,#0x320]
        0x00018f1e:    f8d20330    ..0.    LDR      r0,[r2,#0x330]
        0x00018f22:    68e1        .h      LDR      r1,[r4,#0xc]
        0x00018f24:    4388        .C      BICS     r0,r0,r1
        0x00018f26:    e032        2.      B        0x18f8e ; am_hal_gpio_interrupt_control + 350
        0x00018f28:    2e01        ..      CMP      r6,#1
        0x00018f2a:    d018        ..      BEQ      0x18f5e ; am_hal_gpio_interrupt_control + 302
        0x00018f2c:    f8d202c0    ....    LDR      r0,[r2,#0x2c0]
        0x00018f30:    6821        !h      LDR      r1,[r4,#0]
        0x00018f32:    4308        .C      ORRS     r0,r0,r1
        0x00018f34:    f8c202c0    ....    STR      r0,[r2,#0x2c0]
        0x00018f38:    f8d202d0    ....    LDR      r0,[r2,#0x2d0]
        0x00018f3c:    6861        ah      LDR      r1,[r4,#4]
        0x00018f3e:    4308        .C      ORRS     r0,r0,r1
        0x00018f40:    f8c202d0    ....    STR      r0,[r2,#0x2d0]
        0x00018f44:    f8d202e0    ....    LDR      r0,[r2,#0x2e0]
        0x00018f48:    68a1        .h      LDR      r1,[r4,#8]
        0x00018f4a:    4308        .C      ORRS     r0,r0,r1
        0x00018f4c:    f8c202e0    ....    STR      r0,[r2,#0x2e0]
        0x00018f50:    f8d202f0    ....    LDR      r0,[r2,#0x2f0]
        0x00018f54:    68e1        .h      LDR      r1,[r4,#0xc]
        0x00018f56:    4308        .C      ORRS     r0,r0,r1
        0x00018f58:    f8c202f0    ....    STR      r0,[r2,#0x2f0]
        0x00018f5c:    b166        f.      CBZ      r6,0x18f78 ; am_hal_gpio_interrupt_control + 328
        0x00018f5e:    f8d20300    ....    LDR      r0,[r2,#0x300]
        0x00018f62:    6821        !h      LDR      r1,[r4,#0]
        0x00018f64:    4308        .C      ORRS     r0,r0,r1
        0x00018f66:    f8c20300    ....    STR      r0,[r2,#0x300]
        0x00018f6a:    f8d20310    ....    LDR      r0,[r2,#0x310]
        0x00018f6e:    6861        ah      LDR      r1,[r4,#4]
        0x00018f70:    4308        .C      ORRS     r0,r0,r1
        0x00018f72:    f8c20310    ....    STR      r0,[r2,#0x310]
        0x00018f76:    e000        ..      B        0x18f7a ; am_hal_gpio_interrupt_control + 330
        0x00018f78:    e00b        ..      B        0x18f92 ; am_hal_gpio_interrupt_control + 354
        0x00018f7a:    f8d20320    .. .    LDR      r0,[r2,#0x320]
        0x00018f7e:    68a1        .h      LDR      r1,[r4,#8]
        0x00018f80:    4308        .C      ORRS     r0,r0,r1
        0x00018f82:    f8c20320    .. .    STR      r0,[r2,#0x320]
        0x00018f86:    f8d20330    ..0.    LDR      r0,[r2,#0x330]
        0x00018f8a:    68e1        .h      LDR      r1,[r4,#0xc]
        0x00018f8c:    4308        .C      ORRS     r0,r0,r1
        0x00018f8e:    f8c20330    ..0.    STR      r0,[r2,#0x330]
        0x00018f92:    9800        ..      LDR      r0,[sp,#0]
        0x00018f94:    f7fff9d4    ....    BL       am_hal_interrupt_master_set ; 0x18340
        0x00018f98:    4640        @F      MOV      r0,r8
        0x00018f9a:    e8bd83f8    ....    POP      {r3-r9,pc}
    $d
        0x00018f9e:    0000        ..      DCW    0
        0x00018fa0:    0001b27c    |...    DCD    111228
        0x00018fa4:    400102c0    ...@    DCD    1073808064
        0x00018fa8:    40010000    ...@    DCD    1073807360
    $t
    i.am_hal_gpio_interrupt_irq_clear
    am_hal_gpio_interrupt_irq_clear
        0x00018fac:    f1a00238    ..8.    SUB      r2,r0,#0x38
        0x00018fb0:    2a08        .*      CMP      r2,#8
        0x00018fb2:    bf24        $.      ITT      CS
        0x00018fb4:    2006        .       MOVCS    r0,#6
        0x00018fb6:    4770        pG      BXCS     lr
        0x00018fb8:    283b        ;(      CMP      r0,#0x3b
        0x00018fba:    bf8c        ..      ITE      HI
        0x00018fbc:    2201        ."      MOVHI    r2,#1
        0x00018fbe:    2200        ."      MOVLS    r2,#0
        0x00018fc0:    4253        SB      RSBS     r3,r2,#0
        0x00018fc2:    eb000083    ....    ADD      r0,r0,r3,LSL #2
        0x00018fc6:    0192        ..      LSLS     r2,r2,#6
        0x00018fc8:    3838        88      SUBS     r0,r0,#0x38
        0x00018fca:    eb021000    ....    ADD      r0,r2,r0,LSL #4
        0x00018fce:    4a02        .J      LDR      r2,[pc,#8] ; [0x18fd8] = 0x400102c8
        0x00018fd0:    5081        .P      STR      r1,[r0,r2]
        0x00018fd2:    2000        .       MOVS     r0,#0
        0x00018fd4:    4770        pG      BX       lr
    $d
        0x00018fd6:    0000        ..      DCW    0
        0x00018fd8:    400102c8    ...@    DCD    1073808072
    $t
    i.am_hal_gpio_interrupt_irq_status_get
    am_hal_gpio_interrupt_irq_status_get
        0x00018fdc:    e92d43f8    -..C    PUSH     {r3-r9,lr}
        0x00018fe0:    0014        ..      MOVS     r4,r2
        0x00018fe2:    460e        .F      MOV      r6,r1
        0x00018fe4:    f04f0500    O...    MOV      r5,#0
        0x00018fe8:    d003        ..      BEQ      0x18ff2 ; am_hal_gpio_interrupt_irq_status_get + 22
        0x00018fea:    2838        8(      CMP      r0,#0x38
        0x00018fec:    d301        ..      BCC      0x18ff2 ; am_hal_gpio_interrupt_irq_status_get + 22
        0x00018fee:    283f        ?(      CMP      r0,#0x3f
        0x00018ff0:    d902        ..      BLS      0x18ff8 ; am_hal_gpio_interrupt_irq_status_get + 28
        0x00018ff2:    2006        .       MOVS     r0,#6
        0x00018ff4:    e8bd83f8    ....    POP      {r3-r9,pc}
        0x00018ff8:    283b        ;(      CMP      r0,#0x3b
        0x00018ffa:    bf8c        ..      ITE      HI
        0x00018ffc:    2201        ."      MOVHI    r2,#1
        0x00018ffe:    2200        ."      MOVLS    r2,#0
        0x00019000:    4251        QB      RSBS     r1,r2,#0
        0x00019002:    eb000081    ....    ADD      r0,r0,r1,LSL #2
        0x00019006:    0191        ..      LSLS     r1,r2,#6
        0x00019008:    3838        88      SUBS     r0,r0,#0x38
        0x0001900a:    eb011000    ....    ADD      r0,r1,r0,LSL #4
        0x0001900e:    490c        .I      LDR      r1,[pc,#48] ; [0x19040] = 0x400102c0
        0x00019010:    eb000801    ....    ADD      r8,r0,r1
        0x00019014:    1d09        ..      ADDS     r1,r1,#4
        0x00019016:    1847        G.      ADDS     r7,r0,r1
        0x00019018:    f7fff98e    ....    BL       am_hal_interrupt_master_disable ; 0x18338
        0x0001901c:    9000        ..      STR      r0,[sp,#0]
        0x0001901e:    2e00        ..      CMP      r6,#0
        0x00019020:    bf14        ..      ITE      NE
        0x00019022:    f8d80000    ....    LDRNE    r0,[r8,#0]
        0x00019026:    f04f30ff    O..0    MOVEQ    r0,#0xffffffff
        0x0001902a:    6020         `      STR      r0,[r4,#0]
        0x0001902c:    6839        9h      LDR      r1,[r7,#0]
        0x0001902e:    4008        .@      ANDS     r0,r0,r1
        0x00019030:    6020         `      STR      r0,[r4,#0]
        0x00019032:    9800        ..      LDR      r0,[sp,#0]
        0x00019034:    f7fff984    ....    BL       am_hal_interrupt_master_set ; 0x18340
        0x00019038:    4628        (F      MOV      r0,r5
        0x0001903a:    e8bd83f8    ....    POP      {r3-r9,pc}
    $d
        0x0001903e:    0000        ..      DCW    0
        0x00019040:    400102c0    ...@    DCD    1073808064
    $t
    i.am_hal_gpio_interrupt_register
    am_hal_gpio_interrupt_register
        0x00019044:    b4f0        ..      PUSH     {r4-r7}
        0x00019046:    4c18        .L      LDR      r4,[pc,#96] ; [0x190a8] = 0x10004ea4
        0x00019048:    ea4f1c51    O.Q.    LSR      r12,r1,#5
        0x0001904c:    eb0415cc    ....    ADD      r5,r4,r12,LSL #7
        0x00019050:    f5046480    ...d    ADD      r4,r4,#0x400
        0x00019054:    eb0414cc    ....    ADD      r4,r4,r12,LSL #7
        0x00019058:    f0010c1f    ....    AND      r12,r1,#0x1f
        0x0001905c:    2800        .(      CMP      r0,#0
        0x0001905e:    bf04        ..      ITT      EQ
        0x00019060:    f845202c    E.,     STREQ    r2,[r5,r12,LSL #2]
        0x00019064:    f844302c    D.,0    STREQ    r3,[r4,r12,LSL #2]
        0x00019068:    d01b        ..      BEQ      0x190a2 ; am_hal_gpio_interrupt_register + 94
        0x0001906a:    0949        I.      LSRS     r1,r1,#5
        0x0001906c:    1d0e        ..      ADDS     r6,r1,#4
        0x0001906e:    490e        .I      LDR      r1,[pc,#56] ; [0x190a8] = 0x10004ea4
        0x00019070:    4f0e        .O      LDR      r7,[pc,#56] ; [0x190ac] = 0x100052a4
        0x00019072:    eb0111c6    ....    ADD      r1,r1,r6,LSL #7
        0x00019076:    eb0716c6    ....    ADD      r6,r7,r6,LSL #7
        0x0001907a:    2801        .(      CMP      r0,#1
        0x0001907c:    bf04        ..      ITT      EQ
        0x0001907e:    f841202c    A.,     STREQ    r2,[r1,r12,LSL #2]
        0x00019082:    f846302c    F.,0    STREQ    r3,[r6,r12,LSL #2]
        0x00019086:    d00c        ..      BEQ      0x190a2 ; am_hal_gpio_interrupt_register + 94
        0x00019088:    2802        .(      CMP      r0,#2
        0x0001908a:    bf1e        ..      ITTT     NE
        0x0001908c:    2006        .       MOVNE    r0,#6
        0x0001908e:    bcf0        ..      POPNE    {r4-r7}
        0x00019090:    4770        pG      BXNE     lr
        0x00019092:    f845202c    E.,     STR      r2,[r5,r12,LSL #2]
        0x00019096:    f844302c    D.,0    STR      r3,[r4,r12,LSL #2]
        0x0001909a:    f841202c    A.,     STR      r2,[r1,r12,LSL #2]
        0x0001909e:    f846302c    F.,0    STR      r3,[r6,r12,LSL #2]
        0x000190a2:    bcf0        ..      POP      {r4-r7}
        0x000190a4:    2000        .       MOVS     r0,#0
        0x000190a6:    4770        pG      BX       lr
    $d
        0x000190a8:    10004ea4    .N..    DCD    268455588
        0x000190ac:    100052a4    .R..    DCD    268456612
    $t
    i.am_hal_gpio_interrupt_service
    am_hal_gpio_interrupt_service
        0x000190b0:    e92d41f0    -..A    PUSH     {r4-r8,lr}
        0x000190b4:    2500        .%      MOVS     r5,#0
        0x000190b6:    3838        88      SUBS     r0,r0,#0x38
        0x000190b8:    460c        .F      MOV      r4,r1
        0x000190ba:    2808        .(      CMP      r0,#8
        0x000190bc:    bf24        $.      ITT      CS
        0x000190be:    2005        .       MOVCS    r0,#5
        0x000190c0:    e8bd81f0    ....    POPCS    {r4-r8,pc}
        0x000190c4:    b1d4        ..      CBZ      r4,0x190fc ; am_hal_gpio_interrupt_service + 76
        0x000190c6:    2701        .'      MOVS     r7,#1
        0x000190c8:    490e        .I      LDR      r1,[pc,#56] ; [0x19104] = 0x10004ea4
        0x000190ca:    eb0116c0    ....    ADD      r6,r1,r0,LSL #7
        0x000190ce:    f5016180    ...a    ADD      r1,r1,#0x400
        0x000190d2:    eb0118c0    ....    ADD      r8,r1,r0,LSL #7
        0x000190d6:    4260        `B      RSBS     r0,r4,#0
        0x000190d8:    4020         @      ANDS     r0,r0,r4
        0x000190da:    fab0f080    ....    CLZ      r0,r0
        0x000190de:    f1c0011f    ....    RSB      r1,r0,#0x1f
        0x000190e2:    fa07f001    ....    LSL      r0,r7,r1
        0x000190e6:    4384        .C      BICS     r4,r4,r0
        0x000190e8:    f8562021    V.!     LDR      r2,[r6,r1,LSL #2]
        0x000190ec:    f8580021    X.!.    LDR      r0,[r8,r1,LSL #2]
        0x000190f0:    2a00        .*      CMP      r2,#0
        0x000190f2:    bf0c        ..      ITE      EQ
        0x000190f4:    2507        .%      MOVEQ    r5,#7
        0x000190f6:    4790        .G      BLXNE    r2
        0x000190f8:    2c00        .,      CMP      r4,#0
        0x000190fa:    d1ec        ..      BNE      0x190d6 ; am_hal_gpio_interrupt_service + 38
        0x000190fc:    4628        (F      MOV      r0,r5
        0x000190fe:    e8bd81f0    ....    POP      {r4-r8,pc}
    $d
        0x00019102:    0000        ..      DCW    0
        0x00019104:    10004ea4    .N..    DCD    268455588
    $t
    i.am_hal_gpio_pinconfig
    am_hal_gpio_pinconfig
        0x00019108:    b533        3.      PUSH     {r0,r1,r4,r5,lr}
        0x0001910a:    4d1b        .M      LDR      r5,[pc,#108] ; [0x19178] = 0x40010000
        0x0001910c:    b081        ..      SUB      sp,sp,#4
        0x0001910e:    4604        .F      MOV      r4,r0
        0x00019110:    2880        .(      CMP      r0,#0x80
        0x00019112:    d209        ..      BCS      0x19128 ; am_hal_gpio_pinconfig + 32
        0x00019114:    4819        .H      LDR      r0,[pc,#100] ; [0x1917c] = 0x1b27c
        0x00019116:    0961        a.      LSRS     r1,r4,#5
        0x00019118:    f004031f    ....    AND      r3,r4,#0x1f
        0x0001911c:    f8502021    P.!     LDR      r2,[r0,r1,LSL #2]
        0x00019120:    2001        .       MOVS     r0,#1
        0x00019122:    4098        .@      LSLS     r0,r0,r3
        0x00019124:    4202        .B      TST      r2,r0
        0x00019126:    d002        ..      BEQ      0x1912e ; am_hal_gpio_pinconfig + 38
        0x00019128:    b003        ..      ADD      sp,sp,#0xc
        0x0001912a:    2005        .       MOVS     r0,#5
        0x0001912c:    bd30        0.      POP      {r4,r5,pc}
        0x0001912e:    9a02        ..      LDR      r2,[sp,#8]
        0x00019130:    f3c22281    ..."    UBFX     r2,r2,#10,#2
        0x00019134:    2a01        .*      CMP      r2,#1
        0x00019136:    d907        ..      BLS      0x19148 ; am_hal_gpio_pinconfig + 64
        0x00019138:    4a11        .J      LDR      r2,[pc,#68] ; [0x19180] = 0x1b28c
        0x0001913a:    f8521021    R.!.    LDR      r1,[r2,r1,LSL #2]
        0x0001913e:    4201        .B      TST      r1,r0
        0x00019140:    bf02        ..      ITTT     EQ
        0x00019142:    2007        .       MOVEQ    r0,#7
        0x00019144:    b003        ..      ADDEQ    sp,sp,#0xc
        0x00019146:    bd30        0.      POPEQ    {r4,r5,pc}
        0x00019148:    f7fff8f6    ....    BL       am_hal_interrupt_master_disable ; 0x18338
        0x0001914c:    9000        ..      STR      r0,[sp,#0]
        0x0001914e:    2073        s       MOVS     r0,#0x73
        0x00019150:    f8c50200    ....    STR      r0,[r5,#0x200]
        0x00019154:    9800        ..      LDR      r0,[sp,#0]
        0x00019156:    f7fff8f3    ....    BL       am_hal_interrupt_master_set ; 0x18340
        0x0001915a:    9802        ..      LDR      r0,[sp,#8]
        0x0001915c:    f8450024    E.$.    STR      r0,[r5,r4,LSL #2]
        0x00019160:    f7fff8ea    ....    BL       am_hal_interrupt_master_disable ; 0x18338
        0x00019164:    9000        ..      STR      r0,[sp,#0]
        0x00019166:    2000        .       MOVS     r0,#0
        0x00019168:    f8c50200    ....    STR      r0,[r5,#0x200]
        0x0001916c:    9800        ..      LDR      r0,[sp,#0]
        0x0001916e:    f7fff8e7    ....    BL       am_hal_interrupt_master_set ; 0x18340
        0x00019172:    b003        ..      ADD      sp,sp,#0xc
        0x00019174:    2000        .       MOVS     r0,#0
        0x00019176:    bd30        0.      POP      {r4,r5,pc}
    $d
        0x00019178:    40010000    ...@    DCD    1073807360
        0x0001917c:    0001b27c    |...    DCD    111228
        0x00019180:    0001b28c    ....    DCD    111244
    $t
    i.am_hal_gpio_state_write
    am_hal_gpio_state_write
        0x00019184:    b538        8.      PUSH     {r3-r5,lr}
        0x00019186:    f000021f    ....    AND      r2,r0,#0x1f
        0x0001918a:    2301        .#      MOVS     r3,#1
        0x0001918c:    fa03f502    ....    LSL      r5,r3,r2
        0x00019190:    f3c01041    ..A.    UBFX     r0,r0,#5,#2
        0x00019194:    0080        ..      LSLS     r0,r0,#2
        0x00019196:    f1004480    ...D    ADD      r4,r0,#0x40000000
        0x0001919a:    f5043480    ...4    ADD      r4,r4,#0x10000
        0x0001919e:    2906        .)      CMP      r1,#6
        0x000191a0:    d23f        ?.      BCS      0x19222 ; am_hal_gpio_state_write + 158
        0x000191a2:    e8dff001    ....    TBB      [pc,r1]
    $d
        0x000191a6:    0c03        ..      DCW    3075
        0x000191a8:    332a2115    .!*3    DCD    858398997
    $t
        0x000191ac:    f7fff8c4    ....    BL       am_hal_interrupt_master_disable ; 0x18338
        0x000191b0:    9000        ..      STR      r0,[sp,#0]
        0x000191b2:    f8c45234    ..4R    STR      r5,[r4,#0x234]
        0x000191b6:    9800        ..      LDR      r0,[sp,#0]
        0x000191b8:    f7fff8c2    ....    BL       am_hal_interrupt_master_set ; 0x18340
        0x000191bc:    e031        1.      B        0x19222 ; am_hal_gpio_state_write + 158
        0x000191be:    f7fff8bb    ....    BL       am_hal_interrupt_master_disable ; 0x18338
        0x000191c2:    9000        ..      STR      r0,[sp,#0]
        0x000191c4:    f8c45224    ..$R    STR      r5,[r4,#0x224]
        0x000191c8:    9800        ..      LDR      r0,[sp,#0]
        0x000191ca:    f7fff8b9    ....    BL       am_hal_interrupt_master_set ; 0x18340
        0x000191ce:    e028        (.      B        0x19222 ; am_hal_gpio_state_write + 158
        0x000191d0:    f7fff8b2    ....    BL       am_hal_interrupt_master_disable ; 0x18338
        0x000191d4:    9000        ..      STR      r0,[sp,#0]
        0x000191d6:    f8d40214    ....    LDR      r0,[r4,#0x214]
        0x000191da:    4068        h@      EORS     r0,r0,r5
        0x000191dc:    f8c40214    ....    STR      r0,[r4,#0x214]
        0x000191e0:    9800        ..      LDR      r0,[sp,#0]
        0x000191e2:    f7fff8ad    ....    BL       am_hal_interrupt_master_set ; 0x18340
        0x000191e6:    e01c        ..      B        0x19222 ; am_hal_gpio_state_write + 158
        0x000191e8:    f7fff8a6    ....    BL       am_hal_interrupt_master_disable ; 0x18338
        0x000191ec:    9000        ..      STR      r0,[sp,#0]
        0x000191ee:    f8c45264    ..dR    STR      r5,[r4,#0x264]
        0x000191f2:    9800        ..      LDR      r0,[sp,#0]
        0x000191f4:    f7fff8a4    ....    BL       am_hal_interrupt_master_set ; 0x18340
        0x000191f8:    e013        ..      B        0x19222 ; am_hal_gpio_state_write + 158
        0x000191fa:    f7fff89d    ....    BL       am_hal_interrupt_master_disable ; 0x18338
        0x000191fe:    9000        ..      STR      r0,[sp,#0]
        0x00019200:    f8c45254    ..TR    STR      r5,[r4,#0x254]
        0x00019204:    9800        ..      LDR      r0,[sp,#0]
        0x00019206:    f7fff89b    ....    BL       am_hal_interrupt_master_set ; 0x18340
        0x0001920a:    e00a        ..      B        0x19222 ; am_hal_gpio_state_write + 158
        0x0001920c:    f7fff894    ....    BL       am_hal_interrupt_master_disable ; 0x18338
        0x00019210:    9000        ..      STR      r0,[sp,#0]
        0x00019212:    f8d40244    ..D.    LDR      r0,[r4,#0x244]
        0x00019216:    4068        h@      EORS     r0,r0,r5
        0x00019218:    f8c40244    ..D.    STR      r0,[r4,#0x244]
        0x0001921c:    9800        ..      LDR      r0,[sp,#0]
        0x0001921e:    f7fff88f    ....    BL       am_hal_interrupt_master_set ; 0x18340
        0x00019222:    2000        .       MOVS     r0,#0
        0x00019224:    bd38        8.      POP      {r3-r5,pc}
        0x00019226:    0000        ..      MOVS     r0,r0
    i.am_hal_iom_blocking_transfer
    am_hal_iom_blocking_transfer
        0x00019228:    e92d4ff0    -..O    PUSH     {r4-r11,lr}
        0x0001922c:    b087        ..      SUB      sp,sp,#0x1c
        0x0001922e:    460c        .F      MOV      r4,r1
        0x00019230:    f1b00800    ....    SUBS     r8,r0,#0
        0x00019234:    f04f0700    O...    MOV      r7,#0
        0x00019238:    bf1c        ..      ITT      NE
        0x0001923a:    f8d80000    ....    LDRNE    r0,[r8,#0]
        0x0001923e:    f0107f80    ....    TSTNE    r0,#0x1000000
        0x00019242:    d004        ..      BEQ      0x1924e ; am_hal_iom_blocking_transfer + 38
        0x00019244:    49bd        .I      LDR      r1,[pc,#756] ; [0x1953c] = 0x123456
        0x00019246:    f020407f     ..@    BIC      r0,r0,#0xff000000
        0x0001924a:    4288        .B      CMP      r0,r1
        0x0001924c:    d003        ..      BEQ      0x19256 ; am_hal_iom_blocking_transfer + 46
        0x0001924e:    b007        ..      ADD      sp,sp,#0x1c
        0x00019250:    2002        .       MOVS     r0,#2
        0x00019252:    e8bd8ff0    ....    POP      {r4-r11,pc}
        0x00019256:    2c00        .,      CMP      r4,#0
        0x00019258:    bf02        ..      ITTT     EQ
        0x0001925a:    2006        .       MOVEQ    r0,#6
        0x0001925c:    b007        ..      ADDEQ    sp,sp,#0x1c
        0x0001925e:    e8bd8ff0    ....    POPEQ    {r4-r11,pc}
        0x00019262:    7d20         }      LDRB     r0,[r4,#0x14]
        0x00019264:    2801        .(      CMP      r0,#1
        0x00019266:    d87c        |.      BHI      0x19362 ; am_hal_iom_blocking_transfer + 314
        0x00019268:    f8d49010    ....    LDR      r9,[r4,#0x10]
        0x0001926c:    f1b90f00    ....    CMP      r9,#0
        0x00019270:    bf04        ..      ITT      EQ
        0x00019272:    2000        .       MOVEQ    r0,#0
        0x00019274:    7520         u      STRBEQ   r0,[r4,#0x14]
        0x00019276:    2201        ."      MOVS     r2,#1
        0x00019278:    4621        !F      MOV      r1,r4
        0x0001927a:    4640        @F      MOV      r0,r8
        0x0001927c:    f001feda    ....    BL       validate_transaction ; 0x1b034
        0x00019280:    2800        .(      CMP      r0,#0
        0x00019282:    bf1c        ..      ITT      NE
        0x00019284:    b007        ..      ADDNE    sp,sp,#0x1c
        0x00019286:    e8bd8ff0    ....    POPNE    {r4-r11,pc}
        0x0001928a:    f898082c    ..,.    LDRB     r0,[r8,#0x82c]
        0x0001928e:    2802        .(      CMP      r0,#2
        0x00019290:    d067        g.      BEQ      0x19362 ; am_hal_iom_blocking_transfer + 314
        0x00019292:    e9d4b002    ....    LDRD     r11,r0,[r4,#8]
        0x00019296:    f8d85004    ...P    LDR      r5,[r8,#4]
        0x0001929a:    9004        ..      STR      r0,[sp,#0x10]
        0x0001929c:    6860        `h      LDR      r0,[r4,#4]
        0x0001929e:    9002        ..      STR      r0,[sp,#8]
        0x000192a0:    f8940020    .. .    LDRB     r0,[r4,#0x20]
        0x000192a4:    f894a014    ....    LDRB     r10,[r4,#0x14]
        0x000192a8:    2800        .(      CMP      r0,#0
        0x000192aa:    bf18        ..      IT       NE
        0x000192ac:    2001        .       MOVNE    r0,#1
        0x000192ae:    9001        ..      STR      r0,[sp,#4]
        0x000192b0:    f1ba0f00    ....    CMP      r10,#0
        0x000192b4:    bf0c        ..      ITE      EQ
        0x000192b6:    69a6        .i      LDREQ    r6,[r4,#0x18]
        0x000192b8:    69e6        .i      LDRNE    r6,[r4,#0x1c]
        0x000192ba:    2001        .       MOVS     r0,#1
        0x000192bc:    9000        ..      STR      r0,[sp,#0]
        0x000192be:    2300        .#      MOVS     r3,#0
        0x000192c0:    1e5a        Z.      SUBS     r2,r3,#1
        0x000192c2:    f1080124    ..$.    ADD      r1,r8,#0x24
        0x000192c6:    f8d80860    ..`.    LDR      r0,[r8,#0x860]
        0x000192ca:    f7fffd23    ..#.    BL       am_hal_delay_us_status_check ; 0x18d14
        0x000192ce:    2800        .(      CMP      r0,#0
        0x000192d0:    bf1c        ..      ITT      NE
        0x000192d2:    b007        ..      ADDNE    sp,sp,#0x1c
        0x000192d4:    e8bd8ff0    ....    POPNE    {r4-r11,pc}
        0x000192d8:    2001        .       MOVS     r0,#1
        0x000192da:    9000        ..      STR      r0,[sp,#0]
        0x000192dc:    4898        .H      LDR      r0,[pc,#608] ; [0x19540] = 0x40050248
        0x000192de:    2304        .#      MOVS     r3,#4
        0x000192e0:    eb003105    ...1    ADD      r1,r0,r5,LSL #12
        0x000192e4:    9103        ..      STR      r1,[sp,#0xc]
        0x000192e6:    2206        ."      MOVS     r2,#6
        0x000192e8:    f8d80860    ..`.    LDR      r0,[r8,#0x860]
        0x000192ec:    f7fffd12    ....    BL       am_hal_delay_us_status_check ; 0x18d14
        0x000192f0:    2800        .(      CMP      r0,#0
        0x000192f2:    bf1c        ..      ITT      NE
        0x000192f4:    b007        ..      ADDNE    sp,sp,#0x1c
        0x000192f6:    e8bd8ff0    ....    POPNE    {r4-r11,pc}
        0x000192fa:    0328        (.      LSLS     r0,r5,#12
        0x000192fc:    f1004580    ...E    ADD      r5,r0,#0x40000000
        0x00019300:    f50525a0    ...%    ADD      r5,r5,#0x50000
        0x00019304:    f8d50200    ....    LDR      r0,[r5,#0x200]
        0x00019308:    9005        ..      STR      r0,[sp,#0x14]
        0x0001930a:    2000        .       MOVS     r0,#0
        0x0001930c:    f8c50200    ....    STR      r0,[r5,#0x200]
        0x00019310:    f8d50218    ....    LDR      r0,[r5,#0x218]
        0x00019314:    f0200001     ...    BIC      r0,r0,#1
        0x00019318:    f8c50218    ....    STR      r0,[r5,#0x218]
        0x0001931c:    f04f30ff    O..0    MOV      r0,#0xffffffff
        0x00019320:    f8c50208    ....    STR      r0,[r5,#0x208]
        0x00019324:    6820         h      LDR      r0,[r4,#0]
        0x00019326:    f8c502c4    ....    STR      r0,[r5,#0x2c4]
        0x0001932a:    f8980008    ....    LDRB     r0,[r8,#8]
        0x0001932e:    2800        .(      CMP      r0,#0
        0x00019330:    bf11        ..      ITEEE    NE
        0x00019332:    2000        .       MOVNE    r0,#0
        0x00019334:    6820         h      LDREQ    r0,[r4,#0]
        0x00019336:    f508610a    ...a    ADDEQ    r1,r8,#0x8a0
        0x0001933a:    5c40        @\      LDRBEQ   r0,[r0,r1]
        0x0001933c:    f8c50124    ..$.    STR      r0,[r5,#0x124]
        0x00019340:    f8980008    ....    LDRB     r0,[r8,#8]
        0x00019344:    2800        .(      CMP      r0,#0
        0x00019346:    bf0c        ..      ITE      EQ
        0x00019348:    6820         h      LDREQ    r0,[r4,#0]
        0x0001934a:    2000        .       MOVNE    r0,#0
        0x0001934c:    f44f1340    O.@.    MOV      r3,#0x300000
        0x00019350:    ea035000    ...P    AND      r0,r3,r0,LSL #20
        0x00019354:    4b7b        {K      LDR      r3,[pc,#492] ; [0x19544] = 0xfffff
        0x00019356:    ea032309    ...#    AND      r3,r3,r9,LSL #8
        0x0001935a:    4318        .C      ORRS     r0,r0,r3
        0x0001935c:    f8df91e8    ....    LDR      r9,[pc,#488] ; [0x19548] = 0x7a120
        0x00019360:    e000        ..      B        0x19364 ; am_hal_iom_blocking_transfer + 316
        0x00019362:    e04f        O.      B        0x19404 ; am_hal_iom_blocking_transfer + 476
        0x00019364:    e9dd2101    ...!    LDRD     r2,r1,[sp,#4]
        0x00019368:    f1ba0f01    ....    CMP      r10,#1
        0x0001936c:    bf0c        ..      ITE      EQ
        0x0001936e:    f0400002    @...    ORREQ    r0,r0,#2
        0x00019372:    f0400001    @...    ORRNE    r0,r0,#1
        0x00019376:    f04f0380    O...    MOV      r3,#0x80
        0x0001937a:    ea0312c2    ....    AND      r2,r3,r2,LSL #7
        0x0001937e:    ea420000    B...    ORR      r0,r2,r0
        0x00019382:    f04f0270    O.p.    MOV      r2,#0x70
        0x00019386:    ea40600b    @..`    ORR      r0,r0,r11,LSL #24
        0x0001938a:    ea021101    ....    AND      r1,r2,r1,LSL #4
        0x0001938e:    ea410000    A...    ORR      r0,r1,r0
        0x00019392:    9904        ..      LDR      r1,[sp,#0x10]
        0x00019394:    ea4f221b    O.."    LSR      r2,r11,#8
        0x00019398:    ea426101    B..a    ORR      r1,r2,r1,LSL #24
        0x0001939c:    f8c51128    ..(.    STR      r1,[r5,#0x128]
        0x000193a0:    6924        $i      LDR      r4,[r4,#0x10]
        0x000193a2:    d008        ..      BEQ      0x193b6 ; am_hal_iom_blocking_transfer + 398
        0x000193a4:    f1ba0f00    ....    CMP      r10,#0
        0x000193a8:    bf04        ..      ITT      EQ
        0x000193aa:    f8d51100    ....    LDREQ    r1,[r5,#0x100]
        0x000193ae:    f3c12107    ...!    UBFXEQ   r1,r1,#8,#8
        0x000193b2:    d05a        Z.      BEQ      0x1946a ; am_hal_iom_blocking_transfer + 578
        0x000193b4:    e08d        ..      B        0x194d2 ; am_hal_iom_blocking_transfer + 682
        0x000193b6:    f8c50120    .. .    STR      r0,[r5,#0x120]
        0x000193ba:    2c00        .,      CMP      r4,#0
        0x000193bc:    d047        G.      BEQ      0x1944e ; am_hal_iom_blocking_transfer + 550
        0x000193be:    bf00        ..      NOP      
        0x000193c0:    f8d50100    ....    LDR      r0,[r5,#0x100]
        0x000193c4:    f3c04307    ...C    UBFX     r3,r0,#16,#8
        0x000193c8:    2b04        .+      CMP      r3,#4
        0x000193ca:    bf38        8.      IT       CC
        0x000193cc:    f04f0a01    O...    MOVCC    r10,#1
        0x000193d0:    d23b        ;.      BCS      0x1944a ; am_hal_iom_blocking_transfer + 546
        0x000193d2:    2f00        ./      CMP      r7,#0
        0x000193d4:    bf18        ..      IT       NE
        0x000193d6:    429c        .B      CMPNE    r4,r3
        0x000193d8:    d811        ..      BHI      0x193fe ; am_hal_iom_blocking_transfer + 470
        0x000193da:    2001        .       MOVS     r0,#1
        0x000193dc:    f7fffc58    ..X.    BL       am_hal_delay_us ; 0x18c90
        0x000193e0:    f8d50204    ....    LDR      r0,[r5,#0x204]
        0x000193e4:    f0000701    ....    AND      r7,r0,#1
        0x000193e8:    f8d50100    ....    LDR      r0,[r5,#0x100]
        0x000193ec:    f3c04307    ...C    UBFX     r3,r0,#16,#8
        0x000193f0:    2b04        .+      CMP      r3,#4
        0x000193f2:    d22a        *.      BCS      0x1944a ; am_hal_iom_blocking_transfer + 546
        0x000193f4:    4650        PF      MOV      r0,r10
        0x000193f6:    f10a0a01    ....    ADD      r10,r10,#1
        0x000193fa:    4548        HE      CMP      r0,r9
        0x000193fc:    d3e9        ..      BCC      0x193d2 ; am_hal_iom_blocking_transfer + 426
        0x000193fe:    2b04        .+      CMP      r3,#4
        0x00019400:    d367        g.      BCC      0x194d2 ; am_hal_iom_blocking_transfer + 682
        0x00019402:    e022        ".      B        0x1944a ; am_hal_iom_blocking_transfer + 546
        0x00019404:    b007        ..      ADD      sp,sp,#0x1c
        0x00019406:    2007        .       MOVS     r0,#7
        0x00019408:    e8bd8ff0    ....    POP      {r4-r11,pc}
        0x0001940c:    f8d51108    ....    LDR      r1,[r5,#0x108]
        0x00019410:    1f1b        ..      SUBS     r3,r3,#4
        0x00019412:    2c04        .,      CMP      r4,#4
        0x00019414:    d303        ..      BCC      0x1941e ; am_hal_iom_blocking_transfer + 502
        0x00019416:    f8461b04    F...    STR      r1,[r6],#4
        0x0001941a:    1f24        $.      SUBS     r4,r4,#4
        0x0001941c:    e013        ..      B        0x19446 ; am_hal_iom_blocking_transfer + 542
        0x0001941e:    2c01        .,      CMP      r4,#1
        0x00019420:    bfd8        ..      IT       LE
        0x00019422:    2401        .$      MOVLE    r4,#1
        0x00019424:    1e72        r.      SUBS     r2,r6,#1
        0x00019426:    f0140f01    ....    TST      r4,#1
        0x0001942a:    d002        ..      BEQ      0x19432 ; am_hal_iom_blocking_transfer + 522
        0x0001942c:    f8021f01    ....    STRB     r1,[r2,#1]!
        0x00019430:    0a09        ..      LSRS     r1,r1,#8
        0x00019432:    1060        `.      ASRS     r0,r4,#1
        0x00019434:    d006        ..      BEQ      0x19444 ; am_hal_iom_blocking_transfer + 540
        0x00019436:    7051        Qp      STRB     r1,[r2,#1]
        0x00019438:    0a09        ..      LSRS     r1,r1,#8
        0x0001943a:    f8021f02    ....    STRB     r1,[r2,#2]!
        0x0001943e:    0a09        ..      LSRS     r1,r1,#8
        0x00019440:    1e40        @.      SUBS     r0,r0,#1
        0x00019442:    d1f8        ..      BNE      0x19436 ; am_hal_iom_blocking_transfer + 526
        0x00019444:    2400        .$      MOVS     r4,#0
        0x00019446:    2b04        .+      CMP      r3,#4
        0x00019448:    d302        ..      BCC      0x19450 ; am_hal_iom_blocking_transfer + 552
        0x0001944a:    2c00        .,      CMP      r4,#0
        0x0001944c:    d1de        ..      BNE      0x1940c ; am_hal_iom_blocking_transfer + 484
        0x0001944e:    e040        @.      B        0x194d2 ; am_hal_iom_blocking_transfer + 682
        0x00019450:    2c00        .,      CMP      r4,#0
        0x00019452:    d1b5        ..      BNE      0x193c0 ; am_hal_iom_blocking_transfer + 408
        0x00019454:    e03d        =.      B        0x194d2 ; am_hal_iom_blocking_transfer + 682
        0x00019456:    bf00        ..      NOP      
        0x00019458:    f8562b04    V..+    LDR      r2,[r6],#4
        0x0001945c:    f8c5210c    ...!    STR      r2,[r5,#0x10c]
        0x00019460:    1f09        ..      SUBS     r1,r1,#4
        0x00019462:    2c04        .,      CMP      r4,#4
        0x00019464:    bf2c        ,.      ITE      CS
        0x00019466:    1f24        $.      SUBCS    r4,r4,#4
        0x00019468:    2400        .$      MOVCC    r4,#0
        0x0001946a:    2904        .)      CMP      r1,#4
        0x0001946c:    d304        ..      BCC      0x19478 ; am_hal_iom_blocking_transfer + 592
        0x0001946e:    2c00        .,      CMP      r4,#0
        0x00019470:    d1f2        ..      BNE      0x19458 ; am_hal_iom_blocking_transfer + 560
        0x00019472:    f8c50120    .. .    STR      r0,[r5,#0x120]
        0x00019476:    e02c        ,.      B        0x194d2 ; am_hal_iom_blocking_transfer + 682
        0x00019478:    f8c50120    .. .    STR      r0,[r5,#0x120]
        0x0001947c:    b34c        L.      CBZ      r4,0x194d2 ; am_hal_iom_blocking_transfer + 682
        0x0001947e:    f8d50100    ....    LDR      r0,[r5,#0x100]
        0x00019482:    2700        .'      MOVS     r7,#0
        0x00019484:    f3c02007    ...     UBFX     r0,r0,#8,#8
        0x00019488:    2804        .(      CMP      r0,#4
        0x0001948a:    d214        ..      BCS      0x194b6 ; am_hal_iom_blocking_transfer + 654
        0x0001948c:    f8d51204    ....    LDR      r1,[r5,#0x204]
        0x00019490:    f0110f01    ....    TST      r1,#1
        0x00019494:    d11d        ..      BNE      0x194d2 ; am_hal_iom_blocking_transfer + 682
        0x00019496:    4639        9F      MOV      r1,r7
        0x00019498:    1c7f        ..      ADDS     r7,r7,#1
        0x0001949a:    4549        IE      CMP      r1,r9
        0x0001949c:    d209        ..      BCS      0x194b2 ; am_hal_iom_blocking_transfer + 650
        0x0001949e:    2001        .       MOVS     r0,#1
        0x000194a0:    f7fffbf6    ....    BL       am_hal_delay_us ; 0x18c90
        0x000194a4:    f8d50100    ....    LDR      r0,[r5,#0x100]
        0x000194a8:    f3c02007    ...     UBFX     r0,r0,#8,#8
        0x000194ac:    2804        .(      CMP      r0,#4
        0x000194ae:    d3ed        ..      BCC      0x1948c ; am_hal_iom_blocking_transfer + 612
        0x000194b0:    e001        ..      B        0x194b6 ; am_hal_iom_blocking_transfer + 654
        0x000194b2:    2804        .(      CMP      r0,#4
        0x000194b4:    d30d        ..      BCC      0x194d2 ; am_hal_iom_blocking_transfer + 682
        0x000194b6:    b164        d.      CBZ      r4,0x194d2 ; am_hal_iom_blocking_transfer + 682
        0x000194b8:    f8561b04    V...    LDR      r1,[r6],#4
        0x000194bc:    f8c5110c    ....    STR      r1,[r5,#0x10c]
        0x000194c0:    1f00        ..      SUBS     r0,r0,#4
        0x000194c2:    2c04        .,      CMP      r4,#4
        0x000194c4:    bf2c        ,.      ITE      CS
        0x000194c6:    1f24        $.      SUBCS    r4,r4,#4
        0x000194c8:    2400        .$      MOVCC    r4,#0
        0x000194ca:    2804        .(      CMP      r0,#4
        0x000194cc:    d2f3        ..      BCS      0x194b6 ; am_hal_iom_blocking_transfer + 654
        0x000194ce:    2c00        .,      CMP      r4,#0
        0x000194d0:    d1d5        ..      BNE      0x1947e ; am_hal_iom_blocking_transfer + 598
        0x000194d2:    2001        .       MOVS     r0,#1
        0x000194d4:    9000        ..      STR      r0,[sp,#0]
        0x000194d6:    2304        .#      MOVS     r3,#4
        0x000194d8:    2206        ."      MOVS     r2,#6
        0x000194da:    4648        HF      MOV      r0,r9
        0x000194dc:    9903        ..      LDR      r1,[sp,#0xc]
        0x000194de:    f7fffc19    ....    BL       am_hal_delay_us_status_check ; 0x18d14
        0x000194e2:    0006        ..      MOVS     r6,r0
        0x000194e4:    d011        ..      BEQ      0x1950a ; am_hal_iom_blocking_transfer + 738
        0x000194e6:    bf00        ..      NOP      
        0x000194e8:    f8d51204    ....    LDR      r1,[r5,#0x204]
        0x000194ec:    4640        @F      MOV      r0,r8
        0x000194ee:    f001fa29    ..).    BL       internal_iom_reset_on_error ; 0x1a944
        0x000194f2:    bf00        ..      NOP      
        0x000194f4:    f04f30ff    O..0    MOV      r0,#0xffffffff
        0x000194f8:    f8c50208    ....    STR      r0,[r5,#0x208]
        0x000194fc:    9805        ..      LDR      r0,[sp,#0x14]
        0x000194fe:    f8c50200    ....    STR      r0,[r5,#0x200]
        0x00019502:    b007        ..      ADD      sp,sp,#0x1c
        0x00019504:    4630        0F      MOV      r0,r6
        0x00019506:    e8bd8ff0    ....    POP      {r4-r11,pc}
        0x0001950a:    f8d50204    ....    LDR      r0,[r5,#0x204]
        0x0001950e:    f0100f6c    ..l.    TST      r0,#0x6c
        0x00019512:    bf18        ..      IT       NE
        0x00019514:    f04f6600    O..f    MOVNE    r6,#0x8000000
        0x00019518:    d1e6        ..      BNE      0x194e8 ; am_hal_iom_blocking_transfer + 704
        0x0001951a:    f4107f00    ....    TST      r0,#0x200
        0x0001951e:    bf18        ..      IT       NE
        0x00019520:    4e0a        .N      LDRNE    r6,[pc,#40] ; [0x1954c] = 0x8000001
        0x00019522:    d1e1        ..      BNE      0x194e8 ; am_hal_iom_blocking_transfer + 704
        0x00019524:    f0100f10    ....    TST      r0,#0x10
        0x00019528:    bf18        ..      IT       NE
        0x0001952a:    4e09        .N      LDRNE    r6,[pc,#36] ; [0x19550] = 0x8000002
        0x0001952c:    d1dc        ..      BNE      0x194e8 ; am_hal_iom_blocking_transfer + 704
        0x0001952e:    f4104f90    ...O    TST      r0,#0x4800
        0x00019532:    bf0c        ..      ITE      EQ
        0x00019534:    2c00        .,      CMPEQ    r4,#0
        0x00019536:    2601        .&      MOVNE    r6,#1
        0x00019538:    d1d6        ..      BNE      0x194e8 ; am_hal_iom_blocking_transfer + 704
        0x0001953a:    e7db        ..      B        0x194f4 ; am_hal_iom_blocking_transfer + 716
    $d
        0x0001953c:    00123456    V4..    DCD    1193046
        0x00019540:    40050248    H..@    DCD    1074070088
        0x00019544:    000fffff    ....    DCD    1048575
        0x00019548:    0007a120     ...    DCD    500000
        0x0001954c:    08000001    ....    DCD    134217729
        0x00019550:    08000002    ....    DCD    134217730
    $t
    i.am_hal_iom_configure
    am_hal_iom_configure
        0x00019554:    e92d4ff0    -..O    PUSH     {r4-r11,lr}
        0x00019558:    1e02        ..      SUBS     r2,r0,#0
        0x0001955a:    bf1c        ..      ITT      NE
        0x0001955c:    6813        .h      LDRNE    r3,[r2,#0]
        0x0001955e:    f0137f80    ....    TSTNE    r3,#0x1000000
        0x00019562:    d005        ..      BEQ      0x19570 ; am_hal_iom_configure + 28
        0x00019564:    f8dfc2a4    ....    LDR      r12,[pc,#676] ; [0x1980c] = 0x123456
        0x00019568:    f023407f    #..@    BIC      r0,r3,#0xff000000
        0x0001956c:    4560        `E      CMP      r0,r12
        0x0001956e:    d002        ..      BEQ      0x19576 ; am_hal_iom_configure + 34
        0x00019570:    2002        .       MOVS     r0,#2
        0x00019572:    e8bd8ff0    ....    POP      {r4-r11,pc}
        0x00019576:    2900        .)      CMP      r1,#0
        0x00019578:    bf1c        ..      ITT      NE
        0x0001957a:    6850        Ph      LDRNE    r0,[r2,#4]
        0x0001957c:    2808        .(      CMPNE    r0,#8
        0x0001957e:    d22e        ..      BCS      0x195de ; am_hal_iom_configure + 138
        0x00019580:    f0137f00    ....    TST      r3,#0x2000000
        0x00019584:    bf1c        ..      ITT      NE
        0x00019586:    2007        .       MOVNE    r0,#7
        0x00019588:    e8bd8ff0    ....    POPNE    {r4-r11,pc}
        0x0001958c:    780b        .x      LDRB     r3,[r1,#0]
        0x0001958e:    0300        ..      LSLS     r0,r0,#12
        0x00019590:    f1004680    ...F    ADD      r6,r0,#0x40000000
        0x00019594:    7213        .r      STRB     r3,[r2,#8]
        0x00019596:    f50626a0    ...&    ADD      r6,r6,#0x50000
        0x0001959a:    f2410310    A...    MOV      r3,#0x1010
        0x0001959e:    f8c63104    ...1    STR      r3,[r6,#0x104]
        0x000195a2:    7808        .x      LDRB     r0,[r1,#0]
        0x000195a4:    b1f0        ..      CBZ      r0,0x195e4 ; am_hal_iom_configure + 144
        0x000195a6:    2801        .(      CMP      r0,#1
        0x000195a8:    bf1c        ..      ITT      NE
        0x000195aa:    2005        .       MOVNE    r0,#5
        0x000195ac:    e8bd8ff0    ....    POPNE    {r4-r11,pc}
        0x000195b0:    6848        Hh      LDR      r0,[r1,#4]
        0x000195b2:    f5a060d4    ...`    SUB      r0,r0,#0x6a0
        0x000195b6:    f5b030c0    ...0    SUBS     r0,r0,#0x18000
        0x000195ba:    bf04        ..      ITT      EQ
        0x000195bc:    4b94        .K      LDREQ    r3,[pc,#592] ; [0x19810] = 0x773b1301
        0x000195be:    4895        .H      LDREQ    r0,[pc,#596] ; [0x19814] = 0x3f070
        0x000195c0:    f00080d6    ....    BEQ.W    0x19770 ; am_hal_iom_configure + 540
        0x000195c4:    f5a0509f    ...P    SUB      r0,r0,#0x13e0
        0x000195c8:    f5b02090    ...     SUBS     r0,r0,#0x48000
        0x000195cc:    bf04        ..      ITT      EQ
        0x000195ce:    4b92        .K      LDREQ    r3,[pc,#584] ; [0x19818] = 0x1d0e1301
        0x000195d0:    4892        .H      LDREQ    r0,[pc,#584] ; [0x1981c] = 0x3f270
        0x000195d2:    d07c        |.      BEQ      0x196ce ; am_hal_iom_configure + 378
        0x000195d4:    f5a0501f    ...P    SUB      r0,r0,#0x27c0
        0x000195d8:    f5b02f10    .../    CMP      r0,#0x90000
        0x000195dc:    d078        x.      BEQ      0x196d0 ; am_hal_iom_configure + 380
        0x000195de:    2006        .       MOVS     r0,#6
        0x000195e0:    e8bd8ff0    ....    POP      {r4-r11,pc}
        0x000195e4:    7a0f        .z      LDRB     r7,[r1,#8]
        0x000195e6:    2f03        ./      CMP      r7,#3
        0x000195e8:    d8f9        ..      BHI      0x195de ; am_hal_iom_configure + 138
        0x000195ea:    488d        .H      LDR      r0,[pc,#564] ; [0x19820] = 0x2dc6c00
        0x000195ec:    684b        Kh      LDR      r3,[r1,#4]
        0x000195ee:    4283        .B      CMP      r3,r0
        0x000195f0:    d8f5        ..      BHI      0x195de ; am_hal_iom_configure + 138
        0x000195f2:    f3c70940    ..@.    UBFX     r9,r7,#1,#1
        0x000195f6:    2b00        .+      CMP      r3,#0
        0x000195f8:    d06b        k.      BEQ      0x196d2 ; am_hal_iom_configure + 382
        0x000195fa:    0040        @.      LSLS     r0,r0,#1
        0x000195fc:    fbb0fcf3    ....    UDIV     r12,r0,r3
        0x00019600:    fbb0f4f3    ....    UDIV     r4,r0,r3
        0x00019604:    fb030014    ....    MLS      r0,r3,r4,r0
        0x00019608:    2800        .(      CMP      r0,#0
        0x0001960a:    bf18        ..      IT       NE
        0x0001960c:    2001        .       MOVNE    r0,#1
        0x0001960e:    eb0c0400    ....    ADD      r4,r12,r0
        0x00019612:    4260        `B      RSBS     r0,r4,#0
        0x00019614:    4020         @      ANDS     r0,r0,r4
        0x00019616:    fab0f080    ....    CLZ      r0,r0
        0x0001961a:    f1c00c1f    ....    RSB      r12,r0,#0x1f
        0x0001961e:    f1bc0f06    ....    CMP      r12,#6
        0x00019622:    f30080ef    ....    BGT.W    0x19804 ; am_hal_iom_configure + 688
        0x00019626:    bf00        ..      NOP      
        0x00019628:    f24160e3    A..`    MOV      r0,#0x16e3
        0x0001962c:    4283        .B      CMP      r3,r0
        0x0001962e:    d309        ..      BCC      0x19644 ; am_hal_iom_configure + 240
        0x00019630:    f1a370f4    ...p    SUB      r0,r3,#0x1e80000
        0x00019634:    4d7b        {M      LDR      r5,[pc,#492] ; [0x19824] = 0xf423ff
        0x00019636:    f5a04090    ...@    SUB      r0,r0,#0x4800
        0x0001963a:    4285        .B      CMP      r5,r0
        0x0001963c:    bf38        8.      IT       CC
        0x0001963e:    f04f0a00    O...    MOVCC    r10,#0
        0x00019642:    d301        ..      BCC      0x19648 ; am_hal_iom_configure + 244
        0x00019644:    f04f0a01    O...    MOV      r10,#1
        0x00019648:    2001        .       MOVS     r0,#1
        0x0001964a:    eb00084a    ..J.    ADD      r8,r0,r10,LSL #1
        0x0001964e:    fa08f00c    ....    LSL      r0,r8,r12
        0x00019652:    fbb4f5f0    ....    UDIV     r5,r4,r0
        0x00019656:    fbb4fbf0    ....    UDIV     r11,r4,r0
        0x0001965a:    fb00401b    ...@    MLS      r0,r0,r11,r4
        0x0001965e:    2800        .(      CMP      r0,#0
        0x00019660:    bf18        ..      IT       NE
        0x00019662:    2001        .       MOVNE    r0,#1
        0x00019664:    4428        (D      ADD      r0,r0,r5
        0x00019666:    fab0f580    ....    CLZ      r5,r0
        0x0001966a:    f1c5051f    ....    RSB      r5,r5,#0x1f
        0x0001966e:    2d07        .-      CMP      r5,#7
        0x00019670:    bf84        ..      ITT      HI
        0x00019672:    44ac        .D      ADDHI    r12,r12,r5
        0x00019674:    f1ac0c07    ....    SUBHI    r12,r12,#7
        0x00019678:    f10c0c01    ....    ADD      r12,r12,#1
        0x0001967c:    f1bc0f07    ....    CMP      r12,#7
        0x00019680:    bf88        ..      IT       HI
        0x00019682:    2300        .#      MOVHI    r3,#0
        0x00019684:    d86f        o.      BHI      0x19766 ; am_hal_iom_configure + 530
        0x00019686:    2d07        .-      CMP      r5,#7
        0x00019688:    d90e        ..      BLS      0x196a8 ; am_hal_iom_configure + 340
        0x0001968a:    1fed        ..      SUBS     r5,r5,#7
        0x0001968c:    fa20fb05     ...    LSR      r11,r0,r5
        0x00019690:    f04f0e01    O...    MOV      lr,#1
        0x00019694:    fa0ef505    ....    LSL      r5,lr,r5
        0x00019698:    fbb0fef5    ....    UDIV     lr,r0,r5
        0x0001969c:    fb05001e    ....    MLS      r0,r5,lr,r0
        0x000196a0:    2800        .(      CMP      r0,#0
        0x000196a2:    bf18        ..      IT       NE
        0x000196a4:    2001        .       MOVNE    r0,#1
        0x000196a6:    4458        XD      ADD      r0,r0,r11
        0x000196a8:    4d5f        _M      LDR      r5,[pc,#380] ; [0x19828] = 0x16e3600
        0x000196aa:    42ab        .B      CMP      r3,r5
        0x000196ac:    d207        ..      BCS      0x196be ; am_hal_iom_configure + 362
        0x000196ae:    f1ac0501    ....    SUB      r5,r12,#1
        0x000196b2:    2301        .#      MOVS     r3,#1
        0x000196b4:    40ab        .@      LSLS     r3,r3,r5
        0x000196b6:    42a3        .B      CMP      r3,r4
        0x000196b8:    bf18        ..      IT       NE
        0x000196ba:    2401        .$      MOVNE    r4,#1
        0x000196bc:    d100        ..      BNE      0x196c0 ; am_hal_iom_configure + 364
        0x000196be:    2400        .$      MOVS     r4,#0
        0x000196c0:    f1b90f00    ....    CMP      r9,#0
        0x000196c4:    bf14        ..      ITE      NE
        0x000196c6:    1e83        ..      SUBNE    r3,r0,#2
        0x000196c8:    1e43        C.      SUBEQ    r3,r0,#1
        0x000196ca:    085b        [.      LSRS     r3,r3,#1
        0x000196cc:    e002        ..      B        0x196d4 ; am_hal_iom_configure + 384
        0x000196ce:    e04f        O.      B        0x19770 ; am_hal_iom_configure + 540
        0x000196d0:    e051        Q.      B        0x19776 ; am_hal_iom_configure + 546
        0x000196d2:    e048        H.      B        0x19766 ; am_hal_iom_configure + 530
        0x000196d4:    f44f65e0    O..e    MOV      r5,#0x700
        0x000196d8:    ea05290c    ...)    AND      r9,r5,r12,LSL #8
        0x000196dc:    f44f6500    O..e    MOV      r5,#0x800
        0x000196e0:    ea0525ca    ...%    AND      r5,r5,r10,LSL #11
        0x000196e4:    f44f5a80    O..Z    MOV      r10,#0x1000
        0x000196e8:    ea490505    I...    ORR      r5,r9,r5
        0x000196ec:    ea0a3a04    ...:    AND      r10,r10,r4,LSL #12
        0x000196f0:    ea45050a    E...    ORR      r5,r5,r10
        0x000196f4:    f44f0a7f    O...    MOV      r10,#0xff0000
        0x000196f8:    ea0a4303    ...C    AND      r3,r10,r3,LSL #16
        0x000196fc:    432b        +C      ORRS     r3,r3,r5
        0x000196fe:    f04f457f    O..E    MOV      r5,#0xff000000
        0x00019702:    eb056500    ...e    ADD      r5,r5,r0,LSL #24
        0x00019706:    f1ac0c01    ....    SUB      r12,r12,#1
        0x0001970a:    fa08f80c    ....    LSL      r8,r8,r12
        0x0001970e:    1e40        @.      SUBS     r0,r0,#1
        0x00019710:    432b        +C      ORRS     r3,r3,r5
        0x00019712:    4360        `C      MULS     r0,r4,r0
        0x00019714:    4d45        EM      LDR      r5,[pc,#276] ; [0x1982c] = 0x5b8d800
        0x00019716:    1c40        @.      ADDS     r0,r0,#1
        0x00019718:    fb08f000    ....    MUL      r0,r8,r0
        0x0001971c:    fbb5f8f0    ....    UDIV     r8,r5,r0
        0x00019720:    fbb5f4f0    ....    UDIV     r4,r5,r0
        0x00019724:    fb005818    ...X    MLS      r8,r0,r8,r5
        0x00019728:    ebb80f50    ..P.    CMP      r8,r0,LSR #1
        0x0001972c:    bf8c        ..      ITE      HI
        0x0001972e:    2001        .       MOVHI    r0,#1
        0x00019730:    2000        .       MOVLS    r0,#0
        0x00019732:    4404        .D      ADD      r4,r4,r0
        0x00019734:    483e        >H      LDR      r0,[pc,#248] ; [0x19830] = 0x3d090
        0x00019736:    fbb4f8f0    ....    UDIV     r8,r4,r0
        0x0001973a:    fb004818    ...H    MLS      r8,r0,r8,r4
        0x0001973e:    f1b80f00    ....    CMP      r8,#0
        0x00019742:    d110        ..      BNE      0x19766 ; am_hal_iom_configure + 530
        0x00019744:    fbb4f0f0    ....    UDIV     r0,r4,r0
        0x00019748:    b168        h.      CBZ      r0,0x19766 ; am_hal_iom_configure + 530
        0x0001974a:    f1a00801    ....    SUB      r8,r0,#1
        0x0001974e:    ea100f08    ....    TST      r0,r8
        0x00019752:    d108        ..      BNE      0x19766 ; am_hal_iom_configure + 530
        0x00019754:    2003        .       MOVS     r0,#3
        0x00019756:    fa00f00c    ....    LSL      r0,r0,r12
        0x0001975a:    fbb5f3f0    ....    UDIV     r3,r5,r0
        0x0001975e:    fbb5fcf0    ....    UDIV     r12,r5,r0
        0x00019762:    f4496300    I..c    ORR      r3,r9,#0x800
        0x00019766:    f0070003    ....    AND      r0,r7,#3
        0x0001976a:    f8c60280    ....    STR      r0,[r6,#0x280]
        0x0001976e:    e006        ..      B        0x1977e ; am_hal_iom_configure + 554
        0x00019770:    f8c602c0    ....    STR      r0,[r6,#0x2c0]
        0x00019774:    e003        ..      B        0x1977e ; am_hal_iom_configure + 554
        0x00019776:    4b2f        /K      LDR      r3,[pc,#188] ; [0x19834] = 0xb051301
        0x00019778:    482f        /H      LDR      r0,[pc,#188] ; [0x19838] = 0x23040
        0x0001977a:    f8c602c0    ....    STR      r0,[r6,#0x2c0]
        0x0001977e:    f0430001    C...    ORR      r0,r3,#1
        0x00019782:    f8c60118    ....    STR      r0,[r6,#0x118]
        0x00019786:    4b2d        -K      LDR      r3,[pc,#180] ; [0x1983c] = 0xf4240
        0x00019788:    6848        Hh      LDR      r0,[r1,#4]
        0x0001978a:    fbb3f0f0    ....    UDIV     r0,r3,r0
        0x0001978e:    f8c20864    ..d.    STR      r0,[r2,#0x864]
        0x00019792:    f44f707a    O.zp    MOV      r0,#0x3e8
        0x00019796:    f8c20860    ..`.    STR      r0,[r2,#0x860]
        0x0001979a:    68c8        .h      LDR      r0,[r1,#0xc]
        0x0001979c:    60d0        .`      STR      r0,[r2,#0xc]
        0x0001979e:    6909        .i      LDR      r1,[r1,#0x10]
        0x000197a0:    6111        .a      STR      r1,[r2,#0x10]
        0x000197a2:    b348        H.      CBZ      r0,0x197f8 ; am_hal_iom_configure + 676
        0x000197a4:    eb000081    ....    ADD      r0,r0,r1,LSL #2
        0x000197a8:    4925        %I      LDR      r1,[pc,#148] ; [0x19840] = 0x10060000
        0x000197aa:    4288        .B      CMP      r0,r1
        0x000197ac:    bf2c        ,.      ITE      CS
        0x000197ae:    2000        .       MOVCS    r0,#0
        0x000197b0:    2001        .       MOVCC    r0,#1
        0x000197b2:    f88208a4    ....    STRB     r0,[r2,#0x8a4]
        0x000197b6:    2800        .(      CMP      r0,#0
        0x000197b8:    bf18        ..      IT       NE
        0x000197ba:    6910        .i      LDRNE    r0,[r2,#0x10]
        0x000197bc:    d10d        ..      BNE      0x197da ; am_hal_iom_configure + 646
        0x000197be:    68d1        .h      LDR      r1,[r2,#0xc]
        0x000197c0:    6913        .i      LDR      r3,[r2,#0x10]
        0x000197c2:    f101000f    ....    ADD      r0,r1,#0xf
        0x000197c6:    f020000f     ...    BIC      r0,r0,#0xf
        0x000197ca:    f001010f    ....    AND      r1,r1,#0xf
        0x000197ce:    ebc10183    ....    RSB      r1,r1,r3,LSL #2
        0x000197d2:    60d0        .`      STR      r0,[r2,#0xc]
        0x000197d4:    0908        ..      LSRS     r0,r1,#4
        0x000197d6:    0080        ..      LSLS     r0,r0,#2
        0x000197d8:    6110        .a      STR      r0,[r2,#0x10]
        0x000197da:    0080        ..      LSLS     r0,r0,#2
        0x000197dc:    4919        .I      LDR      r1,[pc,#100] ; [0x19844] = 0xaaaaaaab
        0x000197de:    3820         8      SUBS     r0,r0,#0x20
        0x000197e0:    fba11000    ....    UMULL    r1,r0,r1,r0
        0x000197e4:    0980        ..      LSRS     r0,r0,#6
        0x000197e6:    f8c20858    ..X.    STR      r0,[r2,#0x858]
        0x000197ea:    f5b07f80    ....    CMP      r0,#0x100
        0x000197ee:    bf88        ..      IT       HI
        0x000197f0:    f44f7080    O..p    MOVHI    r0,#0x100
        0x000197f4:    f8c20858    ..X.    STR      r0,[r2,#0x858]
        0x000197f8:    2000        .       MOVS     r0,#0
        0x000197fa:    f8c208a0    ....    STR      r0,[r2,#0x8a0]
        0x000197fe:    e8bd8ff0    ....    POP      {r4-r11,pc}
        0x00019802:    bf00        ..      NOP      
        0x00019804:    f04f0c06    O...    MOV      r12,#6
        0x00019808:    e70e        ..      B        0x19628 ; am_hal_iom_configure + 212
    $d
        0x0001980a:    0000        ..      DCW    0
        0x0001980c:    00123456    V4..    DCD    1193046
        0x00019810:    773b1301    ..;w    DCD    2000360193
        0x00019814:    0003f070    p...    DCD    258160
        0x00019818:    1d0e1301    ....    DCD    487461633
        0x0001981c:    0003f270    p...    DCD    258672
        0x00019820:    02dc6c00    .l..    DCD    48000000
        0x00019824:    00f423ff    .#..    DCD    15999999
        0x00019828:    016e3600    .6n.    DCD    24000000
        0x0001982c:    05b8d800    ....    DCD    96000000
        0x00019830:    0003d090    ....    DCD    250000
        0x00019834:    0b051301    ....    DCD    184881921
        0x00019838:    00023040    @0..    DCD    143424
        0x0001983c:    000f4240    @B..    DCD    1000000
        0x00019840:    10060000    ....    DCD    268828672
        0x00019844:    aaaaaaab    ....    DCD    2863311531
    $t
    i.am_hal_iom_enable
    am_hal_iom_enable
        0x00019848:    b530        0.      PUSH     {r4,r5,lr}
        0x0001984a:    b083        ..      SUB      sp,sp,#0xc
        0x0001984c:    1e04        ..      SUBS     r4,r0,#0
        0x0001984e:    f04f0100    O...    MOV      r1,#0
        0x00019852:    bf1c        ..      ITT      NE
        0x00019854:    6820         h      LDRNE    r0,[r4,#0]
        0x00019856:    f0107f80    ....    TSTNE    r0,#0x1000000
        0x0001985a:    d004        ..      BEQ      0x19866 ; am_hal_iom_enable + 30
        0x0001985c:    4b3f        ?K      LDR      r3,[pc,#252] ; [0x1995c] = 0x123456
        0x0001985e:    f020427f     ..B    BIC      r2,r0,#0xff000000
        0x00019862:    429a        .B      CMP      r2,r3
        0x00019864:    d002        ..      BEQ      0x1986c ; am_hal_iom_enable + 36
        0x00019866:    b003        ..      ADD      sp,sp,#0xc
        0x00019868:    2002        .       MOVS     r0,#2
        0x0001986a:    bd30        0.      POP      {r4,r5,pc}
        0x0001986c:    f0107f00    ....    TST      r0,#0x2000000
        0x00019870:    bf1e        ..      ITTT     NE
        0x00019872:    2000        .       MOVNE    r0,#0
        0x00019874:    b003        ..      ADDNE    sp,sp,#0xc
        0x00019876:    bd30        0.      POPNE    {r4,r5,pc}
        0x00019878:    7a22        "z      LDRB     r2,[r4,#8]
        0x0001987a:    6860        `h      LDR      r0,[r4,#4]
        0x0001987c:    2a00        .*      CMP      r2,#0
        0x0001987e:    bf14        ..      ITE      NE
        0x00019880:    f04f0c01    O...    MOVNE    r12,#1
        0x00019884:    f04f0c00    O...    MOVEQ    r12,#0
        0x00019888:    0300        ..      LSLS     r0,r0,#12
        0x0001988a:    f1004380    ...C    ADD      r3,r0,#0x40000000
        0x0001988e:    f50323a0    ...#    ADD      r3,r3,#0x50000
        0x00019892:    f8d3011c    ....    LDR      r0,[r3,#0x11c]
        0x00019896:    2201        ."      MOVS     r2,#1
        0x00019898:    f3c00542    ..B.    UBFX     r5,r0,#1,#3
        0x0001989c:    2000        .       MOVS     r0,#0
        0x0001989e:    4565        eE      CMP      r5,r12
        0x000198a0:    bf08        ..      IT       EQ
        0x000198a2:    f8c3211c    ...!    STREQ    r2,[r3,#0x11c]
        0x000198a6:    d00d        ..      BEQ      0x198c4 ; am_hal_iom_enable + 124
        0x000198a8:    f8d3511c    ...Q    LDR      r5,[r3,#0x11c]
        0x000198ac:    f3c51542    ..B.    UBFX     r5,r5,#5,#3
        0x000198b0:    4565        eE      CMP      r5,r12
        0x000198b2:    bf07        ..      ITTEE    EQ
        0x000198b4:    f04f0c10    O...    MOVEQ    r12,#0x10
        0x000198b8:    f8c3c11c    ....    STREQ    r12,[r3,#0x11c]
        0x000198bc:    2009        .       MOVNE    r0,#9
        0x000198be:    b003        ..      ADDNE    sp,sp,#0xc
        0x000198c0:    bf18        ..      IT       NE
        0x000198c2:    bd30        0.      POPNE    {r4,r5,pc}
        0x000198c4:    68e3        .h      LDR      r3,[r4,#0xc]
        0x000198c6:    2b00        .+      CMP      r3,#0
        0x000198c8:    d040        @.      BEQ      0x1994c ; am_hal_iom_enable + 260
        0x000198ca:    6260        `b      STR      r0,[r4,#0x24]
        0x000198cc:    61e0        .a      STR      r0,[r4,#0x1c]
        0x000198ce:    6863        ch      LDR      r3,[r4,#4]
        0x000198d0:    4923        #I      LDR      r1,[pc,#140] ; [0x19960] = 0x800040
        0x000198d2:    031b        ..      LSLS     r3,r3,#12
        0x000198d4:    f1034380    ...C    ADD      r3,r3,#0x40000000
        0x000198d8:    f50323a0    ...#    ADD      r3,r3,#0x50000
        0x000198dc:    f8c31238    ..8.    STR      r1,[r3,#0x238]
        0x000198e0:    f8c40854    ..T.    STR      r0,[r4,#0x854]
        0x000198e4:    f884083c    ..<.    STRB     r0,[r4,#0x83c]
        0x000198e8:    f8c40838    ..8.    STR      r0,[r4,#0x838]
        0x000198ec:    f8c40844    ..D.    STR      r0,[r4,#0x844]
        0x000198f0:    f8c40840    ..@.    STR      r0,[r4,#0x840]
        0x000198f4:    f884082c    ..,.    STRB     r0,[r4,#0x82c]
        0x000198f8:    f8c40830    ..0.    STR      r0,[r4,#0x830]
        0x000198fc:    f884282d    ..-(    STRB     r2,[r4,#0x82d]
        0x00019900:    e9d41303    ....    LDRD     r1,r3,[r4,#0xc]
        0x00019904:    f894c004    ....    LDRB     r12,[r4,#4]
        0x00019908:    f8c40828    ..(.    STR      r0,[r4,#0x828]
        0x0001990c:    6220         b      STR      r0,[r4,#0x20]
        0x0001990e:    f8c4085c    ..\.    STR      r0,[r4,#0x85c]
        0x00019912:    0858        X.      LSRS     r0,r3,#1
        0x00019914:    e9cd0100    ....    STRD     r0,r1,[sp,#0]
        0x00019918:    f88d2008    ...     STRB     r2,[sp,#8]
        0x0001991c:    f00c00ff    ....    AND      r0,r12,#0xff
        0x00019920:    f6040228    ..(.    ADD      r2,r4,#0x828
        0x00019924:    4669        iF      MOV      r1,sp
        0x00019926:    f7fefff5    ....    BL       am_hal_cmdq_init ; 0x18914
        0x0001992a:    1e01        ..      SUBS     r1,r0,#0
        0x0001992c:    bf04        ..      ITT      EQ
        0x0001992e:    f44f7280    O..r    MOVEQ    r2,#0x100
        0x00019932:    6222        "b      STREQ    r2,[r4,#0x20]
        0x00019934:    f04f0002    O...    MOV      r0,#2
        0x00019938:    6862        bh      LDR      r2,[r4,#4]
        0x0001993a:    ea4f3202    O..2    LSL      r2,r2,#12
        0x0001993e:    f1024280    ...B    ADD      r2,r2,#0x40000000
        0x00019942:    f50222a0    ..."    ADD      r2,r2,#0x50000
        0x00019946:    f8c20210    ....    STR      r0,[r2,#0x210]
        0x0001994a:    d103        ..      BNE      0x19954 ; am_hal_iom_enable + 268
        0x0001994c:    6820         h      LDR      r0,[r4,#0]
        0x0001994e:    f0407000    @..p    ORR      r0,r0,#0x2000000
        0x00019952:    6020         `      STR      r0,[r4,#0]
        0x00019954:    b003        ..      ADD      sp,sp,#0xc
        0x00019956:    4608        .F      MOV      r0,r1
        0x00019958:    bd30        0.      POP      {r4,r5,pc}
    $d
        0x0001995a:    0000        ..      DCW    0
        0x0001995c:    00123456    V4..    DCD    1193046
        0x00019960:    00800040    @...    DCD    8388672
    $t
    i.am_hal_iom_initialize
    am_hal_iom_initialize
        0x00019964:    2808        .(      CMP      r0,#8
        0x00019966:    bf24        $.      ITT      CS
        0x00019968:    2005        .       MOVCS    r0,#5
        0x0001996a:    4770        pG      BXCS     lr
        0x0001996c:    2900        .)      CMP      r1,#0
        0x0001996e:    bf04        ..      ITT      EQ
        0x00019970:    2006        .       MOVEQ    r0,#6
        0x00019972:    4770        pG      BXEQ     lr
        0x00019974:    b410        ..      PUSH     {r4}
        0x00019976:    f2401215    @...    MOV      r2,#0x115
        0x0001997a:    fb00f302    ....    MUL      r3,r0,r2
        0x0001997e:    4a0c        .J      LDR      r2,[pc,#48] ; [0x199b0] = 0x10000964
        0x00019980:    f852c033    R.3.    LDR      r12,[r2,r3,LSL #3]
        0x00019984:    f01c7f80    ....    TST      r12,#0x1000000
        0x00019988:    bf1e        ..      ITTT     NE
        0x0001998a:    2007        .       MOVNE    r0,#7
        0x0001998c:    bc10        ..      POPNE    {r4}
        0x0001998e:    4770        pG      BXNE     lr
        0x00019990:    f02c7c00    ,..|    BIC      r12,r12,#0x2000000
        0x00019994:    f04c7c80    L..|    ORR      r12,r12,#0x1000000
        0x00019998:    4c06        .L      LDR      r4,[pc,#24] ; [0x199b4] = 0x123456
        0x0001999a:    f3640c17    d...    BFI      r12,r4,#0,#24
        0x0001999e:    f842c033    B.3.    STR      r12,[r2,r3,LSL #3]
        0x000199a2:    eb0202c3    ....    ADD      r2,r2,r3,LSL #3
        0x000199a6:    6050        P`      STR      r0,[r2,#4]
        0x000199a8:    600a        .`      STR      r2,[r1,#0]
        0x000199aa:    bc10        ..      POP      {r4}
        0x000199ac:    2000        .       MOVS     r0,#0
        0x000199ae:    4770        pG      BX       lr
    $d
        0x000199b0:    10000964    d...    DCD    268437860
        0x000199b4:    00123456    V4..    DCD    1193046
    $t
    i.am_hal_iom_power_ctrl
    am_hal_iom_power_ctrl
        0x000199b8:    b570        p.      PUSH     {r4-r6,lr}
        0x000199ba:    4615        .F      MOV      r5,r2
        0x000199bc:    1e04        ..      SUBS     r4,r0,#0
        0x000199be:    bf1c        ..      ITT      NE
        0x000199c0:    6820         h      LDRNE    r0,[r4,#0]
        0x000199c2:    f0107f80    ....    TSTNE    r0,#0x1000000
        0x000199c6:    d004        ..      BEQ      0x199d2 ; am_hal_iom_power_ctrl + 26
        0x000199c8:    4bc7        .K      LDR      r3,[pc,#796] ; [0x19ce8] = 0x123456
        0x000199ca:    f020427f     ..B    BIC      r2,r0,#0xff000000
        0x000199ce:    429a        .B      CMP      r2,r3
        0x000199d0:    d001        ..      BEQ      0x199d6 ; am_hal_iom_power_ctrl + 30
        0x000199d2:    2002        .       MOVS     r0,#2
        0x000199d4:    bd70        p.      POP      {r4-r6,pc}
        0x000199d6:    2900        .)      CMP      r1,#0
        0x000199d8:    f00080d4    ....    BEQ.W    0x19b84 ; am_hal_iom_power_ctrl + 460
        0x000199dc:    2901        .)      CMP      r1,#1
        0x000199de:    bf1e        ..      ITTT     NE
        0x000199e0:    2902        .)      CMPNE    r1,#2
        0x000199e2:    2006        .       MOVNE    r0,#6
        0x000199e4:    bd70        p.      POPNE    {r4-r6,pc}
        0x000199e6:    f0107f00    ....    TST      r0,#0x2000000
        0x000199ea:    d010        ..      BEQ      0x19a0e ; am_hal_iom_power_ctrl + 86
        0x000199ec:    6860        `h      LDR      r0,[r4,#4]
        0x000199ee:    ea4f3000    O..0    LSL      r0,r0,#12
        0x000199f2:    f1004080    ...@    ADD      r0,r0,#0x40000000
        0x000199f6:    f50020a0    ...     ADD      r0,r0,#0x50000
        0x000199fa:    f8d00248    ..H.    LDR      r0,[r0,#0x248]
        0x000199fe:    f0000006    ....    AND      r0,r0,#6
        0x00019a02:    2804        .(      CMP      r0,#4
        0x00019a04:    bf07        ..      ITTEE    EQ
        0x00019a06:    6a60        `j      LDREQ    r0,[r4,#0x24]
        0x00019a08:    2800        .(      CMPEQ    r0,#0
        0x00019a0a:    2003        .       MOVNE    r0,#3
        0x00019a0c:    bd70        p.      POPNE    {r4-r6,pc}
        0x00019a0e:    2d00        .-      CMP      r5,#0
        0x00019a10:    d07e        ~.      BEQ      0x19b10 ; am_hal_iom_power_ctrl + 344
        0x00019a12:    6860        `h      LDR      r0,[r4,#4]
        0x00019a14:    0300        ..      LSLS     r0,r0,#12
        0x00019a16:    f1004080    ...@    ADD      r0,r0,#0x40000000
        0x00019a1a:    f50020a0    ...     ADD      r0,r0,#0x50000
        0x00019a1e:    f8d00104    ....    LDR      r0,[r0,#0x104]
        0x00019a22:    f8c4086c    ..l.    STR      r0,[r4,#0x86c]
        0x00019a26:    6860        `h      LDR      r0,[r4,#4]
        0x00019a28:    0300        ..      LSLS     r0,r0,#12
        0x00019a2a:    f1004080    ...@    ADD      r0,r0,#0x40000000
        0x00019a2e:    f50020a0    ...     ADD      r0,r0,#0x50000
        0x00019a32:    f8d00118    ....    LDR      r0,[r0,#0x118]
        0x00019a36:    f8c40874    ..t.    STR      r0,[r4,#0x874]
        0x00019a3a:    6860        `h      LDR      r0,[r4,#4]
        0x00019a3c:    0300        ..      LSLS     r0,r0,#12
        0x00019a3e:    f1004080    ...@    ADD      r0,r0,#0x40000000
        0x00019a42:    f50020a0    ...     ADD      r0,r0,#0x50000
        0x00019a46:    f8d0011c    ....    LDR      r0,[r0,#0x11c]
        0x00019a4a:    f8c40878    ..x.    STR      r0,[r4,#0x878]
        0x00019a4e:    6860        `h      LDR      r0,[r4,#4]
        0x00019a50:    0300        ..      LSLS     r0,r0,#12
        0x00019a52:    f1004080    ...@    ADD      r0,r0,#0x40000000
        0x00019a56:    f50020a0    ...     ADD      r0,r0,#0x50000
        0x00019a5a:    f8d00228    ..(.    LDR      r0,[r0,#0x228]
        0x00019a5e:    f8c4087c    ..|.    STR      r0,[r4,#0x87c]
        0x00019a62:    6860        `h      LDR      r0,[r4,#4]
        0x00019a64:    0300        ..      LSLS     r0,r0,#12
        0x00019a66:    f1004080    ...@    ADD      r0,r0,#0x40000000
        0x00019a6a:    f50020a0    ...     ADD      r0,r0,#0x50000
        0x00019a6e:    f8d0022c    ..,.    LDR      r0,[r0,#0x22c]
        0x00019a72:    f8c40880    ....    STR      r0,[r4,#0x880]
        0x00019a76:    6860        `h      LDR      r0,[r4,#4]
        0x00019a78:    0300        ..      LSLS     r0,r0,#12
        0x00019a7a:    f1004080    ...@    ADD      r0,r0,#0x40000000
        0x00019a7e:    f50020a0    ...     ADD      r0,r0,#0x50000
        0x00019a82:    f8d00234    ..4.    LDR      r0,[r0,#0x234]
        0x00019a86:    f8c40884    ....    STR      r0,[r4,#0x884]
        0x00019a8a:    6860        `h      LDR      r0,[r4,#4]
        0x00019a8c:    0300        ..      LSLS     r0,r0,#12
        0x00019a8e:    f1004080    ...@    ADD      r0,r0,#0x40000000
        0x00019a92:    f50020a0    ...     ADD      r0,r0,#0x50000
        0x00019a96:    f8d0023c    ..<.    LDR      r0,[r0,#0x23c]
        0x00019a9a:    f8c40888    ....    STR      r0,[r4,#0x888]
        0x00019a9e:    6860        `h      LDR      r0,[r4,#4]
        0x00019aa0:    0300        ..      LSLS     r0,r0,#12
        0x00019aa2:    f1004080    ...@    ADD      r0,r0,#0x40000000
        0x00019aa6:    f50020a0    ...     ADD      r0,r0,#0x50000
        0x00019aaa:    f8d00240    ..@.    LDR      r0,[r0,#0x240]
        0x00019aae:    f8c4088c    ....    STR      r0,[r4,#0x88c]
        0x00019ab2:    6860        `h      LDR      r0,[r4,#4]
        0x00019ab4:    0300        ..      LSLS     r0,r0,#12
        0x00019ab6:    f1004080    ...@    ADD      r0,r0,#0x40000000
        0x00019aba:    f50020a0    ...     ADD      r0,r0,#0x50000
        0x00019abe:    f8d00244    ..D.    LDR      r0,[r0,#0x244]
        0x00019ac2:    f8c40890    ....    STR      r0,[r4,#0x890]
        0x00019ac6:    6860        `h      LDR      r0,[r4,#4]
        0x00019ac8:    0300        ..      LSLS     r0,r0,#12
        0x00019aca:    f1004080    ...@    ADD      r0,r0,#0x40000000
        0x00019ace:    f50020a0    ...     ADD      r0,r0,#0x50000
        0x00019ad2:    f8d00280    ....    LDR      r0,[r0,#0x280]
        0x00019ad6:    f8c40894    ....    STR      r0,[r4,#0x894]
        0x00019ada:    6860        `h      LDR      r0,[r4,#4]
        0x00019adc:    0300        ..      LSLS     r0,r0,#12
        0x00019ade:    f1004080    ...@    ADD      r0,r0,#0x40000000
        0x00019ae2:    f50020a0    ...     ADD      r0,r0,#0x50000
        0x00019ae6:    f8d002c0    ....    LDR      r0,[r0,#0x2c0]
        0x00019aea:    f8c40898    ....    STR      r0,[r4,#0x898]
        0x00019aee:    6860        `h      LDR      r0,[r4,#4]
        0x00019af0:    0300        ..      LSLS     r0,r0,#12
        0x00019af2:    f1004080    ...@    ADD      r0,r0,#0x40000000
        0x00019af6:    f50020a0    ...     ADD      r0,r0,#0x50000
        0x00019afa:    f8d00200    ....    LDR      r0,[r0,#0x200]
        0x00019afe:    f8c4089c    ....    STR      r0,[r4,#0x89c]
        0x00019b02:    6860        `h      LDR      r0,[r4,#4]
        0x00019b04:    0300        ..      LSLS     r0,r0,#12
        0x00019b06:    f1004080    ...@    ADD      r0,r0,#0x40000000
        0x00019b0a:    f50020a0    ...     ADD      r0,r0,#0x50000
        0x00019b0e:    e000        ..      B        0x19b12 ; am_hal_iom_power_ctrl + 346
        0x00019b10:    e019        ..      B        0x19b46 ; am_hal_iom_power_ctrl + 398
        0x00019b12:    f8d00210    ....    LDR      r0,[r0,#0x210]
        0x00019b16:    f8c40870    ..p.    STR      r0,[r4,#0x870]
        0x00019b1a:    6860        `h      LDR      r0,[r4,#4]
        0x00019b1c:    0300        ..      LSLS     r0,r0,#12
        0x00019b1e:    f1004080    ...@    ADD      r0,r0,#0x40000000
        0x00019b22:    f50020a0    ...     ADD      r0,r0,#0x50000
        0x00019b26:    f8d00228    ..(.    LDR      r0,[r0,#0x228]
        0x00019b2a:    f0100f01    ....    TST      r0,#1
        0x00019b2e:    d007        ..      BEQ      0x19b40 ; am_hal_iom_power_ctrl + 392
        0x00019b30:    f8d40828    ..(.    LDR      r0,[r4,#0x828]
        0x00019b34:    f7fefea2    ....    BL       am_hal_cmdq_disable ; 0x1887c
        0x00019b38:    6860        `h      LDR      r0,[r4,#4]
        0x00019b3a:    3013        .0      ADDS     r0,r0,#0x13
        0x00019b3c:    f7fefe9b    ....    BL       am_gpu_power_disable ; 0x18876
        0x00019b40:    2001        .       MOVS     r0,#1
        0x00019b42:    f8840868    ..h.    STRB     r0,[r4,#0x868]
        0x00019b46:    6860        `h      LDR      r0,[r4,#4]
        0x00019b48:    0300        ..      LSLS     r0,r0,#12
        0x00019b4a:    f1004080    ...@    ADD      r0,r0,#0x40000000
        0x00019b4e:    f50020a0    ...     ADD      r0,r0,#0x50000
        0x00019b52:    f8d0111c    ....    LDR      r1,[r0,#0x11c]
        0x00019b56:    f0210101    !...    BIC      r1,r1,#1
        0x00019b5a:    f8c0111c    ....    STR      r1,[r0,#0x11c]
        0x00019b5e:    6860        `h      LDR      r0,[r4,#4]
        0x00019b60:    0300        ..      LSLS     r0,r0,#12
        0x00019b62:    f1004080    ...@    ADD      r0,r0,#0x40000000
        0x00019b66:    f50020a0    ...     ADD      r0,r0,#0x50000
        0x00019b6a:    f8d0111c    ....    LDR      r1,[r0,#0x11c]
        0x00019b6e:    f0210110    !...    BIC      r1,r1,#0x10
        0x00019b72:    f8c0111c    ....    STR      r1,[r0,#0x11c]
        0x00019b76:    7920         y      LDRB     r0,[r4,#4]
        0x00019b78:    1c40        @.      ADDS     r0,r0,#1
        0x00019b7a:    b2c0        ..      UXTB     r0,r0
        0x00019b7c:    f000f93c    ..<.    BL       am_hal_pwrctrl_periph_disable ; 0x19df8
        0x00019b80:    2000        .       MOVS     r0,#0
        0x00019b82:    bd70        p.      POP      {r4-r6,pc}
        0x00019b84:    b12d        -.      CBZ      r5,0x19b92 ; am_hal_iom_power_ctrl + 474
        0x00019b86:    f8940868    ..h.    LDRB     r0,[r4,#0x868]
        0x00019b8a:    2800        .(      CMP      r0,#0
        0x00019b8c:    bf04        ..      ITT      EQ
        0x00019b8e:    2007        .       MOVEQ    r0,#7
        0x00019b90:    bd70        p.      POPEQ    {r4-r6,pc}
        0x00019b92:    7920         y      LDRB     r0,[r4,#4]
        0x00019b94:    1c40        @.      ADDS     r0,r0,#1
        0x00019b96:    b2c0        ..      UXTB     r0,r0
        0x00019b98:    f000f9c4    ....    BL       am_hal_pwrctrl_periph_enable ; 0x19f24
        0x00019b9c:    2d00        .-      CMP      r5,#0
        0x00019b9e:    d0ef        ..      BEQ      0x19b80 ; am_hal_iom_power_ctrl + 456
        0x00019ba0:    6861        ah      LDR      r1,[r4,#4]
        0x00019ba2:    f8d4086c    ..l.    LDR      r0,[r4,#0x86c]
        0x00019ba6:    0309        ..      LSLS     r1,r1,#12
        0x00019ba8:    f1014180    ...A    ADD      r1,r1,#0x40000000
        0x00019bac:    f50121a0    ...!    ADD      r1,r1,#0x50000
        0x00019bb0:    f8c10104    ....    STR      r0,[r1,#0x104]
        0x00019bb4:    6861        ah      LDR      r1,[r4,#4]
        0x00019bb6:    f8d40874    ..t.    LDR      r0,[r4,#0x874]
        0x00019bba:    0309        ..      LSLS     r1,r1,#12
        0x00019bbc:    f1014180    ...A    ADD      r1,r1,#0x40000000
        0x00019bc0:    f50121a0    ...!    ADD      r1,r1,#0x50000
        0x00019bc4:    f8c10118    ....    STR      r0,[r1,#0x118]
        0x00019bc8:    6861        ah      LDR      r1,[r4,#4]
        0x00019bca:    f8d40880    ....    LDR      r0,[r4,#0x880]
        0x00019bce:    0309        ..      LSLS     r1,r1,#12
        0x00019bd0:    f1014180    ...A    ADD      r1,r1,#0x40000000
        0x00019bd4:    f50121a0    ...!    ADD      r1,r1,#0x50000
        0x00019bd8:    f8c1022c    ..,.    STR      r0,[r1,#0x22c]
        0x00019bdc:    6861        ah      LDR      r1,[r4,#4]
        0x00019bde:    f8d40884    ....    LDR      r0,[r4,#0x884]
        0x00019be2:    0309        ..      LSLS     r1,r1,#12
        0x00019be4:    f1014180    ...A    ADD      r1,r1,#0x40000000
        0x00019be8:    f50121a0    ...!    ADD      r1,r1,#0x50000
        0x00019bec:    f8c10234    ..4.    STR      r0,[r1,#0x234]
        0x00019bf0:    6861        ah      LDR      r1,[r4,#4]
        0x00019bf2:    f8d40888    ....    LDR      r0,[r4,#0x888]
        0x00019bf6:    0309        ..      LSLS     r1,r1,#12
        0x00019bf8:    f1014180    ...A    ADD      r1,r1,#0x40000000
        0x00019bfc:    f50121a0    ...!    ADD      r1,r1,#0x50000
        0x00019c00:    f8c1023c    ..<.    STR      r0,[r1,#0x23c]
        0x00019c04:    6861        ah      LDR      r1,[r4,#4]
        0x00019c06:    f8d4088c    ....    LDR      r0,[r4,#0x88c]
        0x00019c0a:    0309        ..      LSLS     r1,r1,#12
        0x00019c0c:    f1014180    ...A    ADD      r1,r1,#0x40000000
        0x00019c10:    f50121a0    ...!    ADD      r1,r1,#0x50000
        0x00019c14:    f8c10240    ..@.    STR      r0,[r1,#0x240]
        0x00019c18:    6861        ah      LDR      r1,[r4,#4]
        0x00019c1a:    f8d40890    ....    LDR      r0,[r4,#0x890]
        0x00019c1e:    0309        ..      LSLS     r1,r1,#12
        0x00019c20:    f1014180    ...A    ADD      r1,r1,#0x40000000
        0x00019c24:    f50121a0    ...!    ADD      r1,r1,#0x50000
        0x00019c28:    f8c10244    ..D.    STR      r0,[r1,#0x244]
        0x00019c2c:    6861        ah      LDR      r1,[r4,#4]
        0x00019c2e:    f8d40894    ....    LDR      r0,[r4,#0x894]
        0x00019c32:    0309        ..      LSLS     r1,r1,#12
        0x00019c34:    f1014180    ...A    ADD      r1,r1,#0x40000000
        0x00019c38:    f50121a0    ...!    ADD      r1,r1,#0x50000
        0x00019c3c:    f8c10280    ....    STR      r0,[r1,#0x280]
        0x00019c40:    6861        ah      LDR      r1,[r4,#4]
        0x00019c42:    f8d40898    ....    LDR      r0,[r4,#0x898]
        0x00019c46:    0309        ..      LSLS     r1,r1,#12
        0x00019c48:    f1014180    ...A    ADD      r1,r1,#0x40000000
        0x00019c4c:    f50121a0    ...!    ADD      r1,r1,#0x50000
        0x00019c50:    f8c102c0    ....    STR      r0,[r1,#0x2c0]
        0x00019c54:    6861        ah      LDR      r1,[r4,#4]
        0x00019c56:    f8d4089c    ....    LDR      r0,[r4,#0x89c]
        0x00019c5a:    0309        ..      LSLS     r1,r1,#12
        0x00019c5c:    f1014180    ...A    ADD      r1,r1,#0x40000000
        0x00019c60:    f50121a0    ...!    ADD      r1,r1,#0x50000
        0x00019c64:    f8c10200    ....    STR      r0,[r1,#0x200]
        0x00019c68:    6861        ah      LDR      r1,[r4,#4]
        0x00019c6a:    f8d40870    ..p.    LDR      r0,[r4,#0x870]
        0x00019c6e:    0309        ..      LSLS     r1,r1,#12
        0x00019c70:    f1014180    ...A    ADD      r1,r1,#0x40000000
        0x00019c74:    f50121a0    ...!    ADD      r1,r1,#0x50000
        0x00019c78:    f8c10210    ....    STR      r0,[r1,#0x210]
        0x00019c7c:    6861        ah      LDR      r1,[r4,#4]
        0x00019c7e:    f8d4087c    ..|.    LDR      r0,[r4,#0x87c]
        0x00019c82:    0309        ..      LSLS     r1,r1,#12
        0x00019c84:    f1014180    ...A    ADD      r1,r1,#0x40000000
        0x00019c88:    f50121a0    ...!    ADD      r1,r1,#0x50000
        0x00019c8c:    f0200001     ...    BIC      r0,r0,#1
        0x00019c90:    f8c10228    ..(.    STR      r0,[r1,#0x228]
        0x00019c94:    6861        ah      LDR      r1,[r4,#4]
        0x00019c96:    f8d40878    ..x.    LDR      r0,[r4,#0x878]
        0x00019c9a:    0309        ..      LSLS     r1,r1,#12
        0x00019c9c:    f1014180    ...A    ADD      r1,r1,#0x40000000
        0x00019ca0:    f50121a0    ...!    ADD      r1,r1,#0x50000
        0x00019ca4:    f8c1011c    ....    STR      r0,[r1,#0x11c]
        0x00019ca8:    f894087c    ..|.    LDRB     r0,[r4,#0x87c]
        0x00019cac:    f0100f01    ....    TST      r0,#1
        0x00019cb0:    d016        ..      BEQ      0x19ce0 ; am_hal_iom_power_ctrl + 808
        0x00019cb2:    6a60        `j      LDR      r0,[r4,#0x24]
        0x00019cb4:    b960        `.      CBNZ     r0,0x19cd0 ; am_hal_iom_power_ctrl + 792
        0x00019cb6:    6861        ah      LDR      r1,[r4,#4]
        0x00019cb8:    0308        ..      LSLS     r0,r1,#12
        0x00019cba:    f1004080    ...@    ADD      r0,r0,#0x40000000
        0x00019cbe:    f50020a0    ...     ADD      r0,r0,#0x50000
        0x00019cc2:    f8d0022c    ..,.    LDR      r0,[r0,#0x22c]
        0x00019cc6:    4a09        .J      LDR      r2,[pc,#36] ; [0x19cec] = 0x4005022c
        0x00019cc8:    eb023101    ...1    ADD      r1,r2,r1,LSL #12
        0x00019ccc:    e9c01000    ....    STRD     r1,r0,[r0,#0]
        0x00019cd0:    6860        `h      LDR      r0,[r4,#4]
        0x00019cd2:    3013        .0      ADDS     r0,r0,#0x13
        0x00019cd4:    f7fefdd0    ....    BL       am_gpu_power_enable ; 0x18878
        0x00019cd8:    f8d40828    ..(.    LDR      r0,[r4,#0x828]
        0x00019cdc:    f7fefdee    ....    BL       am_hal_cmdq_enable ; 0x188bc
        0x00019ce0:    2000        .       MOVS     r0,#0
        0x00019ce2:    f8840868    ..h.    STRB     r0,[r4,#0x868]
        0x00019ce6:    e74b        K.      B        0x19b80 ; am_hal_iom_power_ctrl + 456
    $d
        0x00019ce8:    00123456    V4..    DCD    1193046
        0x00019cec:    4005022c    ,..@    DCD    1074070060
    $t
    i.am_hal_itm_enable
    am_hal_itm_enable
        0x00019cf0:    480a        .H      LDR      r0,[pc,#40] ; [0x19d1c] = 0xe000edfc
        0x00019cf2:    6801        .h      LDR      r1,[r0,#0]
        0x00019cf4:    f0417180    A..q    ORR      r1,r1,#0x1000000
        0x00019cf8:    6001        .`      STR      r1,[r0,#0]
        0x00019cfa:    6801        .h      LDR      r1,[r0,#0]
        0x00019cfc:    f0117f80    ....    TST      r1,#0x1000000
        0x00019d00:    d0fb        ..      BEQ      0x19cfa ; am_hal_itm_enable + 10
        0x00019d02:    4908        .I      LDR      r1,[pc,#32] ; [0x19d24] = 0xe0000fb0
        0x00019d04:    4806        .H      LDR      r0,[pc,#24] ; [0x19d20] = 0xc5acce55
        0x00019d06:    6008        .`      STR      r0,[r1,#0]
        0x00019d08:    4907        .I      LDR      r1,[pc,#28] ; [0x19d28] = 0xe0000e40
        0x00019d0a:    200f        .       MOVS     r0,#0xf
        0x00019d0c:    6008        .`      STR      r0,[r1,#0]
        0x00019d0e:    1748        H.      ASRS     r0,r1,#29
        0x00019d10:    4906        .I      LDR      r1,[pc,#24] ; [0x19d2c] = 0xe0000e00
        0x00019d12:    6008        .`      STR      r0,[r1,#0]
        0x00019d14:    4907        .I      LDR      r1,[pc,#28] ; [0x19d34] = 0xe0000e80
        0x00019d16:    4806        .H      LDR      r0,[pc,#24] ; [0x19d30] = 0x150511
        0x00019d18:    6008        .`      STR      r0,[r1,#0]
        0x00019d1a:    4770        pG      BX       lr
    $d
        0x00019d1c:    e000edfc    ....    DCD    3758157308
        0x00019d20:    c5acce55    U...    DCD    3316436565
        0x00019d24:    e0000fb0    ....    DCD    3758100400
        0x00019d28:    e0000e40    @...    DCD    3758100032
        0x00019d2c:    e0000e00    ....    DCD    3758099968
        0x00019d30:    00150511    ....    DCD    1377553
        0x00019d34:    e0000e80    ....    DCD    3758100096
    $t
    i.am_hal_itm_print
    am_hal_itm_print
        0x00019d38:    7802        .x      LDRB     r2,[r0,#0]
        0x00019d3a:    2100        .!      MOVS     r1,#0
        0x00019d3c:    2a00        .*      CMP      r2,#0
        0x00019d3e:    bf08        ..      IT       EQ
        0x00019d40:    4770        pG      BXEQ     lr
        0x00019d42:    1c49        I.      ADDS     r1,r1,#1
        0x00019d44:    5c42        B\      LDRB     r2,[r0,r1]
        0x00019d46:    2a00        .*      CMP      r2,#0
        0x00019d48:    d1fb        ..      BNE      0x19d42 ; am_hal_itm_print + 10
        0x00019d4a:    2900        .)      CMP      r1,#0
        0x00019d4c:    bf08        ..      IT       EQ
        0x00019d4e:    4770        pG      BXEQ     lr
        0x00019d50:    f810cb01    ....    LDRB     r12,[r0],#1
        0x00019d54:    f04f4260    O.`B    MOV      r2,#0xe0000000
        0x00019d58:    6813        .h      LDR      r3,[r2,#0]
        0x00019d5a:    2b00        .+      CMP      r3,#0
        0x00019d5c:    d0fc        ..      BEQ      0x19d58 ; am_hal_itm_print + 32
        0x00019d5e:    f882c000    ....    STRB     r12,[r2,#0]
        0x00019d62:    1e49        I.      SUBS     r1,r1,#1
        0x00019d64:    d1f4        ..      BNE      0x19d50 ; am_hal_itm_print + 24
        0x00019d66:    4770        pG      BX       lr
    i.am_hal_pwrctrl_mcu_mode_select
    am_hal_pwrctrl_mcu_mode_select
        0x00019d68:    e92d41f0    -..A    PUSH     {r4-r8,lr}
        0x00019d6c:    4c1a        .L      LDR      r4,[pc,#104] ; [0x19dd8] = 0x40021000
        0x00019d6e:    4605        .F      MOV      r5,r0
        0x00019d70:    2801        .(      CMP      r0,#1
        0x00019d72:    d00d        ..      BEQ      0x19d90 ; am_hal_pwrctrl_mcu_mode_select + 40
        0x00019d74:    2d02        .-      CMP      r5,#2
        0x00019d76:    bf1c        ..      ITT      NE
        0x00019d78:    2006        .       MOVNE    r0,#6
        0x00019d7a:    e8bd81f0    ....    POPNE    {r4-r8,pc}
        0x00019d7e:    f8d40108    ....    LDR      r0,[r4,#0x108]
        0x00019d82:    f3c01001    ....    UBFX     r0,r0,#4,#2
        0x00019d86:    2803        .(      CMP      r0,#3
        0x00019d88:    bf1c        ..      ITT      NE
        0x00019d8a:    2007        .       MOVNE    r0,#7
        0x00019d8c:    e8bd81f0    ....    POPNE    {r4-r8,pc}
        0x00019d90:    4812        .H      LDR      r0,[pc,#72] ; [0x19ddc] = 0x10000138
        0x00019d92:    7801        .x      LDRB     r1,[r0,#0]
        0x00019d94:    428d        .B      CMP      r5,r1
        0x00019d96:    d012        ..      BEQ      0x19dbe ; am_hal_pwrctrl_mcu_mode_select + 86
        0x00019d98:    7005        .p      STRB     r5,[r0,#0]
        0x00019d9a:    6820         h      LDR      r0,[r4,#0]
        0x00019d9c:    f3650001    e...    BFI      r0,r5,#0,#2
        0x00019da0:    6020         `      STR      r0,[r4,#0]
        0x00019da2:    2704        .'      MOVS     r7,#4
        0x00019da4:    2600        .&      MOVS     r6,#0
        0x00019da6:    6820         h      LDR      r0,[r4,#0]
        0x00019da8:    f0100f04    ....    TST      r0,#4
        0x00019dac:    d00a        ..      BEQ      0x19dc4 ; am_hal_pwrctrl_mcu_mode_select + 92
        0x00019dae:    6820         h      LDR      r0,[r4,#0]
        0x00019db0:    f3c000c1    ....    UBFX     r0,r0,#3,#2
        0x00019db4:    42a8        .B      CMP      r0,r5
        0x00019db6:    bf1c        ..      ITT      NE
        0x00019db8:    2001        .       MOVNE    r0,#1
        0x00019dba:    e8bd81f0    ....    POPNE    {r4-r8,pc}
        0x00019dbe:    2000        .       MOVS     r0,#0
        0x00019dc0:    e8bd81f0    ....    POP      {r4-r8,pc}
        0x00019dc4:    2001        .       MOVS     r0,#1
        0x00019dc6:    f7feff63    ..c.    BL       am_hal_delay_us ; 0x18c90
        0x00019dca:    1c76        v.      ADDS     r6,r6,#1
        0x00019dcc:    2e05        ..      CMP      r6,#5
        0x00019dce:    d3ea        ..      BCC      0x19da6 ; am_hal_pwrctrl_mcu_mode_select + 62
        0x00019dd0:    4638        8F      MOV      r0,r7
        0x00019dd2:    e8bd81f0    ....    POP      {r4-r8,pc}
    $d
        0x00019dd6:    0000        ..      DCW    0
        0x00019dd8:    40021000    ...@    DCD    1073876992
        0x00019ddc:    10000138    8...    DCD    268435768
    $t
    i.am_hal_pwrctrl_mcu_mode_status
    am_hal_pwrctrl_mcu_mode_status
        0x00019de0:    2800        .(      CMP      r0,#0
        0x00019de2:    bf04        ..      ITT      EQ
        0x00019de4:    2006        .       MOVEQ    r0,#6
        0x00019de6:    4770        pG      BXEQ     lr
        0x00019de8:    4902        .I      LDR      r1,[pc,#8] ; [0x19df4] = 0x10000138
        0x00019dea:    7809        .x      LDRB     r1,[r1,#0]
        0x00019dec:    7001        .p      STRB     r1,[r0,#0]
        0x00019dee:    2000        .       MOVS     r0,#0
        0x00019df0:    4770        pG      BX       lr
    $d
        0x00019df2:    0000        ..      DCW    0
        0x00019df4:    10000138    8...    DCD    268435768
    $t
    i.am_hal_pwrctrl_periph_disable
    am_hal_pwrctrl_periph_disable
        0x00019df8:    2819        .(      CMP      r0,#0x19
        0x00019dfa:    bf24        $.      ITT      CS
        0x00019dfc:    2006        .       MOVCS    r0,#6
        0x00019dfe:    4770        pG      BXCS     lr
        0x00019e00:    e92d43f8    -..C    PUSH     {r3-r9,lr}
        0x00019e04:    4941        AI      LDR      r1,[pc,#260] ; [0x19f0c] = 0x1b488
        0x00019e06:    4602        .F      MOV      r2,r0
        0x00019e08:    eb011800    ....    ADD      r8,r1,r0,LSL #4
        0x00019e0c:    2500        .%      MOVS     r5,#0
        0x00019e0e:    e9d86900    ...i    LDRD     r6,r9,[r8,#0]
        0x00019e12:    e9d87402    ...t    LDRD     r7,r4,[r8,#8]
        0x00019e16:    6831        1h      LDR      r1,[r6,#0]
        0x00019e18:    ea110f09    ....    TST      r1,r9
        0x00019e1c:    bf04        ..      ITT      EQ
        0x00019e1e:    2000        .       MOVEQ    r0,#0
        0x00019e20:    e8bd83f8    ....    POPEQ    {r3-r9,pc}
        0x00019e24:    2a12        .*      CMP      r2,#0x12
        0x00019e26:    d123        #.      BNE      0x19e70 ; am_hal_pwrctrl_periph_disable + 120
        0x00019e28:    4839        9H      LDR      r0,[pc,#228] ; [0x19f10] = 0x400c0fe0
        0x00019e2a:    6800        .h      LDR      r0,[r0,#0]
        0x00019e2c:    28c0        .(      CMP      r0,#0xc0
        0x00019e2e:    d11f        ..      BNE      0x19e70 ; am_hal_pwrctrl_periph_disable + 120
        0x00019e30:    2301        .#      MOVS     r3,#1
        0x00019e32:    461a        .F      MOV      r2,r3
        0x00019e34:    4937        7I      LDR      r1,[pc,#220] ; [0x19f14] = 0x400c0a7c
        0x00019e36:    2064        d       MOVS     r0,#0x64
        0x00019e38:    f7feff40    ..@.    BL       am_hal_delay_us_status_change ; 0x18cbc
        0x00019e3c:    2800        .(      CMP      r0,#0
        0x00019e3e:    bf18        ..      IT       NE
        0x00019e40:    e8bd83f8    ....    POPNE    {r3-r9,pc}
        0x00019e44:    2301        .#      MOVS     r3,#1
        0x00019e46:    461a        .F      MOV      r2,r3
        0x00019e48:    4933        3I      LDR      r1,[pc,#204] ; [0x19f18] = 0x400c1f10
        0x00019e4a:    2064        d       MOVS     r0,#0x64
        0x00019e4c:    f7feff36    ..6.    BL       am_hal_delay_us_status_change ; 0x18cbc
        0x00019e50:    2800        .(      CMP      r0,#0
        0x00019e52:    bf18        ..      IT       NE
        0x00019e54:    e8bd83f8    ....    POPNE    {r3-r9,pc}
        0x00019e58:    4830        0H      LDR      r0,[pc,#192] ; [0x19f1c] = 0x400c0a80
        0x00019e5a:    6801        .h      LDR      r1,[r0,#0]
        0x00019e5c:    f0410101    A...    ORR      r1,r1,#1
        0x00019e60:    6001        .`      STR      r1,[r0,#0]
        0x00019e62:    482f        /H      LDR      r0,[pc,#188] ; [0x19f20] = 0x10000138
        0x00019e64:    6a01        .j      LDR      r1,[r0,#0x20]
        0x00019e66:    2900        .)      CMP      r1,#0
        0x00019e68:    bf1c        ..      ITT      NE
        0x00019e6a:    2000        .       MOVNE    r0,#0
        0x00019e6c:    f000fbc8    ....    BLNE     crypto_boost_trims ; 0x1a600
        0x00019e70:    f7fefa62    ..b.    BL       am_hal_interrupt_master_disable ; 0x18338
        0x00019e74:    9000        ..      STR      r0,[sp,#0]
        0x00019e76:    6830        0h      LDR      r0,[r6,#0]
        0x00019e78:    ea200009     ...    BIC      r0,r0,r9
        0x00019e7c:    6030        0`      STR      r0,[r6,#0]
        0x00019e7e:    9800        ..      LDR      r0,[sp,#0]
        0x00019e80:    f7fefa5e    ..^.    BL       am_hal_interrupt_master_set ; 0x18340
        0x00019e84:    4623        #F      MOV      r3,r4
        0x00019e86:    461a        .F      MOV      r2,r3
        0x00019e88:    4639        9F      MOV      r1,r7
        0x00019e8a:    2005        .       MOVS     r0,#5
        0x00019e8c:    9500        ..      STR      r5,[sp,#0]
        0x00019e8e:    f7feff41    ..A.    BL       am_hal_delay_us_status_check ; 0x18d14
        0x00019e92:    2800        .(      CMP      r0,#0
        0x00019e94:    bf08        ..      IT       EQ
        0x00019e96:    e8bd83f8    ....    POPEQ    {r3-r9,pc}
        0x00019e9a:    4628        (F      MOV      r0,r5
        0x00019e9c:    f8d8200c    ...     LDR      r2,[r8,#0xc]
        0x00019ea0:    f8d81000    ....    LDR      r1,[r8,#0]
        0x00019ea4:    f5b27ff0    ....    CMP      r2,#0x1e0
        0x00019ea8:    d029        ).      BEQ      0x19efe ; am_hal_pwrctrl_periph_disable + 262
        0x00019eaa:    dc0b        ..      BGT      0x19ec4 ; am_hal_pwrctrl_periph_disable + 204
        0x00019eac:    2a1e        .*      CMP      r2,#0x1e
        0x00019eae:    d020         .      BEQ      0x19ef2 ; am_hal_pwrctrl_periph_disable + 250
        0x00019eb0:    2a47        G*      CMP      r2,#0x47
        0x00019eb2:    bf18        ..      IT       NE
        0x00019eb4:    e8bd83f8    ....    POPNE    {r3-r9,pc}
        0x00019eb8:    680a        .h      LDR      r2,[r1,#0]
        0x00019eba:    f0120f47    ..G.    TST      r2,#0x47
        0x00019ebe:    d115        ..      BNE      0x19eec ; am_hal_pwrctrl_periph_disable + 244
        0x00019ec0:    e8bd83f8    ....    POP      {r3-r9,pc}
        0x00019ec4:    f5b25ff0    ..._    CMP      r2,#0x1e00
        0x00019ec8:    d00a        ..      BEQ      0x19ee0 ; am_hal_pwrctrl_periph_disable + 232
        0x00019eca:    f5b23fe0    ...?    CMP      r2,#0x1c000
        0x00019ece:    bf18        ..      IT       NE
        0x00019ed0:    e8bd83f8    ....    POPNE    {r3-r9,pc}
        0x00019ed4:    680a        .h      LDR      r2,[r1,#0]
        0x00019ed6:    f4123fe0    ...?    TST      r2,#0x1c000
        0x00019eda:    d107        ..      BNE      0x19eec ; am_hal_pwrctrl_periph_disable + 244
        0x00019edc:    e8bd83f8    ....    POP      {r3-r9,pc}
        0x00019ee0:    680a        .h      LDR      r2,[r1,#0]
        0x00019ee2:    f4125ff0    ..._    TST      r2,#0x1e00
        0x00019ee6:    bf08        ..      IT       EQ
        0x00019ee8:    e8bd83f8    ....    POPEQ    {r3-r9,pc}
        0x00019eec:    6809        .h      LDR      r1,[r1,#0]
        0x00019eee:    e8bd83f8    ....    POP      {r3-r9,pc}
        0x00019ef2:    680a        .h      LDR      r2,[r1,#0]
        0x00019ef4:    f0120f1e    ....    TST      r2,#0x1e
        0x00019ef8:    d1f8        ..      BNE      0x19eec ; am_hal_pwrctrl_periph_disable + 244
        0x00019efa:    e8bd83f8    ....    POP      {r3-r9,pc}
        0x00019efe:    680a        .h      LDR      r2,[r1,#0]
        0x00019f00:    f4127ff0    ....    TST      r2,#0x1e0
        0x00019f04:    d1f2        ..      BNE      0x19eec ; am_hal_pwrctrl_periph_disable + 244
        0x00019f06:    e8bd83f8    ....    POP      {r3-r9,pc}
    $d
        0x00019f0a:    0000        ..      DCW    0
        0x00019f0c:    0001b488    ....    DCD    111752
        0x00019f10:    400c0fe0    ...@    DCD    1074532320
        0x00019f14:    400c0a7c    |..@    DCD    1074530940
        0x00019f18:    400c1f10    ...@    DCD    1074536208
        0x00019f1c:    400c0a80    ...@    DCD    1074530944
        0x00019f20:    10000138    8...    DCD    268435768
    $t
    i.am_hal_pwrctrl_periph_enable
    am_hal_pwrctrl_periph_enable
        0x00019f24:    2819        .(      CMP      r0,#0x19
        0x00019f26:    bf24        $.      ITT      CS
        0x00019f28:    2006        .       MOVCS    r0,#6
        0x00019f2a:    4770        pG      BXCS     lr
        0x00019f2c:    e92d43f8    -..C    PUSH     {r3-r9,lr}
        0x00019f30:    4926        &I      LDR      r1,[pc,#152] ; [0x19fcc] = 0x1b488
        0x00019f32:    4604        .F      MOV      r4,r0
        0x00019f34:    eb011004    ....    ADD      r0,r1,r4,LSL #4
        0x00019f38:    e9d06502    ...e    LDRD     r6,r5,[r0,#8]
        0x00019f3c:    e9d08900    ....    LDRD     r8,r9,[r0,#0]
        0x00019f40:    f8d80000    ....    LDR      r0,[r8,#0]
        0x00019f44:    ea100f09    ....    TST      r0,r9
        0x00019f48:    d13c        <.      BNE      0x19fc4 ; am_hal_pwrctrl_periph_enable + 160
        0x00019f4a:    4f21        !O      LDR      r7,[pc,#132] ; [0x19fd0] = 0x10000138
        0x00019f4c:    2c12        .,      CMP      r4,#0x12
        0x00019f4e:    d105        ..      BNE      0x19f5c ; am_hal_pwrctrl_periph_enable + 56
        0x00019f50:    6a39        9j      LDR      r1,[r7,#0x20]
        0x00019f52:    2900        .)      CMP      r1,#0
        0x00019f54:    bf1c        ..      ITT      NE
        0x00019f56:    2001        .       MOVNE    r0,#1
        0x00019f58:    f000fb52    ..R.    BLNE     crypto_boost_trims ; 0x1a600
        0x00019f5c:    f7fef9ec    ....    BL       am_hal_interrupt_master_disable ; 0x18338
        0x00019f60:    9000        ..      STR      r0,[sp,#0]
        0x00019f62:    f8d80000    ....    LDR      r0,[r8,#0]
        0x00019f66:    ea400009    @...    ORR      r0,r0,r9
        0x00019f6a:    f8c80000    ....    STR      r0,[r8,#0]
        0x00019f6e:    9800        ..      LDR      r0,[sp,#0]
        0x00019f70:    f7fef9e6    ....    BL       am_hal_interrupt_master_set ; 0x18340
        0x00019f74:    2001        .       MOVS     r0,#1
        0x00019f76:    462b        +F      MOV      r3,r5
        0x00019f78:    9000        ..      STR      r0,[sp,#0]
        0x00019f7a:    461a        .F      MOV      r2,r3
        0x00019f7c:    4631        1F      MOV      r1,r6
        0x00019f7e:    2005        .       MOVS     r0,#5
        0x00019f80:    f7fefec8    ....    BL       am_hal_delay_us_status_check ; 0x18d14
        0x00019f84:    ea5f0800    _...    MOVS     r8,r0
        0x00019f88:    d00a        ..      BEQ      0x19fa0 ; am_hal_pwrctrl_periph_enable + 124
        0x00019f8a:    2c12        .,      CMP      r4,#0x12
        0x00019f8c:    d105        ..      BNE      0x19f9a ; am_hal_pwrctrl_periph_enable + 118
        0x00019f8e:    6a39        9j      LDR      r1,[r7,#0x20]
        0x00019f90:    2900        .)      CMP      r1,#0
        0x00019f92:    bf1c        ..      ITT      NE
        0x00019f94:    2000        .       MOVNE    r0,#0
        0x00019f96:    f000fb33    ..3.    BLNE     crypto_boost_trims ; 0x1a600
        0x00019f9a:    4640        @F      MOV      r0,r8
        0x00019f9c:    e8bd83f8    ....    POP      {r3-r9,pc}
        0x00019fa0:    2c12        .,      CMP      r4,#0x12
        0x00019fa2:    d109        ..      BNE      0x19fb8 ; am_hal_pwrctrl_periph_enable + 148
        0x00019fa4:    2301        .#      MOVS     r3,#1
        0x00019fa6:    461a        .F      MOV      r2,r3
        0x00019fa8:    490a        .I      LDR      r1,[pc,#40] ; [0x19fd4] = 0x400c1f10
        0x00019faa:    2064        d       MOVS     r0,#0x64
        0x00019fac:    f7fefe86    ....    BL       am_hal_delay_us_status_change ; 0x18cbc
        0x00019fb0:    2800        .(      CMP      r0,#0
        0x00019fb2:    bf18        ..      IT       NE
        0x00019fb4:    e8bd83f8    ....    POPNE    {r3-r9,pc}
        0x00019fb8:    6830        0h      LDR      r0,[r6,#0]
        0x00019fba:    4228        (B      TST      r0,r5
        0x00019fbc:    bf04        ..      ITT      EQ
        0x00019fbe:    2001        .       MOVEQ    r0,#1
        0x00019fc0:    e8bd83f8    ....    POPEQ    {r3-r9,pc}
        0x00019fc4:    2000        .       MOVS     r0,#0
        0x00019fc6:    e8bd83f8    ....    POP      {r3-r9,pc}
    $d
        0x00019fca:    0000        ..      DCW    0
        0x00019fcc:    0001b488    ....    DCD    111752
        0x00019fd0:    10000138    8...    DCD    268435768
        0x00019fd4:    400c1f10    ...@    DCD    1074536208
    $t
    i.am_hal_sysctrl_sleep
    am_hal_sysctrl_sleep
        0x00019fd8:    e92d43f0    -..C    PUSH     {r4-r9,lr}
        0x00019fdc:    4681        .F      MOV      r9,r0
        0x00019fde:    4844        DH      LDR      r0,[pc,#272] ; [0x1a0f0] = 0xf0000008
        0x00019fe0:    b083        ..      SUB      sp,sp,#0xc
        0x00019fe2:    2600        .&      MOVS     r6,#0
        0x00019fe4:    4468        hD      ADD      r0,sp,r0
        0x00019fe6:    f5b02fc0    .../    CMP      r0,#0x60000
        0x00019fea:    d300        ..      BCC      0x19fee ; am_hal_sysctrl_sleep + 22
        0x00019fec:    e7fe        ..      B        0x19fec ; am_hal_sysctrl_sleep + 20
        0x00019fee:    f04f0800    O...    MOV      r8,#0
        0x00019ff2:    f7fef9a1    ....    BL       am_hal_interrupt_master_disable ; 0x18338
        0x00019ff6:    4f3f        ?O      LDR      r7,[pc,#252] ; [0x1a0f4] = 0x40021000
        0x00019ff8:    9001        ..      STR      r0,[sp,#4]
        0x00019ffa:    f8d70108    ....    LDR      r0,[r7,#0x108]
        0x00019ffe:    f3c01001    ....    UBFX     r0,r0,#4,#2
        0x0001a002:    2803        .(      CMP      r0,#3
        0x0001a004:    bf0c        ..      ITE      EQ
        0x0001a006:    2001        .       MOVEQ    r0,#1
        0x0001a008:    2000        .       MOVNE    r0,#0
        0x0001a00a:    4d3b        ;M      LDR      r5,[pc,#236] ; [0x1a0f8] = 0xe000ed10
        0x0001a00c:    4c3b        ;L      LDR      r4,[pc,#236] ; [0x1a0fc] = 0x40020000
        0x0001a00e:    f1b90f00    ....    CMP      r9,#0
        0x0001a012:    d004        ..      BEQ      0x1a01e ; am_hal_sysctrl_sleep + 70
        0x0001a014:    f8d41250    ..P.    LDR      r1,[r4,#0x250]
        0x0001a018:    f0110f01    ....    TST      r1,#1
        0x0001a01c:    d003        ..      BEQ      0x1a026 ; am_hal_sysctrl_sleep + 78
        0x0001a01e:    6828        (h      LDR      r0,[r5,#0]
        0x0001a020:    f0200004     ...    BIC      r0,r0,#4
        0x0001a024:    e039        9.      B        0x1a09a ; am_hal_sysctrl_sleep + 194
        0x0001a026:    b310        ..      CBZ      r0,0x1a06e ; am_hal_sysctrl_sleep + 150
        0x0001a028:    68b8        .h      LDR      r0,[r7,#8]
        0x0001a02a:    f0207033     .3p    BIC      r0,r0,#0x2cc0000
        0x0001a02e:    f030407c    0.|@    BICS     r0,r0,#0xfc000000
        0x0001a032:    d11c        ..      BNE      0x1a06e ; am_hal_sysctrl_sleep + 150
        0x0001a034:    4832        2H      LDR      r0,[pc,#200] ; [0x1a100] = 0x10000140
        0x0001a036:    f04f0801    O...    MOV      r8,#1
        0x0001a03a:    7801        .x      LDRB     r1,[r0,#0]
        0x0001a03c:    f8d40370    ..p.    LDR      r0,[r4,#0x370]
        0x0001a040:    f3615019    a..P    BFI      r0,r1,#20,#6
        0x0001a044:    f8c40370    ..p.    STR      r0,[r4,#0x370]
        0x0001a048:    f8d40380    ....    LDR      r0,[r4,#0x380]
        0x0001a04c:    f0204000     ..@    BIC      r0,r0,#0x80000000
        0x0001a050:    f8c40380    ....    STR      r0,[r4,#0x380]
        0x0001a054:    f8d40380    ....    LDR      r0,[r4,#0x380]
        0x0001a058:    f0204080     ..@    BIC      r0,r0,#0x40000000
        0x0001a05c:    f8c40380    ....    STR      r0,[r4,#0x380]
        0x0001a060:    6820         h      LDR      r0,[r4,#0]
        0x0001a062:    f4104f7f    ...O    TST      r0,#0xff00
        0x0001a066:    bf1c        ..      ITT      NE
        0x0001a068:    2000        .       MOVNE    r0,#0
        0x0001a06a:    f000fa99    ....    BLNE     buck_ldo_update_override ; 0x1a5a0
        0x0001a06e:    6820         h      LDR      r0,[r4,#0]
        0x0001a070:    f4104f70    ..pO    TST      r0,#0xf000
        0x0001a074:    bf04        ..      ITT      EQ
        0x0001a076:    68b8        .h      LDREQ    r0,[r7,#8]
        0x0001a078:    f0107f80    ....    TSTEQ    r0,#0x1000000
        0x0001a07c:    d10a        ..      BNE      0x1a094 ; am_hal_sysctrl_sleep + 188
        0x0001a07e:    4668        hF      MOV      r0,sp
        0x0001a080:    f7fffeae    ....    BL       am_hal_pwrctrl_mcu_mode_status ; 0x19de0
        0x0001a084:    f89d0000    ....    LDRB     r0,[sp,#0]
        0x0001a088:    2802        .(      CMP      r0,#2
        0x0001a08a:    d003        ..      BEQ      0x1a094 ; am_hal_sysctrl_sleep + 188
        0x0001a08c:    2002        .       MOVS     r0,#2
        0x0001a08e:    f7fffe6b    ..k.    BL       am_hal_pwrctrl_mcu_mode_select ; 0x19d68
        0x0001a092:    2601        .&      MOVS     r6,#1
        0x0001a094:    6828        (h      LDR      r0,[r5,#0]
        0x0001a096:    f0400004    @...    ORR      r0,r0,#4
        0x0001a09a:    6028        (`      STR      r0,[r5,#0]
        0x0001a09c:    2100        .!      MOVS     r1,#0
        0x0001a09e:    2001        .       MOVS     r0,#1
        0x0001a0a0:    f7fefcfc    ....    BL       am_hal_daxi_control ; 0x18a9c
        0x0001a0a4:    bf30        0.      WFI      
        0x0001a0a6:    f3bf8f6f    ..o.    ISB      
        0x0001a0aa:    2e00        ..      CMP      r6,#0
        0x0001a0ac:    bf1c        ..      ITT      NE
        0x0001a0ae:    2001        .       MOVNE    r0,#1
        0x0001a0b0:    f7fffe5a    ..Z.    BLNE     am_hal_pwrctrl_mcu_mode_select ; 0x19d68
        0x0001a0b4:    f1b80f00    ....    CMP      r8,#0
        0x0001a0b8:    d014        ..      BEQ      0x1a0e4 ; am_hal_sysctrl_sleep + 268
        0x0001a0ba:    2001        .       MOVS     r0,#1
        0x0001a0bc:    f000fa70    ..p.    BL       buck_ldo_update_override ; 0x1a5a0
        0x0001a0c0:    f8d40380    ....    LDR      r0,[r4,#0x380]
        0x0001a0c4:    f0404000    @..@    ORR      r0,r0,#0x80000000
        0x0001a0c8:    f8c40380    ....    STR      r0,[r4,#0x380]
        0x0001a0cc:    f8d40380    ....    LDR      r0,[r4,#0x380]
        0x0001a0d0:    f0404080    @..@    ORR      r0,r0,#0x40000000
        0x0001a0d4:    f8c40380    ....    STR      r0,[r4,#0x380]
        0x0001a0d8:    f8d40370    ..p.    LDR      r0,[r4,#0x370]
        0x0001a0dc:    f020707c     .|p    BIC      r0,r0,#0x3f00000
        0x0001a0e0:    f8c40370    ..p.    STR      r0,[r4,#0x370]
        0x0001a0e4:    9801        ..      LDR      r0,[sp,#4]
        0x0001a0e6:    f7fef92b    ..+.    BL       am_hal_interrupt_master_set ; 0x18340
        0x0001a0ea:    b003        ..      ADD      sp,sp,#0xc
        0x0001a0ec:    e8bd83f0    ....    POP      {r4-r9,pc}
    $d
        0x0001a0f0:    f0000008    ....    DCD    4026531848
        0x0001a0f4:    40021000    ...@    DCD    1073876992
        0x0001a0f8:    e000ed10    ....    DCD    3758157072
        0x0001a0fc:    40020000    ...@    DCD    1073872896
        0x0001a100:    10000140    @...    DCD    268435776
    $t
    i.am_hal_tpiu_enable
    am_hal_tpiu_enable
        0x0001a104:    4914        .I      LDR      r1,[pc,#80] ; [0x1a158] = 0xe0040000
        0x0001a106:    2200        ."      MOVS     r2,#0
        0x0001a108:    f8c12304    ...#    STR      r2,[r1,#0x304]
        0x0001a10c:    2301        .#      MOVS     r3,#1
        0x0001a10e:    604b        K`      STR      r3,[r1,#4]
        0x0001a110:    f8dfc048    ..H.    LDR      r12,[pc,#72] ; [0x1a15c] = 0x1da381
        0x0001a114:    f5a04361    ..aC    SUB      r3,r0,#0xe100
        0x0001a118:    4563        cE      CMP      r3,r12
        0x0001a11a:    bf28        (.      IT       CS
        0x0001a11c:    4810        .H      LDRCS    r0,[pc,#64] ; [0x1a160] = 0xf4240
        0x0001a11e:    4b11        .K      LDR      r3,[pc,#68] ; [0x1a164] = 0x2dc6c00
        0x0001a120:    fbb3f0f0    ....    UDIV     r0,r3,r0
        0x0001a124:    1e40        @.      SUBS     r0,r0,#1
        0x0001a126:    b280        ..      UXTH     r0,r0
        0x0001a128:    6108        .a      STR      r0,[r1,#0x10]
        0x0001a12a:    2002        .       MOVS     r0,#2
        0x0001a12c:    f8c100f0    ....    STR      r0,[r1,#0xf0]
        0x0001a130:    480d        .H      LDR      r0,[pc,#52] ; [0x1a168] = 0xe0040f00
        0x0001a132:    6002        .`      STR      r2,[r0,#0]
        0x0001a134:    480d        .H      LDR      r0,[pc,#52] ; [0x1a16c] = 0x40020000
        0x0001a136:    f8d01250    ..P.    LDR      r1,[r0,#0x250]
        0x0001a13a:    f021010e    !...    BIC      r1,r1,#0xe
        0x0001a13e:    1d09        ..      ADDS     r1,r1,#4
        0x0001a140:    f8c01250    ..P.    STR      r1,[r0,#0x250]
        0x0001a144:    f8d01250    ..P.    LDR      r1,[r0,#0x250]
        0x0001a148:    f0410101    A...    ORR      r1,r1,#1
        0x0001a14c:    f8c01250    ..P.    STR      r1,[r0,#0x250]
        0x0001a150:    2064        d       MOVS     r0,#0x64
        0x0001a152:    f7febd9d    ....    B        am_hal_delay_us ; 0x18c90
    $d
        0x0001a156:    0000        ..      DCW    0
        0x0001a158:    e0040000    ....    DCD    3758358528
        0x0001a15c:    001da381    ....    DCD    1942401
        0x0001a160:    000f4240    @B..    DCD    1000000
        0x0001a164:    02dc6c00    .l..    DCD    48000000
        0x0001a168:    e0040f00    ....    DCD    3758362368
        0x0001a16c:    40020000    ...@    DCD    1073872896
    $t
    i.am_util_delay_ms
    am_util_delay_ms
        0x0001a170:    b510        ..      PUSH     {r4,lr}
        0x0001a172:    4604        .F      MOV      r4,r0
        0x0001a174:    f44f717a    O.zq    MOV      r1,#0x3e8
        0x0001a178:    fb04f001    ....    MUL      r0,r4,r1
        0x0001a17c:    f7fefd88    ....    BL       am_hal_delay_us ; 0x18c90
        0x0001a180:    bd10        ..      POP      {r4,pc}
        0x0001a182:    0000        ..      MOVS     r0,r0
    i.am_util_stdio_printf
    am_util_stdio_printf
        0x0001a184:    b40f        ..      PUSH     {r0-r3}
        0x0001a186:    b538        8.      PUSH     {r3-r5,lr}
        0x0001a188:    480b        .H      LDR      r0,[pc,#44] ; [0x1a1b8] = 0x10000038
        0x0001a18a:    6800        .h      LDR      r0,[r0,#0]
        0x0001a18c:    b918        ..      CBNZ     r0,0x1a196 ; am_util_stdio_printf + 18
        0x0001a18e:    2000        .       MOVS     r0,#0
        0x0001a190:    bc38        8.      POP      {r3-r5}
        0x0001a192:    f85dfb14    ]...    LDR      pc,[sp],#0x14
        0x0001a196:    a805        ..      ADD      r0,sp,#0x14
        0x0001a198:    9000        ..      STR      r0,[sp,#0]
        0x0001a19a:    4808        .H      LDR      r0,[pc,#32] ; [0x1a1bc] = 0x10000564
        0x0001a19c:    9a00        ..      LDR      r2,[sp,#0]
        0x0001a19e:    9904        ..      LDR      r1,[sp,#0x10]
        0x0001a1a0:    f000f824    ..$.    BL       am_util_stdio_vsprintf ; 0x1a1ec
        0x0001a1a4:    4604        .F      MOV      r4,r0
        0x0001a1a6:    2000        .       MOVS     r0,#0
        0x0001a1a8:    9000        ..      STR      r0,[sp,#0]
        0x0001a1aa:    4804        .H      LDR      r0,[pc,#16] ; [0x1a1bc] = 0x10000564
        0x0001a1ac:    4902        .I      LDR      r1,[pc,#8] ; [0x1a1b8] = 0x10000038
        0x0001a1ae:    6809        .h      LDR      r1,[r1,#0]
        0x0001a1b0:    4788        .G      BLX      r1
        0x0001a1b2:    4620         F      MOV      r0,r4
        0x0001a1b4:    e7ec        ..      B        0x1a190 ; am_util_stdio_printf + 12
    $d
        0x0001a1b6:    0000        ..      DCW    0
        0x0001a1b8:    10000038    8...    DCD    268435512
        0x0001a1bc:    10000564    d...    DCD    268436836
    $t
    i.am_util_stdio_printf_init
    am_util_stdio_printf_init
        0x0001a1c0:    4901        .I      LDR      r1,[pc,#4] ; [0x1a1c8] = 0x10000038
        0x0001a1c2:    6008        .`      STR      r0,[r1,#0]
        0x0001a1c4:    4770        pG      BX       lr
    $d
        0x0001a1c6:    0000        ..      DCW    0
        0x0001a1c8:    10000038    8...    DCD    268435512
    $t
    i.am_util_stdio_terminal_clear
    am_util_stdio_terminal_clear
        0x0001a1cc:    b510        ..      PUSH     {r4,lr}
        0x0001a1ce:    a002        ..      ADR      r0,{pc}+0xa ; 0x1a1d8
        0x0001a1d0:    f7ffffd8    ....    BL       am_util_stdio_printf ; 0x1a184
        0x0001a1d4:    bd10        ..      POP      {r4,pc}
    $d
        0x0001a1d6:    0000        ..      DCW    0
        0x0001a1d8:    0a0a0a0a    ....    DCD    168430090
        0x0001a1dc:    0a0a0a0a    ....    DCD    168430090
        0x0001a1e0:    0a0a0a0a    ....    DCD    168430090
        0x0001a1e4:    0a0a0a0a    ....    DCD    168430090
        0x0001a1e8:    00000a0a    ....    DCD    2570
    $t
    i.am_util_stdio_vsprintf
    am_util_stdio_vsprintf
        0x0001a1ec:    e92d4ff7    -..O    PUSH     {r0-r2,r4-r11,lr}
        0x0001a1f0:    ed2d8b02    -...    VPUSH    {d8}
        0x0001a1f4:    b08a        ..      SUB      sp,sp,#0x28
        0x0001a1f6:    4604        .F      MOV      r4,r0
        0x0001a1f8:    460d        .F      MOV      r5,r1
        0x0001a1fa:    f04f0900    O...    MOV      r9,#0
        0x0001a1fe:    2000        .       MOVS     r0,#0
        0x0001a200:    9000        ..      STR      r0,[sp,#0]
        0x0001a202:    e1b9        ..      B        0x1a578 ; am_util_stdio_vsprintf + 908
        0x0001a204:    2006        .       MOVS     r0,#6
        0x0001a206:    9006        ..      STR      r0,[sp,#0x18]
        0x0001a208:    7828        (x      LDRB     r0,[r5,#0]
        0x0001a20a:    2825        %(      CMP      r0,#0x25
        0x0001a20c:    d012        ..      BEQ      0x1a234 ; am_util_stdio_vsprintf + 72
        0x0001a20e:    b16c        l.      CBZ      r4,0x1a22c ; am_util_stdio_vsprintf + 64
        0x0001a210:    7828        (x      LDRB     r0,[r5,#0]
        0x0001a212:    280a        .(      CMP      r0,#0xa
        0x0001a214:    d107        ..      BNE      0x1a226 ; am_util_stdio_vsprintf + 58
        0x0001a216:    48de        .H      LDR      r0,[pc,#888] ; [0x1a590] = 0x1000003c
        0x0001a218:    7800        .x      LDRB     r0,[r0,#0]
        0x0001a21a:    b120         .      CBZ      r0,0x1a226 ; am_util_stdio_vsprintf + 58
        0x0001a21c:    200d        .       MOVS     r0,#0xd
        0x0001a21e:    f8040b01    ....    STRB     r0,[r4],#1
        0x0001a222:    f1090901    ....    ADD      r9,r9,#1
        0x0001a226:    7828        (x      LDRB     r0,[r5,#0]
        0x0001a228:    f8040b01    ....    STRB     r0,[r4],#1
        0x0001a22c:    1c6d        m.      ADDS     r5,r5,#1
        0x0001a22e:    f1090901    ....    ADD      r9,r9,#1
        0x0001a232:    e1a1        ..      B        0x1a578 ; am_util_stdio_vsprintf + 908
        0x0001a234:    1c6d        m.      ADDS     r5,r5,#1
        0x0001a236:    2000        .       MOVS     r0,#0
        0x0001a238:    9002        ..      STR      r0,[sp,#8]
        0x0001a23a:    9003        ..      STR      r0,[sp,#0xc]
        0x0001a23c:    2020                MOVS     r0,#0x20
        0x0001a23e:    9004        ..      STR      r0,[sp,#0x10]
        0x0001a240:    7828        (x      LDRB     r0,[r5,#0]
        0x0001a242:    2830        0(      CMP      r0,#0x30
        0x0001a244:    d101        ..      BNE      0x1a24a ; am_util_stdio_vsprintf + 94
        0x0001a246:    9004        ..      STR      r0,[sp,#0x10]
        0x0001a248:    1c6d        m.      ADDS     r5,r5,#1
        0x0001a24a:    a907        ..      ADD      r1,sp,#0x1c
        0x0001a24c:    4628        (F      MOV      r0,r5
        0x0001a24e:    f000fa2f    ../.    BL       decstr_to_int ; 0x1a6b0
        0x0001a252:    4606        .F      MOV      r6,r0
        0x0001a254:    9807        ..      LDR      r0,[sp,#0x1c]
        0x0001a256:    4405        .D      ADD      r5,r5,r0
        0x0001a258:    7828        (x      LDRB     r0,[r5,#0]
        0x0001a25a:    2873        s(      CMP      r0,#0x73
        0x0001a25c:    d002        ..      BEQ      0x1a264 ; am_util_stdio_vsprintf + 120
        0x0001a25e:    2e00        ..      CMP      r6,#0
        0x0001a260:    da00        ..      BGE      0x1a264 ; am_util_stdio_vsprintf + 120
        0x0001a262:    4276        vB      RSBS     r6,r6,#0
        0x0001a264:    7828        (x      LDRB     r0,[r5,#0]
        0x0001a266:    282e        .(      CMP      r0,#0x2e
        0x0001a268:    d107        ..      BNE      0x1a27a ; am_util_stdio_vsprintf + 142
        0x0001a26a:    1c6d        m.      ADDS     r5,r5,#1
        0x0001a26c:    a907        ..      ADD      r1,sp,#0x1c
        0x0001a26e:    4628        (F      MOV      r0,r5
        0x0001a270:    f000fa1e    ....    BL       decstr_to_int ; 0x1a6b0
        0x0001a274:    9006        ..      STR      r0,[sp,#0x18]
        0x0001a276:    9807        ..      LDR      r0,[sp,#0x1c]
        0x0001a278:    4405        .D      ADD      r5,r5,r0
        0x0001a27a:    7828        (x      LDRB     r0,[r5,#0]
        0x0001a27c:    286c        l(      CMP      r0,#0x6c
        0x0001a27e:    d106        ..      BNE      0x1a28e ; am_util_stdio_vsprintf + 162
        0x0001a280:    1c6d        m.      ADDS     r5,r5,#1
        0x0001a282:    7828        (x      LDRB     r0,[r5,#0]
        0x0001a284:    286c        l(      CMP      r0,#0x6c
        0x0001a286:    d102        ..      BNE      0x1a28e ; am_util_stdio_vsprintf + 162
        0x0001a288:    1c6d        m.      ADDS     r5,r5,#1
        0x0001a28a:    2001        .       MOVS     r0,#1
        0x0001a28c:    9002        ..      STR      r0,[sp,#8]
        0x0001a28e:    7828        (x      LDRB     r0,[r5,#0]
        0x0001a290:    2866        f(      CMP      r0,#0x66
        0x0001a292:    d06f        o.      BEQ      0x1a374 ; am_util_stdio_vsprintf + 392
        0x0001a294:    dc08        ..      BGT      0x1a2a8 ; am_util_stdio_vsprintf + 188
        0x0001a296:    2846        F(      CMP      r0,#0x46
        0x0001a298:    d06d        m.      BEQ      0x1a376 ; am_util_stdio_vsprintf + 394
        0x0001a29a:    2858        X(      CMP      r0,#0x58
        0x0001a29c:    d05c        \.      BEQ      0x1a358 ; am_util_stdio_vsprintf + 364
        0x0001a29e:    2863        c(      CMP      r0,#0x63
        0x0001a2a0:    d00b        ..      BEQ      0x1a2ba ; am_util_stdio_vsprintf + 206
        0x0001a2a2:    2864        d(      CMP      r0,#0x64
        0x0001a2a4:    d168        h.      BNE      0x1a378 ; am_util_stdio_vsprintf + 396
        0x0001a2a6:    e0c3        ..      B        0x1a430 ; am_util_stdio_vsprintf + 580
        0x0001a2a8:    2869        i(      CMP      r0,#0x69
        0x0001a2aa:    d07d        }.      BEQ      0x1a3a8 ; am_util_stdio_vsprintf + 444
        0x0001a2ac:    2873        s(      CMP      r0,#0x73
        0x0001a2ae:    d011        ..      BEQ      0x1a2d4 ; am_util_stdio_vsprintf + 232
        0x0001a2b0:    2875        u(      CMP      r0,#0x75
        0x0001a2b2:    d07a        z.      BEQ      0x1a3aa ; am_util_stdio_vsprintf + 446
        0x0001a2b4:    2878        x(      CMP      r0,#0x78
        0x0001a2b6:    d1f5        ..      BNE      0x1a2a4 ; am_util_stdio_vsprintf + 184
        0x0001a2b8:    e04b        K.      B        0x1a352 ; am_util_stdio_vsprintf + 358
        0x0001a2ba:    980e        ..      LDR      r0,[sp,#0x38]
        0x0001a2bc:    f8101b04    ....    LDRB     r1,[r0],#4
        0x0001a2c0:    900e        ..      STR      r0,[sp,#0x38]
        0x0001a2c2:    b2c8        ..      UXTB     r0,r1
        0x0001a2c4:    9005        ..      STR      r0,[sp,#0x14]
        0x0001a2c6:    b114        ..      CBZ      r4,0x1a2ce ; am_util_stdio_vsprintf + 226
        0x0001a2c8:    9805        ..      LDR      r0,[sp,#0x14]
        0x0001a2ca:    f8040b01    ....    STRB     r0,[r4],#1
        0x0001a2ce:    f1090901    ....    ADD      r9,r9,#1
        0x0001a2d2:    e14e        N.      B        0x1a572 ; am_util_stdio_vsprintf + 902
        0x0001a2d4:    980e        ..      LDR      r0,[sp,#0x38]
        0x0001a2d6:    f850bb04    P...    LDR      r11,[r0],#4
        0x0001a2da:    900e        ..      STR      r0,[sp,#0x38]
        0x0001a2dc:    4658        XF      MOV      r0,r11
        0x0001a2de:    f000fdd5    ....    BL       simple_strlen ; 0x1ae8c
        0x0001a2e2:    9000        ..      STR      r0,[sp,#0]
        0x0001a2e4:    2e00        ..      CMP      r6,#0
        0x0001a2e6:    dd11        ..      BLE      0x1a30c ; am_util_stdio_vsprintf + 288
        0x0001a2e8:    9800        ..      LDR      r0,[sp,#0]
        0x0001a2ea:    42b0        .B      CMP      r0,r6
        0x0001a2ec:    d20e        ..      BCS      0x1a30c ; am_util_stdio_vsprintf + 288
        0x0001a2ee:    9800        ..      LDR      r0,[sp,#0]
        0x0001a2f0:    1a36        6.      SUBS     r6,r6,r0
        0x0001a2f2:    4632        2F      MOV      r2,r6
        0x0001a2f4:    4620         F      MOV      r0,r4
        0x0001a2f6:    9904        ..      LDR      r1,[sp,#0x10]
        0x0001a2f8:    f000fdb7    ....    BL       padbuffer ; 0x1ae6a
        0x0001a2fc:    4606        .F      MOV      r6,r0
        0x0001a2fe:    b10c        ..      CBZ      r4,0x1a304 ; am_util_stdio_vsprintf + 280
        0x0001a300:    4630        0F      MOV      r0,r6
        0x0001a302:    e000        ..      B        0x1a306 ; am_util_stdio_vsprintf + 282
        0x0001a304:    2000        .       MOVS     r0,#0
        0x0001a306:    4404        .D      ADD      r4,r4,r0
        0x0001a308:    44b1        .D      ADD      r9,r9,r6
        0x0001a30a:    2600        .&      MOVS     r6,#0
        0x0001a30c:    e008        ..      B        0x1a320 ; am_util_stdio_vsprintf + 308
        0x0001a30e:    b11c        ..      CBZ      r4,0x1a318 ; am_util_stdio_vsprintf + 300
        0x0001a310:    f89b0000    ....    LDRB     r0,[r11,#0]
        0x0001a314:    f8040b01    ....    STRB     r0,[r4],#1
        0x0001a318:    f10b0b01    ....    ADD      r11,r11,#1
        0x0001a31c:    f1090901    ....    ADD      r9,r9,#1
        0x0001a320:    f89b0000    ....    LDRB     r0,[r11,#0]
        0x0001a324:    2800        .(      CMP      r0,#0
        0x0001a326:    d1f2        ..      BNE      0x1a30e ; am_util_stdio_vsprintf + 290
        0x0001a328:    b196        ..      CBZ      r6,0x1a350 ; am_util_stdio_vsprintf + 356
        0x0001a32a:    4276        vB      RSBS     r6,r6,#0
        0x0001a32c:    9800        ..      LDR      r0,[sp,#0]
        0x0001a32e:    42b0        .B      CMP      r0,r6
        0x0001a330:    d20e        ..      BCS      0x1a350 ; am_util_stdio_vsprintf + 356
        0x0001a332:    9800        ..      LDR      r0,[sp,#0]
        0x0001a334:    1a36        6.      SUBS     r6,r6,r0
        0x0001a336:    4632        2F      MOV      r2,r6
        0x0001a338:    4620         F      MOV      r0,r4
        0x0001a33a:    9904        ..      LDR      r1,[sp,#0x10]
        0x0001a33c:    f000fd95    ....    BL       padbuffer ; 0x1ae6a
        0x0001a340:    4606        .F      MOV      r6,r0
        0x0001a342:    b10c        ..      CBZ      r4,0x1a348 ; am_util_stdio_vsprintf + 348
        0x0001a344:    4630        0F      MOV      r0,r6
        0x0001a346:    e000        ..      B        0x1a34a ; am_util_stdio_vsprintf + 350
        0x0001a348:    2000        .       MOVS     r0,#0
        0x0001a34a:    4404        .D      ADD      r4,r4,r0
        0x0001a34c:    44b1        .D      ADD      r9,r9,r6
        0x0001a34e:    2600        .&      MOVS     r6,#0
        0x0001a350:    e10f        ..      B        0x1a572 ; am_util_stdio_vsprintf + 902
        0x0001a352:    2001        .       MOVS     r0,#1
        0x0001a354:    9003        ..      STR      r0,[sp,#0xc]
        0x0001a356:    bf00        ..      NOP      
        0x0001a358:    9802        ..      LDR      r0,[sp,#8]
        0x0001a35a:    b170        p.      CBZ      r0,0x1a37a ; am_util_stdio_vsprintf + 398
        0x0001a35c:    980e        ..      LDR      r0,[sp,#0x38]
        0x0001a35e:    1dc0        ..      ADDS     r0,r0,#7
        0x0001a360:    f0200007     ...    BIC      r0,r0,#7
        0x0001a364:    4601        .F      MOV      r1,r0
        0x0001a366:    900e        ..      STR      r0,[sp,#0x38]
        0x0001a368:    6800        .h      LDR      r0,[r0,#0]
        0x0001a36a:    6849        Ih      LDR      r1,[r1,#4]
        0x0001a36c:    9a0e        ..      LDR      r2,[sp,#0x38]
        0x0001a36e:    3208        .2      ADDS     r2,r2,#8
        0x0001a370:    920e        ..      STR      r2,[sp,#0x38]
        0x0001a372:    e008        ..      B        0x1a386 ; am_util_stdio_vsprintf + 410
        0x0001a374:    e0c3        ..      B        0x1a4fe ; am_util_stdio_vsprintf + 786
        0x0001a376:    e0c3        ..      B        0x1a500 ; am_util_stdio_vsprintf + 788
        0x0001a378:    e0f4        ..      B        0x1a564 ; am_util_stdio_vsprintf + 888
        0x0001a37a:    980e        ..      LDR      r0,[sp,#0x38]
        0x0001a37c:    6800        .h      LDR      r0,[r0,#0]
        0x0001a37e:    990e        ..      LDR      r1,[sp,#0x38]
        0x0001a380:    1d09        ..      ADDS     r1,r1,#4
        0x0001a382:    910e        ..      STR      r1,[sp,#0x38]
        0x0001a384:    2100        .!      MOVS     r1,#0
        0x0001a386:    4607        .F      MOV      r7,r0
        0x0001a388:    4688        .F      MOV      r8,r1
        0x0001a38a:    b19e        ..      CBZ      r6,0x1a3b4 ; am_util_stdio_vsprintf + 456
        0x0001a38c:    4638        8F      MOV      r0,r7
        0x0001a38e:    4641        AF      MOV      r1,r8
        0x0001a390:    f000fd22    ..".    BL       ndigits_in_hex ; 0x1add8
        0x0001a394:    1a36        6.      SUBS     r6,r6,r0
        0x0001a396:    4632        2F      MOV      r2,r6
        0x0001a398:    4620         F      MOV      r0,r4
        0x0001a39a:    9904        ..      LDR      r1,[sp,#0x10]
        0x0001a39c:    f000fd65    ..e.    BL       padbuffer ; 0x1ae6a
        0x0001a3a0:    4606        .F      MOV      r6,r0
        0x0001a3a2:    b11c        ..      CBZ      r4,0x1a3ac ; am_util_stdio_vsprintf + 448
        0x0001a3a4:    4630        0F      MOV      r0,r6
        0x0001a3a6:    e002        ..      B        0x1a3ae ; am_util_stdio_vsprintf + 450
        0x0001a3a8:    e043        C.      B        0x1a432 ; am_util_stdio_vsprintf + 582
        0x0001a3aa:    e00e        ..      B        0x1a3ca ; am_util_stdio_vsprintf + 478
        0x0001a3ac:    2000        .       MOVS     r0,#0
        0x0001a3ae:    4404        .D      ADD      r4,r4,r0
        0x0001a3b0:    44b1        .D      ADD      r9,r9,r6
        0x0001a3b2:    2600        .&      MOVS     r6,#0
        0x0001a3b4:    4622        "F      MOV      r2,r4
        0x0001a3b6:    4638        8F      MOV      r0,r7
        0x0001a3b8:    4641        AF      MOV      r1,r8
        0x0001a3ba:    9b03        ..      LDR      r3,[sp,#0xc]
        0x0001a3bc:    f000fd72    ..r.    BL       uint64_to_hexstr ; 0x1aea4
        0x0001a3c0:    4682        .F      MOV      r10,r0
        0x0001a3c2:    b104        ..      CBZ      r4,0x1a3c6 ; am_util_stdio_vsprintf + 474
        0x0001a3c4:    4454        TD      ADD      r4,r4,r10
        0x0001a3c6:    44d1        .D      ADD      r9,r9,r10
        0x0001a3c8:    e0d3        ..      B        0x1a572 ; am_util_stdio_vsprintf + 902
        0x0001a3ca:    9802        ..      LDR      r0,[sp,#8]
        0x0001a3cc:    b158        X.      CBZ      r0,0x1a3e6 ; am_util_stdio_vsprintf + 506
        0x0001a3ce:    980e        ..      LDR      r0,[sp,#0x38]
        0x0001a3d0:    1dc0        ..      ADDS     r0,r0,#7
        0x0001a3d2:    f0200007     ...    BIC      r0,r0,#7
        0x0001a3d6:    4601        .F      MOV      r1,r0
        0x0001a3d8:    900e        ..      STR      r0,[sp,#0x38]
        0x0001a3da:    6800        .h      LDR      r0,[r0,#0]
        0x0001a3dc:    6849        Ih      LDR      r1,[r1,#4]
        0x0001a3de:    9a0e        ..      LDR      r2,[sp,#0x38]
        0x0001a3e0:    3208        .2      ADDS     r2,r2,#8
        0x0001a3e2:    920e        ..      STR      r2,[sp,#0x38]
        0x0001a3e4:    e005        ..      B        0x1a3f2 ; am_util_stdio_vsprintf + 518
        0x0001a3e6:    980e        ..      LDR      r0,[sp,#0x38]
        0x0001a3e8:    6800        .h      LDR      r0,[r0,#0]
        0x0001a3ea:    990e        ..      LDR      r1,[sp,#0x38]
        0x0001a3ec:    1d09        ..      ADDS     r1,r1,#4
        0x0001a3ee:    910e        ..      STR      r1,[sp,#0x38]
        0x0001a3f0:    2100        .!      MOVS     r1,#0
        0x0001a3f2:    4607        .F      MOV      r7,r0
        0x0001a3f4:    4688        .F      MOV      r8,r1
        0x0001a3f6:    b18e        ..      CBZ      r6,0x1a41c ; am_util_stdio_vsprintf + 560
        0x0001a3f8:    4638        8F      MOV      r0,r7
        0x0001a3fa:    4641        AF      MOV      r1,r8
        0x0001a3fc:    f000fd18    ....    BL       ndigits_in_u64 ; 0x1ae30
        0x0001a400:    1a36        6.      SUBS     r6,r6,r0
        0x0001a402:    4632        2F      MOV      r2,r6
        0x0001a404:    4620         F      MOV      r0,r4
        0x0001a406:    9904        ..      LDR      r1,[sp,#0x10]
        0x0001a408:    f000fd2f    ../.    BL       padbuffer ; 0x1ae6a
        0x0001a40c:    4606        .F      MOV      r6,r0
        0x0001a40e:    b10c        ..      CBZ      r4,0x1a414 ; am_util_stdio_vsprintf + 552
        0x0001a410:    4630        0F      MOV      r0,r6
        0x0001a412:    e000        ..      B        0x1a416 ; am_util_stdio_vsprintf + 554
        0x0001a414:    2000        .       MOVS     r0,#0
        0x0001a416:    4404        .D      ADD      r4,r4,r0
        0x0001a418:    44b1        .D      ADD      r9,r9,r6
        0x0001a41a:    2600        .&      MOVS     r6,#0
        0x0001a41c:    4622        "F      MOV      r2,r4
        0x0001a41e:    4638        8F      MOV      r0,r7
        0x0001a420:    4641        AF      MOV      r1,r8
        0x0001a422:    f000fd84    ....    BL       uint64_to_str ; 0x1af2e
        0x0001a426:    4682        .F      MOV      r10,r0
        0x0001a428:    b104        ..      CBZ      r4,0x1a42c ; am_util_stdio_vsprintf + 576
        0x0001a42a:    4454        TD      ADD      r4,r4,r10
        0x0001a42c:    44d1        .D      ADD      r9,r9,r10
        0x0001a42e:    e0a0        ..      B        0x1a572 ; am_util_stdio_vsprintf + 902
        0x0001a430:    bf00        ..      NOP      
        0x0001a432:    9802        ..      LDR      r0,[sp,#8]
        0x0001a434:    b158        X.      CBZ      r0,0x1a44e ; am_util_stdio_vsprintf + 610
        0x0001a436:    980e        ..      LDR      r0,[sp,#0x38]
        0x0001a438:    1dc0        ..      ADDS     r0,r0,#7
        0x0001a43a:    f0200007     ...    BIC      r0,r0,#7
        0x0001a43e:    4601        .F      MOV      r1,r0
        0x0001a440:    900e        ..      STR      r0,[sp,#0x38]
        0x0001a442:    6800        .h      LDR      r0,[r0,#0]
        0x0001a444:    6849        Ih      LDR      r1,[r1,#4]
        0x0001a446:    9a0e        ..      LDR      r2,[sp,#0x38]
        0x0001a448:    3208        .2      ADDS     r2,r2,#8
        0x0001a44a:    920e        ..      STR      r2,[sp,#0x38]
        0x0001a44c:    e005        ..      B        0x1a45a ; am_util_stdio_vsprintf + 622
        0x0001a44e:    980e        ..      LDR      r0,[sp,#0x38]
        0x0001a450:    6800        .h      LDR      r0,[r0,#0]
        0x0001a452:    990e        ..      LDR      r1,[sp,#0x38]
        0x0001a454:    1d09        ..      ADDS     r1,r1,#4
        0x0001a456:    910e        ..      STR      r1,[sp,#0x38]
        0x0001a458:    17c1        ..      ASRS     r1,r0,#31
        0x0001a45a:    e9cd0108    ....    STRD     r0,r1,[sp,#0x20]
        0x0001a45e:    2300        .#      MOVS     r3,#0
        0x0001a460:    e9dd0108    ....    LDRD     r0,r1,[sp,#0x20]
        0x0001a464:    1ac0        ..      SUBS     r0,r0,r3
        0x0001a466:    4199        .A      SBCS     r1,r1,r3
        0x0001a468:    da08        ..      BGE      0x1a47c ; am_util_stdio_vsprintf + 656
        0x0001a46a:    2200        ."      MOVS     r2,#0
        0x0001a46c:    e9dd1008    ....    LDRD     r1,r0,[sp,#0x20]
        0x0001a470:    424f        OB      RSBS     r7,r1,#0
        0x0001a472:    eb620800    b...    SBC      r8,r2,r0
        0x0001a476:    2001        .       MOVS     r0,#1
        0x0001a478:    9001        ..      STR      r0,[sp,#4]
        0x0001a47a:    e003        ..      B        0x1a484 ; am_util_stdio_vsprintf + 664
        0x0001a47c:    e9dd7808    ...x    LDRD     r7,r8,[sp,#0x20]
        0x0001a480:    2000        .       MOVS     r0,#0
        0x0001a482:    9001        ..      STR      r0,[sp,#4]
        0x0001a484:    b34e        N.      CBZ      r6,0x1a4da ; am_util_stdio_vsprintf + 750
        0x0001a486:    4638        8F      MOV      r0,r7
        0x0001a488:    4641        AF      MOV      r1,r8
        0x0001a48a:    f000fcbf    ....    BL       ndigits_in_i64 ; 0x1ae0c
        0x0001a48e:    1a36        6.      SUBS     r6,r6,r0
        0x0001a490:    9801        ..      LDR      r0,[sp,#4]
        0x0001a492:    b148        H.      CBZ      r0,0x1a4a8 ; am_util_stdio_vsprintf + 700
        0x0001a494:    1e76        v.      SUBS     r6,r6,#1
        0x0001a496:    9804        ..      LDR      r0,[sp,#0x10]
        0x0001a498:    2830        0(      CMP      r0,#0x30
        0x0001a49a:    d105        ..      BNE      0x1a4a8 ; am_util_stdio_vsprintf + 700
        0x0001a49c:    b114        ..      CBZ      r4,0x1a4a4 ; am_util_stdio_vsprintf + 696
        0x0001a49e:    202d        -       MOVS     r0,#0x2d
        0x0001a4a0:    f8040b01    ....    STRB     r0,[r4],#1
        0x0001a4a4:    f1090901    ....    ADD      r9,r9,#1
        0x0001a4a8:    4632        2F      MOV      r2,r6
        0x0001a4aa:    4620         F      MOV      r0,r4
        0x0001a4ac:    9904        ..      LDR      r1,[sp,#0x10]
        0x0001a4ae:    f000fcdc    ....    BL       padbuffer ; 0x1ae6a
        0x0001a4b2:    4606        .F      MOV      r6,r0
        0x0001a4b4:    b10c        ..      CBZ      r4,0x1a4ba ; am_util_stdio_vsprintf + 718
        0x0001a4b6:    4630        0F      MOV      r0,r6
        0x0001a4b8:    e000        ..      B        0x1a4bc ; am_util_stdio_vsprintf + 720
        0x0001a4ba:    2000        .       MOVS     r0,#0
        0x0001a4bc:    4404        .D      ADD      r4,r4,r0
        0x0001a4be:    44b1        .D      ADD      r9,r9,r6
        0x0001a4c0:    2600        .&      MOVS     r6,#0
        0x0001a4c2:    9801        ..      LDR      r0,[sp,#4]
        0x0001a4c4:    b188        ..      CBZ      r0,0x1a4ea ; am_util_stdio_vsprintf + 766
        0x0001a4c6:    9804        ..      LDR      r0,[sp,#0x10]
        0x0001a4c8:    2820         (      CMP      r0,#0x20
        0x0001a4ca:    d10e        ..      BNE      0x1a4ea ; am_util_stdio_vsprintf + 766
        0x0001a4cc:    b114        ..      CBZ      r4,0x1a4d4 ; am_util_stdio_vsprintf + 744
        0x0001a4ce:    202d        -       MOVS     r0,#0x2d
        0x0001a4d0:    f8040b01    ....    STRB     r0,[r4],#1
        0x0001a4d4:    f1090901    ....    ADD      r9,r9,#1
        0x0001a4d8:    e007        ..      B        0x1a4ea ; am_util_stdio_vsprintf + 766
        0x0001a4da:    9801        ..      LDR      r0,[sp,#4]
        0x0001a4dc:    b128        (.      CBZ      r0,0x1a4ea ; am_util_stdio_vsprintf + 766
        0x0001a4de:    b114        ..      CBZ      r4,0x1a4e6 ; am_util_stdio_vsprintf + 762
        0x0001a4e0:    202d        -       MOVS     r0,#0x2d
        0x0001a4e2:    f8040b01    ....    STRB     r0,[r4],#1
        0x0001a4e6:    f1090901    ....    ADD      r9,r9,#1
        0x0001a4ea:    4622        "F      MOV      r2,r4
        0x0001a4ec:    4638        8F      MOV      r0,r7
        0x0001a4ee:    4641        AF      MOV      r1,r8
        0x0001a4f0:    f000fd1d    ....    BL       uint64_to_str ; 0x1af2e
        0x0001a4f4:    4682        .F      MOV      r10,r0
        0x0001a4f6:    b104        ..      CBZ      r4,0x1a4fa ; am_util_stdio_vsprintf + 782
        0x0001a4f8:    4454        TD      ADD      r4,r4,r10
        0x0001a4fa:    44d1        .D      ADD      r9,r9,r10
        0x0001a4fc:    e039        9.      B        0x1a572 ; am_util_stdio_vsprintf + 902
        0x0001a4fe:    bf00        ..      NOP      
        0x0001a500:    b37c        |.      CBZ      r4,0x1a562 ; am_util_stdio_vsprintf + 886
        0x0001a502:    980e        ..      LDR      r0,[sp,#0x38]
        0x0001a504:    1dc0        ..      ADDS     r0,r0,#7
        0x0001a506:    f0200007     ...    BIC      r0,r0,#7
        0x0001a50a:    900e        ..      STR      r0,[sp,#0x38]
        0x0001a50c:    ecb01b02    ....    VLDM     r0!,{d1}
        0x0001a510:    eeb00a41    ..A.    VMOV.F32 s0,s2
        0x0001a514:    eef00a61    ..a.    VMOV.F32 s1,s3
        0x0001a518:    900e        ..      STR      r0,[sp,#0x38]
        0x0001a51a:    ec510b10    Q...    VMOV     r0,r1,d0
        0x0001a51e:    f000fdd3    ....    BL       __aeabi_d2f ; 0x1b0c8
        0x0001a522:    ee080a10    ....    VMOV     s16,r0
        0x0001a526:    2014        .       MOVS     r0,#0x14
        0x0001a528:    6020         `      STR      r0,[r4,#0]
        0x0001a52a:    4620         F      MOV      r0,r4
        0x0001a52c:    eeb00a48    ..H.    VMOV.F32 s0,s16
        0x0001a530:    9906        ..      LDR      r1,[sp,#0x18]
        0x0001a532:    f000f945    ..E.    BL       ftoa ; 0x1a7c0
        0x0001a536:    4682        .F      MOV      r10,r0
        0x0001a538:    f1ba0f00    ....    CMP      r10,#0
        0x0001a53c:    da0e        ..      BGE      0x1a55c ; am_util_stdio_vsprintf + 880
        0x0001a53e:    f10a0101    ....    ADD      r1,r10,#1
        0x0001a542:    b909        ..      CBNZ     r1,0x1a548 ; am_util_stdio_vsprintf + 860
        0x0001a544:    4813        .H      LDR      r0,[pc,#76] ; [0x1a594] = 0x302e30
        0x0001a546:    e005        ..      B        0x1a554 ; am_util_stdio_vsprintf + 872
        0x0001a548:    f10a0102    ....    ADD      r1,r10,#2
        0x0001a54c:    b909        ..      CBNZ     r1,0x1a552 ; am_util_stdio_vsprintf + 870
        0x0001a54e:    4812        .H      LDR      r0,[pc,#72] ; [0x1a598] = 0x232e23
        0x0001a550:    e000        ..      B        0x1a554 ; am_util_stdio_vsprintf + 872
        0x0001a552:    4812        .H      LDR      r0,[pc,#72] ; [0x1a59c] = 0x3f2e3f
        0x0001a554:    6020         `      STR      r0,[r4,#0]
        0x0001a556:    f04f0a03    O...    MOV      r10,#3
        0x0001a55a:    bf00        ..      NOP      
        0x0001a55c:    44d1        .D      ADD      r9,r9,r10
        0x0001a55e:    4454        TD      ADD      r4,r4,r10
        0x0001a560:    bf00        ..      NOP      
        0x0001a562:    e006        ..      B        0x1a572 ; am_util_stdio_vsprintf + 902
        0x0001a564:    b114        ..      CBZ      r4,0x1a56c ; am_util_stdio_vsprintf + 896
        0x0001a566:    7828        (x      LDRB     r0,[r5,#0]
        0x0001a568:    f8040b01    ....    STRB     r0,[r4],#1
        0x0001a56c:    f1090901    ....    ADD      r9,r9,#1
        0x0001a570:    bf00        ..      NOP      
        0x0001a572:    bf00        ..      NOP      
        0x0001a574:    1c6d        m.      ADDS     r5,r5,#1
        0x0001a576:    bf00        ..      NOP      
        0x0001a578:    7828        (x      LDRB     r0,[r5,#0]
        0x0001a57a:    2800        .(      CMP      r0,#0
        0x0001a57c:    f47fae42    ..B.    BNE      0x1a204 ; am_util_stdio_vsprintf + 24
        0x0001a580:    b104        ..      CBZ      r4,0x1a584 ; am_util_stdio_vsprintf + 920
        0x0001a582:    7020         p      STRB     r0,[r4,#0]
        0x0001a584:    4648        HF      MOV      r0,r9
        0x0001a586:    b00a        ..      ADD      sp,sp,#0x28
        0x0001a588:    ecbd8b02    ....    VPOP     {d8}
        0x0001a58c:    e8bd8ffe    ....    POP      {r1-r11,pc}
    $d
        0x0001a590:    1000003c    <...    DCD    268435516
        0x0001a594:    00302e30    0.0.    DCD    3157552
        0x0001a598:    00232e23    #.#.    DCD    2305571
        0x0001a59c:    003f2e3f    ?.?.    DCD    4140607
    $t
    i.buck_ldo_update_override
    buck_ldo_update_override
        0x0001a5a0:    4906        .I      LDR      r1,[pc,#24] ; [0x1a5bc] = 0x40020000
        0x0001a5a2:    6e0a        .n      LDR      r2,[r1,#0x60]
        0x0001a5a4:    f3604210    `..B    BFI      r2,r0,#16,#1
        0x0001a5a8:    660a        .f      STR      r2,[r1,#0x60]
        0x0001a5aa:    6e0a        .n      LDR      r2,[r1,#0x60]
        0x0001a5ac:    f3600200    `...    BFI      r2,r0,#0,#1
        0x0001a5b0:    660a        .f      STR      r2,[r1,#0x60]
        0x0001a5b2:    6e0a        .n      LDR      r2,[r1,#0x60]
        0x0001a5b4:    f3601245    `.E.    BFI      r2,r0,#5,#1
        0x0001a5b8:    660a        .f      STR      r2,[r1,#0x60]
        0x0001a5ba:    4770        pG      BX       lr
    $d
        0x0001a5bc:    40020000    ...@    DCD    1073872896
    $t
    i.clear_rx_buf
    clear_rx_buf
        0x0001a5c0:    2000        .       MOVS     r0,#0
        0x0001a5c2:    e003        ..      B        0x1a5cc ; clear_rx_buf + 12
        0x0001a5c4:    21ee        .!      MOVS     r1,#0xee
        0x0001a5c6:    4a03        .J      LDR      r2,[pc,#12] ; [0x1a5d4] = 0x10000164
        0x0001a5c8:    5411        .T      STRB     r1,[r2,r0]
        0x0001a5ca:    1c40        @.      ADDS     r0,r0,#1
        0x0001a5cc:    f5b06f80    ...o    CMP      r0,#0x400
        0x0001a5d0:    d3f8        ..      BCC      0x1a5c4 ; clear_rx_buf + 4
        0x0001a5d2:    4770        pG      BX       lr
    $d
        0x0001a5d4:    10000164    d...    DCD    268435812
    $t
    i.copy_words
    copy_words
        0x0001a5d8:    b430        0.      PUSH     {r4,r5}
        0x0001a5da:    2301        .#      MOVS     r3,#1
        0x0001a5dc:    f05f0403    _...    MOVS.W   r4,#3
        0x0001a5e0:    f1a20c01    ....    SUB      r12,r2,#1
        0x0001a5e4:    f851502c    Q.,P    LDR      r5,[r1,r12,LSL #2]
        0x0001a5e8:    f840502c    @.,P    STR      r5,[r0,r12,LSL #2]
        0x0001a5ec:    1e92        ..      SUBS     r2,r2,#2
        0x0001a5ee:    f851c022    Q.".    LDR      r12,[r1,r2,LSL #2]
        0x0001a5f2:    f840c022    @.".    STR      r12,[r0,r2,LSL #2]
        0x0001a5f6:    1c9b        ..      ADDS     r3,r3,#2
        0x0001a5f8:    42a3        .B      CMP      r3,r4
        0x0001a5fa:    dbf1        ..      BLT      0x1a5e0 ; copy_words + 8
        0x0001a5fc:    bc30        0.      POP      {r4,r5}
        0x0001a5fe:    4770        pG      BX       lr
    i.crypto_boost_trims
    crypto_boost_trims
        0x0001a600:    b5f8        ..      PUSH     {r3-r7,lr}
        0x0001a602:    4f29        )O      LDR      r7,[pc,#164] ; [0x1a6a8] = 0x10000138
        0x0001a604:    4606        .F      MOV      r6,r0
        0x0001a606:    460c        .F      MOV      r4,r1
        0x0001a608:    78b8        .x      LDRB     r0,[r7,#2]
        0x0001a60a:    ea460100    F...    ORR      r1,r6,r0
        0x0001a60e:    4030        0@      ANDS     r0,r0,r6
        0x0001a610:    ea310000    1...    BICS     r0,r1,r0
        0x0001a614:    bf08        ..      IT       EQ
        0x0001a616:    bdf8        ..      POPEQ    {r3-r7,pc}
        0x0001a618:    f7fdfe8e    ....    BL       am_hal_interrupt_master_disable ; 0x18338
        0x0001a61c:    9000        ..      STR      r0,[sp,#0]
        0x0001a61e:    70be        .p      STRB     r6,[r7,#2]
        0x0001a620:    6a78        xj      LDR      r0,[r7,#0x24]
        0x0001a622:    2e00        ..      CMP      r6,#0
        0x0001a624:    bf0c        ..      ITE      EQ
        0x0001a626:    1b05        ..      SUBEQ    r5,r0,r4
        0x0001a628:    1905        ..      ADDNE    r5,r0,r4
        0x0001a62a:    627d        }b      STR      r5,[r7,#0x24]
        0x0001a62c:    2d00        .-      CMP      r5,#0
        0x0001a62e:    bfb8        ..      IT       LT
        0x0001a630:    2500        .%      MOVLT    r5,#0
        0x0001a632:    db02        ..      BLT      0x1a63a ; crypto_boost_trims + 58
        0x0001a634:    2d3f        ?-      CMP      r5,#0x3f
        0x0001a636:    bf88        ..      IT       HI
        0x0001a638:    253f        ?%      MOVHI    r5,#0x3f
        0x0001a63a:    2e00        ..      CMP      r6,#0
        0x0001a63c:    6ab8        .j      LDR      r0,[r7,#0x28]
        0x0001a63e:    bf14        ..      ITE      NE
        0x0001a640:    4404        .D      ADDNE    r4,r0
        0x0001a642:    1b04        ..      SUBEQ    r4,r0,r4
        0x0001a644:    62bc        .b      STR      r4,[r7,#0x28]
        0x0001a646:    2c00        .,      CMP      r4,#0
        0x0001a648:    bfb8        ..      IT       LT
        0x0001a64a:    2400        .$      MOVLT    r4,#0
        0x0001a64c:    db02        ..      BLT      0x1a654 ; crypto_boost_trims + 84
        0x0001a64e:    2c3f        ?,      CMP      r4,#0x3f
        0x0001a650:    bf88        ..      IT       HI
        0x0001a652:    243f        ?$      MOVHI    r4,#0x3f
        0x0001a654:    4f15        .O      LDR      r7,[pc,#84] ; [0x1a6ac] = 0x40020000
        0x0001a656:    b17e        ~.      CBZ      r6,0x1a678 ; crypto_boost_trims + 120
        0x0001a658:    f8d7036c    ..l.    LDR      r0,[r7,#0x36c]
        0x0001a65c:    f3655019    e..P    BFI      r0,r5,#20,#6
        0x0001a660:    f8c7036c    ..l.    STR      r0,[r7,#0x36c]
        0x0001a664:    2014        .       MOVS     r0,#0x14
        0x0001a666:    f7fefb13    ....    BL       am_hal_delay_us ; 0x18c90
        0x0001a66a:    f8d70088    ....    LDR      r0,[r7,#0x88]
        0x0001a66e:    f3640005    d...    BFI      r0,r4,#0,#6
        0x0001a672:    f8c70088    ....    STR      r0,[r7,#0x88]
        0x0001a676:    e00e        ..      B        0x1a696 ; crypto_boost_trims + 150
        0x0001a678:    f8d70088    ....    LDR      r0,[r7,#0x88]
        0x0001a67c:    f3640005    d...    BFI      r0,r4,#0,#6
        0x0001a680:    f8c70088    ....    STR      r0,[r7,#0x88]
        0x0001a684:    2014        .       MOVS     r0,#0x14
        0x0001a686:    f7fefb03    ....    BL       am_hal_delay_us ; 0x18c90
        0x0001a68a:    f8d7036c    ..l.    LDR      r0,[r7,#0x36c]
        0x0001a68e:    f3655019    e..P    BFI      r0,r5,#20,#6
        0x0001a692:    f8c7036c    ..l.    STR      r0,[r7,#0x36c]
        0x0001a696:    9800        ..      LDR      r0,[sp,#0]
        0x0001a698:    f7fdfe52    ..R.    BL       am_hal_interrupt_master_set ; 0x18340
        0x0001a69c:    e8bd40f8    ...@    POP      {r3-r7,lr}
        0x0001a6a0:    2014        .       MOVS     r0,#0x14
        0x0001a6a2:    f7febaf5    ....    B        am_hal_delay_us ; 0x18c90
    $d
        0x0001a6a6:    0000        ..      DCW    0
        0x0001a6a8:    10000138    8...    DCD    268435768
        0x0001a6ac:    40020000    ...@    DCD    1073872896
    $t
    i.decstr_to_int
    decstr_to_int
        0x0001a6b0:    b530        0.      PUSH     {r4,r5,lr}
        0x0001a6b2:    4602        .F      MOV      r2,r0
        0x0001a6b4:    2500        .%      MOVS     r5,#0
        0x0001a6b6:    2300        .#      MOVS     r3,#0
        0x0001a6b8:    2400        .$      MOVS     r4,#0
        0x0001a6ba:    7810        .x      LDRB     r0,[r2,#0]
        0x0001a6bc:    282d        -(      CMP      r0,#0x2d
        0x0001a6be:    d102        ..      BNE      0x1a6c6 ; decstr_to_int + 22
        0x0001a6c0:    2501        .%      MOVS     r5,#1
        0x0001a6c2:    1c52        R.      ADDS     r2,r2,#1
        0x0001a6c4:    1c64        d.      ADDS     r4,r4,#1
        0x0001a6c6:    e007        ..      B        0x1a6d8 ; decstr_to_int + 40
        0x0001a6c8:    1c64        d.      ADDS     r4,r4,#1
        0x0001a6ca:    eb030083    ....    ADD      r0,r3,r3,LSL #2
        0x0001a6ce:    0043        C.      LSLS     r3,r0,#1
        0x0001a6d0:    7810        .x      LDRB     r0,[r2,#0]
        0x0001a6d2:    3830        08      SUBS     r0,r0,#0x30
        0x0001a6d4:    4403        .D      ADD      r3,r3,r0
        0x0001a6d6:    1c52        R.      ADDS     r2,r2,#1
        0x0001a6d8:    7810        .x      LDRB     r0,[r2,#0]
        0x0001a6da:    2830        0(      CMP      r0,#0x30
        0x0001a6dc:    db02        ..      BLT      0x1a6e4 ; decstr_to_int + 52
        0x0001a6de:    7810        .x      LDRB     r0,[r2,#0]
        0x0001a6e0:    2839        9(      CMP      r0,#0x39
        0x0001a6e2:    ddf1        ..      BLE      0x1a6c8 ; decstr_to_int + 24
        0x0001a6e4:    b101        ..      CBZ      r1,0x1a6e8 ; decstr_to_int + 56
        0x0001a6e6:    600c        .`      STR      r4,[r1,#0]
        0x0001a6e8:    b10d        ..      CBZ      r5,0x1a6ee ; decstr_to_int + 62
        0x0001a6ea:    4258        XB      RSBS     r0,r3,#0
        0x0001a6ec:    bd30        0.      POP      {r4,r5,pc}
        0x0001a6ee:    4618        .F      MOV      r0,r3
        0x0001a6f0:    e7fc        ..      B        0x1a6ec ; decstr_to_int + 60
    i.divu64_10
    divu64_10
        0x0001a6f2:    e92d4ff0    -..O    PUSH     {r4-r11,lr}
        0x0001a6f6:    4604        .F      MOV      r4,r0
        0x0001a6f8:    460d        .F      MOV      r5,r1
        0x0001a6fa:    2000        .       MOVS     r0,#0
        0x0001a6fc:    ea850100    ....    EOR      r1,r5,r0
        0x0001a700:    4040        @@      EORS     r0,r0,r0
        0x0001a702:    4301        .C      ORRS     r1,r1,r0
        0x0001a704:    d044        D.      BEQ      0x1a790 ; divu64_10 + 158
        0x0001a706:    ea5f0a55    _.U.    LSRS     r10,r5,#1
        0x0001a70a:    ea4f0134    O.4.    RRX      r1,r4
        0x0001a70e:    ea4f0b94    O...    LSR      r11,r4,#2
        0x0001a712:    ea4b7085    K..p    ORR      r0,r11,r5,LSL #30
        0x0001a716:    180a        ..      ADDS     r2,r1,r0
        0x0001a718:    eb4a0395    J...    ADC      r3,r10,r5,LSR #2
        0x0001a71c:    ea4f1012    O...    LSR      r0,r2,#4
        0x0001a720:    ea407a03    @..z    ORR      r10,r0,r3,LSL #28
        0x0001a724:    eb1a0202    ....    ADDS     r2,r10,r2
        0x0001a728:    eb431313    C...    ADC      r3,r3,r3,LSR #4
        0x0001a72c:    ea4f2012    O..     LSR      r0,r2,#8
        0x0001a730:    ea406a03    @..j    ORR      r10,r0,r3,LSL #24
        0x0001a734:    eb1a0202    ....    ADDS     r2,r10,r2
        0x0001a738:    eb432313    C..#    ADC      r3,r3,r3,LSR #8
        0x0001a73c:    ea4f4012    O..@    LSR      r0,r2,#16
        0x0001a740:    ea404a03    @..J    ORR      r10,r0,r3,LSL #16
        0x0001a744:    eb1a0202    ....    ADDS     r2,r10,r2
        0x0001a748:    eb434313    C..C    ADC      r3,r3,r3,LSR #16
        0x0001a74c:    189a        ..      ADDS     r2,r3,r2
        0x0001a74e:    f1430300    C...    ADC      r3,r3,#0
        0x0001a752:    08d0        ..      LSRS     r0,r2,#3
        0x0001a754:    ea407243    @.Cr    ORR      r2,r0,r3,LSL #29
        0x0001a758:    08db        ..      LSRS     r3,r3,#3
        0x0001a75a:    210a        .!      MOVS     r1,#0xa
        0x0001a75c:    f04f0a00    O...    MOV      r10,#0
        0x0001a760:    fba20b01    ....    UMULL    r0,r11,r2,r1
        0x0001a764:    fb03b101    ....    MLA      r1,r3,r1,r11
        0x0001a768:    fb02110a    ....    MLA      r1,r2,r10,r1
        0x0001a76c:    1a26        &.      SUBS     r6,r4,r0
        0x0001a76e:    eb650701    e...    SBC      r7,r5,r1
        0x0001a772:    2106        .!      MOVS     r1,#6
        0x0001a774:    eb160a01    ....    ADDS     r10,r6,r1
        0x0001a778:    f1470100    G...    ADC      r1,r7,#0
        0x0001a77c:    ea4f101a    O...    LSR      r0,r10,#4
        0x0001a780:    ea407a01    @..z    ORR      r10,r0,r1,LSL #28
        0x0001a784:    eb1a0002    ....    ADDS     r0,r10,r2
        0x0001a788:    eb431111    C...    ADC      r1,r3,r1,LSR #4
        0x0001a78c:    e8bd8ff0    ....    POP      {r4-r11,pc}
        0x0001a790:    46a0        .F      MOV      r8,r4
        0x0001a792:    ea4f0058    O.X.    LSR      r0,r8,#1
        0x0001a796:    eb000c98    ....    ADD      r12,r0,r8,LSR #2
        0x0001a79a:    eb0c1c1c    ....    ADD      r12,r12,r12,LSR #4
        0x0001a79e:    eb0c2c1c    ...,    ADD      r12,r12,r12,LSR #8
        0x0001a7a2:    eb0c4c1c    ...L    ADD      r12,r12,r12,LSR #16
        0x0001a7a6:    ea4f0cdc    O...    LSR      r12,r12,#3
        0x0001a7aa:    eb0c008c    ....    ADD      r0,r12,r12,LSL #2
        0x0001a7ae:    eba80940    ..@.    SUB      r9,r8,r0,LSL #1
        0x0001a7b2:    f1090006    ....    ADD      r0,r9,#6
        0x0001a7b6:    eb0c1010    ....    ADD      r0,r12,r0,LSR #4
        0x0001a7ba:    2100        .!      MOVS     r1,#0
        0x0001a7bc:    e7e6        ..      B        0x1a78c ; divu64_10 + 154
        0x0001a7be:    0000        ..      MOVS     r0,r0
    i.ftoa
    ftoa
        0x0001a7c0:    e92d4ff3    -..O    PUSH     {r0,r1,r4-r11,lr}
        0x0001a7c4:    ed2d0b02    -...    VPUSH    {d0}
        0x0001a7c8:    ed2d8b02    -...    VPUSH    {d8}
        0x0001a7cc:    b081        ..      SUB      sp,sp,#4
        0x0001a7ce:    eeb08a40    ..@.    VMOV.F32 s16,s0
        0x0001a7d2:    4604        .F      MOV      r4,r0
        0x0001a7d4:    f8d4b000    ....    LDR      r11,[r4,#0]
        0x0001a7d8:    f1bb0f04    ....    CMP      r11,#4
        0x0001a7dc:    da07        ..      BGE      0x1a7ee ; ftoa + 46
        0x0001a7de:    f06f0002    o...    MVN      r0,#2
        0x0001a7e2:    b001        ..      ADD      sp,sp,#4
        0x0001a7e4:    ecbd8b02    ....    VPOP     {d8}
        0x0001a7e8:    b004        ..      ADD      sp,sp,#0x10
        0x0001a7ea:    e8bd8ff0    ....    POP      {r4-r11,pc}
        0x0001a7ee:    eeb58ac0    ....    VCMPE.F32 s16,#0.0
        0x0001a7f2:    eef1fa10    ....    VMRS     APSR_nzcv,FPSCR
        0x0001a7f6:    d103        ..      BNE      0x1a800 ; ftoa + 64
        0x0001a7f8:    484e        NH      LDR      r0,[pc,#312] ; [0x1a934] = 0x302e30
        0x0001a7fa:    6020         `      STR      r0,[r4,#0]
        0x0001a7fc:    2003        .       MOVS     r0,#3
        0x0001a7fe:    e7f0        ..      B        0x1a7e2 ; ftoa + 34
        0x0001a800:    46a2        .F      MOV      r10,r4
        0x0001a802:    ed8d8a00    ....    VSTR     s16,[sp,#0]
        0x0001a806:    9800        ..      LDR      r0,[sp,#0]
        0x0001a808:    f3c050c7    ...P    UBFX     r0,r0,#23,#8
        0x0001a80c:    f1a0057f    ....    SUB      r5,r0,#0x7f
        0x0001a810:    9800        ..      LDR      r0,[sp,#0]
        0x0001a812:    f020407f     ..@    BIC      r0,r0,#0xff000000
        0x0001a816:    f4400900    @...    ORR      r9,r0,#0x800000
        0x0001a81a:    f04f0800    O...    MOV      r8,#0
        0x0001a81e:    2700        .'      MOVS     r7,#0
        0x0001a820:    2d1f        .-      CMP      r5,#0x1f
        0x0001a822:    db01        ..      BLT      0x1a828 ; ftoa + 104
        0x0001a824:    1eb8        ..      SUBS     r0,r7,#2
        0x0001a826:    e7dc        ..      B        0x1a7e2 ; ftoa + 34
        0x0001a828:    f1150f17    ....    CMN      r5,#0x17
        0x0001a82c:    da02        ..      BGE      0x1a834 ; ftoa + 116
        0x0001a82e:    f04f30ff    O..0    MOV      r0,#0xffffffff
        0x0001a832:    e7d6        ..      B        0x1a7e2 ; ftoa + 34
        0x0001a834:    2d17        .-      CMP      r5,#0x17
        0x0001a836:    db04        ..      BLT      0x1a842 ; ftoa + 130
        0x0001a838:    f1a50017    ....    SUB      r0,r5,#0x17
        0x0001a83c:    fa09f700    ....    LSL      r7,r9,r0
        0x0001a840:    e011        ..      B        0x1a866 ; ftoa + 166
        0x0001a842:    2d00        .-      CMP      r5,#0
        0x0001a844:    db09        ..      BLT      0x1a85a ; ftoa + 154
        0x0001a846:    f1c50017    ....    RSB      r0,r5,#0x17
        0x0001a84a:    fa49f700    I...    ASR      r7,r9,r0
        0x0001a84e:    1c68        h.      ADDS     r0,r5,#1
        0x0001a850:    fa09f000    ....    LSL      r0,r9,r0
        0x0001a854:    f020487f     ..H    BIC      r8,r0,#0xff000000
        0x0001a858:    e005        ..      B        0x1a866 ; ftoa + 166
        0x0001a85a:    f029407f    )..@    BIC      r0,r9,#0xff000000
        0x0001a85e:    1c69        i.      ADDS     r1,r5,#1
        0x0001a860:    4249        IB      RSBS     r1,r1,#0
        0x0001a862:    fa40f801    @...    ASR      r8,r0,r1
        0x0001a866:    9800        ..      LDR      r0,[sp,#0]
        0x0001a868:    2800        .(      CMP      r0,#0
        0x0001a86a:    da02        ..      BGE      0x1a872 ; ftoa + 178
        0x0001a86c:    202d        -       MOVS     r0,#0x2d
        0x0001a86e:    f8040b01    ....    STRB     r0,[r4],#1
        0x0001a872:    b91f        ..      CBNZ     r7,0x1a87c ; ftoa + 188
        0x0001a874:    2030        0       MOVS     r0,#0x30
        0x0001a876:    f8040b01    ....    STRB     r0,[r4],#1
        0x0001a87a:    e014        ..      B        0x1a8a6 ; ftoa + 230
        0x0001a87c:    2f00        ./      CMP      r7,#0
        0x0001a87e:    dd05        ..      BLE      0x1a88c ; ftoa + 204
        0x0001a880:    4622        "F      MOV      r2,r4
        0x0001a882:    4638        8F      MOV      r0,r7
        0x0001a884:    17f9        ..      ASRS     r1,r7,#31
        0x0001a886:    f000fb52    ..R.    BL       uint64_to_str ; 0x1af2e
        0x0001a88a:    e007        ..      B        0x1a89c ; ftoa + 220
        0x0001a88c:    202d        -       MOVS     r0,#0x2d
        0x0001a88e:    f8040b01    ....    STRB     r0,[r4],#1
        0x0001a892:    4622        "F      MOV      r2,r4
        0x0001a894:    4278        xB      RSBS     r0,r7,#0
        0x0001a896:    17c1        ..      ASRS     r1,r0,#31
        0x0001a898:    f000fb49    ..I.    BL       uint64_to_str ; 0x1af2e
        0x0001a89c:    e000        ..      B        0x1a8a0 ; ftoa + 224
        0x0001a89e:    1c64        d.      ADDS     r4,r4,#1
        0x0001a8a0:    7820         x      LDRB     r0,[r4,#0]
        0x0001a8a2:    2800        .(      CMP      r0,#0
        0x0001a8a4:    d1fb        ..      BNE      0x1a89e ; ftoa + 222
        0x0001a8a6:    202e        .       MOVS     r0,#0x2e
        0x0001a8a8:    f8040b01    ....    STRB     r0,[r4],#1
        0x0001a8ac:    f1b80f00    ....    CMP      r8,#0
        0x0001a8b0:    d103        ..      BNE      0x1a8ba ; ftoa + 250
        0x0001a8b2:    2030        0       MOVS     r0,#0x30
        0x0001a8b4:    f8040b01    ....    STRB     r0,[r4],#1
        0x0001a8b8:    e036        6.      B        0x1a928 ; ftoa + 360
        0x0001a8ba:    eba4020a    ....    SUB      r2,r4,r10
        0x0001a8be:    ebab0202    ....    SUB      r2,r11,r2
        0x0001a8c2:    1e51        Q.      SUBS     r1,r2,#1
        0x0001a8c4:    9a06        ..      LDR      r2,[sp,#0x18]
        0x0001a8c6:    4291        .B      CMP      r1,r2
        0x0001a8c8:    dd01        ..      BLE      0x1a8ce ; ftoa + 270
        0x0001a8ca:    9a06        ..      LDR      r2,[sp,#0x18]
        0x0001a8cc:    e000        ..      B        0x1a8d0 ; ftoa + 272
        0x0001a8ce:    460a        .F      MOV      r2,r1
        0x0001a8d0:    4611        .F      MOV      r1,r2
        0x0001a8d2:    2000        .       MOVS     r0,#0
        0x0001a8d4:    e00b        ..      B        0x1a8ee ; ftoa + 302
        0x0001a8d6:    eb080288    ....    ADD      r2,r8,r8,LSL #2
        0x0001a8da:    ea4f0842    O.B.    LSL      r8,r2,#1
        0x0001a8de:    2230        0"      MOVS     r2,#0x30
        0x0001a8e0:    eb026228    ..(b    ADD      r2,r2,r8,ASR #24
        0x0001a8e4:    f8042b01    ...+    STRB     r2,[r4],#1
        0x0001a8e8:    f028487f    (..H    BIC      r8,r8,#0xff000000
        0x0001a8ec:    1c40        @.      ADDS     r0,r0,#1
        0x0001a8ee:    4288        .B      CMP      r0,r1
        0x0001a8f0:    dbf1        ..      BLT      0x1a8d6 ; ftoa + 278
        0x0001a8f2:    eb080288    ....    ADD      r2,r8,r8,LSL #2
        0x0001a8f6:    0052        R.      LSLS     r2,r2,#1
        0x0001a8f8:    2305        .#      MOVS     r3,#5
        0x0001a8fa:    ebb36f22    .."o    CMP      r3,r2,ASR #24
        0x0001a8fe:    dc12        ..      BGT      0x1a926 ; ftoa + 358
        0x0001a900:    1e66        f.      SUBS     r6,r4,#1
        0x0001a902:    e00d        ..      B        0x1a920 ; ftoa + 352
        0x0001a904:    7832        2x      LDRB     r2,[r6,#0]
        0x0001a906:    2a2e        .*      CMP      r2,#0x2e
        0x0001a908:    d009        ..      BEQ      0x1a91e ; ftoa + 350
        0x0001a90a:    7832        2x      LDRB     r2,[r6,#0]
        0x0001a90c:    2a39        9*      CMP      r2,#0x39
        0x0001a90e:    d102        ..      BNE      0x1a916 ; ftoa + 342
        0x0001a910:    2230        0"      MOVS     r2,#0x30
        0x0001a912:    7032        2p      STRB     r2,[r6,#0]
        0x0001a914:    e003        ..      B        0x1a91e ; ftoa + 350
        0x0001a916:    7832        2x      LDRB     r2,[r6,#0]
        0x0001a918:    1c52        R.      ADDS     r2,r2,#1
        0x0001a91a:    7032        2p      STRB     r2,[r6,#0]
        0x0001a91c:    e002        ..      B        0x1a924 ; ftoa + 356
        0x0001a91e:    1e76        v.      SUBS     r6,r6,#1
        0x0001a920:    4556        VE      CMP      r6,r10
        0x0001a922:    d2ef        ..      BCS      0x1a904 ; ftoa + 324
        0x0001a924:    bf00        ..      NOP      
        0x0001a926:    bf00        ..      NOP      
        0x0001a928:    2000        .       MOVS     r0,#0
        0x0001a92a:    7020         p      STRB     r0,[r4,#0]
        0x0001a92c:    eba4000a    ....    SUB      r0,r4,r10
        0x0001a930:    e757        W.      B        0x1a7e2 ; ftoa + 34
    $d
        0x0001a932:    0000        ..      DCW    0
        0x0001a934:    00302e30    0.0.    DCD    3157552
    $t
    i.hostint_handler
    hostint_handler
        0x0001a938:    2001        .       MOVS     r0,#1
        0x0001a93a:    4901        .I      LDR      r1,[pc,#4] ; [0x1a940] = 0x10000004
        0x0001a93c:    7008        .p      STRB     r0,[r1,#0]
        0x0001a93e:    4770        pG      BX       lr
    $d
        0x0001a940:    10000004    ....    DCD    268435460
    $t
    i.internal_iom_reset_on_error
    internal_iom_reset_on_error
        0x0001a944:    b570        p.      PUSH     {r4-r6,lr}
        0x0001a946:    4602        .F      MOV      r2,r0
        0x0001a948:    f8d00864    ..d.    LDR      r0,[r0,#0x864]
        0x0001a94c:    6852        Rh      LDR      r2,[r2,#4]
        0x0001a94e:    eb000040    ..@.    ADD      r0,r0,r0,LSL #1
        0x0001a952:    0040        @.      LSLS     r0,r0,#1
        0x0001a954:    0312        ..      LSLS     r2,r2,#12
        0x0001a956:    f1024480    ...D    ADD      r4,r2,#0x40000000
        0x0001a95a:    f50424a0    ...$    ADD      r4,r4,#0x50000
        0x0001a95e:    f8d45200    ...R    LDR      r5,[r4,#0x200]
        0x0001a962:    2200        ."      MOVS     r2,#0
        0x0001a964:    f8c42200    ..."    STR      r2,[r4,#0x200]
        0x0001a968:    f4116f00    ...o    TST      r1,#0x800
        0x0001a96c:    d055        U.      BEQ      0x1aa1a ; internal_iom_reset_on_error + 214
        0x0001a96e:    f8d42218    ..."    LDR      r2,[r4,#0x218]
        0x0001a972:    f0120f02    ....    TST      r2,#2
        0x0001a976:    d019        ..      BEQ      0x1a9ac ; internal_iom_reset_on_error + 104
        0x0001a978:    4b43        CK      LDR      r3,[pc,#268] ; [0x1aa88] = 0xdeadbeef
        0x0001a97a:    f8d4221c    ..."    LDR      r2,[r4,#0x21c]
        0x0001a97e:    b172        r.      CBZ      r2,0x1a99e ; internal_iom_reset_on_error + 90
        0x0001a980:    f8d4c100    ....    LDR      r12,[r4,#0x100]
        0x0001a984:    f3cc2c07    ...,    UBFX     r12,r12,#8,#8
        0x0001a988:    f1bc0f04    ....    CMP      r12,#4
        0x0001a98c:    d305        ..      BCC      0x1a99a ; internal_iom_reset_on_error + 86
        0x0001a98e:    f8c4310c    ...1    STR      r3,[r4,#0x10c]
        0x0001a992:    2a04        .*      CMP      r2,#4
        0x0001a994:    bf88        ..      IT       HI
        0x0001a996:    1f12        ..      SUBHI    r2,r2,#4
        0x0001a998:    d901        ..      BLS      0x1a99e ; internal_iom_reset_on_error + 90
        0x0001a99a:    2a00        .*      CMP      r2,#0
        0x0001a99c:    d1f0        ..      BNE      0x1a980 ; internal_iom_reset_on_error + 60
        0x0001a99e:    f8d42248    ..H"    LDR      r2,[r4,#0x248]
        0x0001a9a2:    f0020206    ....    AND      r2,r2,#6
        0x0001a9a6:    2a04        .*      CMP      r2,#4
        0x0001a9a8:    d1f9        ..      BNE      0x1a99e ; internal_iom_reset_on_error + 90
        0x0001a9aa:    e036        6.      B        0x1aa1a ; internal_iom_reset_on_error + 214
        0x0001a9ac:    f8d42248    ..H"    LDR      r2,[r4,#0x248]
        0x0001a9b0:    f0120f02    ....    TST      r2,#2
        0x0001a9b4:    d013        ..      BEQ      0x1a9de ; internal_iom_reset_on_error + 154
        0x0001a9b6:    bf00        ..      NOP      
        0x0001a9b8:    f8d42100    ...!    LDR      r2,[r4,#0x100]
        0x0001a9bc:    f3c24207    ...B    UBFX     r2,r2,#16,#8
        0x0001a9c0:    2a04        .*      CMP      r2,#4
        0x0001a9c2:    d307        ..      BCC      0x1a9d4 ; internal_iom_reset_on_error + 144
        0x0001a9c4:    f8d42108    ...!    LDR      r2,[r4,#0x108]
        0x0001a9c8:    f8d42100    ...!    LDR      r2,[r4,#0x100]
        0x0001a9cc:    f3c24207    ...B    UBFX     r2,r2,#16,#8
        0x0001a9d0:    2a04        .*      CMP      r2,#4
        0x0001a9d2:    d2f7        ..      BCS      0x1a9c4 ; internal_iom_reset_on_error + 128
        0x0001a9d4:    f8d42248    ..H"    LDR      r2,[r4,#0x248]
        0x0001a9d8:    f0120f02    ....    TST      r2,#2
        0x0001a9dc:    d1ec        ..      BNE      0x1a9b8 ; internal_iom_reset_on_error + 116
        0x0001a9de:    f8d42248    ..H"    LDR      r2,[r4,#0x248]
        0x0001a9e2:    f0020206    ....    AND      r2,r2,#6
        0x0001a9e6:    2a04        .*      CMP      r2,#4
        0x0001a9e8:    d1f9        ..      BNE      0x1a9de ; internal_iom_reset_on_error + 154
        0x0001a9ea:    f8d42100    ...!    LDR      r2,[r4,#0x100]
        0x0001a9ee:    f4120f7f    ....    TST      r2,#0xff0000
        0x0001a9f2:    d012        ..      BEQ      0x1aa1a ; internal_iom_reset_on_error + 214
        0x0001a9f4:    f8d42100    ...!    LDR      r2,[r4,#0x100]
        0x0001a9f8:    f3c24207    ...B    UBFX     r2,r2,#16,#8
        0x0001a9fc:    2a04        .*      CMP      r2,#4
        0x0001a9fe:    d307        ..      BCC      0x1aa10 ; internal_iom_reset_on_error + 204
        0x0001aa00:    f8d42108    ...!    LDR      r2,[r4,#0x108]
        0x0001aa04:    f8d42100    ...!    LDR      r2,[r4,#0x100]
        0x0001aa08:    f3c24207    ...B    UBFX     r2,r2,#16,#8
        0x0001aa0c:    2a04        .*      CMP      r2,#4
        0x0001aa0e:    d2f7        ..      BCS      0x1aa00 ; internal_iom_reset_on_error + 188
        0x0001aa10:    f8d42100    ...!    LDR      r2,[r4,#0x100]
        0x0001aa14:    f4120f7f    ....    TST      r2,#0xff0000
        0x0001aa18:    d1ec        ..      BNE      0x1a9f4 ; internal_iom_reset_on_error + 176
        0x0001aa1a:    f4117f04    ....    TST      r1,#0x210
        0x0001aa1e:    bf18        ..      IT       NE
        0x0001aa20:    f8d46388    ...c    LDRNE    r6,[r4,#0x388]
        0x0001aa24:    d028        (.      BEQ      0x1aa78 ; internal_iom_reset_on_error + 308
        0x0001aa26:    bf00        ..      NOP      
        0x0001aa28:    f8d41248    ..H.    LDR      r1,[r4,#0x248]
        0x0001aa2c:    f0010106    ....    AND      r1,r1,#6
        0x0001aa30:    2904        .)      CMP      r1,#4
        0x0001aa32:    d1f9        ..      BNE      0x1aa28 ; internal_iom_reset_on_error + 228
        0x0001aa34:    f8d4111c    ....    LDR      r1,[r4,#0x11c]
        0x0001aa38:    f0210110    !...    BIC      r1,r1,#0x10
        0x0001aa3c:    f8c4111c    ....    STR      r1,[r4,#0x11c]
        0x0001aa40:    f8d41110    ....    LDR      r1,[r4,#0x110]
        0x0001aa44:    f0210102    !...    BIC      r1,r1,#2
        0x0001aa48:    f8c41110    ....    STR      r1,[r4,#0x110]
        0x0001aa4c:    f8d41388    ....    LDR      r1,[r4,#0x388]
        0x0001aa50:    f0410102    A...    ORR      r1,r1,#2
        0x0001aa54:    f8c41388    ....    STR      r1,[r4,#0x388]
        0x0001aa58:    f7fef91a    ....    BL       am_hal_delay_us ; 0x18c90
        0x0001aa5c:    f8c46388    ...c    STR      r6,[r4,#0x388]
        0x0001aa60:    f8d40110    ....    LDR      r0,[r4,#0x110]
        0x0001aa64:    f0400002    @...    ORR      r0,r0,#2
        0x0001aa68:    f8c40110    ....    STR      r0,[r4,#0x110]
        0x0001aa6c:    f8d4011c    ....    LDR      r0,[r4,#0x11c]
        0x0001aa70:    f0400010    @...    ORR      r0,r0,#0x10
        0x0001aa74:    f8c4011c    ....    STR      r0,[r4,#0x11c]
        0x0001aa78:    f04f30ff    O..0    MOV      r0,#0xffffffff
        0x0001aa7c:    f8c40208    ....    STR      r0,[r4,#0x208]
        0x0001aa80:    f8c45200    ...R    STR      r5,[r4,#0x200]
        0x0001aa84:    bd70        p.      POP      {r4-r6,pc}
    $d
        0x0001aa86:    0000        ..      DCW    0
        0x0001aa88:    deadbeef    ....    DCD    3735928559
    $t
    i.iom_set_up
    iom_set_up
        0x0001aa8c:    b5fe        ..      PUSH     {r1-r7,lr}
        0x0001aa8e:    4605        .F      MOV      r5,r0
        0x0001aa90:    460c        .F      MOV      r4,r1
        0x0001aa92:    2001        .       MOVS     r0,#1
        0x0001aa94:    9002        ..      STR      r0,[sp,#8]
        0x0001aa96:    4933        3I      LDR      r1,[pc,#204] ; [0x1ab64] = 0x10000008
        0x0001aa98:    4628        (F      MOV      r0,r5
        0x0001aa9a:    f7feff63    ..c.    BL       am_hal_iom_initialize ; 0x19964
        0x0001aa9e:    2200        ."      MOVS     r2,#0
        0x0001aaa0:    4611        .F      MOV      r1,r2
        0x0001aaa2:    4830        0H      LDR      r0,[pc,#192] ; [0x1ab64] = 0x10000008
        0x0001aaa4:    6800        .h      LDR      r0,[r0,#0]
        0x0001aaa6:    f7feff87    ....    BL       am_hal_iom_power_ctrl ; 0x199b8
        0x0001aaaa:    b14c        L.      CBZ      r4,0x1aac0 ; iom_set_up + 52
        0x0001aaac:    492e        .I      LDR      r1,[pc,#184] ; [0x1ab68] = 0x1000000c
        0x0001aaae:    482d        -H      LDR      r0,[pc,#180] ; [0x1ab64] = 0x10000008
        0x0001aab0:    6800        .h      LDR      r0,[r0,#0]
        0x0001aab2:    f7fefd4f    ..O.    BL       am_hal_iom_configure ; 0x19554
        0x0001aab6:    2100        .!      MOVS     r1,#0
        0x0001aab8:    4628        (F      MOV      r0,r5
        0x0001aaba:    f7fdfcb9    ....    BL       am_bsp_iom_pins_enable ; 0x18430
        0x0001aabe:    e008        ..      B        0x1aad2 ; iom_set_up + 70
        0x0001aac0:    492a        *I      LDR      r1,[pc,#168] ; [0x1ab6c] = 0x10000020
        0x0001aac2:    4828        (H      LDR      r0,[pc,#160] ; [0x1ab64] = 0x10000008
        0x0001aac4:    6800        .h      LDR      r0,[r0,#0]
        0x0001aac6:    f7fefd45    ..E.    BL       am_hal_iom_configure ; 0x19554
        0x0001aaca:    2101        .!      MOVS     r1,#1
        0x0001aacc:    4628        (F      MOV      r0,r5
        0x0001aace:    f7fdfcaf    ....    BL       am_bsp_iom_pins_enable ; 0x18430
        0x0001aad2:    4824        $H      LDR      r0,[pc,#144] ; [0x1ab64] = 0x10000008
        0x0001aad4:    6800        .h      LDR      r0,[r0,#0]
        0x0001aad6:    f7fefeb7    ....    BL       am_hal_iom_enable ; 0x19848
        0x0001aada:    4825        %H      LDR      r0,[pc,#148] ; [0x1ab70] = 0x1b278
        0x0001aadc:    6800        .h      LDR      r0,[r0,#0]
        0x0001aade:    9000        ..      STR      r0,[sp,#0]
        0x0001aae0:    200c        .       MOVS     r0,#0xc
        0x0001aae2:    9900        ..      LDR      r1,[sp,#0]
        0x0001aae4:    f7fefb10    ....    BL       am_hal_gpio_pinconfig ; 0x19108
        0x0001aae8:    200c        .       MOVS     r0,#0xc
        0x0001aaea:    9001        ..      STR      r0,[sp,#4]
        0x0001aaec:    2100        .!      MOVS     r1,#0
        0x0001aaee:    f7fefb49    ..I.    BL       am_hal_gpio_state_write ; 0x19184
        0x0001aaf2:    a901        ..      ADD      r1,sp,#4
        0x0001aaf4:    2000        .       MOVS     r0,#0
        0x0001aaf6:    f7fef93f    ..?.    BL       am_hal_gpio_interrupt_clear ; 0x18d78
        0x0001aafa:    2300        .#      MOVS     r3,#0
        0x0001aafc:    4a1d        .J      LDR      r2,[pc,#116] ; [0x1ab74] = 0x1a939
        0x0001aafe:    210c        .!      MOVS     r1,#0xc
        0x0001ab00:    4618        .F      MOV      r0,r3
        0x0001ab02:    f7fefa9f    ....    BL       am_hal_gpio_interrupt_register ; 0x19044
        0x0001ab06:    aa01        ..      ADD      r2,sp,#4
        0x0001ab08:    2101        .!      MOVS     r1,#1
        0x0001ab0a:    2000        .       MOVS     r0,#0
        0x0001ab0c:    f7fef990    ....    BL       am_hal_gpio_interrupt_control ; 0x18e30
        0x0001ab10:    2038        8       MOVS     r0,#0x38
        0x0001ab12:    2104        .!      MOVS     r1,#4
        0x0001ab14:    2800        .(      CMP      r0,#0
        0x0001ab16:    db04        ..      BLT      0x1ab22 ; iom_set_up + 150
        0x0001ab18:    074a        J.      LSLS     r2,r1,#29
        0x0001ab1a:    0e13        ..      LSRS     r3,r2,#24
        0x0001ab1c:    4a16        .J      LDR      r2,[pc,#88] ; [0x1ab78] = 0xe000e400
        0x0001ab1e:    5413        .T      STRB     r3,[r2,r0]
        0x0001ab20:    e006        ..      B        0x1ab30 ; iom_set_up + 164
        0x0001ab22:    074a        J.      LSLS     r2,r1,#29
        0x0001ab24:    0e16        ..      LSRS     r6,r2,#24
        0x0001ab26:    4a15        .J      LDR      r2,[pc,#84] ; [0x1ab7c] = 0xe000ed18
        0x0001ab28:    f000030f    ....    AND      r3,r0,#0xf
        0x0001ab2c:    1f1b        ..      SUBS     r3,r3,#4
        0x0001ab2e:    54d6        .T      STRB     r6,[r2,r3]
        0x0001ab30:    bf00        ..      NOP      
        0x0001ab32:    2038        8       MOVS     r0,#0x38
        0x0001ab34:    2800        .(      CMP      r0,#0
        0x0001ab36:    db0d        ..      BLT      0x1ab54 ; iom_set_up + 200
        0x0001ab38:    bf00        ..      NOP      
        0x0001ab3a:    bf00        ..      NOP      
        0x0001ab3c:    f000021f    ....    AND      r2,r0,#0x1f
        0x0001ab40:    2101        .!      MOVS     r1,#1
        0x0001ab42:    4091        .@      LSLS     r1,r1,r2
        0x0001ab44:    0942        B.      LSRS     r2,r0,#5
        0x0001ab46:    0092        ..      LSLS     r2,r2,#2
        0x0001ab48:    f10222e0    ..."    ADD      r2,r2,#0xe000e000
        0x0001ab4c:    f8c21100    ....    STR      r1,[r2,#0x100]
        0x0001ab50:    bf00        ..      NOP      
        0x0001ab52:    bf00        ..      NOP      
        0x0001ab54:    bf00        ..      NOP      
        0x0001ab56:    2301        .#      MOVS     r3,#1
        0x0001ab58:    aa02        ..      ADD      r2,sp,#8
        0x0001ab5a:    21f8        .!      MOVS     r1,#0xf8
        0x0001ab5c:    4620         F      MOV      r0,r4
        0x0001ab5e:    f000f835    ..5.    BL       iom_slave_write ; 0x1abcc
        0x0001ab62:    bdfe        ..      POP      {r1-r7,pc}
    $d
        0x0001ab64:    10000008    ....    DCD    268435464
        0x0001ab68:    1000000c    ....    DCD    268435468
        0x0001ab6c:    10000020     ...    DCD    268435488
        0x0001ab70:    0001b278    x...    DCD    111224
        0x0001ab74:    0001a939    9...    DCD    108857
        0x0001ab78:    e000e400    ....    DCD    3758154752
        0x0001ab7c:    e000ed18    ....    DCD    3758157080
    $t
    i.iom_slave_read
    iom_slave_read
        0x0001ab80:    b5f0        ..      PUSH     {r4-r7,lr}
        0x0001ab82:    b08d        ..      SUB      sp,sp,#0x34
        0x0001ab84:    4605        .F      MOV      r5,r0
        0x0001ab86:    460c        .F      MOV      r4,r1
        0x0001ab88:    4616        .F      MOV      r6,r2
        0x0001ab8a:    461f        .F      MOV      r7,r3
        0x0001ab8c:    2001        .       MOVS     r0,#1
        0x0001ab8e:    9001        ..      STR      r0,[sp,#4]
        0x0001ab90:    2000        .       MOVS     r0,#0
        0x0001ab92:    e9cd4002    ...@    STRD     r4,r0,[sp,#8]
        0x0001ab96:    2001        .       MOVS     r0,#1
        0x0001ab98:    f88d0014    ....    STRB     r0,[sp,#0x14]
        0x0001ab9c:    9704        ..      STR      r7,[sp,#0x10]
        0x0001ab9e:    9607        ..      STR      r6,[sp,#0x1c]
        0x0001aba0:    2000        .       MOVS     r0,#0
        0x0001aba2:    f88d0020    .. .    STRB     r0,[sp,#0x20]
        0x0001aba6:    f88d0021    ..!.    STRB     r0,[sp,#0x21]
        0x0001abaa:    9009        ..      STR      r0,[sp,#0x24]
        0x0001abac:    900a        ..      STR      r0,[sp,#0x28]
        0x0001abae:    b10d        ..      CBZ      r5,0x1abb4 ; iom_slave_read + 52
        0x0001abb0:    9000        ..      STR      r0,[sp,#0]
        0x0001abb2:    e001        ..      B        0x1abb8 ; iom_slave_read + 56
        0x0001abb4:    2010        .       MOVS     r0,#0x10
        0x0001abb6:    9000        ..      STR      r0,[sp,#0]
        0x0001abb8:    4669        iF      MOV      r1,sp
        0x0001abba:    4803        .H      LDR      r0,[pc,#12] ; [0x1abc8] = 0x10000008
        0x0001abbc:    6800        .h      LDR      r0,[r0,#0]
        0x0001abbe:    f7fefb33    ..3.    BL       am_hal_iom_blocking_transfer ; 0x19228
        0x0001abc2:    b00d        ..      ADD      sp,sp,#0x34
        0x0001abc4:    bdf0        ..      POP      {r4-r7,pc}
    $d
        0x0001abc6:    0000        ..      DCW    0
        0x0001abc8:    10000008    ....    DCD    268435464
    $t
    i.iom_slave_write
    iom_slave_write
        0x0001abcc:    b5f0        ..      PUSH     {r4-r7,lr}
        0x0001abce:    b08d        ..      SUB      sp,sp,#0x34
        0x0001abd0:    4605        .F      MOV      r5,r0
        0x0001abd2:    460c        .F      MOV      r4,r1
        0x0001abd4:    4616        .F      MOV      r6,r2
        0x0001abd6:    461f        .F      MOV      r7,r3
        0x0001abd8:    2001        .       MOVS     r0,#1
        0x0001abda:    9001        ..      STR      r0,[sp,#4]
        0x0001abdc:    2000        .       MOVS     r0,#0
        0x0001abde:    e9cd4002    ...@    STRD     r4,r0,[sp,#8]
        0x0001abe2:    f88d0014    ....    STRB     r0,[sp,#0x14]
        0x0001abe6:    9704        ..      STR      r7,[sp,#0x10]
        0x0001abe8:    9606        ..      STR      r6,[sp,#0x18]
        0x0001abea:    f88d0020    .. .    STRB     r0,[sp,#0x20]
        0x0001abee:    f88d0021    ..!.    STRB     r0,[sp,#0x21]
        0x0001abf2:    9009        ..      STR      r0,[sp,#0x24]
        0x0001abf4:    900a        ..      STR      r0,[sp,#0x28]
        0x0001abf6:    b10d        ..      CBZ      r5,0x1abfc ; iom_slave_write + 48
        0x0001abf8:    9000        ..      STR      r0,[sp,#0]
        0x0001abfa:    e001        ..      B        0x1ac00 ; iom_slave_write + 52
        0x0001abfc:    2010        .       MOVS     r0,#0x10
        0x0001abfe:    9000        ..      STR      r0,[sp,#0]
        0x0001ac00:    4669        iF      MOV      r1,sp
        0x0001ac02:    4803        .H      LDR      r0,[pc,#12] ; [0x1ac10] = 0x10000008
        0x0001ac04:    6800        .h      LDR      r0,[r0,#0]
        0x0001ac06:    f7fefb0f    ....    BL       am_hal_iom_blocking_transfer ; 0x19228
        0x0001ac0a:    b00d        ..      ADD      sp,sp,#0x34
        0x0001ac0c:    bdf0        ..      POP      {r4-r7,pc}
    $d
        0x0001ac0e:    0000        ..      DCW    0
        0x0001ac10:    10000008    ....    DCD    268435464
    $t
    i.main
    main
        0x0001ac14:    b51c        ..      PUSH     {r2-r4,lr}
        0x0001ac16:    2505        .%      MOVS     r5,#5
        0x0001ac18:    2401        .$      MOVS     r4,#1
        0x0001ac1a:    2600        .&      MOVS     r6,#0
        0x0001ac1c:    2700        .'      MOVS     r7,#0
        0x0001ac1e:    b114        ..      CBZ      r4,0x1ac26 ; main + 18
        0x0001ac20:    f24030ff    @..0    MOV      r0,#0x3ff
        0x0001ac24:    e000        ..      B        0x1ac28 ; main + 20
        0x0001ac26:    20ff        .       MOVS     r0,#0xff
        0x0001ac28:    4680        .F      MOV      r8,r0
        0x0001ac2a:    f7fdfdc5    ....    BL       am_bsp_itm_printf_enable ; 0x187b8
        0x0001ac2e:    f7fffacd    ....    BL       am_util_stdio_terminal_clear ; 0x1a1cc
        0x0001ac32:    f2427110    B..q    MOV      r1,#0x2710
        0x0001ac36:    a041        A.      ADR      r0,{pc}+0x106 ; 0x1ad3c
        0x0001ac38:    f7fffaa4    ....    BL       am_util_stdio_printf ; 0x1a184
        0x0001ac3c:    200a        .       MOVS     r0,#0xa
        0x0001ac3e:    f7fffa97    ....    BL       am_util_delay_ms ; 0x1a170
        0x0001ac42:    f7fdfb75    ..u.    BL       am_hal_interrupt_master_enable ; 0x18330
        0x0001ac46:    4621        !F      MOV      r1,r4
        0x0001ac48:    4628        (F      MOV      r0,r5
        0x0001ac4a:    f7ffff1f    ....    BL       iom_set_up ; 0x1aa8c
        0x0001ac4e:    2064        d       MOVS     r0,#0x64
        0x0001ac50:    f7fffa8e    ....    BL       am_util_delay_ms ; 0x1a170
        0x0001ac54:    2000        .       MOVS     r0,#0
        0x0001ac56:    9001        ..      STR      r0,[sp,#4]
        0x0001ac58:    2301        .#      MOVS     r3,#1
        0x0001ac5a:    aa01        ..      ADD      r2,sp,#4
        0x0001ac5c:    2180        .!      MOVS     r1,#0x80
        0x0001ac5e:    4620         F      MOV      r0,r4
        0x0001ac60:    f7ffffb4    ....    BL       iom_slave_write ; 0x1abcc
        0x0001ac64:    e060        `.      B        0x1ad28 ; main + 276
        0x0001ac66:    f7fdfb67    ..g.    BL       am_hal_interrupt_master_disable ; 0x18338
        0x0001ac6a:    4681        .F      MOV      r9,r0
        0x0001ac6c:    4843        CH      LDR      r0,[pc,#268] ; [0x1ad7c] = 0x10000004
        0x0001ac6e:    7800        .x      LDRB     r0,[r0,#0]
        0x0001ac70:    2801        .(      CMP      r0,#1
        0x0001ac72:    d152        R.      BNE      0x1ad1a ; main + 262
        0x0001ac74:    4648        HF      MOV      r0,r9
        0x0001ac76:    f7fdfb63    ..c.    BL       am_hal_interrupt_master_set ; 0x18340
        0x0001ac7a:    2000        .       MOVS     r0,#0
        0x0001ac7c:    493f        ?I      LDR      r1,[pc,#252] ; [0x1ad7c] = 0x10000004
        0x0001ac7e:    7008        .p      STRB     r0,[r1,#0]
        0x0001ac80:    2301        .#      MOVS     r3,#1
        0x0001ac82:    aa01        ..      ADD      r2,sp,#4
        0x0001ac84:    2179        y!      MOVS     r1,#0x79
        0x0001ac86:    4620         F      MOV      r0,r4
        0x0001ac88:    f7ffff7a    ..z.    BL       iom_slave_read ; 0x1ab80
        0x0001ac8c:    9801        ..      LDR      r0,[sp,#4]
        0x0001ac8e:    f0000001    ....    AND      r0,r0,#1
        0x0001ac92:    b140        @.      CBZ      r0,0x1aca6 ; main + 146
        0x0001ac94:    2001        .       MOVS     r0,#1
        0x0001ac96:    9001        ..      STR      r0,[sp,#4]
        0x0001ac98:    2301        .#      MOVS     r3,#1
        0x0001ac9a:    aa01        ..      ADD      r2,sp,#4
        0x0001ac9c:    21fa        .!      MOVS     r1,#0xfa
        0x0001ac9e:    4620         F      MOV      r0,r4
        0x0001aca0:    f7ffff94    ....    BL       iom_slave_write ; 0x1abcc
        0x0001aca4:    2601        .&      MOVS     r6,#1
        0x0001aca6:    2e00        ..      CMP      r6,#0
        0x0001aca8:    d03d        =.      BEQ      0x1ad26 ; main + 274
        0x0001acaa:    2000        .       MOVS     r0,#0
        0x0001acac:    9000        ..      STR      r0,[sp,#0]
        0x0001acae:    2600        .&      MOVS     r6,#0
        0x0001acb0:    2302        .#      MOVS     r3,#2
        0x0001acb2:    466a        jF      MOV      r2,sp
        0x0001acb4:    217c        |!      MOVS     r1,#0x7c
        0x0001acb6:    4620         F      MOV      r0,r4
        0x0001acb8:    f7ffff62    ..b.    BL       iom_slave_read ; 0x1ab80
        0x0001acbc:    9800        ..      LDR      r0,[sp,#0]
        0x0001acbe:    4540        @E      CMP      r0,r8
        0x0001acc0:    d901        ..      BLS      0x1acc6 ; main + 178
        0x0001acc2:    4640        @F      MOV      r0,r8
        0x0001acc4:    e000        ..      B        0x1acc8 ; main + 180
        0x0001acc6:    9800        ..      LDR      r0,[sp,#0]
        0x0001acc8:    9000        ..      STR      r0,[sp,#0]
        0x0001acca:    f7fffc79    ..y.    BL       clear_rx_buf ; 0x1a5c0
        0x0001acce:    4a2c        ,J      LDR      r2,[pc,#176] ; [0x1ad80] = 0x10000164
        0x0001acd0:    217f        .!      MOVS     r1,#0x7f
        0x0001acd2:    4620         F      MOV      r0,r4
        0x0001acd4:    9b00        ..      LDR      r3,[sp,#0]
        0x0001acd6:    f7ffff53    ..S.    BL       iom_slave_read ; 0x1ab80
        0x0001acda:    9800        ..      LDR      r0,[sp,#0]
        0x0001acdc:    f000f972    ..r.    BL       validate_rx_buf ; 0x1afc4
        0x0001ace0:    b928        (.      CBNZ     r0,0x1acee ; main + 218
        0x0001ace2:    4828        (H      LDR      r0,[pc,#160] ; [0x1ad84] = 0x10000000
        0x0001ace4:    9a00        ..      LDR      r2,[sp,#0]
        0x0001ace6:    6801        .h      LDR      r1,[r0,#0]
        0x0001ace8:    a027        '.      ADR      r0,{pc}+0xa0 ; 0x1ad88
        0x0001acea:    f7fffa4b    ..K.    BL       am_util_stdio_printf ; 0x1a184
        0x0001acee:    2002        .       MOVS     r0,#2
        0x0001acf0:    9001        ..      STR      r0,[sp,#4]
        0x0001acf2:    4824        $H      LDR      r0,[pc,#144] ; [0x1ad84] = 0x10000000
        0x0001acf4:    6800        .h      LDR      r0,[r0,#0]
        0x0001acf6:    f000f953    ..S.    BL       update_progress ; 0x1afa0
        0x0001acfa:    4822        "H      LDR      r0,[pc,#136] ; [0x1ad84] = 0x10000000
        0x0001acfc:    6800        .h      LDR      r0,[r0,#0]
        0x0001acfe:    f2427110    B..q    MOV      r1,#0x2710
        0x0001ad02:    4288        .B      CMP      r0,r1
        0x0001ad04:    d302        ..      BCC      0x1ad0c ; main + 248
        0x0001ad06:    2701        .'      MOVS     r7,#1
        0x0001ad08:    2001        .       MOVS     r0,#1
        0x0001ad0a:    9001        ..      STR      r0,[sp,#4]
        0x0001ad0c:    2301        .#      MOVS     r3,#1
        0x0001ad0e:    aa01        ..      ADD      r2,sp,#4
        0x0001ad10:    2180        .!      MOVS     r1,#0x80
        0x0001ad12:    4620         F      MOV      r0,r4
        0x0001ad14:    f7ffff5a    ..Z.    BL       iom_slave_write ; 0x1abcc
        0x0001ad18:    e005        ..      B        0x1ad26 ; main + 274
        0x0001ad1a:    2001        .       MOVS     r0,#1
        0x0001ad1c:    f7fff95c    ..\.    BL       am_hal_sysctrl_sleep ; 0x19fd8
        0x0001ad20:    4648        HF      MOV      r0,r9
        0x0001ad22:    f7fdfb0d    ....    BL       am_hal_interrupt_master_set ; 0x18340
        0x0001ad26:    bf00        ..      NOP      
        0x0001ad28:    2f00        ./      CMP      r7,#0
        0x0001ad2a:    d09c        ..      BEQ      0x1ac66 ; main + 82
        0x0001ad2c:    4815        .H      LDR      r0,[pc,#84] ; [0x1ad84] = 0x10000000
        0x0001ad2e:    6801        .h      LDR      r1,[r0,#0]
        0x0001ad30:    a020         .      ADR      r0,{pc}+0x84 ; 0x1adb4
        0x0001ad32:    f7fffa27    ..'.    BL       am_util_stdio_printf ; 0x1a184
        0x0001ad36:    bf00        ..      NOP      
        0x0001ad38:    e7fe        ..      B        0x1ad38 ; main + 292
    $d
        0x0001ad3a:    0000        ..      DCW    0
        0x0001ad3c:    20534f49    IOS     DCD    542330697
        0x0001ad40:    74736554    Test    DCD    1953719636
        0x0001ad44:    736f4820     Hos    DCD    1936672800
        0x0001ad48:    57203a74    t: W    DCD    1461729908
        0x0001ad4c:    69746961    aiti    DCD    1769236833
        0x0001ad50:    6620676e    ng f    DCD    1713399662
        0x0001ad54:    6120726f    or a    DCD    1629516399
        0x0001ad58:    656c2074    t le    DCD    1701585012
        0x0001ad5c:    20747361    ast     DCD    544502625
        0x0001ad60:    62206425    %d b    DCD    1646289957
        0x0001ad64:    73657479    ytes    DCD    1936028793
        0x0001ad68:    6f726620     fro    DCD    1869768224
        0x0001ad6c:    6874206d    m th    DCD    1752440941
        0x0001ad70:    6c732065    e sl    DCD    1819484261
        0x0001ad74:    2e657661    ave.    DCD    778401377
        0x0001ad78:    0000000a    ....    DCD    10
        0x0001ad7c:    10000004    ....    DCD    268435460
        0x0001ad80:    10000164    d...    DCD    268435812
        0x0001ad84:    10000000    ....    DCD    268435456
        0x0001ad88:    7461440a    .Dat    DCD    1952531466
        0x0001ad8c:    65562061    a Ve    DCD    1700143201
        0x0001ad90:    69666972    rifi    DCD    1768319346
        0x0001ad94:    69746163    cati    DCD    1769234787
        0x0001ad98:    66206e6f    on f    DCD    1713401455
        0x0001ad9c:    656c6961    aile    DCD    1701603681
        0x0001ada0:    63412064    d Ac    DCD    1665212516
        0x0001ada4:    3a6d7563    cum:    DCD    980252003
        0x0001ada8:    20756c25    %lu     DCD    544566309
        0x0001adac:    253d7872    rx=%    DCD    624785522
        0x0001adb0:    00000a64    d...    DCD    2660
        0x0001adb4:    7365540a    .Tes    DCD    1936020490
        0x0001adb8:    6f442074    t Do    DCD    1866735732
        0x0001adbc:    2d20656e    ne -    DCD    757097838
        0x0001adc0:    746f5420     Tot    DCD    1953453088
        0x0001adc4:    52206c61    al R    DCD    1377856609
        0x0001adc8:    69656365    ecei    DCD    1768252261
        0x0001adcc:    20646576    ved     DCD    543450486
        0x0001add0:    253d203d    = =%    DCD    624762941
        0x0001add4:    00000a64    d...    DCD    2660
    $t
    i.ndigits_in_hex
    ndigits_in_hex
        0x0001add8:    b530        0.      PUSH     {r4,r5,lr}
        0x0001adda:    4602        .F      MOV      r2,r0
        0x0001addc:    460b        .F      MOV      r3,r1
        0x0001adde:    2400        .$      MOVS     r4,#0
        0x0001ade0:    ea820104    ....    EOR      r1,r2,r4
        0x0001ade4:    405c        \@      EORS     r4,r4,r3
        0x0001ade6:    4321        !C      ORRS     r1,r1,r4
        0x0001ade8:    d101        ..      BNE      0x1adee ; ndigits_in_hex + 22
        0x0001adea:    2101        .!      MOVS     r1,#1
        0x0001adec:    e000        ..      B        0x1adf0 ; ndigits_in_hex + 24
        0x0001adee:    2100        .!      MOVS     r1,#0
        0x0001adf0:    4608        .F      MOV      r0,r1
        0x0001adf2:    e004        ..      B        0x1adfe ; ndigits_in_hex + 38
        0x0001adf4:    0911        ..      LSRS     r1,r2,#4
        0x0001adf6:    ea417203    A..r    ORR      r2,r1,r3,LSL #28
        0x0001adfa:    091b        ..      LSRS     r3,r3,#4
        0x0001adfc:    1c40        @.      ADDS     r0,r0,#1
        0x0001adfe:    2400        .$      MOVS     r4,#0
        0x0001ae00:    ea820104    ....    EOR      r1,r2,r4
        0x0001ae04:    405c        \@      EORS     r4,r4,r3
        0x0001ae06:    4321        !C      ORRS     r1,r1,r4
        0x0001ae08:    d1f4        ..      BNE      0x1adf4 ; ndigits_in_hex + 28
        0x0001ae0a:    bd30        0.      POP      {r4,r5,pc}
    i.ndigits_in_i64
    ndigits_in_i64
        0x0001ae0c:    b570        p.      PUSH     {r4-r6,lr}
        0x0001ae0e:    4604        .F      MOV      r4,r0
        0x0001ae10:    460d        .F      MOV      r5,r1
        0x0001ae12:    2100        .!      MOVS     r1,#0
        0x0001ae14:    4608        .F      MOV      r0,r1
        0x0001ae16:    1a61        a.      SUBS     r1,r4,r1
        0x0001ae18:    eb750000    u...    SBCS     r0,r5,r0
        0x0001ae1c:    da03        ..      BGE      0x1ae26 ; ndigits_in_i64 + 26
        0x0001ae1e:    2200        ."      MOVS     r2,#0
        0x0001ae20:    4264        dB      RSBS     r4,r4,#0
        0x0001ae22:    eb620505    b...    SBC      r5,r2,r5
        0x0001ae26:    4620         F      MOV      r0,r4
        0x0001ae28:    4629        )F      MOV      r1,r5
        0x0001ae2a:    f000f801    ....    BL       ndigits_in_u64 ; 0x1ae30
        0x0001ae2e:    bd70        p.      POP      {r4-r6,pc}
    i.ndigits_in_u64
    ndigits_in_u64
        0x0001ae30:    b570        p.      PUSH     {r4-r6,lr}
        0x0001ae32:    4604        .F      MOV      r4,r0
        0x0001ae34:    460d        .F      MOV      r5,r1
        0x0001ae36:    2100        .!      MOVS     r1,#0
        0x0001ae38:    ea840001    ....    EOR      r0,r4,r1
        0x0001ae3c:    4069        i@      EORS     r1,r1,r5
        0x0001ae3e:    4308        .C      ORRS     r0,r0,r1
        0x0001ae40:    d101        ..      BNE      0x1ae46 ; ndigits_in_u64 + 22
        0x0001ae42:    2001        .       MOVS     r0,#1
        0x0001ae44:    e000        ..      B        0x1ae48 ; ndigits_in_u64 + 24
        0x0001ae46:    2000        .       MOVS     r0,#0
        0x0001ae48:    4606        .F      MOV      r6,r0
        0x0001ae4a:    e006        ..      B        0x1ae5a ; ndigits_in_u64 + 42
        0x0001ae4c:    4620         F      MOV      r0,r4
        0x0001ae4e:    4629        )F      MOV      r1,r5
        0x0001ae50:    f7fffc4f    ..O.    BL       divu64_10 ; 0x1a6f2
        0x0001ae54:    4604        .F      MOV      r4,r0
        0x0001ae56:    460d        .F      MOV      r5,r1
        0x0001ae58:    1c76        v.      ADDS     r6,r6,#1
        0x0001ae5a:    2100        .!      MOVS     r1,#0
        0x0001ae5c:    ea840001    ....    EOR      r0,r4,r1
        0x0001ae60:    4069        i@      EORS     r1,r1,r5
        0x0001ae62:    4308        .C      ORRS     r0,r0,r1
        0x0001ae64:    d1f2        ..      BNE      0x1ae4c ; ndigits_in_u64 + 28
        0x0001ae66:    4630        0F      MOV      r0,r6
        0x0001ae68:    bd70        p.      POP      {r4-r6,pc}
    i.padbuffer
    padbuffer
        0x0001ae6a:    b530        0.      PUSH     {r4,r5,lr}
        0x0001ae6c:    4603        .F      MOV      r3,r0
        0x0001ae6e:    2000        .       MOVS     r0,#0
        0x0001ae70:    2a00        .*      CMP      r2,#0
        0x0001ae72:    dc00        ..      BGT      0x1ae76 ; padbuffer + 12
        0x0001ae74:    bd30        0.      POP      {r4,r5,pc}
        0x0001ae76:    e003        ..      B        0x1ae80 ; padbuffer + 22
        0x0001ae78:    b10b        ..      CBZ      r3,0x1ae7e ; padbuffer + 20
        0x0001ae7a:    f8031b01    ....    STRB     r1,[r3],#1
        0x0001ae7e:    1c40        @.      ADDS     r0,r0,#1
        0x0001ae80:    1e14        ..      SUBS     r4,r2,#0
        0x0001ae82:    f1a20201    ....    SUB      r2,r2,#1
        0x0001ae86:    d1f7        ..      BNE      0x1ae78 ; padbuffer + 14
        0x0001ae88:    bf00        ..      NOP      
        0x0001ae8a:    e7f3        ..      B        0x1ae74 ; padbuffer + 10
    i.simple_strlen
    simple_strlen
        0x0001ae8c:    4601        .F      MOV      r1,r0
        0x0001ae8e:    2000        .       MOVS     r0,#0
        0x0001ae90:    b901        ..      CBNZ     r1,0x1ae94 ; simple_strlen + 8
        0x0001ae92:    4770        pG      BX       lr
        0x0001ae94:    e000        ..      B        0x1ae98 ; simple_strlen + 12
        0x0001ae96:    1c40        @.      ADDS     r0,r0,#1
        0x0001ae98:    f8113b01    ...;    LDRB     r3,[r1],#1
        0x0001ae9c:    2b00        .+      CMP      r3,#0
        0x0001ae9e:    d1fa        ..      BNE      0x1ae96 ; simple_strlen + 10
        0x0001aea0:    bf00        ..      NOP      
        0x0001aea2:    e7f6        ..      B        0x1ae92 ; simple_strlen + 6
    i.uint64_to_hexstr
    uint64_to_hexstr
        0x0001aea4:    e92d41f0    -..A    PUSH     {r4-r8,lr}
        0x0001aea8:    b085        ..      SUB      sp,sp,#0x14
        0x0001aeaa:    4604        .F      MOV      r4,r0
        0x0001aeac:    460d        .F      MOV      r5,r1
        0x0001aeae:    461e        .F      MOV      r6,r3
        0x0001aeb0:    2100        .!      MOVS     r1,#0
        0x0001aeb2:    468c        .F      MOV      r12,r1
        0x0001aeb4:    ea84070c    ....    EOR      r7,r4,r12
        0x0001aeb8:    ea850c0c    ....    EOR      r12,r5,r12
        0x0001aebc:    ea57070c    W...    ORRS     r7,r7,r12
        0x0001aec0:    d105        ..      BNE      0x1aece ; uint64_to_hexstr + 42
        0x0001aec2:    f04f0830    O.0.    MOV      r8,#0x30
        0x0001aec6:    460f        .F      MOV      r7,r1
        0x0001aec8:    1c49        I.      ADDS     r1,r1,#1
        0x0001aeca:    f80d8007    ....    STRB     r8,[sp,r7]
        0x0001aece:    e016        ..      B        0x1aefe ; uint64_to_hexstr + 90
        0x0001aed0:    270f        .'      MOVS     r7,#0xf
        0x0001aed2:    4027        '@      ANDS     r7,r7,r4
        0x0001aed4:    b2fb        ..      UXTB     r3,r7
        0x0001aed6:    2b09        .+      CMP      r3,#9
        0x0001aed8:    dd05        ..      BLE      0x1aee6 ; uint64_to_hexstr + 66
        0x0001aeda:    b10e        ..      CBZ      r6,0x1aee0 ; uint64_to_hexstr + 60
        0x0001aedc:    2727        ''      MOVS     r7,#0x27
        0x0001aede:    e000        ..      B        0x1aee2 ; uint64_to_hexstr + 62
        0x0001aee0:    2707        .'      MOVS     r7,#7
        0x0001aee2:    441f        .D      ADD      r7,r7,r3
        0x0001aee4:    b2fb        ..      UXTB     r3,r7
        0x0001aee6:    f1030730    ..0.    ADD      r7,r3,#0x30
        0x0001aeea:    f00708ff    ....    AND      r8,r7,#0xff
        0x0001aeee:    460f        .F      MOV      r7,r1
        0x0001aef0:    1c49        I.      ADDS     r1,r1,#1
        0x0001aef2:    f80d8007    ....    STRB     r8,[sp,r7]
        0x0001aef6:    0927        '.      LSRS     r7,r4,#4
        0x0001aef8:    ea477405    G..t    ORR      r4,r7,r5,LSL #28
        0x0001aefc:    092d        -.      LSRS     r5,r5,#4
        0x0001aefe:    f04f0c00    O...    MOV      r12,#0
        0x0001af02:    ea84070c    ....    EOR      r7,r4,r12
        0x0001af06:    ea850c0c    ....    EOR      r12,r5,r12
        0x0001af0a:    ea57070c    W...    ORRS     r7,r7,r12
        0x0001af0e:    d1df        ..      BNE      0x1aed0 ; uint64_to_hexstr + 44
        0x0001af10:    4608        .F      MOV      r0,r1
        0x0001af12:    b14a        J.      CBZ      r2,0x1af28 ; uint64_to_hexstr + 132
        0x0001af14:    e003        ..      B        0x1af1e ; uint64_to_hexstr + 122
        0x0001af16:    f81d7001    ...p    LDRB     r7,[sp,r1]
        0x0001af1a:    f8027b01    ...{    STRB     r7,[r2],#1
        0x0001af1e:    1e0f        ..      SUBS     r7,r1,#0
        0x0001af20:    f1a10101    ....    SUB      r1,r1,#1
        0x0001af24:    d1f7        ..      BNE      0x1af16 ; uint64_to_hexstr + 114
        0x0001af26:    7017        .p      STRB     r7,[r2,#0]
        0x0001af28:    b005        ..      ADD      sp,sp,#0x14
        0x0001af2a:    e8bd81f0    ....    POP      {r4-r8,pc}
    i.uint64_to_str
    uint64_to_str
        0x0001af2e:    e92d4ff0    -..O    PUSH     {r4-r11,lr}
        0x0001af32:    b087        ..      SUB      sp,sp,#0x1c
        0x0001af34:    4607        .F      MOV      r7,r0
        0x0001af36:    4688        .F      MOV      r8,r1
        0x0001af38:    4616        .F      MOV      r6,r2
        0x0001af3a:    f04f0900    O...    MOV      r9,#0
        0x0001af3e:    46cb        .F      MOV      r11,r9
        0x0001af40:    bf00        ..      NOP      
        0x0001af42:    4638        8F      MOV      r0,r7
        0x0001af44:    4641        AF      MOV      r1,r8
        0x0001af46:    f7fffbd4    ....    BL       divu64_10 ; 0x1a6f2
        0x0001af4a:    4604        .F      MOV      r4,r0
        0x0001af4c:    460d        .F      MOV      r5,r1
        0x0001af4e:    210a        .!      MOVS     r1,#0xa
        0x0001af50:    fba40101    ....    UMULL    r0,r1,r4,r1
        0x0001af54:    ebb70a00    ....    SUBS     r10,r7,r0
        0x0001af58:    f10a0030    ..0.    ADD      r0,r10,#0x30
        0x0001af5c:    b2c2        ..      UXTB     r2,r0
        0x0001af5e:    4648        HF      MOV      r0,r9
        0x0001af60:    f1090901    ....    ADD      r9,r9,#1
        0x0001af64:    f80d2000    ...     STRB     r2,[sp,r0]
        0x0001af68:    4627        'F      MOV      r7,r4
        0x0001af6a:    46a8        .F      MOV      r8,r5
        0x0001af6c:    f04f0200    O...    MOV      r2,#0
        0x0001af70:    ea870002    ....    EOR      r0,r7,r2
        0x0001af74:    ea880102    ....    EOR      r1,r8,r2
        0x0001af78:    4308        .C      ORRS     r0,r0,r1
        0x0001af7a:    d1e2        ..      BNE      0x1af42 ; uint64_to_str + 20
        0x0001af7c:    46cb        .F      MOV      r11,r9
        0x0001af7e:    b156        V.      CBZ      r6,0x1af96 ; uint64_to_str + 104
        0x0001af80:    e003        ..      B        0x1af8a ; uint64_to_str + 92
        0x0001af82:    f81d0009    ....    LDRB     r0,[sp,r9]
        0x0001af86:    f8060b01    ....    STRB     r0,[r6],#1
        0x0001af8a:    f1b90000    ....    SUBS     r0,r9,#0
        0x0001af8e:    f1a90901    ....    SUB      r9,r9,#1
        0x0001af92:    d1f6        ..      BNE      0x1af82 ; uint64_to_str + 84
        0x0001af94:    7030        0p      STRB     r0,[r6,#0]
        0x0001af96:    4658        XF      MOV      r0,r11
        0x0001af98:    b007        ..      ADD      sp,sp,#0x1c
        0x0001af9a:    e8bd8ff0    ....    POP      {r4-r11,pc}
        0x0001af9e:    0000        ..      MOVS     r0,r0
    i.update_progress
    update_progress
        0x0001afa0:    b510        ..      PUSH     {r4,lr}
        0x0001afa2:    4604        .F      MOV      r4,r0
        0x0001afa4:    4805        .H      LDR      r0,[pc,#20] ; [0x1afbc] = 0x10000034
        0x0001afa6:    6800        .h      LDR      r0,[r0,#0]
        0x0001afa8:    1a20         .      SUBS     r0,r4,r0
        0x0001afaa:    f5b07f7a    ..z.    CMP      r0,#0x3e8
        0x0001afae:    d904        ..      BLS      0x1afba ; update_progress + 26
        0x0001afb0:    a003        ..      ADR      r0,{pc}+0x10 ; 0x1afc0
        0x0001afb2:    f7fff8e7    ....    BL       am_util_stdio_printf ; 0x1a184
        0x0001afb6:    4801        .H      LDR      r0,[pc,#4] ; [0x1afbc] = 0x10000034
        0x0001afb8:    6004        .`      STR      r4,[r0,#0]
        0x0001afba:    bd10        ..      POP      {r4,pc}
    $d
        0x0001afbc:    10000034    4...    DCD    268435508
        0x0001afc0:    0000002e    ....    DCD    46
    $t
    i.validate_rx_buf
    validate_rx_buf
        0x0001afc4:    b570        p.      PUSH     {r4-r6,lr}
        0x0001afc6:    4605        .F      MOV      r5,r0
        0x0001afc8:    2400        .$      MOVS     r4,#0
        0x0001afca:    e00d        ..      B        0x1afe8 ; validate_rx_buf + 36
        0x0001afcc:    480d        .H      LDR      r0,[pc,#52] ; [0x1b004] = 0x10000164
        0x0001afce:    5d01        .]      LDRB     r1,[r0,r4]
        0x0001afd0:    480d        .H      LDR      r0,[pc,#52] ; [0x1b008] = 0x10000000
        0x0001afd2:    6800        .h      LDR      r0,[r0,#0]
        0x0001afd4:    4420         D      ADD      r0,r0,r4
        0x0001afd6:    b2c0        ..      UXTB     r0,r0
        0x0001afd8:    4281        .B      CMP      r1,r0
        0x0001afda:    d004        ..      BEQ      0x1afe6 ; validate_rx_buf + 34
        0x0001afdc:    4621        !F      MOV      r1,r4
        0x0001afde:    a00b        ..      ADR      r0,{pc}+0x2e ; 0x1b00c
        0x0001afe0:    f7fff8d0    ....    BL       am_util_stdio_printf ; 0x1a184
        0x0001afe4:    e002        ..      B        0x1afec ; validate_rx_buf + 40
        0x0001afe6:    1c64        d.      ADDS     r4,r4,#1
        0x0001afe8:    42ac        .B      CMP      r4,r5
        0x0001afea:    d3ef        ..      BCC      0x1afcc ; validate_rx_buf + 8
        0x0001afec:    bf00        ..      NOP      
        0x0001afee:    4806        .H      LDR      r0,[pc,#24] ; [0x1b008] = 0x10000000
        0x0001aff0:    6800        .h      LDR      r0,[r0,#0]
        0x0001aff2:    4428        (D      ADD      r0,r0,r5
        0x0001aff4:    4904        .I      LDR      r1,[pc,#16] ; [0x1b008] = 0x10000000
        0x0001aff6:    6008        .`      STR      r0,[r1,#0]
        0x0001aff8:    42ac        .B      CMP      r4,r5
        0x0001affa:    d101        ..      BNE      0x1b000 ; validate_rx_buf + 60
        0x0001affc:    2001        .       MOVS     r0,#1
        0x0001affe:    bd70        p.      POP      {r4-r6,pc}
        0x0001b000:    2000        .       MOVS     r0,#0
        0x0001b002:    e7fc        ..      B        0x1affe ; validate_rx_buf + 58
    $d
        0x0001b004:    10000164    d...    DCD    268435812
        0x0001b008:    10000000    ....    DCD    268435456
        0x0001b00c:    6c696146    Fail    DCD    1818845510
        0x0001b010:    74206465    ed t    DCD    1948279909
        0x0001b014:    6f63206f    o co    DCD    1868767343
        0x0001b018:    7261706d    mpar    DCD    1918988397
        0x0001b01c:    75622065    e bu    DCD    1969365093
        0x0001b020:    72656666    ffer    DCD    1919247974
        0x0001b024:    74612073    s at    DCD    1952522355
        0x0001b028:    646e6920     ind    DCD    1684957472
        0x0001b02c:    25207865    ex %    DCD    622884965
        0x0001b030:    000a2064    d ..    DCD    663652
    $t
    i.validate_transaction
    validate_transaction
        0x0001b034:    e92d47f0    -..G    PUSH     {r4-r10,lr}
        0x0001b038:    460c        .F      MOV      r4,r1
        0x0001b03a:    4682        .F      MOV      r10,r0
        0x0001b03c:    e9d40601    ....    LDRD     r0,r6,[r4,#4]
        0x0001b040:    f8918014    ....    LDRB     r8,[r1,#0x14]
        0x0001b044:    68cf        .h      LDR      r7,[r1,#0xc]
        0x0001b046:    690d        .i      LDR      r5,[r1,#0x10]
        0x0001b048:    4691        .F      MOV      r9,r2
        0x0001b04a:    2805        .(      CMP      r0,#5
        0x0001b04c:    d834        4.      BHI      0x1b0b8 ; validate_transaction + 132
        0x0001b04e:    00c2        ..      LSLS     r2,r0,#3
        0x0001b050:    f04f30ff    O..0    MOV      r0,#0xffffffff
        0x0001b054:    4601        .F      MOV      r1,r0
        0x0001b056:    f7fdf983    ....    BL       __aeabi_llsl ; 0x18360
        0x0001b05a:    460a        .F      MOV      r2,r1
        0x0001b05c:    ea000106    ....    AND      r1,r0,r6
        0x0001b060:    ea020007    ....    AND      r0,r2,r7
        0x0001b064:    4308        .C      ORRS     r0,r0,r1
        0x0001b066:    d127        '.      BNE      0x1b0b8 ; validate_transaction + 132
        0x0001b068:    b14d        M.      CBZ      r5,0x1b07e ; validate_transaction + 74
        0x0001b06a:    f1b80f00    ....    CMP      r8,#0
        0x0001b06e:    d004        ..      BEQ      0x1b07a ; validate_transaction + 70
        0x0001b070:    69e0        .i      LDR      r0,[r4,#0x1c]
        0x0001b072:    b308        ..      CBZ      r0,0x1b0b8 ; validate_transaction + 132
        0x0001b074:    f1b80f01    ....    CMP      r8,#1
        0x0001b078:    d001        ..      BEQ      0x1b07e ; validate_transaction + 74
        0x0001b07a:    69a0        .i      LDR      r0,[r4,#0x18]
        0x0001b07c:    b1e0        ..      CBZ      r0,0x1b0b8 ; validate_transaction + 132
        0x0001b07e:    f89a0008    ....    LDRB     r0,[r10,#8]
        0x0001b082:    2801        .(      CMP      r0,#1
        0x0001b084:    d001        ..      BEQ      0x1b08a ; validate_transaction + 86
        0x0001b086:    b138        8.      CBZ      r0,0x1b098 ; validate_transaction + 100
        0x0001b088:    e002        ..      B        0x1b090 ; validate_transaction + 92
        0x0001b08a:    f5b55f80    ..._    CMP      r5,#0x1000
        0x0001b08e:    d213        ..      BCS      0x1b0b8 ; validate_transaction + 132
        0x0001b090:    f1b90f00    ....    CMP      r9,#0
        0x0001b094:    d007        ..      BEQ      0x1b0a6 ; validate_transaction + 114
        0x0001b096:    e012        ..      B        0x1b0be ; validate_transaction + 138
        0x0001b098:    6820         h      LDR      r0,[r4,#0]
        0x0001b09a:    2804        .(      CMP      r0,#4
        0x0001b09c:    bf98        ..      IT       LS
        0x0001b09e:    f5b55f80    ..._    CMPLS    r5,#0x1000
        0x0001b0a2:    d3f5        ..      BCC      0x1b090 ; validate_transaction + 92
        0x0001b0a4:    e008        ..      B        0x1b0b8 ; validate_transaction + 132
        0x0001b0a6:    f8940024    ..$.    LDRB     r0,[r4,#0x24]
        0x0001b0aa:    f0100fe0    ....    TST      r0,#0xe0
        0x0001b0ae:    d103        ..      BNE      0x1b0b8 ; validate_transaction + 132
        0x0001b0b0:    4904        .I      LDR      r1,[pc,#16] ; [0x1b0c4] = 0xe0e0e0
        0x0001b0b2:    6aa0        .j      LDR      r0,[r4,#0x28]
        0x0001b0b4:    4208        .B      TST      r0,r1
        0x0001b0b6:    d002        ..      BEQ      0x1b0be ; validate_transaction + 138
        0x0001b0b8:    2006        .       MOVS     r0,#6
        0x0001b0ba:    e8bd87f0    ....    POP      {r4-r10,pc}
        0x0001b0be:    2000        .       MOVS     r0,#0
        0x0001b0c0:    e8bd87f0    ....    POP      {r4-r10,pc}
    $d
        0x0001b0c4:    00e0e0e0    ....    DCD    14737632
    $t
    x$fpl$d2f
    $v0
    __aeabi_d2f
    _d2f
        0x0001b0c8:    f0214200    !..B    BIC      r2,r1,#0x80000000
        0x0001b0cc:    f1a25260    ..`R    SUB      r2,r2,#0x38000000
        0x0001b0d0:    f5b21f80    ....    CMP      r2,#0x100000
        0x0001b0d4:    f0014300    ...C    AND      r3,r1,#0x80000000
        0x0001b0d8:    bf28        (.      IT       CS
        0x0001b0da:    f1d26c7f    ...l    RSBSCS   r12,r2,#0xff00000
        0x0001b0de:    d90b        ..      BLS      0x1b0f8 ; __aeabi_d2f + 48
        0x0001b0e0:    ea5f1c00    _...    LSLS     r12,r0,#4
        0x0001b0e4:    ea4302c2    C...    ORR      r2,r3,r2,LSL #3
        0x0001b0e8:    eb427050    B.Pp    ADC      r0,r2,r0,LSR #29
        0x0001b0ec:    bf18        ..      IT       NE
        0x0001b0ee:    4770        pG      BXNE     lr
        0x0001b0f0:    bf28        (.      IT       CS
        0x0001b0f2:    f0200001     ...    BICCS    r0,r0,#1
        0x0001b0f6:    4770        pG      BX       lr
        0x0001b0f8:    f5b21f80    ....    CMP      r2,#0x100000
        0x0001b0fc:    bfbc        ..      ITT      LT
        0x0001b0fe:    4618        .F      MOVLT    r0,r3
        0x0001b100:    4770        pG      BXLT     lr
        0x0001b102:    ea4f0c41    O.A.    LSL      r12,r1,#1
        0x0001b106:    f51c1f00    ....    CMN      r12,#0x200000
        0x0001b10a:    d202        ..      BCS      0x1b112 ; __aeabi_d2f + 74
        0x0001b10c:    4608        .F      MOV      r0,r1
        0x0001b10e:    f000b85f    .._.    B.W      __fpl_fretinf ; 0x1b1d0
        0x0001b112:    b570        p.      PUSH     {r4-r6,lr}
        0x0001b114:    f000f809    ....    BL       __fpl_dnaninf ; 0x1b12a
    $d
        0x0001b118:    89000000    ....    DCD    2298478592
    $t
        0x0001b11c:    f7ffbff6    ....    B.W      0x1b10c ; __aeabi_d2f + 68
        0x0001b120:    f04f4000    O..@    MOV      r0,#0x80000000
        0x0001b124:    f5a00080    ....    SUB      r0,r0,#0x400000
        0x0001b128:    4770        pG      BX       lr
    x$fpl$dnaninf
    $v0
    __fpl_dnaninf
        0x0001b12a:    f10e0e02    ....    ADD      lr,lr,#2
        0x0001b12e:    f02e0e03    ....    BIC      lr,lr,#3
        0x0001b132:    f85e6b04    ^..k    LDR      r6,[lr],#4
        0x0001b136:    4236        6B      TST      r6,r6
        0x0001b138:    d405        ..      BMI      0x1b146 ; __fpl_dnaninf + 28
        0x0001b13a:    2a01        .*      CMP      r2,#1
        0x0001b13c:    eb430503    C...    ADC      r5,r3,r3
        0x0001b140:    f5151f00    ....    CMN      r5,#0x200000
        0x0001b144:    d812        ..      BHI      0x1b16c ; __fpl_dnaninf + 66
        0x0001b146:    2801        .(      CMP      r0,#1
        0x0001b148:    eb410c01    A...    ADC      r12,r1,r1
        0x0001b14c:    f51c1f00    ....    CMN      r12,#0x200000
        0x0001b150:    d80c        ..      BHI      0x1b16c ; __fpl_dnaninf + 66
        0x0001b152:    d10e        ..      BNE      0x1b172 ; __fpl_dnaninf + 72
        0x0001b154:    ea4f7cd1    O..|    LSR      r12,r1,#31
        0x0001b158:    f5151f00    ....    CMN      r5,#0x200000
        0x0001b15c:    eb0c0c4c    ..L.    ADD      r12,r12,r12,LSL #1
        0x0001b160:    f10c0c02    ....    ADD      r12,r12,#2
        0x0001b164:    bf08        ..      IT       EQ
        0x0001b166:    eb4c7cd3    L..|    ADCEQ    r12,r12,r3,LSR #31
        0x0001b16a:    e004        ..      B        0x1b176 ; __fpl_dnaninf + 76
        0x0001b16c:    f04f0c08    O...    MOV      r12,#8
        0x0001b170:    e001        ..      B        0x1b176 ; __fpl_dnaninf + 76
        0x0001b172:    ea4f7cd3    O..|    LSR      r12,r3,#31
        0x0001b176:    eb0c054c    ..L.    ADD      r5,r12,r12,LSL #1
        0x0001b17a:    fa26f605    &...    LSR      r6,r6,r5
        0x0001b17e:    f0060607    ....    AND      r6,r6,#7
        0x0001b182:    f1b60c04    ....    SUBS     r12,r6,#4
        0x0001b186:    d206        ..      BCS      0x1b196 ; __fpl_dnaninf + 108
        0x0001b188:    eb0e0c86    ....    ADD      r12,lr,r6,LSL #2
        0x0001b18c:    e8bd4070    ..p@    POP      {r4-r6,lr}
        0x0001b190:    f04c0c01    L...    ORR      r12,r12,#1
        0x0001b194:    4760        `G      BX       r12
        0x0001b196:    e8dff00c    ....    TBB      [pc,r12]
    $d
        0x0001b19a:    0b09        ..      DCW    2825
        0x0001b19c:    0202        ..      DCW    514
    $t
        0x0001b19e:    f04f4100    O..A    MOV      r1,#0x80000000
        0x0001b1a2:    f04f0000    O...    MOV      r0,#0
        0x0001b1a6:    f5a12100    ...!    SUB      r1,r1,#0x80000
        0x0001b1aa:    bd70        p.      POP      {r4-r6,pc}
        0x0001b1ac:    4619        .F      MOV      r1,r3
        0x0001b1ae:    4610        .F      MOV      r0,r2
        0x0001b1b0:    2801        .(      CMP      r0,#1
        0x0001b1b2:    eb510401    Q...    ADCS     r4,r1,r1
        0x0001b1b6:    bf18        ..      IT       NE
        0x0001b1b8:    f5d41400    ....    RSBSNE   r4,r4,#0x200000
        0x0001b1bc:    bf84        ..      ITT      HI
        0x0001b1be:    2000        .       MOVHI    r0,#0
        0x0001b1c0:    f0014100    ...A    ANDHI    r1,r1,#0x80000000
        0x0001b1c4:    bd70        p.      POP      {r4-r6,pc}
    x$fpl$fpinit
    $v0
    _fp_init
        0x0001b1c6:    f04f7040    O.@p    MOV      r0,#0x3000000
        0x0001b1ca:    eee10a10    ....    VMSR     FPSCR,r0
    __fplib_config_fpu_vfp
    __fplib_config_pureend_doubles
        0x0001b1ce:    4770        pG      BX       lr
    x$fpl$fretinf
    $v0
    __fpl_fretinf
        0x0001b1d0:    21ff        .!      MOVS     r1,#0xff
        0x0001b1d2:    ea4150d0    A..P    ORR      r0,r1,r0,LSR #23
        0x0001b1d6:    05c0        ..      LSLS     r0,r0,#23
        0x0001b1d8:    4770        pG      BX       lr
    x$fpl$usenofp
    __I$use$fp
        0x0001b1da:    0000        ..      MOVS     r0,r0
    $d.realdata
    .constdata
    ui32I2sWordLength
        0x0001b1dc:    00000008    ....    DCD    8
        0x0001b1e0:    00000000    ....    DCD    0
        0x0001b1e4:    00000010    ....    DCD    16
        0x0001b1e8:    00000000    ....    DCD    0
        0x0001b1ec:    00000018    ....    DCD    24
        0x0001b1f0:    00000020     ...    DCD    32
    __tagsym$$used
    ui32MCUAllowed
        0x0001b1f4:    00000000    ....    DCD    0
        0x0001b1f8:    00000000    ....    DCD    0
        0x0001b1fc:    00000000    ....    DCD    0
        0x0001b200:    00000000    ....    DCD    0
        0x0001b204:    00000000    ....    DCD    0
    __tagsym$$used
    ui32DSP0Allowed
        0x0001b208:    00000000    ....    DCD    0
        0x0001b20c:    00000000    ....    DCD    0
        0x0001b210:    00000000    ....    DCD    0
        0x0001b214:    00000000    ....    DCD    0
        0x0001b218:    00000000    ....    DCD    0
    __tagsym$$used
    ui32DSP1Allowed
        0x0001b21c:    00000000    ....    DCD    0
        0x0001b220:    00000000    ....    DCD    0
        0x0001b224:    00000000    ....    DCD    0
        0x0001b228:    00000000    ....    DCD    0
        0x0001b22c:    00000000    ....    DCD    0
    __tagsym$$used
    ui32SharedAccess
        0x0001b230:    00000000    ....    DCD    0
        0x0001b234:    00000000    ....    DCD    0
        0x0001b238:    00000000    ....    DCD    0
        0x0001b23c:    00000000    ....    DCD    0
        0x0001b240:    00000000    ....    DCD    0
    __tagsym$$used
    sGlobalAccess
        0x0001b244:    0001b230    0...    DCD    111152
        0x0001b248:    0001b1f4    ....    DCD    111092
        0x0001b24c:    0001b208    ....    DCD    111112
        0x0001b250:    0001b21c    ....    DCD    111132
        0x0001b254:    10060004    ....    DCD    268828676
        0x0001b258:    10060018    ....    DCD    268828696
        0x0001b25c:    1006002c    ,...    DCD    268828716
    .constdata
    ui32I2sWordLength
        0x0001b260:    00000008    ....    DCD    8
        0x0001b264:    00000000    ....    DCD    0
        0x0001b268:    00000010    ....    DCD    16
        0x0001b26c:    00000000    ....    DCD    0
        0x0001b270:    00000018    ....    DCD    24
        0x0001b274:    00000020     ...    DCD    32
    g_AM_BSP_GPIO_HANDSHAKE
        0x0001b278:    00000093    ....    DCD    147
    .constdata
    g_ui32RMpintbl
        0x0001b27c:    00000000    ....    DCD    0
        0x0001b280:    00000000    ....    DCD    0
        0x0001b284:    00000000    ....    DCD    0
        0x0001b288:    00000000    ....    DCD    0
    g_ui32DSpintbl
        0x0001b28c:    8fc007e0    ....    DCD    2411726816
        0x0001b290:    e3fbffff    ....    DCD    3824943103
        0x0001b294:    01ffffff    ....    DCD    33554431
        0x0001b298:    00000000    ....    DCD    0
    .constdata
    g_am_hal_bootrom_helper
        0x0001b29c:    0800004d    M...    DCD    134217805
        0x0001b2a0:    08000051    Q...    DCD    134217809
        0x0001b2a4:    08000055    U...    DCD    134217813
        0x0001b2a8:    08000059    Y...    DCD    134217817
        0x0001b2ac:    0800006d    m...    DCD    134217837
        0x0001b2b0:    08000075    u...    DCD    134217845
        0x0001b2b4:    08000079    y...    DCD    134217849
        0x0001b2b8:    08000081    ....    DCD    134217857
        0x0001b2bc:    08000099    ....    DCD    134217881
        0x0001b2c0:    0800009d    ....    DCD    134217885
    .constdata
    gAmHalCmdQReg
        0x0001b2c4:    40050228    (..@    DCD    1074070056
        0x0001b2c8:    4005022c    ,..@    DCD    1074070060
        0x0001b2cc:    40050240    @..@    DCD    1074070080
        0x0001b2d0:    40050244    D..@    DCD    1074070084
        0x0001b2d4:    4005023c    <..@    DCD    1074070076
        0x0001b2d8:    00008000    ....    DCD    32768
        0x0001b2dc:    40050230    0..@    DCD    1074070064
        0x0001b2e0:    00000001    ....    DCD    1
        0x0001b2e4:    00000004    ....    DCD    4
        0x0001b2e8:    00000002    ....    DCD    2
        0x0001b2ec:    40051228    (..@    DCD    1074074152
        0x0001b2f0:    4005122c    ,..@    DCD    1074074156
        0x0001b2f4:    40051240    @..@    DCD    1074074176
        0x0001b2f8:    40051244    D..@    DCD    1074074180
        0x0001b2fc:    4005123c    <..@    DCD    1074074172
        0x0001b300:    00008000    ....    DCD    32768
        0x0001b304:    40051230    0..@    DCD    1074074160
        0x0001b308:    00000001    ....    DCD    1
        0x0001b30c:    00000004    ....    DCD    4
        0x0001b310:    00000002    ....    DCD    2
        0x0001b314:    40052228    (".@    DCD    1074078248
        0x0001b318:    4005222c    ,".@    DCD    1074078252
        0x0001b31c:    40052240    @".@    DCD    1074078272
        0x0001b320:    40052244    D".@    DCD    1074078276
        0x0001b324:    4005223c    <".@    DCD    1074078268
        0x0001b328:    00008000    ....    DCD    32768
        0x0001b32c:    40052230    0".@    DCD    1074078256
        0x0001b330:    00000001    ....    DCD    1
        0x0001b334:    00000004    ....    DCD    4
        0x0001b338:    00000002    ....    DCD    2
        0x0001b33c:    40053228    (2.@    DCD    1074082344
        0x0001b340:    4005322c    ,2.@    DCD    1074082348
        0x0001b344:    40053240    @2.@    DCD    1074082368
        0x0001b348:    40053244    D2.@    DCD    1074082372
        0x0001b34c:    4005323c    <2.@    DCD    1074082364
        0x0001b350:    00008000    ....    DCD    32768
        0x0001b354:    40053230    02.@    DCD    1074082352
        0x0001b358:    00000001    ....    DCD    1
        0x0001b35c:    00000004    ....    DCD    4
        0x0001b360:    00000002    ....    DCD    2
        0x0001b364:    40054228    (B.@    DCD    1074086440
        0x0001b368:    4005422c    ,B.@    DCD    1074086444
        0x0001b36c:    40054240    @B.@    DCD    1074086464
        0x0001b370:    40054244    DB.@    DCD    1074086468
        0x0001b374:    4005423c    <B.@    DCD    1074086460
        0x0001b378:    00008000    ....    DCD    32768
        0x0001b37c:    40054230    0B.@    DCD    1074086448
        0x0001b380:    00000001    ....    DCD    1
        0x0001b384:    00000004    ....    DCD    4
        0x0001b388:    00000002    ....    DCD    2
        0x0001b38c:    40055228    (R.@    DCD    1074090536
        0x0001b390:    4005522c    ,R.@    DCD    1074090540
        0x0001b394:    40055240    @R.@    DCD    1074090560
        0x0001b398:    40055244    DR.@    DCD    1074090564
        0x0001b39c:    4005523c    <R.@    DCD    1074090556
        0x0001b3a0:    00008000    ....    DCD    32768
        0x0001b3a4:    40055230    0R.@    DCD    1074090544
        0x0001b3a8:    00000001    ....    DCD    1
        0x0001b3ac:    00000004    ....    DCD    4
        0x0001b3b0:    00000002    ....    DCD    2
        0x0001b3b4:    40056228    (b.@    DCD    1074094632
        0x0001b3b8:    4005622c    ,b.@    DCD    1074094636
        0x0001b3bc:    40056240    @b.@    DCD    1074094656
        0x0001b3c0:    40056244    Db.@    DCD    1074094660
        0x0001b3c4:    4005623c    <b.@    DCD    1074094652
        0x0001b3c8:    00008000    ....    DCD    32768
        0x0001b3cc:    40056230    0b.@    DCD    1074094640
        0x0001b3d0:    00000001    ....    DCD    1
        0x0001b3d4:    00000004    ....    DCD    4
        0x0001b3d8:    00000002    ....    DCD    2
        0x0001b3dc:    40057228    (r.@    DCD    1074098728
        0x0001b3e0:    4005722c    ,r.@    DCD    1074098732
        0x0001b3e4:    40057240    @r.@    DCD    1074098752
        0x0001b3e8:    40057244    Dr.@    DCD    1074098756
        0x0001b3ec:    4005723c    <r.@    DCD    1074098748
        0x0001b3f0:    00008000    ....    DCD    32768
        0x0001b3f4:    40057230    0r.@    DCD    1074098736
        0x0001b3f8:    00000001    ....    DCD    1
        0x0001b3fc:    00000004    ....    DCD    4
        0x0001b400:    00000002    ....    DCD    2
        0x0001b404:    400602a0    ...@    DCD    1074135712
        0x0001b408:    400602a8    ...@    DCD    1074135720
        0x0001b40c:    400602c0    ...@    DCD    1074135744
        0x0001b410:    400602c4    ...@    DCD    1074135748
        0x0001b414:    400602b8    ...@    DCD    1074135736
        0x0001b418:    00004000    .@..    DCD    16384
        0x0001b41c:    400602ac    ...@    DCD    1074135724
        0x0001b420:    00000001    ....    DCD    1
        0x0001b424:    00000004    ....    DCD    4
        0x0001b428:    00000008    ....    DCD    8
        0x0001b42c:    400612a0    ...@    DCD    1074139808
        0x0001b430:    400612a8    ...@    DCD    1074139816
        0x0001b434:    400612c0    ...@    DCD    1074139840
        0x0001b438:    400612c4    ...@    DCD    1074139844
        0x0001b43c:    400612b8    ...@    DCD    1074139832
        0x0001b440:    00004000    .@..    DCD    16384
        0x0001b444:    400612ac    ...@    DCD    1074139820
        0x0001b448:    00000001    ....    DCD    1
        0x0001b44c:    00000004    ....    DCD    4
        0x0001b450:    00000008    ....    DCD    8
        0x0001b454:    400622a0    .".@    DCD    1074143904
        0x0001b458:    400622a8    .".@    DCD    1074143912
        0x0001b45c:    400622c0    .".@    DCD    1074143936
        0x0001b460:    400622c4    .".@    DCD    1074143940
        0x0001b464:    400622b8    .".@    DCD    1074143928
        0x0001b468:    00004000    .@..    DCD    16384
        0x0001b46c:    400622ac    .".@    DCD    1074143916
        0x0001b470:    00000001    ....    DCD    1
        0x0001b474:    00000004    ....    DCD    4
        0x0001b478:    00000008    ....    DCD    8
    .constdata
    g_DefaultMcuMemCfg
        0x0001b47c:    07070102    ....    DCD    117899522
        0x0001b480:    0001        ..      DCW    1
    g_DefaultSRAMCfg
        0x0001b482:    0003        ..      DCW    3
        0x0001b484:    03000000    ....    DCD    50331648
    am_hal_pwrctrl_peripheral_control
        0x0001b488:    40021004    ...@    DCD    1073876996
        0x0001b48c:    00000001    ....    DCD    1
        0x0001b490:    40021008    ...@    DCD    1073877000
        0x0001b494:    00000001    ....    DCD    1
        0x0001b498:    40021004    ...@    DCD    1073876996
        0x0001b49c:    00000002    ....    DCD    2
        0x0001b4a0:    40021008    ...@    DCD    1073877000
        0x0001b4a4:    0000001e    ....    DCD    30
        0x0001b4a8:    40021004    ...@    DCD    1073876996
        0x0001b4ac:    00000004    ....    DCD    4
        0x0001b4b0:    40021008    ...@    DCD    1073877000
        0x0001b4b4:    0000001e    ....    DCD    30
        0x0001b4b8:    40021004    ...@    DCD    1073876996
        0x0001b4bc:    00000008    ....    DCD    8
        0x0001b4c0:    40021008    ...@    DCD    1073877000
        0x0001b4c4:    0000001e    ....    DCD    30
        0x0001b4c8:    40021004    ...@    DCD    1073876996
        0x0001b4cc:    00000010    ....    DCD    16
        0x0001b4d0:    40021008    ...@    DCD    1073877000
        0x0001b4d4:    0000001e    ....    DCD    30
        0x0001b4d8:    40021004    ...@    DCD    1073876996
        0x0001b4dc:    00000020     ...    DCD    32
        0x0001b4e0:    40021008    ...@    DCD    1073877000
        0x0001b4e4:    000001e0    ....    DCD    480
        0x0001b4e8:    40021004    ...@    DCD    1073876996
        0x0001b4ec:    00000040    @...    DCD    64
        0x0001b4f0:    40021008    ...@    DCD    1073877000
        0x0001b4f4:    000001e0    ....    DCD    480
        0x0001b4f8:    40021004    ...@    DCD    1073876996
        0x0001b4fc:    00000080    ....    DCD    128
        0x0001b500:    40021008    ...@    DCD    1073877000
        0x0001b504:    000001e0    ....    DCD    480
        0x0001b508:    40021004    ...@    DCD    1073876996
        0x0001b50c:    00000100    ....    DCD    256
        0x0001b510:    40021008    ...@    DCD    1073877000
        0x0001b514:    000001e0    ....    DCD    480
        0x0001b518:    40021004    ...@    DCD    1073876996
        0x0001b51c:    00000200    ....    DCD    512
        0x0001b520:    40021008    ...@    DCD    1073877000
        0x0001b524:    00001e00    ....    DCD    7680
        0x0001b528:    40021004    ...@    DCD    1073876996
        0x0001b52c:    00000400    ....    DCD    1024
        0x0001b530:    40021008    ...@    DCD    1073877000
        0x0001b534:    00001e00    ....    DCD    7680
        0x0001b538:    40021004    ...@    DCD    1073876996
        0x0001b53c:    00000800    ....    DCD    2048
        0x0001b540:    40021008    ...@    DCD    1073877000
        0x0001b544:    00001e00    ....    DCD    7680
        0x0001b548:    40021004    ...@    DCD    1073876996
        0x0001b54c:    00001000    ....    DCD    4096
        0x0001b550:    40021008    ...@    DCD    1073877000
        0x0001b554:    00001e00    ....    DCD    7680
        0x0001b558:    40021004    ...@    DCD    1073876996
        0x0001b55c:    00002000    . ..    DCD    8192
        0x0001b560:    40021008    ...@    DCD    1073877000
        0x0001b564:    00002000    . ..    DCD    8192
        0x0001b568:    40021004    ...@    DCD    1073876996
        0x0001b56c:    00004000    .@..    DCD    16384
        0x0001b570:    40021008    ...@    DCD    1073877000
        0x0001b574:    0001c000    ....    DCD    114688
        0x0001b578:    40021004    ...@    DCD    1073876996
        0x0001b57c:    00008000    ....    DCD    32768
        0x0001b580:    40021008    ...@    DCD    1073877000
        0x0001b584:    0001c000    ....    DCD    114688
        0x0001b588:    40021004    ...@    DCD    1073876996
        0x0001b58c:    00010000    ....    DCD    65536
        0x0001b590:    40021008    ...@    DCD    1073877000
        0x0001b594:    0001c000    ....    DCD    114688
        0x0001b598:    40021004    ...@    DCD    1073876996
        0x0001b59c:    00020000    ....    DCD    131072
        0x0001b5a0:    40021008    ...@    DCD    1073877000
        0x0001b5a4:    00020000    ....    DCD    131072
        0x0001b5a8:    40021004    ...@    DCD    1073876996
        0x0001b5ac:    00100000    ....    DCD    1048576
        0x0001b5b0:    40021008    ...@    DCD    1073877000
        0x0001b5b4:    00100000    ....    DCD    1048576
        0x0001b5b8:    40021004    ...@    DCD    1073876996
        0x0001b5bc:    00200000    .. .    DCD    2097152
        0x0001b5c0:    40021008    ...@    DCD    1073877000
        0x0001b5c4:    00200000    .. .    DCD    2097152
        0x0001b5c8:    40021004    ...@    DCD    1073876996
        0x0001b5cc:    01000000    ....    DCD    16777216
        0x0001b5d0:    40021008    ...@    DCD    1073877000
        0x0001b5d4:    01000000    ....    DCD    16777216
        0x0001b5d8:    4002100c    ...@    DCD    1073877004
        0x0001b5dc:    00000001    ....    DCD    1
        0x0001b5e0:    40021010    ...@    DCD    1073877008
        0x0001b5e4:    00000047    G...    DCD    71
        0x0001b5e8:    4002100c    ...@    DCD    1073877004
        0x0001b5ec:    00000002    ....    DCD    2
        0x0001b5f0:    40021010    ...@    DCD    1073877008
        0x0001b5f4:    00000047    G...    DCD    71
        0x0001b5f8:    4002100c    ...@    DCD    1073877004
        0x0001b5fc:    00000004    ....    DCD    4
        0x0001b600:    40021010    ...@    DCD    1073877008
        0x0001b604:    00000047    G...    DCD    71
        0x0001b608:    4002100c    ...@    DCD    1073877004
        0x0001b60c:    00000040    @...    DCD    64
        0x0001b610:    40021010    ...@    DCD    1073877008
        0x0001b614:    00000047    G...    DCD    71
    Region$$Table$$Base
        0x0001b618:    0001b648    H...    DCD    112200
        0x0001b61c:    10000000    ....    DCD    268435456
        0x0001b620:    00000164    d...    DCD    356
        0x0001b624:    00018270    p...    DCD    98928
        0x0001b628:    0001b6b0    ....    DCD    112304
        0x0001b62c:    10060000    ....    DCD    268828672
        0x0001b630:    00000040    @...    DCD    64
        0x0001b634:    000182cc    ....    DCD    99020
        0x0001b638:    0001b6b0    ....    DCD    112304
        0x0001b63c:    10000164    d...    DCD    268435812
        0x0001b640:    00006784    .g..    DCD    26500
        0x0001b644:    000182e8    ....    DCD    99048
    Region$$Table$$Limit

** Section #2 'MCU_TCM' (SHT_PROGBITS) [SHF_ALLOC + SHF_WRITE]
    Size   : 104 bytes (alignment 8)
    Address: 0x10000000

    Data section was compressed (Original size: 356 bytes)

    0x10000000:   00 00 00 00 00 00 00 00 00 00 00 00 00 00 00 00    ................
    0x10000010:   20 a1 07 00 00 00 00 00 00 00 00 00 00 00 00 00     ...............
    0x10000020:   01 00 00 00 40 42 0f 00 00 00 00 00 00 00 00 00    ....@B..........
    0x10000030:   00 00 00 00 00 00 00 00 00 00 00 00 00 00 00 00    ................
    0x10000040:   00 00 00 00 00 00 00 00 87 05 00 00 00 00 00 00    ................
    0x10000050:   01 04 00 00 01 04 00 00 00 46 00 00 00 46 00 00    .........F...F..
    0x10000060:   87 05 04 00 04 00 00 00 05 04 00 00 05 04 00 00    ................
    0x10000070:   04 46 00 00 04 46 00 00 87 05 08 00 00 00 00 00    .F...F..........
    0x10000080:   01 04 00 00 01 04 00 00 00 46 00 00 00 46 00 00    .........F...F..
    0x10000090:   87 05 0c 00 00 00 00 00 01 04 00 00 01 04 00 00    ................
    0x100000a0:   00 46 00 00 00 46 00 00 87 05 10 00 00 00 00 00    .F...F..........
    0x100000b0:   01 04 00 00 01 04 00 00 00 46 00 00 00 46 00 00    .........F...F..
    0x100000c0:   87 05 14 00 00 00 00 00 01 04 00 00 01 04 00 00    ................
    0x100000d0:   00 46 00 00 00 46 00 00 87 05 18 00 00 00 00 00    .F...F..........
    0x100000e0:   01 04 00 00 01 04 00 00 00 46 00 00 00 46 00 00    .........F...F..
    0x100000f0:   87 05 1c 00 00 00 00 00 01 04 00 00 01 04 00 00    ................
    0x10000100:   00 46 00 00 00 46 00 00 02 04 00 00 00 01 02 00    .F...F..........
    0x10000110:   01 00 00 00 00 00 00 00 00 00 00 00 08 1e 0c 40    ...............@
    0x10000120:   18 1e 0c 40 00 00 00 00 6d db 02 40 d1 02 00 00    ...@....m..@....
    0x10000130:   92 24 01 80 20 01 00 00 01 00 00 00 ff ff ff ff    .$.. ...........
    0x10000140:   ff ff ff ff 00 00 00 00 00 00 00 00 00 00 00 00    ................
    0x10000150:   00 00 00 00 00 00 00 00 00 00 00 00 00 00 00 00    ................
    0x10000160:   00 00 00 00                                        ....


** Section #3 'MCU_TCM' (SHT_NOBITS) [SHF_ALLOC + SHF_WRITE]
    Size   : 26500 bytes (alignment 8)
    Address: 0x10000164


** Section #4 'SHARED_SRAM' (SHT_PROGBITS) [SHF_ALLOC + SHF_WRITE]
    Size   : 64 bytes (alignment 4)
    Address: 0x10060000

    0x10060000:   44 b2 01 00 00 00 00 00 00 00 00 00 00 00 00 00    D...............
    0x10060010:   00 00 00 00 00 00 00 00 00 00 00 00 00 00 00 00    ................
    0x10060020:   00 00 00 00 00 00 00 00 00 00 00 00 00 00 00 00    ................
    0x10060030:   00 00 00 00 00 00 00 00 00 00 00 00 00 00 00 00    ................


** Section #5 '.debug_abbrev' (SHT_PROGBITS)
    Size   : 1476 bytes


** Section #6 '.debug_frame' (SHT_PROGBITS)
    Size   : 3884 bytes


** Section #7 '.debug_info' (SHT_PROGBITS)
    Size   : 1016748 bytes


** Section #8 '.debug_line' (SHT_PROGBITS)
    Size   : 6268 bytes


** Section #9 '.debug_loc' (SHT_PROGBITS)
    Size   : 2800 bytes


** Section #10 '.debug_macinfo' (SHT_PROGBITS)
    Size   : 716640 bytes


** Section #11 '.debug_pubnames' (SHT_PROGBITS)
    Size   : 1239 bytes


** Section #12 '.symtab' (SHT_SYMTAB)
    Size   : 12448 bytes (alignment 4)
    String table #13 '.strtab'
    Last local symbol no. 479

    Symbol table .symtab (777 symbols, 479 local)

      #  Symbol Name                Value      Bind  Sec  Type  Vis  Size
    ========================================================================

      1  $d                         0x00018000   Lc    1   --   De 
      2  $t                         0x00018200   Lc    1   --   De 
      3  $d                         0x00018230   Lc    1   --   De 
      4  $t                         0x00018234   Lc    1   --   De 
      5  $d                         0x00018268   Lc    1   --   De 
      6  $t                         0x00018270   Lc    1   --   De 
      7  $d                         0x00018352   Lc    1   --   De 
      8  $t                         0x00018360   Lc    1   --   De 
      9  $d                         0x00018414   Lc    1   --   De 
     10  $t                         0x00018418   Lc    1   --   De 
     11  $d                         0x00018420   Lc    1   --   De 
     12  $t                         0x00018424   Lc    1   --   De 
     13  $d                         0x00018446   Lc    1   --   De 
     14  $t                         0x00018464   Lc    1   --   De 
     15  $d                         0x000186f6   Lc    1   --   De 
     16  $t                         0x000187b8   Lc    1   --   De 
     17  $d                         0x00018834   Lc    1   --   De 
     18  $t                         0x0001884c   Lc    1   --   De 
     19  $d                         0x000188b8   Lc    1   --   De 
     20  $t                         0x000188bc   Lc    1   --   De 
     21  $d                         0x0001890a   Lc    1   --   De 
     22  $t                         0x00018914   Lc    1   --   De 
     23  $d                         0x000189f6   Lc    1   --   De 
     24  $t                         0x00018a04   Lc    1   --   De 
     25  $d                         0x00018a94   Lc    1   --   De 
     26  $t                         0x00018a9c   Lc    1   --   De 
     27  $d                         0x00018b12   Lc    1   --   De 
     28  $t                         0x00018b1c   Lc    1   --   De 
     29  $d                         0x00018ba0   Lc    1   --   De 
     30  $t                         0x00018bac   Lc    1   --   De 
     31  $d                         0x00018c82   Lc    1   --   De 
     32  $t                         0x00018c90   Lc    1   --   De 
     33  $d                         0x00018cb2   Lc    1   --   De 
     34  $t                         0x00018cbc   Lc    1   --   De 
     35  $d                         0x00018d0c   Lc    1   --   De 
     36  $t                         0x00018d14   Lc    1   --   De 
     37  $d                         0x00018d70   Lc    1   --   De 
     38  $t                         0x00018d78   Lc    1   --   De 
     39  $d                         0x00018e2a   Lc    1   --   De 
     40  $t                         0x00018e30   Lc    1   --   De 
     41  $d                         0x00018f9e   Lc    1   --   De 
     42  $t                         0x00018fac   Lc    1   --   De 
     43  $d                         0x00018fd6   Lc    1   --   De 
     44  $t                         0x00018fdc   Lc    1   --   De 
     45  $d                         0x0001903e   Lc    1   --   De 
     46  $t                         0x00019044   Lc    1   --   De 
     47  $d                         0x000190a8   Lc    1   --   De 
     48  $t                         0x000190b0   Lc    1   --   De 
     49  $d                         0x00019102   Lc    1   --   De 
     50  $t                         0x00019108   Lc    1   --   De 
     51  $d                         0x00019178   Lc    1   --   De 
     52  $t                         0x00019184   Lc    1   --   De 
     53  $d                         0x000191a6   Lc    1   --   De 
     54  $t                         0x000191ac   Lc    1   --   De 
     55  $d                         0x0001953c   Lc    1   --   De 
     56  $t                         0x00019554   Lc    1   --   De 
     57  $d                         0x0001980a   Lc    1   --   De 
     58  $t                         0x00019848   Lc    1   --   De 
     59  $d                         0x0001995a   Lc    1   --   De 
     60  $t                         0x00019964   Lc    1   --   De 
     61  $d                         0x000199b0   Lc    1   --   De 
     62  $t                         0x000199b8   Lc    1   --   De 
     63  $d                         0x00019ce8   Lc    1   --   De 
     64  $t                         0x00019cf0   Lc    1   --   De 
     65  $d                         0x00019d1c   Lc    1   --   De 
     66  $t                         0x00019d38   Lc    1   --   De 
     67  $d                         0x00019dd6   Lc    1   --   De 
     68  $t                         0x00019de0   Lc    1   --   De 
     69  $d                         0x00019df2   Lc    1   --   De 
     70  $t                         0x00019df8   Lc    1   --   De 
     71  $d                         0x00019f0a   Lc    1   --   De 
     72  $t                         0x00019f24   Lc    1   --   De 
     73  $d                         0x00019fca   Lc    1   --   De 
     74  $t                         0x00019fd8   Lc    1   --   De 
     75  $d                         0x0001a0f0   Lc    1   --   De 
     76  $t                         0x0001a104   Lc    1   --   De 
     77  $d                         0x0001a156   Lc    1   --   De 
     78  $t                         0x0001a170   Lc    1   --   De 
     79  $d                         0x0001a1b6   Lc    1   --   De 
     80  $t                         0x0001a1c0   Lc    1   --   De 
     81  $d                         0x0001a1c6   Lc    1   --   De 
     82  $t                         0x0001a1cc   Lc    1   --   De 
     83  $d                         0x0001a1d6   Lc    1   --   De 
     84  $t                         0x0001a1ec   Lc    1   --   De 
     85  $d                         0x0001a590   Lc    1   --   De 
     86  $t                         0x0001a5a0   Lc    1   --   De 
     87  $d                         0x0001a5bc   Lc    1   --   De 
     88  $t                         0x0001a5c0   Lc    1   --   De 
     89  $d                         0x0001a5d4   Lc    1   --   De 
     90  $t                         0x0001a5d8   Lc    1   --   De 
     91  $d                         0x0001a6a6   Lc    1   --   De 
     92  $t                         0x0001a6b0   Lc    1   --   De 
     93  $d                         0x0001a932   Lc    1   --   De 
     94  $t                         0x0001a938   Lc    1   --   De 
     95  $d                         0x0001a940   Lc    1   --   De 
     96  $t                         0x0001a944   Lc    1   --   De 
     97  $d                         0x0001aa86   Lc    1   --   De 
     98  $t                         0x0001aa8c   Lc    1   --   De 
     99  $d                         0x0001ab64   Lc    1   --   De 
    100  $t                         0x0001ab80   Lc    1   --   De 
    101  $d                         0x0001abc6   Lc    1   --   De 
    102  $t                         0x0001abcc   Lc    1   --   De 
    103  $d                         0x0001ac0e   Lc    1   --   De 
    104  $t                         0x0001ac14   Lc    1   --   De 
    105  $d                         0x0001ad3a   Lc    1   --   De 
    106  $t                         0x0001add8   Lc    1   --   De 
    107  $d                         0x0001afbc   Lc    1   --   De 
    108  $t                         0x0001afc4   Lc    1   --   De 
    109  $d                         0x0001b004   Lc    1   --   De 
    110  $t                         0x0001b034   Lc    1   --   De 
    111  $d                         0x0001b0c4   Lc    1   --   De 
    112  $t                         0x0001b0c8   Lc    1   --   De 
    113  $d                         0x0001b118   Lc    1   --   De 
    114  $t                         0x0001b11c   Lc    1   --   De 
    115  $d                         0x0001b19a   Lc    1   --   De 
    116  $t                         0x0001b19e   Lc    1   --   De 
    117  $d.realdata                0x0001b1dc   Lc    1   --   De 
    118  $d.realdata                0x10000000   Lc    2   --   De 
    119  $d.realdata                0x10060000   Lc    4   --   De 
    120  ..\src\am_resources.c      0x00000000   Lc  Abs  File  De 
    121  ../src/am_resources.c      0x00000000   Lc  Abs  File  De 
    122  .constdata                 0x0001b1dc   Lc    1  Sect  De   0x84
    123  ui32I2sWordLength          0x0001b1dc   Lc    1  Data  De   0x18
    124  __tagsym$$used             0x0001b1f4   Lc    1   --   De 
    125  __tagsym$$used             0x0001b208   Lc    1   --   De 
    126  __tagsym$$used             0x0001b21c   Lc    1   --   De 
    127  __tagsym$$used             0x0001b230   Lc    1   --   De 
    128  __tagsym$$used             0x0001b244   Lc    1   --   De 
    129  RESOURCE_TABLE             0x10060000   Lc    4  Sect  De   0x4
    130  __tagsym$$used             0x10060000   Lc    4   --   De 
    131  SHARED_RW                  0x10060004   Lc    4  Sect  De   0x3c
    132  __tagsym$$used             0x10060004   Lc    4   --   De 
    133  __tagsym$$used             0x10060018   Lc    4   --   De 
    134  __tagsym$$used             0x1006002c   Lc    4   --   De 
    135  ..\src\ios_fifo_host.c     0x00000000   Lc  Abs  File  De 
    136  ../src/ios_fifo_host.c     0x00000000   Lc  Abs  File  De 
    137  i.am_gpio0_001f_isr        0x0001884c   Lc    1  Sect  De 
    138  i.clear_rx_buf             0x0001a5c0   Lc    1  Sect  De 
    139  i.hostint_handler          0x0001a938   Lc    1  Sect  De 
    140  i.iom_set_up               0x0001aa8c   Lc    1  Sect  De 
    141  iom_set_up                 0x0001aa8d   Lc    1  Code  De   0xd8
    142  i.iom_slave_read           0x0001ab80   Lc    1  Sect  De 
    143  i.iom_slave_write          0x0001abcc   Lc    1  Sect  De 
    144  i.main                     0x0001ac14   Lc    1  Sect  De 
    145  i.update_progress          0x0001afa0   Lc    1  Sect  De 
    146  i.validate_rx_buf          0x0001afc4   Lc    1  Sect  De 
    147  .bss                       0x10000164   Lc    3  Sect  De   0x400
    148  .constdata                 0x0001b260   Lc    1  Sect  De   0x1c
    149  ui32I2sWordLength          0x0001b260   Lc    1  Data  De   0x18
    150  .data                      0x10000000   Lc    2  Sect  De   0x38
    151  g_sIOMSpiConfig            0x1000000c   Lc    2  Data  De   0x14
    152  g_sIOMI2cConfig            0x10000020   Lc    2  Data  De   0x14
    153  ..\..\..\..\..\..\utils\am_util_delay.c
                                    0x00000000   Lc  Abs  File  De 
    154  ../../../../../../utils/am_util_delay.c
                                    0x00000000   Lc  Abs  File  De 
    155  i.am_util_delay_ms         0x0001a170   Lc    1  Sect  De 
    156  ../../../../../../utils/am_util_stdio.c
                                    0x00000000   Lc  Abs  File  De 
    157  i.am_util_stdio_printf     0x0001a184   Lc    1  Sect  De 
    158  i.am_util_stdio_printf_init
                                    0x0001a1c0   Lc    1  Sect  De 
    159  i.am_util_stdio_terminal_clear
                                    0x0001a1cc   Lc    1  Sect  De 
    160  i.am_util_stdio_vsprintf   0x0001a1ec   Lc    1  Sect  De 
    161  i.decstr_to_int            0x0001a6b0   Lc    1  Sect  De 
    162  decstr_to_int              0x0001a6b1   Lc    1  Code  De   0x42
    163  i.divu64_10                0x0001a6f2   Lc    1  Sect  De 
    164  divu64_10                  0x0001a6f3   Lc    1  Code  De   0xcc
    165  i.ftoa                     0x0001a7c0   Lc    1  Sect  De 
    166  ftoa                       0x0001a7c1   Lc    1  Code  De   0x172
    167  i.ndigits_in_hex           0x0001add8   Lc    1  Sect  De 
    168  ndigits_in_hex             0x0001add9   Lc    1  Code  De   0x34
    169  i.ndigits_in_i64           0x0001ae0c   Lc    1  Sect  De 
    170  ndigits_in_i64             0x0001ae0d   Lc    1  Code  De   0x24
    171  i.ndigits_in_u64           0x0001ae30   Lc    1  Sect  De 
    172  ndigits_in_u64             0x0001ae31   Lc    1  Code  De   0x3a
    173  i.padbuffer                0x0001ae6a   Lc    1  Sect  De 
    174  padbuffer                  0x0001ae6b   Lc    1  Code  De   0x22
    175  i.simple_strlen            0x0001ae8c   Lc    1  Sect  De 
    176  simple_strlen              0x0001ae8d   Lc    1  Code  De   0x18
    177  i.uint64_to_hexstr         0x0001aea4   Lc    1  Sect  De 
    178  uint64_to_hexstr           0x0001aea5   Lc    1  Code  De   0x8a
    179  i.uint64_to_str            0x0001af2e   Lc    1  Sect  De 
    180  uint64_to_str              0x0001af2f   Lc    1  Code  De   0x70
    181  .bss                       0x10000564   Lc    3  Sect  De   0x400
    182  g_prfbuf                   0x10000564   Lc    3  Data  De   0x400
    183  .data                      0x10000038   Lc    2  Sect  De   0x5
    184  g_bTxtXlate                0x1000003c   Lc    2  Data  De   0x1
    185  ../keil/startup_keil.s     0x00000000   Lc  Abs  File  De 
    186  STACK                      0x100058e8   Lc    3  Sect  De   0x1000
    187  StackMem                   0x100058e8   Lc    3  Data  De 
    188  HEAP                       0x100058e8   Lc    3  Sect  De 
    189  HeapMem                    0x100058e8   Lc    3  Data  De 
    190  RESET                      0x00018000   Lc    1  Sect  De   0x234
    191  $v0                        0x00018200   Lc    1   --   De 
    192  am_cryptosec_isr           0x0001822f   Lc    1  Code  De 
    193  am_default_isr             0x0001822f   Lc    1  Code  De   0x2
    194  .text                      0x00018348   Lc    1  Sect  De   0x18
    195  $v0                        0x00018348   Lc    1   --   De 
    196  ..\am_bsp.c                0x00000000   Lc  Abs  File  De 
    197  ../am_bsp.c                0x00000000   Lc  Abs  File  De 
    198  i.am_bsp_iom_pins_enable   0x00018430   Lc    1  Sect  De 
    199  i.am_bsp_itm_printf_enable 0x000187b8   Lc    1  Sect  De 
    200  .data                      0x10000040   Lc    2  Sect  De   0x8
    201  g_ePrintInterface          0x10000040   Lc    2  Data  De   0x1
    202  g_sCOMUART                 0x10000044   Lc    2  Data  De   0x4
    203  ..\..\..\..\..\mcu\apollo4l\hal\mcu\am_hal_interrupt.c
                                    0x00000000   Lc  Abs  File  De 
    204  .emb_text                  0x00018330   Lc    1  Sect  De   0x16
    205  $v0                        0x00018330   Lc    1   --   De 
    206  ../../../../../mcu/apollo4l/hal/mcu/am_hal_interrupt.c
                                    0x00000000   Lc  Abs  File  De 
    207  ..\..\..\..\..\mcu\apollo4l\hal\mcu\am_hal_iom.c
                                    0x00000000   Lc  Abs  File  De 
    208  ../../../../../mcu/apollo4l/hal/mcu/am_hal_iom.c
                                    0x00000000   Lc  Abs  File  De 
    209  i.am_hal_iom_blocking_transfer
                                    0x00019228   Lc    1  Sect  De 
    210  i.am_hal_iom_configure     0x00019554   Lc    1  Sect  De 
    211  i.am_hal_iom_enable        0x00019848   Lc    1  Sect  De 
    212  i.am_hal_iom_initialize    0x00019964   Lc    1  Sect  De 
    213  i.am_hal_iom_power_ctrl    0x000199b8   Lc    1  Sect  De 
    214  i.internal_iom_reset_on_error
                                    0x0001a944   Lc    1  Sect  De 
    215  internal_iom_reset_on_error
                                    0x0001a945   Lc    1  Code  De   0x142
    216  i.validate_transaction     0x0001b034   Lc    1  Sect  De 
    217  .bss                       0x10000964   Lc    3  Sect  De   0x4540
    218  ..\..\..\..\..\mcu\apollo4l\hal\mcu\am_hal_sysctrl.c
                                    0x00000000   Lc  Abs  File  De 
    219  ../../../../../mcu/apollo4l/hal/mcu/am_hal_sysctrl.c
                                    0x00000000   Lc  Abs  File  De 
    220  i.am_hal_sysctrl_sleep     0x00019fd8   Lc    1  Sect  De 
    221  ..\..\..\..\..\mcu\apollo4l\hal\mcu\am_hal_utils.c
                                    0x00000000   Lc  Abs  File  De 
    222  ../../../../../mcu/apollo4l/hal/mcu/am_hal_utils.c
                                    0x00000000   Lc  Abs  File  De 
    223  i.am_hal_delay_us          0x00018c90   Lc    1  Sect  De 
    224  i.am_hal_delay_us_status_change
                                    0x00018cbc   Lc    1  Sect  De 
    225  i.am_hal_delay_us_status_check
                                    0x00018d14   Lc    1  Sect  De 
    226  ..\..\..\..\..\mcu\apollo4l\hal\am_hal_gpio.c
                                    0x00000000   Lc  Abs  File  De 
    227  ../../../../../mcu/apollo4l/hal/am_hal_gpio.c
                                    0x00000000   Lc  Abs  File  De 
    228  i.am_hal_gpio_interrupt_clear
                                    0x00018d78   Lc    1  Sect  De 
    229  i.am_hal_gpio_interrupt_control
                                    0x00018e30   Lc    1  Sect  De 
    230  i.am_hal_gpio_interrupt_irq_clear
                                    0x00018fac   Lc    1  Sect  De 
    231  i.am_hal_gpio_interrupt_irq_status_get
                                    0x00018fdc   Lc    1  Sect  De 
    232  i.am_hal_gpio_interrupt_register
                                    0x00019044   Lc    1  Sect  De 
    233  i.am_hal_gpio_interrupt_service
                                    0x000190b0   Lc    1  Sect  De 
    234  i.am_hal_gpio_pinconfig    0x00019108   Lc    1  Sect  De 
    235  i.am_hal_gpio_state_write  0x00019184   Lc    1  Sect  De 
    236  .bss                       0x10004ea4   Lc    3  Sect  De   0x800
    237  gpio_ppfnHandlers          0x10004ea4   Lc    3  Data  De   0x400
    238  gpio_pppvIrqArgs           0x100052a4   Lc    3  Data  De   0x400
    239  .constdata                 0x0001b27c   Lc    1  Sect  De   0x20
    240  g_ui32RMpintbl             0x0001b27c   Lc    1  Data  De   0x10
    241  g_ui32DSpintbl             0x0001b28c   Lc    1  Data  De   0x10
    242  ..\am_bsp_pins.c           0x00000000   Lc  Abs  File  De 
    243  ../am_bsp_pins.c           0x00000000   Lc  Abs  File  De 
    244  .data                      0x10000048   Lc    2  Sect  De   0x4
    245  .data                      0x1000004c   Lc    2  Sect  De   0x4
    246  .data                      0x10000050   Lc    2  Sect  De   0x4
    247  .data                      0x10000054   Lc    2  Sect  De   0x4
    248  .data                      0x10000058   Lc    2  Sect  De   0x4
    249  .data                      0x1000005c   Lc    2  Sect  De   0x4
    250  .data                      0x10000060   Lc    2  Sect  De   0x4
    251  .data                      0x10000064   Lc    2  Sect  De   0x4
    252  .data                      0x10000068   Lc    2  Sect  De   0x4
    253  .data                      0x1000006c   Lc    2  Sect  De   0x4
    254  .data                      0x10000070   Lc    2  Sect  De   0x4
    255  .data                      0x10000074   Lc    2  Sect  De   0x4
    256  .data                      0x10000078   Lc    2  Sect  De   0x4
    257  .data                      0x1000007c   Lc    2  Sect  De   0x4
    258  .data                      0x10000080   Lc    2  Sect  De   0x4
    259  .data                      0x10000084   Lc    2  Sect  De   0x4
    260  .data                      0x10000088   Lc    2  Sect  De   0x4
    261  .data                      0x1000008c   Lc    2  Sect  De   0x4
    262  .data                      0x10000090   Lc    2  Sect  De   0x4
    263  .data                      0x10000094   Lc    2  Sect  De   0x4
    264  .data                      0x10000098   Lc    2  Sect  De   0x4
    265  .data                      0x1000009c   Lc    2  Sect  De   0x4
    266  .data                      0x100000a0   Lc    2  Sect  De   0x4
    267  .data                      0x100000a4   Lc    2  Sect  De   0x4
    268  .data                      0x100000a8   Lc    2  Sect  De   0x4
    269  .data                      0x100000ac   Lc    2  Sect  De   0x4
    270  .data                      0x100000b0   Lc    2  Sect  De   0x4
    271  .data                      0x100000b4   Lc    2  Sect  De   0x4
    272  .data                      0x100000b8   Lc    2  Sect  De   0x4
    273  .data                      0x100000bc   Lc    2  Sect  De   0x4
    274  .data                      0x100000c0   Lc    2  Sect  De   0x4
    275  .data                      0x100000c4   Lc    2  Sect  De   0x4
    276  .data                      0x100000c8   Lc    2  Sect  De   0x4
    277  .data                      0x100000cc   Lc    2  Sect  De   0x4
    278  .data                      0x100000d0   Lc    2  Sect  De   0x4
    279  .data                      0x100000d4   Lc    2  Sect  De   0x4
    280  .data                      0x100000d8   Lc    2  Sect  De   0x4
    281  .data                      0x100000dc   Lc    2  Sect  De   0x4
    282  .data                      0x100000e0   Lc    2  Sect  De   0x4
    283  .data                      0x100000e4   Lc    2  Sect  De   0x4
    284  .data                      0x100000e8   Lc    2  Sect  De   0x4
    285  .data                      0x100000ec   Lc    2  Sect  De   0x4
    286  .data                      0x100000f0   Lc    2  Sect  De   0x4
    287  .data                      0x100000f4   Lc    2  Sect  De   0x4
    288  .data                      0x100000f8   Lc    2  Sect  De   0x4
    289  .data                      0x100000fc   Lc    2  Sect  De   0x4
    290  .data                      0x10000100   Lc    2  Sect  De   0x4
    291  .data                      0x10000104   Lc    2  Sect  De   0x4
    292  .data                      0x10000108   Lc    2  Sect  De   0x4
    293  ..\..\..\..\..\mcu\apollo4l\hal\mcu\am_hal_bootrom_helper.c
                                    0x00000000   Lc  Abs  File  De 
    294  ../../../../../mcu/apollo4l/hal/mcu/am_hal_bootrom_helper.c
                                    0x00000000   Lc  Abs  File  De 
    295  .constdata                 0x0001b29c   Lc    1  Sect  De   0x28
    296  ..\..\..\..\..\mcu\apollo4l\hal\mcu\am_hal_cachectrl.c
                                    0x00000000   Lc  Abs  File  De 
    297  ../../../../../mcu/apollo4l/hal/mcu/am_hal_cachectrl.c
                                    0x00000000   Lc  Abs  File  De 
    298  i.am_hal_daxi_config       0x00018a04   Lc    1  Sect  De 
    299  i.am_hal_daxi_control      0x00018a9c   Lc    1  Sect  De 
    300  .data                      0x1000010c   Lc    2  Sect  De   0x5
    301  i.__ARM_common_memcpy4_5   0x00018426   Lc    1  Sect  De 
    302  ..\..\..\..\..\mcu\apollo4l\hal\mcu\am_hal_cmdq.c
                                    0x00000000   Lc  Abs  File  De 
    303  ../../../../../mcu/apollo4l/hal/mcu/am_hal_cmdq.c
                                    0x00000000   Lc  Abs  File  De 
    304  i.am_hal_cmdq_disable      0x0001887c   Lc    1  Sect  De 
    305  i.am_hal_cmdq_enable       0x000188bc   Lc    1  Sect  De 
    306  i.am_hal_cmdq_init         0x00018914   Lc    1  Sect  De 
    307  .bss                       0x100056a4   Lc    3  Sect  De   0x1e4
    308  gAmHalCmdq                 0x100056a4   Lc    3  Data  De   0x1e4
    309  .constdata                 0x0001b2c4   Lc    1  Sect  De   0x1b8
    310  gAmHalCmdQReg              0x0001b2c4   Lc    1  Data  De   0x1b8
    311  ..\..\..\..\..\mcu\apollo4l\hal\mcu\am_hal_itm.c
                                    0x00000000   Lc  Abs  File  De 
    312  ../../../../../mcu/apollo4l/hal/mcu/am_hal_itm.c
                                    0x00000000   Lc  Abs  File  De 
    313  i.am_hal_itm_enable        0x00019cf0   Lc    1  Sect  De 
    314  i.am_hal_itm_print         0x00019d38   Lc    1  Sect  De 
    315  ..\..\..\..\..\mcu\apollo4l\hal\mcu\am_hal_rtc.c
                                    0x00000000   Lc  Abs  File  De 
    316  ../../../../../mcu/apollo4l/hal/mcu/am_hal_rtc.c
                                    0x00000000   Lc  Abs  File  De 
    317  ..\..\..\..\..\mcu\apollo4l\hal\mcu\am_hal_tpiu.c
                                    0x00000000   Lc  Abs  File  De 
    318  ../../../../../mcu/apollo4l/hal/mcu/am_hal_tpiu.c
                                    0x00000000   Lc  Abs  File  De 
    319  i.am_hal_tpiu_enable       0x0001a104   Lc    1  Sect  De 
    320  ..\..\..\..\..\mcu\apollo4l\hal\mcu\am_hal_uart.c
                                    0x00000000   Lc  Abs  File  De 
    321  ../../../../../mcu/apollo4l/hal/mcu/am_hal_uart.c
                                    0x00000000   Lc  Abs  File  De 
    322  ..\..\..\..\..\mcu\apollo4l\hal\am_hal_dcu.c
                                    0x00000000   Lc  Abs  File  De 
    323  ../../../../../mcu/apollo4l/hal/am_hal_dcu.c
                                    0x00000000   Lc  Abs  File  De 
    324  i.am_hal_dcu_get           0x00018b1c   Lc    1  Sect  De 
    325  i.am_hal_dcu_update        0x00018bac   Lc    1  Sect  De 
    326  i.copy_words               0x0001a5d8   Lc    1  Sect  De 
    327  copy_words                 0x0001a5d9   Lc    1  Code  De   0x28
    328  .data                      0x10000118   Lc    2  Sect  De   0x20
    329  ..\..\..\..\..\mcu\apollo4l\hal\am_hal_global.c
                                    0x00000000   Lc  Abs  File  De 
    330  ../../../../../mcu/apollo4l/hal/am_hal_global.c
                                    0x00000000   Lc  Abs  File  De 
    331  i.am_gpu_power_disable     0x00018876   Lc    1  Sect  De 
    332  i.am_gpu_power_enable      0x00018878   Lc    1  Sect  De 
    333  ..\..\..\..\..\mcu\apollo4l\hal\am_hal_pin.c
                                    0x00000000   Lc  Abs  File  De 
    334  ../../../../../mcu/apollo4l/hal/am_hal_pin.c
                                    0x00000000   Lc  Abs  File  De 
    335  ..\..\..\..\..\mcu\apollo4l\hal\am_hal_pwrctrl.c
                                    0x00000000   Lc  Abs  File  De 
    336  ../../../../../mcu/apollo4l/hal/am_hal_pwrctrl.c
                                    0x00000000   Lc  Abs  File  De 
    337  i.am_hal_pwrctrl_mcu_mode_select
                                    0x00019d68   Lc    1  Sect  De 
    338  i.am_hal_pwrctrl_mcu_mode_status
                                    0x00019de0   Lc    1  Sect  De 
    339  i.am_hal_pwrctrl_periph_disable
                                    0x00019df8   Lc    1  Sect  De 
    340  i.am_hal_pwrctrl_periph_enable
                                    0x00019f24   Lc    1  Sect  De 
    341  i.buck_ldo_update_override 0x0001a5a0   Lc    1  Sect  De 
    342  i.crypto_boost_trims       0x0001a600   Lc    1  Sect  De 
    343  .constdata                 0x0001b47c   Lc    1  Sect  De   0x19c
    344  .data                      0x10000138   Lc    2  Sect  De   0x2c
    345  g_bOrigTrimsStored         0x10000139   Lc    2  Data  De   0x1
    346  g_bBoostForCryptoApplied   0x1000013a   Lc    2  Data  De   0x1
    347  g_orig_ACTTRIMVDDF         0x10000144   Lc    2  Data  De   0x4
    348  g_orig_MEMLDOACTIVETRIM    0x10000148   Lc    2  Data  De   0x4
    349  g_orig_LPTRIMVDDF          0x1000014c   Lc    2  Data  De   0x4
    350  g_orig_MEMLPLDOTRIM        0x10000150   Lc    2  Data  De   0x4
    351  g_orig_TVRGVREFTRIM        0x10000154   Lc    2  Data  De   0x4
    352  g_ui32VDDFAdjustCodes      0x10000158   Lc    2  Data  De   0x4
    353  g_i32LatestVddfActTrim     0x1000015c   Lc    2  Data  De   0x4
    354  g_i32LatestLDOActTrim      0x10000160   Lc    2  Data  De   0x4
    355  ..\..\..\..\..\mcu\apollo4l\hal\mcu\am_hal_mram.c
                                    0x00000000   Lc  Abs  File  De 
    356  ../../../../../mcu/apollo4l/hal/mcu/am_hal_mram.c
                                    0x00000000   Lc  Abs  File  De 
    357  ..\..\..\..\..\mcu\apollo4l\hal\am_hal_queue.c
                                    0x00000000   Lc  Abs  File  De 
    358  ../../../../../mcu/apollo4l/hal/am_hal_queue.c
                                    0x00000000   Lc  Abs  File  De 
    359  dc.s                       0x00000000   Lc  Abs  File  De 
    360  ../clib/longlong.s         0x00000000   Lc  Abs  File  De 
    361  .text                      0x00018360   Lc    1  Sect  De   0x26
    362  ../clib/longlong.s         0x00000000   Lc  Abs  File  De 
    363  .text                      0x00018386   Lc    1  Sect  De   0x26
    364  ../clib/heapaux.c          0x00000000   Lc  Abs  File  De 
    365  .text                      0x000183ac   Lc    1  Sect  De 
    366  ../clib/angel/startup.s    0x00000000   Lc  Abs  File  De 
    367  !!!main                    0x00018234   Lc    1  Sect  De   0x8
    368  ../clib/angel/handlers.s   0x00000000   Lc  Abs  File  De 
    369  !!handler_copy             0x000182cc   Lc    1  Sect  De   0x1a
    370  ../fplib/d2f.s             0x00000000   Lc  Abs  File  De 
    371  x$fpl$d2f                  0x0001b0c8   Lc    1  Sect  De   0x62
    372  $v0                        0x0001b0c8   Lc    1   --   De 
    373  ../clib/angel/kernel.s     0x00000000   Lc  Abs  File  De 
    374  .ARM.Collect$$rtentry$$00000000
                                    0x00018310   Lc    1  Sect  De 
    375  ../fplib/dnaninf.s         0x00000000   Lc  Abs  File  De 
    376  x$fpl$dnaninf              0x0001b12a   Lc    1  Sect  De   0x9c
    377  $v0                        0x0001b12a   Lc    1   --   De 
    378  ../fplib/fretinf.s         0x00000000   Lc  Abs  File  De 
    379  x$fpl$fretinf              0x0001b1d0   Lc    1  Sect  De   0xa
    380  $v0                        0x0001b1d0   Lc    1   --   De 
    381  ../fplib/usenofp.s         0x00000000   Lc  Abs  File  De 
    382  x$fpl$usenofp              0x0001b1da   Lc    1  Sect  De 
    383  ../clib/angel/kernel.s     0x00000000   Lc  Abs  File  De 
    384  .ARM.Collect$$rtentry$$00000002
                                    0x00018310   Lc    1  Sect  De 
    385  .ARM.Collect$$rtentry$$00000009
                                    0x00018316   Lc    1  Sect  De 
    386  .ARM.Collect$$rtentry$$0000000A
                                    0x00018316   Lc    1  Sect  De   0x4
    387  .ARM.Collect$$rtentry$$0000000C
                                    0x0001831a   Lc    1  Sect  De 
    388  .ARM.Collect$$rtentry$$0000000D
                                    0x0001831a   Lc    1  Sect  De   0x8
    389  ../clib/angel/kernel.s     0x00000000   Lc  Abs  File  De 
    390  .ARM.Collect$$rtentry$$00000004
                                    0x00018310   Lc    1  Sect  De   0x6
    391  ../clib/angel/sys.s        0x00000000   Lc  Abs  File  De 
    392  .text                      0x000183b2   Lc    1  Sect  De   0x4a
    393  ../clib/stdlib.c           0x00000000   Lc  Abs  File  De 
    394  .text                      0x000183fc   Lc    1  Sect  De 
    395  ../clib/angel/boardlib.s   0x00000000   Lc  Abs  File  De 
    396  ../clib/angel/boardlib.s   0x00000000   Lc  Abs  File  De 
    397  ../clib/angel/boardlib.s   0x00000000   Lc  Abs  File  De 
    398  ../clib/libinit.s          0x00000000   Lc  Abs  File  De 
    399  .ARM.Collect$$libinit$$00000000
                                    0x00018304   Lc    1  Sect  De   0x2
    400  ../clib/angel/sys.s        0x00000000   Lc  Abs  File  De 
    401  .text                      0x00018410   Lc    1  Sect  De   0x8
    402  .bss                       0x10005888   Lc    3  Sect  De   0x60
    403  ../clib/angel/kernel.s     0x00000000   Lc  Abs  File  De 
    404  .ARM.Collect$$rtexit$$00000000
                                    0x00018322   Lc    1  Sect  De   0x2
    405  ../clib/libinit.s          0x00000000   Lc  Abs  File  De 
    406  .ARM.Collect$$libinit$$00000001
                                    0x00018306   Lc    1  Sect  De   0x4
    407  .ARM.Collect$$libinit$$00000004
                                    0x0001830a   Lc    1  Sect  De 
    408  .ARM.Collect$$libinit$$0000000A
                                    0x0001830a   Lc    1  Sect  De 
    409  .ARM.Collect$$libinit$$0000000C
                                    0x0001830a   Lc    1  Sect  De 
    410  .ARM.Collect$$libinit$$0000000E
                                    0x0001830a   Lc    1  Sect  De 
    411  .ARM.Collect$$libinit$$00000011
                                    0x0001830a   Lc    1  Sect  De 
    412  .ARM.Collect$$libinit$$00000013
                                    0x0001830a   Lc    1  Sect  De 
    413  .ARM.Collect$$libinit$$00000015
                                    0x0001830a   Lc    1  Sect  De 
    414  .ARM.Collect$$libinit$$00000017
                                    0x0001830a   Lc    1  Sect  De 
    415  .ARM.Collect$$libinit$$00000019
                                    0x0001830a   Lc    1  Sect  De 
    416  .ARM.Collect$$libinit$$0000001B
                                    0x0001830a   Lc    1  Sect  De 
    417  .ARM.Collect$$libinit$$0000001D
                                    0x0001830a   Lc    1  Sect  De 
    418  .ARM.Collect$$libinit$$0000001F
                                    0x0001830a   Lc    1  Sect  De 
    419  .ARM.Collect$$libinit$$00000021
                                    0x0001830a   Lc    1  Sect  De 
    420  .ARM.Collect$$libinit$$00000023
                                    0x0001830a   Lc    1  Sect  De 
    421  .ARM.Collect$$libinit$$00000025
                                    0x0001830a   Lc    1  Sect  De 
    422  .ARM.Collect$$libinit$$0000002C
                                    0x0001830a   Lc    1  Sect  De 
    423  .ARM.Collect$$libinit$$0000002E
                                    0x0001830a   Lc    1  Sect  De 
    424  .ARM.Collect$$libinit$$00000030
                                    0x0001830a   Lc    1  Sect  De 
    425  .ARM.Collect$$libinit$$00000032
                                    0x0001830a   Lc    1  Sect  De 
    426  .ARM.Collect$$libinit$$00000033
                                    0x0001830a   Lc    1  Sect  De   0x2
    427  ../clib/angel/kernel.s     0x00000000   Lc  Abs  File  De 
    428  .ARM.Collect$$rtexit$$00000002
                                    0x00018324   Lc    1  Sect  De 
    429  .ARM.Collect$$rtexit$$00000003
                                    0x00018324   Lc    1  Sect  De   0x4
    430  .ARM.Collect$$rtexit$$00000004
                                    0x00018328   Lc    1  Sect  De   0x6
    431  ../clib/armsys.c           0x00000000   Lc  Abs  File  De 
    432  ../clib/armsys.c           0x00000000   Lc  Abs  File  De 
    433  ../fplib/fpinit.s          0x00000000   Lc  Abs  File  De 
    434  x$fpl$fpinit               0x0001b1c6   Lc    1  Sect  De   0xa
    435  $v0                        0x0001b1c6   Lc    1   --   De 
    436  ../clib/angel/sysapp.c     0x00000000   Lc  Abs  File  De 
    437  .text                      0x00018418   Lc    1  Sect  De 
    438  ../clib/angel/boardlib.s   0x00000000   Lc  Abs  File  De 
    439  ../clib/armsys.c           0x00000000   Lc  Abs  File  De 
    440  ../clib/armsys.c           0x00000000   Lc  Abs  File  De 
    441  ../clib/libinit.s          0x00000000   Lc  Abs  File  De 
    442  .ARM.Collect$$libshutdown$$00000000
                                    0x0001830c   Lc    1  Sect  De   0x2
    443  ../clib/angel/sysapp.c     0x00000000   Lc  Abs  File  De 
    444  ../clib/angel/sys.s        0x00000000   Lc  Abs  File  De 
    445  .text                      0x00018424   Lc    1  Sect  De   0x2
    446  ../clib/angel/sys.s        0x00000000   Lc  Abs  File  De 
    447  .text                      0x00018426   Lc    1  Sect  De 
    448  ../clib/heapalloc.c        0x00000000   Lc  Abs  File  De 
    449  ../clib/signal.c           0x00000000   Lc  Abs  File  De 
    450  ../clib/signal.c           0x00000000   Lc  Abs  File  De 
    451  ../clib/libinit.s          0x00000000   Lc  Abs  File  De 
    452  .ARM.Collect$$libshutdown$$00000002
                                    0x0001830e   Lc    1  Sect  De 
    453  .ARM.Collect$$libshutdown$$00000004
                                    0x0001830e   Lc    1  Sect  De 
    454  .ARM.Collect$$libshutdown$$00000007
                                    0x0001830e   Lc    1  Sect  De 
    455  .ARM.Collect$$libshutdown$$0000000A
                                    0x0001830e   Lc    1  Sect  De 
    456  .ARM.Collect$$libshutdown$$0000000C
                                    0x0001830e   Lc    1  Sect  De 
    457  .ARM.Collect$$libshutdown$$0000000F
                                    0x0001830e   Lc    1  Sect  De 
    458  .ARM.Collect$$libshutdown$$00000010
                                    0x0001830e   Lc    1  Sect  De   0x2
    459  ../clib/angel/rt.s         0x00000000   Lc  Abs  File  De 
    460  ../clib/signal.c           0x00000000   Lc  Abs  File  De 
    461  ../clib/signal.c           0x00000000   Lc  Abs  File  De 
    462  ../clib/signal.c           0x00000000   Lc  Abs  File  De 
    463  ../clib/signal.c           0x00000000   Lc  Abs  File  De 
    464  ../clib/angel/sysapp.c     0x00000000   Lc  Abs  File  De 
    465  ../clib/signal.s           0x00000000   Lc  Abs  File  De 
    466  ../clib/signal.c           0x00000000   Lc  Abs  File  De 
    467  ../clib/signal.c           0x00000000   Lc  Abs  File  De 
    468  ../clib/signal.c           0x00000000   Lc  Abs  File  De 
    469  ../clib/signal.c           0x00000000   Lc  Abs  File  De 
    470  ../clib/signal.c           0x00000000   Lc  Abs  File  De 
    471  ../clib/signal.c           0x00000000   Lc  Abs  File  De 
    472  ../clib/signal.c           0x00000000   Lc  Abs  File  De 
    473  ../clib/signal.c           0x00000000   Lc  Abs  File  De 
    474  ../clib/angel/dczerorl2.s  0x00000000   Lc  Abs  File  De 
    475  !!dczerorl2                0x00018270   Lc    1  Sect  De   0x5a
    476  ../clib/angel/scatter.s    0x00000000   Lc  Abs  File  De 
    477  !!!scatter                 0x0001823c   Lc    1  Sect  De   0x34
    478  ../clib/angel/handlers.s   0x00000000   Lc  Abs  File  De 
    479  !!handler_zi               0x000182e8   Lc    1  Sect  De   0x1c
    480  BuildAttributes$$THM_ISAv4$E$P$D$K$B$S$7EM$VFPi3$EXTD16$VFPS$VFMA$PE$A:L22UL41UL21$X:L11$S22US41US21$IEEE1$IW$USESV6$~STKCKD$USESV7$~SHL$OTIME$ROPI$EBA8$UX$STANDARDLIB$REQ8$PRES8$EABIv2
                                    0x00000000   Gb  Abs   --   Hi 
    481  __ARM_use_no_argv          0x00000000   Gb  Abs   --   Hi 
    482  __Vectors                  0x00018000   Gb    1  Data  Hi 
    483  __Patchable                0x00018190   Gb    1  Data  Hi 
    484  Reset_Handler              0x00018201   Wk    1  Code  Hi   0x1c
    485  HardFault_Handler          0x0001821d   Wk    1  Code  Hi   0x2
    486  NMI_Handler                0x0001821f   Wk    1  Code  Hi   0x2
    487  MemManage_Handler          0x00018221   Wk    1  Code  Hi   0x2
    488  BusFault_Handler           0x00018223   Wk    1  Code  Hi   0x2
    489  UsageFault_Handler         0x00018225   Wk    1  Code  Hi   0x2
    490  SVC_Handler                0x00018227   Wk    1  Code  Hi   0x2
    491  DebugMon_Handler           0x00018229   Wk    1  Code  Hi   0x2
    492  PendSV_Handler             0x0001822b   Wk    1  Code  Hi   0x2
    493  SysTick_Handler            0x0001822d   Wk    1  Code  Hi   0x2
    494  am_adc_isr                 0x0001822f   Wk    1  Code  Hi 
    495  am_audadc0_isr             0x0001822f   Wk    1  Code  Hi 
    496  am_brownout_isr            0x0001822f   Wk    1  Code  Hi 
    497  am_cachecpu_isr            0x0001822f   Wk    1  Code  Hi 
    498  am_clkgen_isr              0x0001822f   Wk    1  Code  Hi 
    499  am_ctimer_isr              0x0001822f   Wk    1  Code  Hi 
    500  am_disp_isr                0x0001822f   Wk    1  Code  Hi 
    501  am_dsi_isr                 0x0001822f   Wk    1  Code  Hi 
    502  am_dspi2s0_isr             0x0001822f   Wk    1  Code  Hi 
    503  am_dspi2s1_isr             0x0001822f   Wk    1  Code  Hi 
    504  am_dspi2s2_isr             0x0001822f   Wk    1  Code  Hi 
    505  am_dspi2s3_isr             0x0001822f   Wk    1  Code  Hi 
    506  am_gpio0_203f_isr          0x0001822f   Wk    1  Code  Hi 
    507  am_gpio0_405f_isr          0x0001822f   Wk    1  Code  Hi 
    508  am_gpio0_607f_isr          0x0001822f   Wk    1  Code  Hi 
    509  am_gpio1_001f_isr          0x0001822f   Wk    1  Code  Hi 
    510  am_gpio1_203f_isr          0x0001822f   Wk    1  Code  Hi 
    511  am_gpio1_405f_isr          0x0001822f   Wk    1  Code  Hi 
    512  am_gpio1_607f_isr          0x0001822f   Wk    1  Code  Hi 
    513  am_gpu_isr                 0x0001822f   Wk    1  Code  Hi 
    514  am_iomaster0_isr           0x0001822f   Wk    1  Code  Hi 
    515  am_iomaster1_isr           0x0001822f   Wk    1  Code  Hi 
    516  am_iomaster2_isr           0x0001822f   Wk    1  Code  Hi 
    517  am_iomaster3_isr           0x0001822f   Wk    1  Code  Hi 
    518  am_iomaster4_isr           0x0001822f   Wk    1  Code  Hi 
    519  am_iomaster5_isr           0x0001822f   Wk    1  Code  Hi 
    520  am_iomaster6_isr           0x0001822f   Wk    1  Code  Hi 
    521  am_iomaster7_isr           0x0001822f   Wk    1  Code  Hi 
    522  am_ioslave_acc_isr         0x0001822f   Wk    1  Code  Hi 
    523  am_ioslave_ios_isr         0x0001822f   Wk    1  Code  Hi 
    524  am_mspi0_isr               0x0001822f   Wk    1  Code  Hi 
    525  am_mspi1_isr               0x0001822f   Wk    1  Code  Hi 
    526  am_mspi2_isr               0x0001822f   Wk    1  Code  Hi 
    527  am_pdm0_isr                0x0001822f   Wk    1  Code  Hi 
    528  am_pdm1_isr                0x0001822f   Wk    1  Code  Hi 
    529  am_pdm2_isr                0x0001822f   Wk    1  Code  Hi 
    530  am_pdm3_isr                0x0001822f   Wk    1  Code  Hi 
    531  am_rtc_isr                 0x0001822f   Wk    1  Code  Hi 
    532  am_sdio_isr                0x0001822f   Wk    1  Code  Hi 
    533  am_stimer_cmpr0_isr        0x0001822f   Wk    1  Code  Hi 
    534  am_stimer_cmpr1_isr        0x0001822f   Wk    1  Code  Hi 
    535  am_stimer_cmpr2_isr        0x0001822f   Wk    1  Code  Hi 
    536  am_stimer_cmpr3_isr        0x0001822f   Wk    1  Code  Hi 
    537  am_stimer_cmpr4_isr        0x0001822f   Wk    1  Code  Hi 
    538  am_stimer_cmpr5_isr        0x0001822f   Wk    1  Code  Hi 
    539  am_stimer_cmpr6_isr        0x0001822f   Wk    1  Code  Hi 
    540  am_stimer_cmpr7_isr        0x0001822f   Wk    1  Code  Hi 
    541  am_stimerof_isr            0x0001822f   Wk    1  Code  Hi 
    542  am_timer00_isr             0x0001822f   Wk    1  Code  Hi 
    543  am_timer01_isr             0x0001822f   Wk    1  Code  Hi 
    544  am_timer02_isr             0x0001822f   Wk    1  Code  Hi 
    545  am_timer03_isr             0x0001822f   Wk    1  Code  Hi 
    546  am_timer04_isr             0x0001822f   Wk    1  Code  Hi 
    547  am_timer05_isr             0x0001822f   Wk    1  Code  Hi 
    548  am_timer06_isr             0x0001822f   Wk    1  Code  Hi 
    549  am_timer07_isr             0x0001822f   Wk    1  Code  Hi 
    550  am_timer08_isr             0x0001822f   Wk    1  Code  Hi 
    551  am_timer09_isr             0x0001822f   Wk    1  Code  Hi 
    552  am_timer10_isr             0x0001822f   Wk    1  Code  Hi 
    553  am_timer11_isr             0x0001822f   Wk    1  Code  Hi 
    554  am_timer12_isr             0x0001822f   Wk    1  Code  Hi 
    555  am_timer13_isr             0x0001822f   Wk    1  Code  Hi 
    556  am_timer14_isr             0x0001822f   Wk    1  Code  Hi 
    557  am_timer15_isr             0x0001822f   Wk    1  Code  Hi 
    558  am_uart1_isr               0x0001822f   Wk    1  Code  Hi 
    559  am_uart2_isr               0x0001822f   Wk    1  Code  Hi 
    560  am_uart3_isr               0x0001822f   Wk    1  Code  Hi 
    561  am_uart_isr                0x0001822f   Wk    1  Code  Hi 
    562  am_usb_isr                 0x0001822f   Wk    1  Code  Hi 
    563  am_vcomp_isr               0x0001822f   Wk    1  Code  Hi 
    564  am_watchdog_isr            0x0001822f   Wk    1  Code  Hi 
    565  __main                     0x00018235   Gb    1  Code  Hi   0x8
    566  __scatterload              0x0001823d   Gb    1  Code  Hi 
    567  __scatterload_rt2          0x0001823d   Gb    1  Code  Hi   0x2c
    568  __scatterload_rt2_thumb_only
                                    0x0001823d   Gb    1  Code  Hi 
    569  __scatterload_null         0x0001824b   Gb    1  Code  Hi 
    570  __decompress               0x00018271   Gb    1  Code  Hi   0x5a
    571  __decompress1              0x00018271   Gb    1  Code  Hi 
    572  __scatterload_copy         0x000182cd   Gb    1  Code  Hi   0x1a
    573  __scatterload_zeroinit     0x000182e9   Gb    1  Code  Hi   0x1c
    574  __rt_lib_init              0x00018305   Gb    1  Code  De 
    575  __rt_lib_init_fp_1         0x00018307   Gb    1  Code  Hi 
    576  __rt_lib_init_alloca_1     0x0001830b   Gb    1  Code  Hi 
    577  __rt_lib_init_argv_1       0x0001830b   Gb    1  Code  Hi 
    578  __rt_lib_init_atexit_1     0x0001830b   Gb    1  Code  Hi 
    579  __rt_lib_init_clock_1      0x0001830b   Gb    1  Code  Hi 
    580  __rt_lib_init_cpp_1        0x0001830b   Gb    1  Code  Hi 
    581  __rt_lib_init_exceptions_1 0x0001830b   Gb    1  Code  Hi 
    582  __rt_lib_init_fp_trap_1    0x0001830b   Gb    1  Code  Hi 
    583  __rt_lib_init_getenv_1     0x0001830b   Gb    1  Code  Hi 
    584  __rt_lib_init_heap_1       0x0001830b   Gb    1  Code  Hi 
    585  __rt_lib_init_lc_collate_1 0x0001830b   Gb    1  Code  Hi 
    586  __rt_lib_init_lc_ctype_1   0x0001830b   Gb    1  Code  Hi 
    587  __rt_lib_init_lc_monetary_1
                                    0x0001830b   Gb    1  Code  Hi 
    588  __rt_lib_init_lc_numeric_1 0x0001830b   Gb    1  Code  Hi 
    589  __rt_lib_init_lc_time_1    0x0001830b   Gb    1  Code  Hi 
    590  __rt_lib_init_preinit_1    0x0001830b   Gb    1  Code  Hi 
    591  __rt_lib_init_rand_1       0x0001830b   Gb    1  Code  Hi 
    592  __rt_lib_init_return       0x0001830b   Gb    1  Code  Hi 
    593  __rt_lib_init_signal_1     0x0001830b   Gb    1  Code  Hi 
    594  __rt_lib_init_stdio_1      0x0001830b   Gb    1  Code  Hi 
    595  __rt_lib_init_user_alloc_1 0x0001830b   Gb    1  Code  Hi 
    596  __rt_lib_shutdown          0x0001830d   Gb    1  Code  De 
    597  __rt_lib_shutdown_cpp_1    0x0001830f   Gb    1  Code  Hi 
    598  __rt_lib_shutdown_fp_trap_1
                                    0x0001830f   Gb    1  Code  Hi 
    599  __rt_lib_shutdown_heap_1   0x0001830f   Gb    1  Code  Hi 
    600  __rt_lib_shutdown_return   0x0001830f   Gb    1  Code  Hi 
    601  __rt_lib_shutdown_signal_1 0x0001830f   Gb    1  Code  Hi 
    602  __rt_lib_shutdown_stdio_1  0x0001830f   Gb    1  Code  Hi 
    603  __rt_lib_shutdown_user_alloc_1
                                    0x0001830f   Gb    1  Code  Hi 
    604  __rt_entry                 0x00018311   Gb    1  Code  Hi 
    605  __rt_entry_presh_1         0x00018311   Gb    1  Code  Hi 
    606  __rt_entry_sh              0x00018311   Gb    1  Code  Hi 
    607  __rt_entry_li              0x00018317   Gb    1  Code  Hi 
    608  __rt_entry_postsh_1        0x00018317   Gb    1  Code  Hi 
    609  __rt_entry_main            0x0001831b   Gb    1  Code  Hi 
    610  __rt_entry_postli_1        0x0001831b   Gb    1  Code  Hi 
    611  __rt_exit                  0x00018323   Gb    1  Code  De 
    612  __rt_exit_ls               0x00018325   Gb    1  Code  Hi 
    613  __rt_exit_prels_1          0x00018325   Gb    1  Code  Hi 
    614  __rt_exit_exit             0x00018329   Gb    1  Code  Hi 
    615  am_hal_interrupt_master_enable
                                    0x00018331   Gb    1  Code  Hi   0x8
    616  am_hal_interrupt_master_disable
                                    0x00018339   Gb    1  Code  Hi   0x8
    617  am_hal_interrupt_master_set
                                    0x00018341   Gb    1  Code  Hi   0x6
    618  __user_initial_stackheap   0x00018349   Gb    1  Code  Hi   0xa
    619  __aeabi_llsl               0x00018361   Gb    1  Code  Hi 
    620  _ll_shift_l                0x00018361   Gb    1  Code  De   0x26
    621  __aeabi_llsr               0x00018387   Gb    1  Code  Hi 
    622  _ll_ushift_r               0x00018387   Gb    1  Code  De   0x26
    623  __use_two_region_memory    0x000183ad   Gb    1  Code  Hi   0x2
    624  __rt_heap_escrow$2region   0x000183af   Gb    1  Code  De   0x2
    625  __rt_heap_expand$2region   0x000183b1   Gb    1  Code  De   0x2
    626  __user_setup_stackheap     0x000183b3   Gb    1  Code  De   0x4a
    627  exit                       0x000183fd   Gb    1  Code  De   0x12
    628  __user_libspace            0x00018411   Wk    1  Code  De   0x8
    629  __user_perproc_libspace    0x00018411   Wk    1  Code  De 
    630  __user_perthread_libspace  0x00018411   Wk    1  Code  De 
    631  _sys_exit                  0x00018419   Gb    1  Code  De   0x8
    632  __I$use$semihosting        0x00018425   Gb    1  Code  Hi 
    633  __use_no_semihosting_swi   0x00018425   Gb    1  Code  Hi   0x2
    634  __ARM_common_memcpy4_5     0x00018427   Gb    1  Code  Hi   0xa
    635  __semihosting_library_function
                                    0x00018427   Gb    1  Code  Hi 
    636  am_bsp_iom_pins_enable     0x00018431   Gb    1  Code  Hi   0x2c6
    637  am_bsp_itm_printf_enable   0x000187b9   Gb    1  Code  Hi   0x7c
    638  am_gpio0_001f_isr          0x0001884d   Gb    1  Code  Hi   0x2a
    639  am_gpu_power_disable       0x00018877   Wk    1  Code  Hi   0x2
    640  am_gpu_power_enable        0x00018879   Wk    1  Code  Hi   0x2
    641  am_hal_cmdq_disable        0x0001887d   Gb    1  Code  Hi   0x3c
    642  am_hal_cmdq_enable         0x000188bd   Gb    1  Code  Hi   0x4e
    643  am_hal_cmdq_init           0x00018915   Gb    1  Code  Hi   0xe2
    644  am_hal_daxi_config         0x00018a05   Gb    1  Code  Hi   0x90
    645  am_hal_daxi_control        0x00018a9d   Gb    1  Code  Hi   0x76
    646  am_hal_dcu_get             0x00018b1d   Gb    1  Code  Hi   0x84
    647  am_hal_dcu_update          0x00018bad   Gb    1  Code  Hi   0xd6
    648  am_hal_delay_us            0x00018c91   Gb    1  Code  Hi   0x22
    649  am_hal_delay_us_status_change
                                    0x00018cbd   Gb    1  Code  Hi   0x50
    650  am_hal_delay_us_status_check
                                    0x00018d15   Gb    1  Code  Hi   0x5c
    651  am_hal_gpio_interrupt_clear
                                    0x00018d79   Gb    1  Code  Hi   0xb2
    652  am_hal_gpio_interrupt_control
                                    0x00018e31   Gb    1  Code  Hi   0x16e
    653  am_hal_gpio_interrupt_irq_clear
                                    0x00018fad   Gb    1  Code  Hi   0x2a
    654  am_hal_gpio_interrupt_irq_status_get
                                    0x00018fdd   Gb    1  Code  Hi   0x62
    655  am_hal_gpio_interrupt_register
                                    0x00019045   Gb    1  Code  Hi   0x64
    656  am_hal_gpio_interrupt_service
                                    0x000190b1   Gb    1  Code  Hi   0x52
    657  am_hal_gpio_pinconfig      0x00019109   Gb    1  Code  Hi   0x70
    658  am_hal_gpio_state_write    0x00019185   Gb    1  Code  Hi   0xa2
    659  am_hal_iom_blocking_transfer
                                    0x00019229   Gb    1  Code  Hi   0x314
    660  am_hal_iom_configure       0x00019555   Gb    1  Code  Hi   0x2b6
    661  am_hal_iom_enable          0x00019849   Gb    1  Code  Hi   0x112
    662  am_hal_iom_initialize      0x00019965   Gb    1  Code  Hi   0x4c
    663  am_hal_iom_power_ctrl      0x000199b9   Gb    1  Code  Hi   0x330
    664  am_hal_itm_enable          0x00019cf1   Gb    1  Code  Hi   0x2c
    665  am_hal_itm_print           0x00019d39   Gb    1  Code  Hi   0x30
    666  am_hal_pwrctrl_mcu_mode_select
                                    0x00019d69   Gb    1  Code  Hi   0x6e
    667  am_hal_pwrctrl_mcu_mode_status
                                    0x00019de1   Gb    1  Code  Hi   0x12
    668  am_hal_pwrctrl_periph_disable
                                    0x00019df9   Gb    1  Code  Hi   0x112
    669  am_hal_pwrctrl_periph_enable
                                    0x00019f25   Gb    1  Code  Hi   0xa6
    670  am_hal_sysctrl_sleep       0x00019fd9   Gb    1  Code  Hi   0x118
    671  am_hal_tpiu_enable         0x0001a105   Gb    1  Code  Hi   0x52
    672  am_util_delay_ms           0x0001a171   Gb    1  Code  Hi   0x12
    673  am_util_stdio_printf       0x0001a185   Gb    1  Code  Hi   0x32
    674  am_util_stdio_printf_init  0x0001a1c1   Gb    1  Code  Hi   0x6
    675  am_util_stdio_terminal_clear
                                    0x0001a1cd   Gb    1  Code  Hi   0xa
    676  am_util_stdio_vsprintf     0x0001a1ed   Gb    1  Code  Hi   0x3a4
    677  buck_ldo_update_override   0x0001a5a1   Gb    1  Code  Hi   0x1c
    678  clear_rx_buf               0x0001a5c1   Gb    1  Code  Hi   0x14
    679  crypto_boost_trims         0x0001a601   Gb    1  Code  Hi   0xa6
    680  hostint_handler            0x0001a939   Gb    1  Code  Hi   0x8
    681  iom_slave_read             0x0001ab81   Gb    1  Code  Hi   0x46
    682  iom_slave_write            0x0001abcd   Gb    1  Code  Hi   0x42
    683  main                       0x0001ac15   Gb    1  Code  Hi   0x126
    684  update_progress            0x0001afa1   Gb    1  Code  Hi   0x1c
    685  validate_rx_buf            0x0001afc5   Gb    1  Code  Hi   0x40
    686  validate_transaction       0x0001b035   Gb    1  Code  Hi   0x90
    687  __aeabi_d2f                0x0001b0c9   Gb    1  Code  Hi 
    688  _d2f                       0x0001b0c9   Gb    1  Code  De   0x62
    689  __fpl_dnaninf              0x0001b12b   Gb    1  Code  De   0x9c
    690  _fp_init                   0x0001b1c7   Gb    1  Code  De   0xa
    691  __fplib_config_fpu_vfp     0x0001b1cf   Gb    1  Code  De 
    692  __fplib_config_pureend_doubles
                                    0x0001b1cf   Gb    1  Code  De 
    693  __fpl_fretinf              0x0001b1d1   Gb    1  Code  De   0xa
    694  __I$use$fp                 0x0001b1da   Gb    1   --   De 
    695  ui32MCUAllowed             0x0001b1f4   Gb    1  Data  Hi   0x14
    696  ui32DSP0Allowed            0x0001b208   Gb    1  Data  Hi   0x14
    697  ui32DSP1Allowed            0x0001b21c   Gb    1  Data  Hi   0x14
    698  ui32SharedAccess           0x0001b230   Gb    1  Data  Hi   0x14
    699  sGlobalAccess              0x0001b244   Gb    1  Data  Hi   0x1c
    700  g_AM_BSP_GPIO_HANDSHAKE    0x0001b278   Gb    1  Data  Hi   0x4
    701  g_am_hal_bootrom_helper    0x0001b29c   Gb    1  Data  Hi   0x28
    702  g_DefaultMcuMemCfg         0x0001b47c   Gb    1  Data  Hi   0x6
    703  g_DefaultSRAMCfg           0x0001b482   Gb    1  Data  Hi   0x6
    704  am_hal_pwrctrl_peripheral_control
                                    0x0001b488   Gb    1  Data  Hi   0x190
    705  Region$$Table$$Base        0x0001b618   Gb    1   --   Hi 
    706  Region$$Table$$Limit       0x0001b648   Gb    1   --   Hi 
    707  g_startIdx                 0x10000000   Gb    2  Data  Hi   0x4
    708  bIosInt                    0x10000004   Gb    2  Data  Hi   0x1
    709  g_IOMHandle                0x10000008   Gb    2  Data  Hi   0x4
    710  g_ui32LastUpdate           0x10000034   Gb    2  Data  Hi   0x4
    711  g_pfnCharPrint             0x10000038   Gb    2  Data  Hi   0x4
    712  g_AM_BSP_GPIO_IOM0_CS      0x10000048   Gb    2  Data  Hi   0x4
    713  g_AM_BSP_GPIO_IOM0_MISO    0x1000004c   Gb    2  Data  Hi   0x4
    714  g_AM_BSP_GPIO_IOM0_MOSI    0x10000050   Gb    2  Data  Hi   0x4
    715  g_AM_BSP_GPIO_IOM0_SCK     0x10000054   Gb    2  Data  Hi   0x4
    716  g_AM_BSP_GPIO_IOM0_SCL     0x10000058   Gb    2  Data  Hi   0x4
    717  g_AM_BSP_GPIO_IOM0_SDA     0x1000005c   Gb    2  Data  Hi   0x4
    718  g_AM_BSP_GPIO_IOM1_CS      0x10000060   Gb    2  Data  Hi   0x4
    719  g_AM_BSP_GPIO_IOM1_MISO    0x10000064   Gb    2  Data  Hi   0x4
    720  g_AM_BSP_GPIO_IOM1_MOSI    0x10000068   Gb    2  Data  Hi   0x4
    721  g_AM_BSP_GPIO_IOM1_SCK     0x1000006c   Gb    2  Data  Hi   0x4
    722  g_AM_BSP_GPIO_IOM1_SCL     0x10000070   Gb    2  Data  Hi   0x4
    723  g_AM_BSP_GPIO_IOM1_SDA     0x10000074   Gb    2  Data  Hi   0x4
    724  g_AM_BSP_GPIO_IOM2_CS      0x10000078   Gb    2  Data  Hi   0x4
    725  g_AM_BSP_GPIO_IOM2_MISO    0x1000007c   Gb    2  Data  Hi   0x4
    726  g_AM_BSP_GPIO_IOM2_MOSI    0x10000080   Gb    2  Data  Hi   0x4
    727  g_AM_BSP_GPIO_IOM2_SCK     0x10000084   Gb    2  Data  Hi   0x4
    728  g_AM_BSP_GPIO_IOM2_SCL     0x10000088   Gb    2  Data  Hi   0x4
    729  g_AM_BSP_GPIO_IOM2_SDA     0x1000008c   Gb    2  Data  Hi   0x4
    730  g_AM_BSP_GPIO_IOM3_CS      0x10000090   Gb    2  Data  Hi   0x4
    731  g_AM_BSP_GPIO_IOM3_MISO    0x10000094   Gb    2  Data  Hi   0x4
    732  g_AM_BSP_GPIO_IOM3_MOSI    0x10000098   Gb    2  Data  Hi   0x4
    733  g_AM_BSP_GPIO_IOM3_SCK     0x1000009c   Gb    2  Data  Hi   0x4
    734  g_AM_BSP_GPIO_IOM3_SCL     0x100000a0   Gb    2  Data  Hi   0x4
    735  g_AM_BSP_GPIO_IOM3_SDA     0x100000a4   Gb    2  Data  Hi   0x4
    736  g_AM_BSP_GPIO_IOM4_CS      0x100000a8   Gb    2  Data  Hi   0x4
    737  g_AM_BSP_GPIO_IOM4_MISO    0x100000ac   Gb    2  Data  Hi   0x4
    738  g_AM_BSP_GPIO_IOM4_MOSI    0x100000b0   Gb    2  Data  Hi   0x4
    739  g_AM_BSP_GPIO_IOM4_SCK     0x100000b4   Gb    2  Data  Hi   0x4
    740  g_AM_BSP_GPIO_IOM4_SCL     0x100000b8   Gb    2  Data  Hi   0x4
    741  g_AM_BSP_GPIO_IOM4_SDA     0x100000bc   Gb    2  Data  Hi   0x4
    742  g_AM_BSP_GPIO_IOM5_CS      0x100000c0   Gb    2  Data  Hi   0x4
    743  g_AM_BSP_GPIO_IOM5_MISO    0x100000c4   Gb    2  Data  Hi   0x4
    744  g_AM_BSP_GPIO_IOM5_MOSI    0x100000c8   Gb    2  Data  Hi   0x4
    745  g_AM_BSP_GPIO_IOM5_SCK     0x100000cc   Gb    2  Data  Hi   0x4
    746  g_AM_BSP_GPIO_IOM5_SCL     0x100000d0   Gb    2  Data  Hi   0x4
    747  g_AM_BSP_GPIO_IOM5_SDA     0x100000d4   Gb    2  Data  Hi   0x4
    748  g_AM_BSP_GPIO_IOM6_CS      0x100000d8   Gb    2  Data  Hi   0x4
    749  g_AM_BSP_GPIO_IOM6_MISO    0x100000dc   Gb    2  Data  Hi   0x4
    750  g_AM_BSP_GPIO_IOM6_MOSI    0x100000e0   Gb    2  Data  Hi   0x4
    751  g_AM_BSP_GPIO_IOM6_SCK     0x100000e4   Gb    2  Data  Hi   0x4
    752  g_AM_BSP_GPIO_IOM6_SCL     0x100000e8   Gb    2  Data  Hi   0x4
    753  g_AM_BSP_GPIO_IOM6_SDA     0x100000ec   Gb    2  Data  Hi   0x4
    754  g_AM_BSP_GPIO_IOM7_CS      0x100000f0   Gb    2  Data  Hi   0x4
    755  g_AM_BSP_GPIO_IOM7_MISO    0x100000f4   Gb    2  Data  Hi   0x4
    756  g_AM_BSP_GPIO_IOM7_MOSI    0x100000f8   Gb    2  Data  Hi   0x4
    757  g_AM_BSP_GPIO_IOM7_SCK     0x100000fc   Gb    2  Data  Hi   0x4
    758  g_AM_BSP_GPIO_IOM7_SCL     0x10000100   Gb    2  Data  Hi   0x4
    759  g_AM_BSP_GPIO_IOM7_SDA     0x10000104   Gb    2  Data  Hi   0x4
    760  g_AM_BSP_GPIO_ITM_SWO      0x10000108   Gb    2  Data  Hi   0x4
    761  gDaxiConfig                0x1000010c   Gb    2  Data  Hi   0x5
    762  gStartOff                  0x10000118   Gb    2  Data  Hi   0x4
    763  gpDcuEnable                0x1000011c   Gb    2  Data  Hi   0x4
    764  gpDcuLock                  0x10000120   Gb    2  Data  Hi   0x4
    765  gDcuEnable                 0x10000128   Gb    2  Data  Hi   0x8
    766  gDcuDisable                0x10000130   Gb    2  Data  Hi   0x8
    767  g_eCurrPwrMode             0x10000138   Gb    2  Data  Hi   0x1
    768  g_ui32TrimVer              0x1000013c   Gb    2  Data  Hi   0x4
    769  g_ui32origSimobuckVDDStrim 0x10000140   Gb    2  Data  Hi   0x4
    770  g_pui8RcvBuf               0x10000164   Gb    3  Data  Hi   0x400
    771  g_IOMhandles               0x10000964   Gb    3  Data  Hi   0x4540
    772  __libspace_start           0x10005888   Gb    3  Data  De   0x60
    773  __temporary_stack_top$libspace
                                    0x100058e8   Gb    3  Data  De 
    774  psGlobalAccessPtr          0x10060000   Gb    4  Data  Hi   0x4
    775  ui32MCUClaimed             0x10060004   Gb    4  Data  Hi   0x14
    776  ui32DSP0Claimed            0x10060018   Gb    4  Data  Hi   0x14
    777  ui32DSP1Claimed            0x1006002c   Gb    4  Data  Hi   0x14


** Section #13 '.strtab' (SHT_STRTAB)
    Size   : 12120 bytes

            #  Offset String
        ====================================

            1      1: $d
            2      4: $t
            3      7: $d.realdata
            4     19: ..\src\am_resources.c
            5     41: ../src/am_resources.c
            6     63: .constdata
            7     74: ui32I2sWordLength
            8     92: __tagsym$$used
            9    107: RESOURCE_TABLE
           10    122: SHARED_RW
           11    132: ..\src\ios_fifo_host.c
           12    155: ../src/ios_fifo_host.c
           13    178: i.am_gpio0_001f_isr
           14    198: i.clear_rx_buf
           15    213: i.hostint_handler
           16    231: i.iom_set_up
           17    244: iom_set_up
           18    255: i.iom_slave_read
           19    272: i.iom_slave_write
           20    290: i.main
           21    297: i.update_progress
           22    315: i.validate_rx_buf
           23    333: .bss
           24    338: .data
           25    344: g_sIOMSpiConfig
           26    360: g_sIOMI2cConfig
           27    376: ..\..\..\..\..\..\utils\am_util_delay.c
           28    416: ../../../../../../utils/am_util_delay.c
           29    456: i.am_util_delay_ms
           30    475: ../../../../../../utils/am_util_stdio.c
           31    515: i.am_util_stdio_printf
           32    538: i.am_util_stdio_printf_init
           33    566: i.am_util_stdio_terminal_clear
           34    597: i.am_util_stdio_vsprintf
           35    622: i.decstr_to_int
           36    638: decstr_to_int
           37    652: i.divu64_10
           38    664: divu64_10
           39    674: i.ftoa
           40    681: ftoa
           41    686: i.ndigits_in_hex
           42    703: ndigits_in_hex
           43    718: i.ndigits_in_i64
           44    735: ndigits_in_i64
           45    750: i.ndigits_in_u64
           46    767: ndigits_in_u64
           47    782: i.padbuffer
           48    794: padbuffer
           49    804: i.simple_strlen
           50    820: simple_strlen
           51    834: i.uint64_to_hexstr
           52    853: uint64_to_hexstr
           53    870: i.uint64_to_str
           54    886: uint64_to_str
           55    900: g_prfbuf
           56    909: g_bTxtXlate
           57    921: ../keil/startup_keil.s
           58    944: STACK
           59    950: StackMem
           60    959: HEAP
           61    964: HeapMem
           62    972: RESET
           63    978: $v0
           64    982: am_cryptosec_isr
           65    999: am_default_isr
           66   1014: .text
           67   1020: ..\am_bsp.c
           68   1032: ../am_bsp.c
           69   1044: i.am_bsp_iom_pins_enable
           70   1069: i.am_bsp_itm_printf_enable
           71   1096: g_ePrintInterface
           72   1114: g_sCOMUART
           73   1125: ..\..\..\..\..\mcu\apollo4l\hal\mcu\am_hal_interrupt.c
           74   1180: .emb_text
           75   1190: ../../../../../mcu/apollo4l/hal/mcu/am_hal_interrupt.c
           76   1245: ..\..\..\..\..\mcu\apollo4l\hal\mcu\am_hal_iom.c
           77   1294: ../../../../../mcu/apollo4l/hal/mcu/am_hal_iom.c
           78   1343: i.am_hal_iom_blocking_transfer
           79   1374: i.am_hal_iom_configure
           80   1397: i.am_hal_iom_enable
           81   1417: i.am_hal_iom_initialize
           82   1441: i.am_hal_iom_power_ctrl
           83   1465: i.internal_iom_reset_on_error
           84   1495: internal_iom_reset_on_error
           85   1523: i.validate_transaction
           86   1546: ..\..\..\..\..\mcu\apollo4l\hal\mcu\am_hal_sysctrl.c
           87   1599: ../../../../../mcu/apollo4l/hal/mcu/am_hal_sysctrl.c
           88   1652: i.am_hal_sysctrl_sleep
           89   1675: ..\..\..\..\..\mcu\apollo4l\hal\mcu\am_hal_utils.c
           90   1726: ../../../../../mcu/apollo4l/hal/mcu/am_hal_utils.c
           91   1777: i.am_hal_delay_us
           92   1795: i.am_hal_delay_us_status_change
           93   1827: i.am_hal_delay_us_status_check
           94   1858: ..\..\..\..\..\mcu\apollo4l\hal\am_hal_gpio.c
           95   1904: ../../../../../mcu/apollo4l/hal/am_hal_gpio.c
           96   1950: i.am_hal_gpio_interrupt_clear
           97   1980: i.am_hal_gpio_interrupt_control
           98   2012: i.am_hal_gpio_interrupt_irq_clear
           99   2046: i.am_hal_gpio_interrupt_irq_status_get
          100   2085: i.am_hal_gpio_interrupt_register
          101   2118: i.am_hal_gpio_interrupt_service
          102   2150: i.am_hal_gpio_pinconfig
          103   2174: i.am_hal_gpio_state_write
          104   2200: gpio_ppfnHandlers
          105   2218: gpio_pppvIrqArgs
          106   2235: g_ui32RMpintbl
          107   2250: g_ui32DSpintbl
          108   2265: ..\am_bsp_pins.c
          109   2282: ../am_bsp_pins.c
          110   2299: ..\..\..\..\..\mcu\apollo4l\hal\mcu\am_hal_bootrom_helper.c
          111   2359: ../../../../../mcu/apollo4l/hal/mcu/am_hal_bootrom_helper.c
          112   2419: ..\..\..\..\..\mcu\apollo4l\hal\mcu\am_hal_cachectrl.c
          113   2474: ../../../../../mcu/apollo4l/hal/mcu/am_hal_cachectrl.c
          114   2529: i.am_hal_daxi_config
          115   2550: i.am_hal_daxi_control
          116   2572: i.__ARM_common_memcpy4_5
          117   2597: ..\..\..\..\..\mcu\apollo4l\hal\mcu\am_hal_cmdq.c
          118   2647: ../../../../../mcu/apollo4l/hal/mcu/am_hal_cmdq.c
          119   2697: i.am_hal_cmdq_disable
          120   2719: i.am_hal_cmdq_enable
          121   2740: i.am_hal_cmdq_init
          122   2759: gAmHalCmdq
          123   2770: gAmHalCmdQReg
          124   2784: ..\..\..\..\..\mcu\apollo4l\hal\mcu\am_hal_itm.c
          125   2833: ../../../../../mcu/apollo4l/hal/mcu/am_hal_itm.c
          126   2882: i.am_hal_itm_enable
          127   2902: i.am_hal_itm_print
          128   2921: ..\..\..\..\..\mcu\apollo4l\hal\mcu\am_hal_rtc.c
          129   2970: ../../../../../mcu/apollo4l/hal/mcu/am_hal_rtc.c
          130   3019: ..\..\..\..\..\mcu\apollo4l\hal\mcu\am_hal_tpiu.c
          131   3069: ../../../../../mcu/apollo4l/hal/mcu/am_hal_tpiu.c
          132   3119: i.am_hal_tpiu_enable
          133   3140: ..\..\..\..\..\mcu\apollo4l\hal\mcu\am_hal_uart.c
          134   3190: ../../../../../mcu/apollo4l/hal/mcu/am_hal_uart.c
          135   3240: ..\..\..\..\..\mcu\apollo4l\hal\am_hal_dcu.c
          136   3285: ../../../../../mcu/apollo4l/hal/am_hal_dcu.c
          137   3330: i.am_hal_dcu_get
          138   3347: i.am_hal_dcu_update
          139   3367: i.copy_words
          140   3380: copy_words
          141   3391: ..\..\..\..\..\mcu\apollo4l\hal\am_hal_global.c
          142   3439: ../../../../../mcu/apollo4l/hal/am_hal_global.c
          143   3487: i.am_gpu_power_disable
          144   3510: i.am_gpu_power_enable
          145   3532: ..\..\..\..\..\mcu\apollo4l\hal\am_hal_pin.c
          146   3577: ../../../../../mcu/apollo4l/hal/am_hal_pin.c
          147   3622: ..\..\..\..\..\mcu\apollo4l\hal\am_hal_pwrctrl.c
          148   3671: ../../../../../mcu/apollo4l/hal/am_hal_pwrctrl.c
          149   3720: i.am_hal_pwrctrl_mcu_mode_select
          150   3753: i.am_hal_pwrctrl_mcu_mode_status
          151   3786: i.am_hal_pwrctrl_periph_disable
          152   3818: i.am_hal_pwrctrl_periph_enable
          153   3849: i.buck_ldo_update_override
          154   3876: i.crypto_boost_trims
          155   3897: g_bOrigTrimsStored
          156   3916: g_bBoostForCryptoApplied
          157   3941: g_orig_ACTTRIMVDDF
          158   3960: g_orig_MEMLDOACTIVETRIM
          159   3984: g_orig_LPTRIMVDDF
          160   4002: g_orig_MEMLPLDOTRIM
          161   4022: g_orig_TVRGVREFTRIM
          162   4042: g_ui32VDDFAdjustCodes
          163   4064: g_i32LatestVddfActTrim
          164   4087: g_i32LatestLDOActTrim
          165   4109: ..\..\..\..\..\mcu\apollo4l\hal\mcu\am_hal_mram.c
          166   4159: ../../../../../mcu/apollo4l/hal/mcu/am_hal_mram.c
          167   4209: ..\..\..\..\..\mcu\apollo4l\hal\am_hal_queue.c
          168   4256: ../../../../../mcu/apollo4l/hal/am_hal_queue.c
          169   4303: dc.s
          170   4308: ../clib/longlong.s
          171   4327: ../clib/heapaux.c
          172   4345: ../clib/angel/startup.s
          173   4369: !!!main
          174   4377: ../clib/angel/handlers.s
          175   4402: !!handler_copy
          176   4417: ../fplib/d2f.s
          177   4432: x$fpl$d2f
          178   4442: ../clib/angel/kernel.s
          179   4465: .ARM.Collect$$rtentry$$00000000
          180   4497: ../fplib/dnaninf.s
          181   4516: x$fpl$dnaninf
          182   4530: ../fplib/fretinf.s
          183   4549: x$fpl$fretinf
          184   4563: ../fplib/usenofp.s
          185   4582: x$fpl$usenofp
          186   4596: .ARM.Collect$$rtentry$$00000002
          187   4628: .ARM.Collect$$rtentry$$00000009
          188   4660: .ARM.Collect$$rtentry$$0000000A
          189   4692: .ARM.Collect$$rtentry$$0000000C
          190   4724: .ARM.Collect$$rtentry$$0000000D
          191   4756: .ARM.Collect$$rtentry$$00000004
          192   4788: ../clib/angel/sys.s
          193   4808: ../clib/stdlib.c
          194   4825: ../clib/angel/boardlib.s
          195   4850: ../clib/libinit.s
          196   4868: .ARM.Collect$$libinit$$00000000
          197   4900: .ARM.Collect$$rtexit$$00000000
          198   4931: .ARM.Collect$$libinit$$00000001
          199   4963: .ARM.Collect$$libinit$$00000004
          200   4995: .ARM.Collect$$libinit$$0000000A
          201   5027: .ARM.Collect$$libinit$$0000000C
          202   5059: .ARM.Collect$$libinit$$0000000E
          203   5091: .ARM.Collect$$libinit$$00000011
          204   5123: .ARM.Collect$$libinit$$00000013
          205   5155: .ARM.Collect$$libinit$$00000015
          206   5187: .ARM.Collect$$libinit$$00000017
          207   5219: .ARM.Collect$$libinit$$00000019
          208   5251: .ARM.Collect$$libinit$$0000001B
          209   5283: .ARM.Collect$$libinit$$0000001D
          210   5315: .ARM.Collect$$libinit$$0000001F
          211   5347: .ARM.Collect$$libinit$$00000021
          212   5379: .ARM.Collect$$libinit$$00000023
          213   5411: .ARM.Collect$$libinit$$00000025
          214   5443: .ARM.Collect$$libinit$$0000002C
          215   5475: .ARM.Collect$$libinit$$0000002E
          216   5507: .ARM.Collect$$libinit$$00000030
          217   5539: .ARM.Collect$$libinit$$00000032
          218   5571: .ARM.Collect$$libinit$$00000033
          219   5603: .ARM.Collect$$rtexit$$00000002
          220   5634: .ARM.Collect$$rtexit$$00000003
          221   5665: .ARM.Collect$$rtexit$$00000004
          222   5696: ../clib/armsys.c
          223   5713: ../fplib/fpinit.s
          224   5731: x$fpl$fpinit
          225   5744: ../clib/angel/sysapp.c
          226   5767: .ARM.Collect$$libshutdown$$00000000
          227   5803: ../clib/heapalloc.c
          228   5823: ../clib/signal.c
          229   5840: .ARM.Collect$$libshutdown$$00000002
          230   5876: .ARM.Collect$$libshutdown$$00000004
          231   5912: .ARM.Collect$$libshutdown$$00000007
          232   5948: .ARM.Collect$$libshutdown$$0000000A
          233   5984: .ARM.Collect$$libshutdown$$0000000C
          234   6020: .ARM.Collect$$libshutdown$$0000000F
          235   6056: .ARM.Collect$$libshutdown$$00000010
          236   6092: ../clib/angel/rt.s
          237   6111: ../clib/signal.s
          238   6128: ../clib/angel/dczerorl2.s
          239   6154: !!dczerorl2
          240   6166: ../clib/angel/scatter.s
          241   6190: !!!scatter
          242   6201: !!handler_zi
          243   6214: BuildAttributes$$THM_ISAv4$E$P$D$K$B$S$7EM$VFPi3$EXTD16$VFPS$VFMA$PE$A:L22UL41UL21$X:L11$S22US41US21$IEEE1$IW$USESV6$~STKCKD$USESV7$~SHL$OTIME$ROPI$EBA8$UX$STANDARDLIB$REQ8$PRES8$EABIv2
          244   6400: __ARM_use_no_argv
          245   6418: __Vectors
          246   6428: __Patchable
          247   6440: Reset_Handler
          248   6454: HardFault_Handler
          249   6472: NMI_Handler
          250   6484: MemManage_Handler
          251   6502: BusFault_Handler
          252   6519: UsageFault_Handler
          253   6538: SVC_Handler
          254   6550: DebugMon_Handler
          255   6567: PendSV_Handler
          256   6582: SysTick_Handler
          257   6598: am_adc_isr
          258   6609: am_audadc0_isr
          259   6624: am_brownout_isr
          260   6640: am_cachecpu_isr
          261   6656: am_clkgen_isr
          262   6670: am_ctimer_isr
          263   6684: am_disp_isr
          264   6696: am_dsi_isr
          265   6707: am_dspi2s0_isr
          266   6722: am_dspi2s1_isr
          267   6737: am_dspi2s2_isr
          268   6752: am_dspi2s3_isr
          269   6767: am_gpio0_203f_isr
          270   6785: am_gpio0_405f_isr
          271   6803: am_gpio0_607f_isr
          272   6821: am_gpio1_001f_isr
          273   6839: am_gpio1_203f_isr
          274   6857: am_gpio1_405f_isr
          275   6875: am_gpio1_607f_isr
          276   6893: am_gpu_isr
          277   6904: am_iomaster0_isr
          278   6921: am_iomaster1_isr
          279   6938: am_iomaster2_isr
          280   6955: am_iomaster3_isr
          281   6972: am_iomaster4_isr
          282   6989: am_iomaster5_isr
          283   7006: am_iomaster6_isr
          284   7023: am_iomaster7_isr
          285   7040: am_ioslave_acc_isr
          286   7059: am_ioslave_ios_isr
          287   7078: am_mspi0_isr
          288   7091: am_mspi1_isr
          289   7104: am_mspi2_isr
          290   7117: am_pdm0_isr
          291   7129: am_pdm1_isr
          292   7141: am_pdm2_isr
          293   7153: am_pdm3_isr
          294   7165: am_rtc_isr
          295   7176: am_sdio_isr
          296   7188: am_stimer_cmpr0_isr
          297   7208: am_stimer_cmpr1_isr
          298   7228: am_stimer_cmpr2_isr
          299   7248: am_stimer_cmpr3_isr
          300   7268: am_stimer_cmpr4_isr
          301   7288: am_stimer_cmpr5_isr
          302   7308: am_stimer_cmpr6_isr
          303   7328: am_stimer_cmpr7_isr
          304   7348: am_stimerof_isr
          305   7364: am_timer00_isr
          306   7379: am_timer01_isr
          307   7394: am_timer02_isr
          308   7409: am_timer03_isr
          309   7424: am_timer04_isr
          310   7439: am_timer05_isr
          311   7454: am_timer06_isr
          312   7469: am_timer07_isr
          313   7484: am_timer08_isr
          314   7499: am_timer09_isr
          315   7514: am_timer10_isr
          316   7529: am_timer11_isr
          317   7544: am_timer12_isr
          318   7559: am_timer13_isr
          319   7574: am_timer14_isr
          320   7589: am_timer15_isr
          321   7604: am_uart1_isr
          322   7617: am_uart2_isr
          323   7630: am_uart3_isr
          324   7643: am_uart_isr
          325   7655: am_usb_isr
          326   7666: am_vcomp_isr
          327   7679: am_watchdog_isr
          328   7695: __main
          329   7702: __scatterload
          330   7716: __scatterload_rt2
          331   7734: __scatterload_rt2_thumb_only
          332   7763: __scatterload_null
          333   7782: __decompress
          334   7795: __decompress1
          335   7809: __scatterload_copy
          336   7828: __scatterload_zeroinit
          337   7851: __rt_lib_init
          338   7865: __rt_lib_init_fp_1
          339   7884: __rt_lib_init_alloca_1
          340   7907: __rt_lib_init_argv_1
          341   7928: __rt_lib_init_atexit_1
          342   7951: __rt_lib_init_clock_1
          343   7973: __rt_lib_init_cpp_1
          344   7993: __rt_lib_init_exceptions_1
          345   8020: __rt_lib_init_fp_trap_1
          346   8044: __rt_lib_init_getenv_1
          347   8067: __rt_lib_init_heap_1
          348   8088: __rt_lib_init_lc_collate_1
          349   8115: __rt_lib_init_lc_ctype_1
          350   8140: __rt_lib_init_lc_monetary_1
          351   8168: __rt_lib_init_lc_numeric_1
          352   8195: __rt_lib_init_lc_time_1
          353   8219: __rt_lib_init_preinit_1
          354   8243: __rt_lib_init_rand_1
          355   8264: __rt_lib_init_return
          356   8285: __rt_lib_init_signal_1
          357   8308: __rt_lib_init_stdio_1
          358   8330: __rt_lib_init_user_alloc_1
          359   8357: __rt_lib_shutdown
          360   8375: __rt_lib_shutdown_cpp_1
          361   8399: __rt_lib_shutdown_fp_trap_1
          362   8427: __rt_lib_shutdown_heap_1
          363   8452: __rt_lib_shutdown_return
          364   8477: __rt_lib_shutdown_signal_1
          365   8504: __rt_lib_shutdown_stdio_1
          366   8530: __rt_lib_shutdown_user_alloc_1
          367   8561: __rt_entry
          368   8572: __rt_entry_presh_1
          369   8591: __rt_entry_sh
          370   8605: __rt_entry_li
          371   8619: __rt_entry_postsh_1
          372   8639: __rt_entry_main
          373   8655: __rt_entry_postli_1
          374   8675: __rt_exit
          375   8685: __rt_exit_ls
          376   8698: __rt_exit_prels_1
          377   8716: __rt_exit_exit
          378   8731: am_hal_interrupt_master_enable
          379   8762: am_hal_interrupt_master_disable
          380   8794: am_hal_interrupt_master_set
          381   8822: __user_initial_stackheap
          382   8847: __aeabi_llsl
          383   8860: _ll_shift_l
          384   8872: __aeabi_llsr
          385   8885: _ll_ushift_r
          386   8898: __use_two_region_memory
          387   8922: __rt_heap_escrow$2region
          388   8947: __rt_heap_expand$2region
          389   8972: __user_setup_stackheap
          390   8995: exit
          391   9000: __user_libspace
          392   9016: __user_perproc_libspace
          393   9040: __user_perthread_libspace
          394   9066: _sys_exit
          395   9076: __I$use$semihosting
          396   9096: __use_no_semihosting_swi
          397   9121: __ARM_common_memcpy4_5
          398   9144: __semihosting_library_function
          399   9175: am_bsp_iom_pins_enable
          400   9198: am_bsp_itm_printf_enable
          401   9223: am_gpio0_001f_isr
          402   9241: am_gpu_power_disable
          403   9262: am_gpu_power_enable
          404   9282: am_hal_cmdq_disable
          405   9302: am_hal_cmdq_enable
          406   9321: am_hal_cmdq_init
          407   9338: am_hal_daxi_config
          408   9357: am_hal_daxi_control
          409   9377: am_hal_dcu_get
          410   9392: am_hal_dcu_update
          411   9410: am_hal_delay_us
          412   9426: am_hal_delay_us_status_change
          413   9456: am_hal_delay_us_status_check
          414   9485: am_hal_gpio_interrupt_clear
          415   9513: am_hal_gpio_interrupt_control
          416   9543: am_hal_gpio_interrupt_irq_clear
          417   9575: am_hal_gpio_interrupt_irq_status_get
          418   9612: am_hal_gpio_interrupt_register
          419   9643: am_hal_gpio_interrupt_service
          420   9673: am_hal_gpio_pinconfig
          421   9695: am_hal_gpio_state_write
          422   9719: am_hal_iom_blocking_transfer
          423   9748: am_hal_iom_configure
          424   9769: am_hal_iom_enable
          425   9787: am_hal_iom_initialize
          426   9809: am_hal_iom_power_ctrl
          427   9831: am_hal_itm_enable
          428   9849: am_hal_itm_print
          429   9866: am_hal_pwrctrl_mcu_mode_select
          430   9897: am_hal_pwrctrl_mcu_mode_status
          431   9928: am_hal_pwrctrl_periph_disable
          432   9958: am_hal_pwrctrl_periph_enable
          433   9987: am_hal_sysctrl_sleep
          434  10008: am_hal_tpiu_enable
          435  10027: am_util_delay_ms
          436  10044: am_util_stdio_printf
          437  10065: am_util_stdio_printf_init
          438  10091: am_util_stdio_terminal_clear
          439  10120: am_util_stdio_vsprintf
          440  10143: buck_ldo_update_override
          441  10168: clear_rx_buf
          442  10181: crypto_boost_trims
          443  10200: hostint_handler
          444  10216: iom_slave_read
          445  10231: iom_slave_write
          446  10247: main
          447  10252: update_progress
          448  10268: validate_rx_buf
          449  10284: validate_transaction
          450  10305: __aeabi_d2f
          451  10317: _d2f
          452  10322: __fpl_dnaninf
          453  10336: _fp_init
          454  10345: __fplib_config_fpu_vfp
          455  10368: __fplib_config_pureend_doubles
          456  10399: __fpl_fretinf
          457  10413: __I$use$fp
          458  10424: ui32MCUAllowed
          459  10439: ui32DSP0Allowed
          460  10455: ui32DSP1Allowed
          461  10471: ui32SharedAccess
          462  10488: sGlobalAccess
          463  10502: g_AM_BSP_GPIO_HANDSHAKE
          464  10526: g_am_hal_bootrom_helper
          465  10550: g_DefaultMcuMemCfg
          466  10569: g_DefaultSRAMCfg
          467  10586: am_hal_pwrctrl_peripheral_control
          468  10620: Region$$Table$$Base
          469  10640: Region$$Table$$Limit
          470  10661: g_startIdx
          471  10672: bIosInt
          472  10680: g_IOMHandle
          473  10692: g_ui32LastUpdate
          474  10709: g_pfnCharPrint
          475  10724: g_AM_BSP_GPIO_IOM0_CS
          476  10746: g_AM_BSP_GPIO_IOM0_MISO
          477  10770: g_AM_BSP_GPIO_IOM0_MOSI
          478  10794: g_AM_BSP_GPIO_IOM0_SCK
          479  10817: g_AM_BSP_GPIO_IOM0_SCL
          480  10840: g_AM_BSP_GPIO_IOM0_SDA
          481  10863: g_AM_BSP_GPIO_IOM1_CS
          482  10885: g_AM_BSP_GPIO_IOM1_MISO
          483  10909: g_AM_BSP_GPIO_IOM1_MOSI
          484  10933: g_AM_BSP_GPIO_IOM1_SCK
          485  10956: g_AM_BSP_GPIO_IOM1_SCL
          486  10979: g_AM_BSP_GPIO_IOM1_SDA
          487  11002: g_AM_BSP_GPIO_IOM2_CS
          488  11024: g_AM_BSP_GPIO_IOM2_MISO
          489  11048: g_AM_BSP_GPIO_IOM2_MOSI
          490  11072: g_AM_BSP_GPIO_IOM2_SCK
          491  11095: g_AM_BSP_GPIO_IOM2_SCL
          492  11118: g_AM_BSP_GPIO_IOM2_SDA
          493  11141: g_AM_BSP_GPIO_IOM3_CS
          494  11163: g_AM_BSP_GPIO_IOM3_MISO
          495  11187: g_AM_BSP_GPIO_IOM3_MOSI
          496  11211: g_AM_BSP_GPIO_IOM3_SCK
          497  11234: g_AM_BSP_GPIO_IOM3_SCL
          498  11257: g_AM_BSP_GPIO_IOM3_SDA
          499  11280: g_AM_BSP_GPIO_IOM4_CS
          500  11302: g_AM_BSP_GPIO_IOM4_MISO
          501  11326: g_AM_BSP_GPIO_IOM4_MOSI
          502  11350: g_AM_BSP_GPIO_IOM4_SCK
          503  11373: g_AM_BSP_GPIO_IOM4_SCL
          504  11396: g_AM_BSP_GPIO_IOM4_SDA
          505  11419: g_AM_BSP_GPIO_IOM5_CS
          506  11441: g_AM_BSP_GPIO_IOM5_MISO
          507  11465: g_AM_BSP_GPIO_IOM5_MOSI
          508  11489: g_AM_BSP_GPIO_IOM5_SCK
          509  11512: g_AM_BSP_GPIO_IOM5_SCL
          510  11535: g_AM_BSP_GPIO_IOM5_SDA
          511  11558: g_AM_BSP_GPIO_IOM6_CS
          512  11580: g_AM_BSP_GPIO_IOM6_MISO
          513  11604: g_AM_BSP_GPIO_IOM6_MOSI
          514  11628: g_AM_BSP_GPIO_IOM6_SCK
          515  11651: g_AM_BSP_GPIO_IOM6_SCL
          516  11674: g_AM_BSP_GPIO_IOM6_SDA
          517  11697: g_AM_BSP_GPIO_IOM7_CS
          518  11719: g_AM_BSP_GPIO_IOM7_MISO
          519  11743: g_AM_BSP_GPIO_IOM7_MOSI
          520  11767: g_AM_BSP_GPIO_IOM7_SCK
          521  11790: g_AM_BSP_GPIO_IOM7_SCL
          522  11813: g_AM_BSP_GPIO_IOM7_SDA
          523  11836: g_AM_BSP_GPIO_ITM_SWO
          524  11858: gDaxiConfig
          525  11870: gStartOff
          526  11880: gpDcuEnable
          527  11892: gpDcuLock
          528  11902: gDcuEnable
          529  11913: gDcuDisable
          530  11925: g_eCurrPwrMode
          531  11940: g_ui32TrimVer
          532  11954: g_ui32origSimobuckVDDStrim
          533  11981: g_pui8RcvBuf
          534  11994: g_IOMhandles
          535  12007: __libspace_start
          536  12024: __temporary_stack_top$libspace
          537  12055: psGlobalAccessPtr
          538  12073: ui32MCUClaimed
          539  12088: ui32DSP0Claimed
          540  12104: ui32DSP1Claimed


** Section #14 '.note' (SHT_NOTE)
    Size   : 32 bytes (alignment 4)


** Section #15 '.comment' (SHT_PROGBITS)
    Size   : 30620 bytes


** Section #16 '.shstrtab' (SHT_STRTAB)
    Size   : 164 bytes

            #  Offset String
        ====================================

            1      1: MCU_MRAM
            2     10: MCU_TCM
            3     18: SHARED_SRAM
            4     30: .debug_abbrev
            5     44: .debug_frame
            6     57: .debug_info
            7     69: .debug_line
            8     81: .debug_loc
            9     92: .debug_macinfo
           10    107: .debug_pubnames
           11    123: .symtab
           12    131: .strtab
           13    139: .note
           14    145: .comment
           15    154: .shstrtab


